
========================================================================

** ELF Header Information

    File Name: bin\multi_boot.axf

    Machine class: ELFCLASS32 (32-bit)
    Data encoding: ELFDATA2LSB (Little endian)
    Header version: EV_CURRENT (Current version)
    Operating System ABI: none
    ABI Version: 0
    File Type: ET_EXEC (Executable) (2)
    Machine: EM_ARM (ARM)

    Image Entry point: 0x00000099
    Flags: EF_ARM_HASENTRY + EF_ARM_ABI_FLOAT_HARD (0x05000402)

    ARM ELF revision: 5 (ABI version 2)

    Conforms to Hard float procedure-call standard

    Built with
    Component: ARM Compiler 5.06 update 6 (build 750) Tool: armasm [4d35ec]
    Component: ARM Compiler 5.06 update 6 (build 750) Tool: armlink [4d35ed]

    Header size: 52 bytes (0x34)
    Program header entry size: 32 bytes (0x20)
    Section header entry size: 40 bytes (0x28)

    Program header entries: 1
    Section header entries: 16

    Program header offset: 101260 (0x00018b8c)
    Section header offset: 101292 (0x00018bac)

    Section header string table index: 15

========================================================================

** Program header #0 (PT_LOAD) [PF_X + PF_W + PF_R + PF_ARM_ENTRY]
    Size : 15716 bytes (8936 bytes in file)
    Virtual address: 0x00000000 (Alignment 8)


========================================================================

** Section #1 'FLASH' (SHT_PROGBITS) [SHF_ALLOC + SHF_EXECINSTR]
    Size   : 8708 bytes (alignment 4)
    Address: 0x00000000

    $d
    RESET
    __Vectors
        0x00000000:    10001b60    `...    DCD    268442464
        0x00000004:    00000071    q...    DCD    113
        0x00000008:    0000008d    ....    DCD    141
        0x0000000c:    0000008f    ....    DCD    143
        0x00000010:    0000008f    ....    DCD    143
        0x00000014:    0000008f    ....    DCD    143
        0x00000018:    0000008f    ....    DCD    143
        0x0000001c:    00000000    ....    DCD    0
        0x00000020:    00000000    ....    DCD    0
        0x00000024:    00000000    ....    DCD    0
        0x00000028:    00000000    ....    DCD    0
        0x0000002c:    00000093    ....    DCD    147
        0x00000030:    00000093    ....    DCD    147
        0x00000034:    00000000    ....    DCD    0
        0x00000038:    00000093    ....    DCD    147
        0x0000003c:    00000093    ....    DCD    147
        0x00000040:    00000093    ....    DCD    147
        0x00000044:    00000093    ....    DCD    147
        0x00000048:    00000093    ....    DCD    147
        0x0000004c:    00000093    ....    DCD    147
        0x00000050:    00000093    ....    DCD    147
        0x00000054:    00000c09    ....    DCD    3081
        0x00000058:    00000093    ....    DCD    147
        0x0000005c:    00000093    ....    DCD    147
        0x00000060:    00000093    ....    DCD    147
        0x00000064:    00000531    1...    DCD    1329
        0x00000068:    00000093    ....    DCD    147
        0x0000006c:    00001795    ....    DCD    6037
    $t
    $v0
    Reset_Handler
        0x00000070:    f64e5088    N..P    MOV      r0,#0xed88
        0x00000074:    f2ce0000    ....    MOVT     r0,#0xe000
        0x00000078:    6801        .h      LDR      r1,[r0,#0]
        0x0000007a:    f4410170    A.p.    ORR      r1,r1,#0xf00000
        0x0000007e:    6001        .`      STR      r1,[r0,#0]
        0x00000080:    f3bf8f4f    ..O.    DSB      
        0x00000084:    f3bf8f6f    ..o.    ISB      
        0x00000088:    4802        .H      LDR      r0,[pc,#8] ; [0x94] = 0x99
        0x0000008a:    4700        .G      BX       r0
    am_nmi_isr
        0x0000008c:    e7fe        ..      B        am_nmi_isr ; 0x8c
    am_fault_isr
        0x0000008e:    e7fe        ..      B        am_fault_isr ; 0x8e
    am_memmanage_isr
        0x00000090:    e7fe        ..      B        am_memmanage_isr ; 0x90
    am_adc_isr
    am_brownout_isr
    am_clkgen_isr
    am_ctimer_isr
    am_debugmon_isr
    am_iomaster0_isr
    am_iomaster1_isr
    am_ioslave_ios_isr
    am_pendsv_isr
    am_svcall_isr
    am_systick_isr
    am_vcomp_isr
    am_watchdog_isr
        0x00000092:    e7fe        ..      B        am_adc_isr ; 0x92
    $d
        0x00000094:    00000099    ....    DCD    153
    $t
    !!!main
    __main
        0x00000098:    f000f802    ....    BL       __scatterload ; 0xa0
        0x0000009c:    f000f83c    ..<.    BL       __rt_entry ; 0x118
    !!!scatter
    __scatterload
    __scatterload_rt2
    __scatterload_rt2_thumb_only
        0x000000a0:    a00a        ..      ADR      r0,{pc}+0x2c ; 0xcc
        0x000000a2:    e8900c00    ....    LDM      r0,{r10,r11}
        0x000000a6:    4482        .D      ADD      r10,r10,r0
        0x000000a8:    4483        .D      ADD      r11,r11,r0
        0x000000aa:    f1aa0701    ....    SUB      r7,r10,#1
    __scatterload_null
        0x000000ae:    45da        .E      CMP      r10,r11
        0x000000b0:    d101        ..      BNE      0xb6 ; __scatterload_null + 8
        0x000000b2:    f000f831    ..1.    BL       __rt_entry ; 0x118
        0x000000b6:    f2af0e09    ....    ADR      lr,{pc}-7 ; 0xaf
        0x000000ba:    e8ba000f    ....    LDM      r10!,{r0-r3}
        0x000000be:    f0130f01    ....    TST      r3,#1
        0x000000c2:    bf18        ..      IT       NE
        0x000000c4:    1afb        ..      SUBNE    r3,r7,r3
        0x000000c6:    f0430301    C...    ORR      r3,r3,#1
        0x000000ca:    4718        .G      BX       r3
    $d
        0x000000cc:    00002118    .!..    DCD    8472
        0x000000d0:    00002138    8!..    DCD    8504
    $t
    !!handler_copy
    __scatterload_copy
        0x000000d4:    3a10        .:      SUBS     r2,r2,#0x10
        0x000000d6:    bf24        $.      ITT      CS
        0x000000d8:    c878        x.      LDMCS    r0!,{r3-r6}
        0x000000da:    c178        x.      STMCS    r1!,{r3-r6}
        0x000000dc:    d8fa        ..      BHI      __scatterload_copy ; 0xd4
        0x000000de:    0752        R.      LSLS     r2,r2,#29
        0x000000e0:    bf24        $.      ITT      CS
        0x000000e2:    c830        0.      LDMCS    r0!,{r4,r5}
        0x000000e4:    c130        0.      STMCS    r1!,{r4,r5}
        0x000000e6:    bf44        D.      ITT      MI
        0x000000e8:    6804        .h      LDRMI    r4,[r0,#0]
        0x000000ea:    600c        .`      STRMI    r4,[r1,#0]
        0x000000ec:    4770        pG      BX       lr
        0x000000ee:    0000        ..      MOVS     r0,r0
    !!handler_zi
    __scatterload_zeroinit
        0x000000f0:    2300        .#      MOVS     r3,#0
        0x000000f2:    2400        .$      MOVS     r4,#0
        0x000000f4:    2500        .%      MOVS     r5,#0
        0x000000f6:    2600        .&      MOVS     r6,#0
        0x000000f8:    3a10        .:      SUBS     r2,r2,#0x10
        0x000000fa:    bf28        (.      IT       CS
        0x000000fc:    c178        x.      STMCS    r1!,{r3-r6}
        0x000000fe:    d8fb        ..      BHI      0xf8 ; __scatterload_zeroinit + 8
        0x00000100:    0752        R.      LSLS     r2,r2,#29
        0x00000102:    bf28        (.      IT       CS
        0x00000104:    c130        0.      STMCS    r1!,{r4,r5}
        0x00000106:    bf48        H.      IT       MI
        0x00000108:    600b        .`      STRMI    r3,[r1,#0]
        0x0000010a:    4770        pG      BX       lr
    .ARM.Collect$$libinit$$00000000
    __rt_lib_init
        0x0000010c:    b51f        ..      PUSH     {r0-r4,lr}
    .ARM.Collect$$libinit$$00000001
    __rt_lib_init_fp_1
        0x0000010e:    f001fe22    ..".    BL       _fp_init ; 0x1d56
    .ARM.Collect$$libinit$$00000004
    .ARM.Collect$$libinit$$0000000A
    .ARM.Collect$$libinit$$0000000C
    .ARM.Collect$$libinit$$0000000E
    .ARM.Collect$$libinit$$00000011
    .ARM.Collect$$libinit$$00000013
    .ARM.Collect$$libinit$$00000015
    .ARM.Collect$$libinit$$00000017
    .ARM.Collect$$libinit$$00000019
    .ARM.Collect$$libinit$$0000001B
    .ARM.Collect$$libinit$$0000001D
    .ARM.Collect$$libinit$$0000001F
    .ARM.Collect$$libinit$$00000021
    .ARM.Collect$$libinit$$00000023
    .ARM.Collect$$libinit$$00000025
    .ARM.Collect$$libinit$$0000002C
    .ARM.Collect$$libinit$$0000002E
    .ARM.Collect$$libinit$$00000030
    .ARM.Collect$$libinit$$00000032
    .ARM.Collect$$libinit$$00000033
    __rt_lib_init_alloca_1
    __rt_lib_init_argv_1
    __rt_lib_init_atexit_1
    __rt_lib_init_clock_1
    __rt_lib_init_cpp_1
    __rt_lib_init_exceptions_1
    __rt_lib_init_fp_trap_1
    __rt_lib_init_getenv_1
    __rt_lib_init_heap_1
    __rt_lib_init_lc_collate_1
    __rt_lib_init_lc_ctype_1
    __rt_lib_init_lc_monetary_1
    __rt_lib_init_lc_numeric_1
    __rt_lib_init_lc_time_1
    __rt_lib_init_preinit_1
    __rt_lib_init_rand_1
    __rt_lib_init_return
    __rt_lib_init_signal_1
    __rt_lib_init_stdio_1
    __rt_lib_init_user_alloc_1
        0x00000112:    bd1f        ..      POP      {r0-r4,pc}
    .ARM.Collect$$libshutdown$$00000000
    __rt_lib_shutdown
        0x00000114:    b510        ..      PUSH     {r4,lr}
    .ARM.Collect$$libshutdown$$00000002
    .ARM.Collect$$libshutdown$$00000004
    .ARM.Collect$$libshutdown$$00000007
    .ARM.Collect$$libshutdown$$0000000A
    .ARM.Collect$$libshutdown$$0000000C
    .ARM.Collect$$libshutdown$$0000000F
    .ARM.Collect$$libshutdown$$00000010
    __rt_lib_shutdown_cpp_1
    __rt_lib_shutdown_fp_trap_1
    __rt_lib_shutdown_heap_1
    __rt_lib_shutdown_return
    __rt_lib_shutdown_signal_1
    __rt_lib_shutdown_stdio_1
    __rt_lib_shutdown_user_alloc_1
        0x00000116:    bd10        ..      POP      {r4,pc}
    .ARM.Collect$$rtentry$$00000000
    .ARM.Collect$$rtentry$$00000002
    .ARM.Collect$$rtentry$$00000004
    __rt_entry
    __rt_entry_presh_1
    __rt_entry_sh
        0x00000118:    f000f8cb    ....    BL       __user_setup_stackheap ; 0x2b2
        0x0000011c:    4611        .F      MOV      r1,r2
    .ARM.Collect$$rtentry$$00000009
    .ARM.Collect$$rtentry$$0000000A
    __rt_entry_li
    __rt_entry_postsh_1
        0x0000011e:    f7fffff5    ....    BL       __rt_lib_init ; 0x10c
    .ARM.Collect$$rtentry$$0000000C
    .ARM.Collect$$rtentry$$0000000D
    __rt_entry_main
    __rt_entry_postli_1
        0x00000122:    f001fc2f    ../.    BL       main ; 0x1984
        0x00000126:    f000f8e9    ....    BL       exit ; 0x2fc
    .ARM.Collect$$rtexit$$00000000
    __rt_exit
        0x0000012a:    b403        ..      PUSH     {r0,r1}
    .ARM.Collect$$rtexit$$00000002
    .ARM.Collect$$rtexit$$00000003
    __rt_exit_ls
    __rt_exit_prels_1
        0x0000012c:    f7fffff2    ....    BL       __rt_lib_shutdown ; 0x114
    .ARM.Collect$$rtexit$$00000004
    __rt_exit_exit
        0x00000130:    bc03        ..      POP      {r0,r1}
        0x00000132:    f000f8f1    ....    BL       _sys_exit ; 0x318
        0x00000136:    0000        ..      MOVS     r0,r0
    .emb_text
    $v0
    am_bootloader_encrypted_image_run
        0x00000138:    6941        Ai      LDR      r1,[r0,#0x14]
        0x0000013a:    6982        .i      LDR      r2,[r0,#0x18]
        0x0000013c:    6800        .h      LDR      r0,[r0,#0]
        0x0000013e:    f64e5308    N..S    MOV      r3,#0xed08
        0x00000142:    f2ce0300    ....    MOVT     r3,#0xe000
        0x00000146:    6018        .`      STR      r0,[r3,#0]
        0x00000148:    468d        .F      MOV      sp,r1
        0x0000014a:    4710        .G      BX       r2
    am_bootloader_clear_image_run
        0x0000014c:    6800        .h      LDR      r0,[r0,#0]
        0x0000014e:    f64e5308    N..S    MOV      r3,#0xed08
        0x00000152:    f2ce0300    ....    MOVT     r3,#0xe000
        0x00000156:    6018        .`      STR      r0,[r3,#0]
        0x00000158:    6801        .h      LDR      r1,[r0,#0]
        0x0000015a:    6842        Bh      LDR      r2,[r0,#4]
        0x0000015c:    468d        .F      MOV      sp,r1
        0x0000015e:    4710        .G      BX       r2
    .emb_text
    $v0
    am_hal_flash_delay
        0x00000160:    3801        .8      SUBS     r0,#1
        0x00000162:    d1fd        ..      BNE      am_hal_flash_delay ; 0x160
        0x00000164:    4770        pG      BX       lr
        0x00000166:    0000        ..      MOVS     r0,r0
    .emb_text
    $v0
    am_hal_interrupt_master_enable
        0x00000168:    f3ef8010    ....    MRS      r0,PRIMASK
        0x0000016c:    b662        b.      CPSIE    i
        0x0000016e:    4770        pG      BX       lr
    am_hal_interrupt_master_disable
        0x00000170:    f3ef8010    ....    MRS      r0,PRIMASK
        0x00000174:    b672        r.      CPSID    i
        0x00000176:    4770        pG      BX       lr
    am_hal_interrupt_master_set
        0x00000178:    f3808810    ....    MSR      PRIMASK,r0
        0x0000017c:    4770        pG      BX       lr
        0x0000017e:    0000        ..      MOVS     r0,r0
    .text
    $v0
    __user_initial_stackheap
        0x00000180:    4802        .H      LDR      r0,[pc,#8] ; [0x18c] = 0x10000b60
        0x00000182:    4903        .I      LDR      r1,[pc,#12] ; [0x190] = 0x10001b60
        0x00000184:    4a01        .J      LDR      r2,[pc,#4] ; [0x18c] = 0x10000b60
        0x00000186:    4b03        .K      LDR      r3,[pc,#12] ; [0x194] = 0x10000b60
        0x00000188:    4770        pG      BX       lr
    $d
        0x0000018a:    0000        ..      DCW    0
        0x0000018c:    10000b60    `...    DCD    268438368
        0x00000190:    10001b60    `...    DCD    268442464
        0x00000194:    10000b60    `...    DCD    268438368
    $t
    .text
    __aeabi_llsl
    _ll_shift_l
        0x00000198:    f1b20320    .. .    SUBS     r3,r2,#0x20
        0x0000019c:    d50a        ..      BPL      0x1b4 ; __aeabi_llsl + 28
        0x0000019e:    f1c20320    .. .    RSB      r3,r2,#0x20
        0x000001a2:    fa01f102    ....    LSL      r1,r1,r2
        0x000001a6:    fa20f303     ...    LSR      r3,r0,r3
        0x000001aa:    fa00f002    ....    LSL      r0,r0,r2
        0x000001ae:    ea410103    A...    ORR      r1,r1,r3
        0x000001b2:    4770        pG      BX       lr
        0x000001b4:    fa00f103    ....    LSL      r1,r0,r3
        0x000001b8:    f04f0000    O...    MOV      r0,#0
        0x000001bc:    4770        pG      BX       lr
    .text
    __aeabi_memcpy
    __rt_memcpy
        0x000001be:    2a03        .*      CMP      r2,#3
        0x000001c0:    f2408030    @.0.    BLS.W    _memcpy_lastbytes ; 0x224
        0x000001c4:    f0100c03    ....    ANDS     r12,r0,#3
        0x000001c8:    f0008015    ....    BEQ.W    0x1f6 ; __aeabi_memcpy + 56
        0x000001cc:    f8113b01    ...;    LDRB     r3,[r1],#1
        0x000001d0:    f1bc0f02    ....    CMP      r12,#2
        0x000001d4:    4462        bD      ADD      r2,r2,r12
        0x000001d6:    bf98        ..      IT       LS
        0x000001d8:    f811cb01    ....    LDRBLS   r12,[r1],#1
        0x000001dc:    f8003b01    ...;    STRB     r3,[r0],#1
        0x000001e0:    bf38        8.      IT       CC
        0x000001e2:    f8113b01    ...;    LDRBCC   r3,[r1],#1
        0x000001e6:    f1a20204    ....    SUB      r2,r2,#4
        0x000001ea:    bf98        ..      IT       LS
        0x000001ec:    f800cb01    ....    STRBLS   r12,[r0],#1
        0x000001f0:    bf38        8.      IT       CC
        0x000001f2:    f8003b01    ...;    STRBCC   r3,[r0],#1
        0x000001f6:    f0110303    ....    ANDS     r3,r1,#3
        0x000001fa:    f0008028    ..(.    BEQ.W    __aeabi_memcpy4 ; 0x24e
        0x000001fe:    3a08        .:      SUBS     r2,r2,#8
        0x00000200:    f0c08008    ....    BCC.W    0x214 ; __aeabi_memcpy + 86
        0x00000204:    f8513b04    Q..;    LDR      r3,[r1],#4
        0x00000208:    3a08        .:      SUBS     r2,r2,#8
        0x0000020a:    f851cb04    Q...    LDR      r12,[r1],#4
        0x0000020e:    e8a01008    ....    STM      r0!,{r3,r12}
        0x00000212:    e7f5        ..      B        0x200 ; __aeabi_memcpy + 66
        0x00000214:    1d12        ..      ADDS     r2,r2,#4
        0x00000216:    bf5c        \.      ITT      PL
        0x00000218:    f8513b04    Q..;    LDRPL    r3,[r1],#4
        0x0000021c:    f8403b04    @..;    STRPL    r3,[r0],#4
        0x00000220:    f3af8000    ....    NOP.W    
    _memcpy_lastbytes
        0x00000224:    07d2        ..      LSLS     r2,r2,#31
        0x00000226:    bf24        $.      ITT      CS
        0x00000228:    f8113b01    ...;    LDRBCS   r3,[r1],#1
        0x0000022c:    f811cb01    ....    LDRBCS   r12,[r1],#1
        0x00000230:    bf48        H.      IT       MI
        0x00000232:    f8112b01    ...+    LDRBMI   r2,[r1],#1
        0x00000236:    bf24        $.      ITT      CS
        0x00000238:    f8003b01    ...;    STRBCS   r3,[r0],#1
        0x0000023c:    f800cb01    ....    STRBCS   r12,[r0],#1
        0x00000240:    bf48        H.      IT       MI
        0x00000242:    f8002b01    ...+    STRBMI   r2,[r0],#1
        0x00000246:    4770        pG      BX       lr
    .text
    __use_two_region_memory
        0x00000248:    4770        pG      BX       lr
    __rt_heap_escrow$2region
        0x0000024a:    4770        pG      BX       lr
    __rt_heap_expand$2region
        0x0000024c:    4770        pG      BX       lr
    .text
    __aeabi_memcpy4
    __aeabi_memcpy8
    __rt_memcpy_w
        0x0000024e:    b510        ..      PUSH     {r4,lr}
        0x00000250:    3a20         :      SUBS     r2,r2,#0x20
        0x00000252:    f0c0800b    ....    BCC.W    0x26c ; __aeabi_memcpy4 + 30
        0x00000256:    e8b15018    ...P    LDM      r1!,{r3,r4,r12,lr}
        0x0000025a:    3a20         :      SUBS     r2,r2,#0x20
        0x0000025c:    e8a05018    ...P    STM      r0!,{r3,r4,r12,lr}
        0x00000260:    e8b15018    ...P    LDM      r1!,{r3,r4,r12,lr}
        0x00000264:    e8a05018    ...P    STM      r0!,{r3,r4,r12,lr}
        0x00000268:    f4bfaff5    ....    BCS.W    0x256 ; __aeabi_memcpy4 + 8
        0x0000026c:    ea5f7c02    _..|    LSLS     r12,r2,#28
        0x00000270:    bf24        $.      ITT      CS
        0x00000272:    e8b15018    ...P    LDMCS    r1!,{r3,r4,r12,lr}
        0x00000276:    e8a05018    ...P    STMCS    r0!,{r3,r4,r12,lr}
        0x0000027a:    bf44        D.      ITT      MI
        0x0000027c:    c918        ..      LDMMI    r1!,{r3,r4}
        0x0000027e:    c018        ..      STMMI    r0!,{r3,r4}
        0x00000280:    e8bd4010    ...@    POP      {r4,lr}
        0x00000284:    ea5f7c82    _..|    LSLS     r12,r2,#30
        0x00000288:    bf24        $.      ITT      CS
        0x0000028a:    f8513b04    Q..;    LDRCS    r3,[r1],#4
        0x0000028e:    f8403b04    @..;    STRCS    r3,[r0],#4
        0x00000292:    bf08        ..      IT       EQ
        0x00000294:    4770        pG      BXEQ     lr
    _memcpy_lastbytes_aligned
        0x00000296:    07d2        ..      LSLS     r2,r2,#31
        0x00000298:    bf28        (.      IT       CS
        0x0000029a:    f8313b02    1..;    LDRHCS   r3,[r1],#2
        0x0000029e:    bf48        H.      IT       MI
        0x000002a0:    f8112b01    ...+    LDRBMI   r2,[r1],#1
        0x000002a4:    bf28        (.      IT       CS
        0x000002a6:    f8203b02     ..;    STRHCS   r3,[r0],#2
        0x000002aa:    bf48        H.      IT       MI
        0x000002ac:    f8002b01    ...+    STRBMI   r2,[r0],#1
        0x000002b0:    4770        pG      BX       lr
    .text
    __user_setup_stackheap
        0x000002b2:    4675        uF      MOV      r5,lr
        0x000002b4:    f000f82c    ..,.    BL       __user_libspace ; 0x310
        0x000002b8:    46ae        .F      MOV      lr,r5
        0x000002ba:    0005        ..      MOVS     r5,r0
        0x000002bc:    4669        iF      MOV      r1,sp
        0x000002be:    4653        SF      MOV      r3,r10
        0x000002c0:    f0200007     ...    BIC      r0,r0,#7
        0x000002c4:    4685        .F      MOV      sp,r0
        0x000002c6:    b018        ..      ADD      sp,sp,#0x60
        0x000002c8:    b520         .      PUSH     {r5,lr}
        0x000002ca:    f7ffff59    ..Y.    BL       __user_initial_stackheap ; 0x180
        0x000002ce:    e8bd4020    .. @    POP      {r5,lr}
        0x000002d2:    f04f0600    O...    MOV      r6,#0
        0x000002d6:    f04f0700    O...    MOV      r7,#0
        0x000002da:    f04f0800    O...    MOV      r8,#0
        0x000002de:    f04f0b00    O...    MOV      r11,#0
        0x000002e2:    f0210107    !...    BIC      r1,r1,#7
        0x000002e6:    46ac        .F      MOV      r12,r5
        0x000002e8:    e8ac09c0    ....    STM      r12!,{r6-r8,r11}
        0x000002ec:    e8ac09c0    ....    STM      r12!,{r6-r8,r11}
        0x000002f0:    e8ac09c0    ....    STM      r12!,{r6-r8,r11}
        0x000002f4:    e8ac09c0    ....    STM      r12!,{r6-r8,r11}
        0x000002f8:    468d        .F      MOV      sp,r1
        0x000002fa:    4770        pG      BX       lr
    .text
    exit
        0x000002fc:    b510        ..      PUSH     {r4,lr}
        0x000002fe:    4604        .F      MOV      r4,r0
        0x00000300:    f3af8000    ....    NOP.W    
        0x00000304:    4620         F      MOV      r0,r4
        0x00000306:    e8bd4010    ...@    POP      {r4,lr}
        0x0000030a:    f7ffbf0e    ....    B.W      __rt_exit ; 0x12a
        0x0000030e:    0000        ..      MOVS     r0,r0
    .text
    __user_libspace
    __user_perproc_libspace
    __user_perthread_libspace
        0x00000310:    4800        .H      LDR      r0,[pc,#0] ; [0x314] = 0x10000b00
        0x00000312:    4770        pG      BX       lr
    $d
        0x00000314:    10000b00    ....    DCD    268438272
    $t
    .text
    _sys_exit
        0x00000318:    4901        .I      LDR      r1,[pc,#4] ; [0x320] = 0x20026
        0x0000031a:    2018        .       MOVS     r0,#0x18
        0x0000031c:    beab        ..      BKPT     #0xab
        0x0000031e:    e7fe        ..      B        0x31e ; _sys_exit + 6
    $d
        0x00000320:    00020026    &...    DCD    131110
    $t
    .text
    __I$use$semihosting
    __use_no_semihosting_swi
        0x00000324:    4770        pG      BX       lr
    .text
    __semihosting_library_function
        0x00000326:    0000        ..      MOVS     r0,r0
    i.am_bootloader_erase_flash_page
    am_bootloader_erase_flash_page
        0x00000328:    e92d41f0    -..A    PUSH     {r4-r8,lr}
        0x0000032c:    4604        .F      MOV      r4,r0
        0x0000032e:    f3c425c6    ...%    UBFX     r5,r4,#11,#7
        0x00000332:    f3c44680    ...F    UBFX     r6,r4,#18,#1
        0x00000336:    f7ffff1b    ....    BL       am_hal_interrupt_master_disable ; 0x170
        0x0000033a:    4607        .F      MOV      r7,r0
        0x0000033c:    462a        *F      MOV      r2,r5
        0x0000033e:    4631        1F      MOV      r1,r6
        0x00000340:    4803        .H      LDR      r0,[pc,#12] ; [0x350] = 0x12344321
        0x00000342:    f000fa25    ..%.    BL       am_hal_flash_page_erase ; 0x790
        0x00000346:    4638        8F      MOV      r0,r7
        0x00000348:    f7ffff16    ....    BL       am_hal_interrupt_master_set ; 0x178
        0x0000034c:    e8bd81f0    ....    POP      {r4-r8,pc}
    $d
        0x00000350:    12344321    !C4.    DCD    305414945
    $t
    i.am_bootloader_fast_crc32
    am_bootloader_fast_crc32
        0x00000354:    b570        p.      PUSH     {r4-r6,lr}
        0x00000356:    4602        .F      MOV      r2,r0
        0x00000358:    460b        .F      MOV      r3,r1
        0x0000035a:    2000        .       MOVS     r0,#0
        0x0000035c:    4615        .F      MOV      r5,r2
        0x0000035e:    2100        .!      MOVS     r1,#0
        0x00000360:    e008        ..      B        0x374 ; am_bootloader_fast_crc32 + 32
        0x00000362:    5c6e        n\      LDRB     r6,[r5,r1]
        0x00000364:    ea866410    ...d    EOR      r4,r6,r0,LSR #24
        0x00000368:    4e04        .N      LDR      r6,[pc,#16] ; [0x37c] = 0x1d60
        0x0000036a:    f8566024    V.$`    LDR      r6,[r6,r4,LSL #2]
        0x0000036e:    ea862000    ...     EOR      r0,r6,r0,LSL #8
        0x00000372:    1c49        I.      ADDS     r1,r1,#1
        0x00000374:    4299        .B      CMP      r1,r3
        0x00000376:    d3f4        ..      BCC      0x362 ; am_bootloader_fast_crc32 + 14
        0x00000378:    bd70        p.      POP      {r4-r6,pc}
    $d
        0x0000037a:    0000        ..      DCW    0
        0x0000037c:    00001d60    `...    DCD    7520
    $t
    i.am_bootloader_flag_page_update
    am_bootloader_flag_page_update
        0x00000380:    e92d47f0    -..G    PUSH     {r4-r10,lr}
        0x00000384:    4604        .F      MOV      r4,r0
        0x00000386:    460d        .F      MOV      r5,r1
        0x00000388:    2000        .       MOVS     r0,#0
        0x0000038a:    6220         b      STR      r0,[r4,#0x20]
        0x0000038c:    f1040220    .. .    ADD      r2,r4,#0x20
        0x00000390:    2120         !      MOVS     r1,#0x20
        0x00000392:    4620         F      MOV      r0,r4
        0x00000394:    f000f85e    ..^.    BL       am_bootloader_partial_crc32 ; 0x454
        0x00000398:    f7fffeea    ....    BL       am_hal_interrupt_master_disable ; 0x170
        0x0000039c:    4681        .F      MOV      r9,r0
        0x0000039e:    f3c527c6    ...'    UBFX     r7,r5,#11,#7
        0x000003a2:    f3c54680    ...F    UBFX     r6,r5,#18,#1
        0x000003a6:    463a        :F      MOV      r2,r7
        0x000003a8:    4631        1F      MOV      r1,r6
        0x000003aa:    4808        .H      LDR      r0,[pc,#32] ; [0x3cc] = 0x12344321
        0x000003ac:    f000f9f0    ....    BL       am_hal_flash_page_erase ; 0x790
        0x000003b0:    4680        .F      MOV      r8,r0
        0x000003b2:    2309        .#      MOVS     r3,#9
        0x000003b4:    462a        *F      MOV      r2,r5
        0x000003b6:    4621        !F      MOV      r1,r4
        0x000003b8:    4804        .H      LDR      r0,[pc,#16] ; [0x3cc] = 0x12344321
        0x000003ba:    f000f9ed    ....    BL       am_hal_flash_program_main ; 0x798
        0x000003be:    4680        .F      MOV      r8,r0
        0x000003c0:    4648        HF      MOV      r0,r9
        0x000003c2:    f7fffed9    ....    BL       am_hal_interrupt_master_set ; 0x178
        0x000003c6:    4640        @F      MOV      r0,r8
        0x000003c8:    e8bd87f0    ....    POP      {r4-r10,pc}
    $d
        0x000003cc:    12344321    !C4.    DCD    305414945
    $t
    i.am_bootloader_flash_check
    am_bootloader_flash_check
        0x000003d0:    b5f0        ..      PUSH     {r4-r7,lr}
        0x000003d2:    b08d        ..      SUB      sp,sp,#0x34
        0x000003d4:    4604        .F      MOV      r4,r0
        0x000003d6:    6827        'h      LDR      r7,[r4,#0]
        0x000003d8:    a801        ..      ADD      r0,sp,#4
        0x000003da:    f000fadd    ....    BL       am_hal_mcuctrl_device_info_get ; 0x998
        0x000003de:    bf00        ..      NOP      
        0x000003e0:    9807        ..      LDR      r0,[sp,#0x1c]
        0x000003e2:    42b8        .B      CMP      r0,r7
        0x000003e4:    d802        ..      BHI      0x3ec ; am_bootloader_flash_check + 28
        0x000003e6:    2000        .       MOVS     r0,#0
        0x000003e8:    b00d        ..      ADD      sp,sp,#0x34
        0x000003ea:    bdf0        ..      POP      {r4-r7,pc}
        0x000003ec:    69e0        .i      LDR      r0,[r4,#0x1c]
        0x000003ee:    b920         .      CBNZ     r0,0x3fa ; am_bootloader_flash_check + 42
        0x000003f0:    6820         h      LDR      r0,[r4,#0]
        0x000003f2:    6806        .h      LDR      r6,[r0,#0]
        0x000003f4:    6820         h      LDR      r0,[r4,#0]
        0x000003f6:    6845        Eh      LDR      r5,[r0,#4]
        0x000003f8:    e001        ..      B        0x3fe ; am_bootloader_flash_check + 46
        0x000003fa:    6966        fi      LDR      r6,[r4,#0x14]
        0x000003fc:    69a5        .i      LDR      r5,[r4,#0x18]
        0x000003fe:    f1b65f80    ..._    CMP      r6,#0x10000000
        0x00000402:    d304        ..      BCC      0x40e ; am_bootloader_flash_check + 62
        0x00000404:    9808        ..      LDR      r0,[sp,#0x20]
        0x00000406:    f1005080    ...P    ADD      r0,r0,#0x10000000
        0x0000040a:    42b0        .B      CMP      r0,r6
        0x0000040c:    d801        ..      BHI      0x412 ; am_bootloader_flash_check + 66
        0x0000040e:    2000        .       MOVS     r0,#0
        0x00000410:    e7ea        ..      B        0x3e8 ; am_bootloader_flash_check + 24
        0x00000412:    42bd        .B      CMP      r5,r7
        0x00000414:    d303        ..      BCC      0x41e ; am_bootloader_flash_check + 78
        0x00000416:    6860        `h      LDR      r0,[r4,#4]
        0x00000418:    4438        8D      ADD      r0,r0,r7
        0x0000041a:    42a8        .B      CMP      r0,r5
        0x0000041c:    d801        ..      BHI      0x422 ; am_bootloader_flash_check + 82
        0x0000041e:    2000        .       MOVS     r0,#0
        0x00000420:    e7e2        ..      B        0x3e8 ; am_bootloader_flash_check + 24
        0x00000422:    69e0        .i      LDR      r0,[r4,#0x1c]
        0x00000424:    b940        @.      CBNZ     r0,0x438 ; am_bootloader_flash_check + 104
        0x00000426:    e9d40100    ....    LDRD     r0,r1,[r4,#0]
        0x0000042a:    f7ffff93    ....    BL       am_bootloader_fast_crc32 ; 0x354
        0x0000042e:    68a1        .h      LDR      r1,[r4,#8]
        0x00000430:    4288        .B      CMP      r0,r1
        0x00000432:    d001        ..      BEQ      0x438 ; am_bootloader_flash_check + 104
        0x00000434:    2000        .       MOVS     r0,#0
        0x00000436:    e7d7        ..      B        0x3e8 ; am_bootloader_flash_check + 24
        0x00000438:    2001        .       MOVS     r0,#1
        0x0000043a:    e7d5        ..      B        0x3e8 ; am_bootloader_flash_check + 24
    i.am_bootloader_image_run
    am_bootloader_image_run
        0x0000043c:    b510        ..      PUSH     {r4,lr}
        0x0000043e:    4604        .F      MOV      r4,r0
        0x00000440:    69e0        .i      LDR      r0,[r4,#0x1c]
        0x00000442:    b118        ..      CBZ      r0,0x44c ; am_bootloader_image_run + 16
        0x00000444:    4620         F      MOV      r0,r4
        0x00000446:    f7fffe77    ..w.    BL       am_bootloader_encrypted_image_run ; 0x138
        0x0000044a:    e002        ..      B        0x452 ; am_bootloader_image_run + 22
        0x0000044c:    4620         F      MOV      r0,r4
        0x0000044e:    f7fffe7d    ..}.    BL       am_bootloader_clear_image_run ; 0x14c
        0x00000452:    bd10        ..      POP      {r4,pc}
    i.am_bootloader_partial_crc32
    am_bootloader_partial_crc32
        0x00000454:    b5f0        ..      PUSH     {r4-r7,lr}
        0x00000456:    4603        .F      MOV      r3,r0
        0x00000458:    460c        .F      MOV      r4,r1
        0x0000045a:    6811        .h      LDR      r1,[r2,#0]
        0x0000045c:    461e        .F      MOV      r6,r3
        0x0000045e:    2000        .       MOVS     r0,#0
        0x00000460:    e008        ..      B        0x474 ; am_bootloader_partial_crc32 + 32
        0x00000462:    5c37        7\      LDRB     r7,[r6,r0]
        0x00000464:    ea876511    ...e    EOR      r5,r7,r1,LSR #24
        0x00000468:    4f04        .O      LDR      r7,[pc,#16] ; [0x47c] = 0x1d60
        0x0000046a:    f8577025    W.%p    LDR      r7,[r7,r5,LSL #2]
        0x0000046e:    ea872101    ...!    EOR      r1,r7,r1,LSL #8
        0x00000472:    1c40        @.      ADDS     r0,r0,#1
        0x00000474:    42a0        .B      CMP      r0,r4
        0x00000476:    d3f4        ..      BCC      0x462 ; am_bootloader_partial_crc32 + 14
        0x00000478:    6011        .`      STR      r1,[r2,#0]
        0x0000047a:    bdf0        ..      POP      {r4-r7,pc}
    $d
        0x0000047c:    00001d60    `...    DCD    7520
    $t
    i.am_bootloader_program_flash_page
    am_bootloader_program_flash_page
        0x00000480:    e92d41f0    -..A    PUSH     {r4-r8,lr}
        0x00000484:    4604        .F      MOV      r4,r0
        0x00000486:    460e        .F      MOV      r6,r1
        0x00000488:    4615        .F      MOV      r5,r2
        0x0000048a:    4620         F      MOV      r0,r4
        0x0000048c:    f7ffff4c    ..L.    BL       am_bootloader_erase_flash_page ; 0x328
        0x00000490:    1ce8        ..      ADDS     r0,r5,#3
        0x00000492:    0887        ..      LSRS     r7,r0,#2
        0x00000494:    f7fffe6c    ..l.    BL       am_hal_interrupt_master_disable ; 0x170
        0x00000498:    4680        .F      MOV      r8,r0
        0x0000049a:    463b        ;F      MOV      r3,r7
        0x0000049c:    4622        "F      MOV      r2,r4
        0x0000049e:    4631        1F      MOV      r1,r6
        0x000004a0:    4803        .H      LDR      r0,[pc,#12] ; [0x4b0] = 0x12344321
        0x000004a2:    f000f979    ..y.    BL       am_hal_flash_program_main ; 0x798
        0x000004a6:    4640        @F      MOV      r0,r8
        0x000004a8:    f7fffe66    ..f.    BL       am_hal_interrupt_master_set ; 0x178
        0x000004ac:    e8bd81f0    ....    POP      {r4-r8,pc}
    $d
        0x000004b0:    12344321    !C4.    DCD    305414945
    $t
    i.am_bootloader_validate_structure
    am_bootloader_validate_structure
        0x000004b4:    b578        x.      PUSH     {r3-r6,lr}
        0x000004b6:    4605        .F      MOV      r5,r0
        0x000004b8:    460c        .F      MOV      r4,r1
        0x000004ba:    2000        .       MOVS     r0,#0
        0x000004bc:    9000        ..      STR      r0,[sp,#0]
        0x000004be:    08a0        ..      LSRS     r0,r4,#2
        0x000004c0:    eb050080    ....    ADD      r0,r5,r0,LSL #2
        0x000004c4:    1f06        ..      SUBS     r6,r0,#4
        0x000004c6:    1f21        !.      SUBS     r1,r4,#4
        0x000004c8:    466a        jF      MOV      r2,sp
        0x000004ca:    4628        (F      MOV      r0,r5
        0x000004cc:    f7ffffc2    ....    BL       am_bootloader_partial_crc32 ; 0x454
        0x000004d0:    6830        0h      LDR      r0,[r6,#0]
        0x000004d2:    9900        ..      LDR      r1,[sp,#0]
        0x000004d4:    4288        .B      CMP      r0,r1
        0x000004d6:    d001        ..      BEQ      0x4dc ; am_bootloader_validate_structure + 40
        0x000004d8:    2000        .       MOVS     r0,#0
        0x000004da:    bd78        x.      POP      {r3-r6,pc}
        0x000004dc:    2001        .       MOVS     r0,#1
        0x000004de:    e7fc        ..      B        0x4da ; am_bootloader_validate_structure + 38
    i.am_bootloader_write_flash_within_page
    am_bootloader_write_flash_within_page
        0x000004e0:    e92d41f0    -..A    PUSH     {r4-r8,lr}
        0x000004e4:    4604        .F      MOV      r4,r0
        0x000004e6:    460e        .F      MOV      r6,r1
        0x000004e8:    4615        .F      MOV      r5,r2
        0x000004ea:    f7fffe41    ..A.    BL       am_hal_interrupt_master_disable ; 0x170
        0x000004ee:    4607        .F      MOV      r7,r0
        0x000004f0:    462b        +F      MOV      r3,r5
        0x000004f2:    4622        "F      MOV      r2,r4
        0x000004f4:    4631        1F      MOV      r1,r6
        0x000004f6:    4804        .H      LDR      r0,[pc,#16] ; [0x508] = 0x12344321
        0x000004f8:    f000f94e    ..N.    BL       am_hal_flash_program_main ; 0x798
        0x000004fc:    4638        8F      MOV      r0,r7
        0x000004fe:    f7fffe3b    ..;.    BL       am_hal_interrupt_master_set ; 0x178
        0x00000502:    e8bd81f0    ....    POP      {r4-r8,pc}
    $d
        0x00000506:    0000        ..      DCW    0
        0x00000508:    12344321    !C4.    DCD    305414945
    $t
    i.am_bsp_low_power_init
    am_bsp_low_power_init
        0x0000050c:    b510        ..      PUSH     {r4,lr}
        0x0000050e:    f000fa2f    ../.    BL       am_hal_mcuctrl_bucks_enable ; 0x970
        0x00000512:    f000fb73    ..s.    BL       am_hal_vcomp_disable ; 0xbfc
        0x00000516:    2001        .       MOVS     r0,#1
        0x00000518:    f000faae    ....    BL       am_hal_rtc_osc_select ; 0xa78
        0x0000051c:    2001        .       MOVS     r0,#1
        0x0000051e:    f000f8f5    ....    BL       am_hal_clkgen_osc_stop ; 0x70c
        0x00000522:    f000faa2    ....    BL       am_hal_rtc_osc_disable ; 0xa6a
        0x00000526:    e8bd4010    ...@    POP      {r4,lr}
        0x0000052a:    f000ba19    ....    B.W      am_hal_mcuctrl_bandgap_disable ; 0x960
        0x0000052e:    0000        ..      MOVS     r0,r0
    i.am_gpio_isr
    am_gpio_isr
        0x00000530:    b510        ..      PUSH     {r4,lr}
        0x00000532:    2024        $       MOVS     r0,#0x24
        0x00000534:    f000ff26    ..&.    BL       am_multiboot_uart_detect_baudrate ; 0x1384
        0x00000538:    4604        .F      MOV      r4,r0
        0x0000053a:    4621        !F      MOV      r1,r4
        0x0000053c:    2000        .       MOVS     r0,#0
        0x0000053e:    f000fedd    ....    BL       am_multiboot_setup_serial ; 0x12fc
        0x00000542:    2155        U!      MOVS     r1,#0x55
        0x00000544:    2000        .       MOVS     r0,#0
        0x00000546:    f000fad5    ....    BL       am_hal_uart_char_transmit_polled ; 0xaf4
        0x0000054a:    2001        .       MOVS     r0,#1
        0x0000054c:    4901        .I      LDR      r1,[pc,#4] ; [0x554] = 0x10000001
        0x0000054e:    7008        .p      STRB     r0,[r1,#0]
        0x00000550:    bd10        ..      POP      {r4,pc}
    $d
        0x00000552:    0000        ..      DCW    0
        0x00000554:    10000001    ....    DCD    268435457
    $t
    i.am_hal_bootloader_override_check
    am_hal_bootloader_override_check
        0x00000558:    b510        ..      PUSH     {r4,lr}
        0x0000055a:    4601        .F      MOV      r1,r0
        0x0000055c:    68c8        .h      LDR      r0,[r1,#0xc]
        0x0000055e:    1c40        @.      ADDS     r0,r0,#1
        0x00000560:    2800        .(      CMP      r0,#0
        0x00000562:    d07d        }.      BEQ      0x660 ; am_hal_bootloader_override_check + 264
        0x00000564:    bf00        ..      NOP      
        0x00000566:    68c8        .h      LDR      r0,[r1,#0xc]
        0x00000568:    2800        .(      CMP      r0,#0
        0x0000056a:    da00        ..      BGE      0x56e ; am_hal_bootloader_override_check + 22
        0x0000056c:    e035        5.      B        0x5da ; am_hal_bootloader_override_check + 130
        0x0000056e:    2073        s       MOVS     r0,#0x73
        0x00000570:    4b65        eK      LDR      r3,[pc,#404] ; [0x708] = 0x40010000
        0x00000572:    6618        .f      STR      r0,[r3,#0x60]
        0x00000574:    7b08        .{      LDRB     r0,[r1,#0xc]
        0x00000576:    f00000f8    ....    AND      r0,r0,#0xf8
        0x0000057a:    eb030050    ..P.    ADD      r0,r3,r0,LSR #1
        0x0000057e:    6c00        .l      LDR      r0,[r0,#0x40]
        0x00000580:    7b0b        .{      LDRB     r3,[r1,#0xc]
        0x00000582:    075b        [.      LSLS     r3,r3,#29
        0x00000584:    0edc        ..      LSRS     r4,r3,#27
        0x00000586:    2307        .#      MOVS     r3,#7
        0x00000588:    40a3        .@      LSLS     r3,r3,r4
        0x0000058a:    4398        .C      BICS     r0,r0,r3
        0x0000058c:    7b0b        .{      LDRB     r3,[r1,#0xc]
        0x0000058e:    075b        [.      LSLS     r3,r3,#29
        0x00000590:    0edc        ..      LSRS     r4,r3,#27
        0x00000592:    2300        .#      MOVS     r3,#0
        0x00000594:    40a3        .@      LSLS     r3,r3,r4
        0x00000596:    4318        .C      ORRS     r0,r0,r3
        0x00000598:    7b0b        .{      LDRB     r3,[r1,#0xc]
        0x0000059a:    f00303f8    ....    AND      r3,r3,#0xf8
        0x0000059e:    4c5a        ZL      LDR      r4,[pc,#360] ; [0x708] = 0x40010000
        0x000005a0:    eb040353    ..S.    ADD      r3,r4,r3,LSR #1
        0x000005a4:    6418        .d      STR      r0,[r3,#0x40]
        0x000005a6:    7b08        .{      LDRB     r0,[r1,#0xc]
        0x000005a8:    f00000fc    ....    AND      r0,r0,#0xfc
        0x000005ac:    4623        #F      MOV      r3,r4
        0x000005ae:    58c0        .X      LDR      r0,[r0,r3]
        0x000005b0:    7b0b        .{      LDRB     r3,[r1,#0xc]
        0x000005b2:    079b        ..      LSLS     r3,r3,#30
        0x000005b4:    0edc        ..      LSRS     r4,r3,#27
        0x000005b6:    23ff        .#      MOVS     r3,#0xff
        0x000005b8:    40a3        .@      LSLS     r3,r3,r4
        0x000005ba:    4398        .C      BICS     r0,r0,r3
        0x000005bc:    7b0b        .{      LDRB     r3,[r1,#0xc]
        0x000005be:    079b        ..      LSLS     r3,r3,#30
        0x000005c0:    0edc        ..      LSRS     r4,r3,#27
        0x000005c2:    231a        .#      MOVS     r3,#0x1a
        0x000005c4:    40a3        .@      LSLS     r3,r3,r4
        0x000005c6:    4318        .C      ORRS     r0,r0,r3
        0x000005c8:    7b0b        .{      LDRB     r3,[r1,#0xc]
        0x000005ca:    f00303fc    ....    AND      r3,r3,#0xfc
        0x000005ce:    4c4e        NL      LDR      r4,[pc,#312] ; [0x708] = 0x40010000
        0x000005d0:    5118        .Q      STR      r0,[r3,r4]
        0x000005d2:    2000        .       MOVS     r0,#0
        0x000005d4:    4623        #F      MOV      r3,r4
        0x000005d6:    6618        .f      STR      r0,[r3,#0x60]
        0x000005d8:    bf00        ..      NOP      
        0x000005da:    bf00        ..      NOP      
        0x000005dc:    7b08        .{      LDRB     r0,[r1,#0xc]
        0x000005de:    f0000020    .. .    AND      r0,r0,#0x20
        0x000005e2:    4b49        IK      LDR      r3,[pc,#292] ; [0x708] = 0x40010000
        0x000005e4:    eb0300d0    ....    ADD      r0,r3,r0,LSR #3
        0x000005e8:    f8d00080    ....    LDR      r0,[r0,#0x80]
        0x000005ec:    7b0b        .{      LDRB     r3,[r1,#0xc]
        0x000005ee:    f003041f    ....    AND      r4,r3,#0x1f
        0x000005f2:    2301        .#      MOVS     r3,#1
        0x000005f4:    40a3        .@      LSLS     r3,r3,r4
        0x000005f6:    4018        .@      ANDS     r0,r0,r3
        0x000005f8:    b108        ..      CBZ      r0,0x5fe ; am_hal_bootloader_override_check + 166
        0x000005fa:    2001        .       MOVS     r0,#1
        0x000005fc:    e000        ..      B        0x600 ; am_hal_bootloader_override_check + 168
        0x000005fe:    2000        .       MOVS     r0,#0
        0x00000600:    4602        .F      MOV      r2,r0
        0x00000602:    7c08        .|      LDRB     r0,[r1,#0x10]
        0x00000604:    f0000001    ....    AND      r0,r0,#1
        0x00000608:    4290        .B      CMP      r0,r2
        0x0000060a:    d13f        ?.      BNE      0x68c ; am_hal_bootloader_override_check + 308
        0x0000060c:    bf00        ..      NOP      
        0x0000060e:    68c8        .h      LDR      r0,[r1,#0xc]
        0x00000610:    2800        .(      CMP      r0,#0
        0x00000612:    da00        ..      BGE      0x616 ; am_hal_bootloader_override_check + 190
        0x00000614:    e037        7.      B        0x686 ; am_hal_bootloader_override_check + 302
        0x00000616:    2073        s       MOVS     r0,#0x73
        0x00000618:    4b3b        ;K      LDR      r3,[pc,#236] ; [0x708] = 0x40010000
        0x0000061a:    6618        .f      STR      r0,[r3,#0x60]
        0x0000061c:    7b08        .{      LDRB     r0,[r1,#0xc]
        0x0000061e:    f00000f8    ....    AND      r0,r0,#0xf8
        0x00000622:    eb030050    ..P.    ADD      r0,r3,r0,LSR #1
        0x00000626:    6c00        .l      LDR      r0,[r0,#0x40]
        0x00000628:    7b0b        .{      LDRB     r3,[r1,#0xc]
        0x0000062a:    075b        [.      LSLS     r3,r3,#29
        0x0000062c:    0edc        ..      LSRS     r4,r3,#27
        0x0000062e:    2307        .#      MOVS     r3,#7
        0x00000630:    40a3        .@      LSLS     r3,r3,r4
        0x00000632:    4398        .C      BICS     r0,r0,r3
        0x00000634:    7b0b        .{      LDRB     r3,[r1,#0xc]
        0x00000636:    075b        [.      LSLS     r3,r3,#29
        0x00000638:    0edc        ..      LSRS     r4,r3,#27
        0x0000063a:    2300        .#      MOVS     r3,#0
        0x0000063c:    40a3        .@      LSLS     r3,r3,r4
        0x0000063e:    4318        .C      ORRS     r0,r0,r3
        0x00000640:    7b0b        .{      LDRB     r3,[r1,#0xc]
        0x00000642:    f00303f8    ....    AND      r3,r3,#0xf8
        0x00000646:    4c30        0L      LDR      r4,[pc,#192] ; [0x708] = 0x40010000
        0x00000648:    eb040353    ..S.    ADD      r3,r4,r3,LSR #1
        0x0000064c:    6418        .d      STR      r0,[r3,#0x40]
        0x0000064e:    7b08        .{      LDRB     r0,[r1,#0xc]
        0x00000650:    f00000fc    ....    AND      r0,r0,#0xfc
        0x00000654:    4623        #F      MOV      r3,r4
        0x00000656:    58c0        .X      LDR      r0,[r0,r3]
        0x00000658:    7b0b        .{      LDRB     r3,[r1,#0xc]
        0x0000065a:    079b        ..      LSLS     r3,r3,#30
        0x0000065c:    0edc        ..      LSRS     r4,r3,#27
        0x0000065e:    e000        ..      B        0x662 ; am_hal_bootloader_override_check + 266
        0x00000660:    e050        P.      B        0x704 ; am_hal_bootloader_override_check + 428
        0x00000662:    23ff        .#      MOVS     r3,#0xff
        0x00000664:    40a3        .@      LSLS     r3,r3,r4
        0x00000666:    4398        .C      BICS     r0,r0,r3
        0x00000668:    7b0b        .{      LDRB     r3,[r1,#0xc]
        0x0000066a:    079b        ..      LSLS     r3,r3,#30
        0x0000066c:    0edc        ..      LSRS     r4,r3,#27
        0x0000066e:    2318        .#      MOVS     r3,#0x18
        0x00000670:    40a3        .@      LSLS     r3,r3,r4
        0x00000672:    4318        .C      ORRS     r0,r0,r3
        0x00000674:    7b0b        .{      LDRB     r3,[r1,#0xc]
        0x00000676:    f00303fc    ....    AND      r3,r3,#0xfc
        0x0000067a:    4c23        #L      LDR      r4,[pc,#140] ; [0x708] = 0x40010000
        0x0000067c:    5118        .Q      STR      r0,[r3,r4]
        0x0000067e:    2000        .       MOVS     r0,#0
        0x00000680:    4623        #F      MOV      r3,r4
        0x00000682:    6618        .f      STR      r0,[r3,#0x60]
        0x00000684:    bf00        ..      NOP      
        0x00000686:    bf00        ..      NOP      
        0x00000688:    2001        .       MOVS     r0,#1
        0x0000068a:    bd10        ..      POP      {r4,pc}
        0x0000068c:    bf00        ..      NOP      
        0x0000068e:    68c8        .h      LDR      r0,[r1,#0xc]
        0x00000690:    2800        .(      CMP      r0,#0
        0x00000692:    da00        ..      BGE      0x696 ; am_hal_bootloader_override_check + 318
        0x00000694:    e035        5.      B        0x702 ; am_hal_bootloader_override_check + 426
        0x00000696:    2073        s       MOVS     r0,#0x73
        0x00000698:    4b1b        .K      LDR      r3,[pc,#108] ; [0x708] = 0x40010000
        0x0000069a:    6618        .f      STR      r0,[r3,#0x60]
        0x0000069c:    7b08        .{      LDRB     r0,[r1,#0xc]
        0x0000069e:    f00000f8    ....    AND      r0,r0,#0xf8
        0x000006a2:    eb030050    ..P.    ADD      r0,r3,r0,LSR #1
        0x000006a6:    6c00        .l      LDR      r0,[r0,#0x40]
        0x000006a8:    7b0b        .{      LDRB     r3,[r1,#0xc]
        0x000006aa:    075b        [.      LSLS     r3,r3,#29
        0x000006ac:    0edc        ..      LSRS     r4,r3,#27
        0x000006ae:    2307        .#      MOVS     r3,#7
        0x000006b0:    40a3        .@      LSLS     r3,r3,r4
        0x000006b2:    4398        .C      BICS     r0,r0,r3
        0x000006b4:    7b0b        .{      LDRB     r3,[r1,#0xc]
        0x000006b6:    075b        [.      LSLS     r3,r3,#29
        0x000006b8:    0edc        ..      LSRS     r4,r3,#27
        0x000006ba:    2300        .#      MOVS     r3,#0
        0x000006bc:    40a3        .@      LSLS     r3,r3,r4
        0x000006be:    4318        .C      ORRS     r0,r0,r3
        0x000006c0:    7b0b        .{      LDRB     r3,[r1,#0xc]
        0x000006c2:    f00303f8    ....    AND      r3,r3,#0xf8
        0x000006c6:    4c10        .L      LDR      r4,[pc,#64] ; [0x708] = 0x40010000
        0x000006c8:    eb040353    ..S.    ADD      r3,r4,r3,LSR #1
        0x000006cc:    6418        .d      STR      r0,[r3,#0x40]
        0x000006ce:    7b08        .{      LDRB     r0,[r1,#0xc]
        0x000006d0:    f00000fc    ....    AND      r0,r0,#0xfc
        0x000006d4:    4623        #F      MOV      r3,r4
        0x000006d6:    58c0        .X      LDR      r0,[r0,r3]
        0x000006d8:    7b0b        .{      LDRB     r3,[r1,#0xc]
        0x000006da:    079b        ..      LSLS     r3,r3,#30
        0x000006dc:    0edc        ..      LSRS     r4,r3,#27
        0x000006de:    23ff        .#      MOVS     r3,#0xff
        0x000006e0:    40a3        .@      LSLS     r3,r3,r4
        0x000006e2:    4398        .C      BICS     r0,r0,r3
        0x000006e4:    7b0b        .{      LDRB     r3,[r1,#0xc]
        0x000006e6:    079b        ..      LSLS     r3,r3,#30
        0x000006e8:    0edc        ..      LSRS     r4,r3,#27
        0x000006ea:    2318        .#      MOVS     r3,#0x18
        0x000006ec:    40a3        .@      LSLS     r3,r3,r4
        0x000006ee:    4318        .C      ORRS     r0,r0,r3
        0x000006f0:    7b0b        .{      LDRB     r3,[r1,#0xc]
        0x000006f2:    f00303fc    ....    AND      r3,r3,#0xfc
        0x000006f6:    4c04        .L      LDR      r4,[pc,#16] ; [0x708] = 0x40010000
        0x000006f8:    5118        .Q      STR      r0,[r3,r4]
        0x000006fa:    2000        .       MOVS     r0,#0
        0x000006fc:    4623        #F      MOV      r3,r4
        0x000006fe:    6618        .f      STR      r0,[r3,#0x60]
        0x00000700:    bf00        ..      NOP      
        0x00000702:    bf00        ..      NOP      
        0x00000704:    2000        .       MOVS     r0,#0
        0x00000706:    e7c0        ..      B        0x68a ; am_hal_bootloader_override_check + 306
    $d
        0x00000708:    40010000    ...@    DCD    1073807360
    $t
    i.am_hal_clkgen_osc_stop
    am_hal_clkgen_osc_stop
        0x0000070c:    f0100f03    ....    TST      r0,#3
        0x00000710:    bf08        ..      IT       EQ
        0x00000712:    4770        pG      BXEQ     lr
        0x00000714:    f04f2140    O.@!    MOV      r1,#0x40004000
        0x00000718:    68ca        .h      LDR      r2,[r1,#0xc]
        0x0000071a:    4310        .C      ORRS     r0,r0,r2
        0x0000071c:    60c8        .`      STR      r0,[r1,#0xc]
        0x0000071e:    4770        pG      BX       lr
    i.am_hal_clkgen_sysclk_get
    am_hal_clkgen_sysclk_get
        0x00000720:    f04f2040    O.@     MOV      r0,#0x40004000
        0x00000724:    6980        .i      LDR      r0,[r0,#0x18]
        0x00000726:    f0000007    ....    AND      r0,r0,#7
        0x0000072a:    2808        .(      CMP      r0,#8
        0x0000072c:    d215        ..      BCS      0x75a ; am_hal_clkgen_sysclk_get + 58
        0x0000072e:    e8dff000    ....    TBB      [pc,r0]
    $d
        0x00000732:    0604        ..      DCW    1540
        0x00000734:    0e0c0a08    ....    DCD    235670024
        0x00000738:    1210        ..      DCW    4624
    $t
        0x0000073a:    4809        .H      LDR      r0,[pc,#36] ; [0x760] = 0x16e3600
        0x0000073c:    4770        pG      BX       lr
        0x0000073e:    4809        .H      LDR      r0,[pc,#36] ; [0x764] = 0xb71b00
        0x00000740:    4770        pG      BX       lr
        0x00000742:    4809        .H      LDR      r0,[pc,#36] ; [0x768] = 0x7a1200
        0x00000744:    4770        pG      BX       lr
        0x00000746:    4809        .H      LDR      r0,[pc,#36] ; [0x76c] = 0x5b8d80
        0x00000748:    4770        pG      BX       lr
        0x0000074a:    4809        .H      LDR      r0,[pc,#36] ; [0x770] = 0x493e00
        0x0000074c:    4770        pG      BX       lr
        0x0000074e:    4809        .H      LDR      r0,[pc,#36] ; [0x774] = 0x3d0900
        0x00000750:    4770        pG      BX       lr
        0x00000752:    4809        .H      LDR      r0,[pc,#36] ; [0x778] = 0x3450db
        0x00000754:    4770        pG      BX       lr
        0x00000756:    4809        .H      LDR      r0,[pc,#36] ; [0x77c] = 0x2dc6c0
        0x00000758:    4770        pG      BX       lr
        0x0000075a:    f04f30ff    O..0    MOV      r0,#0xffffffff
        0x0000075e:    4770        pG      BX       lr
    $d
        0x00000760:    016e3600    .6n.    DCD    24000000
        0x00000764:    00b71b00    ....    DCD    12000000
        0x00000768:    007a1200    ..z.    DCD    8000000
        0x0000076c:    005b8d80    ..[.    DCD    6000000
        0x00000770:    00493e00    .>I.    DCD    4800000
        0x00000774:    003d0900    ..=.    DCD    4000000
        0x00000778:    003450db    .P4.    DCD    3428571
        0x0000077c:    002dc6c0    ..-.    DCD    3000000
    $t
    i.am_hal_clkgen_sysclk_select
    am_hal_clkgen_sysclk_select
        0x00000780:    f04f2140    O.@!    MOV      r1,#0x40004000
        0x00000784:    2247        G"      MOVS     r2,#0x47
        0x00000786:    614a        Ja      STR      r2,[r1,#0x14]
        0x00000788:    6188        .a      STR      r0,[r1,#0x18]
        0x0000078a:    2000        .       MOVS     r0,#0
        0x0000078c:    6148        Ha      STR      r0,[r1,#0x14]
        0x0000078e:    4770        pG      BX       lr
    i.am_hal_flash_page_erase
    am_hal_flash_page_erase
        0x00000790:    4b00        .K      LDR      r3,[pc,#0] ; [0x794] = 0x8000051
        0x00000792:    4718        .G      BX       r3
    $d
        0x00000794:    08000051    Q...    DCD    134217809
    $t
    i.am_hal_flash_program_main
    am_hal_flash_program_main
        0x00000798:    f8dfc004    ....    LDR      r12,[pc,#4] ; [0x7a0] = 0x8000055
        0x0000079c:    4760        `G      BX       r12
    $d
        0x0000079e:    0000        ..      DCW    0
        0x000007a0:    08000055    U...    DCD    134217813
    $t
    i.am_hal_gpio_int_clear
    am_hal_gpio_int_clear
        0x000007a4:    4a02        .J      LDR      r2,[pc,#8] ; [0x7b0] = 0x40010000
        0x000007a6:    f8c21218    ....    STR      r1,[r2,#0x218]
        0x000007aa:    f8c20208    ....    STR      r0,[r2,#0x208]
        0x000007ae:    4770        pG      BX       lr
    $d
        0x000007b0:    40010000    ...@    DCD    1073807360
    $t
    i.am_hal_gpio_int_disable
    am_hal_gpio_int_disable
        0x000007b4:    4a06        .J      LDR      r2,[pc,#24] ; [0x7d0] = 0x40010000
        0x000007b6:    f8d23210    ...2    LDR      r3,[r2,#0x210]
        0x000007ba:    ea230101    #...    BIC      r1,r3,r1
        0x000007be:    f8c21210    ....    STR      r1,[r2,#0x210]
        0x000007c2:    f8d21200    ....    LDR      r1,[r2,#0x200]
        0x000007c6:    ea210000    !...    BIC      r0,r1,r0
        0x000007ca:    f8c20200    ....    STR      r0,[r2,#0x200]
        0x000007ce:    4770        pG      BX       lr
    $d
        0x000007d0:    40010000    ...@    DCD    1073807360
    $t
    i.am_hal_gpio_int_enable
    am_hal_gpio_int_enable
        0x000007d4:    4a05        .J      LDR      r2,[pc,#20] ; [0x7ec] = 0x40010000
        0x000007d6:    f8d23210    ...2    LDR      r3,[r2,#0x210]
        0x000007da:    4319        .C      ORRS     r1,r1,r3
        0x000007dc:    f8c21210    ....    STR      r1,[r2,#0x210]
        0x000007e0:    f8d21200    ....    LDR      r1,[r2,#0x200]
        0x000007e4:    4308        .C      ORRS     r0,r0,r1
        0x000007e6:    f8c20200    ....    STR      r0,[r2,#0x200]
        0x000007ea:    4770        pG      BX       lr
    $d
        0x000007ec:    40010000    ...@    DCD    1073807360
    $t
    i.am_hal_interrupt_disable
    am_hal_interrupt_disable
        0x000007f0:    280f        .(      CMP      r0,#0xf
        0x000007f2:    d90a        ..      BLS      0x80a ; am_hal_interrupt_disable + 26
        0x000007f4:    3810        .8      SUBS     r0,r0,#0x10
        0x000007f6:    f000001f    ....    AND      r0,r0,#0x1f
        0x000007fa:    2101        .!      MOVS     r1,#1
        0x000007fc:    fa01f000    ....    LSL      r0,r1,r0
        0x00000800:    f04f21e0    O..!    MOV      r1,#0xe000e000
        0x00000804:    f8c10180    ....    STR      r0,[r1,#0x180]
        0x00000808:    4770        pG      BX       lr
        0x0000080a:    490b        .I      LDR      r1,[pc,#44] ; [0x838] = 0xe000ed24
        0x0000080c:    2804        .(      CMP      r0,#4
        0x0000080e:    d00d        ..      BEQ      0x82c ; am_hal_interrupt_disable + 60
        0x00000810:    2805        .(      CMP      r0,#5
        0x00000812:    bf04        ..      ITT      EQ
        0x00000814:    6808        .h      LDREQ    r0,[r1,#0]
        0x00000816:    f4203000     ..0    BICEQ    r0,r0,#0x20000
        0x0000081a:    d005        ..      BEQ      0x828 ; am_hal_interrupt_disable + 56
        0x0000081c:    2806        .(      CMP      r0,#6
        0x0000081e:    bf06        ..      ITTE     EQ
        0x00000820:    6808        .h      LDREQ    r0,[r1,#0]
        0x00000822:    f4202080     ..     BICEQ    r0,r0,#0x40000
        0x00000826:    4770        pG      BXNE     lr
        0x00000828:    6008        .`      STR      r0,[r1,#0]
        0x0000082a:    4770        pG      BX       lr
        0x0000082c:    6808        .h      LDR      r0,[r1,#0]
        0x0000082e:    f4203080     ..0    BIC      r0,r0,#0x10000
        0x00000832:    6008        .`      STR      r0,[r1,#0]
        0x00000834:    4770        pG      BX       lr
    $d
        0x00000836:    0000        ..      DCW    0
        0x00000838:    e000ed24    $...    DCD    3758157092
    $t
    i.am_hal_interrupt_enable
    am_hal_interrupt_enable
        0x0000083c:    280f        .(      CMP      r0,#0xf
        0x0000083e:    d90a        ..      BLS      0x856 ; am_hal_interrupt_enable + 26
        0x00000840:    3810        .8      SUBS     r0,r0,#0x10
        0x00000842:    f000001f    ....    AND      r0,r0,#0x1f
        0x00000846:    2101        .!      MOVS     r1,#1
        0x00000848:    fa01f000    ....    LSL      r0,r1,r0
        0x0000084c:    f04f21e0    O..!    MOV      r1,#0xe000e000
        0x00000850:    f8c10100    ....    STR      r0,[r1,#0x100]
        0x00000854:    4770        pG      BX       lr
        0x00000856:    490b        .I      LDR      r1,[pc,#44] ; [0x884] = 0xe000ed24
        0x00000858:    2804        .(      CMP      r0,#4
        0x0000085a:    d00d        ..      BEQ      0x878 ; am_hal_interrupt_enable + 60
        0x0000085c:    2805        .(      CMP      r0,#5
        0x0000085e:    bf04        ..      ITT      EQ
        0x00000860:    6808        .h      LDREQ    r0,[r1,#0]
        0x00000862:    f4403000    @..0    ORREQ    r0,r0,#0x20000
        0x00000866:    d005        ..      BEQ      0x874 ; am_hal_interrupt_enable + 56
        0x00000868:    2806        .(      CMP      r0,#6
        0x0000086a:    bf06        ..      ITTE     EQ
        0x0000086c:    6808        .h      LDREQ    r0,[r1,#0]
        0x0000086e:    f4402080    @..     ORREQ    r0,r0,#0x40000
        0x00000872:    4770        pG      BXNE     lr
        0x00000874:    6008        .`      STR      r0,[r1,#0]
        0x00000876:    4770        pG      BX       lr
        0x00000878:    6808        .h      LDR      r0,[r1,#0]
        0x0000087a:    f4403080    @..0    ORR      r0,r0,#0x10000
        0x0000087e:    6008        .`      STR      r0,[r1,#0]
        0x00000880:    4770        pG      BX       lr
    $d
        0x00000882:    0000        ..      DCW    0
        0x00000884:    e000ed24    $...    DCD    3758157092
    $t
    i.am_hal_ios_access_int_clear
    am_hal_ios_access_int_clear
        0x00000888:    f04f41a0    O..A    MOV      r1,#0x50000000
        0x0000088c:    f8c10218    ....    STR      r0,[r1,#0x218]
        0x00000890:    4770        pG      BX       lr
    i.am_hal_ios_access_int_enable
    am_hal_ios_access_int_enable
        0x00000892:    f04f41a0    O..A    MOV      r1,#0x50000000
        0x00000896:    f8d12210    ..."    LDR      r2,[r1,#0x210]
        0x0000089a:    4310        .C      ORRS     r0,r0,r2
        0x0000089c:    f8c10210    ....    STR      r0,[r1,#0x210]
        0x000008a0:    4770        pG      BX       lr
    i.am_hal_ios_access_int_status_get
    am_hal_ios_access_int_status_get
        0x000008a2:    f04f41a0    O..A    MOV      r1,#0x50000000
        0x000008a6:    2800        .(      CMP      r0,#0
        0x000008a8:    f8d10214    ....    LDR      r0,[r1,#0x214]
        0x000008ac:    bf1c        ..      ITT      NE
        0x000008ae:    f8d11210    ....    LDRNE    r1,[r1,#0x210]
        0x000008b2:    4008        .@      ANDNE    r0,r0,r1
        0x000008b4:    4770        pG      BX       lr
        0x000008b6:    0000        ..      MOVS     r0,r0
    i.am_hal_ios_config
    am_hal_ios_config
        0x000008b8:    e92d41f0    -..A    PUSH     {r4-r8,lr}
        0x000008bc:    4605        .F      MOV      r5,r0
        0x000008be:    6880        .h      LDR      r0,[r0,#8]
        0x000008c0:    4e1f        .N      LDR      r6,[pc,#124] ; [0x940] = 0x100000d0
        0x000008c2:    f10042a0    ...B    ADD      r2,r0,#0x50000000
        0x000008c6:    f04f44a0    O..D    MOV      r4,#0x50000000
        0x000008ca:    6072        r`      STR      r2,[r6,#4]
        0x000008cc:    68e9        .h      LDR      r1,[r5,#0xc]
        0x000008ce:    f10143a0    ...C    ADD      r3,r1,#0x50000000
        0x000008d2:    1a9a        ..      SUBS     r2,r3,r2
        0x000008d4:    60b3        .`      STR      r3,[r6,#8]
        0x000008d6:    7032        2p      STRB     r2,[r6,#0]
        0x000008d8:    6130        0a      STR      r0,[r6,#0x10]
        0x000008da:    88aa        ..      LDRH     r2,[r5,#4]
        0x000008dc:    f04f537c    O.|S    MOV      r3,#0x3f000000
        0x000008e0:    08d2        ..      LSRS     r2,r2,#3
        0x000008e2:    ea036202    ...b    AND      r2,r3,r2,LSL #24
        0x000008e6:    f3c000c4    ....    UBFX     r0,r0,#3,#5
        0x000008ea:    4310        .C      ORRS     r0,r0,r2
        0x000008ec:    08c9        ..      LSRS     r1,r1,#3
        0x000008ee:    141a        ..      ASRS     r2,r3,#16
        0x000008f0:    ea022101    ...!    AND      r1,r2,r1,LSL #8
        0x000008f4:    4308        .C      ORRS     r0,r0,r1
        0x000008f6:    f8d41118    ....    LDR      r1,[r4,#0x118]
        0x000008fa:    f0214100    !..A    BIC      r1,r1,#0x80000000
        0x000008fe:    f8c41118    ....    STR      r1,[r4,#0x118]
        0x00000902:    6829        )h      LDR      r1,[r5,#0]
        0x00000904:    f8c41118    ....    STR      r1,[r4,#0x118]
        0x00000908:    f8c40104    ....    STR      r0,[r4,#0x104]
        0x0000090c:    f8d40118    ....    LDR      r0,[r4,#0x118]
        0x00000910:    f0404000    @..@    ORR      r0,r0,#0x80000000
        0x00000914:    f8c40118    ....    STR      r0,[r4,#0x118]
        0x00000918:    f5047480    ...t    ADD      r4,r4,#0x100
        0x0000091c:    68af        .h      LDR      r7,[r5,#8]
        0x0000091e:    f7fffc27    ..'.    BL       am_hal_interrupt_master_disable ; 0x170
        0x00000922:    2101        .!      MOVS     r1,#1
        0x00000924:    60e1        .`      STR      r1,[r4,#0xc]
        0x00000926:    6027        '`      STR      r7,[r4,#0]
        0x00000928:    2100        .!      MOVS     r1,#0
        0x0000092a:    60e1        .`      STR      r1,[r4,#0xc]
        0x0000092c:    f10741a0    ...A    ADD      r1,r7,#0x50000000
        0x00000930:    60f1        .`      STR      r1,[r6,#0xc]
        0x00000932:    f7fffc21    ..!.    BL       am_hal_interrupt_master_set ; 0x178
        0x00000936:    6928        (i      LDR      r0,[r5,#0x10]
        0x00000938:    60a0        .`      STR      r0,[r4,#8]
        0x0000093a:    e8bd81f0    ....    POP      {r4-r8,pc}
    $d
        0x0000093e:    0000        ..      DCW    0
        0x00000940:    100000d0    ....    DCD    268435664
    $t
    i.am_hal_ios_int_clear
    am_hal_ios_int_clear
        0x00000944:    f04f41a0    O..A    MOV      r1,#0x50000000
        0x00000948:    f8c10208    ....    STR      r0,[r1,#0x208]
        0x0000094c:    4770        pG      BX       lr
    i.am_hal_ios_int_enable
    am_hal_ios_int_enable
        0x0000094e:    f04f41a0    O..A    MOV      r1,#0x50000000
        0x00000952:    f8d12200    ..."    LDR      r2,[r1,#0x200]
        0x00000956:    4310        .C      ORRS     r0,r0,r2
        0x00000958:    f8c10200    ....    STR      r0,[r1,#0x200]
        0x0000095c:    4770        pG      BX       lr
        0x0000095e:    0000        ..      MOVS     r0,r0
    i.am_hal_mcuctrl_bandgap_disable
    am_hal_mcuctrl_bandgap_disable
        0x00000960:    4902        .I      LDR      r1,[pc,#8] ; [0x96c] = 0x40020000
        0x00000962:    f06f0001    o...    MVN      r0,#1
        0x00000966:    f8c100fc    ....    STR      r0,[r1,#0xfc]
        0x0000096a:    4770        pG      BX       lr
    $d
        0x0000096c:    40020000    ...@    DCD    1073872896
    $t
    i.am_hal_mcuctrl_bucks_enable
    am_hal_mcuctrl_bucks_enable
        0x00000970:    4808        .H      LDR      r0,[pc,#32] ; [0x994] = 0x40020000
        0x00000972:    6901        .i      LDR      r1,[r0,#0x10]
        0x00000974:    f0410102    A...    ORR      r1,r1,#2
        0x00000978:    6101        .a      STR      r1,[r0,#0x10]
        0x0000097a:    6901        .i      LDR      r1,[r0,#0x10]
        0x0000097c:    f0410101    A...    ORR      r1,r1,#1
        0x00000980:    6101        .a      STR      r1,[r0,#0x10]
        0x00000982:    6941        Ai      LDR      r1,[r0,#0x14]
        0x00000984:    f0110f02    ....    TST      r1,#2
        0x00000988:    d0fb        ..      BEQ      0x982 ; am_hal_mcuctrl_bucks_enable + 18
        0x0000098a:    6941        Ai      LDR      r1,[r0,#0x14]
        0x0000098c:    f0110f01    ....    TST      r1,#1
        0x00000990:    d0fb        ..      BEQ      0x98a ; am_hal_mcuctrl_bucks_enable + 26
        0x00000992:    4770        pG      BX       lr
    $d
        0x00000994:    40020000    ...@    DCD    1073872896
    $t
    i.am_hal_mcuctrl_device_info_get
    am_hal_mcuctrl_device_info_get
        0x00000998:    4929        )I      LDR      r1,[pc,#164] ; [0xa40] = 0x40020000
        0x0000099a:    680a        .h      LDR      r2,[r1,#0]
        0x0000099c:    6002        .`      STR      r2,[r0,#0]
        0x0000099e:    684a        Jh      LDR      r2,[r1,#4]
        0x000009a0:    6042        B`      STR      r2,[r0,#4]
        0x000009a2:    688a        .h      LDR      r2,[r1,#8]
        0x000009a4:    6082        .`      STR      r2,[r0,#8]
        0x000009a6:    68ca        .h      LDR      r2,[r1,#0xc]
        0x000009a8:    60c2        .`      STR      r2,[r0,#0xc]
        0x000009aa:    680a        .h      LDR      r2,[r1,#0]
        0x000009ac:    f0020201    ....    AND      r2,r2,#1
        0x000009b0:    6142        Ba      STR      r2,[r0,#0x14]
        0x000009b2:    680a        .h      LDR      r2,[r1,#0]
        0x000009b4:    4b23        #K      LDR      r3,[pc,#140] ; [0xa44] = 0x2164
        0x000009b6:    f4020270    ..p.    AND      r2,r2,#0xf00000
        0x000009ba:    eb034292    ...B    ADD      r2,r3,r2,LSR #18
        0x000009be:    6812        .h      LDR      r2,[r2,#0]
        0x000009c0:    6182        .a      STR      r2,[r0,#0x18]
        0x000009c2:    6809        .h      LDR      r1,[r1,#0]
        0x000009c4:    f1030240    ..@.    ADD      r2,r3,#0x40
        0x000009c8:    f4012170    ..p!    AND      r1,r1,#0xf0000
        0x000009cc:    eb023191    ...1    ADD      r1,r2,r1,LSR #14
        0x000009d0:    6809        .h      LDR      r1,[r1,#0]
        0x000009d2:    61c1        .a      STR      r1,[r0,#0x1c]
        0x000009d4:    491c        .I      LDR      r1,[pc,#112] ; [0xa48] = 0xf0000fe0
        0x000009d6:    6809        .h      LDR      r1,[r1,#0]
        0x000009d8:    4a1c        .J      LDR      r2,[pc,#112] ; [0xa4c] = 0xf0000fe4
        0x000009da:    b2c9        ..      UXTB     r1,r1
        0x000009dc:    6201        .b      STR      r1,[r0,#0x20]
        0x000009de:    6813        .h      LDR      r3,[r2,#0]
        0x000009e0:    f003030f    ....    AND      r3,r3,#0xf
        0x000009e4:    ea412103    A..!    ORR      r1,r1,r3,LSL #8
        0x000009e8:    6201        .b      STR      r1,[r0,#0x20]
        0x000009ea:    6811        .h      LDR      r1,[r2,#0]
        0x000009ec:    1d12        ..      ADDS     r2,r2,#4
        0x000009ee:    f3c11103    ....    UBFX     r1,r1,#4,#4
        0x000009f2:    6241        Ab      STR      r1,[r0,#0x24]
        0x000009f4:    6813        .h      LDR      r3,[r2,#0]
        0x000009f6:    f003030f    ....    AND      r3,r3,#0xf
        0x000009fa:    ea411103    A...    ORR      r1,r1,r3,LSL #4
        0x000009fe:    6241        Ab      STR      r1,[r0,#0x24]
        0x00000a00:    6811        .h      LDR      r1,[r2,#0]
        0x00000a02:    1d12        ..      ADDS     r2,r2,#4
        0x00000a04:    f00101f0    ....    AND      r1,r1,#0xf0
        0x00000a08:    6281        .b      STR      r1,[r0,#0x28]
        0x00000a0a:    6812        .h      LDR      r2,[r2,#0]
        0x00000a0c:    f3c21203    ....    UBFX     r2,r2,#4,#4
        0x00000a10:    4311        .C      ORRS     r1,r1,r2
        0x00000a12:    6281        .b      STR      r1,[r0,#0x28]
        0x00000a14:    490e        .I      LDR      r1,[pc,#56] ; [0xa50] = 0xf0000ffc
        0x00000a16:    6809        .h      LDR      r1,[r1,#0]
        0x00000a18:    4a0e        .J      LDR      r2,[pc,#56] ; [0xa54] = 0xf0000ff8
        0x00000a1a:    0609        ..      LSLS     r1,r1,#24
        0x00000a1c:    62c1        .b      STR      r1,[r0,#0x2c]
        0x00000a1e:    6812        .h      LDR      r2,[r2,#0]
        0x00000a20:    b2d2        ..      UXTB     r2,r2
        0x00000a22:    ea414102    A..A    ORR      r1,r1,r2,LSL #16
        0x00000a26:    4a0c        .J      LDR      r2,[pc,#48] ; [0xa58] = 0xf0000ff4
        0x00000a28:    62c1        .b      STR      r1,[r0,#0x2c]
        0x00000a2a:    6812        .h      LDR      r2,[r2,#0]
        0x00000a2c:    b2d2        ..      UXTB     r2,r2
        0x00000a2e:    ea412102    A..!    ORR      r1,r1,r2,LSL #8
        0x00000a32:    4a0a        .J      LDR      r2,[pc,#40] ; [0xa5c] = 0xf0000ff0
        0x00000a34:    62c1        .b      STR      r1,[r0,#0x2c]
        0x00000a36:    6812        .h      LDR      r2,[r2,#0]
        0x00000a38:    b2d2        ..      UXTB     r2,r2
        0x00000a3a:    4311        .C      ORRS     r1,r1,r2
        0x00000a3c:    62c1        .b      STR      r1,[r0,#0x2c]
        0x00000a3e:    4770        pG      BX       lr
    $d
        0x00000a40:    40020000    ...@    DCD    1073872896
        0x00000a44:    00002164    d!..    DCD    8548
        0x00000a48:    f0000fe0    ....    DCD    4026535904
        0x00000a4c:    f0000fe4    ....    DCD    4026535908
        0x00000a50:    f0000ffc    ....    DCD    4026535932
        0x00000a54:    f0000ff8    ....    DCD    4026535928
        0x00000a58:    f0000ff4    ....    DCD    4026535924
        0x00000a5c:    f0000ff0    ....    DCD    4026535920
    $t
    i.am_hal_reset_poi
    am_hal_reset_poi
        0x00000a60:    f04f4180    O..A    MOV      r1,#0x40000000
        0x00000a64:    201b        .       MOVS     r0,#0x1b
        0x00000a66:    6048        H`      STR      r0,[r1,#4]
        0x00000a68:    4770        pG      BX       lr
    i.am_hal_rtc_osc_disable
    am_hal_rtc_osc_disable
        0x00000a6a:    f04f2040    O.@     MOV      r0,#0x40004000
        0x00000a6e:    6d01        .m      LDR      r1,[r0,#0x50]
        0x00000a70:    f0410110    A...    ORR      r1,r1,#0x10
        0x00000a74:    6501        .e      STR      r1,[r0,#0x50]
        0x00000a76:    4770        pG      BX       lr
    i.am_hal_rtc_osc_select
    am_hal_rtc_osc_select
        0x00000a78:    f04f2140    O.@!    MOV      r1,#0x40004000
        0x00000a7c:    2800        .(      CMP      r0,#0
        0x00000a7e:    68c8        .h      LDR      r0,[r1,#0xc]
        0x00000a80:    bf14        ..      ITE      NE
        0x00000a82:    f0400080    @...    ORRNE    r0,r0,#0x80
        0x00000a86:    f0200080     ...    BICEQ    r0,r0,#0x80
        0x00000a8a:    60c8        .`      STR      r0,[r1,#0xc]
        0x00000a8c:    4770        pG      BX       lr
        0x00000a8e:    0000        ..      MOVS     r0,r0
    i.am_hal_sysctrl_sleep
    am_hal_sysctrl_sleep
        0x00000a90:    490a        .I      LDR      r1,[pc,#40] ; [0xabc] = 0xe000ed10
        0x00000a92:    b148        H.      CBZ      r0,0xaa8 ; am_hal_sysctrl_sleep + 24
        0x00000a94:    480a        .H      LDR      r0,[pc,#40] ; [0xac0] = 0x40020000
        0x00000a96:    f8d00250    ..P.    LDR      r0,[r0,#0x250]
        0x00000a9a:    f0100f01    ....    TST      r0,#1
        0x00000a9e:    bf04        ..      ITT      EQ
        0x00000aa0:    6808        .h      LDREQ    r0,[r1,#0]
        0x00000aa2:    f0400004    @...    ORREQ    r0,r0,#4
        0x00000aa6:    d002        ..      BEQ      0xaae ; am_hal_sysctrl_sleep + 30
        0x00000aa8:    6808        .h      LDR      r0,[r1,#0]
        0x00000aaa:    f0200004     ...    BIC      r0,r0,#4
        0x00000aae:    6008        .`      STR      r0,[r1,#0]
        0x00000ab0:    f3bf8f4f    ..O.    DSB      
        0x00000ab4:    bf30        0.      WFI      
        0x00000ab6:    f3bf8f6f    ..o.    ISB      
        0x00000aba:    4770        pG      BX       lr
    $d
        0x00000abc:    e000ed10    ....    DCD    3758157072
        0x00000ac0:    40020000    ...@    DCD    1073872896
    $t
    i.am_hal_systick_count
    am_hal_systick_count
        0x00000ac4:    f04f20e0    O..     MOV      r0,#0xe000e000
        0x00000ac8:    6980        .i      LDR      r0,[r0,#0x18]
        0x00000aca:    4770        pG      BX       lr
    i.am_hal_systick_load
    am_hal_systick_load
        0x00000acc:    f04f21e0    O..!    MOV      r1,#0xe000e000
        0x00000ad0:    6148        Ha      STR      r0,[r1,#0x14]
        0x00000ad2:    2000        .       MOVS     r0,#0
        0x00000ad4:    6188        .a      STR      r0,[r1,#0x18]
        0x00000ad6:    4770        pG      BX       lr
    i.am_hal_systick_start
    am_hal_systick_start
        0x00000ad8:    f04f20e0    O..     MOV      r0,#0xe000e000
        0x00000adc:    6901        .i      LDR      r1,[r0,#0x10]
        0x00000ade:    f0410101    A...    ORR      r1,r1,#1
        0x00000ae2:    6101        .a      STR      r1,[r0,#0x10]
        0x00000ae4:    4770        pG      BX       lr
    i.am_hal_systick_stop
    am_hal_systick_stop
        0x00000ae6:    f04f20e0    O..     MOV      r0,#0xe000e000
        0x00000aea:    6901        .i      LDR      r1,[r0,#0x10]
        0x00000aec:    f0210101    !...    BIC      r1,r1,#1
        0x00000af0:    6101        .a      STR      r1,[r0,#0x10]
        0x00000af2:    4770        pG      BX       lr
    i.am_hal_uart_char_transmit_polled
    am_hal_uart_char_transmit_polled
        0x00000af4:    4803        .H      LDR      r0,[pc,#12] ; [0xb04] = 0x4001c000
        0x00000af6:    6982        .i      LDR      r2,[r0,#0x18]
        0x00000af8:    f0120f20    .. .    TST      r2,#0x20
        0x00000afc:    d1fb        ..      BNE      0xaf6 ; am_hal_uart_char_transmit_polled + 2
        0x00000afe:    6001        .`      STR      r1,[r0,#0]
        0x00000b00:    4770        pG      BX       lr
    $d
        0x00000b02:    0000        ..      DCW    0
        0x00000b04:    4001c000    ...@    DCD    1073856512
    $t
    i.am_hal_uart_clock_enable
    am_hal_uart_clock_enable
        0x00000b08:    f04f2040    O.@     MOV      r0,#0x40004000
        0x00000b0c:    6ac1        .j      LDR      r1,[r0,#0x2c]
        0x00000b0e:    f0410101    A...    ORR      r1,r1,#1
        0x00000b12:    62c1        .b      STR      r1,[r0,#0x2c]
        0x00000b14:    4804        .H      LDR      r0,[pc,#16] ; [0xb28] = 0x4001c000
        0x00000b16:    6b01        .k      LDR      r1,[r0,#0x30]
        0x00000b18:    f0410108    A...    ORR      r1,r1,#8
        0x00000b1c:    6301        .c      STR      r1,[r0,#0x30]
        0x00000b1e:    6b01        .k      LDR      r1,[r0,#0x30]
        0x00000b20:    f0410110    A...    ORR      r1,r1,#0x10
        0x00000b24:    6301        .c      STR      r1,[r0,#0x30]
        0x00000b26:    4770        pG      BX       lr
    $d
        0x00000b28:    4001c000    ...@    DCD    1073856512
    $t
    i.am_hal_uart_config
    am_hal_uart_config
        0x00000b2c:    b570        p.      PUSH     {r4-r6,lr}
        0x00000b2e:    4c18        .L      LDR      r4,[pc,#96] ; [0xb90] = 0x4001c000
        0x00000b30:    460d        .F      MOV      r5,r1
        0x00000b32:    6b20         k      LDR      r0,[r4,#0x30]
        0x00000b34:    f0200001     ...    BIC      r0,r0,#1
        0x00000b38:    f4207040     .@p    BIC      r0,r0,#0x300
        0x00000b3c:    6320         c      STR      r0,[r4,#0x30]
        0x00000b3e:    680e        .h      LDR      r6,[r1,#0]
        0x00000b40:    f7fffdee    ....    BL       am_hal_clkgen_sysclk_get ; 0x720
        0x00000b44:    0132        2.      LSLS     r2,r6,#4
        0x00000b46:    fbb0f1f2    ....    UDIV     r1,r0,r2
        0x00000b4a:    0180        ..      LSLS     r0,r0,#6
        0x00000b4c:    fbb0f0f2    ....    UDIV     r0,r0,r2
        0x00000b50:    018a        ..      LSLS     r2,r1,#6
        0x00000b52:    1a80        ..      SUBS     r0,r0,r2
        0x00000b54:    b1d9        ..      CBZ      r1,0xb8e ; am_hal_uart_config + 98
        0x00000b56:    6261        ab      STR      r1,[r4,#0x24]
        0x00000b58:    6261        ab      STR      r1,[r4,#0x24]
        0x00000b5a:    62a0        .b      STR      r0,[r4,#0x28]
        0x00000b5c:    6b20         k      LDR      r0,[r4,#0x30]
        0x00000b5e:    f2403101    @..1    MOV      r1,#0x301
        0x00000b62:    4308        .C      ORRS     r0,r0,r1
        0x00000b64:    6320         c      STR      r0,[r4,#0x30]
        0x00000b66:    7a29        )z      LDRB     r1,[r5,#8]
        0x00000b68:    6868        hh      LDR      r0,[r5,#4]
        0x00000b6a:    2900        .)      CMP      r1,#0
        0x00000b6c:    bf18        ..      IT       NE
        0x00000b6e:    2108        .!      MOVNE    r1,#8
        0x00000b70:    4308        .C      ORRS     r0,r0,r1
        0x00000b72:    68e9        .h      LDR      r1,[r5,#0xc]
        0x00000b74:    4308        .C      ORRS     r0,r0,r1
        0x00000b76:    6ae1        .j      LDR      r1,[r4,#0x2c]
        0x00000b78:    4308        .C      ORRS     r0,r0,r1
        0x00000b7a:    62e0        .b      STR      r0,[r4,#0x2c]
        0x00000b7c:    6b20         k      LDR      r0,[r4,#0x30]
        0x00000b7e:    6929        )i      LDR      r1,[r5,#0x10]
        0x00000b80:    4308        .C      ORRS     r0,r0,r1
        0x00000b82:    6320         c      STR      r0,[r4,#0x30]
        0x00000b84:    6b20         k      LDR      r0,[r4,#0x30]
        0x00000b86:    f0400010    @...    ORR      r0,r0,#0x10
        0x00000b8a:    6320         c      STR      r0,[r4,#0x30]
        0x00000b8c:    bd70        p.      POP      {r4-r6,pc}
        0x00000b8e:    e7fe        ..      B        0xb8e ; am_hal_uart_config + 98
    $d
        0x00000b90:    4001c000    ...@    DCD    1073856512
    $t
    i.am_hal_uart_disable
    am_hal_uart_disable
        0x00000b94:    4803        .H      LDR      r0,[pc,#12] ; [0xba4] = 0x4001c000
        0x00000b96:    6b01        .k      LDR      r1,[r0,#0x30]
        0x00000b98:    f0210101    !...    BIC      r1,r1,#1
        0x00000b9c:    f4217140    !.@q    BIC      r1,r1,#0x300
        0x00000ba0:    6301        .c      STR      r1,[r0,#0x30]
        0x00000ba2:    4770        pG      BX       lr
    $d
        0x00000ba4:    4001c000    ...@    DCD    1073856512
    $t
    i.am_hal_uart_enable
    am_hal_uart_enable
        0x00000ba8:    4803        .H      LDR      r0,[pc,#12] ; [0xbb8] = 0x4001c000
        0x00000baa:    6b01        .k      LDR      r1,[r0,#0x30]
        0x00000bac:    f2403201    @..2    MOV      r2,#0x301
        0x00000bb0:    4311        .C      ORRS     r1,r1,r2
        0x00000bb2:    6301        .c      STR      r1,[r0,#0x30]
        0x00000bb4:    4770        pG      BX       lr
    $d
        0x00000bb6:    0000        ..      DCW    0
        0x00000bb8:    4001c000    ...@    DCD    1073856512
    $t
    i.am_hal_uart_fifo_config
    am_hal_uart_fifo_config
        0x00000bbc:    4803        .H      LDR      r0,[pc,#12] ; [0xbcc] = 0x4001c000
        0x00000bbe:    6ac2        .j      LDR      r2,[r0,#0x2c]
        0x00000bc0:    f0420210    B...    ORR      r2,r2,#0x10
        0x00000bc4:    62c2        .b      STR      r2,[r0,#0x2c]
        0x00000bc6:    6341        Ac      STR      r1,[r0,#0x34]
        0x00000bc8:    4770        pG      BX       lr
    $d
        0x00000bca:    0000        ..      DCW    0
        0x00000bcc:    4001c000    ...@    DCD    1073856512
    $t
    i.am_hal_uart_int_clear
    am_hal_uart_int_clear
        0x00000bd0:    4801        .H      LDR      r0,[pc,#4] ; [0xbd8] = 0x4001c000
        0x00000bd2:    6441        Ad      STR      r1,[r0,#0x44]
        0x00000bd4:    4770        pG      BX       lr
    $d
        0x00000bd6:    0000        ..      DCW    0
        0x00000bd8:    4001c000    ...@    DCD    1073856512
    $t
    i.am_hal_uart_int_enable
    am_hal_uart_int_enable
        0x00000bdc:    4802        .H      LDR      r0,[pc,#8] ; [0xbe8] = 0x4001c000
        0x00000bde:    6b82        .k      LDR      r2,[r0,#0x38]
        0x00000be0:    4311        .C      ORRS     r1,r1,r2
        0x00000be2:    6381        .c      STR      r1,[r0,#0x38]
        0x00000be4:    4770        pG      BX       lr
    $d
        0x00000be6:    0000        ..      DCW    0
        0x00000be8:    4001c000    ...@    DCD    1073856512
    $t
    i.am_hal_uart_int_status_get
    am_hal_uart_int_status_get
        0x00000bec:    4802        .H      LDR      r0,[pc,#8] ; [0xbf8] = 0x4001c000
        0x00000bee:    2900        .)      CMP      r1,#0
        0x00000bf0:    bf14        ..      ITE      NE
        0x00000bf2:    6c00        .l      LDRNE    r0,[r0,#0x40]
        0x00000bf4:    6bc0        .k      LDREQ    r0,[r0,#0x3c]
        0x00000bf6:    4770        pG      BX       lr
    $d
        0x00000bf8:    4001c000    ...@    DCD    1073856512
    $t
    i.am_hal_vcomp_disable
    am_hal_vcomp_disable
        0x00000bfc:    4901        .I      LDR      r1,[pc,#4] ; [0xc04] = 0x4000c000
        0x00000bfe:    2037        7       MOVS     r0,#0x37
        0x00000c00:    6088        .`      STR      r0,[r1,#8]
        0x00000c02:    4770        pG      BX       lr
    $d
        0x00000c04:    4000c000    ...@    DCD    1073790976
    $t
    i.am_ioslave_acc_isr
    am_ioslave_acc_isr
        0x00000c08:    b510        ..      PUSH     {r4,lr}
        0x00000c0a:    2001        .       MOVS     r0,#1
        0x00000c0c:    4902        .I      LDR      r1,[pc,#8] ; [0xc18] = 0x10000000
        0x00000c0e:    7008        .p      STRB     r0,[r1,#0]
        0x00000c10:    f000f8c8    ....    BL       am_multiboot_ios_acc_isr_handler ; 0xda4
        0x00000c14:    bd10        ..      POP      {r4,pc}
    $d
        0x00000c16:    0000        ..      DCW    0
        0x00000c18:    10000000    ....    DCD    268435456
    $t
    i.am_multiboot_check_boot_from_flash
    am_multiboot_check_boot_from_flash
        0x00000c1c:    b570        p.      PUSH     {r4-r6,lr}
        0x00000c1e:    4604        .F      MOV      r4,r0
        0x00000c20:    460d        .F      MOV      r5,r1
        0x00000c22:    2600        .&      MOVS     r6,#0
        0x00000c24:    2124        $!      MOVS     r1,#0x24
        0x00000c26:    4816        .H      LDR      r0,[pc,#88] ; [0xc80] = 0x10000050
        0x00000c28:    6800        .h      LDR      r0,[r0,#0]
        0x00000c2a:    f7fffc43    ..C.    BL       am_bootloader_validate_structure ; 0x4b4
        0x00000c2e:    b198        ..      CBZ      r0,0xc58 ; am_multiboot_check_boot_from_flash + 60
        0x00000c30:    4813        .H      LDR      r0,[pc,#76] ; [0xc80] = 0x10000050
        0x00000c32:    6800        .h      LDR      r0,[r0,#0]
        0x00000c34:    f7fffc90    ....    BL       am_hal_bootloader_override_check ; 0x558
        0x00000c38:    b110        ..      CBZ      r0,0xc40 ; am_multiboot_check_boot_from_flash + 36
        0x00000c3a:    2001        .       MOVS     r0,#1
        0x00000c3c:    7020         p      STRB     r0,[r4,#0]
        0x00000c3e:    e01c        ..      B        0xc7a ; am_multiboot_check_boot_from_flash + 94
        0x00000c40:    2000        .       MOVS     r0,#0
        0x00000c42:    7020         p      STRB     r0,[r4,#0]
        0x00000c44:    480e        .H      LDR      r0,[pc,#56] ; [0xc80] = 0x10000050
        0x00000c46:    6800        .h      LDR      r0,[r0,#0]
        0x00000c48:    f7fffbc2    ....    BL       am_bootloader_flash_check ; 0x3d0
        0x00000c4c:    b1a8        ..      CBZ      r0,0xc7a ; am_multiboot_check_boot_from_flash + 94
        0x00000c4e:    480c        .H      LDR      r0,[pc,#48] ; [0xc80] = 0x10000050
        0x00000c50:    6800        .h      LDR      r0,[r0,#0]
        0x00000c52:    6028        (`      STR      r0,[r5,#0]
        0x00000c54:    2601        .&      MOVS     r6,#1
        0x00000c56:    e010        ..      B        0xc7a ; am_multiboot_check_boot_from_flash + 94
        0x00000c58:    480a        .H      LDR      r0,[pc,#40] ; [0xc84] = 0x1000002c
        0x00000c5a:    f7fffc7d    ..}.    BL       am_hal_bootloader_override_check ; 0x558
        0x00000c5e:    b110        ..      CBZ      r0,0xc66 ; am_multiboot_check_boot_from_flash + 74
        0x00000c60:    2001        .       MOVS     r0,#1
        0x00000c62:    7020         p      STRB     r0,[r4,#0]
        0x00000c64:    e009        ..      B        0xc7a ; am_multiboot_check_boot_from_flash + 94
        0x00000c66:    2000        .       MOVS     r0,#0
        0x00000c68:    7020         p      STRB     r0,[r4,#0]
        0x00000c6a:    4806        .H      LDR      r0,[pc,#24] ; [0xc84] = 0x1000002c
        0x00000c6c:    6800        .h      LDR      r0,[r0,#0]
        0x00000c6e:    6800        .h      LDR      r0,[r0,#0]
        0x00000c70:    1c40        @.      ADDS     r0,r0,#1
        0x00000c72:    b110        ..      CBZ      r0,0xc7a ; am_multiboot_check_boot_from_flash + 94
        0x00000c74:    4803        .H      LDR      r0,[pc,#12] ; [0xc84] = 0x1000002c
        0x00000c76:    6028        (`      STR      r0,[r5,#0]
        0x00000c78:    2601        .&      MOVS     r6,#1
        0x00000c7a:    4630        0F      MOV      r0,r6
        0x00000c7c:    bd70        p.      POP      {r4-r6,pc}
    $d
        0x00000c7e:    0000        ..      DCW    0
        0x00000c80:    10000050    P...    DCD    268435536
        0x00000c84:    1000002c    ,...    DCD    268435500
    $t
    i.am_multiboot_cleanup_ios_interface
    am_multiboot_cleanup_ios_interface
        0x00000c88:    bf00        ..      NOP      
        0x00000c8a:    2073        s       MOVS     r0,#0x73
        0x00000c8c:    4923        #I      LDR      r1,[pc,#140] ; [0xd1c] = 0x40010000
        0x00000c8e:    6608        .f      STR      r0,[r1,#0x60]
        0x00000c90:    4608        .F      MOV      r0,r1
        0x00000c92:    6c00        .l      LDR      r0,[r0,#0x40]
        0x00000c94:    f0200007     ...    BIC      r0,r0,#7
        0x00000c98:    6408        .d      STR      r0,[r1,#0x40]
        0x00000c9a:    4608        .F      MOV      r0,r1
        0x00000c9c:    6800        .h      LDR      r0,[r0,#0]
        0x00000c9e:    f02000ff     ...    BIC      r0,r0,#0xff
        0x00000ca2:    f0400018    @...    ORR      r0,r0,#0x18
        0x00000ca6:    6008        .`      STR      r0,[r1,#0]
        0x00000ca8:    2000        .       MOVS     r0,#0
        0x00000caa:    6608        .f      STR      r0,[r1,#0x60]
        0x00000cac:    bf00        ..      NOP      
        0x00000cae:    bf00        ..      NOP      
        0x00000cb0:    2073        s       MOVS     r0,#0x73
        0x00000cb2:    6608        .f      STR      r0,[r1,#0x60]
        0x00000cb4:    4608        .F      MOV      r0,r1
        0x00000cb6:    6c00        .l      LDR      r0,[r0,#0x40]
        0x00000cb8:    f0200070     .p.    BIC      r0,r0,#0x70
        0x00000cbc:    6408        .d      STR      r0,[r1,#0x40]
        0x00000cbe:    4608        .F      MOV      r0,r1
        0x00000cc0:    6800        .h      LDR      r0,[r0,#0]
        0x00000cc2:    f420407f     ..@    BIC      r0,r0,#0xff00
        0x00000cc6:    f44050c0    @..P    ORR      r0,r0,#0x1800
        0x00000cca:    6008        .`      STR      r0,[r1,#0]
        0x00000ccc:    2000        .       MOVS     r0,#0
        0x00000cce:    6608        .f      STR      r0,[r1,#0x60]
        0x00000cd0:    bf00        ..      NOP      
        0x00000cd2:    bf00        ..      NOP      
        0x00000cd4:    2073        s       MOVS     r0,#0x73
        0x00000cd6:    6608        .f      STR      r0,[r1,#0x60]
        0x00000cd8:    4608        .F      MOV      r0,r1
        0x00000cda:    6c00        .l      LDR      r0,[r0,#0x40]
        0x00000cdc:    f42060e0     ..`    BIC      r0,r0,#0x700
        0x00000ce0:    6408        .d      STR      r0,[r1,#0x40]
        0x00000ce2:    4608        .F      MOV      r0,r1
        0x00000ce4:    6800        .h      LDR      r0,[r0,#0]
        0x00000ce6:    f420007f     ...    BIC      r0,r0,#0xff0000
        0x00000cea:    f44010c0    @...    ORR      r0,r0,#0x180000
        0x00000cee:    6008        .`      STR      r0,[r1,#0]
        0x00000cf0:    2000        .       MOVS     r0,#0
        0x00000cf2:    6608        .f      STR      r0,[r1,#0x60]
        0x00000cf4:    bf00        ..      NOP      
        0x00000cf6:    bf00        ..      NOP      
        0x00000cf8:    2073        s       MOVS     r0,#0x73
        0x00000cfa:    6608        .f      STR      r0,[r1,#0x60]
        0x00000cfc:    4608        .F      MOV      r0,r1
        0x00000cfe:    6c00        .l      LDR      r0,[r0,#0x40]
        0x00000d00:    f42040e0     ..@    BIC      r0,r0,#0x7000
        0x00000d04:    6408        .d      STR      r0,[r1,#0x40]
        0x00000d06:    4608        .F      MOV      r0,r1
        0x00000d08:    6800        .h      LDR      r0,[r0,#0]
        0x00000d0a:    f020407f     ..@    BIC      r0,r0,#0xff000000
        0x00000d0e:    f04050c0    @..P    ORR      r0,r0,#0x18000000
        0x00000d12:    6008        .`      STR      r0,[r1,#0]
        0x00000d14:    2000        .       MOVS     r0,#0
        0x00000d16:    6608        .f      STR      r0,[r1,#0x60]
        0x00000d18:    bf00        ..      NOP      
        0x00000d1a:    4770        pG      BX       lr
    $d
        0x00000d1c:    40010000    ...@    DCD    1073807360
    $t
    i.am_multiboot_flash_erase_page
    am_multiboot_flash_erase_page
        0x00000d20:    b510        ..      PUSH     {r4,lr}
        0x00000d22:    4604        .F      MOV      r4,r0
        0x00000d24:    2104        .!      MOVS     r1,#4
        0x00000d26:    4620         F      MOV      r0,r4
        0x00000d28:    f000fd48    ..H.    BL       check_flash_address_range ; 0x17bc
        0x00000d2c:    b120         .      CBZ      r0,0xd38 ; am_multiboot_flash_erase_page + 24
        0x00000d2e:    4620         F      MOV      r0,r4
        0x00000d30:    f7fffafa    ....    BL       am_bootloader_erase_flash_page ; 0x328
        0x00000d34:    2000        .       MOVS     r0,#0
        0x00000d36:    bd10        ..      POP      {r4,pc}
        0x00000d38:    f04f30ff    O..0    MOV      r0,#0xffffffff
        0x00000d3c:    e7fb        ..      B        0xd36 ; am_multiboot_flash_erase_page + 22
    i.am_multiboot_flash_read_page
    am_multiboot_flash_read_page
        0x00000d3e:    b570        p.      PUSH     {r4-r6,lr}
        0x00000d40:    4606        .F      MOV      r6,r0
        0x00000d42:    460c        .F      MOV      r4,r1
        0x00000d44:    4615        .F      MOV      r5,r2
        0x00000d46:    4629        )F      MOV      r1,r5
        0x00000d48:    4620         F      MOV      r0,r4
        0x00000d4a:    f000fd37    ..7.    BL       check_flash_address_range ; 0x17bc
        0x00000d4e:    b130        0.      CBZ      r0,0xd5e ; am_multiboot_flash_read_page + 32
        0x00000d50:    462a        *F      MOV      r2,r5
        0x00000d52:    4621        !F      MOV      r1,r4
        0x00000d54:    4630        0F      MOV      r0,r6
        0x00000d56:    f7fffa32    ..2.    BL       __aeabi_memcpy ; 0x1be
        0x00000d5a:    2000        .       MOVS     r0,#0
        0x00000d5c:    bd70        p.      POP      {r4-r6,pc}
        0x00000d5e:    f04f30ff    O..0    MOV      r0,#0xffffffff
        0x00000d62:    e7fb        ..      B        0xd5c ; am_multiboot_flash_read_page + 30
    i.am_multiboot_flash_write_page
    am_multiboot_flash_write_page
        0x00000d64:    b570        p.      PUSH     {r4-r6,lr}
        0x00000d66:    4605        .F      MOV      r5,r0
        0x00000d68:    460e        .F      MOV      r6,r1
        0x00000d6a:    4614        .F      MOV      r4,r2
        0x00000d6c:    4621        !F      MOV      r1,r4
        0x00000d6e:    4628        (F      MOV      r0,r5
        0x00000d70:    f000fd24    ..$.    BL       check_flash_address_range ; 0x17bc
        0x00000d74:    b130        0.      CBZ      r0,0xd84 ; am_multiboot_flash_write_page + 32
        0x00000d76:    4622        "F      MOV      r2,r4
        0x00000d78:    4631        1F      MOV      r1,r6
        0x00000d7a:    4628        (F      MOV      r0,r5
        0x00000d7c:    f7fffb80    ....    BL       am_bootloader_program_flash_page ; 0x480
        0x00000d80:    2000        .       MOVS     r0,#0
        0x00000d82:    bd70        p.      POP      {r4-r6,pc}
        0x00000d84:    f04f30ff    O..0    MOV      r0,#0xffffffff
        0x00000d88:    e7fb        ..      B        0xd82 ; am_multiboot_flash_write_page + 30
        0x00000d8a:    0000        ..      MOVS     r0,r0
    i.am_multiboot_init
    am_multiboot_init
        0x00000d8c:    4602        .F      MOV      r2,r0
        0x00000d8e:    2000        .       MOVS     r0,#0
        0x00000d90:    b12a        *.      CBZ      r2,0xd9e ; am_multiboot_init + 18
        0x00000d92:    f5b16f00    ...o    CMP      r1,#0x800
        0x00000d96:    d302        ..      BCC      0xd9e ; am_multiboot_init + 18
        0x00000d98:    4b01        .K      LDR      r3,[pc,#4] ; [0xda0] = 0x100008e4
        0x00000d9a:    601a        .`      STR      r2,[r3,#0]
        0x00000d9c:    2001        .       MOVS     r0,#1
        0x00000d9e:    4770        pG      BX       lr
    $d
        0x00000da0:    100008e4    ....    DCD    268437732
    $t
    i.am_multiboot_ios_acc_isr_handler
    am_multiboot_ios_acc_isr_handler
        0x00000da4:    b570        p.      PUSH     {r4-r6,lr}
        0x00000da6:    2000        .       MOVS     r0,#0
        0x00000da8:    f7fffd7b    ..{.    BL       am_hal_ios_access_int_status_get ; 0x8a2
        0x00000dac:    4605        .F      MOV      r5,r0
        0x00000dae:    4628        (F      MOV      r0,r5
        0x00000db0:    f7fffd6a    ..j.    BL       am_hal_ios_access_int_clear ; 0x888
        0x00000db4:    4872        rH      LDR      r0,[pc,#456] ; [0xf80] = 0x2160
        0x00000db6:    6804        .h      LDR      r4,[r0,#0]
        0x00000db8:    f0055080    ...P    AND      r0,r5,#0x10000000
        0x00000dbc:    2800        .(      CMP      r0,#0
        0x00000dbe:    d072        r.      BEQ      0xea6 ; am_multiboot_ios_acc_isr_handler + 258
        0x00000dc0:    4870        pH      LDR      r0,[pc,#448] ; [0xf84] = 0x1000001c
        0x00000dc2:    7800        .x      LDRB     r0,[r0,#0]
        0x00000dc4:    f000011f    ....    AND      r1,r0,#0x1f
        0x00000dc8:    2001        .       MOVS     r0,#1
        0x00000dca:    4088        .@      LSLS     r0,r0,r1
        0x00000dcc:    496d        mI      LDR      r1,[pc,#436] ; [0xf84] = 0x1000001c
        0x00000dce:    7809        .x      LDRB     r1,[r1,#0]
        0x00000dd0:    f0010120    .. .    AND      r1,r1,#0x20
        0x00000dd4:    4a6c        lJ      LDR      r2,[pc,#432] ; [0xf88] = 0x40010000
        0x00000dd6:    eb0201d1    ....    ADD      r1,r2,r1,LSR #3
        0x00000dda:    f8c10090    ....    STR      r0,[r1,#0x90]
        0x00000dde:    6820         h      LDR      r0,[r4,#0]
        0x00000de0:    280a        .(      CMP      r0,#0xa
        0x00000de2:    d278        x.      BCS      0xed6 ; am_multiboot_ios_acc_isr_handler + 306
        0x00000de4:    e8dff000    ....    TBB      [pc,r0]
    $d
        0x00000de8:    4a05b7b6    ...J    DCD    1241888694
        0x00000dec:    b8a23398    .3..    DCD    3097637784
        0x00000df0:    9eb8        ..      DCW    40632
    $t
        0x00000df2:    4863        cH      LDR      r0,[pc,#396] ; [0xf80] = 0x2160
        0x00000df4:    6801        .h      LDR      r1,[r0,#0]
        0x00000df6:    4865        eH      LDR      r0,[pc,#404] ; [0xf8c] = 0x1000002c
        0x00000df8:    f000fd6e    ..n.    BL       image_start_packet_read ; 0x18d8
        0x00000dfc:    4964        dI      LDR      r1,[pc,#400] ; [0xf90] = 0x10000020
        0x00000dfe:    7008        .p      STRB     r0,[r1,#0]
        0x00000e00:    4608        .F      MOV      r0,r1
        0x00000e02:    7800        .x      LDRB     r0,[r0,#0]
        0x00000e04:    b188        ..      CBZ      r0,0xe2a ; am_multiboot_ios_acc_isr_handler + 134
        0x00000e06:    2002        .       MOVS     r0,#2
        0x00000e08:    6020         `      STR      r0,[r4,#0]
        0x00000e0a:    485e        ^H      LDR      r0,[pc,#376] ; [0xf84] = 0x1000001c
        0x00000e0c:    7800        .x      LDRB     r0,[r0,#0]
        0x00000e0e:    f000011f    ....    AND      r1,r0,#0x1f
        0x00000e12:    2001        .       MOVS     r0,#1
        0x00000e14:    4088        .@      LSLS     r0,r0,r1
        0x00000e16:    495b        [I      LDR      r1,[pc,#364] ; [0xf84] = 0x1000001c
        0x00000e18:    7809        .x      LDRB     r1,[r1,#0]
        0x00000e1a:    f0010120    .. .    AND      r1,r1,#0x20
        0x00000e1e:    4a5a        ZJ      LDR      r2,[pc,#360] ; [0xf88] = 0x40010000
        0x00000e20:    eb0201d1    ....    ADD      r1,r2,r1,LSR #3
        0x00000e24:    f8c10098    ....    STR      r0,[r1,#0x98]
        0x00000e28:    e010        ..      B        0xe4c ; am_multiboot_ios_acc_isr_handler + 168
        0x00000e2a:    2005        .       MOVS     r0,#5
        0x00000e2c:    6020         `      STR      r0,[r4,#0]
        0x00000e2e:    4855        UH      LDR      r0,[pc,#340] ; [0xf84] = 0x1000001c
        0x00000e30:    7800        .x      LDRB     r0,[r0,#0]
        0x00000e32:    f000011f    ....    AND      r1,r0,#0x1f
        0x00000e36:    2001        .       MOVS     r0,#1
        0x00000e38:    4088        .@      LSLS     r0,r0,r1
        0x00000e3a:    4952        RI      LDR      r1,[pc,#328] ; [0xf84] = 0x1000001c
        0x00000e3c:    7809        .x      LDRB     r1,[r1,#0]
        0x00000e3e:    f0010120    .. .    AND      r1,r1,#0x20
        0x00000e42:    4a51        QJ      LDR      r2,[pc,#324] ; [0xf88] = 0x40010000
        0x00000e44:    eb0201d1    ....    ADD      r1,r2,r1,LSR #3
        0x00000e48:    f8c10098    ....    STR      r0,[r1,#0x98]
        0x00000e4c:    e096        ..      B        0xf7c ; am_multiboot_ios_acc_isr_handler + 472
        0x00000e4e:    494f        OI      LDR      r1,[pc,#316] ; [0xf8c] = 0x1000002c
        0x00000e50:    6860        `h      LDR      r0,[r4,#4]
        0x00000e52:    60c8        .`      STR      r0,[r1,#0xc]
        0x00000e54:    68a0        .h      LDR      r0,[r4,#8]
        0x00000e56:    6108        .a      STR      r0,[r1,#0x10]
        0x00000e58:    2002        .       MOVS     r0,#2
        0x00000e5a:    6020         `      STR      r0,[r4,#0]
        0x00000e5c:    4849        IH      LDR      r0,[pc,#292] ; [0xf84] = 0x1000001c
        0x00000e5e:    7800        .x      LDRB     r0,[r0,#0]
        0x00000e60:    f000011f    ....    AND      r1,r0,#0x1f
        0x00000e64:    2001        .       MOVS     r0,#1
        0x00000e66:    4088        .@      LSLS     r0,r0,r1
        0x00000e68:    4946        FI      LDR      r1,[pc,#280] ; [0xf84] = 0x1000001c
        0x00000e6a:    7809        .x      LDRB     r1,[r1,#0]
        0x00000e6c:    f0010120    .. .    AND      r1,r1,#0x20
        0x00000e70:    4a45        EJ      LDR      r2,[pc,#276] ; [0xf88] = 0x40010000
        0x00000e72:    eb0201d1    ....    ADD      r1,r2,r1,LSR #3
        0x00000e76:    f8c10098    ....    STR      r0,[r1,#0x98]
        0x00000e7a:    e07f        ..      B        0xf7c ; am_multiboot_ios_acc_isr_handler + 472
        0x00000e7c:    4844        DH      LDR      r0,[pc,#272] ; [0xf90] = 0x10000020
        0x00000e7e:    7800        .x      LDRB     r0,[r0,#0]
        0x00000e80:    b990        ..      CBNZ     r0,0xea8 ; am_multiboot_ios_acc_isr_handler + 260
        0x00000e82:    2005        .       MOVS     r0,#5
        0x00000e84:    6020         `      STR      r0,[r4,#0]
        0x00000e86:    483f        ?H      LDR      r0,[pc,#252] ; [0xf84] = 0x1000001c
        0x00000e88:    7800        .x      LDRB     r0,[r0,#0]
        0x00000e8a:    f000011f    ....    AND      r1,r0,#0x1f
        0x00000e8e:    2001        .       MOVS     r0,#1
        0x00000e90:    4088        .@      LSLS     r0,r0,r1
        0x00000e92:    493c        <I      LDR      r1,[pc,#240] ; [0xf84] = 0x1000001c
        0x00000e94:    7809        .x      LDRB     r1,[r1,#0]
        0x00000e96:    f0010120    .. .    AND      r1,r1,#0x20
        0x00000e9a:    4a3b        ;J      LDR      r2,[pc,#236] ; [0xf88] = 0x40010000
        0x00000e9c:    eb0201d1    ....    ADD      r1,r2,r1,LSR #3
        0x00000ea0:    f8c10098    ....    STR      r0,[r1,#0x98]
        0x00000ea4:    e06a        j.      B        0xf7c ; am_multiboot_ios_acc_isr_handler + 472
        0x00000ea6:    e06a        j.      B        0xf7e ; am_multiboot_ios_acc_isr_handler + 474
        0x00000ea8:    4835        5H      LDR      r0,[pc,#212] ; [0xf80] = 0x2160
        0x00000eaa:    6800        .h      LDR      r0,[r0,#0]
        0x00000eac:    6841        Ah      LDR      r1,[r0,#4]
        0x00000eae:    4834        4H      LDR      r0,[pc,#208] ; [0xf80] = 0x2160
        0x00000eb0:    6800        .h      LDR      r0,[r0,#0]
        0x00000eb2:    3008        .0      ADDS     r0,r0,#8
        0x00000eb4:    f000fcb4    ....    BL       image_data_packet_read ; 0x1820
        0x00000eb8:    4834        4H      LDR      r0,[pc,#208] ; [0xf8c] = 0x1000002c
        0x00000eba:    6840        @h      LDR      r0,[r0,#4]
        0x00000ebc:    4935        5I      LDR      r1,[pc,#212] ; [0xf94] = 0x10000024
        0x00000ebe:    6809        .h      LDR      r1,[r1,#0]
        0x00000ec0:    4288        .B      CMP      r0,r1
        0x00000ec2:    d117        ..      BNE      0xef4 ; am_multiboot_ios_acc_isr_handler + 336
        0x00000ec4:    4831        1H      LDR      r0,[pc,#196] ; [0xf8c] = 0x1000002c
        0x00000ec6:    6880        .h      LDR      r0,[r0,#8]
        0x00000ec8:    4933        3I      LDR      r1,[pc,#204] ; [0xf98] = 0x10000028
        0x00000eca:    6809        .h      LDR      r1,[r1,#0]
        0x00000ecc:    4288        .B      CMP      r0,r1
        0x00000ece:    d003        ..      BEQ      0xed8 ; am_multiboot_ios_acc_isr_handler + 308
        0x00000ed0:    2004        .       MOVS     r0,#4
        0x00000ed2:    6020         `      STR      r0,[r4,#0]
        0x00000ed4:    e010        ..      B        0xef8 ; am_multiboot_ios_acc_isr_handler + 340
        0x00000ed6:    e03f        ?.      B        0xf58 ; am_multiboot_ios_acc_isr_handler + 436
        0x00000ed8:    492c        ,I      LDR      r1,[pc,#176] ; [0xf8c] = 0x1000002c
        0x00000eda:    69c8        .i      LDR      r0,[r1,#0x1c]
        0x00000edc:    f000fe5e    ..^.    BL       program_image ; 0x1b9c
        0x00000ee0:    482a        *H      LDR      r0,[pc,#168] ; [0xf8c] = 0x1000002c
        0x00000ee2:    f7fffa75    ..u.    BL       am_bootloader_flash_check ; 0x3d0
        0x00000ee6:    b110        ..      CBZ      r0,0xeee ; am_multiboot_ios_acc_isr_handler + 330
        0x00000ee8:    2003        .       MOVS     r0,#3
        0x00000eea:    6020         `      STR      r0,[r4,#0]
        0x00000eec:    e004        ..      B        0xef8 ; am_multiboot_ios_acc_isr_handler + 340
        0x00000eee:    2005        .       MOVS     r0,#5
        0x00000ef0:    6020         `      STR      r0,[r4,#0]
        0x00000ef2:    e001        ..      B        0xef8 ; am_multiboot_ios_acc_isr_handler + 340
        0x00000ef4:    2002        .       MOVS     r0,#2
        0x00000ef6:    6020         `      STR      r0,[r4,#0]
        0x00000ef8:    4822        "H      LDR      r0,[pc,#136] ; [0xf84] = 0x1000001c
        0x00000efa:    7800        .x      LDRB     r0,[r0,#0]
        0x00000efc:    f000011f    ....    AND      r1,r0,#0x1f
        0x00000f00:    2001        .       MOVS     r0,#1
        0x00000f02:    4088        .@      LSLS     r0,r0,r1
        0x00000f04:    491f        .I      LDR      r1,[pc,#124] ; [0xf84] = 0x1000001c
        0x00000f06:    7809        .x      LDRB     r1,[r1,#0]
        0x00000f08:    f0010120    .. .    AND      r1,r1,#0x20
        0x00000f0c:    4a1e        .J      LDR      r2,[pc,#120] ; [0xf88] = 0x40010000
        0x00000f0e:    eb0201d1    ....    ADD      r1,r2,r1,LSR #3
        0x00000f12:    f8c10098    ....    STR      r0,[r1,#0x98]
        0x00000f16:    e031        1.      B        0xf7c ; am_multiboot_ios_acc_isr_handler + 472
        0x00000f18:    f44f41c0    O..A    MOV      r1,#0x6000
        0x00000f1c:    481b        .H      LDR      r0,[pc,#108] ; [0xf8c] = 0x1000002c
        0x00000f1e:    f7fffa2f    ../.    BL       am_bootloader_flag_page_update ; 0x380
        0x00000f22:    bf00        ..      NOP      
        0x00000f24:    f7fffd9c    ....    BL       am_hal_reset_poi ; 0xa60
        0x00000f28:    bf00        ..      NOP      
        0x00000f2a:    e7fe        ..      B        0xf2a ; am_multiboot_ios_acc_isr_handler + 390
        0x00000f2c:    2006        .       MOVS     r0,#6
        0x00000f2e:    6020         `      STR      r0,[r4,#0]
        0x00000f30:    2001        .       MOVS     r0,#1
        0x00000f32:    6060        ``      STR      r0,[r4,#4]
        0x00000f34:    4813        .H      LDR      r0,[pc,#76] ; [0xf84] = 0x1000001c
        0x00000f36:    7800        .x      LDRB     r0,[r0,#0]
        0x00000f38:    f000011f    ....    AND      r1,r0,#0x1f
        0x00000f3c:    2001        .       MOVS     r0,#1
        0x00000f3e:    4088        .@      LSLS     r0,r0,r1
        0x00000f40:    4910        .I      LDR      r1,[pc,#64] ; [0xf84] = 0x1000001c
        0x00000f42:    7809        .x      LDRB     r1,[r1,#0]
        0x00000f44:    f0010120    .. .    AND      r1,r1,#0x20
        0x00000f48:    4a0f        .J      LDR      r2,[pc,#60] ; [0xf88] = 0x40010000
        0x00000f4a:    eb0201d1    ....    ADD      r1,r2,r1,LSR #3
        0x00000f4e:    f8c10098    ....    STR      r0,[r1,#0x98]
        0x00000f52:    e013        ..      B        0xf7c ; am_multiboot_ios_acc_isr_handler + 472
        0x00000f54:    bf00        ..      NOP      
        0x00000f56:    e011        ..      B        0xf7c ; am_multiboot_ios_acc_isr_handler + 472
        0x00000f58:    2005        .       MOVS     r0,#5
        0x00000f5a:    6020         `      STR      r0,[r4,#0]
        0x00000f5c:    4809        .H      LDR      r0,[pc,#36] ; [0xf84] = 0x1000001c
        0x00000f5e:    7800        .x      LDRB     r0,[r0,#0]
        0x00000f60:    f000011f    ....    AND      r1,r0,#0x1f
        0x00000f64:    2001        .       MOVS     r0,#1
        0x00000f66:    4088        .@      LSLS     r0,r0,r1
        0x00000f68:    4906        .I      LDR      r1,[pc,#24] ; [0xf84] = 0x1000001c
        0x00000f6a:    7809        .x      LDRB     r1,[r1,#0]
        0x00000f6c:    f0010120    .. .    AND      r1,r1,#0x20
        0x00000f70:    4a05        .J      LDR      r2,[pc,#20] ; [0xf88] = 0x40010000
        0x00000f72:    eb0201d1    ....    ADD      r1,r2,r1,LSR #3
        0x00000f76:    f8c10098    ....    STR      r0,[r1,#0x98]
        0x00000f7a:    bf00        ..      NOP      
        0x00000f7c:    bf00        ..      NOP      
        0x00000f7e:    bd70        p.      POP      {r4-r6,pc}
    $d
        0x00000f80:    00002160    `!..    DCD    8544
        0x00000f84:    1000001c    ....    DCD    268435484
        0x00000f88:    40010000    ...@    DCD    1073807360
        0x00000f8c:    1000002c    ,...    DCD    268435500
        0x00000f90:    10000020     ...    DCD    268435488
        0x00000f94:    10000024    $...    DCD    268435492
        0x00000f98:    10000028    (...    DCD    268435496
    $t
    i.am_multiboot_ota_handler
    am_multiboot_ota_handler
        0x00000f9c:    e92d47fc    -..G    PUSH     {r2-r10,lr}
        0x00000fa0:    4604        .F      MOV      r4,r0
        0x00000fa2:    4688        .F      MOV      r8,r1
        0x00000fa4:    4691        .F      MOV      r9,r2
        0x00000fa6:    469a        .F      MOV      r10,r3
        0x00000fa8:    9f0a        ..      LDR      r7,[sp,#0x28]
        0x00000faa:    4d43        CM      LDR      r5,[pc,#268] ; [0x10b8] = 0x1000002c
        0x00000fac:    f1b80f00    ....    CMP      r8,#0
        0x00000fb0:    d004        ..      BEQ      0xfbc ; am_multiboot_ota_handler + 32
        0x00000fb2:    b11c        ..      CBZ      r4,0xfbc ; am_multiboot_ota_handler + 32
        0x00000fb4:    4941        AI      LDR      r1,[pc,#260] ; [0x10bc] = 0xdeadcafe
        0x00000fb6:    6820         h      LDR      r0,[r4,#0]
        0x00000fb8:    4288        .B      CMP      r0,r1
        0x00000fba:    d002        ..      BEQ      0xfc2 ; am_multiboot_ota_handler + 38
        0x00000fbc:    2000        .       MOVS     r0,#0
        0x00000fbe:    e8bd87fc    ....    POP      {r2-r10,pc}
        0x00000fc2:    2124        $!      MOVS     r1,#0x24
        0x00000fc4:    4620         F      MOV      r0,r4
        0x00000fc6:    f7fffa75    ..u.    BL       am_bootloader_validate_structure ; 0x4b4
        0x00000fca:    b908        ..      CBNZ     r0,0xfd0 ; am_multiboot_ota_handler + 52
        0x00000fcc:    2000        .       MOVS     r0,#0
        0x00000fce:    e7f6        ..      B        0xfbe ; am_multiboot_ota_handler + 34
        0x00000fd0:    e9d40101    ....    LDRD     r0,r1,[r4,#4]
        0x00000fd4:    f000fbf2    ....    BL       check_flash_address_range ; 0x17bc
        0x00000fd8:    b908        ..      CBNZ     r0,0xfde ; am_multiboot_ota_handler + 66
        0x00000fda:    2000        .       MOVS     r0,#0
        0x00000fdc:    e7ef        ..      B        0xfbe ; am_multiboot_ota_handler + 34
        0x00000fde:    7d20         }      LDRB     r0,[r4,#0x14]
        0x00000fe0:    f0000001    ....    AND      r0,r0,#1
        0x00000fe4:    b168        h.      CBZ      r0,0x1002 ; am_multiboot_ota_handler + 102
        0x00000fe6:    b157        W.      CBZ      r7,0xffe ; am_multiboot_ota_handler + 98
        0x00000fe8:    69b8        .i      LDR      r0,[r7,#0x18]
        0x00000fea:    b140        @.      CBZ      r0,0xffe ; am_multiboot_ota_handler + 98
        0x00000fec:    69f8        .i      LDR      r0,[r7,#0x1c]
        0x00000fee:    b130        0.      CBZ      r0,0xffe ; am_multiboot_ota_handler + 98
        0x00000ff0:    6a38        8j      LDR      r0,[r7,#0x20]
        0x00000ff2:    b120         .      CBZ      r0,0xffe ; am_multiboot_ota_handler + 98
        0x00000ff4:    6878        xh      LDR      r0,[r7,#4]
        0x00000ff6:    4548        HE      CMP      r0,r9
        0x00000ff8:    d801        ..      BHI      0xffe ; am_multiboot_ota_handler + 98
        0x00000ffa:    463e        >F      MOV      r6,r7
        0x00000ffc:    e008        ..      B        0x1010 ; am_multiboot_ota_handler + 116
        0x00000ffe:    2000        .       MOVS     r0,#0
        0x00001000:    e7dd        ..      B        0xfbe ; am_multiboot_ota_handler + 34
        0x00001002:    482f        /H      LDR      r0,[pc,#188] ; [0x10c0] = 0x10000054
        0x00001004:    6840        @h      LDR      r0,[r0,#4]
        0x00001006:    4548        HE      CMP      r0,r9
        0x00001008:    d901        ..      BLS      0x100e ; am_multiboot_ota_handler + 114
        0x0000100a:    2000        .       MOVS     r0,#0
        0x0000100c:    e7d7        ..      B        0xfbe ; am_multiboot_ota_handler + 34
        0x0000100e:    4e2c        ,N      LDR      r6,[pc,#176] ; [0x10c0] = 0x10000054
        0x00001010:    482c        ,H      LDR      r0,[pc,#176] ; [0x10c4] = 0x1000007c
        0x00001012:    f8c08000    ....    STR      r8,[r0,#0]
        0x00001016:    6860        `h      LDR      r0,[r4,#4]
        0x00001018:    6028        (`      STR      r0,[r5,#0]
        0x0000101a:    68a0        .h      LDR      r0,[r4,#8]
        0x0000101c:    6068        h`      STR      r0,[r5,#4]
        0x0000101e:    68e0        .h      LDR      r0,[r4,#0xc]
        0x00001020:    60a8        .`      STR      r0,[r5,#8]
        0x00001022:    2012        .       MOVS     r0,#0x12
        0x00001024:    60e8        .`      STR      r0,[r5,#0xc]
        0x00001026:    2000        .       MOVS     r0,#0
        0x00001028:    6128        (a      STR      r0,[r5,#0x10]
        0x0000102a:    61e8        .a      STR      r0,[r5,#0x1c]
        0x0000102c:    6168        ha      STR      r0,[r5,#0x14]
        0x0000102e:    61a8        .a      STR      r0,[r5,#0x18]
        0x00001030:    4925        %I      LDR      r1,[pc,#148] ; [0x10c8] = 0x100008e4
        0x00001032:    7308        .s      STRB     r0,[r1,#0xc]
        0x00001034:    69e0        .i      LDR      r0,[r4,#0x1c]
        0x00001036:    6048        H`      STR      r0,[r1,#4]
        0x00001038:    68a0        .h      LDR      r0,[r4,#8]
        0x0000103a:    6088        .`      STR      r0,[r1,#8]
        0x0000103c:    68b0        .h      LDR      r0,[r6,#8]
        0x0000103e:    b110        ..      CBZ      r0,0x1046 ; am_multiboot_ota_handler + 170
        0x00001040:    68b0        .h      LDR      r0,[r6,#8]
        0x00001042:    4780        .G      BLX      r0
        0x00001044:    e000        ..      B        0x1048 ; am_multiboot_ota_handler + 172
        0x00001046:    2000        .       MOVS     r0,#0
        0x00001048:    b960        `.      CBNZ     r0,0x1064 ; am_multiboot_ota_handler + 200
        0x0000104a:    6930        0i      LDR      r0,[r6,#0x10]
        0x0000104c:    b110        ..      CBZ      r0,0x1054 ; am_multiboot_ota_handler + 184
        0x0000104e:    6930        0i      LDR      r0,[r6,#0x10]
        0x00001050:    4780        .G      BLX      r0
        0x00001052:    e000        ..      B        0x1056 ; am_multiboot_ota_handler + 186
        0x00001054:    2000        .       MOVS     r0,#0
        0x00001056:    b138        8.      CBZ      r0,0x1068 ; am_multiboot_ota_handler + 204
        0x00001058:    68f0        .h      LDR      r0,[r6,#0xc]
        0x0000105a:    b110        ..      CBZ      r0,0x1062 ; am_multiboot_ota_handler + 198
        0x0000105c:    68f0        .h      LDR      r0,[r6,#0xc]
        0x0000105e:    4780        .G      BLX      r0
        0x00001060:    e002        ..      B        0x1068 ; am_multiboot_ota_handler + 204
        0x00001062:    e001        ..      B        0x1068 ; am_multiboot_ota_handler + 204
        0x00001064:    2000        .       MOVS     r0,#0
        0x00001066:    e7aa        ..      B        0xfbe ; am_multiboot_ota_handler + 34
        0x00001068:    69e0        .i      LDR      r0,[r4,#0x1c]
        0x0000106a:    6800        .h      LDR      r0,[r0,#0]
        0x0000106c:    6168        ha      STR      r0,[r5,#0x14]
        0x0000106e:    69e0        .i      LDR      r0,[r4,#0x1c]
        0x00001070:    6840        @h      LDR      r0,[r0,#4]
        0x00001072:    61a8        .a      STR      r0,[r5,#0x18]
        0x00001074:    4914        .I      LDR      r1,[pc,#80] ; [0x10c8] = 0x100008e4
        0x00001076:    6828        (h      LDR      r0,[r5,#0]
        0x00001078:    6108        .a      STR      r0,[r1,#0x10]
        0x0000107a:    4811        .H      LDR      r0,[pc,#68] ; [0x10c0] = 0x10000054
        0x0000107c:    e9cd6000    ...`    STRD     r6,r0,[sp,#0]
        0x00001080:    2300        .#      MOVS     r3,#0
        0x00001082:    e9d40201    ....    LDRD     r0,r2,[r4,#4]
        0x00001086:    69e1        .i      LDR      r1,[r4,#0x1c]
        0x00001088:    f000fdb0    ....    BL       program_image_from_flash ; 0x1bec
        0x0000108c:    69e8        .i      LDR      r0,[r5,#0x1c]
        0x0000108e:    f000fd85    ....    BL       program_image ; 0x1b9c
        0x00001092:    7d20         }      LDRB     r0,[r4,#0x14]
        0x00001094:    f0000002    ....    AND      r0,r0,#2
        0x00001098:    b928        (.      CBNZ     r0,0x10a6 ; am_multiboot_ota_handler + 266
        0x0000109a:    bf00        ..      NOP      
        0x0000109c:    f44f41c0    O..A    MOV      r1,#0x6000
        0x000010a0:    4805        .H      LDR      r0,[pc,#20] ; [0x10b8] = 0x1000002c
        0x000010a2:    f7fff96d    ..m.    BL       am_bootloader_flag_page_update ; 0x380
        0x000010a6:    f1ba0f00    ....    CMP      r10,#0
        0x000010aa:    d001        ..      BEQ      0x10b0 ; am_multiboot_ota_handler + 276
        0x000010ac:    4620         F      MOV      r0,r4
        0x000010ae:    47d0        .G      BLX      r10
        0x000010b0:    f7fffcd6    ....    BL       am_hal_reset_poi ; 0xa60
        0x000010b4:    2001        .       MOVS     r0,#1
        0x000010b6:    e782        ..      B        0xfbe ; am_multiboot_ota_handler + 34
    $d
        0x000010b8:    1000002c    ,...    DCD    268435500
        0x000010bc:    deadcafe    ....    DCD    3735931646
        0x000010c0:    10000054    T...    DCD    268435540
        0x000010c4:    1000007c    |...    DCD    268435580
        0x000010c8:    100008e4    ....    DCD    268437732
    $t
    i.am_multiboot_setup_ios_interface
    am_multiboot_setup_ios_interface
        0x000010cc:    b510        ..      PUSH     {r4,lr}
        0x000010ce:    4604        .F      MOV      r4,r0
        0x000010d0:    bf00        ..      NOP      
        0x000010d2:    2073        s       MOVS     r0,#0x73
        0x000010d4:    4985        .I      LDR      r1,[pc,#532] ; [0x12ec] = 0x40010000
        0x000010d6:    6608        .f      STR      r0,[r1,#0x60]
        0x000010d8:    4608        .F      MOV      r0,r1
        0x000010da:    6c00        .l      LDR      r0,[r0,#0x40]
        0x000010dc:    f0200007     ...    BIC      r0,r0,#7
        0x000010e0:    6408        .d      STR      r0,[r1,#0x40]
        0x000010e2:    4608        .F      MOV      r0,r1
        0x000010e4:    6800        .h      LDR      r0,[r0,#0]
        0x000010e6:    f02000ff     ...    BIC      r0,r0,#0xff
        0x000010ea:    f040001a    @...    ORR      r0,r0,#0x1a
        0x000010ee:    6008        .`      STR      r0,[r1,#0]
        0x000010f0:    2000        .       MOVS     r0,#0
        0x000010f2:    6608        .f      STR      r0,[r1,#0x60]
        0x000010f4:    bf00        ..      NOP      
        0x000010f6:    487d        }H      LDR      r0,[pc,#500] ; [0x12ec] = 0x40010000
        0x000010f8:    3080        .0      ADDS     r0,r0,#0x80
        0x000010fa:    6800        .h      LDR      r0,[r0,#0]
        0x000010fc:    f0000001    ....    AND      r0,r0,#1
        0x00001100:    b348        H.      CBZ      r0,0x1156 ; am_multiboot_setup_ios_interface + 138
        0x00001102:    bf00        ..      NOP      
        0x00001104:    2073        s       MOVS     r0,#0x73
        0x00001106:    6608        .f      STR      r0,[r1,#0x60]
        0x00001108:    4608        .F      MOV      r0,r1
        0x0000110a:    6c00        .l      LDR      r0,[r0,#0x40]
        0x0000110c:    f0200007     ...    BIC      r0,r0,#7
        0x00001110:    6408        .d      STR      r0,[r1,#0x40]
        0x00001112:    4608        .F      MOV      r0,r1
        0x00001114:    6800        .h      LDR      r0,[r0,#0]
        0x00001116:    f02000ff     ...    BIC      r0,r0,#0xff
        0x0000111a:    f0400002    @...    ORR      r0,r0,#2
        0x0000111e:    6008        .`      STR      r0,[r1,#0]
        0x00001120:    2000        .       MOVS     r0,#0
        0x00001122:    6608        .f      STR      r0,[r1,#0x60]
        0x00001124:    bf00        ..      NOP      
        0x00001126:    bf00        ..      NOP      
        0x00001128:    2073        s       MOVS     r0,#0x73
        0x0000112a:    6608        .f      STR      r0,[r1,#0x60]
        0x0000112c:    4608        .F      MOV      r0,r1
        0x0000112e:    6c00        .l      LDR      r0,[r0,#0x40]
        0x00001130:    f0200070     .p.    BIC      r0,r0,#0x70
        0x00001134:    f0400040    @.@.    ORR      r0,r0,#0x40
        0x00001138:    6408        .d      STR      r0,[r1,#0x40]
        0x0000113a:    4608        .F      MOV      r0,r1
        0x0000113c:    6800        .h      LDR      r0,[r0,#0]
        0x0000113e:    f420407f     ..@    BIC      r0,r0,#0xff00
        0x00001142:    f4407000    @..p    ORR      r0,r0,#0x200
        0x00001146:    6008        .`      STR      r0,[r1,#0]
        0x00001148:    2000        .       MOVS     r0,#0
        0x0000114a:    6608        .f      STR      r0,[r1,#0x60]
        0x0000114c:    bf00        ..      NOP      
        0x0000114e:    1448        H.      ASRS     r0,r1,#17
        0x00001150:    4967        gI      LDR      r1,[pc,#412] ; [0x12f0] = 0x10000004
        0x00001152:    6008        .`      STR      r0,[r1,#0]
        0x00001154:    e04b        K.      B        0x11ee ; am_multiboot_setup_ios_interface + 290
        0x00001156:    bf00        ..      NOP      
        0x00001158:    2073        s       MOVS     r0,#0x73
        0x0000115a:    4964        dI      LDR      r1,[pc,#400] ; [0x12ec] = 0x40010000
        0x0000115c:    6608        .f      STR      r0,[r1,#0x60]
        0x0000115e:    4608        .F      MOV      r0,r1
        0x00001160:    6c00        .l      LDR      r0,[r0,#0x40]
        0x00001162:    f0200007     ...    BIC      r0,r0,#7
        0x00001166:    6408        .d      STR      r0,[r1,#0x40]
        0x00001168:    4608        .F      MOV      r0,r1
        0x0000116a:    6800        .h      LDR      r0,[r0,#0]
        0x0000116c:    f02000ff     ...    BIC      r0,r0,#0xff
        0x00001170:    f040000a    @...    ORR      r0,r0,#0xa
        0x00001174:    6008        .`      STR      r0,[r1,#0]
        0x00001176:    2000        .       MOVS     r0,#0
        0x00001178:    6608        .f      STR      r0,[r1,#0x60]
        0x0000117a:    bf00        ..      NOP      
        0x0000117c:    bf00        ..      NOP      
        0x0000117e:    2073        s       MOVS     r0,#0x73
        0x00001180:    6608        .f      STR      r0,[r1,#0x60]
        0x00001182:    4608        .F      MOV      r0,r1
        0x00001184:    6c00        .l      LDR      r0,[r0,#0x40]
        0x00001186:    f0200070     .p.    BIC      r0,r0,#0x70
        0x0000118a:    6408        .d      STR      r0,[r1,#0x40]
        0x0000118c:    4608        .F      MOV      r0,r1
        0x0000118e:    6800        .h      LDR      r0,[r0,#0]
        0x00001190:    f420407f     ..@    BIC      r0,r0,#0xff00
        0x00001194:    f4406000    @..`    ORR      r0,r0,#0x800
        0x00001198:    6008        .`      STR      r0,[r1,#0]
        0x0000119a:    2000        .       MOVS     r0,#0
        0x0000119c:    6608        .f      STR      r0,[r1,#0x60]
        0x0000119e:    bf00        ..      NOP      
        0x000011a0:    bf00        ..      NOP      
        0x000011a2:    2073        s       MOVS     r0,#0x73
        0x000011a4:    6608        .f      STR      r0,[r1,#0x60]
        0x000011a6:    4608        .F      MOV      r0,r1
        0x000011a8:    6c00        .l      LDR      r0,[r0,#0x40]
        0x000011aa:    f42060e0     ..`    BIC      r0,r0,#0x700
        0x000011ae:    6408        .d      STR      r0,[r1,#0x40]
        0x000011b0:    4608        .F      MOV      r0,r1
        0x000011b2:    6800        .h      LDR      r0,[r0,#0]
        0x000011b4:    f420007f     ...    BIC      r0,r0,#0xff0000
        0x000011b8:    f4402020    @.      ORR      r0,r0,#0xa0000
        0x000011bc:    6008        .`      STR      r0,[r1,#0]
        0x000011be:    2000        .       MOVS     r0,#0
        0x000011c0:    6608        .f      STR      r0,[r1,#0x60]
        0x000011c2:    bf00        ..      NOP      
        0x000011c4:    bf00        ..      NOP      
        0x000011c6:    2073        s       MOVS     r0,#0x73
        0x000011c8:    6608        .f      STR      r0,[r1,#0x60]
        0x000011ca:    4608        .F      MOV      r0,r1
        0x000011cc:    6c00        .l      LDR      r0,[r0,#0x40]
        0x000011ce:    f42040e0     ..@    BIC      r0,r0,#0x7000
        0x000011d2:    6408        .d      STR      r0,[r1,#0x40]
        0x000011d4:    4608        .F      MOV      r0,r1
        0x000011d6:    6800        .h      LDR      r0,[r0,#0]
        0x000011d8:    f020407f     ..@    BIC      r0,r0,#0xff000000
        0x000011dc:    f0406020    @. `    ORR      r0,r0,#0xa000000
        0x000011e0:    6008        .`      STR      r0,[r1,#0]
        0x000011e2:    2000        .       MOVS     r0,#0
        0x000011e4:    6608        .f      STR      r0,[r1,#0x60]
        0x000011e6:    bf00        ..      NOP      
        0x000011e8:    2001        .       MOVS     r0,#1
        0x000011ea:    4941        AI      LDR      r1,[pc,#260] ; [0x12f0] = 0x10000004
        0x000011ec:    6008        .`      STR      r0,[r1,#0]
        0x000011ee:    4840        @H      LDR      r0,[pc,#256] ; [0x12f0] = 0x10000004
        0x000011f0:    f7fffb62    ..b.    BL       am_hal_ios_config ; 0x8b8
        0x000011f4:    483f        ?H      LDR      r0,[pc,#252] ; [0x12f4] = 0x1000001c
        0x000011f6:    6004        .`      STR      r4,[r0,#0]
        0x000011f8:    7800        .x      LDRB     r0,[r0,#0]
        0x000011fa:    f000011f    ....    AND      r1,r0,#0x1f
        0x000011fe:    2001        .       MOVS     r0,#1
        0x00001200:    4088        .@      LSLS     r0,r0,r1
        0x00001202:    493c        <I      LDR      r1,[pc,#240] ; [0x12f4] = 0x1000001c
        0x00001204:    7809        .x      LDRB     r1,[r1,#0]
        0x00001206:    f0010120    .. .    AND      r1,r1,#0x20
        0x0000120a:    4a38        8J      LDR      r2,[pc,#224] ; [0x12ec] = 0x40010000
        0x0000120c:    eb0201d1    ....    ADD      r1,r2,r1,LSR #3
        0x00001210:    f8c10090    ....    STR      r0,[r1,#0x90]
        0x00001214:    bf00        ..      NOP      
        0x00001216:    4837        7H      LDR      r0,[pc,#220] ; [0x12f4] = 0x1000001c
        0x00001218:    6800        .h      LDR      r0,[r0,#0]
        0x0000121a:    2800        .(      CMP      r0,#0
        0x0000121c:    da00        ..      BGE      0x1220 ; am_multiboot_setup_ios_interface + 340
        0x0000121e:    e03d        =.      B        0x129c ; am_multiboot_setup_ios_interface + 464
        0x00001220:    2073        s       MOVS     r0,#0x73
        0x00001222:    4932        2I      LDR      r1,[pc,#200] ; [0x12ec] = 0x40010000
        0x00001224:    6608        .f      STR      r0,[r1,#0x60]
        0x00001226:    4833        3H      LDR      r0,[pc,#204] ; [0x12f4] = 0x1000001c
        0x00001228:    7800        .x      LDRB     r0,[r0,#0]
        0x0000122a:    f00000f8    ....    AND      r0,r0,#0xf8
        0x0000122e:    eb010050    ..P.    ADD      r0,r1,r0,LSR #1
        0x00001232:    6c00        .l      LDR      r0,[r0,#0x40]
        0x00001234:    492f        /I      LDR      r1,[pc,#188] ; [0x12f4] = 0x1000001c
        0x00001236:    7809        .x      LDRB     r1,[r1,#0]
        0x00001238:    0749        I.      LSLS     r1,r1,#29
        0x0000123a:    0eca        ..      LSRS     r2,r1,#27
        0x0000123c:    2107        .!      MOVS     r1,#7
        0x0000123e:    4091        .@      LSLS     r1,r1,r2
        0x00001240:    4388        .C      BICS     r0,r0,r1
        0x00001242:    492c        ,I      LDR      r1,[pc,#176] ; [0x12f4] = 0x1000001c
        0x00001244:    7809        .x      LDRB     r1,[r1,#0]
        0x00001246:    0749        I.      LSLS     r1,r1,#29
        0x00001248:    0eca        ..      LSRS     r2,r1,#27
        0x0000124a:    2102        .!      MOVS     r1,#2
        0x0000124c:    4091        .@      LSLS     r1,r1,r2
        0x0000124e:    4308        .C      ORRS     r0,r0,r1
        0x00001250:    4928        (I      LDR      r1,[pc,#160] ; [0x12f4] = 0x1000001c
        0x00001252:    7809        .x      LDRB     r1,[r1,#0]
        0x00001254:    f00101f8    ....    AND      r1,r1,#0xf8
        0x00001258:    4a24        $J      LDR      r2,[pc,#144] ; [0x12ec] = 0x40010000
        0x0000125a:    eb020151    ..Q.    ADD      r1,r2,r1,LSR #1
        0x0000125e:    6408        .d      STR      r0,[r1,#0x40]
        0x00001260:    4824        $H      LDR      r0,[pc,#144] ; [0x12f4] = 0x1000001c
        0x00001262:    7800        .x      LDRB     r0,[r0,#0]
        0x00001264:    f00000fc    ....    AND      r0,r0,#0xfc
        0x00001268:    4611        .F      MOV      r1,r2
        0x0000126a:    5840        @X      LDR      r0,[r0,r1]
        0x0000126c:    4921        !I      LDR      r1,[pc,#132] ; [0x12f4] = 0x1000001c
        0x0000126e:    7809        .x      LDRB     r1,[r1,#0]
        0x00001270:    0789        ..      LSLS     r1,r1,#30
        0x00001272:    0eca        ..      LSRS     r2,r1,#27
        0x00001274:    21ff        .!      MOVS     r1,#0xff
        0x00001276:    4091        .@      LSLS     r1,r1,r2
        0x00001278:    4388        .C      BICS     r0,r0,r1
        0x0000127a:    491e        .I      LDR      r1,[pc,#120] ; [0x12f4] = 0x1000001c
        0x0000127c:    7809        .x      LDRB     r1,[r1,#0]
        0x0000127e:    0789        ..      LSLS     r1,r1,#30
        0x00001280:    0eca        ..      LSRS     r2,r1,#27
        0x00001282:    2118        .!      MOVS     r1,#0x18
        0x00001284:    4091        .@      LSLS     r1,r1,r2
        0x00001286:    4308        .C      ORRS     r0,r0,r1
        0x00001288:    491a        .I      LDR      r1,[pc,#104] ; [0x12f4] = 0x1000001c
        0x0000128a:    7809        .x      LDRB     r1,[r1,#0]
        0x0000128c:    f00101fc    ....    AND      r1,r1,#0xfc
        0x00001290:    4a16        .J      LDR      r2,[pc,#88] ; [0x12ec] = 0x40010000
        0x00001292:    5088        .P      STR      r0,[r1,r2]
        0x00001294:    2000        .       MOVS     r0,#0
        0x00001296:    4611        .F      MOV      r1,r2
        0x00001298:    6608        .f      STR      r0,[r1,#0x60]
        0x0000129a:    bf00        ..      NOP      
        0x0000129c:    bf00        ..      NOP      
        0x0000129e:    f04f30ff    O..0    MOV      r0,#0xffffffff
        0x000012a2:    f7fffaf1    ....    BL       am_hal_ios_access_int_clear ; 0x888
        0x000012a6:    f04f5080    O..P    MOV      r0,#0x10000000
        0x000012aa:    f7fffaf2    ....    BL       am_hal_ios_access_int_enable ; 0x892
        0x000012ae:    f04f30ff    O..0    MOV      r0,#0xffffffff
        0x000012b2:    f7fffb47    ..G.    BL       am_hal_ios_int_clear ; 0x944
        0x000012b6:    2001        .       MOVS     r0,#1
        0x000012b8:    f7fffb49    ..I.    BL       am_hal_ios_int_enable ; 0x94e
        0x000012bc:    2015        .       MOVS     r0,#0x15
        0x000012be:    f7fffabd    ....    BL       am_hal_interrupt_enable ; 0x83c
        0x000012c2:    2002        .       MOVS     r0,#2
        0x000012c4:    490c        .I      LDR      r1,[pc,#48] ; [0x12f8] = 0x2160
        0x000012c6:    6809        .h      LDR      r1,[r1,#0]
        0x000012c8:    6008        .`      STR      r0,[r1,#0]
        0x000012ca:    480a        .H      LDR      r0,[pc,#40] ; [0x12f4] = 0x1000001c
        0x000012cc:    7800        .x      LDRB     r0,[r0,#0]
        0x000012ce:    f000011f    ....    AND      r1,r0,#0x1f
        0x000012d2:    2001        .       MOVS     r0,#1
        0x000012d4:    4088        .@      LSLS     r0,r0,r1
        0x000012d6:    4907        .I      LDR      r1,[pc,#28] ; [0x12f4] = 0x1000001c
        0x000012d8:    7809        .x      LDRB     r1,[r1,#0]
        0x000012da:    f0010120    .. .    AND      r1,r1,#0x20
        0x000012de:    4a03        .J      LDR      r2,[pc,#12] ; [0x12ec] = 0x40010000
        0x000012e0:    eb0201d1    ....    ADD      r1,r2,r1,LSR #3
        0x000012e4:    f8c10098    ....    STR      r0,[r1,#0x98]
        0x000012e8:    bd10        ..      POP      {r4,pc}
    $d
        0x000012ea:    0000        ..      DCW    0
        0x000012ec:    40010000    ...@    DCD    1073807360
        0x000012f0:    10000004    ....    DCD    268435460
        0x000012f4:    1000001c    ....    DCD    268435484
        0x000012f8:    00002160    `!..    DCD    8544
    $t
    i.am_multiboot_setup_serial
    am_multiboot_setup_serial
        0x000012fc:    b570        p.      PUSH     {r4-r6,lr}
        0x000012fe:    4605        .F      MOV      r5,r0
        0x00001300:    460c        .F      MOV      r4,r1
        0x00001302:    261b        .&      MOVS     r6,#0x1b
        0x00001304:    2000        .       MOVS     r0,#0
        0x00001306:    4917        .I      LDR      r1,[pc,#92] ; [0x1364] = 0x100000bc
        0x00001308:    6008        .`      STR      r0,[r1,#0]
        0x0000130a:    4917        .I      LDR      r1,[pc,#92] ; [0x1368] = 0x100000a0
        0x0000130c:    6008        .`      STR      r0,[r1,#0]
        0x0000130e:    4917        .I      LDR      r1,[pc,#92] ; [0x136c] = 0x100000a8
        0x00001310:    6008        .`      STR      r0,[r1,#0]
        0x00001312:    4917        .I      LDR      r1,[pc,#92] ; [0x1370] = 0x100000a4
        0x00001314:    6008        .`      STR      r0,[r1,#0]
        0x00001316:    4917        .I      LDR      r1,[pc,#92] ; [0x1374] = 0x1000009d
        0x00001318:    7008        .p      STRB     r0,[r1,#0]
        0x0000131a:    2001        .       MOVS     r0,#1
        0x0000131c:    4916        .I      LDR      r1,[pc,#88] ; [0x1378] = 0x1000009e
        0x0000131e:    7008        .p      STRB     r0,[r1,#0]
        0x00001320:    20ff        .       MOVS     r0,#0xff
        0x00001322:    4916        .I      LDR      r1,[pc,#88] ; [0x137c] = 0x100000c0
        0x00001324:    6008        .`      STR      r0,[r1,#0]
        0x00001326:    4628        (F      MOV      r0,r5
        0x00001328:    f7fffbee    ....    BL       am_hal_uart_clock_enable ; 0xb08
        0x0000132c:    4628        (F      MOV      r0,r5
        0x0000132e:    f7fffc31    ..1.    BL       am_hal_uart_disable ; 0xb94
        0x00001332:    4813        .H      LDR      r0,[pc,#76] ; [0x1380] = 0x10000084
        0x00001334:    6004        .`      STR      r4,[r0,#0]
        0x00001336:    4601        .F      MOV      r1,r0
        0x00001338:    4628        (F      MOV      r0,r5
        0x0000133a:    f7fffbf7    ....    BL       am_hal_uart_config ; 0xb2c
        0x0000133e:    211b        .!      MOVS     r1,#0x1b
        0x00001340:    4628        (F      MOV      r0,r5
        0x00001342:    f7fffc3b    ..;.    BL       am_hal_uart_fifo_config ; 0xbbc
        0x00001346:    4628        (F      MOV      r0,r5
        0x00001348:    f7fffc2e    ....    BL       am_hal_uart_enable ; 0xba8
        0x0000134c:    2150        P!      MOVS     r1,#0x50
        0x0000134e:    4628        (F      MOV      r0,r5
        0x00001350:    f7fffc3e    ..>.    BL       am_hal_uart_int_clear ; 0xbd0
        0x00001354:    2150        P!      MOVS     r1,#0x50
        0x00001356:    4628        (F      MOV      r0,r5
        0x00001358:    f7fffc40    ..@.    BL       am_hal_uart_int_enable ; 0xbdc
        0x0000135c:    4630        0F      MOV      r0,r6
        0x0000135e:    f7fffa6d    ..m.    BL       am_hal_interrupt_enable ; 0x83c
        0x00001362:    bd70        p.      POP      {r4-r6,pc}
    $d
        0x00001364:    100000bc    ....    DCD    268435644
        0x00001368:    100000a0    ....    DCD    268435616
        0x0000136c:    100000a8    ....    DCD    268435624
        0x00001370:    100000a4    ....    DCD    268435620
        0x00001374:    1000009d    ....    DCD    268435613
        0x00001378:    1000009e    ....    DCD    268435614
        0x0000137c:    100000c0    ....    DCD    268435648
        0x00001380:    10000084    ....    DCD    268435588
    $t
    i.am_multiboot_uart_detect_baudrate
    am_multiboot_uart_detect_baudrate
        0x00001384:    e92d4ffe    -..O    PUSH     {r1-r11,lr}
        0x00001388:    4604        .F      MOV      r4,r0
        0x0000138a:    f7fffb9b    ....    BL       am_hal_systick_count ; 0xac4
        0x0000138e:    9002        ..      STR      r0,[sp,#8]
        0x00001390:    bf00        ..      NOP      
        0x00001392:    f0040020    .. .    AND      r0,r4,#0x20
        0x00001396:    4954        TI      LDR      r1,[pc,#336] ; [0x14e8] = 0x40010000
        0x00001398:    eb0100d0    ....    ADD      r0,r1,r0,LSR #3
        0x0000139c:    f8d00080    ....    LDR      r0,[r0,#0x80]
        0x000013a0:    f004021f    ....    AND      r2,r4,#0x1f
        0x000013a4:    2101        .!      MOVS     r1,#1
        0x000013a6:    4091        .@      LSLS     r1,r1,r2
        0x000013a8:    4008        .@      ANDS     r0,r0,r1
        0x000013aa:    2800        .(      CMP      r0,#0
        0x000013ac:    d0f1        ..      BEQ      0x1392 ; am_multiboot_uart_detect_baudrate + 14
        0x000013ae:    bf00        ..      NOP      
        0x000013b0:    f0040020    .. .    AND      r0,r4,#0x20
        0x000013b4:    494c        LI      LDR      r1,[pc,#304] ; [0x14e8] = 0x40010000
        0x000013b6:    eb0100d0    ....    ADD      r0,r1,r0,LSR #3
        0x000013ba:    f8d00080    ....    LDR      r0,[r0,#0x80]
        0x000013be:    f004021f    ....    AND      r2,r4,#0x1f
        0x000013c2:    2101        .!      MOVS     r1,#1
        0x000013c4:    4091        .@      LSLS     r1,r1,r2
        0x000013c6:    4008        .@      ANDS     r0,r0,r1
        0x000013c8:    2800        .(      CMP      r0,#0
        0x000013ca:    d1f1        ..      BNE      0x13b0 ; am_multiboot_uart_detect_baudrate + 44
        0x000013cc:    bf00        ..      NOP      
        0x000013ce:    f0040020    .. .    AND      r0,r4,#0x20
        0x000013d2:    4945        EI      LDR      r1,[pc,#276] ; [0x14e8] = 0x40010000
        0x000013d4:    eb0100d0    ....    ADD      r0,r1,r0,LSR #3
        0x000013d8:    f8d00080    ....    LDR      r0,[r0,#0x80]
        0x000013dc:    f004021f    ....    AND      r2,r4,#0x1f
        0x000013e0:    2101        .!      MOVS     r1,#1
        0x000013e2:    4091        .@      LSLS     r1,r1,r2
        0x000013e4:    4008        .@      ANDS     r0,r0,r1
        0x000013e6:    2800        .(      CMP      r0,#0
        0x000013e8:    d0f1        ..      BEQ      0x13ce ; am_multiboot_uart_detect_baudrate + 74
        0x000013ea:    bf00        ..      NOP      
        0x000013ec:    f0040020    .. .    AND      r0,r4,#0x20
        0x000013f0:    493d        =I      LDR      r1,[pc,#244] ; [0x14e8] = 0x40010000
        0x000013f2:    eb0100d0    ....    ADD      r0,r1,r0,LSR #3
        0x000013f6:    f8d00080    ....    LDR      r0,[r0,#0x80]
        0x000013fa:    f004021f    ....    AND      r2,r4,#0x1f
        0x000013fe:    2101        .!      MOVS     r1,#1
        0x00001400:    4091        .@      LSLS     r1,r1,r2
        0x00001402:    4008        .@      ANDS     r0,r0,r1
        0x00001404:    2800        .(      CMP      r0,#0
        0x00001406:    d1f1        ..      BNE      0x13ec ; am_multiboot_uart_detect_baudrate + 104
        0x00001408:    bf00        ..      NOP      
        0x0000140a:    f0040020    .. .    AND      r0,r4,#0x20
        0x0000140e:    4936        6I      LDR      r1,[pc,#216] ; [0x14e8] = 0x40010000
        0x00001410:    eb0100d0    ....    ADD      r0,r1,r0,LSR #3
        0x00001414:    f8d00080    ....    LDR      r0,[r0,#0x80]
        0x00001418:    f004021f    ....    AND      r2,r4,#0x1f
        0x0000141c:    2101        .!      MOVS     r1,#1
        0x0000141e:    4091        .@      LSLS     r1,r1,r2
        0x00001420:    4008        .@      ANDS     r0,r0,r1
        0x00001422:    2800        .(      CMP      r0,#0
        0x00001424:    d0f1        ..      BEQ      0x140a ; am_multiboot_uart_detect_baudrate + 134
        0x00001426:    bf00        ..      NOP      
        0x00001428:    f0040020    .. .    AND      r0,r4,#0x20
        0x0000142c:    492e        .I      LDR      r1,[pc,#184] ; [0x14e8] = 0x40010000
        0x0000142e:    eb0100d0    ....    ADD      r0,r1,r0,LSR #3
        0x00001432:    f8d00080    ....    LDR      r0,[r0,#0x80]
        0x00001436:    f004021f    ....    AND      r2,r4,#0x1f
        0x0000143a:    2101        .!      MOVS     r1,#1
        0x0000143c:    4091        .@      LSLS     r1,r1,r2
        0x0000143e:    4008        .@      ANDS     r0,r0,r1
        0x00001440:    2800        .(      CMP      r0,#0
        0x00001442:    d1f1        ..      BNE      0x1428 ; am_multiboot_uart_detect_baudrate + 164
        0x00001444:    bf00        ..      NOP      
        0x00001446:    f0040020    .. .    AND      r0,r4,#0x20
        0x0000144a:    4927        'I      LDR      r1,[pc,#156] ; [0x14e8] = 0x40010000
        0x0000144c:    eb0100d0    ....    ADD      r0,r1,r0,LSR #3
        0x00001450:    f8d00080    ....    LDR      r0,[r0,#0x80]
        0x00001454:    f004021f    ....    AND      r2,r4,#0x1f
        0x00001458:    2101        .!      MOVS     r1,#1
        0x0000145a:    4091        .@      LSLS     r1,r1,r2
        0x0000145c:    4008        .@      ANDS     r0,r0,r1
        0x0000145e:    2800        .(      CMP      r0,#0
        0x00001460:    d0f1        ..      BEQ      0x1446 ; am_multiboot_uart_detect_baudrate + 194
        0x00001462:    bf00        ..      NOP      
        0x00001464:    f0040020    .. .    AND      r0,r4,#0x20
        0x00001468:    491f        .I      LDR      r1,[pc,#124] ; [0x14e8] = 0x40010000
        0x0000146a:    eb0100d0    ....    ADD      r0,r1,r0,LSR #3
        0x0000146e:    f8d00080    ....    LDR      r0,[r0,#0x80]
        0x00001472:    f004021f    ....    AND      r2,r4,#0x1f
        0x00001476:    2101        .!      MOVS     r1,#1
        0x00001478:    4091        .@      LSLS     r1,r1,r2
        0x0000147a:    4008        .@      ANDS     r0,r0,r1
        0x0000147c:    2800        .(      CMP      r0,#0
        0x0000147e:    d1f1        ..      BNE      0x1464 ; am_multiboot_uart_detect_baudrate + 224
        0x00001480:    bf00        ..      NOP      
        0x00001482:    f0040020    .. .    AND      r0,r4,#0x20
        0x00001486:    4918        .I      LDR      r1,[pc,#96] ; [0x14e8] = 0x40010000
        0x00001488:    eb0100d0    ....    ADD      r0,r1,r0,LSR #3
        0x0000148c:    f8d00080    ....    LDR      r0,[r0,#0x80]
        0x00001490:    f004021f    ....    AND      r2,r4,#0x1f
        0x00001494:    2101        .!      MOVS     r1,#1
        0x00001496:    4091        .@      LSLS     r1,r1,r2
        0x00001498:    4008        .@      ANDS     r0,r0,r1
        0x0000149a:    2800        .(      CMP      r0,#0
        0x0000149c:    d0f1        ..      BEQ      0x1482 ; am_multiboot_uart_detect_baudrate + 254
        0x0000149e:    f7fffb11    ....    BL       am_hal_systick_count ; 0xac4
        0x000014a2:    4681        .F      MOV      r9,r0
        0x000014a4:    f7fffb1f    ....    BL       am_hal_systick_stop ; 0xae6
        0x000014a8:    4622        "F      MOV      r2,r4
        0x000014aa:    2501        .%      MOVS     r5,#1
        0x000014ac:    2600        .&      MOVS     r6,#0
        0x000014ae:    4628        (F      MOV      r0,r5
        0x000014b0:    4631        1F      MOV      r1,r6
        0x000014b2:    f7fefe71    ..q.    BL       __aeabi_llsl ; 0x198
        0x000014b6:    e9cd0100    ....    STRD     r0,r1,[sp,#0]
        0x000014ba:    f7fff97b    ..{.    BL       am_hal_gpio_int_disable ; 0x7b4
        0x000014be:    4622        "F      MOV      r2,r4
        0x000014c0:    2701        .'      MOVS     r7,#1
        0x000014c2:    f04f0800    O...    MOV      r8,#0
        0x000014c6:    4638        8F      MOV      r0,r7
        0x000014c8:    4641        AF      MOV      r1,r8
        0x000014ca:    f7fefe65    ..e.    BL       __aeabi_llsl ; 0x198
        0x000014ce:    e9cd0100    ....    STRD     r0,r1,[sp,#0]
        0x000014d2:    f7fff967    ..g.    BL       am_hal_gpio_int_clear ; 0x7a4
        0x000014d6:    9802        ..      LDR      r0,[sp,#8]
        0x000014d8:    eba00a09    ....    SUB      r10,r0,r9
        0x000014dc:    4803        .H      LDR      r0,[pc,#12] ; [0x14ec] = 0xcdfe600
        0x000014de:    fbb0fbfa    ....    UDIV     r11,r0,r10
        0x000014e2:    4658        XF      MOV      r0,r11
        0x000014e4:    e8bd8ffe    ....    POP      {r1-r11,pc}
    $d
        0x000014e8:    40010000    ...@    DCD    1073807360
        0x000014ec:    0cdfe600    ....    DCD    216000000
    $t
    i.am_multiboot_uart_isr_handler
    am_multiboot_uart_isr_handler
        0x000014f0:    e92d5ff0    -.._    PUSH     {r4-r12,lr}
        0x000014f4:    4607        .F      MOV      r7,r0
        0x000014f6:    f04f0a00    O...    MOV      r10,#0
        0x000014fa:    46d0        .F      MOV      r8,r10
        0x000014fc:    2100        .!      MOVS     r1,#0
        0x000014fe:    4638        8F      MOV      r0,r7
        0x00001500:    f7fffb74    ..t.    BL       am_hal_uart_int_status_get ; 0xbec
        0x00001504:    4683        .F      MOV      r11,r0
        0x00001506:    4659        YF      MOV      r1,r11
        0x00001508:    4638        8F      MOV      r0,r7
        0x0000150a:    f7fffb61    ..a.    BL       am_hal_uart_int_clear ; 0xbd0
        0x0000150e:    2000        .       MOVS     r0,#0
        0x00001510:    4990        .I      LDR      r1,[pc,#576] ; [0x1754] = 0x1000009e
        0x00001512:    7008        .p      STRB     r0,[r1,#0]
        0x00001514:    e0e6        ..      B        0x16e4 ; am_multiboot_uart_isr_handler + 500
        0x00001516:    4890        .H      LDR      r0,[pc,#576] ; [0x1758] = 0x100000a4
        0x00001518:    6800        .h      LDR      r0,[r0,#0]
        0x0000151a:    f5b07f02    ....    CMP      r0,#0x208
        0x0000151e:    d109        ..      BNE      0x1534 ; am_multiboot_uart_isr_handler + 68
        0x00001520:    2001        .       MOVS     r0,#1
        0x00001522:    498e        .I      LDR      r1,[pc,#568] ; [0x175c] = 0x1000009d
        0x00001524:    7008        .p      STRB     r0,[r1,#0]
        0x00001526:    4c8e        .L      LDR      r4,[pc,#568] ; [0x1760] = 0x100000af
        0x00001528:    2005        .       MOVS     r0,#5
        0x0000152a:    6020         `      STR      r0,[r4,#0]
        0x0000152c:    f04f0a01    O...    MOV      r10,#1
        0x00001530:    2504        .%      MOVS     r5,#4
        0x00001532:    e0e1        ..      B        0x16f8 ; am_multiboot_uart_isr_handler + 520
        0x00001534:    488b        .H      LDR      r0,[pc,#556] ; [0x1764] = 0x4001c000
        0x00001536:    2100        .!      MOVS     r1,#0
        0x00001538:    fb010007    ....    MLA      r0,r1,r7,r0
        0x0000153c:    6800        .h      LDR      r0,[r0,#0]
        0x0000153e:    f00009ff    ....    AND      r9,r0,#0xff
        0x00001542:    4985        .I      LDR      r1,[pc,#532] ; [0x1758] = 0x100000a4
        0x00001544:    6808        .h      LDR      r0,[r1,#0]
        0x00001546:    1c41        A.      ADDS     r1,r0,#1
        0x00001548:    4a83        .J      LDR      r2,[pc,#524] ; [0x1758] = 0x100000a4
        0x0000154a:    6011        .`      STR      r1,[r2,#0]
        0x0000154c:    4986        .I      LDR      r1,[pc,#536] ; [0x1768] = 0x100008f8
        0x0000154e:    f8019000    ....    STRB     r9,[r1,r0]
        0x00001552:    4886        .H      LDR      r0,[pc,#536] ; [0x176c] = 0x100000a0
        0x00001554:    6800        .h      LDR      r0,[r0,#0]
        0x00001556:    1c40        @.      ADDS     r0,r0,#1
        0x00001558:    4984        .I      LDR      r1,[pc,#528] ; [0x176c] = 0x100000a0
        0x0000155a:    6008        .`      STR      r0,[r1,#0]
        0x0000155c:    f1080801    ....    ADD      r8,r8,#1
        0x00001560:    4608        .F      MOV      r0,r1
        0x00001562:    6800        .h      LDR      r0,[r0,#0]
        0x00001564:    2804        .(      CMP      r0,#4
        0x00001566:    d130        0.      BNE      0x15ca ; am_multiboot_uart_isr_handler + 218
        0x00001568:    487f        .H      LDR      r0,[pc,#508] ; [0x1768] = 0x100008f8
        0x0000156a:    7800        .x      LDRB     r0,[r0,#0]
        0x0000156c:    4980        .I      LDR      r1,[pc,#512] ; [0x1770] = 0x100000bc
        0x0000156e:    6008        .`      STR      r0,[r1,#0]
        0x00001570:    4608        .F      MOV      r0,r1
        0x00001572:    6800        .h      LDR      r0,[r0,#0]
        0x00001574:    280a        .(      CMP      r0,#0xa
        0x00001576:    d223        #.      BCS      0x15c0 ; am_multiboot_uart_isr_handler + 208
        0x00001578:    e8dff000    ....    TBB      [pc,r0]
    $d
        0x0000157c:    0d051a16    ....    DCD    218438166
        0x00001580:    2212090e    ..."    DCD    571607310
        0x00001584:    1e22        ".      DCW    7714
    $t
        0x00001586:    2010        .       MOVS     r0,#0x10
        0x00001588:    497a        zI      LDR      r1,[pc,#488] ; [0x1774] = 0x100000c0
        0x0000158a:    6008        .`      STR      r0,[r1,#0]
        0x0000158c:    e01c        ..      B        0x15c8 ; am_multiboot_uart_isr_handler + 216
        0x0000158e:    200c        .       MOVS     r0,#0xc
        0x00001590:    4978        xI      LDR      r1,[pc,#480] ; [0x1774] = 0x100000c0
        0x00001592:    6008        .`      STR      r0,[r1,#0]
        0x00001594:    e018        ..      B        0x15c8 ; am_multiboot_uart_isr_handler + 216
        0x00001596:    e017        ..      B        0x15c8 ; am_multiboot_uart_isr_handler + 216
        0x00001598:    2004        .       MOVS     r0,#4
        0x0000159a:    4976        vI      LDR      r1,[pc,#472] ; [0x1774] = 0x100000c0
        0x0000159c:    6008        .`      STR      r0,[r1,#0]
        0x0000159e:    e013        ..      B        0x15c8 ; am_multiboot_uart_isr_handler + 216
        0x000015a0:    2004        .       MOVS     r0,#4
        0x000015a2:    4974        tI      LDR      r1,[pc,#464] ; [0x1774] = 0x100000c0
        0x000015a4:    6008        .`      STR      r0,[r1,#0]
        0x000015a6:    e00f        ..      B        0x15c8 ; am_multiboot_uart_isr_handler + 216
        0x000015a8:    2004        .       MOVS     r0,#4
        0x000015aa:    4972        rI      LDR      r1,[pc,#456] ; [0x1774] = 0x100000c0
        0x000015ac:    6008        .`      STR      r0,[r1,#0]
        0x000015ae:    e00b        ..      B        0x15c8 ; am_multiboot_uart_isr_handler + 216
        0x000015b0:    2004        .       MOVS     r0,#4
        0x000015b2:    4970        pI      LDR      r1,[pc,#448] ; [0x1774] = 0x100000c0
        0x000015b4:    6008        .`      STR      r0,[r1,#0]
        0x000015b6:    e007        ..      B        0x15c8 ; am_multiboot_uart_isr_handler + 216
        0x000015b8:    2004        .       MOVS     r0,#4
        0x000015ba:    496e        nI      LDR      r1,[pc,#440] ; [0x1774] = 0x100000c0
        0x000015bc:    6008        .`      STR      r0,[r1,#0]
        0x000015be:    e003        ..      B        0x15c8 ; am_multiboot_uart_isr_handler + 216
        0x000015c0:    2004        .       MOVS     r0,#4
        0x000015c2:    496c        lI      LDR      r1,[pc,#432] ; [0x1774] = 0x100000c0
        0x000015c4:    6008        .`      STR      r0,[r1,#0]
        0x000015c6:    bf00        ..      NOP      
        0x000015c8:    bf00        ..      NOP      
        0x000015ca:    4869        iH      LDR      r0,[pc,#420] ; [0x1770] = 0x100000bc
        0x000015cc:    6800        .h      LDR      r0,[r0,#0]
        0x000015ce:    2803        .(      CMP      r0,#3
        0x000015d0:    d10c        ..      BNE      0x15ec ; am_multiboot_uart_isr_handler + 252
        0x000015d2:    4866        fH      LDR      r0,[pc,#408] ; [0x176c] = 0x100000a0
        0x000015d4:    6800        .h      LDR      r0,[r0,#0]
        0x000015d6:    2808        .(      CMP      r0,#8
        0x000015d8:    d108        ..      BNE      0x15ec ; am_multiboot_uart_isr_handler + 252
        0x000015da:    4863        cH      LDR      r0,[pc,#396] ; [0x1768] = 0x100008f8
        0x000015dc:    6840        @h      LDR      r0,[r0,#4]
        0x000015de:    4966        fI      LDR      r1,[pc,#408] ; [0x1778] = 0x100000c4
        0x000015e0:    6008        .`      STR      r0,[r1,#0]
        0x000015e2:    4608        .F      MOV      r0,r1
        0x000015e4:    6800        .h      LDR      r0,[r0,#0]
        0x000015e6:    3008        .0      ADDS     r0,r0,#8
        0x000015e8:    4962        bI      LDR      r1,[pc,#392] ; [0x1774] = 0x100000c0
        0x000015ea:    6008        .`      STR      r0,[r1,#0]
        0x000015ec:    485f        _H      LDR      r0,[pc,#380] ; [0x176c] = 0x100000a0
        0x000015ee:    6800        .h      LDR      r0,[r0,#0]
        0x000015f0:    2804        .(      CMP      r0,#4
        0x000015f2:    d377        w.      BCC      0x16e4 ; am_multiboot_uart_isr_handler + 500
        0x000015f4:    485d        ]H      LDR      r0,[pc,#372] ; [0x176c] = 0x100000a0
        0x000015f6:    6800        .h      LDR      r0,[r0,#0]
        0x000015f8:    495e        ^I      LDR      r1,[pc,#376] ; [0x1774] = 0x100000c0
        0x000015fa:    6809        .h      LDR      r1,[r1,#0]
        0x000015fc:    4288        .B      CMP      r0,r1
        0x000015fe:    d171        q.      BNE      0x16e4 ; am_multiboot_uart_isr_handler + 500
        0x00001600:    4e59        YN      LDR      r6,[pc,#356] ; [0x1768] = 0x100008f8
        0x00001602:    4c57        WL      LDR      r4,[pc,#348] ; [0x1760] = 0x100000af
        0x00001604:    6830        0h      LDR      r0,[r6,#0]
        0x00001606:    280a        .(      CMP      r0,#0xa
        0x00001608:    d264        d.      BCS      0x16d4 ; am_multiboot_uart_isr_handler + 484
        0x0000160a:    e8dff000    ....    TBB      [pc,r0]
    $d
        0x0000160e:    6261        ab      DCW    25185
        0x00001610:    17502205    ."P.    DCD    391127557
        0x00001614:    5663635a    ZccV    DCD    1449354074
    $t
        0x00001618:    4953        SI      LDR      r1,[pc,#332] ; [0x1768] = 0x100008f8
        0x0000161a:    4858        XH      LDR      r0,[pc,#352] ; [0x177c] = 0x1000002c
        0x0000161c:    f000f95c    ..\.    BL       image_start_packet_read ; 0x18d8
        0x00001620:    4957        WI      LDR      r1,[pc,#348] ; [0x1780] = 0x100000c8
        0x00001622:    7008        .p      STRB     r0,[r1,#0]
        0x00001624:    4608        .F      MOV      r0,r1
        0x00001626:    7800        .x      LDRB     r0,[r0,#0]
        0x00001628:    b110        ..      CBZ      r0,0x1630 ; am_multiboot_uart_isr_handler + 320
        0x0000162a:    2002        .       MOVS     r0,#2
        0x0000162c:    6020         `      STR      r0,[r4,#0]
        0x0000162e:    e001        ..      B        0x1634 ; am_multiboot_uart_isr_handler + 324
        0x00001630:    2005        .       MOVS     r0,#5
        0x00001632:    6020         `      STR      r0,[r4,#0]
        0x00001634:    f04f0a01    O...    MOV      r10,#1
        0x00001638:    2504        .%      MOVS     r5,#4
        0x0000163a:    e051        Q.      B        0x16e0 ; am_multiboot_uart_isr_handler + 496
        0x0000163c:    494f        OI      LDR      r1,[pc,#316] ; [0x177c] = 0x1000002c
        0x0000163e:    6870        ph      LDR      r0,[r6,#4]
        0x00001640:    60c8        .`      STR      r0,[r1,#0xc]
        0x00001642:    68b0        .h      LDR      r0,[r6,#8]
        0x00001644:    6108        .a      STR      r0,[r1,#0x10]
        0x00001646:    2002        .       MOVS     r0,#2
        0x00001648:    6020         `      STR      r0,[r4,#0]
        0x0000164a:    f04f0a01    O...    MOV      r10,#1
        0x0000164e:    2504        .%      MOVS     r5,#4
        0x00001650:    e046        F.      B        0x16e0 ; am_multiboot_uart_isr_handler + 496
        0x00001652:    484b        KH      LDR      r0,[pc,#300] ; [0x1780] = 0x100000c8
        0x00001654:    7800        .x      LDRB     r0,[r0,#0]
        0x00001656:    b910        ..      CBNZ     r0,0x165e ; am_multiboot_uart_isr_handler + 366
        0x00001658:    2005        .       MOVS     r0,#5
        0x0000165a:    6020         `      STR      r0,[r4,#0]
        0x0000165c:    e040        @.      B        0x16e0 ; am_multiboot_uart_isr_handler + 496
        0x0000165e:    4842        BH      LDR      r0,[pc,#264] ; [0x1768] = 0x100008f8
        0x00001660:    6841        Ah      LDR      r1,[r0,#4]
        0x00001662:    3008        .0      ADDS     r0,r0,#8
        0x00001664:    f000f8dc    ....    BL       image_data_packet_read ; 0x1820
        0x00001668:    4844        DH      LDR      r0,[pc,#272] ; [0x177c] = 0x1000002c
        0x0000166a:    6840        @h      LDR      r0,[r0,#4]
        0x0000166c:    4945        EI      LDR      r1,[pc,#276] ; [0x1784] = 0x10000024
        0x0000166e:    6809        .h      LDR      r1,[r1,#0]
        0x00001670:    4288        .B      CMP      r0,r1
        0x00001672:    d116        ..      BNE      0x16a2 ; am_multiboot_uart_isr_handler + 434
        0x00001674:    4841        AH      LDR      r0,[pc,#260] ; [0x177c] = 0x1000002c
        0x00001676:    6880        .h      LDR      r0,[r0,#8]
        0x00001678:    4943        CI      LDR      r1,[pc,#268] ; [0x1788] = 0x10000028
        0x0000167a:    6809        .h      LDR      r1,[r1,#0]
        0x0000167c:    4288        .B      CMP      r0,r1
        0x0000167e:    d002        ..      BEQ      0x1686 ; am_multiboot_uart_isr_handler + 406
        0x00001680:    2004        .       MOVS     r0,#4
        0x00001682:    6020         `      STR      r0,[r4,#0]
        0x00001684:    e00f        ..      B        0x16a6 ; am_multiboot_uart_isr_handler + 438
        0x00001686:    493d        =I      LDR      r1,[pc,#244] ; [0x177c] = 0x1000002c
        0x00001688:    69c8        .i      LDR      r0,[r1,#0x1c]
        0x0000168a:    f000fa87    ....    BL       program_image ; 0x1b9c
        0x0000168e:    483b        ;H      LDR      r0,[pc,#236] ; [0x177c] = 0x1000002c
        0x00001690:    f7fefe9e    ....    BL       am_bootloader_flash_check ; 0x3d0
        0x00001694:    b110        ..      CBZ      r0,0x169c ; am_multiboot_uart_isr_handler + 428
        0x00001696:    2003        .       MOVS     r0,#3
        0x00001698:    6020         `      STR      r0,[r4,#0]
        0x0000169a:    e004        ..      B        0x16a6 ; am_multiboot_uart_isr_handler + 438
        0x0000169c:    2005        .       MOVS     r0,#5
        0x0000169e:    6020         `      STR      r0,[r4,#0]
        0x000016a0:    e001        ..      B        0x16a6 ; am_multiboot_uart_isr_handler + 438
        0x000016a2:    2002        .       MOVS     r0,#2
        0x000016a4:    6020         `      STR      r0,[r4,#0]
        0x000016a6:    f04f0a01    O...    MOV      r10,#1
        0x000016aa:    2504        .%      MOVS     r5,#4
        0x000016ac:    e018        ..      B        0x16e0 ; am_multiboot_uart_isr_handler + 496
        0x000016ae:    f44f41c0    O..A    MOV      r1,#0x6000
        0x000016b2:    4832        2H      LDR      r0,[pc,#200] ; [0x177c] = 0x1000002c
        0x000016b4:    f7fefe64    ..d.    BL       am_bootloader_flag_page_update ; 0x380
        0x000016b8:    bf00        ..      NOP      
        0x000016ba:    f7fff9d1    ....    BL       am_hal_reset_poi ; 0xa60
        0x000016be:    bf00        ..      NOP      
        0x000016c0:    e7fe        ..      B        0x16c0 ; am_multiboot_uart_isr_handler + 464
        0x000016c2:    2006        .       MOVS     r0,#6
        0x000016c4:    6020         `      STR      r0,[r4,#0]
        0x000016c6:    2001        .       MOVS     r0,#1
        0x000016c8:    6060        ``      STR      r0,[r4,#4]
        0x000016ca:    4682        .F      MOV      r10,r0
        0x000016cc:    2508        .%      MOVS     r5,#8
        0x000016ce:    e007        ..      B        0x16e0 ; am_multiboot_uart_isr_handler + 496
        0x000016d0:    bf00        ..      NOP      
        0x000016d2:    e005        ..      B        0x16e0 ; am_multiboot_uart_isr_handler + 496
        0x000016d4:    2005        .       MOVS     r0,#5
        0x000016d6:    6020         `      STR      r0,[r4,#0]
        0x000016d8:    f04f0a01    O...    MOV      r10,#1
        0x000016dc:    2504        .%      MOVS     r5,#4
        0x000016de:    bf00        ..      NOP      
        0x000016e0:    bf00        ..      NOP      
        0x000016e2:    e009        ..      B        0x16f8 ; am_multiboot_uart_isr_handler + 520
        0x000016e4:    481f        .H      LDR      r0,[pc,#124] ; [0x1764] = 0x4001c000
        0x000016e6:    2100        .!      MOVS     r1,#0
        0x000016e8:    fb010007    ....    MLA      r0,r1,r7,r0
        0x000016ec:    6980        .i      LDR      r0,[r0,#0x18]
        0x000016ee:    f3c01000    ....    UBFX     r0,r0,#4,#1
        0x000016f2:    2800        .(      CMP      r0,#0
        0x000016f4:    f43faf0f    ?...    BEQ      0x1516 ; am_multiboot_uart_isr_handler + 38
        0x000016f8:    bf00        ..      NOP      
        0x000016fa:    f1ba0f00    ....    CMP      r10,#0
        0x000016fe:    d027        '.      BEQ      0x1750 ; am_multiboot_uart_isr_handler + 608
        0x00001700:    2000        .       MOVS     r0,#0
        0x00001702:    4922        "I      LDR      r1,[pc,#136] ; [0x178c] = 0x100000b9
        0x00001704:    7008        .p      STRB     r0,[r1,#0]
        0x00001706:    4680        .F      MOV      r8,r0
        0x00001708:    e00c        ..      B        0x1724 ; am_multiboot_uart_isr_handler + 564
        0x0000170a:    4820         H      LDR      r0,[pc,#128] ; [0x178c] = 0x100000b9
        0x0000170c:    7802        .x      LDRB     r2,[r0,#0]
        0x0000170e:    7800        .x      LDRB     r0,[r0,#0]
        0x00001710:    1c40        @.      ADDS     r0,r0,#1
        0x00001712:    4b1e        .K      LDR      r3,[pc,#120] ; [0x178c] = 0x100000b9
        0x00001714:    7018        .p      STRB     r0,[r3,#0]
        0x00001716:    4812        .H      LDR      r0,[pc,#72] ; [0x1760] = 0x100000af
        0x00001718:    5c81        .\      LDRB     r1,[r0,r2]
        0x0000171a:    4638        8F      MOV      r0,r7
        0x0000171c:    f000fae4    ....    BL       ser_out ; 0x1ce8
        0x00001720:    f1080801    ....    ADD      r8,r8,#1
        0x00001724:    45a8        .E      CMP      r8,r5
        0x00001726:    d3f0        ..      BCC      0x170a ; am_multiboot_uart_isr_handler + 538
        0x00001728:    2000        .       MOVS     r0,#0
        0x0000172a:    4911        .I      LDR      r1,[pc,#68] ; [0x1770] = 0x100000bc
        0x0000172c:    6008        .`      STR      r0,[r1,#0]
        0x0000172e:    490f        .I      LDR      r1,[pc,#60] ; [0x176c] = 0x100000a0
        0x00001730:    6008        .`      STR      r0,[r1,#0]
        0x00001732:    4917        .I      LDR      r1,[pc,#92] ; [0x1790] = 0x100000a8
        0x00001734:    6008        .`      STR      r0,[r1,#0]
        0x00001736:    4908        .I      LDR      r1,[pc,#32] ; [0x1758] = 0x100000a4
        0x00001738:    6008        .`      STR      r0,[r1,#0]
        0x0000173a:    4908        .I      LDR      r1,[pc,#32] ; [0x175c] = 0x1000009d
        0x0000173c:    7008        .p      STRB     r0,[r1,#0]
        0x0000173e:    2001        .       MOVS     r0,#1
        0x00001740:    4904        .I      LDR      r1,[pc,#16] ; [0x1754] = 0x1000009e
        0x00001742:    7008        .p      STRB     r0,[r1,#0]
        0x00001744:    f04f0a00    O...    MOV      r10,#0
        0x00001748:    2500        .%      MOVS     r5,#0
        0x0000174a:    20ff        .       MOVS     r0,#0xff
        0x0000174c:    4909        .I      LDR      r1,[pc,#36] ; [0x1774] = 0x100000c0
        0x0000174e:    6008        .`      STR      r0,[r1,#0]
        0x00001750:    e8bd9ff0    ....    POP      {r4-r12,pc}
    $d
        0x00001754:    1000009e    ....    DCD    268435614
        0x00001758:    100000a4    ....    DCD    268435620
        0x0000175c:    1000009d    ....    DCD    268435613
        0x00001760:    100000af    ....    DCD    268435631
        0x00001764:    4001c000    ...@    DCD    1073856512
        0x00001768:    100008f8    ....    DCD    268437752
        0x0000176c:    100000a0    ....    DCD    268435616
        0x00001770:    100000bc    ....    DCD    268435644
        0x00001774:    100000c0    ....    DCD    268435648
        0x00001778:    100000c4    ....    DCD    268435652
        0x0000177c:    1000002c    ,...    DCD    268435500
        0x00001780:    100000c8    ....    DCD    268435656
        0x00001784:    10000024    $...    DCD    268435492
        0x00001788:    10000028    (...    DCD    268435496
        0x0000178c:    100000b9    ....    DCD    268435641
        0x00001790:    100000a8    ....    DCD    268435624
    $t
    i.am_uart_isr
    am_uart_isr
        0x00001794:    b510        ..      PUSH     {r4,lr}
        0x00001796:    2000        .       MOVS     r0,#0
        0x00001798:    f7fffeaa    ....    BL       am_multiboot_uart_isr_handler ; 0x14f0
        0x0000179c:    bd10        ..      POP      {r4,pc}
    i.am_util_delay_ms
    am_util_delay_ms
        0x0000179e:    b570        p.      PUSH     {r4-r6,lr}
        0x000017a0:    4604        .F      MOV      r4,r0
        0x000017a2:    f7feffbd    ....    BL       am_hal_clkgen_sysclk_get ; 0x720
        0x000017a6:    4606        .F      MOV      r6,r0
        0x000017a8:    f64030b8    @..0    MOV      r0,#0xbb8
        0x000017ac:    fbb6f0f0    ....    UDIV     r0,r6,r0
        0x000017b0:    fb00f504    ....    MUL      r5,r0,r4
        0x000017b4:    4628        (F      MOV      r0,r5
        0x000017b6:    f7fefcd3    ....    BL       am_hal_flash_delay ; 0x160
        0x000017ba:    bd70        p.      POP      {r4-r6,pc}
    i.check_flash_address_range
    check_flash_address_range
        0x000017bc:    b5f0        ..      PUSH     {r4-r7,lr}
        0x000017be:    b08d        ..      SUB      sp,sp,#0x34
        0x000017c0:    4605        .F      MOV      r5,r0
        0x000017c2:    460e        .F      MOV      r6,r1
        0x000017c4:    462c        ,F      MOV      r4,r5
        0x000017c6:    19a8        ..      ADDS     r0,r5,r6
        0x000017c8:    1e47        G.      SUBS     r7,r0,#1
        0x000017ca:    4814        .H      LDR      r0,[pc,#80] ; [0x181c] = 0x10000080
        0x000017cc:    6800        .h      LDR      r0,[r0,#0]
        0x000017ce:    b928        (.      CBNZ     r0,0x17dc ; check_flash_address_range + 32
        0x000017d0:    a801        ..      ADD      r0,sp,#4
        0x000017d2:    f7fff8e1    ....    BL       am_hal_mcuctrl_device_info_get ; 0x998
        0x000017d6:    4911        .I      LDR      r1,[pc,#68] ; [0x181c] = 0x10000080
        0x000017d8:    9807        ..      LDR      r0,[sp,#0x1c]
        0x000017da:    6008        .`      STR      r0,[r1,#0]
        0x000017dc:    f5b45f40    ..@_    CMP      r4,#0x3000
        0x000017e0:    d202        ..      BCS      0x17e8 ; check_flash_address_range + 44
        0x000017e2:    2000        .       MOVS     r0,#0
        0x000017e4:    b00d        ..      ADD      sp,sp,#0x34
        0x000017e6:    bdf0        ..      POP      {r4-r7,pc}
        0x000017e8:    480c        .H      LDR      r0,[pc,#48] ; [0x181c] = 0x10000080
        0x000017ea:    6800        .h      LDR      r0,[r0,#0]
        0x000017ec:    4287        .B      CMP      r7,r0
        0x000017ee:    d301        ..      BCC      0x17f4 ; check_flash_address_range + 56
        0x000017f0:    2000        .       MOVS     r0,#0
        0x000017f2:    e7f7        ..      B        0x17e4 ; check_flash_address_range + 40
        0x000017f4:    f5b44fc0    ...O    CMP      r4,#0x6000
        0x000017f8:    d00b        ..      BEQ      0x1812 ; check_flash_address_range + 86
        0x000017fa:    f5b44fc0    ...O    CMP      r4,#0x6000
        0x000017fe:    d902        ..      BLS      0x1806 ; check_flash_address_range + 74
        0x00001800:    f5b44fd0    ...O    CMP      r4,#0x6800
        0x00001804:    d305        ..      BCC      0x1812 ; check_flash_address_range + 86
        0x00001806:    f5b44fc0    ...O    CMP      r4,#0x6000
        0x0000180a:    d204        ..      BCS      0x1816 ; check_flash_address_range + 90
        0x0000180c:    f5b74fc0    ...O    CMP      r7,#0x6000
        0x00001810:    d301        ..      BCC      0x1816 ; check_flash_address_range + 90
        0x00001812:    2000        .       MOVS     r0,#0
        0x00001814:    e7e6        ..      B        0x17e4 ; check_flash_address_range + 40
        0x00001816:    2001        .       MOVS     r0,#1
        0x00001818:    e7e4        ..      B        0x17e4 ; check_flash_address_range + 40
    $d
        0x0000181a:    0000        ..      DCW    0
        0x0000181c:    10000080    ....    DCD    268435584
    $t
    i.image_data_packet_read
    image_data_packet_read
        0x00001820:    b570        p.      PUSH     {r4-r6,lr}
        0x00001822:    4604        .F      MOV      r4,r0
        0x00001824:    460d        .F      MOV      r5,r1
        0x00001826:    2600        .&      MOVS     r6,#0
        0x00001828:    e04a        J.      B        0x18c0 ; image_data_packet_read + 160
        0x0000182a:    f8140b01    ....    LDRB     r0,[r4],#1
        0x0000182e:    4926        &I      LDR      r1,[pc,#152] ; [0x18c8] = 0x100008e4
        0x00001830:    6849        Ih      LDR      r1,[r1,#4]
        0x00001832:    4a25        %J      LDR      r2,[pc,#148] ; [0x18c8] = 0x100008e4
        0x00001834:    6892        .h      LDR      r2,[r2,#8]
        0x00001836:    5488        .T      STRB     r0,[r1,r2]
        0x00001838:    4823        #H      LDR      r0,[pc,#140] ; [0x18c8] = 0x100008e4
        0x0000183a:    6880        .h      LDR      r0,[r0,#8]
        0x0000183c:    1c40        @.      ADDS     r0,r0,#1
        0x0000183e:    4922        "I      LDR      r1,[pc,#136] ; [0x18c8] = 0x100008e4
        0x00001840:    6088        .`      STR      r0,[r1,#8]
        0x00001842:    4822        "H      LDR      r0,[pc,#136] ; [0x18cc] = 0x10000024
        0x00001844:    6800        .h      LDR      r0,[r0,#0]
        0x00001846:    1c40        @.      ADDS     r0,r0,#1
        0x00001848:    4920         I      LDR      r1,[pc,#128] ; [0x18cc] = 0x10000024
        0x0000184a:    6008        .`      STR      r0,[r1,#0]
        0x0000184c:    481e        .H      LDR      r0,[pc,#120] ; [0x18c8] = 0x100008e4
        0x0000184e:    7b00        .{      LDRB     r0,[r0,#0xc]
        0x00001850:    b920         .      CBNZ     r0,0x185c ; image_data_packet_read + 60
        0x00001852:    481d        .H      LDR      r0,[pc,#116] ; [0x18c8] = 0x100008e4
        0x00001854:    6880        .h      LDR      r0,[r0,#8]
        0x00001856:    f5b06f00    ...o    CMP      r0,#0x800
        0x0000185a:    d005        ..      BEQ      0x1868 ; image_data_packet_read + 72
        0x0000185c:    481c        .H      LDR      r0,[pc,#112] ; [0x18d0] = 0x1000002c
        0x0000185e:    6840        @h      LDR      r0,[r0,#4]
        0x00001860:    491a        .I      LDR      r1,[pc,#104] ; [0x18cc] = 0x10000024
        0x00001862:    6809        .h      LDR      r1,[r1,#0]
        0x00001864:    4288        .B      CMP      r0,r1
        0x00001866:    d12a        *.      BNE      0x18be ; image_data_packet_read + 158
        0x00001868:    4a17        .J      LDR      r2,[pc,#92] ; [0x18c8] = 0x100008e4
        0x0000186a:    6891        .h      LDR      r1,[r2,#8]
        0x0000186c:    6850        Ph      LDR      r0,[r2,#4]
        0x0000186e:    4a19        .J      LDR      r2,[pc,#100] ; [0x18d4] = 0x10000028
        0x00001870:    f7fefdf0    ....    BL       am_bootloader_partial_crc32 ; 0x454
        0x00001874:    4814        .H      LDR      r0,[pc,#80] ; [0x18c8] = 0x100008e4
        0x00001876:    7b00        .{      LDRB     r0,[r0,#0xc]
        0x00001878:    b920         .      CBNZ     r0,0x1884 ; image_data_packet_read + 100
        0x0000187a:    4814        .H      LDR      r0,[pc,#80] ; [0x18cc] = 0x10000024
        0x0000187c:    6800        .h      LDR      r0,[r0,#0]
        0x0000187e:    f5b06f00    ...o    CMP      r0,#0x800
        0x00001882:    d808        ..      BHI      0x1896 ; image_data_packet_read + 118
        0x00001884:    4810        .H      LDR      r0,[pc,#64] ; [0x18c8] = 0x100008e4
        0x00001886:    6840        @h      LDR      r0,[r0,#4]
        0x00001888:    6800        .h      LDR      r0,[r0,#0]
        0x0000188a:    4911        .I      LDR      r1,[pc,#68] ; [0x18d0] = 0x1000002c
        0x0000188c:    6148        Ha      STR      r0,[r1,#0x14]
        0x0000188e:    480e        .H      LDR      r0,[pc,#56] ; [0x18c8] = 0x100008e4
        0x00001890:    6840        @h      LDR      r0,[r0,#4]
        0x00001892:    6840        @h      LDR      r0,[r0,#4]
        0x00001894:    6188        .a      STR      r0,[r1,#0x18]
        0x00001896:    480c        .H      LDR      r0,[pc,#48] ; [0x18c8] = 0x100008e4
        0x00001898:    7b00        .{      LDRB     r0,[r0,#0xc]
        0x0000189a:    b980        ..      CBNZ     r0,0x18be ; image_data_packet_read + 158
        0x0000189c:    4b0a        .K      LDR      r3,[pc,#40] ; [0x18c8] = 0x100008e4
        0x0000189e:    689a        .h      LDR      r2,[r3,#8]
        0x000018a0:    6859        Yh      LDR      r1,[r3,#4]
        0x000018a2:    6918        .i      LDR      r0,[r3,#0x10]
        0x000018a4:    f7fefdec    ....    BL       am_bootloader_program_flash_page ; 0x480
        0x000018a8:    4807        .H      LDR      r0,[pc,#28] ; [0x18c8] = 0x100008e4
        0x000018aa:    6900        .i      LDR      r0,[r0,#0x10]
        0x000018ac:    4906        .I      LDR      r1,[pc,#24] ; [0x18c8] = 0x100008e4
        0x000018ae:    6889        .h      LDR      r1,[r1,#8]
        0x000018b0:    0889        ..      LSRS     r1,r1,#2
        0x000018b2:    eb000081    ....    ADD      r0,r0,r1,LSL #2
        0x000018b6:    4904        .I      LDR      r1,[pc,#16] ; [0x18c8] = 0x100008e4
        0x000018b8:    6108        .a      STR      r0,[r1,#0x10]
        0x000018ba:    2000        .       MOVS     r0,#0
        0x000018bc:    6088        .`      STR      r0,[r1,#8]
        0x000018be:    1c76        v.      ADDS     r6,r6,#1
        0x000018c0:    42ae        .B      CMP      r6,r5
        0x000018c2:    d3b2        ..      BCC      0x182a ; image_data_packet_read + 10
        0x000018c4:    bd70        p.      POP      {r4-r6,pc}
    $d
        0x000018c6:    0000        ..      DCW    0
        0x000018c8:    100008e4    ....    DCD    268437732
        0x000018cc:    10000024    $...    DCD    268435492
        0x000018d0:    1000002c    ,...    DCD    268435500
        0x000018d4:    10000028    (...    DCD    268435496
    $t
    i.image_start_packet_read
    image_start_packet_read
        0x000018d8:    b530        0.      PUSH     {r4,r5,lr}
        0x000018da:    b08d        ..      SUB      sp,sp,#0x34
        0x000018dc:    4604        .F      MOV      r4,r0
        0x000018de:    460d        .F      MOV      r5,r1
        0x000018e0:    a801        ..      ADD      r0,sp,#4
        0x000018e2:    f7fff859    ..Y.    BL       am_hal_mcuctrl_device_info_get ; 0x998
        0x000018e6:    6868        hh      LDR      r0,[r5,#4]
        0x000018e8:    6020         `      STR      r0,[r4,#0]
        0x000018ea:    68a8        .h      LDR      r0,[r5,#8]
        0x000018ec:    6060        ``      STR      r0,[r4,#4]
        0x000018ee:    68e8        .h      LDR      r0,[r5,#0xc]
        0x000018f0:    60a0        .`      STR      r0,[r4,#8]
        0x000018f2:    2012        .       MOVS     r0,#0x12
        0x000018f4:    60e0        .`      STR      r0,[r4,#0xc]
        0x000018f6:    2000        .       MOVS     r0,#0
        0x000018f8:    6120         a      STR      r0,[r4,#0x10]
        0x000018fa:    61e0        .a      STR      r0,[r4,#0x1c]
        0x000018fc:    6160        `a      STR      r0,[r4,#0x14]
        0x000018fe:    61a0        .a      STR      r0,[r4,#0x18]
        0x00001900:    e9d40100    ....    LDRD     r0,r1,[r4,#0]
        0x00001904:    f7ffff5a    ..Z.    BL       check_flash_address_range ; 0x17bc
        0x00001908:    b910        ..      CBNZ     r0,0x1910 ; image_start_packet_read + 56
        0x0000190a:    2000        .       MOVS     r0,#0
        0x0000190c:    b00d        ..      ADD      sp,sp,#0x34
        0x0000190e:    bd30        0.      POP      {r4,r5,pc}
        0x00001910:    9808        ..      LDR      r0,[sp,#0x20]
        0x00001912:    f5a040c0    ...@    SUB      r0,r0,#0x6000
        0x00001916:    6861        ah      LDR      r1,[r4,#4]
        0x00001918:    4288        .B      CMP      r0,r1
        0x0000191a:    d305        ..      BCC      0x1928 ; image_start_packet_read + 80
        0x0000191c:    2001        .       MOVS     r0,#1
        0x0000191e:    490e        .I      LDR      r1,[pc,#56] ; [0x1958] = 0x100008e4
        0x00001920:    7308        .s      STRB     r0,[r1,#0xc]
        0x00001922:    480e        .H      LDR      r0,[pc,#56] ; [0x195c] = 0x10006000
        0x00001924:    6048        H`      STR      r0,[r1,#4]
        0x00001926:    e00b        ..      B        0x1940 ; image_start_packet_read + 104
        0x00001928:    2000        .       MOVS     r0,#0
        0x0000192a:    490b        .I      LDR      r1,[pc,#44] ; [0x1958] = 0x100008e4
        0x0000192c:    7308        .s      STRB     r0,[r1,#0xc]
        0x0000192e:    4608        .F      MOV      r0,r1
        0x00001930:    6800        .h      LDR      r0,[r0,#0]
        0x00001932:    b908        ..      CBNZ     r0,0x1938 ; image_start_packet_read + 96
        0x00001934:    2000        .       MOVS     r0,#0
        0x00001936:    e7e9        ..      B        0x190c ; image_start_packet_read + 52
        0x00001938:    4807        .H      LDR      r0,[pc,#28] ; [0x1958] = 0x100008e4
        0x0000193a:    6800        .h      LDR      r0,[r0,#0]
        0x0000193c:    4906        .I      LDR      r1,[pc,#24] ; [0x1958] = 0x100008e4
        0x0000193e:    6048        H`      STR      r0,[r1,#4]
        0x00001940:    4905        .I      LDR      r1,[pc,#20] ; [0x1958] = 0x100008e4
        0x00001942:    6820         h      LDR      r0,[r4,#0]
        0x00001944:    6108        .a      STR      r0,[r1,#0x10]
        0x00001946:    2000        .       MOVS     r0,#0
        0x00001948:    4905        .I      LDR      r1,[pc,#20] ; [0x1960] = 0x10000024
        0x0000194a:    6008        .`      STR      r0,[r1,#0]
        0x0000194c:    4902        .I      LDR      r1,[pc,#8] ; [0x1958] = 0x100008e4
        0x0000194e:    6088        .`      STR      r0,[r1,#8]
        0x00001950:    4904        .I      LDR      r1,[pc,#16] ; [0x1964] = 0x10000028
        0x00001952:    6008        .`      STR      r0,[r1,#0]
        0x00001954:    2001        .       MOVS     r0,#1
        0x00001956:    e7d9        ..      B        0x190c ; image_start_packet_read + 52
    $d
        0x00001958:    100008e4    ....    DCD    268437732
        0x0000195c:    10006000    .`..    DCD    268460032
        0x00001960:    10000024    $...    DCD    268435492
        0x00001964:    10000028    (...    DCD    268435496
    $t
    i.invalidate_ota
    invalidate_ota
        0x00001968:    b538        8.      PUSH     {r3-r5,lr}
        0x0000196a:    4605        .F      MOV      r5,r0
        0x0000196c:    f44f40c2    O..@    MOV      r0,#0x6100
        0x00001970:    6804        .h      LDR      r4,[r0,#0]
        0x00001972:    43e0        .C      MVNS     r0,r4
        0x00001974:    9000        ..      STR      r0,[sp,#0]
        0x00001976:    2201        ."      MOVS     r2,#1
        0x00001978:    4669        iF      MOV      r1,sp
        0x0000197a:    f44f40c2    O..@    MOV      r0,#0x6100
        0x0000197e:    f7fefdaf    ....    BL       am_bootloader_write_flash_within_page ; 0x4e0
        0x00001982:    bd38        8.      POP      {r3-r5,pc}
    i.main
    main
        0x00001984:    b50e        ..      PUSH     {r1-r3,lr}
        0x00001986:    2000        .       MOVS     r0,#0
        0x00001988:    9001        ..      STR      r0,[sp,#4]
        0x0000198a:    2500        .%      MOVS     r5,#0
        0x0000198c:    f44f40c2    O..@    MOV      r0,#0x6100
        0x00001990:    6804        .h      LDR      r4,[r0,#0]
        0x00001992:    2010        .       MOVS     r0,#0x10
        0x00001994:    497b        {I      LDR      r1,[pc,#492] ; [0x1b84] = 0x40010000
        0x00001996:    f8c10090    ....    STR      r0,[r1,#0x90]
        0x0000199a:    bf00        ..      NOP      
        0x0000199c:    2073        s       MOVS     r0,#0x73
        0x0000199e:    6608        .f      STR      r0,[r1,#0x60]
        0x000019a0:    4608        .F      MOV      r0,r1
        0x000019a2:    6c00        .l      LDR      r0,[r0,#0x40]
        0x000019a4:    f42020e0     ..     BIC      r0,r0,#0x70000
        0x000019a8:    f4403000    @..0    ORR      r0,r0,#0x20000
        0x000019ac:    6408        .d      STR      r0,[r1,#0x40]
        0x000019ae:    4608        .F      MOV      r0,r1
        0x000019b0:    6840        @h      LDR      r0,[r0,#4]
        0x000019b2:    f02000ff     ...    BIC      r0,r0,#0xff
        0x000019b6:    f0400018    @...    ORR      r0,r0,#0x18
        0x000019ba:    6048        H`      STR      r0,[r1,#4]
        0x000019bc:    2000        .       MOVS     r0,#0
        0x000019be:    6608        .f      STR      r0,[r1,#0x60]
        0x000019c0:    bf00        ..      NOP      
        0x000019c2:    a902        ..      ADD      r1,sp,#8
        0x000019c4:    a801        ..      ADD      r0,sp,#4
        0x000019c6:    f7fff929    ..).    BL       am_multiboot_check_boot_from_flash ; 0xc1c
        0x000019ca:    4605        .F      MOV      r5,r0
        0x000019cc:    f89d0004    ....    LDRB     r0,[sp,#4]
        0x000019d0:    bb58        X.      CBNZ     r0,0x1a2a ; main + 166
        0x000019d2:    1c60        `.      ADDS     r0,r4,#1
        0x000019d4:    b190        ..      CBZ      r0,0x19fc ; main + 120
        0x000019d6:    b18c        ..      CBZ      r4,0x19fc ; main + 120
        0x000019d8:    f7fefd98    ....    BL       am_bsp_low_power_init ; 0x50c
        0x000019dc:    2000        .       MOVS     r0,#0
        0x000019de:    f7fefecf    ....    BL       am_hal_clkgen_sysclk_select ; 0x780
        0x000019e2:    2000        .       MOVS     r0,#0
        0x000019e4:    4b68        hK      LDR      r3,[pc,#416] ; [0x1b88] = 0x1969
        0x000019e6:    f44f6200    O..b    MOV      r2,#0x800
        0x000019ea:    4968        hI      LDR      r1,[pc,#416] ; [0x1b8c] = 0x100000e4
        0x000019ec:    9000        ..      STR      r0,[sp,#0]
        0x000019ee:    4620         F      MOV      r0,r4
        0x000019f0:    f7fffad4    ....    BL       am_multiboot_ota_handler ; 0xf9c
        0x000019f4:    b910        ..      CBNZ     r0,0x19fc ; main + 120
        0x000019f6:    b10d        ..      CBZ      r5,0x19fc ; main + 120
        0x000019f8:    f7fff832    ..2.    BL       am_hal_reset_poi ; 0xa60
        0x000019fc:    b1ad        ..      CBZ      r5,0x1a2a ; main + 166
        0x000019fe:    bf00        ..      NOP      
        0x00001a00:    2073        s       MOVS     r0,#0x73
        0x00001a02:    4960        `I      LDR      r1,[pc,#384] ; [0x1b84] = 0x40010000
        0x00001a04:    6608        .f      STR      r0,[r1,#0x60]
        0x00001a06:    4608        .F      MOV      r0,r1
        0x00001a08:    6c00        .l      LDR      r0,[r0,#0x40]
        0x00001a0a:    f42020e0     ..     BIC      r0,r0,#0x70000
        0x00001a0e:    6408        .d      STR      r0,[r1,#0x40]
        0x00001a10:    4608        .F      MOV      r0,r1
        0x00001a12:    6840        @h      LDR      r0,[r0,#4]
        0x00001a14:    f02000ff     ...    BIC      r0,r0,#0xff
        0x00001a18:    f0400018    @...    ORR      r0,r0,#0x18
        0x00001a1c:    6048        H`      STR      r0,[r1,#4]
        0x00001a1e:    2000        .       MOVS     r0,#0
        0x00001a20:    6608        .f      STR      r0,[r1,#0x60]
        0x00001a22:    bf00        ..      NOP      
        0x00001a24:    9802        ..      LDR      r0,[sp,#8]
        0x00001a26:    f7fefd09    ....    BL       am_bootloader_image_run ; 0x43c
        0x00001a2a:    2000        .       MOVS     r0,#0
        0x00001a2c:    f7fefea8    ....    BL       am_hal_clkgen_sysclk_select ; 0x780
        0x00001a30:    f7fefd6c    ..l.    BL       am_bsp_low_power_init ; 0x50c
        0x00001a34:    f44f6100    O..a    MOV      r1,#0x800
        0x00001a38:    4854        TH      LDR      r0,[pc,#336] ; [0x1b8c] = 0x100000e4
        0x00001a3a:    f7fff9a7    ....    BL       am_multiboot_init ; 0xd8c
        0x00001a3e:    f06f407f    o..@    MVN      r0,#0xff000000
        0x00001a42:    f7fff843    ..C.    BL       am_hal_systick_load ; 0xacc
        0x00001a46:    f7fff847    ..G.    BL       am_hal_systick_start ; 0xad8
        0x00001a4a:    2004        .       MOVS     r0,#4
        0x00001a4c:    f7fffb3e    ..>.    BL       am_multiboot_setup_ios_interface ; 0x10cc
        0x00001a50:    e002        ..      B        0x1a58 ; main + 212
        0x00001a52:    2001        .       MOVS     r0,#1
        0x00001a54:    f7fffea3    ....    BL       am_util_delay_ms ; 0x179e
        0x00001a58:    484d        MH      LDR      r0,[pc,#308] ; [0x1b90] = 0x10000000
        0x00001a5a:    7800        .x      LDRB     r0,[r0,#0]
        0x00001a5c:    2800        .(      CMP      r0,#0
        0x00001a5e:    d1f8        ..      BNE      0x1a52 ; main + 206
        0x00001a60:    f7fff830    ..0.    BL       am_hal_systick_count ; 0xac4
        0x00001a64:    494b        KI      LDR      r1,[pc,#300] ; [0x1b94] = 0xb6c1ff
        0x00001a66:    4288        .B      CMP      r0,r1
        0x00001a68:    d8f3        ..      BHI      0x1a52 ; main + 206
        0x00001a6a:    f7fff90d    ....    BL       am_multiboot_cleanup_ios_interface ; 0xc88
        0x00001a6e:    bf00        ..      NOP      
        0x00001a70:    2073        s       MOVS     r0,#0x73
        0x00001a72:    4944        DI      LDR      r1,[pc,#272] ; [0x1b84] = 0x40010000
        0x00001a74:    6608        .f      STR      r0,[r1,#0x60]
        0x00001a76:    4608        .F      MOV      r0,r1
        0x00001a78:    6c00        .l      LDR      r0,[r0,#0x40]
        0x00001a7a:    f42020e0     ..     BIC      r0,r0,#0x70000
        0x00001a7e:    6408        .d      STR      r0,[r1,#0x40]
        0x00001a80:    4608        .F      MOV      r0,r1
        0x00001a82:    6840        @h      LDR      r0,[r0,#4]
        0x00001a84:    f02000ff     ...    BIC      r0,r0,#0xff
        0x00001a88:    f0400018    @...    ORR      r0,r0,#0x18
        0x00001a8c:    6048        H`      STR      r0,[r1,#4]
        0x00001a8e:    2000        .       MOVS     r0,#0
        0x00001a90:    6608        .f      STR      r0,[r1,#0x60]
        0x00001a92:    bf00        ..      NOP      
        0x00001a94:    f7fff827    ..'.    BL       am_hal_systick_stop ; 0xae6
        0x00001a98:    f06f407f    o..@    MVN      r0,#0xff000000
        0x00001a9c:    f7fff816    ....    BL       am_hal_systick_load ; 0xacc
        0x00001aa0:    f7fff81a    ....    BL       am_hal_systick_start ; 0xad8
        0x00001aa4:    bf00        ..      NOP      
        0x00001aa6:    2073        s       MOVS     r0,#0x73
        0x00001aa8:    4936        6I      LDR      r1,[pc,#216] ; [0x1b84] = 0x40010000
        0x00001aaa:    6608        .f      STR      r0,[r1,#0x60]
        0x00001aac:    4608        .F      MOV      r0,r1
        0x00001aae:    6d00        .m      LDR      r0,[r0,#0x50]
        0x00001ab0:    f42020e0     ..     BIC      r0,r0,#0x70000
        0x00001ab4:    6508        .e      STR      r0,[r1,#0x50]
        0x00001ab6:    4608        .F      MOV      r0,r1
        0x00001ab8:    6a40        @j      LDR      r0,[r0,#0x24]
        0x00001aba:    f02000ff     ...    BIC      r0,r0,#0xff
        0x00001abe:    f040001a    @...    ORR      r0,r0,#0x1a
        0x00001ac2:    6248        Hb      STR      r0,[r1,#0x24]
        0x00001ac4:    2000        .       MOVS     r0,#0
        0x00001ac6:    6608        .f      STR      r0,[r1,#0x60]
        0x00001ac8:    bf00        ..      NOP      
        0x00001aca:    bf00        ..      NOP      
        0x00001acc:    2073        s       MOVS     r0,#0x73
        0x00001ace:    6608        .f      STR      r0,[r1,#0x60]
        0x00001ad0:    4608        .F      MOV      r0,r1
        0x00001ad2:    6d00        .m      LDR      r0,[r0,#0x50]
        0x00001ad4:    f4402000    @..     ORR      r0,r0,#0x80000
        0x00001ad8:    6508        .e      STR      r0,[r1,#0x50]
        0x00001ada:    2000        .       MOVS     r0,#0
        0x00001adc:    6608        .f      STR      r0,[r1,#0x60]
        0x00001ade:    bf00        ..      NOP      
        0x00001ae0:    2110        .!      MOVS     r1,#0x10
        0x00001ae2:    f7fefe5f    .._.    BL       am_hal_gpio_int_clear ; 0x7a4
        0x00001ae6:    2000        .       MOVS     r0,#0
        0x00001ae8:    2110        .!      MOVS     r1,#0x10
        0x00001aea:    f7fefe73    ..s.    BL       am_hal_gpio_int_enable ; 0x7d4
        0x00001aee:    2019        .       MOVS     r0,#0x19
        0x00001af0:    f7fefea4    ....    BL       am_hal_interrupt_enable ; 0x83c
        0x00001af4:    f7fefb38    ..8.    BL       am_hal_interrupt_master_enable ; 0x168
        0x00001af8:    e011        ..      B        0x1b1e ; main + 410
        0x00001afa:    f7fefb39    ..9.    BL       am_hal_interrupt_master_disable ; 0x170
        0x00001afe:    4606        .F      MOV      r6,r0
        0x00001b00:    4825        %H      LDR      r0,[pc,#148] ; [0x1b98] = 0x10000001
        0x00001b02:    7800        .x      LDRB     r0,[r0,#0]
        0x00001b04:    b930        0.      CBNZ     r0,0x1b14 ; main + 400
        0x00001b06:    2000        .       MOVS     r0,#0
        0x00001b08:    f7feffc2    ....    BL       am_hal_sysctrl_sleep ; 0xa90
        0x00001b0c:    4630        0F      MOV      r0,r6
        0x00001b0e:    f7fefb33    ..3.    BL       am_hal_interrupt_master_set ; 0x178
        0x00001b12:    e003        ..      B        0x1b1c ; main + 408
        0x00001b14:    4630        0F      MOV      r0,r6
        0x00001b16:    f7fefb2f    ../.    BL       am_hal_interrupt_master_set ; 0x178
        0x00001b1a:    e001        ..      B        0x1b20 ; main + 412
        0x00001b1c:    bf00        ..      NOP      
        0x00001b1e:    e7ec        ..      B        0x1afa ; main + 374
        0x00001b20:    bf00        ..      NOP      
        0x00001b22:    2000        .       MOVS     r0,#0
        0x00001b24:    2110        .!      MOVS     r1,#0x10
        0x00001b26:    f7fefe45    ..E.    BL       am_hal_gpio_int_disable ; 0x7b4
        0x00001b2a:    2019        .       MOVS     r0,#0x19
        0x00001b2c:    f7fefe60    ..`.    BL       am_hal_interrupt_disable ; 0x7f0
        0x00001b30:    bf00        ..      NOP      
        0x00001b32:    2073        s       MOVS     r0,#0x73
        0x00001b34:    4913        .I      LDR      r1,[pc,#76] ; [0x1b84] = 0x40010000
        0x00001b36:    6608        .f      STR      r0,[r1,#0x60]
        0x00001b38:    4608        .F      MOV      r0,r1
        0x00001b3a:    6d00        .m      LDR      r0,[r0,#0x50]
        0x00001b3c:    f42040e0     ..@    BIC      r0,r0,#0x7000
        0x00001b40:    6508        .e      STR      r0,[r1,#0x50]
        0x00001b42:    4608        .F      MOV      r0,r1
        0x00001b44:    6a00        .j      LDR      r0,[r0,#0x20]
        0x00001b46:    f020407f     ..@    BIC      r0,r0,#0xff000000
        0x00001b4a:    f0405080    @..P    ORR      r0,r0,#0x10000000
        0x00001b4e:    6208        .b      STR      r0,[r1,#0x20]
        0x00001b50:    2000        .       MOVS     r0,#0
        0x00001b52:    6608        .f      STR      r0,[r1,#0x60]
        0x00001b54:    bf00        ..      NOP      
        0x00001b56:    bf00        ..      NOP      
        0x00001b58:    2073        s       MOVS     r0,#0x73
        0x00001b5a:    6608        .f      STR      r0,[r1,#0x60]
        0x00001b5c:    4608        .F      MOV      r0,r1
        0x00001b5e:    6d00        .m      LDR      r0,[r0,#0x50]
        0x00001b60:    f42020e0     ..     BIC      r0,r0,#0x70000
        0x00001b64:    6508        .e      STR      r0,[r1,#0x50]
        0x00001b66:    4608        .F      MOV      r0,r1
        0x00001b68:    6a40        @j      LDR      r0,[r0,#0x24]
        0x00001b6a:    f02000ff     ...    BIC      r0,r0,#0xff
        0x00001b6e:    f0400012    @...    ORR      r0,r0,#0x12
        0x00001b72:    6248        Hb      STR      r0,[r1,#0x24]
        0x00001b74:    2000        .       MOVS     r0,#0
        0x00001b76:    6608        .f      STR      r0,[r1,#0x60]
        0x00001b78:    bf00        ..      NOP      
        0x00001b7a:    f7fefaf5    ....    BL       am_hal_interrupt_master_enable ; 0x168
        0x00001b7e:    bf00        ..      NOP      
        0x00001b80:    e7fe        ..      B        0x1b80 ; main + 508
    $d
        0x00001b82:    0000        ..      DCW    0
        0x00001b84:    40010000    ...@    DCD    1073807360
        0x00001b88:    00001969    i...    DCD    6505
        0x00001b8c:    100000e4    ....    DCD    268435684
        0x00001b90:    10000000    ....    DCD    268435456
        0x00001b94:    00b6c1ff    ....    DCD    11977215
        0x00001b98:    10000001    ....    DCD    268435457
    $t
    i.program_image
    program_image
        0x00001b9c:    e92d41f0    -..A    PUSH     {r4-r8,lr}
        0x00001ba0:    4607        .F      MOV      r7,r0
        0x00001ba2:    4811        .H      LDR      r0,[pc,#68] ; [0x1be8] = 0x100008e4
        0x00001ba4:    6905        .i      LDR      r5,[r0,#0x10]
        0x00001ba6:    6846        Fh      LDR      r6,[r0,#4]
        0x00001ba8:    6884        .h      LDR      r4,[r0,#8]
        0x00001baa:    7b00        .{      LDRB     r0,[r0,#0xc]
        0x00001bac:    b1d0        ..      CBZ      r0,0x1be4 ; program_image + 72
        0x00001bae:    e016        ..      B        0x1bde ; program_image + 66
        0x00001bb0:    f5b46f00    ...o    CMP      r4,#0x800
        0x00001bb4:    d902        ..      BLS      0x1bbc ; program_image + 32
        0x00001bb6:    f44f6000    O..`    MOV      r0,#0x800
        0x00001bba:    e000        ..      B        0x1bbe ; program_image + 34
        0x00001bbc:    4620         F      MOV      r0,r4
        0x00001bbe:    4602        .F      MOV      r2,r0
        0x00001bc0:    4631        1F      MOV      r1,r6
        0x00001bc2:    4628        (F      MOV      r0,r5
        0x00001bc4:    f7fefc5c    ..\.    BL       am_bootloader_program_flash_page ; 0x480
        0x00001bc8:    f5b46f00    ...o    CMP      r4,#0x800
        0x00001bcc:    d906        ..      BLS      0x1bdc ; program_image + 64
        0x00001bce:    f5a46400    ...d    SUB      r4,r4,#0x800
        0x00001bd2:    f5056500    ...e    ADD      r5,r5,#0x800
        0x00001bd6:    f5066600    ...f    ADD      r6,r6,#0x800
        0x00001bda:    e000        ..      B        0x1bde ; program_image + 66
        0x00001bdc:    e001        ..      B        0x1be2 ; program_image + 70
        0x00001bde:    2c00        .,      CMP      r4,#0
        0x00001be0:    d1e6        ..      BNE      0x1bb0 ; program_image + 20
        0x00001be2:    bf00        ..      NOP      
        0x00001be4:    e8bd81f0    ....    POP      {r4-r8,pc}
    $d
        0x00001be8:    100008e4    ....    DCD    268437732
    $t
    i.program_image_from_flash
    program_image_from_flash
        0x00001bec:    e92d5ff0    -.._    PUSH     {r4-r12,lr}
        0x00001bf0:    4680        .F      MOV      r8,r0
        0x00001bf2:    4689        .F      MOV      r9,r1
        0x00001bf4:    4617        .F      MOV      r7,r2
        0x00001bf6:    e9ddb40a    ....    LDRD     r11,r4,[sp,#0x28]
        0x00001bfa:    4826        &H      LDR      r0,[pc,#152] ; [0x1c94] = 0x1000007c
        0x00001bfc:    f8d0a000    ....    LDR      r10,[r0,#0]
        0x00001c00:    6860        `h      LDR      r0,[r4,#4]
        0x00001c02:    1e40        @.      SUBS     r0,r0,#1
        0x00001c04:    ea000608    ....    AND      r6,r0,r8
        0x00001c08:    b156        V.      CBZ      r6,0x1c20 ; program_image_from_flash + 52
        0x00001c0a:    6860        `h      LDR      r0,[r4,#4]
        0x00001c0c:    1e40        @.      SUBS     r0,r0,#1
        0x00001c0e:    ea280800    (...    BIC      r8,r8,r0
        0x00001c12:    4623        #F      MOV      r3,r4
        0x00001c14:    4632        2F      MOV      r2,r6
        0x00001c16:    4641        AF      MOV      r1,r8
        0x00001c18:    481e        .H      LDR      r0,[pc,#120] ; [0x1c94] = 0x1000007c
        0x00001c1a:    6800        .h      LDR      r0,[r0,#0]
        0x00001c1c:    f000f83c    ..<.    BL       read_from_flash ; 0x1c98
        0x00001c20:    e034        4.      B        0x1c8c ; program_image_from_flash + 160
        0x00001c22:    08b0        ..      LSRS     r0,r6,#2
        0x00001c24:    491b        .I      LDR      r1,[pc,#108] ; [0x1c94] = 0x1000007c
        0x00001c26:    6809        .h      LDR      r1,[r1,#0]
        0x00001c28:    eb010a80    ....    ADD      r10,r1,r0,LSL #2
        0x00001c2c:    19f0        ..      ADDS     r0,r6,r7
        0x00001c2e:    6861        ah      LDR      r1,[r4,#4]
        0x00001c30:    4288        .B      CMP      r0,r1
        0x00001c32:    d902        ..      BLS      0x1c3a ; program_image_from_flash + 78
        0x00001c34:    6860        `h      LDR      r0,[r4,#4]
        0x00001c36:    1b85        ..      SUBS     r5,r0,r6
        0x00001c38:    e011        ..      B        0x1c5e ; program_image_from_flash + 114
        0x00001c3a:    463d        =F      MOV      r5,r7
        0x00001c3c:    19a8        ..      ADDS     r0,r5,r6
        0x00001c3e:    6861        ah      LDR      r1,[r4,#4]
        0x00001c40:    4288        .B      CMP      r0,r1
        0x00001c42:    d00c        ..      BEQ      0x1c5e ; program_image_from_flash + 114
        0x00001c44:    eb050c06    ....    ADD      r12,r5,r6
        0x00001c48:    6863        ch      LDR      r3,[r4,#4]
        0x00001c4a:    eba3020c    ....    SUB      r2,r3,r12
        0x00001c4e:    08ab        ..      LSRS     r3,r5,#2
        0x00001c50:    eb090183    ....    ADD      r1,r9,r3,LSL #2
        0x00001c54:    eb0a0005    ....    ADD      r0,r10,r5
        0x00001c58:    4623        #F      MOV      r3,r4
        0x00001c5a:    f000f81d    ....    BL       read_from_flash ; 0x1c98
        0x00001c5e:    465b        [F      MOV      r3,r11
        0x00001c60:    462a        *F      MOV      r2,r5
        0x00001c62:    4649        IF      MOV      r1,r9
        0x00001c64:    4650        PF      MOV      r0,r10
        0x00001c66:    f000f817    ....    BL       read_from_flash ; 0x1c98
        0x00001c6a:    4640        @F      MOV      r0,r8
        0x00001c6c:    6a21        !j      LDR      r1,[r4,#0x20]
        0x00001c6e:    4788        .G      BLX      r1
        0x00001c70:    4623        #F      MOV      r3,r4
        0x00001c72:    4808        .H      LDR      r0,[pc,#32] ; [0x1c94] = 0x1000007c
        0x00001c74:    6862        bh      LDR      r2,[r4,#4]
        0x00001c76:    6801        .h      LDR      r1,[r0,#0]
        0x00001c78:    4640        @F      MOV      r0,r8
        0x00001c7a:    f000f847    ..G.    BL       write_to_flash ; 0x1d0c
        0x00001c7e:    6860        `h      LDR      r0,[r4,#4]
        0x00001c80:    4480        .D      ADD      r8,r8,r0
        0x00001c82:    08a8        ..      LSRS     r0,r5,#2
        0x00001c84:    eb090980    ....    ADD      r9,r9,r0,LSL #2
        0x00001c88:    1b7f        ..      SUBS     r7,r7,r5
        0x00001c8a:    2600        .&      MOVS     r6,#0
        0x00001c8c:    2f00        ./      CMP      r7,#0
        0x00001c8e:    d1c8        ..      BNE      0x1c22 ; program_image_from_flash + 54
        0x00001c90:    e8bd9ff0    ....    POP      {r4-r12,pc}
    $d
        0x00001c94:    1000007c    |...    DCD    268435580
    $t
    i.read_from_flash
    read_from_flash
        0x00001c98:    e92d47f0    -..G    PUSH     {r4-r10,lr}
        0x00001c9c:    4680        .F      MOV      r8,r0
        0x00001c9e:    460f        .F      MOV      r7,r1
        0x00001ca0:    4615        .F      MOV      r5,r2
        0x00001ca2:    461c        .F      MOV      r4,r3
        0x00001ca4:    6820         h      LDR      r0,[r4,#0]
        0x00001ca6:    1e40        @.      SUBS     r0,r0,#1
        0x00001ca8:    ea000907    ....    AND      r9,r0,r7
        0x00001cac:    e017        ..      B        0x1cde ; read_from_flash + 70
        0x00001cae:    eb090005    ....    ADD      r0,r9,r5
        0x00001cb2:    6821        !h      LDR      r1,[r4,#0]
        0x00001cb4:    4288        .B      CMP      r0,r1
        0x00001cb6:    d903        ..      BLS      0x1cc0 ; read_from_flash + 40
        0x00001cb8:    6820         h      LDR      r0,[r4,#0]
        0x00001cba:    eba00009    ....    SUB      r0,r0,r9
        0x00001cbe:    e000        ..      B        0x1cc2 ; read_from_flash + 42
        0x00001cc0:    4628        (F      MOV      r0,r5
        0x00001cc2:    4606        .F      MOV      r6,r0
        0x00001cc4:    4632        2F      MOV      r2,r6
        0x00001cc6:    4639        9F      MOV      r1,r7
        0x00001cc8:    4640        @F      MOV      r0,r8
        0x00001cca:    69a3        .i      LDR      r3,[r4,#0x18]
        0x00001ccc:    4798        .G      BLX      r3
        0x00001cce:    08b0        ..      LSRS     r0,r6,#2
        0x00001cd0:    eb070780    ....    ADD      r7,r7,r0,LSL #2
        0x00001cd4:    1bad        ..      SUBS     r5,r5,r6
        0x00001cd6:    44b0        .D      ADD      r8,r8,r6
        0x00001cd8:    f04f0900    O...    MOV      r9,#0
        0x00001cdc:    bf00        ..      NOP      
        0x00001cde:    2d00        .-      CMP      r5,#0
        0x00001ce0:    d1e5        ..      BNE      0x1cae ; read_from_flash + 22
        0x00001ce2:    2000        .       MOVS     r0,#0
        0x00001ce4:    e8bd87f0    ....    POP      {r4-r10,pc}
    i.ser_out
    ser_out
        0x00001ce8:    4a07        .J      LDR      r2,[pc,#28] ; [0x1d08] = 0x4001c000
        0x00001cea:    2300        .#      MOVS     r3,#0
        0x00001cec:    fb032200    ..."    MLA      r2,r3,r0,r2
        0x00001cf0:    6011        .`      STR      r1,[r2,#0]
        0x00001cf2:    bf00        ..      NOP      
        0x00001cf4:    4a04        .J      LDR      r2,[pc,#16] ; [0x1d08] = 0x4001c000
        0x00001cf6:    2300        .#      MOVS     r3,#0
        0x00001cf8:    fb032200    ..."    MLA      r2,r3,r0,r2
        0x00001cfc:    6992        .i      LDR      r2,[r2,#0x18]
        0x00001cfe:    f3c21240    ..@.    UBFX     r2,r2,#5,#1
        0x00001d02:    2a00        .*      CMP      r2,#0
        0x00001d04:    d1f6        ..      BNE      0x1cf4 ; ser_out + 12
        0x00001d06:    4770        pG      BX       lr
    $d
        0x00001d08:    4001c000    ...@    DCD    1073856512
    $t
    i.write_to_flash
    write_to_flash
        0x00001d0c:    e92d41f0    -..A    PUSH     {r4-r8,lr}
        0x00001d10:    4606        .F      MOV      r6,r0
        0x00001d12:    4688        .F      MOV      r8,r1
        0x00001d14:    4615        .F      MOV      r5,r2
        0x00001d16:    461c        .F      MOV      r4,r3
        0x00001d18:    6820         h      LDR      r0,[r4,#0]
        0x00001d1a:    1e40        @.      SUBS     r0,r0,#1
        0x00001d1c:    4030        0@      ANDS     r0,r0,r6
        0x00001d1e:    b118        ..      CBZ      r0,0x1d28 ; write_to_flash + 28
        0x00001d20:    f04f30ff    O..0    MOV      r0,#0xffffffff
        0x00001d24:    e8bd81f0    ....    POP      {r4-r8,pc}
        0x00001d28:    e011        ..      B        0x1d4e ; write_to_flash + 66
        0x00001d2a:    6820         h      LDR      r0,[r4,#0]
        0x00001d2c:    42a8        .B      CMP      r0,r5
        0x00001d2e:    d201        ..      BCS      0x1d34 ; write_to_flash + 40
        0x00001d30:    6820         h      LDR      r0,[r4,#0]
        0x00001d32:    e000        ..      B        0x1d36 ; write_to_flash + 42
        0x00001d34:    4628        (F      MOV      r0,r5
        0x00001d36:    4607        .F      MOV      r7,r0
        0x00001d38:    4641        AF      MOV      r1,r8
        0x00001d3a:    4630        0F      MOV      r0,r6
        0x00001d3c:    69e3        .i      LDR      r3,[r4,#0x1c]
        0x00001d3e:    6822        "h      LDR      r2,[r4,#0]
        0x00001d40:    4798        .G      BLX      r3
        0x00001d42:    08b8        ..      LSRS     r0,r7,#2
        0x00001d44:    eb080880    ....    ADD      r8,r8,r0,LSL #2
        0x00001d48:    1bed        ..      SUBS     r5,r5,r7
        0x00001d4a:    443e        >D      ADD      r6,r6,r7
        0x00001d4c:    bf00        ..      NOP      
        0x00001d4e:    2d00        .-      CMP      r5,#0
        0x00001d50:    d1eb        ..      BNE      0x1d2a ; write_to_flash + 30
        0x00001d52:    2000        .       MOVS     r0,#0
        0x00001d54:    e7e6        ..      B        0x1d24 ; write_to_flash + 24
    x$fpl$fpinit
    $v0
    _fp_init
        0x00001d56:    f04f7040    O.@p    MOV      r0,#0x3000000
        0x00001d5a:    eee10a10    ....    VMSR     FPSCR,r0
    __fplib_config_fpu_vfp
    __fplib_config_pureend_doubles
        0x00001d5e:    4770        pG      BX       lr
    $d.realdata
    .constdata
    g_pui32CRC32Table
        0x00001d60:    00000000    ....    DCD    0
        0x00001d64:    1edc6f41    Ao..    DCD    517762881
        0x00001d68:    3db8de82    ...=    DCD    1035525762
        0x00001d6c:    2364b1c3    ..d#    DCD    593801667
        0x00001d70:    7b71bd04    ..q{    DCD    2071051524
        0x00001d74:    65add245    E..e    DCD    1705890373
        0x00001d78:    46c96386    .c.F    DCD    1187603334
        0x00001d7c:    58150cc7    ...X    DCD    1477774535
        0x00001d80:    f6e37a08    .z..    DCD    4142103048
        0x00001d84:    e83f1549    I.?.    DCD    3896448329
        0x00001d88:    cb5ba48a    ..[.    DCD    3411780746
        0x00001d8c:    d587cbcb    ....    DCD    3582446539
        0x00001d90:    8d92c70c    ....    DCD    2375206668
        0x00001d94:    934ea84d    M.N.    DCD    2471405645
        0x00001d98:    b02a198e    ..*.    DCD    2955549070
        0x00001d9c:    aef676cf    .v..    DCD    2935387855
        0x00001da0:    f31a9b51    Q...    DCD    4078607185
        0x00001da4:    edc6f410    ....    DCD    3989238800
        0x00001da8:    cea245d3    .E..    DCD    3466741203
        0x00001dac:    d07e2a92    .*~.    DCD    3497929362
        0x00001db0:    886b2655    U&k.    DCD    2288723541
        0x00001db4:    96b74914    .I..    DCD    2528594196
        0x00001db8:    b5d3f8d7    ....    DCD    3050567895
        0x00001dbc:    ab0f9796    ....    DCD    2869925782
        0x00001dc0:    05f9e159    Y...    DCD    100262233
        0x00001dc4:    1b258e18    ..%.    DCD    455446040
        0x00001dc8:    38413fdb    .?A8    DCD    943800283
        0x00001dcc:    269d509a    .P.&    DCD    647843994
        0x00001dd0:    7e885c5d    ]\.~    DCD    2122865757
        0x00001dd4:    6054331c    .3T`    DCD    1616130844
        0x00001dd8:    433082df    ..0C    DCD    1127252703
        0x00001ddc:    5deced9e    ...]    DCD    1575808414
        0x00001de0:    f8e959e3    .Y..    DCD    4176042467
        0x00001de4:    e63536a2    .65.    DCD    3862247074
        0x00001de8:    c5518761    a.Q.    DCD    3310454625
        0x00001dec:    db8de820     ...    DCD    3683510304
        0x00001df0:    8398e4e7    ....    DCD    2207835367
        0x00001df4:    9d448ba6    ..D.    DCD    2638515110
        0x00001df8:    be203a65    e: .    DCD    3189783141
        0x00001dfc:    a0fc5524    $U..    DCD    2700891428
        0x00001e00:    0e0a23eb    .#..    DCD    235545579
        0x00001e04:    10d64caa    .L..    DCD    282479786
        0x00001e08:    33b2fd69    i..3    DCD    867368297
        0x00001e0c:    2d6e9228    (.n-    DCD    762221096
        0x00001e10:    757b9eef    ..{u    DCD    1971035887
        0x00001e14:    6ba7f1ae    ...k    DCD    1806168494
        0x00001e18:    48c3406d    m@.H    DCD    1220755565
        0x00001e1c:    561f2f2c    ,/.V    DCD    1444884268
        0x00001e20:    0bf3c2b2    ....    DCD    200524466
        0x00001e24:    152fadf3    ../.    DCD    355446259
        0x00001e28:    364b1c30    0.K6    DCD    910892080
        0x00001e2c:    28977371    qs.(    DCD    681014129
        0x00001e30:    70827fb6    ...p    DCD    1887600566
        0x00001e34:    6e5e10f7    ..^n    DCD    1851658487
        0x00001e38:    4d3aa134    4.:M    DCD    1295687988
        0x00001e3c:    53e6ce75    u..S    DCD    1407635061
        0x00001e40:    fd10b8ba    ....    DCD    4245731514
        0x00001e44:    e3ccd7fb    ....    DCD    3821852667
        0x00001e48:    c0a86638    8f..    DCD    3232261688
        0x00001e4c:    de740979    y.t.    DCD    3732146553
        0x00001e50:    866105be    ..a.    DCD    2254505406
        0x00001e54:    98bd6aff    .j..    DCD    2562550527
        0x00001e58:    bbd9db3c    <...    DCD    3151616828
        0x00001e5c:    a505b47d    }...    DCD    2768614525
        0x00001e60:    ef0edc87    ....    DCD    4010728583
        0x00001e64:    f1d2b3c6    ....    DCD    4057117638
        0x00001e68:    d2b60205    ....    DCD    3535143429
        0x00001e6c:    cc6a6d44    Dmj.    DCD    3429526852
        0x00001e70:    947f6183    .a..    DCD    2491376003
        0x00001e74:    8aa30ec2    ....    DCD    2325941954
        0x00001e78:    a9c7bf01    ....    DCD    2848440065
        0x00001e7c:    b71bd040    @...    DCD    3072053312
        0x00001e80:    19eda68f    ....    DCD    435005071
        0x00001e84:    0731c9ce    ..1.    DCD    120703438
        0x00001e88:    2455780d    .xU$    DCD    609581069
        0x00001e8c:    3a89174c    L..:    DCD    982062924
        0x00001e90:    629c1b8b    ...b    DCD    1654397835
        0x00001e94:    7c4074ca    .t@|    DCD    2084598986
        0x00001e98:    5f24c509    ..$_    DCD    1596245257
        0x00001e9c:    41f8aa48    H..A    DCD    1106815560
        0x00001ea0:    1c1447d6    .G..    DCD    471091158
        0x00001ea4:    02c82897    .(..    DCD    46672023
        0x00001ea8:    21ac9954    T..!    DCD    564959572
        0x00001eac:    3f70f615    ..p?    DCD    1064367637
        0x00001eb0:    6765fad2    ..eg    DCD    1734736594
        0x00001eb4:    79b99593    ...y    DCD    2042205587
        0x00001eb8:    5add2450    P$.Z    DCD    1524442192
        0x00001ebc:    44014b11    .K.D    DCD    1140935441
        0x00001ec0:    eaf73dde    .=..    DCD    3942071774
        0x00001ec4:    f42b529f    .R+.    DCD    4096479903
        0x00001ec8:    d74fe35c    \.O.    DCD    3612336988
        0x00001ecc:    c9938c1d    ....    DCD    3381890077
        0x00001ed0:    918680da    ....    DCD    2441511130
        0x00001ed4:    8f5aef9b    ..Z.    DCD    2405101467
        0x00001ed8:    ac3e5e58    X^>.    DCD    2889768536
        0x00001edc:    b2e23119    .1..    DCD    3001168153
        0x00001ee0:    17e78564    d...    DCD    401048932
        0x00001ee4:    093bea25    %.;.    DCD    154921509
        0x00001ee8:    2a5f5be6    .[_*    DCD    710892518
        0x00001eec:    348334a7    .4.4    DCD    881013927
        0x00001ef0:    6c963860    `8.l    DCD    1821784160
        0x00001ef4:    724a5721    !WJr    DCD    1917474593
        0x00001ef8:    512ee6e2    ...Q    DCD    1362028258
        0x00001efc:    4ff289a3    ...O    DCD    1341295011
        0x00001f00:    e104ff6c    l...    DCD    3775201132
        0x00001f04:    ffd8902d    -...    DCD    4292382765
        0x00001f08:    dcbc21ee    .!..    DCD    3703316974
        0x00001f0c:    c2604eaf    .N`.    DCD    3261091503
        0x00001f10:    9a754268    hBu.    DCD    2591375976
        0x00001f14:    84a92d29    )-..    DCD    2225679657
        0x00001f18:    a7cd9cea    ....    DCD    2815270122
        0x00001f1c:    b911f3ab    ....    DCD    3104961451
        0x00001f20:    e4fd1e35    5...    DCD    3841793589
        0x00001f24:    fa217174    tq!.    DCD    4196495732
        0x00001f28:    d945c0b7    ..E.    DCD    3645227191
        0x00001f2c:    c799aff6    ....    DCD    3348738038
        0x00001f30:    9f8ca331    1...    DCD    2676794161
        0x00001f34:    8150cc70    p.P.    DCD    2169556080
        0x00001f38:    a2347db3    .}4.    DCD    2721349043
        0x00001f3c:    bce812f2    ....    DCD    3169325810
        0x00001f40:    121e643d    =d..    DCD    303981629
        0x00001f44:    0cc20b7c    |...    DCD    214043516
        0x00001f48:    2fa6babf    .../    DCD    799455935
        0x00001f4c:    317ad5fe    ..z1    DCD    830133758
        0x00001f50:    696fd939    9.oi    DCD    1768937785
        0x00001f54:    77b3b678    x..w    DCD    2008266360
        0x00001f58:    54d707bb    ...T    DCD    1423378363
        0x00001f5c:    4a0b68fa    .h.J    DCD    1242261754
        0x00001f60:    c0c1d64f    O...    DCD    3233928783
        0x00001f64:    de1db90e    ....    DCD    3726489870
        0x00001f68:    fd7908cd    ..y.    DCD    4252567757
        0x00001f6c:    e3a5678c    .g..    DCD    3819267980
        0x00001f70:    bbb06b4b    Kk..    DCD    3148901195
        0x00001f74:    a56c040a    ..l.    DCD    2775319562
        0x00001f78:    8608b5c9    ....    DCD    2248717769
        0x00001f7c:    98d4da88    ....    DCD    2564086408
        0x00001f80:    3622ac47    G."6    DCD    908241991
        0x00001f84:    28fec306    ...(    DCD    687784710
        0x00001f88:    0b9a72c5    .r..    DCD    194671301
        0x00001f8c:    15461d84    ..F.    DCD    356916612
        0x00001f90:    4d531143    C.SM    DCD    1297289539
        0x00001f94:    538f7e02    .~.S    DCD    1401912834
        0x00001f98:    70ebcfc1    ...p    DCD    1894502337
        0x00001f9c:    6e37a080    ..7n    DCD    1849139328
        0x00001fa0:    33db4d1e    .M.3    DCD    870010142
        0x00001fa4:    2d07225f    _".-    DCD    755442271
        0x00001fa8:    0e63939c    ..c.    DCD    241406876
        0x00001fac:    10bffcdd    ....    DCD    281017565
        0x00001fb0:    48aaf01a    ...H    DCD    1219162138
        0x00001fb4:    56769f5b    [.vV    DCD    1450614619
        0x00001fb8:    75122e98    ...u    DCD    1964125848
        0x00001fbc:    6bce41d9    .A.k    DCD    1808679385
        0x00001fc0:    c5383716    .78.    DCD    3308795670
        0x00001fc4:    dbe45857    WX..    DCD    3689175127
        0x00001fc8:    f880e994    ....    DCD    4169197972
        0x00001fcc:    e65c86d5    ..\.    DCD    3864823509
        0x00001fd0:    be498a12    ..I.    DCD    3192490514
        0x00001fd4:    a095e553    S...    DCD    2694178131
        0x00001fd8:    83f15490    .T..    DCD    2213631120
        0x00001fdc:    9d2d3bd1    .;-.    DCD    2636987345
        0x00001fe0:    38288fac    ..(8    DCD    942182316
        0x00001fe4:    26f4e0ed    ...&    DCD    653582573
        0x00001fe8:    0590512e    .Q..    DCD    93344046
        0x00001fec:    1b4c3e6f    o>L.    DCD    457981551
        0x00001ff0:    435932a8    .2YC    DCD    1129919144
        0x00001ff4:    5d855de9    .].]    DCD    1569021417
        0x00001ff8:    7ee1ec2a    *..~    DCD    2128735274
        0x00001ffc:    603d836b    k.=`    DCD    1614644075
        0x00002000:    cecbf5a4    ....    DCD    3469473188
        0x00002004:    d0179ae5    ....    DCD    3491207909
        0x00002008:    f3732b26    &+s.    DCD    4084411174
        0x0000200c:    edaf4467    gD..    DCD    3987686503
        0x00002010:    b5ba48a0    .H..    DCD    3048884384
        0x00002014:    ab6627e1    .'f.    DCD    2875598817
        0x00002018:    88029622    "...    DCD    2281870882
        0x0000201c:    96def963    c...    DCD    2531195235
        0x00002020:    cb3214fd    ..2.    DCD    3409057021
        0x00002024:    d5ee7bbc    .{..    DCD    3589176252
        0x00002028:    f68aca7f    ....    DCD    4136290943
        0x0000202c:    e856a53e    >.V.    DCD    3897992510
        0x00002030:    b043a9f9    ..C.    DCD    2957224441
        0x00002034:    ae9fc6b8    ....    DCD    2929706680
        0x00002038:    8dfb777b    {w..    DCD    2382067579
        0x0000203c:    9327183a    :.'.    DCD    2468812858
        0x00002040:    3dd16ef5    .n.=    DCD    1037135605
        0x00002044:    230d01b4    ...#    DCD    588054964
        0x00002048:    0069b077    w.i.    DCD    6926455
        0x0000204c:    1eb5df36    6...    DCD    515235638
        0x00002050:    46a0d3f1    ...F    DCD    1184945137
        0x00002054:    587cbcb0    ..|X    DCD    1484569776
        0x00002058:    7b180d73    s..{    DCD    2065173875
        0x0000205c:    65c46232    2b.e    DCD    1707369010
        0x00002060:    2fcf0ac8    .../    DCD    802097864
        0x00002064:    31136589    .e.1    DCD    823354761
        0x00002068:    1277d44a    J.w.    DCD    309843018
        0x0000206c:    0cabbb0b    ....    DCD    212581131
        0x00002070:    54beb7cc    ...T    DCD    1421785036
        0x00002074:    4a62d88d    ..bJ    DCD    1247991949
        0x00002078:    6906694e    Ni.i    DCD    1762027854
        0x0000207c:    77da060f    ...w    DCD    2010777103
        0x00002080:    d92c70c0    .p,.    DCD    3643568320
        0x00002084:    c7f01f81    ....    DCD    3354402689
        0x00002088:    e494ae42    B...    DCD    3834949186
        0x0000208c:    fa48c103    ..H.    DCD    4199072003
        0x00002090:    a25dcdc4    ..].    DCD    2724056516
        0x00002094:    bc81a285    ....    DCD    3162612357
        0x00002098:    9fe51346    F...    DCD    2682590022
        0x0000209c:    81397c07    .|9.    DCD    2168028167
        0x000020a0:    dcd59199    ....    DCD    3704983961
        0x000020a4:    c209fed8    ....    DCD    3255434968
        0x000020a8:    e16d4f1b    .Om.    DCD    3782037275
        0x000020ac:    ffb1205a    Z ..    DCD    4289798234
        0x000020b0:    a7a42c9d    .,..    DCD    2812554397
        0x000020b4:    b97843dc    .Cx.    DCD    3111666652
        0x000020b8:    9a1cf21f    ....    DCD    2585588255
        0x000020bc:    84c09d5e    ^...    DCD    2227215710
        0x000020c0:    2a36eb91    ..6*    DCD    708242321
        0x000020c4:    34ea84d0    ...4    DCD    887784656
        0x000020c8:    178e3513    .5..    DCD    395195667
        0x000020cc:    09525a52    RZR.    DCD    156392018
        0x000020d0:    51475695    .VGQ    DCD    1363629717
        0x000020d4:    4f9b39d4    .9.O    DCD    1335572948
        0x000020d8:    6cff8817    ...l    DCD    1828685847
        0x000020dc:    7223e756    V.#r    DCD    1914955606
        0x000020e0:    d726532b    +S&.    DCD    3609613099
        0x000020e4:    c9fa3c6a    j<..    DCD    3388619882
        0x000020e8:    ea9e8da9    ....    DCD    3936259497
        0x000020ec:    f442e2e8    ..B.    DCD    4098024168
        0x000020f0:    ac57ee2f    /.W.    DCD    2891443759
        0x000020f4:    b28b816e    n...    DCD    2995487086
        0x000020f8:    91ef30ad    .0..    DCD    2448371885
        0x000020fc:    8f335fec    ._3.    DCD    2402508780
        0x00002100:    21c52923    #).!    DCD    566569251
        0x00002104:    3f194662    bF.?    DCD    1058621026
        0x00002108:    1c7df7a1    ..}.    DCD    478017441
        0x0000210c:    02a198e0    ....    DCD    44144864
        0x00002110:    5ab49427    '..Z    DCD    1521783847
        0x00002114:    4468fb66    f.hD    DCD    1147730790
        0x00002118:    670c4aa5    .J.g    DCD    1728858789
        0x0000211c:    79d025e4    .%.y    DCD    2043684324
        0x00002120:    243cc87a    z.<$    DCD    607963258
        0x00002124:    3ae0a73b    ;..:    DCD    987801403
        0x00002128:    198416f8    ....    DCD    428087032
        0x0000212c:    075879b9    .yX.    DCD    123238841
        0x00002130:    5f4d757e    ~uM_    DCD    1598911870
        0x00002134:    41911a3f    ?..A    DCD    1100028479
        0x00002138:    62f5abfc    ...b    DCD    1660267516
        0x0000213c:    7c29c4bd    ..)|    DCD    2083112125
        0x00002140:    d2dfb272    r...    DCD    3537875570
        0x00002144:    cc03dd33    3...    DCD    3422805299
        0x00002148:    ef676cf0    .lg.    DCD    4016532720
        0x0000214c:    f1bb03b1    ....    DCD    4055565233
        0x00002150:    a9ae0f76    v...    DCD    2846756726
        0x00002154:    b7726037    7`r.    DCD    3077726263
        0x00002158:    9416d1f4    ....    DCD    2484523508
        0x0000215c:    8acabeb5    ....    DCD    2328542901
    .constdata
    am_hal_ios_pui8LRAM
        0x00002160:    50000000    ...P    DCD    1342177280
    .constdata
    am_hal_mcuctrl_flash_size
        0x00002164:    00008000    ....    DCD    32768
        0x00002168:    00010000    ....    DCD    65536
        0x0000216c:    00020000    ....    DCD    131072
        0x00002170:    00040000    ....    DCD    262144
        0x00002174:    00080000    ....    DCD    524288
        0x00002178:    00100000    ....    DCD    1048576
        0x0000217c:    00200000    .. .    DCD    2097152
        0x00002180:    00000000    ....    DCD    0
        0x00002184:    00000000    ....    DCD    0
        0x00002188:    00000000    ....    DCD    0
        0x0000218c:    00000000    ....    DCD    0
        0x00002190:    00000000    ....    DCD    0
        0x00002194:    00000000    ....    DCD    0
        0x00002198:    00000000    ....    DCD    0
        0x0000219c:    00000000    ....    DCD    0
        0x000021a0:    00004000    .@..    DCD    16384
    am_hal_mcuctrl_sram_size
        0x000021a4:    00008000    ....    DCD    32768
        0x000021a8:    00010000    ....    DCD    65536
        0x000021ac:    00020000    ....    DCD    131072
        0x000021b0:    00040000    ....    DCD    262144
        0x000021b4:    00080000    ....    DCD    524288
        0x000021b8:    00100000    ....    DCD    1048576
        0x000021bc:    00200000    .. .    DCD    2097152
        0x000021c0:    00000000    ....    DCD    0
        0x000021c4:    00000000    ....    DCD    0
        0x000021c8:    00000000    ....    DCD    0
        0x000021cc:    00000000    ....    DCD    0
        0x000021d0:    00000000    ....    DCD    0
        0x000021d4:    00000000    ....    DCD    0
        0x000021d8:    00000000    ....    DCD    0
        0x000021dc:    00000000    ....    DCD    0
        0x000021e0:    00004000    .@..    DCD    16384
    Region$$Table$$Base
        0x000021e4:    00002204    ."..    DCD    8708
        0x000021e8:    10000000    ....    DCD    268435456
        0x000021ec:    000000e4    ....    DCD    228
        0x000021f0:    000000d4    ....    DCD    212
        0x000021f4:    000022e8    ."..    DCD    8936
        0x000021f8:    100000e4    ....    DCD    268435684
        0x000021fc:    00001a7c    |...    DCD    6780
        0x00002200:    000000f0    ....    DCD    240
    Region$$Table$$Limit

** Section #2 'SRAM' (SHT_PROGBITS) [SHF_ALLOC + SHF_WRITE]
    Size   : 228 bytes (alignment 4)
    Address: 0x10000000

    0x10000000:   00 00 00 00 01 00 00 00 78 00 00 00 78 00 00 00    ........x...x...
    0x10000010:   00 01 00 00 00 00 00 00 00 00 00 00 00 00 00 00    ................
    0x10000020:   00 00 00 00 00 00 00 00 00 00 00 00 00 80 00 00    ................
    0x10000030:   00 00 00 00 00 00 00 00 12 00 00 00 00 00 00 00    ................
    0x10000040:   00 00 00 00 00 00 00 00 00 00 00 00 00 00 00 00    ................
    0x10000050:   00 60 00 00 00 08 00 00 00 08 00 00 00 00 00 00    .`..............
    0x10000060:   00 00 00 00 00 00 00 00 00 00 00 00 3f 0d 00 00    ............?...
    0x10000070:   65 0d 00 00 21 0d 00 00 00 00 00 00 00 00 00 00    e...!...........
    0x10000080:   00 00 00 00 00 c2 01 00 60 00 00 00 00 00 00 00    ........`.......
    0x10000090:   00 00 00 00 00 00 00 00 00 00 00 00 00 00 00 00    ................
    0x100000a0:   00 00 00 00 00 00 00 00 00 00 00 00 00 00 00 00    ................
    0x100000b0:   00 00 00 00 00 00 00 00 00 00 00 00 00 00 00 00    ................
    0x100000c0:   00 00 00 00 00 00 00 00 00 00 00 00 00 00 00 00    ................
    0x100000d0:   00 00 00 00 00 00 00 50 00 00 00 50 00 00 00 50    .......P...P...P
    0x100000e0:   00 00 00 00                                        ....


** Section #3 'SRAM' (SHT_NOBITS) [SHF_ALLOC + SHF_WRITE]
    Size   : 6780 bytes (alignment 8)
    Address: 0x100000e4


** Section #4 '.debug_abbrev' (SHT_PROGBITS)
    Size   : 1476 bytes


** Section #5 '.debug_frame' (SHT_PROGBITS)
    Size   : 3300 bytes


** Section #6 '.debug_info' (SHT_PROGBITS)
    Size   : 22016 bytes


** Section #7 '.debug_line' (SHT_PROGBITS)
    Size   : 9080 bytes


** Section #8 '.debug_loc' (SHT_PROGBITS)
    Size   : 3980 bytes


** Section #9 '.debug_macinfo' (SHT_PROGBITS)
    Size   : 10272 bytes


** Section #10 '.debug_pubnames' (SHT_PROGBITS)
    Size   : 2146 bytes


** Section #11 '.symtab' (SHT_SYMTAB)
    Size   : 9440 bytes (alignment 4)
    String table #12 '.strtab'
    Last local symbol no. 378

    Symbol table .symtab (589 symbols, 378 local)

      #  Symbol Name                Value      Bind  Sec  Type  Vis  Size
    ========================================================================

      1  $d                         0x00000000   Lc    1   --   De 
      2  $t                         0x00000070   Lc    1   --   De 
      3  $d                         0x00000094   Lc    1   --   De 
      4  $t                         0x00000098   Lc    1   --   De 
      5  $d                         0x000000cc   Lc    1   --   De 
      6  $t                         0x000000d4   Lc    1   --   De 
      7  $d                         0x0000018a   Lc    1   --   De 
      8  $t                         0x00000198   Lc    1   --   De 
      9  $d                         0x00000314   Lc    1   --   De 
     10  $t                         0x00000318   Lc    1   --   De 
     11  $d                         0x00000320   Lc    1   --   De 
     12  $t                         0x00000324   Lc    1   --   De 
     13  $d                         0x00000350   Lc    1   --   De 
     14  $t                         0x00000354   Lc    1   --   De 
     15  $d                         0x0000037a   Lc    1   --   De 
     16  $t                         0x00000380   Lc    1   --   De 
     17  $d                         0x000003cc   Lc    1   --   De 
     18  $t                         0x000003d0   Lc    1   --   De 
     19  $d                         0x0000047c   Lc    1   --   De 
     20  $t                         0x00000480   Lc    1   --   De 
     21  $d                         0x000004b0   Lc    1   --   De 
     22  $t                         0x000004b4   Lc    1   --   De 
     23  $d                         0x00000506   Lc    1   --   De 
     24  $t                         0x0000050c   Lc    1   --   De 
     25  $d                         0x00000552   Lc    1   --   De 
     26  $t                         0x00000558   Lc    1   --   De 
     27  $d                         0x00000708   Lc    1   --   De 
     28  $t                         0x0000070c   Lc    1   --   De 
     29  $d                         0x00000732   Lc    1   --   De 
     30  $t                         0x0000073a   Lc    1   --   De 
     31  $d                         0x00000760   Lc    1   --   De 
     32  $t                         0x00000780   Lc    1   --   De 
     33  $d                         0x00000794   Lc    1   --   De 
     34  $t                         0x00000798   Lc    1   --   De 
     35  $d                         0x0000079e   Lc    1   --   De 
     36  $t                         0x000007a4   Lc    1   --   De 
     37  $d                         0x000007b0   Lc    1   --   De 
     38  $t                         0x000007b4   Lc    1   --   De 
     39  $d                         0x000007d0   Lc    1   --   De 
     40  $t                         0x000007d4   Lc    1   --   De 
     41  $d                         0x000007ec   Lc    1   --   De 
     42  $t                         0x000007f0   Lc    1   --   De 
     43  $d                         0x00000836   Lc    1   --   De 
     44  $t                         0x0000083c   Lc    1   --   De 
     45  $d                         0x00000882   Lc    1   --   De 
     46  $t                         0x00000888   Lc    1   --   De 
     47  $d                         0x0000093e   Lc    1   --   De 
     48  $t                         0x00000944   Lc    1   --   De 
     49  $d                         0x0000096c   Lc    1   --   De 
     50  $t                         0x00000970   Lc    1   --   De 
     51  $d                         0x00000994   Lc    1   --   De 
     52  $t                         0x00000998   Lc    1   --   De 
     53  $d                         0x00000a40   Lc    1   --   De 
     54  $t                         0x00000a60   Lc    1   --   De 
     55  $d                         0x00000abc   Lc    1   --   De 
     56  $t                         0x00000ac4   Lc    1   --   De 
     57  $d                         0x00000b02   Lc    1   --   De 
     58  $t                         0x00000b08   Lc    1   --   De 
     59  $d                         0x00000b28   Lc    1   --   De 
     60  $t                         0x00000b2c   Lc    1   --   De 
     61  $d                         0x00000b90   Lc    1   --   De 
     62  $t                         0x00000b94   Lc    1   --   De 
     63  $d                         0x00000ba4   Lc    1   --   De 
     64  $t                         0x00000ba8   Lc    1   --   De 
     65  $d                         0x00000bb6   Lc    1   --   De 
     66  $t                         0x00000bbc   Lc    1   --   De 
     67  $d                         0x00000bca   Lc    1   --   De 
     68  $t                         0x00000bd0   Lc    1   --   De 
     69  $d                         0x00000bd6   Lc    1   --   De 
     70  $t                         0x00000bdc   Lc    1   --   De 
     71  $d                         0x00000be6   Lc    1   --   De 
     72  $t                         0x00000bec   Lc    1   --   De 
     73  $d                         0x00000bf8   Lc    1   --   De 
     74  $t                         0x00000bfc   Lc    1   --   De 
     75  $d                         0x00000c04   Lc    1   --   De 
     76  $t                         0x00000c08   Lc    1   --   De 
     77  $d                         0x00000c16   Lc    1   --   De 
     78  $t                         0x00000c1c   Lc    1   --   De 
     79  $d                         0x00000c7e   Lc    1   --   De 
     80  $t                         0x00000c88   Lc    1   --   De 
     81  $d                         0x00000d1c   Lc    1   --   De 
     82  $t                         0x00000d20   Lc    1   --   De 
     83  $d                         0x00000da0   Lc    1   --   De 
     84  $t                         0x00000da4   Lc    1   --   De 
     85  $d                         0x00000de8   Lc    1   --   De 
     86  $t                         0x00000df2   Lc    1   --   De 
     87  $d                         0x00000f80   Lc    1   --   De 
     88  $t                         0x00000f9c   Lc    1   --   De 
     89  $d                         0x000010b8   Lc    1   --   De 
     90  $t                         0x000010cc   Lc    1   --   De 
     91  $d                         0x000012ea   Lc    1   --   De 
     92  $t                         0x000012fc   Lc    1   --   De 
     93  $d                         0x00001364   Lc    1   --   De 
     94  $t                         0x00001384   Lc    1   --   De 
     95  $d                         0x000014e8   Lc    1   --   De 
     96  $t                         0x000014f0   Lc    1   --   De 
     97  $d                         0x0000157c   Lc    1   --   De 
     98  $t                         0x00001586   Lc    1   --   De 
     99  $d                         0x0000160e   Lc    1   --   De 
    100  $t                         0x00001618   Lc    1   --   De 
    101  $d                         0x00001754   Lc    1   --   De 
    102  $t                         0x00001794   Lc    1   --   De 
    103  $d                         0x0000181a   Lc    1   --   De 
    104  $t                         0x00001820   Lc    1   --   De 
    105  $d                         0x000018c6   Lc    1   --   De 
    106  $t                         0x000018d8   Lc    1   --   De 
    107  $d                         0x00001958   Lc    1   --   De 
    108  $t                         0x00001968   Lc    1   --   De 
    109  $d                         0x00001b82   Lc    1   --   De 
    110  $t                         0x00001b9c   Lc    1   --   De 
    111  $d                         0x00001be8   Lc    1   --   De 
    112  $t                         0x00001bec   Lc    1   --   De 
    113  $d                         0x00001c94   Lc    1   --   De 
    114  $t                         0x00001c98   Lc    1   --   De 
    115  $d                         0x00001d08   Lc    1   --   De 
    116  $t                         0x00001d0c   Lc    1   --   De 
    117  $d.realdata                0x00001d60   Lc    1   --   De 
    118  $d.realdata                0x10000000   Lc    2   --   De 
    119  ../src/extflash.c          0x00000000   Lc  Abs  File  De 
    120  ../src/multi_boot.c        0x00000000   Lc  Abs  File  De 
    121  i.am_gpio_isr              0x00000530   Lc    1  Sect  De 
    122  i.am_ioslave_acc_isr       0x00000c08   Lc    1  Sect  De 
    123  i.am_uart_isr              0x00001794   Lc    1  Sect  De 
    124  i.invalidate_ota           0x00001968   Lc    1  Sect  De 
    125  i.main                     0x00001984   Lc    1  Sect  De 
    126  .bss                       0x100000e4   Lc    3  Sect  De   0x800
    127  .data                      0x10000000   Lc    2  Sect  De   0x2
    128  ../../../../../devices/am_devices_spiflash.c
                                    0x00000000   Lc  Abs  File  De 
    129  ../../../../../utils/am_util_delay.c
                                    0x00000000   Lc  Abs  File  De 
    130  i.am_util_delay_ms         0x0000179e   Lc    1  Sect  De 
    131  ../../../../../utils/am_util_stdio.c
                                    0x00000000   Lc  Abs  File  De 
    132  ..\..\..\..\..\bootloader\am_bootloader.c
                                    0x00000000   Lc  Abs  File  De 
    133  .emb_text                  0x00000138   Lc    1  Sect  De   0x28
    134  $v0                        0x00000138   Lc    1   --   De 
    135  ../../../../../bootloader/am_bootloader.c
                                    0x00000000   Lc  Abs  File  De 
    136  i.am_bootloader_erase_flash_page
                                    0x00000328   Lc    1  Sect  De 
    137  i.am_bootloader_fast_crc32 0x00000354   Lc    1  Sect  De 
    138  i.am_bootloader_flag_page_update
                                    0x00000380   Lc    1  Sect  De 
    139  i.am_bootloader_flash_check
                                    0x000003d0   Lc    1  Sect  De 
    140  i.am_bootloader_image_run  0x0000043c   Lc    1  Sect  De 
    141  i.am_bootloader_partial_crc32
                                    0x00000454   Lc    1  Sect  De 
    142  i.am_bootloader_program_flash_page
                                    0x00000480   Lc    1  Sect  De 
    143  i.am_bootloader_validate_structure
                                    0x000004b4   Lc    1  Sect  De 
    144  i.am_bootloader_write_flash_within_page
                                    0x000004e0   Lc    1  Sect  De 
    145  i.am_hal_bootloader_override_check
                                    0x00000558   Lc    1  Sect  De 
    146  .constdata                 0x00001d60   Lc    1  Sect  De   0x400
    147  g_pui32CRC32Table          0x00001d60   Lc    1  Data  De   0x400
    148  ../../../../../bootloader/am_ios_boot_handlers.c
                                    0x00000000   Lc  Abs  File  De 
    149  i.am_multiboot_cleanup_ios_interface
                                    0x00000c88   Lc    1  Sect  De 
    150  i.am_multiboot_ios_acc_isr_handler
                                    0x00000da4   Lc    1  Sect  De 
    151  i.am_multiboot_setup_ios_interface
                                    0x000010cc   Lc    1  Sect  De 
    152  .data                      0x10000004   Lc    2  Sect  De   0x1d
    153  g_sIOSConfig               0x10000004   Lc    2  Data  De   0x18
    154  g_iosIntPin                0x1000001c   Lc    2  Data  De   0x4
    155  g_bIosImageValid           0x10000020   Lc    2  Data  De   0x1
    156  ../../../../../bootloader/am_multi_boot.c
                                    0x00000000   Lc  Abs  File  De 
    157  i.am_multiboot_check_boot_from_flash
                                    0x00000c1c   Lc    1  Sect  De 
    158  i.am_multiboot_flash_erase_page
                                    0x00000d20   Lc    1  Sect  De 
    159  am_multiboot_flash_erase_page
                                    0x00000d21   Lc    1  Code  De   0x1e
    160  i.am_multiboot_flash_read_page
                                    0x00000d3e   Lc    1  Sect  De 
    161  am_multiboot_flash_read_page
                                    0x00000d3f   Lc    1  Code  De   0x26
    162  i.am_multiboot_flash_write_page
                                    0x00000d64   Lc    1  Sect  De 
    163  am_multiboot_flash_write_page
                                    0x00000d65   Lc    1  Code  De   0x26
    164  i.am_multiboot_init        0x00000d8c   Lc    1  Sect  De 
    165  i.am_multiboot_ota_handler 0x00000f9c   Lc    1  Sect  De 
    166  i.check_flash_address_range
                                    0x000017bc   Lc    1  Sect  De 
    167  check_flash_address_range  0x000017bd   Lc    1  Code  De   0x5e
    168  i.image_data_packet_read   0x00001820   Lc    1  Sect  De 
    169  i.image_start_packet_read  0x000018d8   Lc    1  Sect  De 
    170  i.program_image            0x00001b9c   Lc    1  Sect  De 
    171  i.program_image_from_flash 0x00001bec   Lc    1  Sect  De 
    172  program_image_from_flash   0x00001bed   Lc    1  Code  De   0xa8
    173  i.read_from_flash          0x00001c98   Lc    1  Sect  De 
    174  i.write_to_flash           0x00001d0c   Lc    1  Sect  De 
    175  .bss                       0x100008e4   Lc    3  Sect  De   0x14
    176  g_am_multiboot             0x100008e4   Lc    3  Data  De   0x14
    177  .data                      0x10000024   Lc    2  Sect  De   0x60
    178  g_intFlashSize             0x10000080   Lc    2  Data  De   0x4
    179  ../../../../../bootloader/am_uart_boot_handlers.c
                                    0x00000000   Lc  Abs  File  De 
    180  i.am_multiboot_setup_serial
                                    0x000012fc   Lc    1  Sect  De 
    181  i.am_multiboot_uart_detect_baudrate
                                    0x00001384   Lc    1  Sect  De 
    182  i.am_multiboot_uart_isr_handler
                                    0x000014f0   Lc    1  Sect  De 
    183  i.ser_out                  0x00001ce8   Lc    1  Sect  De 
    184  .bss                       0x100008f8   Lc    3  Sect  De   0x208
    185  .data                      0x10000084   Lc    2  Sect  De   0x45
    186  ../keil/startup_keil.s     0x00000000   Lc  Abs  File  De 
    187  STACK                      0x10000b60   Lc    3  Sect  De   0x1000
    188  StackMem                   0x10000b60   Lc    3  Data  De 
    189  HEAP                       0x10000b60   Lc    3  Sect  De 
    190  HeapMem                    0x10000b60   Lc    3  Data  De 
    191  RESET                      0x00000000   Lc    1  Sect  De   0x98
    192  $v0                        0x00000070   Lc    1   --   De 
    193  .text                      0x00000180   Lc    1  Sect  De   0x18
    194  $v0                        0x00000180   Lc    1   --   De 
    195  ..\am_hal_global.c         0x00000000   Lc  Abs  File  De 
    196  ../am_hal_global.c         0x00000000   Lc  Abs  File  De 
    197  .data                      0x100000cc   Lc    2  Sect  De   0x4
    198  ../am_bsp.c                0x00000000   Lc  Abs  File  De 
    199  i.am_bsp_low_power_init    0x0000050c   Lc    1  Sect  De 
    200  ../am_hal_clkgen.c         0x00000000   Lc  Abs  File  De 
    201  i.am_hal_clkgen_osc_stop   0x0000070c   Lc    1  Sect  De 
    202  i.am_hal_clkgen_sysclk_get 0x00000720   Lc    1  Sect  De 
    203  i.am_hal_clkgen_sysclk_select
                                    0x00000780   Lc    1  Sect  De 
    204  ..\am_hal_flash.c          0x00000000   Lc  Abs  File  De 
    205  .emb_text                  0x00000160   Lc    1  Sect  De   0x6
    206  $v0                        0x00000160   Lc    1   --   De 
    207  ../am_hal_flash.c          0x00000000   Lc  Abs  File  De 
    208  i.am_hal_flash_page_erase  0x00000790   Lc    1  Sect  De 
    209  i.am_hal_flash_program_main
                                    0x00000798   Lc    1  Sect  De 
    210  ../am_hal_gpio.c           0x00000000   Lc  Abs  File  De 
    211  i.am_hal_gpio_int_clear    0x000007a4   Lc    1  Sect  De 
    212  i.am_hal_gpio_int_disable  0x000007b4   Lc    1  Sect  De 
    213  i.am_hal_gpio_int_enable   0x000007d4   Lc    1  Sect  De 
    214  ..\am_hal_interrupt.c      0x00000000   Lc  Abs  File  De 
    215  .emb_text                  0x00000168   Lc    1  Sect  De   0x16
    216  $v0                        0x00000168   Lc    1   --   De 
    217  ../am_hal_interrupt.c      0x00000000   Lc  Abs  File  De 
    218  i.am_hal_interrupt_disable 0x000007f0   Lc    1  Sect  De 
    219  i.am_hal_interrupt_enable  0x0000083c   Lc    1  Sect  De 
    220  ../am_hal_iom.c            0x00000000   Lc  Abs  File  De 
    221  ..\am_hal_ios.c            0x00000000   Lc  Abs  File  De 
    222  ../am_hal_ios.c            0x00000000   Lc  Abs  File  De 
    223  i.am_hal_ios_access_int_clear
                                    0x00000888   Lc    1  Sect  De 
    224  i.am_hal_ios_access_int_enable
                                    0x00000892   Lc    1  Sect  De 
    225  i.am_hal_ios_access_int_status_get
                                    0x000008a2   Lc    1  Sect  De 
    226  i.am_hal_ios_config        0x000008b8   Lc    1  Sect  De 
    227  i.am_hal_ios_int_clear     0x00000944   Lc    1  Sect  De 
    228  i.am_hal_ios_int_enable    0x0000094e   Lc    1  Sect  De 
    229  .constdata                 0x00002160   Lc    1  Sect  De   0x4
    230  .data                      0x100000d0   Lc    2  Sect  De   0x14
    231  ../am_hal_mcuctrl.c        0x00000000   Lc  Abs  File  De 
    232  i.am_hal_mcuctrl_bandgap_disable
                                    0x00000960   Lc    1  Sect  De 
    233  i.am_hal_mcuctrl_bucks_enable
                                    0x00000970   Lc    1  Sect  De 
    234  i.am_hal_mcuctrl_device_info_get
                                    0x00000998   Lc    1  Sect  De 
    235  .constdata                 0x00002164   Lc    1  Sect  De   0x80
    236  ../am_hal_reset.c          0x00000000   Lc  Abs  File  De 
    237  i.am_hal_reset_poi         0x00000a60   Lc    1  Sect  De 
    238  ../am_hal_sysctrl.c        0x00000000   Lc  Abs  File  De 
    239  i.am_hal_sysctrl_sleep     0x00000a90   Lc    1  Sect  De 
    240  ../am_hal_systick.c        0x00000000   Lc  Abs  File  De 
    241  i.am_hal_systick_count     0x00000ac4   Lc    1  Sect  De 
    242  i.am_hal_systick_load      0x00000acc   Lc    1  Sect  De 
    243  i.am_hal_systick_start     0x00000ad8   Lc    1  Sect  De 
    244  i.am_hal_systick_stop      0x00000ae6   Lc    1  Sect  De 
    245  ../am_hal_uart.c           0x00000000   Lc  Abs  File  De 
    246  i.am_hal_uart_char_transmit_polled
                                    0x00000af4   Lc    1  Sect  De 
    247  i.am_hal_uart_clock_enable 0x00000b08   Lc    1  Sect  De 
    248  i.am_hal_uart_config       0x00000b2c   Lc    1  Sect  De 
    249  i.am_hal_uart_disable      0x00000b94   Lc    1  Sect  De 
    250  i.am_hal_uart_enable       0x00000ba8   Lc    1  Sect  De 
    251  i.am_hal_uart_fifo_config  0x00000bbc   Lc    1  Sect  De 
    252  i.am_hal_uart_int_clear    0x00000bd0   Lc    1  Sect  De 
    253  i.am_hal_uart_int_enable   0x00000bdc   Lc    1  Sect  De 
    254  i.am_hal_uart_int_status_get
                                    0x00000bec   Lc    1  Sect  De 
    255  ../am_hal_debug.c          0x00000000   Lc  Abs  File  De 
    256  ../am_hal_i2c_bit_bang.c   0x00000000   Lc  Abs  File  De 
    257  ../am_hal_itm.c            0x00000000   Lc  Abs  File  De 
    258  ../am_hal_queue.c          0x00000000   Lc  Abs  File  De 
    259  ../am_hal_rtc.c            0x00000000   Lc  Abs  File  De 
    260  i.am_hal_rtc_osc_disable   0x00000a6a   Lc    1  Sect  De 
    261  i.am_hal_rtc_osc_select    0x00000a78   Lc    1  Sect  De 
    262  ../am_hal_tpiu.c           0x00000000   Lc  Abs  File  De 
    263  ../am_hal_vcomp.c          0x00000000   Lc  Abs  File  De 
    264  i.am_hal_vcomp_disable     0x00000bfc   Lc    1  Sect  De 
    265  dc.s                       0x00000000   Lc  Abs  File  De 
    266  ../clib/longlong.s         0x00000000   Lc  Abs  File  De 
    267  .text                      0x00000198   Lc    1  Sect  De   0x26
    268  ../clib/memcpset.s         0x00000000   Lc  Abs  File  De 
    269  .text                      0x000001be   Lc    1  Sect  De   0x8a
    270  ../clib/heapaux.c          0x00000000   Lc  Abs  File  De 
    271  .text                      0x00000248   Lc    1  Sect  De 
    272  ../clib/angel/startup.s    0x00000000   Lc  Abs  File  De 
    273  !!!main                    0x00000098   Lc    1  Sect  De   0x8
    274  ../fplib/d2f.s             0x00000000   Lc  Abs  File  De 
    275  ../clib/angel/kernel.s     0x00000000   Lc  Abs  File  De 
    276  .ARM.Collect$$rtentry$$00000000
                                    0x00000118   Lc    1  Sect  De 
    277  ../clib/memcpset.s         0x00000000   Lc  Abs  File  De 
    278  .text                      0x0000024e   Lc    1  Sect  De   0x64
    279  ../fplib/dnaninf.s         0x00000000   Lc  Abs  File  De 
    280  ../fplib/fretinf.s         0x00000000   Lc  Abs  File  De 
    281  ../fplib/usenofp.s         0x00000000   Lc  Abs  File  De 
    282  ../clib/angel/kernel.s     0x00000000   Lc  Abs  File  De 
    283  .ARM.Collect$$rtentry$$00000002
                                    0x00000118   Lc    1  Sect  De 
    284  .ARM.Collect$$rtentry$$00000009
                                    0x0000011e   Lc    1  Sect  De 
    285  .ARM.Collect$$rtentry$$0000000A
                                    0x0000011e   Lc    1  Sect  De   0x4
    286  .ARM.Collect$$rtentry$$0000000C
                                    0x00000122   Lc    1  Sect  De 
    287  .ARM.Collect$$rtentry$$0000000D
                                    0x00000122   Lc    1  Sect  De   0x8
    288  ../clib/angel/kernel.s     0x00000000   Lc  Abs  File  De 
    289  .ARM.Collect$$rtentry$$00000004
                                    0x00000118   Lc    1  Sect  De   0x6
    290  ../clib/angel/sys.s        0x00000000   Lc  Abs  File  De 
    291  .text                      0x000002b2   Lc    1  Sect  De   0x4a
    292  ../clib/stdlib.c           0x00000000   Lc  Abs  File  De 
    293  .text                      0x000002fc   Lc    1  Sect  De 
    294  ../clib/angel/boardlib.s   0x00000000   Lc  Abs  File  De 
    295  ../clib/angel/boardlib.s   0x00000000   Lc  Abs  File  De 
    296  ../clib/angel/boardlib.s   0x00000000   Lc  Abs  File  De 
    297  ../clib/libinit.s          0x00000000   Lc  Abs  File  De 
    298  .ARM.Collect$$libinit$$00000000
                                    0x0000010c   Lc    1  Sect  De   0x2
    299  ../clib/angel/sys.s        0x00000000   Lc  Abs  File  De 
    300  .text                      0x00000310   Lc    1  Sect  De   0x8
    301  .bss                       0x10000b00   Lc    3  Sect  De   0x60
    302  ../clib/angel/kernel.s     0x00000000   Lc  Abs  File  De 
    303  .ARM.Collect$$rtexit$$00000000
                                    0x0000012a   Lc    1  Sect  De   0x2
    304  ../clib/libinit.s          0x00000000   Lc  Abs  File  De 
    305  .ARM.Collect$$libinit$$00000001
                                    0x0000010e   Lc    1  Sect  De   0x4
    306  .ARM.Collect$$libinit$$00000004
                                    0x00000112   Lc    1  Sect  De 
    307  .ARM.Collect$$libinit$$0000000A
                                    0x00000112   Lc    1  Sect  De 
    308  .ARM.Collect$$libinit$$0000000C
                                    0x00000112   Lc    1  Sect  De 
    309  .ARM.Collect$$libinit$$0000000E
                                    0x00000112   Lc    1  Sect  De 
    310  .ARM.Collect$$libinit$$00000011
                                    0x00000112   Lc    1  Sect  De 
    311  .ARM.Collect$$libinit$$00000013
                                    0x00000112   Lc    1  Sect  De 
    312  .ARM.Collect$$libinit$$00000015
                                    0x00000112   Lc    1  Sect  De 
    313  .ARM.Collect$$libinit$$00000017
                                    0x00000112   Lc    1  Sect  De 
    314  .ARM.Collect$$libinit$$00000019
                                    0x00000112   Lc    1  Sect  De 
    315  .ARM.Collect$$libinit$$0000001B
                                    0x00000112   Lc    1  Sect  De 
    316  .ARM.Collect$$libinit$$0000001D
                                    0x00000112   Lc    1  Sect  De 
    317  .ARM.Collect$$libinit$$0000001F
                                    0x00000112   Lc    1  Sect  De 
    318  .ARM.Collect$$libinit$$00000021
                                    0x00000112   Lc    1  Sect  De 
    319  .ARM.Collect$$libinit$$00000023
                                    0x00000112   Lc    1  Sect  De 
    320  .ARM.Collect$$libinit$$00000025
                                    0x00000112   Lc    1  Sect  De 
    321  .ARM.Collect$$libinit$$0000002C
                                    0x00000112   Lc    1  Sect  De 
    322  .ARM.Collect$$libinit$$0000002E
                                    0x00000112   Lc    1  Sect  De 
    323  .ARM.Collect$$libinit$$00000030
                                    0x00000112   Lc    1  Sect  De 
    324  .ARM.Collect$$libinit$$00000032
                                    0x00000112   Lc    1  Sect  De 
    325  .ARM.Collect$$libinit$$00000033
                                    0x00000112   Lc    1  Sect  De   0x2
    326  ../clib/angel/kernel.s     0x00000000   Lc  Abs  File  De 
    327  .ARM.Collect$$rtexit$$00000002
                                    0x0000012c   Lc    1  Sect  De 
    328  .ARM.Collect$$rtexit$$00000003
                                    0x0000012c   Lc    1  Sect  De   0x4
    329  .ARM.Collect$$rtexit$$00000004
                                    0x00000130   Lc    1  Sect  De   0x6
    330  ../clib/armsys.c           0x00000000   Lc  Abs  File  De 
    331  ../clib/armsys.c           0x00000000   Lc  Abs  File  De 
    332  ../fplib/fpinit.s          0x00000000   Lc  Abs  File  De 
    333  x$fpl$fpinit               0x00001d56   Lc    1  Sect  De   0xa
    334  $v0                        0x00001d56   Lc    1   --   De 
    335  ../clib/angel/sysapp.c     0x00000000   Lc  Abs  File  De 
    336  .text                      0x00000318   Lc    1  Sect  De 
    337  ../clib/angel/boardlib.s   0x00000000   Lc  Abs  File  De 
    338  ../clib/armsys.c           0x00000000   Lc  Abs  File  De 
    339  ../clib/armsys.c           0x00000000   Lc  Abs  File  De 
    340  ../clib/libinit.s          0x00000000   Lc  Abs  File  De 
    341  .ARM.Collect$$libshutdown$$00000000
                                    0x00000114   Lc    1  Sect  De   0x2
    342  ../clib/angel/sysapp.c     0x00000000   Lc  Abs  File  De 
    343  ../clib/angel/sys.s        0x00000000   Lc  Abs  File  De 
    344  .text                      0x00000324   Lc    1  Sect  De   0x2
    345  ../clib/angel/sys.s        0x00000000   Lc  Abs  File  De 
    346  .text                      0x00000326   Lc    1  Sect  De 
    347  ../clib/heapalloc.c        0x00000000   Lc  Abs  File  De 
    348  ../clib/signal.c           0x00000000   Lc  Abs  File  De 
    349  ../clib/signal.c           0x00000000   Lc  Abs  File  De 
    350  ../clib/libinit.s          0x00000000   Lc  Abs  File  De 
    351  .ARM.Collect$$libshutdown$$00000002
                                    0x00000116   Lc    1  Sect  De 
    352  .ARM.Collect$$libshutdown$$00000004
                                    0x00000116   Lc    1  Sect  De 
    353  .ARM.Collect$$libshutdown$$00000007
                                    0x00000116   Lc    1  Sect  De 
    354  .ARM.Collect$$libshutdown$$0000000A
                                    0x00000116   Lc    1  Sect  De 
    355  .ARM.Collect$$libshutdown$$0000000C
                                    0x00000116   Lc    1  Sect  De 
    356  .ARM.Collect$$libshutdown$$0000000F
                                    0x00000116   Lc    1  Sect  De 
    357  .ARM.Collect$$libshutdown$$00000010
                                    0x00000116   Lc    1  Sect  De   0x2
    358  ../clib/angel/rt.s         0x00000000   Lc  Abs  File  De 
    359  ../clib/signal.c           0x00000000   Lc  Abs  File  De 
    360  ../clib/signal.c           0x00000000   Lc  Abs  File  De 
    361  ../clib/signal.c           0x00000000   Lc  Abs  File  De 
    362  ../clib/signal.c           0x00000000   Lc  Abs  File  De 
    363  ../clib/angel/sysapp.c     0x00000000   Lc  Abs  File  De 
    364  ../clib/signal.s           0x00000000   Lc  Abs  File  De 
    365  ../clib/signal.c           0x00000000   Lc  Abs  File  De 
    366  ../clib/signal.c           0x00000000   Lc  Abs  File  De 
    367  ../clib/signal.c           0x00000000   Lc  Abs  File  De 
    368  ../clib/signal.c           0x00000000   Lc  Abs  File  De 
    369  ../clib/signal.c           0x00000000   Lc  Abs  File  De 
    370  ../clib/signal.c           0x00000000   Lc  Abs  File  De 
    371  ../clib/signal.c           0x00000000   Lc  Abs  File  De 
    372  ../clib/signal.c           0x00000000   Lc  Abs  File  De 
    373  ../clib/angel/scatter.s    0x00000000   Lc  Abs  File  De 
    374  !!!scatter                 0x000000a0   Lc    1  Sect  De   0x34
    375  ../clib/angel/handlers.s   0x00000000   Lc  Abs  File  De 
    376  !!handler_copy             0x000000d4   Lc    1  Sect  De   0x1a
    377  ../clib/angel/handlers.s   0x00000000   Lc  Abs  File  De 
    378  !!handler_zi               0x000000f0   Lc    1  Sect  De   0x1c
    379  BuildAttributes$$THM_ISAv4$E$P$D$K$B$S$7EM$VFPi3$EXTD16$VFPS$VFMA$PE$A:L22UL41UL21$X:L11$S22US41US21$IEEE1$IW$USESV6$~STKCKD$USESV7$~SHL$OTIME$ROPI$EBA8$UX$STANDARDLIB$REQ8$EABIv2
                                    0x00000000   Gb  Abs   --   Hi 
    380  __ARM_use_no_argv          0x00000000   Gb  Abs   --   Hi 
    381  __Vectors                  0x00000000   Gb    1  Data  Hi 
    382  Reset_Handler              0x00000071   Wk    1  Code  Hi   0x1c
    383  am_nmi_isr                 0x0000008d   Wk    1  Code  Hi   0x2
    384  am_fault_isr               0x0000008f   Wk    1  Code  Hi   0x2
    385  am_memmanage_isr           0x00000091   Wk    1  Code  Hi   0x2
    386  am_adc_isr                 0x00000093   Wk    1  Code  Hi 
    387  am_brownout_isr            0x00000093   Wk    1  Code  Hi 
    388  am_clkgen_isr              0x00000093   Wk    1  Code  Hi 
    389  am_ctimer_isr              0x00000093   Wk    1  Code  Hi 
    390  am_debugmon_isr            0x00000093   Wk    1  Code  Hi 
    391  am_iomaster0_isr           0x00000093   Wk    1  Code  Hi 
    392  am_iomaster1_isr           0x00000093   Wk    1  Code  Hi 
    393  am_ioslave_ios_isr         0x00000093   Wk    1  Code  Hi 
    394  am_pendsv_isr              0x00000093   Wk    1  Code  Hi 
    395  am_svcall_isr              0x00000093   Wk    1  Code  Hi 
    396  am_systick_isr             0x00000093   Wk    1  Code  Hi 
    397  am_vcomp_isr               0x00000093   Wk    1  Code  Hi 
    398  am_watchdog_isr            0x00000093   Wk    1  Code  Hi 
    399  __main                     0x00000099   Gb    1  Code  Hi   0x8
    400  __scatterload              0x000000a1   Gb    1  Code  Hi 
    401  __scatterload_rt2          0x000000a1   Gb    1  Code  Hi   0x2c
    402  __scatterload_rt2_thumb_only
                                    0x000000a1   Gb    1  Code  Hi 
    403  __scatterload_null         0x000000af   Gb    1  Code  Hi 
    404  __scatterload_copy         0x000000d5   Gb    1  Code  Hi   0x1a
    405  __scatterload_zeroinit     0x000000f1   Gb    1  Code  Hi   0x1c
    406  __rt_lib_init              0x0000010d   Gb    1  Code  De 
    407  __rt_lib_init_fp_1         0x0000010f   Gb    1  Code  Hi 
    408  __rt_lib_init_alloca_1     0x00000113   Gb    1  Code  Hi 
    409  __rt_lib_init_argv_1       0x00000113   Gb    1  Code  Hi 
    410  __rt_lib_init_atexit_1     0x00000113   Gb    1  Code  Hi 
    411  __rt_lib_init_clock_1      0x00000113   Gb    1  Code  Hi 
    412  __rt_lib_init_cpp_1        0x00000113   Gb    1  Code  Hi 
    413  __rt_lib_init_exceptions_1 0x00000113   Gb    1  Code  Hi 
    414  __rt_lib_init_fp_trap_1    0x00000113   Gb    1  Code  Hi 
    415  __rt_lib_init_getenv_1     0x00000113   Gb    1  Code  Hi 
    416  __rt_lib_init_heap_1       0x00000113   Gb    1  Code  Hi 
    417  __rt_lib_init_lc_collate_1 0x00000113   Gb    1  Code  Hi 
    418  __rt_lib_init_lc_ctype_1   0x00000113   Gb    1  Code  Hi 
    419  __rt_lib_init_lc_monetary_1
                                    0x00000113   Gb    1  Code  Hi 
    420  __rt_lib_init_lc_numeric_1 0x00000113   Gb    1  Code  Hi 
    421  __rt_lib_init_lc_time_1    0x00000113   Gb    1  Code  Hi 
    422  __rt_lib_init_preinit_1    0x00000113   Gb    1  Code  Hi 
    423  __rt_lib_init_rand_1       0x00000113   Gb    1  Code  Hi 
    424  __rt_lib_init_return       0x00000113   Gb    1  Code  Hi 
    425  __rt_lib_init_signal_1     0x00000113   Gb    1  Code  Hi 
    426  __rt_lib_init_stdio_1      0x00000113   Gb    1  Code  Hi 
    427  __rt_lib_init_user_alloc_1 0x00000113   Gb    1  Code  Hi 
    428  __rt_lib_shutdown          0x00000115   Gb    1  Code  De 
    429  __rt_lib_shutdown_cpp_1    0x00000117   Gb    1  Code  Hi 
    430  __rt_lib_shutdown_fp_trap_1
                                    0x00000117   Gb    1  Code  Hi 
    431  __rt_lib_shutdown_heap_1   0x00000117   Gb    1  Code  Hi 
    432  __rt_lib_shutdown_return   0x00000117   Gb    1  Code  Hi 
    433  __rt_lib_shutdown_signal_1 0x00000117   Gb    1  Code  Hi 
    434  __rt_lib_shutdown_stdio_1  0x00000117   Gb    1  Code  Hi 
    435  __rt_lib_shutdown_user_alloc_1
                                    0x00000117   Gb    1  Code  Hi 
    436  __rt_entry                 0x00000119   Gb    1  Code  Hi 
    437  __rt_entry_presh_1         0x00000119   Gb    1  Code  Hi 
    438  __rt_entry_sh              0x00000119   Gb    1  Code  Hi 
    439  __rt_entry_li              0x0000011f   Gb    1  Code  Hi 
    440  __rt_entry_postsh_1        0x0000011f   Gb    1  Code  Hi 
    441  __rt_entry_main            0x00000123   Gb    1  Code  Hi 
    442  __rt_entry_postli_1        0x00000123   Gb    1  Code  Hi 
    443  __rt_exit                  0x0000012b   Gb    1  Code  De 
    444  __rt_exit_ls               0x0000012d   Gb    1  Code  Hi 
    445  __rt_exit_prels_1          0x0000012d   Gb    1  Code  Hi 
    446  __rt_exit_exit             0x00000131   Gb    1  Code  Hi 
    447  am_bootloader_encrypted_image_run
                                    0x00000139   Gb    1  Code  Hi   0x14
    448  am_bootloader_clear_image_run
                                    0x0000014d   Gb    1  Code  Hi   0x14
    449  am_hal_flash_delay         0x00000161   Gb    1  Code  Hi   0x6
    450  am_hal_interrupt_master_enable
                                    0x00000169   Gb    1  Code  Hi   0x8
    451  am_hal_interrupt_master_disable
                                    0x00000171   Gb    1  Code  Hi   0x8
    452  am_hal_interrupt_master_set
                                    0x00000179   Gb    1  Code  Hi   0x6
    453  __user_initial_stackheap   0x00000181   Gb    1  Code  Hi   0xa
    454  __aeabi_llsl               0x00000199   Gb    1  Code  Hi 
    455  _ll_shift_l                0x00000199   Gb    1  Code  De   0x26
    456  __aeabi_memcpy             0x000001bf   Gb    1  Code  Hi 
    457  __rt_memcpy                0x000001bf   Gb    1  Code  De   0x8a
    458  _memcpy_lastbytes          0x00000225   Gb    1  Code  De 
    459  __use_two_region_memory    0x00000249   Gb    1  Code  Hi   0x2
    460  __rt_heap_escrow$2region   0x0000024b   Gb    1  Code  De   0x2
    461  __rt_heap_expand$2region   0x0000024d   Gb    1  Code  De   0x2
    462  __aeabi_memcpy4            0x0000024f   Gb    1  Code  De 
    463  __aeabi_memcpy8            0x0000024f   Gb    1  Code  De 
    464  __rt_memcpy_w              0x0000024f   Gb    1  Code  De   0x64
    465  _memcpy_lastbytes_aligned  0x00000297   Gb    1  Code  De 
    466  __user_setup_stackheap     0x000002b3   Gb    1  Code  De   0x4a
    467  exit                       0x000002fd   Gb    1  Code  De   0x12
    468  __user_libspace            0x00000311   Wk    1  Code  De   0x8
    469  __user_perproc_libspace    0x00000311   Wk    1  Code  De 
    470  __user_perthread_libspace  0x00000311   Wk    1  Code  De 
    471  _sys_exit                  0x00000319   Gb    1  Code  De   0x8
    472  __I$use$semihosting        0x00000325   Gb    1  Code  Hi 
    473  __use_no_semihosting_swi   0x00000325   Gb    1  Code  Hi   0x2
    474  __semihosting_library_function
                                    0x00000327   Gb    1  Code  Hi 
    475  am_bootloader_erase_flash_page
                                    0x00000329   Gb    1  Code  Hi   0x28
    476  am_bootloader_fast_crc32   0x00000355   Gb    1  Code  Hi   0x26
    477  am_bootloader_flag_page_update
                                    0x00000381   Gb    1  Code  Hi   0x4c
    478  am_bootloader_flash_check  0x000003d1   Gb    1  Code  Hi   0x6c
    479  am_bootloader_image_run    0x0000043d   Gb    1  Code  Hi   0x18
    480  am_bootloader_partial_crc32
                                    0x00000455   Gb    1  Code  Hi   0x28
    481  am_bootloader_program_flash_page
                                    0x00000481   Gb    1  Code  Hi   0x30
    482  am_bootloader_validate_structure
                                    0x000004b5   Gb    1  Code  Hi   0x2c
    483  am_bootloader_write_flash_within_page
                                    0x000004e1   Gb    1  Code  Hi   0x26
    484  am_bsp_low_power_init      0x0000050d   Gb    1  Code  Hi   0x22
    485  am_gpio_isr                0x00000531   Gb    1  Code  Hi   0x22
    486  am_hal_bootloader_override_check
                                    0x00000559   Gb    1  Code  Hi   0x1b0
    487  am_hal_clkgen_osc_stop     0x0000070d   Gb    1  Code  Hi   0x14
    488  am_hal_clkgen_sysclk_get   0x00000721   Gb    1  Code  Hi   0x40
    489  am_hal_clkgen_sysclk_select
                                    0x00000781   Gb    1  Code  Hi   0x10
    490  am_hal_flash_page_erase    0x00000791   Gb    1  Code  Hi   0x4
    491  am_hal_flash_program_main  0x00000799   Gb    1  Code  Hi   0x6
    492  am_hal_gpio_int_clear      0x000007a5   Gb    1  Code  Hi   0xc
    493  am_hal_gpio_int_disable    0x000007b5   Gb    1  Code  Hi   0x1c
    494  am_hal_gpio_int_enable     0x000007d5   Gb    1  Code  Hi   0x18
    495  am_hal_interrupt_disable   0x000007f1   Gb    1  Code  Hi   0x46
    496  am_hal_interrupt_enable    0x0000083d   Gb    1  Code  Hi   0x46
    497  am_hal_ios_access_int_clear
                                    0x00000889   Gb    1  Code  Hi   0xa
    498  am_hal_ios_access_int_enable
                                    0x00000893   Gb    1  Code  Hi   0x10
    499  am_hal_ios_access_int_status_get
                                    0x000008a3   Gb    1  Code  Hi   0x14
    500  am_hal_ios_config          0x000008b9   Gb    1  Code  Hi   0x86
    501  am_hal_ios_int_clear       0x00000945   Gb    1  Code  Hi   0xa
    502  am_hal_ios_int_enable      0x0000094f   Gb    1  Code  Hi   0x10
    503  am_hal_mcuctrl_bandgap_disable
                                    0x00000961   Gb    1  Code  Hi   0xc
    504  am_hal_mcuctrl_bucks_enable
                                    0x00000971   Gb    1  Code  Hi   0x24
    505  am_hal_mcuctrl_device_info_get
                                    0x00000999   Gb    1  Code  Hi   0xa8
    506  am_hal_reset_poi           0x00000a61   Gb    1  Code  Hi   0xa
    507  am_hal_rtc_osc_disable     0x00000a6b   Gb    1  Code  Hi   0xe
    508  am_hal_rtc_osc_select      0x00000a79   Gb    1  Code  Hi   0x16
    509  am_hal_sysctrl_sleep       0x00000a91   Gb    1  Code  Hi   0x2c
    510  am_hal_systick_count       0x00000ac5   Gb    1  Code  Hi   0x8
    511  am_hal_systick_load        0x00000acd   Gb    1  Code  Hi   0xc
    512  am_hal_systick_start       0x00000ad9   Gb    1  Code  Hi   0xe
    513  am_hal_systick_stop        0x00000ae7   Gb    1  Code  Hi   0xe
    514  am_hal_uart_char_transmit_polled
                                    0x00000af5   Gb    1  Code  Hi   0xe
    515  am_hal_uart_clock_enable   0x00000b09   Gb    1  Code  Hi   0x20
    516  am_hal_uart_config         0x00000b2d   Gb    1  Code  Hi   0x64
    517  am_hal_uart_disable        0x00000b95   Gb    1  Code  Hi   0x10
    518  am_hal_uart_enable         0x00000ba9   Gb    1  Code  Hi   0xe
    519  am_hal_uart_fifo_config    0x00000bbd   Gb    1  Code  Hi   0xe
    520  am_hal_uart_int_clear      0x00000bd1   Gb    1  Code  Hi   0x6
    521  am_hal_uart_int_enable     0x00000bdd   Gb    1  Code  Hi   0xa
    522  am_hal_uart_int_status_get 0x00000bed   Gb    1  Code  Hi   0xc
    523  am_hal_vcomp_disable       0x00000bfd   Gb    1  Code  Hi   0x8
    524  am_ioslave_acc_isr         0x00000c09   Gb    1  Code  Hi   0xe
    525  am_multiboot_check_boot_from_flash
                                    0x00000c1d   Gb    1  Code  Hi   0x62
    526  am_multiboot_cleanup_ios_interface
                                    0x00000c89   Gb    1  Code  Hi   0x94
    527  am_multiboot_init          0x00000d8d   Gb    1  Code  Hi   0x14
    528  am_multiboot_ios_acc_isr_handler
                                    0x00000da5   Gb    1  Code  Hi   0x1dc
    529  am_multiboot_ota_handler   0x00000f9d   Gb    1  Code  Hi   0x11c
    530  am_multiboot_setup_ios_interface
                                    0x000010cd   Gb    1  Code  Hi   0x21e
    531  am_multiboot_setup_serial  0x000012fd   Gb    1  Code  Hi   0x68
    532  am_multiboot_uart_detect_baudrate
                                    0x00001385   Gb    1  Code  Hi   0x164
    533  am_multiboot_uart_isr_handler
                                    0x000014f1   Gb    1  Code  Hi   0x264
    534  am_uart_isr                0x00001795   Gb    1  Code  Hi   0xa
    535  am_util_delay_ms           0x0000179f   Gb    1  Code  Hi   0x1e
    536  image_data_packet_read     0x00001821   Gb    1  Code  Hi   0xa6
    537  image_start_packet_read    0x000018d9   Gb    1  Code  Hi   0x80
    538  invalidate_ota             0x00001969   Gb    1  Code  Hi   0x1c
    539  main                       0x00001985   Gb    1  Code  Hi   0x1fe
    540  program_image              0x00001b9d   Gb    1  Code  Hi   0x4c
    541  read_from_flash            0x00001c99   Gb    1  Code  Hi   0x50
    542  ser_out                    0x00001ce9   Gb    1  Code  Hi   0x20
    543  write_to_flash             0x00001d0d   Gb    1  Code  Hi   0x4a
    544  _fp_init                   0x00001d57   Gb    1  Code  De   0xa
    545  __fplib_config_fpu_vfp     0x00001d5f   Gb    1  Code  De 
    546  __fplib_config_pureend_doubles
                                    0x00001d5f   Gb    1  Code  De 
    547  am_hal_ios_pui8LRAM        0x00002160   Gb    1  Data  Hi   0x4
    548  am_hal_mcuctrl_flash_size  0x00002164   Gb    1  Data  Hi   0x40
    549  am_hal_mcuctrl_sram_size   0x000021a4   Gb    1  Data  Hi   0x40
    550  Region$$Table$$Base        0x000021e4   Gb    1   --   Hi 
    551  Region$$Table$$Limit       0x00002204   Gb    1   --   Hi 
    552  g_bIOSActive               0x10000000   Gb    2  Data  Hi   0x1
    553  g_bUartConfigured          0x10000001   Gb    2  Data  Hi   0x1
    554  g_ui32BytesReceived        0x10000024   Gb    2  Data  Hi   0x4
    555  g_ui32CRC                  0x10000028   Gb    2  Data  Hi   0x4
    556  g_sImage                   0x1000002c   Gb    2  Data  Hi   0x24
    557  g_psBootImage              0x10000050   Gb    2  Data  Hi   0x4
    558  g_intFlash                 0x10000054   Gb    2  Data  Hi   0x24
    559  g_pFlashInfo               0x10000078   Gb    2  Data  Hi   0x4
    560  g_pTempBuf                 0x1000007c   Gb    2  Data  Hi   0x4
    561  g_sUartConfig              0x10000084   Gb    2  Data  Hi   0x14
    562  ui32_serial_status         0x10000098   Gb    2  Data  Hi   0x4
    563  cRecChar                   0x1000009c   Gb    2  Data  Hi   0x1
    564  RX_FIFO_FULL               0x1000009d   Gb    2  Data  Hi   0x1
    565  RX_FIFO_EMPTY              0x1000009e   Gb    2  Data  Hi   0x1
    566  uart_RX_cnt                0x100000a0   Gb    2  Data  Hi   0x4
    567  uart_RX_head               0x100000a4   Gb    2  Data  Hi   0x4
    568  uart_RX_tail               0x100000a8   Gb    2  Data  Hi   0x4
    569  cTxChar                    0x100000ac   Gb    2  Data  Hi   0x1
    570  TX_FIFO_FULL               0x100000ad   Gb    2  Data  Hi   0x1
    571  TX_FIFO_EMPTY              0x100000ae   Gb    2  Data  Hi   0x1
    572  uart_TX_buffer             0x100000af   Gb    2  Data  Hi   0x8
    573  uart_TX_cnt                0x100000b7   Gb    2  Data  Hi   0x1
    574  uart_TX_head               0x100000b8   Gb    2  Data  Hi   0x1
    575  uart_TX_tail               0x100000b9   Gb    2  Data  Hi   0x1
    576  command                    0x100000bc   Gb    2  Data  Hi   0x4
    577  packet_cnt                 0x100000c0   Gb    2  Data  Hi   0x4
    578  pkt_size                   0x100000c4   Gb    2  Data  Hi   0x4
    579  g_bUartImageValid          0x100000c8   Gb    2  Data  Hi   0x1
    580  g_ui32HALflags             0x100000cc   Gb    2  Data  Hi   0x4
    581  g_ui32HwFifoSize           0x100000d0   Gb    2  Data  Hi   0x1
    582  g_pui8FIFOBase             0x100000d4   Gb    2  Data  Hi   0x4
    583  g_pui8FIFOEnd              0x100000d8   Gb    2  Data  Hi   0x4
    584  g_pui8FIFOPtr              0x100000dc   Gb    2  Data  Hi   0x4
    585  g_ui32FifoBaseOffset       0x100000e0   Gb    2  Data  Hi   0x4
    586  sramTempBuf                0x100000e4   Gb    3  Data  Hi   0x800
    587  uart_RX_buffer             0x100008f8   Gb    3  Data  Hi   0x208
    588  __libspace_start           0x10000b00   Gb    3  Data  De   0x60
    589  __temporary_stack_top$libspace
                                    0x10000b60   Gb    3  Data  De 


** Section #12 '.strtab' (SHT_STRTAB)
    Size   : 9376 bytes

            #  Offset String
        ====================================

            1      1: $d
            2      4: $t
            3      7: $d.realdata
            4     19: ../src/extflash.c
            5     37: ../src/multi_boot.c
            6     57: i.am_gpio_isr
            7     71: i.am_ioslave_acc_isr
            8     92: i.am_uart_isr
            9    106: i.invalidate_ota
           10    123: i.main
           11    130: .bss
           12    135: .data
           13    141: ../../../../../devices/am_devices_spiflash.c
           14    186: ../../../../../utils/am_util_delay.c
           15    223: i.am_util_delay_ms
           16    242: ../../../../../utils/am_util_stdio.c
           17    279: ..\..\..\..\..\bootloader\am_bootloader.c
           18    321: .emb_text
           19    331: $v0
           20    335: ../../../../../bootloader/am_bootloader.c
           21    377: i.am_bootloader_erase_flash_page
           22    410: i.am_bootloader_fast_crc32
           23    437: i.am_bootloader_flag_page_update
           24    470: i.am_bootloader_flash_check
           25    498: i.am_bootloader_image_run
           26    524: i.am_bootloader_partial_crc32
           27    554: i.am_bootloader_program_flash_page
           28    589: i.am_bootloader_validate_structure
           29    624: i.am_bootloader_write_flash_within_page
           30    664: i.am_hal_bootloader_override_check
           31    699: .constdata
           32    710: g_pui32CRC32Table
           33    728: ../../../../../bootloader/am_ios_boot_handlers.c
           34    777: i.am_multiboot_cleanup_ios_interface
           35    814: i.am_multiboot_ios_acc_isr_handler
           36    849: i.am_multiboot_setup_ios_interface
           37    884: g_sIOSConfig
           38    897: g_iosIntPin
           39    909: g_bIosImageValid
           40    926: ../../../../../bootloader/am_multi_boot.c
           41    968: i.am_multiboot_check_boot_from_flash
           42   1005: i.am_multiboot_flash_erase_page
           43   1037: am_multiboot_flash_erase_page
           44   1067: i.am_multiboot_flash_read_page
           45   1098: am_multiboot_flash_read_page
           46   1127: i.am_multiboot_flash_write_page
           47   1159: am_multiboot_flash_write_page
           48   1189: i.am_multiboot_init
           49   1209: i.am_multiboot_ota_handler
           50   1236: i.check_flash_address_range
           51   1264: check_flash_address_range
           52   1290: i.image_data_packet_read
           53   1315: i.image_start_packet_read
           54   1341: i.program_image
           55   1357: i.program_image_from_flash
           56   1384: program_image_from_flash
           57   1409: i.read_from_flash
           58   1427: i.write_to_flash
           59   1444: g_am_multiboot
           60   1459: g_intFlashSize
           61   1474: ../../../../../bootloader/am_uart_boot_handlers.c
           62   1524: i.am_multiboot_setup_serial
           63   1552: i.am_multiboot_uart_detect_baudrate
           64   1588: i.am_multiboot_uart_isr_handler
           65   1620: i.ser_out
           66   1630: ../keil/startup_keil.s
           67   1653: STACK
           68   1659: StackMem
           69   1668: HEAP
           70   1673: HeapMem
           71   1681: RESET
           72   1687: .text
           73   1693: ..\am_hal_global.c
           74   1712: ../am_hal_global.c
           75   1731: ../am_bsp.c
           76   1743: i.am_bsp_low_power_init
           77   1767: ../am_hal_clkgen.c
           78   1786: i.am_hal_clkgen_osc_stop
           79   1811: i.am_hal_clkgen_sysclk_get
           80   1838: i.am_hal_clkgen_sysclk_select
           81   1868: ..\am_hal_flash.c
           82   1886: ../am_hal_flash.c
           83   1904: i.am_hal_flash_page_erase
           84   1930: i.am_hal_flash_program_main
           85   1958: ../am_hal_gpio.c
           86   1975: i.am_hal_gpio_int_clear
           87   1999: i.am_hal_gpio_int_disable
           88   2025: i.am_hal_gpio_int_enable
           89   2050: ..\am_hal_interrupt.c
           90   2072: ../am_hal_interrupt.c
           91   2094: i.am_hal_interrupt_disable
           92   2121: i.am_hal_interrupt_enable
           93   2147: ../am_hal_iom.c
           94   2163: ..\am_hal_ios.c
           95   2179: ../am_hal_ios.c
           96   2195: i.am_hal_ios_access_int_clear
           97   2225: i.am_hal_ios_access_int_enable
           98   2256: i.am_hal_ios_access_int_status_get
           99   2291: i.am_hal_ios_config
          100   2311: i.am_hal_ios_int_clear
          101   2334: i.am_hal_ios_int_enable
          102   2358: ../am_hal_mcuctrl.c
          103   2378: i.am_hal_mcuctrl_bandgap_disable
          104   2411: i.am_hal_mcuctrl_bucks_enable
          105   2441: i.am_hal_mcuctrl_device_info_get
          106   2474: ../am_hal_reset.c
          107   2492: i.am_hal_reset_poi
          108   2511: ../am_hal_sysctrl.c
          109   2531: i.am_hal_sysctrl_sleep
          110   2554: ../am_hal_systick.c
          111   2574: i.am_hal_systick_count
          112   2597: i.am_hal_systick_load
          113   2619: i.am_hal_systick_start
          114   2642: i.am_hal_systick_stop
          115   2664: ../am_hal_uart.c
          116   2681: i.am_hal_uart_char_transmit_polled
          117   2716: i.am_hal_uart_clock_enable
          118   2743: i.am_hal_uart_config
          119   2764: i.am_hal_uart_disable
          120   2786: i.am_hal_uart_enable
          121   2807: i.am_hal_uart_fifo_config
          122   2833: i.am_hal_uart_int_clear
          123   2857: i.am_hal_uart_int_enable
          124   2882: i.am_hal_uart_int_status_get
          125   2911: ../am_hal_debug.c
          126   2929: ../am_hal_i2c_bit_bang.c
          127   2954: ../am_hal_itm.c
          128   2970: ../am_hal_queue.c
          129   2988: ../am_hal_rtc.c
          130   3004: i.am_hal_rtc_osc_disable
          131   3029: i.am_hal_rtc_osc_select
          132   3053: ../am_hal_tpiu.c
          133   3070: ../am_hal_vcomp.c
          134   3088: i.am_hal_vcomp_disable
          135   3111: dc.s
          136   3116: ../clib/longlong.s
          137   3135: ../clib/memcpset.s
          138   3154: ../clib/heapaux.c
          139   3172: ../clib/angel/startup.s
          140   3196: !!!main
          141   3204: ../fplib/d2f.s
          142   3219: ../clib/angel/kernel.s
          143   3242: .ARM.Collect$$rtentry$$00000000
          144   3274: ../fplib/dnaninf.s
          145   3293: ../fplib/fretinf.s
          146   3312: ../fplib/usenofp.s
          147   3331: .ARM.Collect$$rtentry$$00000002
          148   3363: .ARM.Collect$$rtentry$$00000009
          149   3395: .ARM.Collect$$rtentry$$0000000A
          150   3427: .ARM.Collect$$rtentry$$0000000C
          151   3459: .ARM.Collect$$rtentry$$0000000D
          152   3491: .ARM.Collect$$rtentry$$00000004
          153   3523: ../clib/angel/sys.s
          154   3543: ../clib/stdlib.c
          155   3560: ../clib/angel/boardlib.s
          156   3585: ../clib/libinit.s
          157   3603: .ARM.Collect$$libinit$$00000000
          158   3635: .ARM.Collect$$rtexit$$00000000
          159   3666: .ARM.Collect$$libinit$$00000001
          160   3698: .ARM.Collect$$libinit$$00000004
          161   3730: .ARM.Collect$$libinit$$0000000A
          162   3762: .ARM.Collect$$libinit$$0000000C
          163   3794: .ARM.Collect$$libinit$$0000000E
          164   3826: .ARM.Collect$$libinit$$00000011
          165   3858: .ARM.Collect$$libinit$$00000013
          166   3890: .ARM.Collect$$libinit$$00000015
          167   3922: .ARM.Collect$$libinit$$00000017
          168   3954: .ARM.Collect$$libinit$$00000019
          169   3986: .ARM.Collect$$libinit$$0000001B
          170   4018: .ARM.Collect$$libinit$$0000001D
          171   4050: .ARM.Collect$$libinit$$0000001F
          172   4082: .ARM.Collect$$libinit$$00000021
          173   4114: .ARM.Collect$$libinit$$00000023
          174   4146: .ARM.Collect$$libinit$$00000025
          175   4178: .ARM.Collect$$libinit$$0000002C
          176   4210: .ARM.Collect$$libinit$$0000002E
          177   4242: .ARM.Collect$$libinit$$00000030
          178   4274: .ARM.Collect$$libinit$$00000032
          179   4306: .ARM.Collect$$libinit$$00000033
          180   4338: .ARM.Collect$$rtexit$$00000002
          181   4369: .ARM.Collect$$rtexit$$00000003
          182   4400: .ARM.Collect$$rtexit$$00000004
          183   4431: ../clib/armsys.c
          184   4448: ../fplib/fpinit.s
          185   4466: x$fpl$fpinit
          186   4479: ../clib/angel/sysapp.c
          187   4502: .ARM.Collect$$libshutdown$$00000000
          188   4538: ../clib/heapalloc.c
          189   4558: ../clib/signal.c
          190   4575: .ARM.Collect$$libshutdown$$00000002
          191   4611: .ARM.Collect$$libshutdown$$00000004
          192   4647: .ARM.Collect$$libshutdown$$00000007
          193   4683: .ARM.Collect$$libshutdown$$0000000A
          194   4719: .ARM.Collect$$libshutdown$$0000000C
          195   4755: .ARM.Collect$$libshutdown$$0000000F
          196   4791: .ARM.Collect$$libshutdown$$00000010
          197   4827: ../clib/angel/rt.s
          198   4846: ../clib/signal.s
          199   4863: ../clib/angel/scatter.s
          200   4887: !!!scatter
          201   4898: ../clib/angel/handlers.s
          202   4923: !!handler_copy
          203   4938: !!handler_zi
          204   4951: BuildAttributes$$THM_ISAv4$E$P$D$K$B$S$7EM$VFPi3$EXTD16$VFPS$VFMA$PE$A:L22UL41UL21$X:L11$S22US41US21$IEEE1$IW$USESV6$~STKCKD$USESV7$~SHL$OTIME$ROPI$EBA8$UX$STANDARDLIB$REQ8$EABIv2
          205   5131: __ARM_use_no_argv
          206   5149: __Vectors
          207   5159: Reset_Handler
          208   5173: am_nmi_isr
          209   5184: am_fault_isr
          210   5197: am_memmanage_isr
          211   5214: am_adc_isr
          212   5225: am_brownout_isr
          213   5241: am_clkgen_isr
          214   5255: am_ctimer_isr
          215   5269: am_debugmon_isr
          216   5285: am_iomaster0_isr
          217   5302: am_iomaster1_isr
          218   5319: am_ioslave_ios_isr
          219   5338: am_pendsv_isr
          220   5352: am_svcall_isr
          221   5366: am_systick_isr
          222   5381: am_vcomp_isr
          223   5394: am_watchdog_isr
          224   5410: __main
          225   5417: __scatterload
          226   5431: __scatterload_rt2
          227   5449: __scatterload_rt2_thumb_only
          228   5478: __scatterload_null
          229   5497: __scatterload_copy
          230   5516: __scatterload_zeroinit
          231   5539: __rt_lib_init
          232   5553: __rt_lib_init_fp_1
          233   5572: __rt_lib_init_alloca_1
          234   5595: __rt_lib_init_argv_1
          235   5616: __rt_lib_init_atexit_1
          236   5639: __rt_lib_init_clock_1
          237   5661: __rt_lib_init_cpp_1
          238   5681: __rt_lib_init_exceptions_1
          239   5708: __rt_lib_init_fp_trap_1
          240   5732: __rt_lib_init_getenv_1
          241   5755: __rt_lib_init_heap_1
          242   5776: __rt_lib_init_lc_collate_1
          243   5803: __rt_lib_init_lc_ctype_1
          244   5828: __rt_lib_init_lc_monetary_1
          245   5856: __rt_lib_init_lc_numeric_1
          246   5883: __rt_lib_init_lc_time_1
          247   5907: __rt_lib_init_preinit_1
          248   5931: __rt_lib_init_rand_1
          249   5952: __rt_lib_init_return
          250   5973: __rt_lib_init_signal_1
          251   5996: __rt_lib_init_stdio_1
          252   6018: __rt_lib_init_user_alloc_1
          253   6045: __rt_lib_shutdown
          254   6063: __rt_lib_shutdown_cpp_1
          255   6087: __rt_lib_shutdown_fp_trap_1
          256   6115: __rt_lib_shutdown_heap_1
          257   6140: __rt_lib_shutdown_return
          258   6165: __rt_lib_shutdown_signal_1
          259   6192: __rt_lib_shutdown_stdio_1
          260   6218: __rt_lib_shutdown_user_alloc_1
          261   6249: __rt_entry
          262   6260: __rt_entry_presh_1
          263   6279: __rt_entry_sh
          264   6293: __rt_entry_li
          265   6307: __rt_entry_postsh_1
          266   6327: __rt_entry_main
          267   6343: __rt_entry_postli_1
          268   6363: __rt_exit
          269   6373: __rt_exit_ls
          270   6386: __rt_exit_prels_1
          271   6404: __rt_exit_exit
          272   6419: am_bootloader_encrypted_image_run
          273   6453: am_bootloader_clear_image_run
          274   6483: am_hal_flash_delay
          275   6502: am_hal_interrupt_master_enable
          276   6533: am_hal_interrupt_master_disable
          277   6565: am_hal_interrupt_master_set
          278   6593: __user_initial_stackheap
          279   6618: __aeabi_llsl
          280   6631: _ll_shift_l
          281   6643: __aeabi_memcpy
          282   6658: __rt_memcpy
          283   6670: _memcpy_lastbytes
          284   6688: __use_two_region_memory
          285   6712: __rt_heap_escrow$2region
          286   6737: __rt_heap_expand$2region
          287   6762: __aeabi_memcpy4
          288   6778: __aeabi_memcpy8
          289   6794: __rt_memcpy_w
          290   6808: _memcpy_lastbytes_aligned
          291   6834: __user_setup_stackheap
          292   6857: exit
          293   6862: __user_libspace
          294   6878: __user_perproc_libspace
          295   6902: __user_perthread_libspace
          296   6928: _sys_exit
          297   6938: __I$use$semihosting
          298   6958: __use_no_semihosting_swi
          299   6983: __semihosting_library_function
          300   7014: am_bootloader_erase_flash_page
          301   7045: am_bootloader_fast_crc32
          302   7070: am_bootloader_flag_page_update
          303   7101: am_bootloader_flash_check
          304   7127: am_bootloader_image_run
          305   7151: am_bootloader_partial_crc32
          306   7179: am_bootloader_program_flash_page
          307   7212: am_bootloader_validate_structure
          308   7245: am_bootloader_write_flash_within_page
          309   7283: am_bsp_low_power_init
          310   7305: am_gpio_isr
          311   7317: am_hal_bootloader_override_check
          312   7350: am_hal_clkgen_osc_stop
          313   7373: am_hal_clkgen_sysclk_get
          314   7398: am_hal_clkgen_sysclk_select
          315   7426: am_hal_flash_page_erase
          316   7450: am_hal_flash_program_main
          317   7476: am_hal_gpio_int_clear
          318   7498: am_hal_gpio_int_disable
          319   7522: am_hal_gpio_int_enable
          320   7545: am_hal_interrupt_disable
          321   7570: am_hal_interrupt_enable
          322   7594: am_hal_ios_access_int_clear
          323   7622: am_hal_ios_access_int_enable
          324   7651: am_hal_ios_access_int_status_get
          325   7684: am_hal_ios_config
          326   7702: am_hal_ios_int_clear
          327   7723: am_hal_ios_int_enable
          328   7745: am_hal_mcuctrl_bandgap_disable
          329   7776: am_hal_mcuctrl_bucks_enable
          330   7804: am_hal_mcuctrl_device_info_get
          331   7835: am_hal_reset_poi
          332   7852: am_hal_rtc_osc_disable
          333   7875: am_hal_rtc_osc_select
          334   7897: am_hal_sysctrl_sleep
          335   7918: am_hal_systick_count
          336   7939: am_hal_systick_load
          337   7959: am_hal_systick_start
          338   7980: am_hal_systick_stop
          339   8000: am_hal_uart_char_transmit_polled
          340   8033: am_hal_uart_clock_enable
          341   8058: am_hal_uart_config
          342   8077: am_hal_uart_disable
          343   8097: am_hal_uart_enable
          344   8116: am_hal_uart_fifo_config
          345   8140: am_hal_uart_int_clear
          346   8162: am_hal_uart_int_enable
          347   8185: am_hal_uart_int_status_get
          348   8212: am_hal_vcomp_disable
          349   8233: am_ioslave_acc_isr
          350   8252: am_multiboot_check_boot_from_flash
          351   8287: am_multiboot_cleanup_ios_interface
          352   8322: am_multiboot_init
          353   8340: am_multiboot_ios_acc_isr_handler
          354   8373: am_multiboot_ota_handler
          355   8398: am_multiboot_setup_ios_interface
          356   8431: am_multiboot_setup_serial
          357   8457: am_multiboot_uart_detect_baudrate
          358   8491: am_multiboot_uart_isr_handler
          359   8521: am_uart_isr
          360   8533: am_util_delay_ms
          361   8550: image_data_packet_read
          362   8573: image_start_packet_read
          363   8597: invalidate_ota
          364   8612: main
          365   8617: program_image
          366   8631: read_from_flash
          367   8647: ser_out
          368   8655: write_to_flash
          369   8670: _fp_init
          370   8679: __fplib_config_fpu_vfp
          371   8702: __fplib_config_pureend_doubles
          372   8733: am_hal_ios_pui8LRAM
          373   8753: am_hal_mcuctrl_flash_size
          374   8779: am_hal_mcuctrl_sram_size
          375   8804: Region$$Table$$Base
          376   8824: Region$$Table$$Limit
          377   8845: g_bIOSActive
          378   8858: g_bUartConfigured
          379   8876: g_ui32BytesReceived
          380   8896: g_ui32CRC
          381   8906: g_sImage
          382   8915: g_psBootImage
          383   8929: g_intFlash
          384   8940: g_pFlashInfo
          385   8953: g_pTempBuf
          386   8964: g_sUartConfig
          387   8978: ui32_serial_status
          388   8997: cRecChar
          389   9006: RX_FIFO_FULL
          390   9019: RX_FIFO_EMPTY
          391   9033: uart_RX_cnt
          392   9045: uart_RX_head
          393   9058: uart_RX_tail
          394   9071: cTxChar
          395   9079: TX_FIFO_FULL
          396   9092: TX_FIFO_EMPTY
          397   9106: uart_TX_buffer
          398   9121: uart_TX_cnt
          399   9133: uart_TX_head
          400   9146: uart_TX_tail
          401   9159: command
          402   9167: packet_cnt
          403   9178: pkt_size
          404   9187: g_bUartImageValid
          405   9205: g_ui32HALflags
          406   9220: g_ui32HwFifoSize
          407   9237: g_pui8FIFOBase
          408   9252: g_pui8FIFOEnd
          409   9266: g_pui8FIFOPtr
          410   9280: g_ui32FifoBaseOffset
          411   9301: sramTempBuf
          412   9313: uart_RX_buffer
          413   9328: __libspace_start
          414   9345: __temporary_stack_top$libspace


** Section #13 '.note' (SHT_NOTE)
    Size   : 28 bytes (alignment 4)


** Section #14 '.comment' (SHT_PROGBITS)
    Size   : 21008 bytes


** Section #15 '.shstrtab' (SHT_STRTAB)
    Size   : 148 bytes

            #  Offset String
        ====================================

            1      1: FLASH
            2      7: SRAM
            3     12: .debug_abbrev
            4     26: .debug_frame
            5     39: .debug_info
            6     51: .debug_line
            7     63: .debug_loc
            8     74: .debug_macinfo
            9     89: .debug_pubnames
           10    105: .symtab
           11    113: .strtab
           12    121: .note
           13    127: .comment
           14    136: .shstrtab
           15    146: 
           16    147: 


