
========================================================================

** ELF Header Information

    File Name: bin\spi_boot_host.axf

    Machine class: ELFCLASS32 (32-bit)
    Data encoding: ELFDATA2LSB (Little endian)
    Header version: EV_CURRENT (Current version)
    Operating System ABI: none
    ABI Version: 0
    File Type: ET_EXEC (Executable) (2)
    Machine: EM_ARM (ARM)

    Image Entry point: 0x000000e9
    Flags: EF_ARM_HASENTRY + EF_ARM_ABI_FLOAT_HARD (0x05000402)

    ARM ELF revision: 5 (ABI version 2)

    Conforms to Hard float procedure-call standard

    Built with
    Component: ARM Compiler 5.06 update 6 (build 750) Tool: armasm [4d35ec]
    Component: ARM Compiler 5.06 update 6 (build 750) Tool: armlink [4d35ed]

    Header size: 52 bytes (0x34)
    Program header entry size: 32 bytes (0x20)
    Section header entry size: 40 bytes (0x28)

    Program header entries: 1
    Section header entries: 16

    Program header offset: 65928 (0x00010188)
    Section header offset: 65960 (0x000101a8)

    Section header string table index: 15

========================================================================

** Program header #0 (PT_LOAD) [PF_X + PF_W + PF_R + PF_ARM_ENTRY]
    Size : 21328 bytes (15972 bytes in file)
    Virtual address: 0x00000000 (Alignment 8)


========================================================================

** Section #1 'FLASH' (SHT_PROGBITS) [SHF_ALLOC + SHF_EXECINSTR]
    Size   : 15872 bytes (alignment 4)
    Address: 0x00000000

    $d
    RESET
    __Vectors
        0x00000000:    10001550    P...    DCD    268440912
        0x00000004:    000000c1    ....    DCD    193
        0x00000008:    000000dd    ....    DCD    221
        0x0000000c:    000000df    ....    DCD    223
        0x00000010:    000000df    ....    DCD    223
        0x00000014:    000000df    ....    DCD    223
        0x00000018:    000000df    ....    DCD    223
        0x0000001c:    00000000    ....    DCD    0
        0x00000020:    00000000    ....    DCD    0
        0x00000024:    00000000    ....    DCD    0
        0x00000028:    00000000    ....    DCD    0
        0x0000002c:    000000e3    ....    DCD    227
        0x00000030:    000000e3    ....    DCD    227
        0x00000034:    00000000    ....    DCD    0
        0x00000038:    000000e3    ....    DCD    227
        0x0000003c:    000000e3    ....    DCD    227
        0x00000040:    000000e3    ....    DCD    227
        0x00000044:    000000e3    ....    DCD    227
        0x00000048:    000000e3    ....    DCD    227
        0x0000004c:    000000e3    ....    DCD    227
        0x00000050:    000000e3    ....    DCD    227
        0x00000054:    000000e3    ....    DCD    227
        0x00000058:    000000e3    ....    DCD    227
        0x0000005c:    000000e3    ....    DCD    227
        0x00000060:    000000e3    ....    DCD    227
        0x00000064:    000000e3    ....    DCD    227
        0x00000068:    000000e3    ....    DCD    227
        0x0000006c:    000000e3    ....    DCD    227
        0x00000070:    0000035f    _...    DCD    863
        0x00000074:    000000e3    ....    DCD    227
        0x00000078:    000000e3    ....    DCD    227
        0x0000007c:    000000e3    ....    DCD    227
        0x00000080:    000000e3    ....    DCD    227
        0x00000084:    000000e3    ....    DCD    227
        0x00000088:    000000e3    ....    DCD    227
        0x0000008c:    000000e3    ....    DCD    227
        0x00000090:    000000e3    ....    DCD    227
        0x00000094:    000000e3    ....    DCD    227
        0x00000098:    000000e3    ....    DCD    227
        0x0000009c:    000000e3    ....    DCD    227
        0x000000a0:    000000e3    ....    DCD    227
        0x000000a4:    000000e3    ....    DCD    227
        0x000000a8:    000000e3    ....    DCD    227
        0x000000ac:    000000e3    ....    DCD    227
        0x000000b0:    000000e3    ....    DCD    227
        0x000000b4:    000000e3    ....    DCD    227
        0x000000b8:    000000e3    ....    DCD    227
        0x000000bc:    000000e3    ....    DCD    227
    $t
    $v0
    Reset_Handler
        0x000000c0:    f64e5088    N..P    MOV      r0,#0xed88
        0x000000c4:    f2ce0000    ....    MOVT     r0,#0xe000
        0x000000c8:    6801        .h      LDR      r1,[r0,#0]
        0x000000ca:    f4410170    A.p.    ORR      r1,r1,#0xf00000
        0x000000ce:    6001        .`      STR      r1,[r0,#0]
        0x000000d0:    f3bf8f4f    ..O.    DSB      
        0x000000d4:    f3bf8f6f    ..o.    ISB      
        0x000000d8:    4802        .H      LDR      r0,[pc,#8] ; [0xe4] = 0xe9
        0x000000da:    4700        .G      BX       r0
    am_nmi_isr
        0x000000dc:    e7fe        ..      B        am_nmi_isr ; 0xdc
    am_fault_isr
        0x000000de:    e7fe        ..      B        am_fault_isr ; 0xde
    am_memmanage_isr
        0x000000e0:    e7fe        ..      B        am_memmanage_isr ; 0xe0
    am_adc_isr
    am_brownout_isr
    am_clkgen_isr
    am_ctimer_isr
    am_debugmon_isr
    am_flash_isr
    am_iomaster0_isr
    am_iomaster1_isr
    am_iomaster2_isr
    am_iomaster3_isr
    am_iomaster4_isr
    am_iomaster5_isr
    am_ioslave_acc_isr
    am_ioslave_ios_isr
    am_pdm0_isr
    am_pendsv_isr
    am_software0_isr
    am_software1_isr
    am_software2_isr
    am_software3_isr
    am_stimer_cmpr0_isr
    am_stimer_cmpr1_isr
    am_stimer_cmpr2_isr
    am_stimer_cmpr3_isr
    am_stimer_cmpr4_isr
    am_stimer_cmpr5_isr
    am_stimer_cmpr6_isr
    am_stimer_cmpr7_isr
    am_stimer_isr
    am_svcall_isr
    am_systick_isr
    am_uart0_isr
    am_uart1_isr
    am_uart_isr
    am_vcomp_isr
    am_watchdog_isr
        0x000000e2:    e7fe        ..      B        am_adc_isr ; 0xe2
    $d
        0x000000e4:    000000e9    ....    DCD    233
    $t
    !!!main
    __main
        0x000000e8:    f000f802    ....    BL       __scatterload ; 0xf0
        0x000000ec:    f000f83c    ..<.    BL       __rt_entry ; 0x168
    !!!scatter
    __scatterload
    __scatterload_rt2
    __scatterload_rt2_thumb_only
        0x000000f0:    a00a        ..      ADR      r0,{pc}+0x2c ; 0x11c
        0x000000f2:    e8900c00    ....    LDM      r0,{r10,r11}
        0x000000f6:    4482        .D      ADD      r10,r10,r0
        0x000000f8:    4483        .D      ADD      r11,r11,r0
        0x000000fa:    f1aa0701    ....    SUB      r7,r10,#1
    __scatterload_null
        0x000000fe:    45da        .E      CMP      r10,r11
        0x00000100:    d101        ..      BNE      0x106 ; __scatterload_null + 8
        0x00000102:    f000f831    ..1.    BL       __rt_entry ; 0x168
        0x00000106:    f2af0e09    ....    ADR      lr,{pc}-7 ; 0xff
        0x0000010a:    e8ba000f    ....    LDM      r10!,{r0-r3}
        0x0000010e:    f0130f01    ....    TST      r3,#1
        0x00000112:    bf18        ..      IT       NE
        0x00000114:    1afb        ..      SUBNE    r3,r7,r3
        0x00000116:    f0430301    C...    ORR      r3,r3,#1
        0x0000011a:    4718        .G      BX       r3
    $d
        0x0000011c:    00003cc4    .<..    DCD    15556
        0x00000120:    00003ce4    .<..    DCD    15588
    $t
    !!handler_copy
    __scatterload_copy
        0x00000124:    3a10        .:      SUBS     r2,r2,#0x10
        0x00000126:    bf24        $.      ITT      CS
        0x00000128:    c878        x.      LDMCS    r0!,{r3-r6}
        0x0000012a:    c178        x.      STMCS    r1!,{r3-r6}
        0x0000012c:    d8fa        ..      BHI      __scatterload_copy ; 0x124
        0x0000012e:    0752        R.      LSLS     r2,r2,#29
        0x00000130:    bf24        $.      ITT      CS
        0x00000132:    c830        0.      LDMCS    r0!,{r4,r5}
        0x00000134:    c130        0.      STMCS    r1!,{r4,r5}
        0x00000136:    bf44        D.      ITT      MI
        0x00000138:    6804        .h      LDRMI    r4,[r0,#0]
        0x0000013a:    600c        .`      STRMI    r4,[r1,#0]
        0x0000013c:    4770        pG      BX       lr
        0x0000013e:    0000        ..      MOVS     r0,r0
    !!handler_zi
    __scatterload_zeroinit
        0x00000140:    2300        .#      MOVS     r3,#0
        0x00000142:    2400        .$      MOVS     r4,#0
        0x00000144:    2500        .%      MOVS     r5,#0
        0x00000146:    2600        .&      MOVS     r6,#0
        0x00000148:    3a10        .:      SUBS     r2,r2,#0x10
        0x0000014a:    bf28        (.      IT       CS
        0x0000014c:    c178        x.      STMCS    r1!,{r3-r6}
        0x0000014e:    d8fb        ..      BHI      0x148 ; __scatterload_zeroinit + 8
        0x00000150:    0752        R.      LSLS     r2,r2,#29
        0x00000152:    bf28        (.      IT       CS
        0x00000154:    c130        0.      STMCS    r1!,{r4,r5}
        0x00000156:    bf48        H.      IT       MI
        0x00000158:    600b        .`      STRMI    r3,[r1,#0]
        0x0000015a:    4770        pG      BX       lr
    .ARM.Collect$$libinit$$00000000
    __rt_lib_init
        0x0000015c:    b51f        ..      PUSH     {r0-r4,lr}
    .ARM.Collect$$libinit$$00000001
    __rt_lib_init_fp_1
        0x0000015e:    f002f805    ....    BL       _fp_init ; 0x216c
    .ARM.Collect$$libinit$$00000004
    .ARM.Collect$$libinit$$0000000A
    .ARM.Collect$$libinit$$0000000C
    .ARM.Collect$$libinit$$0000000E
    .ARM.Collect$$libinit$$00000011
    .ARM.Collect$$libinit$$00000013
    .ARM.Collect$$libinit$$00000015
    .ARM.Collect$$libinit$$00000017
    .ARM.Collect$$libinit$$00000019
    .ARM.Collect$$libinit$$0000001B
    .ARM.Collect$$libinit$$0000001D
    .ARM.Collect$$libinit$$0000001F
    .ARM.Collect$$libinit$$00000021
    .ARM.Collect$$libinit$$00000023
    .ARM.Collect$$libinit$$00000025
    .ARM.Collect$$libinit$$0000002C
    .ARM.Collect$$libinit$$0000002E
    .ARM.Collect$$libinit$$00000030
    .ARM.Collect$$libinit$$00000032
    .ARM.Collect$$libinit$$00000033
    __rt_lib_init_alloca_1
    __rt_lib_init_argv_1
    __rt_lib_init_atexit_1
    __rt_lib_init_clock_1
    __rt_lib_init_cpp_1
    __rt_lib_init_exceptions_1
    __rt_lib_init_fp_trap_1
    __rt_lib_init_getenv_1
    __rt_lib_init_heap_1
    __rt_lib_init_lc_collate_1
    __rt_lib_init_lc_ctype_1
    __rt_lib_init_lc_monetary_1
    __rt_lib_init_lc_numeric_1
    __rt_lib_init_lc_time_1
    __rt_lib_init_preinit_1
    __rt_lib_init_rand_1
    __rt_lib_init_return
    __rt_lib_init_signal_1
    __rt_lib_init_stdio_1
    __rt_lib_init_user_alloc_1
        0x00000162:    bd1f        ..      POP      {r0-r4,pc}
    .ARM.Collect$$libshutdown$$00000000
    __rt_lib_shutdown
        0x00000164:    b510        ..      PUSH     {r4,lr}
    .ARM.Collect$$libshutdown$$00000002
    .ARM.Collect$$libshutdown$$00000004
    .ARM.Collect$$libshutdown$$00000007
    .ARM.Collect$$libshutdown$$0000000A
    .ARM.Collect$$libshutdown$$0000000C
    .ARM.Collect$$libshutdown$$0000000F
    .ARM.Collect$$libshutdown$$00000010
    __rt_lib_shutdown_cpp_1
    __rt_lib_shutdown_fp_trap_1
    __rt_lib_shutdown_heap_1
    __rt_lib_shutdown_return
    __rt_lib_shutdown_signal_1
    __rt_lib_shutdown_stdio_1
    __rt_lib_shutdown_user_alloc_1
        0x00000166:    bd10        ..      POP      {r4,pc}
    .ARM.Collect$$rtentry$$00000000
    .ARM.Collect$$rtentry$$00000002
    .ARM.Collect$$rtentry$$00000004
    __rt_entry
    __rt_entry_presh_1
    __rt_entry_sh
        0x00000168:    f000f83b    ..;.    BL       __user_setup_stackheap ; 0x1e2
        0x0000016c:    4611        .F      MOV      r1,r2
    .ARM.Collect$$rtentry$$00000009
    .ARM.Collect$$rtentry$$0000000A
    __rt_entry_li
    __rt_entry_postsh_1
        0x0000016e:    f7fffff5    ....    BL       __rt_lib_init ; 0x15c
    .ARM.Collect$$rtentry$$0000000C
    .ARM.Collect$$rtentry$$0000000D
    __rt_entry_main
    __rt_entry_postli_1
        0x00000172:    f001fe21    ..!.    BL       main ; 0x1db8
        0x00000176:    f000f859    ..Y.    BL       exit ; 0x22c
    .ARM.Collect$$rtexit$$00000000
    __rt_exit
        0x0000017a:    b403        ..      PUSH     {r0,r1}
    .ARM.Collect$$rtexit$$00000002
    .ARM.Collect$$rtexit$$00000003
    __rt_exit_ls
    __rt_exit_prels_1
        0x0000017c:    f7fffff2    ....    BL       __rt_lib_shutdown ; 0x164
    .ARM.Collect$$rtexit$$00000004
    __rt_exit_exit
        0x00000180:    bc03        ..      POP      {r0,r1}
        0x00000182:    f000f861    ..a.    BL       _sys_exit ; 0x248
        0x00000186:    0000        ..      MOVS     r0,r0
    .emb_text
    $v0
    am_hal_interrupt_master_enable
        0x00000188:    f3ef8010    ....    MRS      r0,PRIMASK
        0x0000018c:    b662        b.      CPSIE    i
        0x0000018e:    4770        pG      BX       lr
    am_hal_interrupt_master_disable
        0x00000190:    f3ef8010    ....    MRS      r0,PRIMASK
        0x00000194:    b672        r.      CPSID    i
        0x00000196:    4770        pG      BX       lr
    am_hal_interrupt_master_set
        0x00000198:    f3808810    ....    MSR      PRIMASK,r0
        0x0000019c:    4770        pG      BX       lr
        0x0000019e:    0000        ..      MOVS     r0,r0
    .emb_text
    $v0
    __asm___12_am_hal_iom_c_97762dd2__iom_workaround_loop
        0x000001a0:    b132        2.      CBZ      r2,0x1b0 ; __asm___12_am_hal_iom_c_97762dd2__iom_workaround_loop + 16
        0x000001a2:    4a07        .J      LDR      r2,[pc,#28] ; [0x1c0] = 0x40010084
        0x000001a4:    6813        .h      LDR      r3,[r2,#0]
        0x000001a6:    f4135380    ...S    ANDS     r3,r3,#0x1000
        0x000001aa:    d0fb        ..      BEQ      0x1a4 ; __asm___12_am_hal_iom_c_97762dd2__iom_workaround_loop + 4
        0x000001ac:    6008        .`      STR      r0,[r1,#0]
        0x000001ae:    4770        pG      BX       lr
        0x000001b0:    4a03        .J      LDR      r2,[pc,#12] ; [0x1c0] = 0x40010084
        0x000001b2:    6813        .h      LDR      r3,[r2,#0]
        0x000001b4:    f4135380    ...S    ANDS     r3,r3,#0x1000
        0x000001b8:    d1fb        ..      BNE      0x1b2 ; __asm___12_am_hal_iom_c_97762dd2__iom_workaround_loop + 18
        0x000001ba:    6008        .`      STR      r0,[r1,#0]
        0x000001bc:    4770        pG      BX       lr
        0x000001be:    bf00        ..      NOP      
    $d
        0x000001c0:    40010084    ...@    DCD    1073807492
    $t
    .text
    $v0
    __user_initial_stackheap
        0x000001c4:    4802        .H      LDR      r0,[pc,#8] ; [0x1d0] = 0x10000550
        0x000001c6:    4903        .I      LDR      r1,[pc,#12] ; [0x1d4] = 0x10001550
        0x000001c8:    4a01        .J      LDR      r2,[pc,#4] ; [0x1d0] = 0x10000550
        0x000001ca:    4b03        .K      LDR      r3,[pc,#12] ; [0x1d8] = 0x10000550
        0x000001cc:    4770        pG      BX       lr
    $d
        0x000001ce:    0000        ..      DCW    0
        0x000001d0:    10000550    P...    DCD    268436816
        0x000001d4:    10001550    P...    DCD    268440912
        0x000001d8:    10000550    P...    DCD    268436816
    $t
    .text
    __use_two_region_memory
        0x000001dc:    4770        pG      BX       lr
    __rt_heap_escrow$2region
        0x000001de:    4770        pG      BX       lr
    __rt_heap_expand$2region
        0x000001e0:    4770        pG      BX       lr
    .text
    __user_setup_stackheap
        0x000001e2:    4675        uF      MOV      r5,lr
        0x000001e4:    f000f82c    ..,.    BL       __user_libspace ; 0x240
        0x000001e8:    46ae        .F      MOV      lr,r5
        0x000001ea:    0005        ..      MOVS     r5,r0
        0x000001ec:    4669        iF      MOV      r1,sp
        0x000001ee:    4653        SF      MOV      r3,r10
        0x000001f0:    f0200007     ...    BIC      r0,r0,#7
        0x000001f4:    4685        .F      MOV      sp,r0
        0x000001f6:    b018        ..      ADD      sp,sp,#0x60
        0x000001f8:    b520         .      PUSH     {r5,lr}
        0x000001fa:    f7ffffe3    ....    BL       __user_initial_stackheap ; 0x1c4
        0x000001fe:    e8bd4020    .. @    POP      {r5,lr}
        0x00000202:    f04f0600    O...    MOV      r6,#0
        0x00000206:    f04f0700    O...    MOV      r7,#0
        0x0000020a:    f04f0800    O...    MOV      r8,#0
        0x0000020e:    f04f0b00    O...    MOV      r11,#0
        0x00000212:    f0210107    !...    BIC      r1,r1,#7
        0x00000216:    46ac        .F      MOV      r12,r5
        0x00000218:    e8ac09c0    ....    STM      r12!,{r6-r8,r11}
        0x0000021c:    e8ac09c0    ....    STM      r12!,{r6-r8,r11}
        0x00000220:    e8ac09c0    ....    STM      r12!,{r6-r8,r11}
        0x00000224:    e8ac09c0    ....    STM      r12!,{r6-r8,r11}
        0x00000228:    468d        .F      MOV      sp,r1
        0x0000022a:    4770        pG      BX       lr
    .text
    exit
        0x0000022c:    b510        ..      PUSH     {r4,lr}
        0x0000022e:    4604        .F      MOV      r4,r0
        0x00000230:    f3af8000    ....    NOP.W    
        0x00000234:    4620         F      MOV      r0,r4
        0x00000236:    e8bd4010    ...@    POP      {r4,lr}
        0x0000023a:    f7ffbf9e    ....    B.W      __rt_exit ; 0x17a
        0x0000023e:    0000        ..      MOVS     r0,r0
    .text
    __user_libspace
    __user_perproc_libspace
    __user_perthread_libspace
        0x00000240:    4800        .H      LDR      r0,[pc,#0] ; [0x244] = 0x100004ec
        0x00000242:    4770        pG      BX       lr
    $d
        0x00000244:    100004ec    ....    DCD    268436716
    $t
    .text
    _sys_exit
        0x00000248:    4901        .I      LDR      r1,[pc,#4] ; [0x250] = 0x20026
        0x0000024a:    2018        .       MOVS     r0,#0x18
        0x0000024c:    beab        ..      BKPT     #0xab
        0x0000024e:    e7fe        ..      B        0x24e ; _sys_exit + 6
    $d
        0x00000250:    00020026    &...    DCD    131110
    $t
    .text
    __I$use$semihosting
    __use_no_semihosting_swi
        0x00000254:    4770        pG      BX       lr
    .text
    __semihosting_library_function
        0x00000256:    0000        ..      MOVS     r0,r0
    i.am_bsp_iom_enable
    am_bsp_iom_enable
        0x00000258:    b5f8        ..      PUSH     {r3-r7,lr}
        0x0000025a:    4604        .F      MOV      r4,r0
        0x0000025c:    f000fb2c    ..,.    BL       am_hal_iom_enable ; 0x8b8
        0x00000260:    4d33        3M      LDR      r5,[pc,#204] ; [0x330] = 0x10000004
        0x00000262:    4934        4I      LDR      r1,[pc,#208] ; [0x334] = 0xdeadbeef
        0x00000264:    f8550034    U.4.    LDR      r0,[r5,r4,LSL #3]
        0x00000268:    4288        .B      CMP      r0,r1
        0x0000026a:    bf08        ..      IT       EQ
        0x0000026c:    bdf8        ..      POPEQ    {r3-r7,pc}
        0x0000026e:    0321        !.      LSLS     r1,r4,#12
        0x00000270:    f10141a0    ...A    ADD      r1,r1,#0x50000000
        0x00000274:    f5014180    ...A    ADD      r1,r1,#0x4000
        0x00000278:    f8d1111c    ....    LDR      r1,[r1,#0x11c]
        0x0000027c:    f0110f01    ....    TST      r1,#1
        0x00000280:    bf08        ..      IT       EQ
        0x00000282:    bdf8        ..      POPEQ    {r3-r7,pc}
        0x00000284:    2832        2(      CMP      r0,#0x32
        0x00000286:    bf28        (.      IT       CS
        0x00000288:    bdf8        ..      POPCS    {r3-r7,pc}
        0x0000028a:    f7ffff81    ....    BL       am_hal_interrupt_master_disable ; 0x190
        0x0000028e:    4a2a        *J      LDR      r2,[pc,#168] ; [0x338] = 0x40010000
        0x00000290:    9000        ..      STR      r0,[sp,#0]
        0x00000292:    2073        s       MOVS     r0,#0x73
        0x00000294:    6610        .f      STR      r0,[r2,#0x60]
        0x00000296:    eb0500c4    ....    ADD      r0,r5,r4,LSL #3
        0x0000029a:    f8553034    U.40    LDR      r3,[r5,r4,LSL #3]
        0x0000029e:    8881        ..      LDRH     r1,[r0,#4]
        0x000002a0:    f3c12c02    ...,    UBFX     r12,r1,#8,#3
        0x000002a4:    0759        Y.      LSLS     r1,r3,#29
        0x000002a6:    0ec9        ..      LSRS     r1,r1,#27
        0x000002a8:    fa0cf601    ....    LSL      r6,r12,r1
        0x000002ac:    f04f0c7c    O.|.    MOV      r12,#0x7c
        0x000002b0:    ea0c0353    ..S.    AND      r3,r12,r3,LSR #1
        0x000002b4:    4413        .D      ADD      r3,r3,r2
        0x000002b6:    f8d3c040    ..@.    LDR      r12,[r3,#0x40]
        0x000002ba:    2707        .'      MOVS     r7,#7
        0x000002bc:    fa07f101    ....    LSL      r1,r7,r1
        0x000002c0:    ea2c0101    ,...    BIC      r1,r12,r1
        0x000002c4:    4331        1C      ORRS     r1,r1,r6
        0x000002c6:    6419        .d      STR      r1,[r3,#0x40]
        0x000002c8:    f8151034    ..4.    LDRB     r1,[r5,r4,LSL #3]
        0x000002cc:    7903        .y      LDRB     r3,[r0,#4]
        0x000002ce:    ea4f7c81    O..|    LSL      r12,r1,#30
        0x000002d2:    f00101fc    ....    AND      r1,r1,#0xfc
        0x000002d6:    4411        .D      ADD      r1,r1,r2
        0x000002d8:    ea4f6cdc    O..l    LSR      r12,r12,#27
        0x000002dc:    680f        .h      LDR      r7,[r1,#0]
        0x000002de:    fa03f60c    ....    LSL      r6,r3,r12
        0x000002e2:    23ff        .#      MOVS     r3,#0xff
        0x000002e4:    fa03fc0c    ....    LSL      r12,r3,r12
        0x000002e8:    ea270c0c    '...    BIC      r12,r7,r12
        0x000002ec:    ea460c0c    F...    ORR      r12,r6,r12
        0x000002f0:    f8c1c000    ....    STR      r12,[r1,#0]
        0x000002f4:    6840        @h      LDR      r0,[r0,#4]
        0x000002f6:    f8151034    ..4.    LDRB     r1,[r5,r4,LSL #3]
        0x000002fa:    f3c04c07    ...L    UBFX     r12,r0,#16,#8
        0x000002fe:    0788        ..      LSLS     r0,r1,#30
        0x00000300:    f00101fc    ....    AND      r1,r1,#0xfc
        0x00000304:    4411        .D      ADD      r1,r1,r2
        0x00000306:    0ec0        ..      LSRS     r0,r0,#27
        0x00000308:    f8d140e0    ...@    LDR      r4,[r1,#0xe0]
        0x0000030c:    fa0cfc00    ....    LSL      r12,r12,r0
        0x00000310:    fa03f000    ....    LSL      r0,r3,r0
        0x00000314:    ea240000    $...    BIC      r0,r4,r0
        0x00000318:    ea4c0000    L...    ORR      r0,r12,r0
        0x0000031c:    f8c100e0    ....    STR      r0,[r1,#0xe0]
        0x00000320:    2000        .       MOVS     r0,#0
        0x00000322:    6610        .f      STR      r0,[r2,#0x60]
        0x00000324:    9800        ..      LDR      r0,[sp,#0]
        0x00000326:    e8bd40f8    ...@    POP      {r3-r7,lr}
        0x0000032a:    f7ffbf35    ..5.    B.W      am_hal_interrupt_master_set ; 0x198
    $d
        0x0000032e:    0000        ..      DCW    0
        0x00000330:    10000004    ....    DCD    268435460
        0x00000334:    deadbeef    ....    DCD    3735928559
        0x00000338:    40010000    ...@    DCD    1073807360
    $t
    i.am_bsp_low_power_init
    am_bsp_low_power_init
        0x0000033c:    b510        ..      PUSH     {r4,lr}
        0x0000033e:    f001fa33    ..3.    BL       am_hal_pwrctrl_bucks_init ; 0x17a8
        0x00000342:    f001fa51    ..Q.    BL       am_hal_pwrctrl_low_power_init ; 0x17e8
        0x00000346:    f001fc61    ..a.    BL       am_hal_vcomp_disable ; 0x1c0c
        0x0000034a:    2001        .       MOVS     r0,#1
        0x0000034c:    f001fbcc    ....    BL       am_hal_rtc_osc_select ; 0x1ae8
        0x00000350:    2001        .       MOVS     r0,#1
        0x00000352:    f000f877    ..w.    BL       am_hal_clkgen_osc_stop ; 0x444
        0x00000356:    e8bd4010    ...@    POP      {r4,lr}
        0x0000035a:    f001bbbe    ....    B.W      am_hal_rtc_osc_disable ; 0x1ada
    i.am_gpio_isr
    am_gpio_isr
        0x0000035e:    b570        p.      PUSH     {r4-r6,lr}
        0x00000360:    2000        .       MOVS     r0,#0
        0x00000362:    f000f93f    ..?.    BL       am_hal_gpio_int_status_get ; 0x5e4
        0x00000366:    4604        .F      MOV      r4,r0
        0x00000368:    460d        .F      MOV      r5,r1
        0x0000036a:    4620         F      MOV      r0,r4
        0x0000036c:    4629        )F      MOV      r1,r5
        0x0000036e:    f000f927    ..'.    BL       am_hal_gpio_int_clear ; 0x5c0
        0x00000372:    bd70        p.      POP      {r4-r6,pc}
    i.am_hal_cachectrl_enable
    am_hal_cachectrl_enable
        0x00000374:    b570        p.      PUSH     {r4-r6,lr}
        0x00000376:    4604        .F      MOV      r4,r0
        0x00000378:    78c0        .x      LDRB     r0,[r0,#3]
        0x0000037a:    7861        ax      LDRB     r1,[r4,#1]
        0x0000037c:    2202        ."      MOVS     r2,#2
        0x0000037e:    ea020141    ..A.    AND      r1,r2,r1,LSL #1
        0x00000382:    4301        .C      ORRS     r1,r1,r0
        0x00000384:    78a0        .x      LDRB     r0,[r4,#2]
        0x00000386:    2204        ."      MOVS     r2,#4
        0x00000388:    ea020280    ....    AND      r2,r2,r0,LSL #2
        0x0000038c:    f3c00040    ..@.    UBFX     r0,r0,#1,#1
        0x00000390:    ea4200c0    B...    ORR      r0,r2,r0,LSL #3
        0x00000394:    4308        .C      ORRS     r0,r0,r1
        0x00000396:    7921        !y      LDRB     r1,[r4,#4]
        0x00000398:    2280        ."      MOVS     r2,#0x80
        0x0000039a:    ea0211c1    ....    AND      r1,r2,r1,LSL #7
        0x0000039e:    4308        .C      ORRS     r0,r0,r1
        0x000003a0:    79a1        .y      LDRB     r1,[r4,#6]
        0x000003a2:    00d2        ..      LSLS     r2,r2,#3
        0x000003a4:    ea022181    ...!    AND      r1,r2,r1,LSL #10
        0x000003a8:    4308        .C      ORRS     r0,r0,r1
        0x000003aa:    79e1        .y      LDRB     r1,[r4,#7]
        0x000003ac:    0052        R.      LSLS     r2,r2,#1
        0x000003ae:    ea0221c1    ...!    AND      r1,r2,r1,LSL #11
        0x000003b2:    4308        .C      ORRS     r0,r0,r1
        0x000003b4:    7a21        !z      LDRB     r1,[r4,#8]
        0x000003b6:    f44f4270    O.pB    MOV      r2,#0xf000
        0x000003ba:    ea023101    ...1    AND      r1,r2,r1,LSL #12
        0x000003be:    4308        .C      ORRS     r0,r0,r1
        0x000003c0:    7a61        az      LDRB     r1,[r4,#9]
        0x000003c2:    0112        ..      LSLS     r2,r2,#4
        0x000003c4:    ea024101    ...A    AND      r1,r2,r1,LSL #16
        0x000003c8:    4308        .C      ORRS     r0,r0,r1
        0x000003ca:    7aa1        .z      LDRB     r1,[r4,#0xa]
        0x000003cc:    f44f1280    O...    MOV      r2,#0x100000
        0x000003d0:    ea025101    ...Q    AND      r1,r2,r1,LSL #20
        0x000003d4:    4308        .C      ORRS     r0,r0,r1
        0x000003d6:    7ae1        .z      LDRB     r1,[r4,#0xb]
        0x000003d8:    0112        ..      LSLS     r2,r2,#4
        0x000003da:    ea026101    ...a    AND      r1,r2,r1,LSL #24
        0x000003de:    4308        .C      ORRS     r0,r0,r1
        0x000003e0:    f0400501    @...    ORR      r5,r0,#1
        0x000003e4:    f04f4020    O. @    MOV      r0,#0xa0000000
        0x000003e8:    f001fa0a    ....    BL       am_hal_pwrctrl_memory_enable ; 0x1800
        0x000003ec:    4814        .H      LDR      r0,[pc,#80] ; [0x440] = 0x40018000
        0x000003ee:    6005        .`      STR      r5,[r0,#0]
        0x000003f0:    2100        .!      MOVS     r1,#0
        0x000003f2:    6882        .h      LDR      r2,[r0,#8]
        0x000003f4:    f0120f04    ....    TST      r2,#4
        0x000003f8:    bf04        ..      ITT      EQ
        0x000003fa:    6882        .h      LDREQ    r2,[r0,#8]
        0x000003fc:    f0120f04    ....    TSTEQ    r2,#4
        0x00000400:    d102        ..      BNE      0x408 ; am_hal_cachectrl_enable + 148
        0x00000402:    1c89        ..      ADDS     r1,r1,#2
        0x00000404:    2932        2)      CMP      r1,#0x32
        0x00000406:    d3f4        ..      BCC      0x3f2 ; am_hal_cachectrl_enable + 126
        0x00000408:    6881        .h      LDR      r1,[r0,#8]
        0x0000040a:    f0410101    A...    ORR      r1,r1,#1
        0x0000040e:    6081        .`      STR      r1,[r0,#8]
        0x00000410:    2100        .!      MOVS     r1,#0
        0x00000412:    6882        .h      LDR      r2,[r0,#8]
        0x00000414:    f0120f04    ....    TST      r2,#4
        0x00000418:    bf04        ..      ITT      EQ
        0x0000041a:    6882        .h      LDREQ    r2,[r0,#8]
        0x0000041c:    f0120f04    ....    TSTEQ    r2,#4
        0x00000420:    d102        ..      BNE      0x428 ; am_hal_cachectrl_enable + 180
        0x00000422:    1c89        ..      ADDS     r1,r1,#2
        0x00000424:    2932        2)      CMP      r1,#0x32
        0x00000426:    d3f4        ..      BCC      0x412 ; am_hal_cachectrl_enable + 158
        0x00000428:    7961        ay      LDRB     r1,[r4,#5]
        0x0000042a:    f44f7280    O..r    MOV      r2,#0x100
        0x0000042e:    ea022201    ..."    AND      r2,r2,r1,LSL #8
        0x00000432:    f3c10140    ..@.    UBFX     r1,r1,#1,#1
        0x00000436:    ea422141    B.A!    ORR      r1,r2,r1,LSL #9
        0x0000043a:    4329        )C      ORRS     r1,r1,r5
        0x0000043c:    6001        .`      STR      r1,[r0,#0]
        0x0000043e:    bd70        p.      POP      {r4-r6,pc}
    $d
        0x00000440:    40018000    ...@    DCD    1073840128
    $t
    i.am_hal_clkgen_osc_stop
    am_hal_clkgen_osc_stop
        0x00000444:    f0100f03    ....    TST      r0,#3
        0x00000448:    bf08        ..      IT       EQ
        0x0000044a:    4770        pG      BXEQ     lr
        0x0000044c:    f04f2140    O.@!    MOV      r1,#0x40004000
        0x00000450:    68ca        .h      LDR      r2,[r1,#0xc]
        0x00000452:    4310        .C      ORRS     r0,r0,r2
        0x00000454:    60c8        .`      STR      r0,[r1,#0xc]
        0x00000456:    4770        pG      BX       lr
    i.am_hal_clkgen_sysclk_get
    am_hal_clkgen_sysclk_get
        0x00000458:    f04f2140    O.@!    MOV      r1,#0x40004000
        0x0000045c:    6989        .i      LDR      r1,[r1,#0x18]
        0x0000045e:    f0110101    ....    ANDS     r1,r1,#1
        0x00000462:    bf04        ..      ITT      EQ
        0x00000464:    4802        .H      LDREQ    r0,[pc,#8] ; [0x470] = 0x2dc6c00
        0x00000466:    4770        pG      BXEQ     lr
        0x00000468:    2900        .)      CMP      r1,#0
        0x0000046a:    bf18        ..      IT       NE
        0x0000046c:    4801        .H      LDRNE    r0,[pc,#4] ; [0x474] = 0x16e3600
        0x0000046e:    4770        pG      BX       lr
    $d
        0x00000470:    02dc6c00    .l..    DCD    48000000
        0x00000474:    016e3600    .6n.    DCD    24000000
    $t
    i.am_hal_clkgen_sysclk_select
    am_hal_clkgen_sysclk_select
        0x00000478:    b510        ..      PUSH     {r4,lr}
        0x0000047a:    0004        ..      MOVS     r4,r0
        0x0000047c:    d004        ..      BEQ      0x488 ; am_hal_clkgen_sysclk_select + 16
        0x0000047e:    a206        ..      ADR      r2,{pc}+0x1a ; 0x498
        0x00000480:    2152        R!      MOVS     r1,#0x52
        0x00000482:    a013        ..      ADR      r0,{pc}+0x4e ; 0x4d0
        0x00000484:    f000f87c    ..|.    BL       am_hal_debug_error ; 0x580
        0x00000488:    f04f2040    O.@     MOV      r0,#0x40004000
        0x0000048c:    2147        G!      MOVS     r1,#0x47
        0x0000048e:    6141        Aa      STR      r1,[r0,#0x14]
        0x00000490:    6184        .a      STR      r4,[r0,#0x18]
        0x00000492:    2100        .!      MOVS     r1,#0
        0x00000494:    6141        Aa      STR      r1,[r0,#0x14]
        0x00000496:    bd10        ..      POP      {r4,pc}
    $d
        0x00000498:    685f6d61    am_h    DCD    1751084385
        0x0000049c:    635f6c61    al_c    DCD    1667198049
        0x000004a0:    65676b6c    lkge    DCD    1701276524
        0x000004a4:    79735f6e    n_sy    DCD    2037604206
        0x000004a8:    6b6c6373    sclk    DCD    1802265459
        0x000004ac:    6c65735f    _sel    DCD    1818587999
        0x000004b0:    28746365    ect(    DCD    678716261
        0x000004b4:    69203a29    ): i    DCD    1763719721
        0x000004b8:    6c61766e    nval    DCD    1818326638
        0x000004bc:    63206469    id c    DCD    1663067241
        0x000004c0:    6b636f6c    lock    DCD    1801678700
        0x000004c4:    74657320     set    DCD    1952805664
        0x000004c8:    676e6974    ting    DCD    1735289204
        0x000004cc:    0000002e    ....    DCD    46
        0x000004d0:    685f6d61    am_h    DCD    1751084385
        0x000004d4:    635f6c61    al_c    DCD    1667198049
        0x000004d8:    65676b6c    lkge    DCD    1701276524
        0x000004dc:    00632e6e    n.c.    DCD    6499950
    $t
    i.am_hal_ctimer_clear
    am_hal_ctimer_clear
        0x000004e0:    b538        8.      PUSH     {r3-r5,lr}
        0x000004e2:    460d        .F      MOV      r5,r1
        0x000004e4:    4907        .I      LDR      r1,[pc,#28] ; [0x504] = 0x4000800c
        0x000004e6:    eb011400    ....    ADD      r4,r1,r0,LSL #4
        0x000004ea:    f7fffe51    ..Q.    BL       am_hal_interrupt_master_disable ; 0x190
        0x000004ee:    9000        ..      STR      r0,[sp,#0]
        0x000004f0:    6820         h      LDR      r0,[r4,#0]
        0x000004f2:    f0052108    ...!    AND      r1,r5,#0x8000800
        0x000004f6:    4308        .C      ORRS     r0,r0,r1
        0x000004f8:    6020         `      STR      r0,[r4,#0]
        0x000004fa:    9800        ..      LDR      r0,[sp,#0]
        0x000004fc:    e8bd4038    ..8@    POP      {r3-r5,lr}
        0x00000500:    f7ffbe4a    ..J.    B.W      am_hal_interrupt_master_set ; 0x198
    $d
        0x00000504:    4000800c    ...@    DCD    1073774604
    $t
    i.am_hal_ctimer_int_disable
    am_hal_ctimer_int_disable
        0x00000508:    b538        8.      PUSH     {r3-r5,lr}
        0x0000050a:    4604        .F      MOV      r4,r0
        0x0000050c:    f7fffe40    ..@.    BL       am_hal_interrupt_master_disable ; 0x190
        0x00000510:    9000        ..      STR      r0,[sp,#0]
        0x00000512:    4805        .H      LDR      r0,[pc,#20] ; [0x528] = 0x40008000
        0x00000514:    f8d01200    ....    LDR      r1,[r0,#0x200]
        0x00000518:    43a1        .C      BICS     r1,r1,r4
        0x0000051a:    f8c01200    ....    STR      r1,[r0,#0x200]
        0x0000051e:    9800        ..      LDR      r0,[sp,#0]
        0x00000520:    e8bd4038    ..8@    POP      {r3-r5,lr}
        0x00000524:    f7ffbe38    ..8.    B.W      am_hal_interrupt_master_set ; 0x198
    $d
        0x00000528:    40008000    ...@    DCD    1073774592
    $t
    i.am_hal_ctimer_int_enable
    am_hal_ctimer_int_enable
        0x0000052c:    b538        8.      PUSH     {r3-r5,lr}
        0x0000052e:    4604        .F      MOV      r4,r0
        0x00000530:    f7fffe2e    ....    BL       am_hal_interrupt_master_disable ; 0x190
        0x00000534:    9000        ..      STR      r0,[sp,#0]
        0x00000536:    4805        .H      LDR      r0,[pc,#20] ; [0x54c] = 0x40008000
        0x00000538:    f8d01200    ....    LDR      r1,[r0,#0x200]
        0x0000053c:    4321        !C      ORRS     r1,r1,r4
        0x0000053e:    f8c01200    ....    STR      r1,[r0,#0x200]
        0x00000542:    9800        ..      LDR      r0,[sp,#0]
        0x00000544:    e8bd4038    ..8@    POP      {r3-r5,lr}
        0x00000548:    f7ffbe26    ..&.    B.W      am_hal_interrupt_master_set ; 0x198
    $d
        0x0000054c:    40008000    ...@    DCD    1073774592
    $t
    i.am_hal_ctimer_start
    am_hal_ctimer_start
        0x00000550:    b538        8.      PUSH     {r3-r5,lr}
        0x00000552:    460c        .F      MOV      r4,r1
        0x00000554:    4909        .I      LDR      r1,[pc,#36] ; [0x57c] = 0x4000800c
        0x00000556:    eb011500    ....    ADD      r5,r1,r0,LSL #4
        0x0000055a:    f7fffe19    ....    BL       am_hal_interrupt_master_disable ; 0x190
        0x0000055e:    9000        ..      STR      r0,[sp,#0]
        0x00000560:    6828        (h      LDR      r0,[r5,#0]
        0x00000562:    f0042108    ...!    AND      r1,r4,#0x8000800
        0x00000566:    4388        .C      BICS     r0,r0,r1
        0x00000568:    f0041101    ....    AND      r1,r4,#0x10001
        0x0000056c:    4308        .C      ORRS     r0,r0,r1
        0x0000056e:    6028        (`      STR      r0,[r5,#0]
        0x00000570:    9800        ..      LDR      r0,[sp,#0]
        0x00000572:    e8bd4038    ..8@    POP      {r3-r5,lr}
        0x00000576:    f7ffbe0f    ....    B.W      am_hal_interrupt_master_set ; 0x198
    $d
        0x0000057a:    0000        ..      DCW    0
        0x0000057c:    4000800c    ...@    DCD    1073774604
    $t
    i.am_hal_debug_error
    am_hal_debug_error
        0x00000580:    e7fe        ..      B        am_hal_debug_error ; 0x580
        0x00000582:    0000        ..      MOVS     r0,r0
    i.am_hal_flash_delay
    am_hal_flash_delay
        0x00000584:    4900        .I      LDR      r1,[pc,#0] ; [0x588] = 0x800009d
        0x00000586:    4708        .G      BX       r1
    $d
        0x00000588:    0800009d    ....    DCD    134217885
    $t
    i.am_hal_flash_delay_status_change
    am_hal_flash_delay_status_change
        0x0000058c:    e92d41f0    -..A    PUSH     {r4-r8,lr}
        0x00000590:    461d        .F      MOV      r5,r3
        0x00000592:    4616        .F      MOV      r6,r2
        0x00000594:    460f        .F      MOV      r7,r1
        0x00000596:    1e44        D.      SUBS     r4,r0,#1
        0x00000598:    bf28        (.      IT       CS
        0x0000059a:    f8df8020    .. .    LDRCS    r8,[pc,#32] ; [0x5bc] = 0x800009d
        0x0000059e:    d30a        ..      BCC      0x5b6 ; am_hal_flash_delay_status_change + 42
        0x000005a0:    6838        8h      LDR      r0,[r7,#0]
        0x000005a2:    4030        0@      ANDS     r0,r0,r6
        0x000005a4:    42a8        .B      CMP      r0,r5
        0x000005a6:    d102        ..      BNE      0x5ae ; am_hal_flash_delay_status_change + 34
        0x000005a8:    2001        .       MOVS     r0,#1
        0x000005aa:    e8bd81f0    ....    POP      {r4-r8,pc}
        0x000005ae:    200c        .       MOVS     r0,#0xc
        0x000005b0:    47c0        .G      BLX      r8
        0x000005b2:    1e64        d.      SUBS     r4,r4,#1
        0x000005b4:    d2f4        ..      BCS      0x5a0 ; am_hal_flash_delay_status_change + 20
        0x000005b6:    2000        .       MOVS     r0,#0
        0x000005b8:    e8bd81f0    ....    POP      {r4-r8,pc}
    $d
        0x000005bc:    0800009d    ....    DCD    134217885
    $t
    i.am_hal_gpio_int_clear
    am_hal_gpio_int_clear
        0x000005c0:    b538        8.      PUSH     {r3-r5,lr}
        0x000005c2:    4604        .F      MOV      r4,r0
        0x000005c4:    460d        .F      MOV      r5,r1
        0x000005c6:    f7fffde3    ....    BL       am_hal_interrupt_master_disable ; 0x190
        0x000005ca:    9000        ..      STR      r0,[sp,#0]
        0x000005cc:    4804        .H      LDR      r0,[pc,#16] ; [0x5e0] = 0x40010000
        0x000005ce:    f8c05218    ...R    STR      r5,[r0,#0x218]
        0x000005d2:    f8c04208    ...B    STR      r4,[r0,#0x208]
        0x000005d6:    9800        ..      LDR      r0,[sp,#0]
        0x000005d8:    e8bd4038    ..8@    POP      {r3-r5,lr}
        0x000005dc:    f7ffbddc    ....    B.W      am_hal_interrupt_master_set ; 0x198
    $d
        0x000005e0:    40010000    ...@    DCD    1073807360
    $t
    i.am_hal_gpio_int_status_get
    am_hal_gpio_int_status_get
        0x000005e4:    b5f8        ..      PUSH     {r3-r7,lr}
        0x000005e6:    f04f34ff    O..4    MOV      r4,#0xffffffff
        0x000005ea:    4606        .F      MOV      r6,r0
        0x000005ec:    4625        %F      MOV      r5,r4
        0x000005ee:    f7fffdcf    ....    BL       am_hal_interrupt_master_disable ; 0x190
        0x000005f2:    9000        ..      STR      r0,[sp,#0]
        0x000005f4:    480c        .H      LDR      r0,[pc,#48] ; [0x628] = 0x40010000
        0x000005f6:    f8d03214    ...2    LDR      r3,[r0,#0x214]
        0x000005fa:    f8d02204    ..."    LDR      r2,[r0,#0x204]
        0x000005fe:    2100        .!      MOVS     r1,#0
        0x00000600:    430a        .C      ORRS     r2,r2,r1
        0x00000602:    430b        .C      ORRS     r3,r3,r1
        0x00000604:    b13e        >.      CBZ      r6,0x616 ; am_hal_gpio_int_status_get + 50
        0x00000606:    f8d0c210    ....    LDR      r12,[r0,#0x210]
        0x0000060a:    f8d00200    ....    LDR      r0,[r0,#0x200]
        0x0000060e:    ea41050c    A...    ORR      r5,r1,r12
        0x00000612:    ea400401    @...    ORR      r4,r0,r1
        0x00000616:    4014        .@      ANDS     r4,r4,r2
        0x00000618:    401d        .@      ANDS     r5,r5,r3
        0x0000061a:    9800        ..      LDR      r0,[sp,#0]
        0x0000061c:    f7fffdbc    ....    BL       am_hal_interrupt_master_set ; 0x198
        0x00000620:    4620         F      MOV      r0,r4
        0x00000622:    4629        )F      MOV      r1,r5
        0x00000624:    bdf8        ..      POP      {r3-r7,pc}
    $d
        0x00000626:    0000        ..      DCW    0
        0x00000628:    40010000    ...@    DCD    1073807360
    $t
    i.am_hal_iom_config
    am_hal_iom_config
        0x0000062c:    e92d5ff0    -.._    PUSH     {r4-r12,lr}
        0x00000630:    460c        .F      MOV      r4,r1
        0x00000632:    6809        .h      LDR      r1,[r1,#0]
        0x00000634:    4605        .F      MOV      r5,r0
        0x00000636:    2806        .(      CMP      r0,#6
        0x00000638:    bf28        (.      IT       CS
        0x0000063a:    e8bd9ff0    ....    POPCS    {r4-r12,pc}
        0x0000063e:    7a20         z      LDRB     r0,[r4,#8]
        0x00000640:    2800        .(      CMP      r0,#0
        0x00000642:    bf18        ..      IT       NE
        0x00000644:    f0410104    A...    ORRNE    r1,r1,#4
        0x00000648:    7a60        `z      LDRB     r0,[r4,#9]
        0x0000064a:    2800        .(      CMP      r0,#0
        0x0000064c:    bf18        ..      IT       NE
        0x0000064e:    f0410102    A...    ORRNE    r1,r1,#2
        0x00000652:    4a92        .J      LDR      r2,[pc,#584] ; [0x89c] = 0xf42400
        0x00000654:    6860        `h      LDR      r0,[r4,#4]
        0x00000656:    4290        .B      CMP      r0,r2
        0x00000658:    bf28        (.      IT       CS
        0x0000065a:    f0410120    A. .    ORRCS    r1,r1,#0x20
        0x0000065e:    0328        (.      LSLS     r0,r5,#12
        0x00000660:    f10046a0    ...F    ADD      r6,r0,#0x50000000
        0x00000664:    f5064680    ...F    ADD      r6,r6,#0x4000
        0x00000668:    f8c6111c    ....    STR      r1,[r6,#0x11c]
        0x0000066c:    7aa1        .z      LDRB     r1,[r4,#0xa]
        0x0000066e:    2904        .)      CMP      r1,#4
        0x00000670:    bf38        8.      IT       CC
        0x00000672:    2104        .!      MOVCC    r1,#4
        0x00000674:    d302        ..      BCC      0x67c ; am_hal_iom_config + 80
        0x00000676:    297c        |)      CMP      r1,#0x7c
        0x00000678:    bf88        ..      IT       HI
        0x0000067a:    217c        |!      MOVHI    r1,#0x7c
        0x0000067c:    f44f40fe    O..@    MOV      r0,#0x7f00
        0x00000680:    ea002001    ...     AND      r0,r0,r1,LSL #8
        0x00000684:    7ae1        .z      LDRB     r1,[r4,#0xb]
        0x00000686:    2904        .)      CMP      r1,#4
        0x00000688:    bf38        8.      IT       CC
        0x0000068a:    2104        .!      MOVCC    r1,#4
        0x0000068c:    d302        ..      BCC      0x694 ; am_hal_iom_config + 104
        0x0000068e:    297c        |)      CMP      r1,#0x7c
        0x00000690:    bf88        ..      IT       HI
        0x00000692:    217c        |!      MOVHI    r1,#0x7c
        0x00000694:    f001017f    ....    AND      r1,r1,#0x7f
        0x00000698:    4308        .C      ORRS     r0,r0,r1
        0x0000069a:    f8c60108    ....    STR      r0,[r6,#0x108]
        0x0000069e:    f04f0901    O...    MOV      r9,#1
        0x000006a2:    2d00        .-      CMP      r5,#0
        0x000006a4:    bf18        ..      IT       NE
        0x000006a6:    2d04        .-      CMPNE    r5,#4
        0x000006a8:    d007        ..      BEQ      0x6ba ; am_hal_iom_config + 142
        0x000006aa:    487d        }H      LDR      r0,[pc,#500] ; [0x8a0] = 0x40020000
        0x000006ac:    68c0        .h      LDR      r0,[r0,#0xc]
        0x000006ae:    b2c0        ..      UXTB     r0,r0
        0x000006b0:    2822        "(      CMP      r0,#0x22
        0x000006b2:    bf04        ..      ITT      EQ
        0x000006b4:    6820         h      LDREQ    r0,[r4,#0]
        0x000006b6:    2800        .(      CMPEQ    r0,#0
        0x000006b8:    d07d        }.      BEQ      0x7b6 ; am_hal_iom_config + 394
        0x000006ba:    6863        ch      LDR      r3,[r4,#4]
        0x000006bc:    f894b008    ....    LDRB     r11,[r4,#8]
        0x000006c0:    2b00        .+      CMP      r3,#0
        0x000006c2:    f00080db    ....    BEQ.W    0x87c ; am_hal_iom_config + 592
        0x000006c6:    4877        wH      LDR      r0,[pc,#476] ; [0x8a4] = 0x2dc6c00
        0x000006c8:    fbb0f1f3    ....    UDIV     r1,r0,r3
        0x000006cc:    fbb0f2f3    ....    UDIV     r2,r0,r3
        0x000006d0:    fb030012    ....    MLS      r0,r3,r2,r0
        0x000006d4:    2800        .(      CMP      r0,#0
        0x000006d6:    bf18        ..      IT       NE
        0x000006d8:    2001        .       MOVNE    r0,#1
        0x000006da:    eb010c00    ....    ADD      r12,r1,r0
        0x000006de:    f1cc0000    ....    RSB      r0,r12,#0
        0x000006e2:    ea0c0000    ....    AND      r0,r12,r0
        0x000006e6:    fab0f080    ....    CLZ      r0,r0
        0x000006ea:    f1c0021f    ....    RSB      r2,r0,#0x1f
        0x000006ee:    2a06        .*      CMP      r2,#6
        0x000006f0:    dc7e        ~.      BGT      0x7f0 ; am_hal_iom_config + 452
        0x000006f2:    bf00        ..      NOP      
        0x000006f4:    f5b36f37    ..7o    CMP      r3,#0xb70
        0x000006f8:    d909        ..      BLS      0x70e ; am_hal_iom_config + 226
        0x000006fa:    f5a30174    ..t.    SUB      r1,r3,#0xf40000
        0x000006fe:    486a        jH      LDR      r0,[pc,#424] ; [0x8a8] = 0x7a11ff
        0x00000700:    f5a15110    ...Q    SUB      r1,r1,#0x2400
        0x00000704:    4281        .B      CMP      r1,r0
        0x00000706:    bf88        ..      IT       HI
        0x00000708:    f04f0a00    O...    MOVHI    r10,#0
        0x0000070c:    d801        ..      BHI      0x712 ; am_hal_iom_config + 230
        0x0000070e:    f04f0a01    O...    MOV      r10,#1
        0x00000712:    eb09084a    ..J.    ADD      r8,r9,r10,LSL #1
        0x00000716:    fa08f002    ....    LSL      r0,r8,r2
        0x0000071a:    fbbcf1f0    ....    UDIV     r1,r12,r0
        0x0000071e:    fbbcf7f0    ....    UDIV     r7,r12,r0
        0x00000722:    fb00c017    ....    MLS      r0,r0,r7,r12
        0x00000726:    2800        .(      CMP      r0,#0
        0x00000728:    bf18        ..      IT       NE
        0x0000072a:    2001        .       MOVNE    r0,#1
        0x0000072c:    4401        .D      ADD      r1,r1,r0
        0x0000072e:    fab1f081    ....    CLZ      r0,r1
        0x00000732:    f1c0071f    ....    RSB      r7,r0,#0x1f
        0x00000736:    2f07        ./      CMP      r7,#7
        0x00000738:    bf84        ..      ITT      HI
        0x0000073a:    18b8        ..      ADDHI    r0,r7,r2
        0x0000073c:    1fc2        ..      SUBHI    r2,r0,#7
        0x0000073e:    1c50        P.      ADDS     r0,r2,#1
        0x00000740:    2807        .(      CMP      r0,#7
        0x00000742:    d87d        }.      BHI      0x840 ; am_hal_iom_config + 532
        0x00000744:    2f07        ./      CMP      r7,#7
        0x00000746:    d90c        ..      BLS      0x762 ; am_hal_iom_config + 310
        0x00000748:    1ffa        ..      SUBS     r2,r7,#7
        0x0000074a:    fa21f702    !...    LSR      r7,r1,r2
        0x0000074e:    fa09f202    ....    LSL      r2,r9,r2
        0x00000752:    fbb1fef2    ....    UDIV     lr,r1,r2
        0x00000756:    fb02111e    ....    MLS      r1,r2,lr,r1
        0x0000075a:    2900        .)      CMP      r1,#0
        0x0000075c:    bf18        ..      IT       NE
        0x0000075e:    2101        .!      MOVNE    r1,#1
        0x00000760:    4439        9D      ADD      r1,r1,r7
        0x00000762:    4a52        RJ      LDR      r2,[pc,#328] ; [0x8ac] = 0xb71b00
        0x00000764:    4293        .B      CMP      r3,r2
        0x00000766:    d207        ..      BCS      0x778 ; am_hal_iom_config + 332
        0x00000768:    1e42        B.      SUBS     r2,r0,#1
        0x0000076a:    fa09f202    ....    LSL      r2,r9,r2
        0x0000076e:    4562        bE      CMP      r2,r12
        0x00000770:    bf18        ..      IT       NE
        0x00000772:    f04f0c01    O...    MOVNE    r12,#1
        0x00000776:    d101        ..      BNE      0x77c ; am_hal_iom_config + 336
        0x00000778:    f04f0c00    O...    MOV      r12,#0
        0x0000077c:    f1bb0f01    ....    CMP      r11,#1
        0x00000780:    bf0c        ..      ITE      EQ
        0x00000782:    1e8a        ..      SUBEQ    r2,r1,#2
        0x00000784:    1e4a        J.      SUBNE    r2,r1,#1
        0x00000786:    0852        R.      LSRS     r2,r2,#1
        0x00000788:    f44f63e0    O..c    MOV      r3,#0x700
        0x0000078c:    ea032700    ...'    AND      r7,r3,r0,LSL #8
        0x00000790:    f44f6300    O..c    MOV      r3,#0x800
        0x00000794:    ea0323ca    ...#    AND      r3,r3,r10,LSL #11
        0x00000798:    f44f5980    O..Y    MOV      r9,#0x1000
        0x0000079c:    433b        ;C      ORRS     r3,r3,r7
        0x0000079e:    ea09390c    ...9    AND      r9,r9,r12,LSL #12
        0x000007a2:    ea430309    C...    ORR      r3,r3,r9
        0x000007a6:    f44f097f    O...    MOV      r9,#0xff0000
        0x000007aa:    ea094202    ...B    AND      r2,r9,r2,LSL #16
        0x000007ae:    431a        .C      ORRS     r2,r2,r3
        0x000007b0:    f04f437f    O..C    MOV      r3,#0xff000000
        0x000007b4:    e000        ..      B        0x7b8 ; am_hal_iom_config + 396
        0x000007b6:    e026        &.      B        0x806 ; am_hal_iom_config + 474
        0x000007b8:    eb036301    ...c    ADD      r3,r3,r1,LSL #24
        0x000007bc:    f1a10901    ....    SUB      r9,r1,#1
        0x000007c0:    431a        .C      ORRS     r2,r2,r3
        0x000007c2:    1e41        A.      SUBS     r1,r0,#1
        0x000007c4:    fb0cfc09    ....    MUL      r12,r12,r9
        0x000007c8:    4b36        6K      LDR      r3,[pc,#216] ; [0x8a4] = 0x2dc6c00
        0x000007ca:    fa08f001    ....    LSL      r0,r8,r1
        0x000007ce:    f10c0c01    ....    ADD      r12,r12,#1
        0x000007d2:    fb00f00c    ....    MUL      r0,r0,r12
        0x000007d6:    fbb3f8f0    ....    UDIV     r8,r3,r0
        0x000007da:    fbb3fcf0    ....    UDIV     r12,r3,r0
        0x000007de:    fb003818    ...8    MLS      r8,r0,r8,r3
        0x000007e2:    ebb80f50    ..P.    CMP      r8,r0,LSR #1
        0x000007e6:    bf8c        ..      ITE      HI
        0x000007e8:    2001        .       MOVHI    r0,#1
        0x000007ea:    2000        .       MOVLS    r0,#0
        0x000007ec:    4460        `D      ADD      r0,r0,r12
        0x000007ee:    e000        ..      B        0x7f2 ; am_hal_iom_config + 454
        0x000007f0:    e051        Q.      B        0x896 ; am_hal_iom_config + 618
        0x000007f2:    f8dfc0bc    ....    LDR      r12,[pc,#188] ; [0x8b0] = 0x3d090
        0x000007f6:    fbb0f8fc    ....    UDIV     r8,r0,r12
        0x000007fa:    fb0c0818    ....    MLS      r8,r12,r8,r0
        0x000007fe:    f1b80f00    ....    CMP      r8,#0
        0x00000802:    d137        7.      BNE      0x874 ; am_hal_iom_config + 584
        0x00000804:    e026        &.      B        0x854 ; am_hal_iom_config + 552
        0x00000806:    f8d6011c    ....    LDR      r0,[r6,#0x11c]
        0x0000080a:    f0400004    @...    ORR      r0,r0,#4
        0x0000080e:    f8c6011c    ....    STR      r0,[r6,#0x11c]
        0x00000812:    6860        `h      LDR      r0,[r4,#4]
        0x00000814:    f5a02140    ..@!    SUB      r1,r0,#0xc0000
        0x00000818:    f5b15154    ..TQ    SUBS     r1,r1,#0x3500
        0x0000081c:    bf08        ..      IT       EQ
        0x0000081e:    2002        .       MOVEQ    r0,#2
        0x00000820:    d00d        ..      BEQ      0x83e ; am_hal_iom_config + 530
        0x00000822:    f5a021c0    ...!    SUB      r1,r0,#0x60000
        0x00000826:    f5b151d4    ...Q    SUBS     r1,r1,#0x1a80
        0x0000082a:    bf08        ..      IT       EQ
        0x0000082c:    2003        .       MOVEQ    r0,#3
        0x0000082e:    d006        ..      BEQ      0x83e ; am_hal_iom_config + 530
        0x00000830:    f5a03140    ..@1    SUB      r1,r0,#0x30000
        0x00000834:    f5b16154    ..Ta    SUBS     r1,r1,#0xd40
        0x00000838:    bf0c        ..      ITE      EQ
        0x0000083a:    2004        .       MOVEQ    r0,#4
        0x0000083c:    2005        .       MOVNE    r0,#5
        0x0000083e:    e000        ..      B        0x842 ; am_hal_iom_config + 534
        0x00000840:    e01c        ..      B        0x87c ; am_hal_iom_config + 592
        0x00000842:    f44f61e0    O..a    MOV      r1,#0x700
        0x00000846:    ea012000    ...     AND      r0,r1,r0,LSL #8
        0x0000084a:    f4402261    @.a"    ORR      r2,r0,#0xe1000
        0x0000084e:    f04252e8    B..R    ORR      r2,r2,#0x1d000000
        0x00000852:    e00f        ..      B        0x874 ; am_hal_iom_config + 584
        0x00000854:    fbb0f0fc    ....    UDIV     r0,r0,r12
        0x00000858:    b160        `.      CBZ      r0,0x874 ; am_hal_iom_config + 584
        0x0000085a:    f1a00c01    ....    SUB      r12,r0,#1
        0x0000085e:    ea100f0c    ....    TST      r0,r12
        0x00000862:    d107        ..      BNE      0x874 ; am_hal_iom_config + 584
        0x00000864:    2003        .       MOVS     r0,#3
        0x00000866:    4088        .@      LSLS     r0,r0,r1
        0x00000868:    fbb3f1f0    ....    UDIV     r1,r3,r0
        0x0000086c:    fbb3f1f0    ....    UDIV     r1,r3,r0
        0x00000870:    f4476200    G..b    ORR      r2,r7,#0x800
        0x00000874:    2a00        .*      CMP      r2,#0
        0x00000876:    bf18        ..      IT       NE
        0x00000878:    f8c6210c    ...!    STRNE    r2,[r6,#0x10c]
        0x0000087c:    f7fffdec    ....    BL       am_hal_clkgen_sysclk_get ; 0x458
        0x00000880:    6861        ah      LDR      r1,[r4,#4]
        0x00000882:    fbb0f0f1    ....    UDIV     r0,r0,r1
        0x00000886:    490b        .I      LDR      r1,[pc,#44] ; [0x8b4] = 0x100003cc
        0x00000888:    eb0000c0    ....    ADD      r0,r0,r0,LSL #3
        0x0000088c:    0200        ..      LSLS     r0,r0,#8
        0x0000088e:    f8410025    A.%.    STR      r0,[r1,r5,LSL #2]
        0x00000892:    e8bd9ff0    ....    POP      {r4-r12,pc}
        0x00000896:    2206        ."      MOVS     r2,#6
        0x00000898:    e72c        ,.      B        0x6f4 ; am_hal_iom_config + 200
    $d
        0x0000089a:    0000        ..      DCW    0
        0x0000089c:    00f42400    .$..    DCD    16000000
        0x000008a0:    40020000    ...@    DCD    1073872896
        0x000008a4:    02dc6c00    .l..    DCD    48000000
        0x000008a8:    007a11ff    ..z.    DCD    7999999
        0x000008ac:    00b71b00    ....    DCD    12000000
        0x000008b0:    0003d090    ....    DCD    250000
        0x000008b4:    100003cc    ....    DCD    268436428
    $t
    i.am_hal_iom_enable
    am_hal_iom_enable
        0x000008b8:    2806        .(      CMP      r0,#6
        0x000008ba:    bf28        (.      IT       CS
        0x000008bc:    4770        pG      BXCS     lr
        0x000008be:    0301        ..      LSLS     r1,r0,#12
        0x000008c0:    f10141a0    ...A    ADD      r1,r1,#0x50000000
        0x000008c4:    f5014180    ...A    ADD      r1,r1,#0x4000
        0x000008c8:    f8d1211c    ...!    LDR      r2,[r1,#0x11c]
        0x000008cc:    f0424200    B..B    ORR      r2,r2,#0x80000000
        0x000008d0:    f8c1211c    ...!    STR      r2,[r1,#0x11c]
        0x000008d4:    4a01        .J      LDR      r2,[pc,#4] ; [0x8dc] = 0x10000038
        0x000008d6:    2100        .!      MOVS     r1,#0
        0x000008d8:    5411        .T      STRB     r1,[r2,r0]
        0x000008da:    4770        pG      BX       lr
    $d
        0x000008dc:    10000038    8...    DCD    268435512
    $t
    i.am_hal_iom_fifo_read
    am_hal_iom_fifo_read
        0x000008e0:    2806        .(      CMP      r0,#6
        0x000008e2:    bf24        $.      ITT      CS
        0x000008e4:    2000        .       MOVCS    r0,#0
        0x000008e6:    4770        pG      BXCS     lr
        0x000008e8:    b5f8        ..      PUSH     {r3-r7,lr}
        0x000008ea:    0300        ..      LSLS     r0,r0,#12
        0x000008ec:    f10045a0    ...E    ADD      r5,r0,#0x50000000
        0x000008f0:    f5054580    ...E    ADD      r5,r5,#0x4000
        0x000008f4:    4614        .F      MOV      r4,r2
        0x000008f6:    f8d5011c    ....    LDR      r0,[r5,#0x11c]
        0x000008fa:    460e        .F      MOV      r6,r1
        0x000008fc:    f0100f08    ....    TST      r0,#8
        0x00000900:    d10a        ..      BNE      0x918 ; am_hal_iom_fifo_read + 56
        0x00000902:    f8d50100    ....    LDR      r0,[r5,#0x100]
        0x00000906:    b2c0        ..      UXTB     r0,r0
        0x00000908:    42a0        .B      CMP      r0,r4
        0x0000090a:    d205        ..      BCS      0x918 ; am_hal_iom_fifo_read + 56
        0x0000090c:    a218        ..      ADR      r2,{pc}+0x64 ; 0x970
        0x0000090e:    f6407173    @.sq    MOV      r1,#0xf73
        0x00000912:    a025        %.      ADR      r0,{pc}+0x96 ; 0x9a8
        0x00000914:    f7fffe34    ..4.    BL       am_hal_debug_error ; 0x580
        0x00000918:    08a2        ..      LSRS     r2,r4,#2
        0x0000091a:    4250        PB      RSBS     r0,r2,#0
        0x0000091c:    eb040080    ....    ADD      r0,r4,r0,LSL #2
        0x00000920:    2a00        .*      CMP      r2,#0
        0x00000922:    f04f0300    O...    MOV      r3,#0
        0x00000926:    d906        ..      BLS      0x936 ; am_hal_iom_fifo_read + 86
        0x00000928:    6829        )h      LDR      r1,[r5,#0]
        0x0000092a:    f8461023    F.#.    STR      r1,[r6,r3,LSL #2]
        0x0000092e:    f1030301    ....    ADD      r3,r3,#1
        0x00000932:    429a        .B      CMP      r2,r3
        0x00000934:    d8f8        ..      BHI      0x928 ; am_hal_iom_fifo_read + 72
        0x00000936:    b1c8        ..      CBZ      r0,0x96c ; am_hal_iom_fifo_read + 140
        0x00000938:    6829        )h      LDR      r1,[r5,#0]
        0x0000093a:    9100        ..      STR      r1,[sp,#0]
        0x0000093c:    eb060183    ....    ADD      r1,r6,r3,LSL #2
        0x00000940:    1e4b        K.      SUBS     r3,r1,#1
        0x00000942:    f10d31ff    ...1    ADD      r1,sp,#0xffffffff
        0x00000946:    f0100f01    ....    TST      r0,#1
        0x0000094a:    d003        ..      BEQ      0x954 ; am_hal_iom_fifo_read + 116
        0x0000094c:    f8112f01    .../    LDRB     r2,[r1,#1]!
        0x00000950:    f8032f01    .../    STRB     r2,[r3,#1]!
        0x00000954:    ea5f0c50    _.P.    LSRS     r12,r0,#1
        0x00000958:    d008        ..      BEQ      0x96c ; am_hal_iom_fifo_read + 140
        0x0000095a:    7848        Hx      LDRB     r0,[r1,#1]
        0x0000095c:    7058        Xp      STRB     r0,[r3,#1]
        0x0000095e:    f8110f02    ....    LDRB     r0,[r1,#2]!
        0x00000962:    f8030f02    ....    STRB     r0,[r3,#2]!
        0x00000966:    f1bc0c01    ....    SUBS     r12,r12,#1
        0x0000096a:    d1f6        ..      BNE      0x95a ; am_hal_iom_fifo_read + 122
        0x0000096c:    4620         F      MOV      r0,r4
        0x0000096e:    bdf8        ..      POP      {r3-r7,pc}
    $d
        0x00000970:    20656854    The     DCD    543516756
        0x00000974:    6f666966    fifo    DCD    1868982630
        0x00000978:    656f6420     doe    DCD    1701798944
        0x0000097c:    74276e73    sn't    DCD    1948741235
        0x00000980:    6e6f6320     con    DCD    1852793632
        0x00000984:    6e696174    tain    DCD    1852399988
        0x00000988:    65687420     the    DCD    1701344288
        0x0000098c:    71657220     req    DCD    1902473760
        0x00000990:    74736575    uest    DCD    1953719669
        0x00000994:    6e206465    ed n    DCD    1847616613
        0x00000998:    65626d75    umbe    DCD    1700949365
        0x0000099c:    666f2072    r of    DCD    1718558834
        0x000009a0:    74796220     byt    DCD    1954112032
        0x000009a4:    002e7365    es..    DCD    3044197
        0x000009a8:    685f6d61    am_h    DCD    1751084385
        0x000009ac:    695f6c61    al_i    DCD    1767861345
        0x000009b0:    632e6d6f    om.c    DCD    1663987055
        0x000009b4:    00000000    ....    DCD    0
    $t
    i.am_hal_iom_fifo_write
    am_hal_iom_fifo_write
        0x000009b8:    b570        p.      PUSH     {r4-r6,lr}
        0x000009ba:    4614        .F      MOV      r4,r2
        0x000009bc:    460e        .F      MOV      r6,r1
        0x000009be:    2806        .(      CMP      r0,#6
        0x000009c0:    bf24        $.      ITT      CS
        0x000009c2:    2000        .       MOVCS    r0,#0
        0x000009c4:    bd70        p.      POPCS    {r4-r6,pc}
        0x000009c6:    0300        ..      LSLS     r0,r0,#12
        0x000009c8:    f10045a0    ...E    ADD      r5,r0,#0x50000000
        0x000009cc:    f5054580    ...E    ADD      r5,r5,#0x4000
        0x000009d0:    f8d5011c    ....    LDR      r0,[r5,#0x11c]
        0x000009d4:    f0100f08    ....    TST      r0,#8
        0x000009d8:    bf0c        ..      ITE      EQ
        0x000009da:    2080        .       MOVEQ    r0,#0x80
        0x000009dc:    2040        @       MOVNE    r0,#0x40
        0x000009de:    f8d51100    ....    LDR      r1,[r5,#0x100]
        0x000009e2:    1a40        @.      SUBS     r0,r0,r1
        0x000009e4:    f00000fc    ....    AND      r0,r0,#0xfc
        0x000009e8:    42a0        .B      CMP      r0,r4
        0x000009ea:    d205        ..      BCS      0x9f8 ; am_hal_iom_fifo_write + 64
        0x000009ec:    a21b        ..      ADR      r2,{pc}+0x70 ; 0xa5c
        0x000009ee:    f6407138    @.8q    MOV      r1,#0xf38
        0x000009f2:    a027        '.      ADR      r0,{pc}+0x9e ; 0xa90
        0x000009f4:    f7fffdc4    ....    BL       am_hal_debug_error ; 0x580
        0x000009f8:    2300        .#      MOVS     r3,#0
        0x000009fa:    1ce1        ..      ADDS     r1,r4,#3
        0x000009fc:    2903        .)      CMP      r1,#3
        0x000009fe:    d922        ".      BLS      0xa46 ; am_hal_iom_fifo_write + 142
        0x00000a00:    f1b44f00    ...O    CMP      r4,#0x80000000
        0x00000a04:    d21f        ..      BCS      0xa46 ; am_hal_iom_fifo_write + 142
        0x00000a06:    17ca        ..      ASRS     r2,r1,#31
        0x00000a08:    eb017292    ...r    ADD      r2,r1,r2,LSR #30
        0x00000a0c:    2903        .)      CMP      r1,#3
        0x00000a0e:    bfd8        ..      IT       LE
        0x00000a10:    2000        .       MOVLE    r0,#0
        0x00000a12:    dd05        ..      BLE      0xa20 ; am_hal_iom_fifo_write + 104
        0x00000a14:    f3c20080    ....    UBFX     r0,r2,#2,#1
        0x00000a18:    b110        ..      CBZ      r0,0xa20 ; am_hal_iom_fifo_write + 104
        0x00000a1a:    6831        1h      LDR      r1,[r6,#0]
        0x00000a1c:    6029        )`      STR      r1,[r5,#0]
        0x00000a1e:    2301        .#      MOVS     r3,#1
        0x00000a20:    2101        .!      MOVS     r1,#1
        0x00000a22:    eb0102a2    ....    ADD      r2,r1,r2,ASR #2
        0x00000a26:    1c40        @.      ADDS     r0,r0,#1
        0x00000a28:    e009        ..      B        0xa3e ; am_hal_iom_fifo_write + 134
        0x00000a2a:    bf00        ..      NOP      
        0x00000a2c:    f8561023    V.#.    LDR      r1,[r6,r3,LSL #2]
        0x00000a30:    6029        )`      STR      r1,[r5,#0]
        0x00000a32:    1c59        Y.      ADDS     r1,r3,#1
        0x00000a34:    f8563021    V.!0    LDR      r3,[r6,r1,LSL #2]
        0x00000a38:    602b        +`      STR      r3,[r5,#0]
        0x00000a3a:    1c4b        K.      ADDS     r3,r1,#1
        0x00000a3c:    1c80        ..      ADDS     r0,r0,#2
        0x00000a3e:    4282        .B      CMP      r2,r0
        0x00000a40:    dcf4        ..      BGT      0xa2c ; am_hal_iom_fifo_write + 116
        0x00000a42:    4620         F      MOV      r0,r4
        0x00000a44:    bd70        p.      POP      {r4-r6,pc}
        0x00000a46:    2c00        .,      CMP      r4,#0
        0x00000a48:    d9fb        ..      BLS      0xa42 ; am_hal_iom_fifo_write + 138
        0x00000a4a:    bf00        ..      NOP      
        0x00000a4c:    f8560023    V.#.    LDR      r0,[r6,r3,LSL #2]
        0x00000a50:    6028        (`      STR      r0,[r5,#0]
        0x00000a52:    1c5b        [.      ADDS     r3,r3,#1
        0x00000a54:    ebb40f83    ....    CMP      r4,r3,LSL #2
        0x00000a58:    d8f8        ..      BHI      0xa4c ; am_hal_iom_fifo_write + 148
        0x00000a5a:    e7f2        ..      B        0xa42 ; am_hal_iom_fifo_write + 138
    $d
        0x00000a5c:    20656854    The     DCD    543516756
        0x00000a60:    6f666966    fifo    DCD    1868982630
        0x00000a64:    756f6320     cou    DCD    1970234144
        0x00000a68:    276e646c    ldn'    DCD    661546092
        0x00000a6c:    69662074    t fi    DCD    1768300660
        0x00000a70:    68742074    t th    DCD    1752440948
        0x00000a74:    65722065    e re    DCD    1701978213
        0x00000a78:    73657571    ques    DCD    1936029041
        0x00000a7c:    20646574    ted     DCD    543450484
        0x00000a80:    626d756e    numb    DCD    1651340654
        0x00000a84:    6f207265    er o    DCD    1864397413
        0x00000a88:    79622066    f by    DCD    2036473958
        0x00000a8c:    00736574    tes.    DCD    7562612
        0x00000a90:    685f6d61    am_h    DCD    1751084385
        0x00000a94:    695f6c61    al_i    DCD    1767861345
        0x00000a98:    632e6d6f    om.c    DCD    1663987055
        0x00000a9c:    00000000    ....    DCD    0
    $t
    i.am_hal_iom_int_clear
    am_hal_iom_int_clear
        0x00000aa0:    2806        .(      CMP      r0,#6
        0x00000aa2:    bf28        (.      IT       CS
        0x00000aa4:    4770        pG      BXCS     lr
        0x00000aa6:    0300        ..      LSLS     r0,r0,#12
        0x00000aa8:    f10040a0    ...@    ADD      r0,r0,#0x50000000
        0x00000aac:    f5004080    ...@    ADD      r0,r0,#0x4000
        0x00000ab0:    f8c01208    ....    STR      r1,[r0,#0x208]
        0x00000ab4:    4770        pG      BX       lr
        0x00000ab6:    0000        ..      MOVS     r0,r0
    i.am_hal_iom_pwrctrl_enable
    am_hal_iom_pwrctrl_enable
        0x00000ab8:    b510        ..      PUSH     {r4,lr}
        0x00000aba:    4604        .F      MOV      r4,r0
        0x00000abc:    2806        .(      CMP      r0,#6
        0x00000abe:    d305        ..      BCC      0xacc ; am_hal_iom_pwrctrl_enable + 20
        0x00000ac0:    a205        ..      ADR      r2,{pc}+0x18 ; 0xad8
        0x00000ac2:    f44f7130    O.0q    MOV      r1,#0x2c0
        0x00000ac6:    a011        ..      ADR      r0,{pc}+0x46 ; 0xb0c
        0x00000ac8:    f7fffd5a    ..Z.    BL       am_hal_debug_error ; 0x580
        0x00000acc:    2002        .       MOVS     r0,#2
        0x00000ace:    40a0        .@      LSLS     r0,r0,r4
        0x00000ad0:    e8bd4010    ...@    POP      {r4,lr}
        0x00000ad4:    f000bf54    ..T.    B.W      am_hal_pwrctrl_periph_enable ; 0x1980
    $d
        0x00000ad8:    69797254    Tryi    DCD    1769566804
        0x00000adc:    7420676e    ng t    DCD    1948280686
        0x00000ae0:    6e65206f    o en    DCD    1852121199
        0x00000ae4:    656c6261    able    DCD    1701601889
        0x00000ae8:    206e6120     an     DCD    544104736
        0x00000aec:    204d4f49    IOM     DCD    541937481
        0x00000af0:    75646f6d    modu    DCD    1969516397
        0x00000af4:    7420656c    le t    DCD    1948280172
        0x00000af8:    20746168    hat     DCD    544498024
        0x00000afc:    73656f64    does    DCD    1936027492
        0x00000b00:    2074276e    n't     DCD    544483182
        0x00000b04:    73697865    exis    DCD    1936291941
        0x00000b08:    00002e74    t...    DCD    11892
        0x00000b0c:    685f6d61    am_h    DCD    1751084385
        0x00000b10:    695f6c61    al_i    DCD    1767861345
        0x00000b14:    632e6d6f    om.c    DCD    1663987055
        0x00000b18:    00000000    ....    DCD    0
    $t
    i.am_hal_iom_sleeping_queue_flush
    am_hal_iom_sleeping_queue_flush
        0x00000b1c:    e92d41f0    -..A    PUSH     {r4-r8,lr}
        0x00000b20:    2501        .%      MOVS     r5,#1
        0x00000b22:    4604        .F      MOV      r4,r0
        0x00000b24:    2806        .(      CMP      r0,#6
        0x00000b26:    bf28        (.      IT       CS
        0x00000b28:    e8bd81f0    ....    POPCS    {r4-r8,pc}
        0x00000b2c:    4f0f        .O      LDR      r7,[pc,#60] ; [0xb6c] = 0x10000038
        0x00000b2e:    4810        .H      LDR      r0,[pc,#64] ; [0xb70] = 0x100003e4
        0x00000b30:    eb040144    ..D.    ADD      r1,r4,r4,LSL #1
        0x00000b34:    eb0006c1    ....    ADD      r6,r0,r1,LSL #3
        0x00000b38:    f7fffb2a    ..*.    BL       am_hal_interrupt_master_disable ; 0x190
        0x00000b3c:    4680        .F      MOV      r8,r0
        0x00000b3e:    5d38        8]      LDRB     r0,[r7,r4]
        0x00000b40:    2800        .(      CMP      r0,#0
        0x00000b42:    bf04        ..      ITT      EQ
        0x00000b44:    68b0        .h      LDREQ    r0,[r6,#8]
        0x00000b46:    2800        .(      CMPEQ    r0,#0
        0x00000b48:    d00a        ..      BEQ      0xb60 ; am_hal_iom_sleeping_queue_flush + 68
        0x00000b4a:    f04f0000    O...    MOV      r0,#0
        0x00000b4e:    f000ffd7    ....    BL       am_hal_sysctrl_sleep ; 0x1b00
        0x00000b52:    4640        @F      MOV      r0,r8
        0x00000b54:    f7fffb20    .. .    BL       am_hal_interrupt_master_set ; 0x198
        0x00000b58:    2d00        .-      CMP      r5,#0
        0x00000b5a:    d1ed        ..      BNE      0xb38 ; am_hal_iom_sleeping_queue_flush + 28
        0x00000b5c:    e8bd81f0    ....    POP      {r4-r8,pc}
        0x00000b60:    4640        @F      MOV      r0,r8
        0x00000b62:    e8bd41f0    ...A    POP      {r4-r8,lr}
        0x00000b66:    f7ffbb17    ....    B        am_hal_interrupt_master_set ; 0x198
    $d
        0x00000b6a:    0000        ..      DCW    0
        0x00000b6c:    10000038    8...    DCD    268435512
        0x00000b70:    100003e4    ....    DCD    268436452
    $t
    i.am_hal_iom_spi_read
    am_hal_iom_spi_read
        0x00000b74:    2806        .(      CMP      r0,#6
        0x00000b76:    bf24        $.      ITT      CS
        0x00000b78:    2002        .       MOVCS    r0,#2
        0x00000b7a:    4770        pG      BXCS     lr
        0x00000b7c:    e92d4ff0    -..O    PUSH     {r4-r11,lr}
        0x00000b80:    4604        .F      MOV      r4,r0
        0x00000b82:    ea4f3c04    O..<    LSL      r12,r4,#12
        0x00000b86:    b08b        ..      SUB      sp,sp,#0x2c
        0x00000b88:    f10c4ca0    ...L    ADD      r12,r12,#0x50000000
        0x00000b8c:    f50c4c80    ...L    ADD      r12,r12,#0x4000
        0x00000b90:    f24070ff    @..p    MOV      r0,#0x7ff
        0x00000b94:    9f14        ..      LDR      r7,[sp,#0x50]
        0x00000b96:    f8cc0208    ....    STR      r0,[r12,#0x208]
        0x00000b9a:    4d32        2M      LDR      r5,[pc,#200] ; [0xc64] = 0x1000003f
        0x00000b9c:    2000        .       MOVS     r0,#0
        0x00000b9e:    2b00        .+      CMP      r3,#0
        0x00000ba0:    5528        (U      STRB     r0,[r5,r4]
        0x00000ba2:    bf18        ..      IT       NE
        0x00000ba4:    f5b35f80    ..._    CMPNE    r3,#0x1000
        0x00000ba8:    bf21        !.      ITTTT    CS
        0x00000baa:    2003        .       MOVCS    r0,#3
        0x00000bac:    5528        (U      STRBCS   r0,[r5,r4]
        0x00000bae:    b00b        ..      ADDCS    sp,sp,#0x2c
        0x00000bb0:    e8bd8ff0    ....    POPCS    {r4-r11,pc}
        0x00000bb4:    eb040644    ..D.    ADD      r6,r4,r4,LSL #1
        0x00000bb8:    f8dfc0ac    ....    LDR      r12,[pc,#172] ; [0xc68] = 0x100003e4
        0x00000bbc:    eb0c08c6    ....    ADD      r8,r12,r6,LSL #3
        0x00000bc0:    f8d8c014    ....    LDR      r12,[r8,#0x14]
        0x00000bc4:    f1bc0f00    ....    CMP      r12,#0
        0x00000bc8:    d044        D.      BEQ      0xc54 ; am_hal_iom_spi_read + 224
        0x00000bca:    468a        .F      MOV      r10,r1
        0x00000bcc:    4691        .F      MOV      r9,r2
        0x00000bce:    461e        .F      MOV      r6,r3
        0x00000bd0:    f04f0b00    O...    MOV      r11,#0
        0x00000bd4:    5528        (U      STRB     r0,[r5,r4]
        0x00000bd6:    f7fffadb    ....    BL       am_hal_interrupt_master_disable ; 0x190
        0x00000bda:    9002        ..      STR      r0,[sp,#8]
        0x00000bdc:    4823        #H      LDR      r0,[pc,#140] ; [0xc6c] = 0x10000038
        0x00000bde:    5d00        .]      LDRB     r0,[r0,r4]
        0x00000be0:    2800        .(      CMP      r0,#0
        0x00000be2:    bf04        ..      ITT      EQ
        0x00000be4:    f8d80008    ....    LDREQ    r0,[r8,#8]
        0x00000be8:    2800        .(      CMPEQ    r0,#0
        0x00000bea:    d014        ..      BEQ      0xc16 ; am_hal_iom_spi_read + 162
        0x00000bec:    f04f0001    O...    MOV      r0,#1
        0x00000bf0:    f8cdb024    ..$.    STR      r11,[sp,#0x24]
        0x00000bf4:    e9cd0403    ....    STRD     r0,r4,[sp,#0xc]
        0x00000bf8:    e9cd6707    ...g    STRD     r6,r7,[sp,#0x1c]
        0x00000bfc:    e9cda905    ....    STRD     r10,r9,[sp,#0x14]
        0x00000c00:    4640        @F      MOV      r0,r8
        0x00000c02:    f04f0201    O...    MOV      r2,#1
        0x00000c06:    a903        ..      ADD      r1,sp,#0xc
        0x00000c08:    f000ff18    ....    BL       am_hal_queue_item_add ; 0x1a3c
        0x00000c0c:    2800        .(      CMP      r0,#0
        0x00000c0e:    bf08        ..      IT       EQ
        0x00000c10:    2608        .&      MOVEQ    r6,#8
        0x00000c12:    d00a        ..      BEQ      0xc2a ; am_hal_iom_spi_read + 182
        0x00000c14:    e013        ..      B        0xc3e ; am_hal_iom_spi_read + 202
        0x00000c16:    e9cd7b00    ...{    STRD     r7,r11,[sp,#0]
        0x00000c1a:    4633        3F      MOV      r3,r6
        0x00000c1c:    464a        JF      MOV      r2,r9
        0x00000c1e:    4651        QF      MOV      r1,r10
        0x00000c20:    4620         F      MOV      r0,r4
        0x00000c22:    f000f827    ..'.    BL       am_hal_iom_spi_read_nb ; 0xc74
        0x00000c26:    0006        ..      MOVS     r6,r0
        0x00000c28:    d009        ..      BEQ      0xc3e ; am_hal_iom_spi_read + 202
        0x00000c2a:    552e        .U      STRB     r6,[r5,r4]
        0x00000c2c:    9802        ..      LDR      r0,[sp,#8]
        0x00000c2e:    f7fffab3    ....    BL       am_hal_interrupt_master_set ; 0x198
        0x00000c32:    0030        0.      MOVS     r0,r6
        0x00000c34:    bf1c        ..      ITT      NE
        0x00000c36:    b00b        ..      ADDNE    sp,sp,#0x2c
        0x00000c38:    e8bd8ff0    ....    POPNE    {r4-r11,pc}
        0x00000c3c:    e002        ..      B        0xc44 ; am_hal_iom_spi_read + 208
        0x00000c3e:    9802        ..      LDR      r0,[sp,#8]
        0x00000c40:    f7fffaaa    ....    BL       am_hal_interrupt_master_set ; 0x198
        0x00000c44:    490a        .I      LDR      r1,[pc,#40] ; [0xc70] = 0x10000034
        0x00000c46:    4620         F      MOV      r0,r4
        0x00000c48:    6809        .h      LDR      r1,[r1,#0]
        0x00000c4a:    4788        .G      BLX      r1
        0x00000c4c:    5d28        (]      LDRB     r0,[r5,r4]
        0x00000c4e:    b00b        ..      ADD      sp,sp,#0x2c
        0x00000c50:    e8bd8ff0    ....    POP      {r4-r11,pc}
        0x00000c54:    4620         F      MOV      r0,r4
        0x00000c56:    9700        ..      STR      r7,[sp,#0]
        0x00000c58:    f000f89e    ....    BL       am_hal_iom_spi_read_nq ; 0xd98
        0x00000c5c:    b00b        ..      ADD      sp,sp,#0x2c
        0x00000c5e:    e8bd8ff0    ....    POP      {r4-r11,pc}
    $d
        0x00000c62:    0000        ..      DCW    0
        0x00000c64:    1000003f    ?...    DCD    268435519
        0x00000c68:    100003e4    ....    DCD    268436452
        0x00000c6c:    10000038    8...    DCD    268435512
        0x00000c70:    10000034    4...    DCD    268435508
    $t
    i.am_hal_iom_spi_read_nb
    am_hal_iom_spi_read_nb
        0x00000c74:    2806        .(      CMP      r0,#6
        0x00000c76:    bf24        $.      ITT      CS
        0x00000c78:    2002        .       MOVCS    r0,#2
        0x00000c7a:    4770        pG      BXCS     lr
        0x00000c7c:    e92d4fff    -..O    PUSH     {r0-r11,lr}
        0x00000c80:    b081        ..      SUB      sp,sp,#4
        0x00000c82:    f8df90f4    ....    LDR      r9,[pc,#244] ; [0xd78] = 0x10000038
        0x00000c86:    9d0e        ..      LDR      r5,[sp,#0x38]
        0x00000c88:    461e        .F      MOV      r6,r3
        0x00000c8a:    4604        .F      MOV      r4,r0
        0x00000c8c:    f8190004    ....    LDRB     r0,[r9,r4]
        0x00000c90:    2800        .(      CMP      r0,#0
        0x00000c92:    d1fb        ..      BNE      0xc8c ; am_hal_iom_spi_read_nb + 24
        0x00000c94:    f8df80e4    ....    LDR      r8,[pc,#228] ; [0xd7c] = 0x1000003f
        0x00000c98:    2e00        ..      CMP      r6,#0
        0x00000c9a:    f8080004    ....    STRB     r0,[r8,r4]
        0x00000c9e:    9000        ..      STR      r0,[sp,#0]
        0x00000ca0:    bf18        ..      IT       NE
        0x00000ca2:    f5b65f80    ..._    CMPNE    r6,#0x1000
        0x00000ca6:    bf21        !.      ITTTT    CS
        0x00000ca8:    2003        .       MOVCS    r0,#3
        0x00000caa:    f8080004    ....    STRBCS   r0,[r8,r4]
        0x00000cae:    b005        ..      ADDCS    sp,sp,#0x14
        0x00000cb0:    e8bd8ff0    ....    POPCS    {r4-r11,pc}
        0x00000cb4:    2101        .!      MOVS     r1,#1
        0x00000cb6:    f8091004    ....    STRB     r1,[r9,r4]
        0x00000cba:    0323        #.      LSLS     r3,r4,#12
        0x00000cbc:    f10347a0    ...G    ADD      r7,r3,#0x50000000
        0x00000cc0:    f5074780    ...G    ADD      r7,r7,#0x4000
        0x00000cc4:    f24072ff    @..r    MOV      r2,#0x7ff
        0x00000cc8:    f8c72208    ..."    STR      r2,[r7,#0x208]
        0x00000ccc:    2c04        .,      CMP      r4,#4
        0x00000cce:    bf08        ..      IT       EQ
        0x00000cd0:    f0154f80    ...O    TSTEQ    r5,#0x40000000
        0x00000cd4:    d12b        +.      BNE      0xd2e ; am_hal_iom_spi_read_nb + 186
        0x00000cd6:    4a2a        *J      LDR      r2,[pc,#168] ; [0xd80] = 0x40020000
        0x00000cd8:    68d2        .h      LDR      r2,[r2,#0xc]
        0x00000cda:    b2d2        ..      UXTB     r2,r2
        0x00000cdc:    2a20         *      CMP      r2,#0x20
        0x00000cde:    d126        &.      BNE      0xd2e ; am_hal_iom_spi_read_nb + 186
        0x00000ce0:    f8dfa0a0    ....    LDR      r10,[pc,#160] ; [0xd84] = 0x50008000
        0x00000ce4:    f8dab200    ....    LDR      r11,[r10,#0x200]
        0x00000ce8:    f8ca0200    ....    STR      r0,[r10,#0x200]
        0x00000cec:    e9dd0102    ....    LDRD     r0,r1,[sp,#8]
        0x00000cf0:    f0455380    E..S    ORR      r3,r5,#0x10000000
        0x00000cf4:    2200        ."      MOVS     r2,#0
        0x00000cf6:    f000fac1    ....    BL       am_hal_iom_workaround_word_write ; 0x127c
        0x00000cfa:    4824        $H      LDR      r0,[pc,#144] ; [0xd8c] = 0x100003cc
        0x00000cfc:    2301        .#      MOVS     r3,#1
        0x00000cfe:    f0454580    E..E    ORR      r5,r5,#0x40000000
        0x00000d02:    4921        !I      LDR      r1,[pc,#132] ; [0xd88] = 0x50008204
        0x00000d04:    6900        .i      LDR      r0,[r0,#0x10]
        0x00000d06:    461a        .F      MOV      r2,r3
        0x00000d08:    f7fffc40    ..@.    BL       am_hal_flash_delay_status_change ; 0x58c
        0x00000d0c:    2801        .(      CMP      r0,#1
        0x00000d0e:    f04f0001    O...    MOV      r0,#1
        0x00000d12:    bf1e        ..      ITTT     NE
        0x00000d14:    f8880004    ....    STRBNE   r0,[r8,#4]
        0x00000d18:    b005        ..      ADDNE    sp,sp,#0x14
        0x00000d1a:    e8bd8ff0    ....    POPNE    {r4-r11,pc}
        0x00000d1e:    f8890004    ....    STRB     r0,[r9,#4]
        0x00000d22:    f24070ff    @..p    MOV      r0,#0x7ff
        0x00000d26:    f8ca0208    ....    STR      r0,[r10,#0x208]
        0x00000d2a:    f8cab200    ....    STR      r11,[r10,#0x200]
        0x00000d2e:    4818        .H      LDR      r0,[pc,#96] ; [0xd90] = 0x10000354
        0x00000d30:    eb040184    ....    ADD      r1,r4,r4,LSL #2
        0x00000d34:    2202        ."      MOVS     r2,#2
        0x00000d36:    f8402021    @.!     STR      r2,[r0,r1,LSL #2]
        0x00000d3a:    eb000081    ....    ADD      r0,r0,r1,LSL #2
        0x00000d3e:    9a03        ..      LDR      r2,[sp,#0xc]
        0x00000d40:    e9c02601    ...&    STRD     r2,r6,[r0,#4]
        0x00000d44:    990f        ..      LDR      r1,[sp,#0x3c]
        0x00000d46:    f4066270    ..pb    AND      r2,r6,#0xf00
        0x00000d4a:    e9c05103    ...Q    STRD     r5,r1,[r0,#0xc]
        0x00000d4e:    f04f4000    O..@    MOV      r0,#0x80000000
        0x00000d52:    ea4030c2    @..0    ORR      r0,r0,r2,LSL #15
        0x00000d56:    b2f2        ..      UXTB     r2,r6
        0x00000d58:    4310        .C      ORRS     r0,r0,r2
        0x00000d5a:    9902        ..      LDR      r1,[sp,#8]
        0x00000d5c:    f44f22e0    O.."    MOV      r2,#0x70000
        0x00000d60:    ea024101    ...A    AND      r1,r2,r1,LSL #16
        0x00000d64:    4308        .C      ORRS     r0,r0,r1
        0x00000d66:    490b        .I      LDR      r1,[pc,#44] ; [0xd94] = 0x5c00ff00
        0x00000d68:    4029        )@      ANDS     r1,r1,r5
        0x00000d6a:    4308        .C      ORRS     r0,r0,r1
        0x00000d6c:    f8c70110    ....    STR      r0,[r7,#0x110]
        0x00000d70:    9800        ..      LDR      r0,[sp,#0]
        0x00000d72:    b005        ..      ADD      sp,sp,#0x14
        0x00000d74:    e8bd8ff0    ....    POP      {r4-r11,pc}
    $d
        0x00000d78:    10000038    8...    DCD    268435512
        0x00000d7c:    1000003f    ?...    DCD    268435519
        0x00000d80:    40020000    ...@    DCD    1073872896
        0x00000d84:    50008000    ...P    DCD    1342210048
        0x00000d88:    50008204    ...P    DCD    1342210564
        0x00000d8c:    100003cc    ....    DCD    268436428
        0x00000d90:    10000354    T...    DCD    268436308
        0x00000d94:    5c00ff00    ...\    DCD    1543569152
    $t
    i.am_hal_iom_spi_read_nq
    am_hal_iom_spi_read_nq
        0x00000d98:    e92d5fff    -.._    PUSH     {r0-r12,lr}
        0x00000d9c:    461d        .F      MOV      r5,r3
        0x00000d9e:    9e0e        ..      LDR      r6,[sp,#0x38]
        0x00000da0:    4691        .F      MOV      r9,r2
        0x00000da2:    4604        .F      MOV      r4,r0
        0x00000da4:    f04f0a00    O...    MOV      r10,#0
        0x00000da8:    2806        .(      CMP      r0,#6
        0x00000daa:    bf29        ).      ITETT    CS
        0x00000dac:    2002        .       MOVCS    r0,#2
        0x00000dae:    4853        SH      LDRCC    r0,[pc,#332] ; [0xefc] = 0x10000038
        0x00000db0:    b004        ..      ADDCS    sp,sp,#0x10
        0x00000db2:    e8bd9ff0    ....    POPCS    {r4-r12,pc}
        0x00000db6:    5d01        .]      LDRB     r1,[r0,r4]
        0x00000db8:    2900        .)      CMP      r1,#0
        0x00000dba:    d1fc        ..      BNE      0xdb6 ; am_hal_iom_spi_read_nq + 30
        0x00000dbc:    f8df8140    ..@.    LDR      r8,[pc,#320] ; [0xf00] = 0x1000003f
        0x00000dc0:    2000        .       MOVS     r0,#0
        0x00000dc2:    2d00        .-      CMP      r5,#0
        0x00000dc4:    f8080004    ....    STRB     r0,[r8,r4]
        0x00000dc8:    bf18        ..      IT       NE
        0x00000dca:    f5b55f80    ..._    CMPNE    r5,#0x1000
        0x00000dce:    bf21        !.      ITTTT    CS
        0x00000dd0:    2003        .       MOVCS    r0,#3
        0x00000dd2:    f8080004    ....    STRBCS   r0,[r8,r4]
        0x00000dd6:    b004        ..      ADDCS    sp,sp,#0x10
        0x00000dd8:    e8bd9ff0    ....    POPCS    {r4-r12,pc}
        0x00000ddc:    0321        !.      LSLS     r1,r4,#12
        0x00000dde:    f10147a0    ...G    ADD      r7,r1,#0x50000000
        0x00000de2:    f5074780    ...G    ADD      r7,r7,#0x4000
        0x00000de6:    f8d7b200    ....    LDR      r11,[r7,#0x200]
        0x00000dea:    f8c70200    ....    STR      r0,[r7,#0x200]
        0x00000dee:    f24070ff    @..p    MOV      r0,#0x7ff
        0x00000df2:    f8c70208    ....    STR      r0,[r7,#0x208]
        0x00000df6:    2c04        .,      CMP      r4,#4
        0x00000df8:    bf08        ..      IT       EQ
        0x00000dfa:    f0164f80    ...O    TSTEQ    r6,#0x40000000
        0x00000dfe:    d129        ).      BNE      0xe54 ; am_hal_iom_spi_read_nq + 188
        0x00000e00:    4840        @H      LDR      r0,[pc,#256] ; [0xf04] = 0x40020000
        0x00000e02:    68c0        .h      LDR      r0,[r0,#0xc]
        0x00000e04:    b2c0        ..      UXTB     r0,r0
        0x00000e06:    2820         (      CMP      r0,#0x20
        0x00000e08:    d124        $.      BNE      0xe54 ; am_hal_iom_spi_read_nq + 188
        0x00000e0a:    f0465380    F..S    ORR      r3,r6,#0x10000000
        0x00000e0e:    2200        ."      MOVS     r2,#0
        0x00000e10:    4649        IF      MOV      r1,r9
        0x00000e12:    9801        ..      LDR      r0,[sp,#4]
        0x00000e14:    f000fa32    ..2.    BL       am_hal_iom_workaround_word_write ; 0x127c
        0x00000e18:    483c        <H      LDR      r0,[pc,#240] ; [0xf0c] = 0x100003cc
        0x00000e1a:    2301        .#      MOVS     r3,#1
        0x00000e1c:    f0464680    F..F    ORR      r6,r6,#0x40000000
        0x00000e20:    4939        9I      LDR      r1,[pc,#228] ; [0xf08] = 0x50008204
        0x00000e22:    6900        .i      LDR      r0,[r0,#0x10]
        0x00000e24:    461a        .F      MOV      r2,r3
        0x00000e26:    f7fffbb1    ....    BL       am_hal_flash_delay_status_change ; 0x58c
        0x00000e2a:    4939        9I      LDR      r1,[pc,#228] ; [0xf10] = 0x50008000
        0x00000e2c:    2801        .(      CMP      r0,#1
        0x00000e2e:    d00b        ..      BEQ      0xe48 ; am_hal_iom_spi_read_nq + 176
        0x00000e30:    2001        .       MOVS     r0,#1
        0x00000e32:    f8880004    ....    STRB     r0,[r8,#4]
        0x00000e36:    f24072ff    @..r    MOV      r2,#0x7ff
        0x00000e3a:    f8c12208    ..."    STR      r2,[r1,#0x208]
        0x00000e3e:    f8c1b200    ....    STR      r11,[r1,#0x200]
        0x00000e42:    b004        ..      ADD      sp,sp,#0x10
        0x00000e44:    e8bd9ff0    ....    POP      {r4-r12,pc}
        0x00000e48:    f8d10208    ....    LDR      r0,[r1,#0x208]
        0x00000e4c:    f0400001    @...    ORR      r0,r0,#1
        0x00000e50:    f8c10208    ....    STR      r0,[r1,#0x208]
        0x00000e54:    f04f4000    O..@    MOV      r0,#0x80000000
        0x00000e58:    f4056270    ..pb    AND      r2,r5,#0xf00
        0x00000e5c:    ea4030c2    @..0    ORR      r0,r0,r2,LSL #15
        0x00000e60:    b2ea        ..      UXTB     r2,r5
        0x00000e62:    4310        .C      ORRS     r0,r0,r2
        0x00000e64:    9901        ..      LDR      r1,[sp,#4]
        0x00000e66:    f44f22e0    O.."    MOV      r2,#0x70000
        0x00000e6a:    ea024101    ...A    AND      r1,r2,r1,LSL #16
        0x00000e6e:    4308        .C      ORRS     r0,r0,r1
        0x00000e70:    4928        (I      LDR      r1,[pc,#160] ; [0xf14] = 0x5c00ff00
        0x00000e72:    4031        1@      ANDS     r1,r1,r6
        0x00000e74:    4308        .C      ORRS     r0,r0,r1
        0x00000e76:    f8c70110    ....    STR      r0,[r7,#0x110]
        0x00000e7a:    2c06        .,      CMP      r4,#6
        0x00000e7c:    bf2e        ..      ITEE     CS
        0x00000e7e:    2600        .&      MOVCS    r6,#0
        0x00000e80:    f8d70100    ....    LDRCC    r0,[r7,#0x100]
        0x00000e84:    b2c6        ..      UXTBCC   r6,r0
        0x00000e86:    42ae        .B      CMP      r6,r5
        0x00000e88:    d306        ..      BCC      0xe98 ; am_hal_iom_spi_read_nq + 256
        0x00000e8a:    462a        *F      MOV      r2,r5
        0x00000e8c:    4649        IF      MOV      r1,r9
        0x00000e8e:    4620         F      MOV      r0,r4
        0x00000e90:    f7fffd26    ..&.    BL       am_hal_iom_fifo_read ; 0x8e0
        0x00000e94:    2500        .%      MOVS     r5,#0
        0x00000e96:    e00b        ..      B        0xeb0 ; am_hal_iom_spi_read_nq + 280
        0x00000e98:    2e04        ..      CMP      r6,#4
        0x00000e9a:    d309        ..      BCC      0xeb0 ; am_hal_iom_spi_read_nq + 280
        0x00000e9c:    f0260203    &...    BIC      r2,r6,#3
        0x00000ea0:    4649        IF      MOV      r1,r9
        0x00000ea2:    4620         F      MOV      r0,r4
        0x00000ea4:    f7fffd1c    ....    BL       am_hal_iom_fifo_read ; 0x8e0
        0x00000ea8:    f0260003    &...    BIC      r0,r6,#3
        0x00000eac:    1a2d        -.      SUBS     r5,r5,r0
        0x00000eae:    4481        .D      ADD      r9,r9,r0
        0x00000eb0:    f1ba0f01    ....    CMP      r10,#1
        0x00000eb4:    d005        ..      BEQ      0xec2 ; am_hal_iom_spi_read_nq + 298
        0x00000eb6:    f8d70204    ....    LDR      r0,[r7,#0x204]
        0x00000eba:    2d00        .-      CMP      r5,#0
        0x00000ebc:    f0000a01    ....    AND      r10,r0,#1
        0x00000ec0:    d1db        ..      BNE      0xe7a ; am_hal_iom_spi_read_nq + 226
        0x00000ec2:    4815        .H      LDR      r0,[pc,#84] ; [0xf18] = 0x50004204
        0x00000ec4:    2301        .#      MOVS     r3,#1
        0x00000ec6:    eb003104    ...1    ADD      r1,r0,r4,LSL #12
        0x00000eca:    4810        .H      LDR      r0,[pc,#64] ; [0xf0c] = 0x100003cc
        0x00000ecc:    461a        .F      MOV      r2,r3
        0x00000ece:    f8500024    P.$.    LDR      r0,[r0,r4,LSL #2]
        0x00000ed2:    f7fffb5b    ..[.    BL       am_hal_flash_delay_status_change ; 0x58c
        0x00000ed6:    2801        .(      CMP      r0,#1
        0x00000ed8:    bf18        ..      IT       NE
        0x00000eda:    2001        .       MOVNE    r0,#1
        0x00000edc:    d103        ..      BNE      0xee6 ; am_hal_iom_spi_read_nq + 334
        0x00000ede:    2100        .!      MOVS     r1,#0
        0x00000ee0:    4620         F      MOV      r0,r4
        0x00000ee2:    f000ff4b    ..K.    BL       internal_iom_get_int_err ; 0x1d7c
        0x00000ee6:    f8080004    ....    STRB     r0,[r8,r4]
        0x00000eea:    f24071ff    @..q    MOV      r1,#0x7ff
        0x00000eee:    f8c71208    ....    STR      r1,[r7,#0x208]
        0x00000ef2:    f8c7b200    ....    STR      r11,[r7,#0x200]
        0x00000ef6:    b004        ..      ADD      sp,sp,#0x10
        0x00000ef8:    e8bd9ff0    ....    POP      {r4-r12,pc}
    $d
        0x00000efc:    10000038    8...    DCD    268435512
        0x00000f00:    1000003f    ?...    DCD    268435519
        0x00000f04:    40020000    ...@    DCD    1073872896
        0x00000f08:    50008204    ...P    DCD    1342210564
        0x00000f0c:    100003cc    ....    DCD    268436428
        0x00000f10:    50008000    ...P    DCD    1342210048
        0x00000f14:    5c00ff00    ...\    DCD    1543569152
        0x00000f18:    50004204    .B.P    DCD    1342194180
    $t
    i.am_hal_iom_spi_write
    am_hal_iom_spi_write
        0x00000f1c:    2806        .(      CMP      r0,#6
        0x00000f1e:    bf24        $.      ITT      CS
        0x00000f20:    2002        .       MOVCS    r0,#2
        0x00000f22:    4770        pG      BXCS     lr
        0x00000f24:    e92d4ff0    -..O    PUSH     {r4-r11,lr}
        0x00000f28:    b08b        ..      SUB      sp,sp,#0x2c
        0x00000f2a:    4604        .F      MOV      r4,r0
        0x00000f2c:    4d30        0M      LDR      r5,[pc,#192] ; [0xff0] = 0x1000003f
        0x00000f2e:    2000        .       MOVS     r0,#0
        0x00000f30:    9e14        ..      LDR      r6,[sp,#0x50]
        0x00000f32:    5528        (U      STRB     r0,[r5,r4]
        0x00000f34:    2b00        .+      CMP      r3,#0
        0x00000f36:    bf01        ..      ITTTT    EQ
        0x00000f38:    2003        .       MOVEQ    r0,#3
        0x00000f3a:    5528        (U      STRBEQ   r0,[r5,r4]
        0x00000f3c:    b00b        ..      ADDEQ    sp,sp,#0x2c
        0x00000f3e:    e8bd8ff0    ....    POPEQ    {r4-r11,pc}
        0x00000f42:    eb040744    ..D.    ADD      r7,r4,r4,LSL #1
        0x00000f46:    f8dfc0ac    ....    LDR      r12,[pc,#172] ; [0xff4] = 0x100003e4
        0x00000f4a:    eb0c07c7    ....    ADD      r7,r12,r7,LSL #3
        0x00000f4e:    f8d7c014    ....    LDR      r12,[r7,#0x14]
        0x00000f52:    f1bc0f00    ....    CMP      r12,#0
        0x00000f56:    d044        D.      BEQ      0xfe2 ; am_hal_iom_spi_write + 198
        0x00000f58:    f04f0b00    O...    MOV      r11,#0
        0x00000f5c:    468a        .F      MOV      r10,r1
        0x00000f5e:    4691        .F      MOV      r9,r2
        0x00000f60:    4698        .F      MOV      r8,r3
        0x00000f62:    f805b004    ....    STRB     r11,[r5,r4]
        0x00000f66:    f7fff913    ....    BL       am_hal_interrupt_master_disable ; 0x190
        0x00000f6a:    9002        ..      STR      r0,[sp,#8]
        0x00000f6c:    4822        "H      LDR      r0,[pc,#136] ; [0xff8] = 0x10000038
        0x00000f6e:    5d00        .]      LDRB     r0,[r0,r4]
        0x00000f70:    2800        .(      CMP      r0,#0
        0x00000f72:    bf04        ..      ITT      EQ
        0x00000f74:    68b8        .h      LDREQ    r0,[r7,#8]
        0x00000f76:    2800        .(      CMPEQ    r0,#0
        0x00000f78:    d014        ..      BEQ      0xfa4 ; am_hal_iom_spi_write + 136
        0x00000f7a:    f04f0000    O...    MOV      r0,#0
        0x00000f7e:    f8cda014    ....    STR      r10,[sp,#0x14]
        0x00000f82:    e9cd0403    ....    STRD     r0,r4,[sp,#0xc]
        0x00000f86:    e9cd6008    ...`    STRD     r6,r0,[sp,#0x20]
        0x00000f8a:    e9cd9806    ....    STRD     r9,r8,[sp,#0x18]
        0x00000f8e:    4638        8F      MOV      r0,r7
        0x00000f90:    f04f0201    O...    MOV      r2,#1
        0x00000f94:    a903        ..      ADD      r1,sp,#0xc
        0x00000f96:    f000fd51    ..Q.    BL       am_hal_queue_item_add ; 0x1a3c
        0x00000f9a:    2800        .(      CMP      r0,#0
        0x00000f9c:    bf08        ..      IT       EQ
        0x00000f9e:    2608        .&      MOVEQ    r6,#8
        0x00000fa0:    d00a        ..      BEQ      0xfb8 ; am_hal_iom_spi_write + 156
        0x00000fa2:    e013        ..      B        0xfcc ; am_hal_iom_spi_write + 176
        0x00000fa4:    e9cd6b00    ...k    STRD     r6,r11,[sp,#0]
        0x00000fa8:    4643        CF      MOV      r3,r8
        0x00000faa:    464a        JF      MOV      r2,r9
        0x00000fac:    4651        QF      MOV      r1,r10
        0x00000fae:    4620         F      MOV      r0,r4
        0x00000fb0:    f000f826    ..&.    BL       am_hal_iom_spi_write_nb ; 0x1000
        0x00000fb4:    0006        ..      MOVS     r6,r0
        0x00000fb6:    d009        ..      BEQ      0xfcc ; am_hal_iom_spi_write + 176
        0x00000fb8:    552e        .U      STRB     r6,[r5,r4]
        0x00000fba:    9802        ..      LDR      r0,[sp,#8]
        0x00000fbc:    f7fff8ec    ....    BL       am_hal_interrupt_master_set ; 0x198
        0x00000fc0:    0030        0.      MOVS     r0,r6
        0x00000fc2:    bf1c        ..      ITT      NE
        0x00000fc4:    b00b        ..      ADDNE    sp,sp,#0x2c
        0x00000fc6:    e8bd8ff0    ....    POPNE    {r4-r11,pc}
        0x00000fca:    e002        ..      B        0xfd2 ; am_hal_iom_spi_write + 182
        0x00000fcc:    9802        ..      LDR      r0,[sp,#8]
        0x00000fce:    f7fff8e3    ....    BL       am_hal_interrupt_master_set ; 0x198
        0x00000fd2:    490a        .I      LDR      r1,[pc,#40] ; [0xffc] = 0x10000034
        0x00000fd4:    4620         F      MOV      r0,r4
        0x00000fd6:    6809        .h      LDR      r1,[r1,#0]
        0x00000fd8:    4788        .G      BLX      r1
        0x00000fda:    5d28        (]      LDRB     r0,[r5,r4]
        0x00000fdc:    b00b        ..      ADD      sp,sp,#0x2c
        0x00000fde:    e8bd8ff0    ....    POP      {r4-r11,pc}
        0x00000fe2:    4620         F      MOV      r0,r4
        0x00000fe4:    9600        ..      STR      r6,[sp,#0]
        0x00000fe6:    f000f899    ....    BL       am_hal_iom_spi_write_nq ; 0x111c
        0x00000fea:    b00b        ..      ADD      sp,sp,#0x2c
        0x00000fec:    e8bd8ff0    ....    POP      {r4-r11,pc}
    $d
        0x00000ff0:    1000003f    ?...    DCD    268435519
        0x00000ff4:    100003e4    ....    DCD    268436452
        0x00000ff8:    10000038    8...    DCD    268435512
        0x00000ffc:    10000034    4...    DCD    268435508
    $t
    i.am_hal_iom_spi_write_nb
    am_hal_iom_spi_write_nb
        0x00001000:    2806        .(      CMP      r0,#6
        0x00001002:    bf24        $.      ITT      CS
        0x00001004:    2002        .       MOVCS    r0,#2
        0x00001006:    4770        pG      BXCS     lr
        0x00001008:    e92d4fff    -..O    PUSH     {r0-r11,lr}
        0x0000100c:    b081        ..      SUB      sp,sp,#4
        0x0000100e:    4605        .F      MOV      r5,r0
        0x00001010:    e9dd7b0e    ...{    LDRD     r7,r11,[sp,#0x38]
        0x00001014:    483c        <H      LDR      r0,[pc,#240] ; [0x1108] = 0x10000038
        0x00001016:    461c        .F      MOV      r4,r3
        0x00001018:    4690        .F      MOV      r8,r2
        0x0000101a:    5d41        A]      LDRB     r1,[r0,r5]
        0x0000101c:    2900        .)      CMP      r1,#0
        0x0000101e:    d1fc        ..      BNE      0x101a ; am_hal_iom_spi_write_nb + 26
        0x00001020:    493a        :I      LDR      r1,[pc,#232] ; [0x110c] = 0x1000003f
        0x00001022:    2200        ."      MOVS     r2,#0
        0x00001024:    2c00        .,      CMP      r4,#0
        0x00001026:    554a        JU      STRB     r2,[r1,r5]
        0x00001028:    9200        ..      STR      r2,[sp,#0]
        0x0000102a:    bf18        ..      IT       NE
        0x0000102c:    f5b45f80    ..._    CMPNE    r4,#0x1000
        0x00001030:    bf21        !.      ITTTT    CS
        0x00001032:    2003        .       MOVCS    r0,#3
        0x00001034:    5548        HU      STRBCS   r0,[r1,r5]
        0x00001036:    b005        ..      ADDCS    sp,sp,#0x14
        0x00001038:    e8bd8ff0    ....    POPCS    {r4-r11,pc}
        0x0000103c:    0329        ).      LSLS     r1,r5,#12
        0x0000103e:    f1014aa0    ...J    ADD      r10,r1,#0x50000000
        0x00001042:    f50a4a80    ...J    ADD      r10,r10,#0x4000
        0x00001046:    f8da111c    ....    LDR      r1,[r10,#0x11c]
        0x0000104a:    f0110f08    ....    TST      r1,#8
        0x0000104e:    bf0c        ..      ITE      EQ
        0x00001050:    2680        .&      MOVEQ    r6,#0x80
        0x00001052:    2640        @&      MOVNE    r6,#0x40
        0x00001054:    f04f0901    O...    MOV      r9,#1
        0x00001058:    f8009005    ....    STRB     r9,[r0,r5]
        0x0000105c:    f24070ff    @..p    MOV      r0,#0x7ff
        0x00001060:    f8ca0208    ....    STR      r0,[r10,#0x208]
        0x00001064:    2d04        .-      CMP      r5,#4
        0x00001066:    d104        ..      BNE      0x1072 ; am_hal_iom_spi_write_nb + 114
        0x00001068:    4829        )H      LDR      r0,[pc,#164] ; [0x1110] = 0x40020000
        0x0000106a:    68c0        .h      LDR      r0,[r0,#0xc]
        0x0000106c:    b2c0        ..      UXTB     r0,r0
        0x0000106e:    2820         (      CMP      r0,#0x20
        0x00001070:    d02e        ..      BEQ      0x10d0 ; am_hal_iom_spi_write_nb + 208
        0x00001072:    42b4        .B      CMP      r4,r6
        0x00001074:    bf98        ..      IT       LS
        0x00001076:    461e        .F      MOVLS    r6,r3
        0x00001078:    4632        2F      MOV      r2,r6
        0x0000107a:    4641        AF      MOV      r1,r8
        0x0000107c:    4628        (F      MOV      r0,r5
        0x0000107e:    f7fffc9b    ....    BL       am_hal_iom_fifo_write ; 0x9b8
        0x00001082:    b308        ..      CBZ      r0,0x10c8 ; am_hal_iom_spi_write_nb + 200
        0x00001084:    4823        #H      LDR      r0,[pc,#140] ; [0x1114] = 0x10000354
        0x00001086:    eb050185    ....    ADD      r1,r5,r5,LSL #2
        0x0000108a:    f4046270    ..pb    AND      r2,r4,#0xf00
        0x0000108e:    f8409021    @.!.    STR      r9,[r0,r1,LSL #2]
        0x00001092:    eb000081    ....    ADD      r0,r0,r1,LSL #2
        0x00001096:    1ba1        ..      SUBS     r1,r4,r6
        0x00001098:    f8c0b010    ....    STR      r11,[r0,#0x10]
        0x0000109c:    e9c01702    ....    STRD     r1,r7,[r0,#8]
        0x000010a0:    f0260103    &...    BIC      r1,r6,#3
        0x000010a4:    4441        AD      ADD      r1,r1,r8
        0x000010a6:    6041        A`      STR      r1,[r0,#4]
        0x000010a8:    2000        .       MOVS     r0,#0
        0x000010aa:    ea4030c2    @..0    ORR      r0,r0,r2,LSL #15
        0x000010ae:    b2e2        ..      UXTB     r2,r4
        0x000010b0:    4310        .C      ORRS     r0,r0,r2
        0x000010b2:    9902        ..      LDR      r1,[sp,#8]
        0x000010b4:    f44f22e0    O.."    MOV      r2,#0x70000
        0x000010b8:    ea024101    ...A    AND      r1,r2,r1,LSL #16
        0x000010bc:    4308        .C      ORRS     r0,r0,r1
        0x000010be:    4916        .I      LDR      r1,[pc,#88] ; [0x1118] = 0x5c00ff00
        0x000010c0:    4039        9@      ANDS     r1,r1,r7
        0x000010c2:    4308        .C      ORRS     r0,r0,r1
        0x000010c4:    f8ca0110    ....    STR      r0,[r10,#0x110]
        0x000010c8:    9800        ..      LDR      r0,[sp,#0]
        0x000010ca:    b005        ..      ADD      sp,sp,#0x14
        0x000010cc:    e8bd8ff0    ....    POP      {r4-r11,pc}
        0x000010d0:    1f30        0.      SUBS     r0,r6,#4
        0x000010d2:    4284        .B      CMP      r4,r0
        0x000010d4:    bf94        ..      ITE      LS
        0x000010d6:    4619        .F      MOVLS    r1,r3
        0x000010d8:    4601        .F      MOVHI    r1,r0
        0x000010da:    480e        .H      LDR      r0,[pc,#56] ; [0x1114] = 0x10000354
        0x000010dc:    4a0d        .J      LDR      r2,[pc,#52] ; [0x1114] = 0x10000354
        0x000010de:    f8c09050    ..P.    STR      r9,[r0,#0x50]
        0x000010e2:    f0210003    !...    BIC      r0,r1,#3
        0x000010e6:    eb000308    ....    ADD      r3,r0,r8
        0x000010ea:    f8c2b060    ..`.    STR      r11,[r2,#0x60]
        0x000010ee:    f1020050    ..P.    ADD      r0,r2,#0x50
        0x000010f2:    6553        Se      STR      r3,[r2,#0x54]
        0x000010f4:    1a61        a.      SUBS     r1,r4,r1
        0x000010f6:    e9c01702    ....    STRD     r1,r7,[r0,#8]
        0x000010fa:    463b        ;F      MOV      r3,r7
        0x000010fc:    4622        "F      MOV      r2,r4
        0x000010fe:    4641        AF      MOV      r1,r8
        0x00001100:    9802        ..      LDR      r0,[sp,#8]
        0x00001102:    f000f8bb    ....    BL       am_hal_iom_workaround_word_write ; 0x127c
        0x00001106:    e7df        ..      B        0x10c8 ; am_hal_iom_spi_write_nb + 200
    $d
        0x00001108:    10000038    8...    DCD    268435512
        0x0000110c:    1000003f    ?...    DCD    268435519
        0x00001110:    40020000    ...@    DCD    1073872896
        0x00001114:    10000354    T...    DCD    268436308
        0x00001118:    5c00ff00    ...\    DCD    1543569152
    $t
    i.am_hal_iom_spi_write_nq
    am_hal_iom_spi_write_nq
        0x0000111c:    2806        .(      CMP      r0,#6
        0x0000111e:    bf24        $.      ITT      CS
        0x00001120:    2002        .       MOVCS    r0,#2
        0x00001122:    4770        pG      BXCS     lr
        0x00001124:    e92d5fff    -.._    PUSH     {r0-r12,lr}
        0x00001128:    4604        .F      MOV      r4,r0
        0x0000112a:    484e        NH      LDR      r0,[pc,#312] ; [0x1264] = 0x10000038
        0x0000112c:    461d        .F      MOV      r5,r3
        0x0000112e:    5d01        .]      LDRB     r1,[r0,r4]
        0x00001130:    2900        .)      CMP      r1,#0
        0x00001132:    d1fc        ..      BNE      0x112e ; am_hal_iom_spi_write_nq + 18
        0x00001134:    f8df8130    ..0.    LDR      r8,[pc,#304] ; [0x1268] = 0x1000003f
        0x00001138:    4689        .F      MOV      r9,r1
        0x0000113a:    2d00        .-      CMP      r5,#0
        0x0000113c:    f8089004    ....    STRB     r9,[r8,r4]
        0x00001140:    bf18        ..      IT       NE
        0x00001142:    f5b55f80    ..._    CMPNE    r5,#0x1000
        0x00001146:    bf21        !.      ITTTT    CS
        0x00001148:    2003        .       MOVCS    r0,#3
        0x0000114a:    f8080004    ....    STRBCS   r0,[r8,r4]
        0x0000114e:    b004        ..      ADDCS    sp,sp,#0x10
        0x00001150:    e8bd9ff0    ....    POPCS    {r4-r12,pc}
        0x00001154:    0320         .      LSLS     r0,r4,#12
        0x00001156:    f10046a0    ...F    ADD      r6,r0,#0x50000000
        0x0000115a:    f5064680    ...F    ADD      r6,r6,#0x4000
        0x0000115e:    f8d6011c    ....    LDR      r0,[r6,#0x11c]
        0x00001162:    f0100f08    ....    TST      r0,#8
        0x00001166:    bf0c        ..      ITE      EQ
        0x00001168:    2780        .'      MOVEQ    r7,#0x80
        0x0000116a:    2740        @'      MOVNE    r7,#0x40
        0x0000116c:    f8d6a200    ....    LDR      r10,[r6,#0x200]
        0x00001170:    f8c69200    ....    STR      r9,[r6,#0x200]
        0x00001174:    f2407bff    @..{    MOV      r11,#0x7ff
        0x00001178:    f8c6b208    ....    STR      r11,[r6,#0x208]
        0x0000117c:    2c04        .,      CMP      r4,#4
        0x0000117e:    d104        ..      BNE      0x118a ; am_hal_iom_spi_write_nq + 110
        0x00001180:    483a        :H      LDR      r0,[pc,#232] ; [0x126c] = 0x40020000
        0x00001182:    68c0        .h      LDR      r0,[r0,#0xc]
        0x00001184:    b2c0        ..      UXTB     r0,r0
        0x00001186:    2820         (      CMP      r0,#0x20
        0x00001188:    d020         .      BEQ      0x11cc ; am_hal_iom_spi_write_nq + 176
        0x0000118a:    42bd        .B      CMP      r5,r7
        0x0000118c:    bf98        ..      IT       LS
        0x0000118e:    461f        .F      MOVLS    r7,r3
        0x00001190:    463a        :F      MOV      r2,r7
        0x00001192:    4620         F      MOV      r0,r4
        0x00001194:    9902        ..      LDR      r1,[sp,#8]
        0x00001196:    f7fffc0f    ....    BL       am_hal_iom_fifo_write ; 0x9b8
        0x0000119a:    2000        .       MOVS     r0,#0
        0x0000119c:    f4056370    ..pc    AND      r3,r5,#0xf00
        0x000011a0:    ea4030c3    @..0    ORR      r0,r0,r3,LSL #15
        0x000011a4:    b2eb        ..      UXTB     r3,r5
        0x000011a6:    4318        .C      ORRS     r0,r0,r3
        0x000011a8:    9a01        ..      LDR      r2,[sp,#4]
        0x000011aa:    f44f23e0    O..#    MOV      r3,#0x70000
        0x000011ae:    ea034202    ...B    AND      r2,r3,r2,LSL #16
        0x000011b2:    4310        .C      ORRS     r0,r0,r2
        0x000011b4:    4a2e        .J      LDR      r2,[pc,#184] ; [0x1270] = 0x5c00ff00
        0x000011b6:    990e        ..      LDR      r1,[sp,#0x38]
        0x000011b8:    4011        .@      ANDS     r1,r1,r2
        0x000011ba:    4308        .C      ORRS     r0,r0,r1
        0x000011bc:    f8c60110    ....    STR      r0,[r6,#0x110]
        0x000011c0:    9802        ..      LDR      r0,[sp,#8]
        0x000011c2:    1bed        ..      SUBS     r5,r5,r7
        0x000011c4:    f0270103    '...    BIC      r1,r7,#3
        0x000011c8:    180f        ..      ADDS     r7,r1,r0
        0x000011ca:    e02a        *.      B        0x1222 ; am_hal_iom_spi_write_nq + 262
        0x000011cc:    e9dd0101    ....    LDRD     r0,r1,[sp,#4]
        0x000011d0:    462a        *F      MOV      r2,r5
        0x000011d2:    9b0e        ..      LDR      r3,[sp,#0x38]
        0x000011d4:    f000f852    ..R.    BL       am_hal_iom_workaround_word_write ; 0x127c
        0x000011d8:    1f38        8.      SUBS     r0,r7,#4
        0x000011da:    4285        .B      CMP      r5,r0
        0x000011dc:    bf94        ..      ITE      LS
        0x000011de:    462f        /F      MOVLS    r7,r5
        0x000011e0:    1f3f        ?.      SUBHI    r7,r7,#4
        0x000011e2:    e7ed        ..      B        0x11c0 ; am_hal_iom_spi_write_nq + 164
        0x000011e4:    2c06        .,      CMP      r4,#6
        0x000011e6:    bf28        (.      IT       CS
        0x000011e8:    2000        .       MOVCS    r0,#0
        0x000011ea:    d20b        ..      BCS      0x1204 ; am_hal_iom_spi_write_nq + 232
        0x000011ec:    f8d6011c    ....    LDR      r0,[r6,#0x11c]
        0x000011f0:    f0100f08    ....    TST      r0,#8
        0x000011f4:    bf0c        ..      ITE      EQ
        0x000011f6:    2080        .       MOVEQ    r0,#0x80
        0x000011f8:    2040        @       MOVNE    r0,#0x40
        0x000011fa:    f8d61100    ....    LDR      r1,[r6,#0x100]
        0x000011fe:    1a40        @.      SUBS     r0,r0,r1
        0x00001200:    f00000fc    ....    AND      r0,r0,#0xfc
        0x00001204:    4285        .B      CMP      r5,r0
        0x00001206:    bf94        ..      ITE      LS
        0x00001208:    46a9        .F      MOVLS    r9,r5
        0x0000120a:    f0200903     ...    BICHI    r9,r0,#3
        0x0000120e:    464a        JF      MOV      r2,r9
        0x00001210:    4639        9F      MOV      r1,r7
        0x00001212:    4620         F      MOV      r0,r4
        0x00001214:    f7fffbd0    ....    BL       am_hal_iom_fifo_write ; 0x9b8
        0x00001218:    f0290003    )...    BIC      r0,r9,#3
        0x0000121c:    eba50509    ....    SUB      r5,r5,r9
        0x00001220:    4407        .D      ADD      r7,r7,r0
        0x00001222:    b125        %.      CBZ      r5,0x122e ; am_hal_iom_spi_write_nq + 274
        0x00001224:    f8d60204    ....    LDR      r0,[r6,#0x204]
        0x00001228:    f0100f01    ....    TST      r0,#1
        0x0000122c:    d0da        ..      BEQ      0x11e4 ; am_hal_iom_spi_write_nq + 200
        0x0000122e:    4811        .H      LDR      r0,[pc,#68] ; [0x1274] = 0x50004204
        0x00001230:    2301        .#      MOVS     r3,#1
        0x00001232:    eb003104    ...1    ADD      r1,r0,r4,LSL #12
        0x00001236:    4810        .H      LDR      r0,[pc,#64] ; [0x1278] = 0x100003cc
        0x00001238:    461a        .F      MOV      r2,r3
        0x0000123a:    f8500024    P.$.    LDR      r0,[r0,r4,LSL #2]
        0x0000123e:    f7fff9a5    ....    BL       am_hal_flash_delay_status_change ; 0x58c
        0x00001242:    2801        .(      CMP      r0,#1
        0x00001244:    bf18        ..      IT       NE
        0x00001246:    2001        .       MOVNE    r0,#1
        0x00001248:    d103        ..      BNE      0x1252 ; am_hal_iom_spi_write_nq + 310
        0x0000124a:    2100        .!      MOVS     r1,#0
        0x0000124c:    4620         F      MOV      r0,r4
        0x0000124e:    f000fd95    ....    BL       internal_iom_get_int_err ; 0x1d7c
        0x00001252:    f8080004    ....    STRB     r0,[r8,r4]
        0x00001256:    f8c6b208    ....    STR      r11,[r6,#0x208]
        0x0000125a:    f8c6a200    ....    STR      r10,[r6,#0x200]
        0x0000125e:    b004        ..      ADD      sp,sp,#0x10
        0x00001260:    e8bd9ff0    ....    POP      {r4-r12,pc}
    $d
        0x00001264:    10000038    8...    DCD    268435512
        0x00001268:    1000003f    ?...    DCD    268435519
        0x0000126c:    40020000    ...@    DCD    1073872896
        0x00001270:    5c00ff00    ...\    DCD    1543569152
        0x00001274:    50004204    .B.P    DCD    1342194180
        0x00001278:    100003cc    ....    DCD    268436428
    $t
    i.am_hal_iom_workaround_word_write
    am_hal_iom_workaround_word_write
        0x0000127c:    e92d4fff    -..O    PUSH     {r0-r11,lr}
        0x00001280:    b085        ..      SUB      sp,sp,#0x14
        0x00001282:    4cf9        .L      LDR      r4,[pc,#996] ; [0x1668] = 0x50008000
        0x00001284:    f04f0800    O...    MOV      r8,#0
        0x00001288:    f8cd8008    ....    STR      r8,[sp,#8]
        0x0000128c:    f8d4011c    ....    LDR      r0,[r4,#0x11c]
        0x00001290:    469a        .F      MOV      r10,r3
        0x00001292:    f0100f08    ....    TST      r0,#8
        0x00001296:    bf0c        ..      ITE      EQ
        0x00001298:    f04f0980    O...    MOVEQ    r9,#0x80
        0x0000129c:    f04f0940    O.@.    MOVNE    r9,#0x40
        0x000012a0:    f64071fb    @..q    MOV      r1,#0xffb
        0x000012a4:    9807        ..      LDR      r0,[sp,#0x1c]
        0x000012a6:    4288        .B      CMP      r0,r1
        0x000012a8:    d905        ..      BLS      0x12b6 ; am_hal_iom_workaround_word_write + 58
        0x000012aa:    a2f0        ..      ADR      r2,{pc}+0x3c2 ; 0x166c
        0x000012ac:    f24041a9    @..A    MOV      r1,#0x4a9
        0x000012b0:    a0f4        ..      ADR      r0,{pc}+0x3d4 ; 0x1684
        0x000012b2:    f7fff965    ..e.    BL       am_hal_debug_error ; 0x580
        0x000012b6:    48ec        .H      LDR      r0,[pc,#944] ; [0x1668] = 0x50008000
        0x000012b8:    f8d0510c    ...Q    LDR      r5,[r0,#0x10c]
        0x000012bc:    4cf5        .L      LDR      r4,[pc,#980] ; [0x1694] = 0xf42400
        0x000012be:    f8d0110c    ....    LDR      r1,[r0,#0x10c]
        0x000012c2:    2001        .       MOVS     r0,#1
        0x000012c4:    f3c122c0    ..."    UBFX     r2,r1,#11,#1
        0x000012c8:    f3c13c00    ...<    UBFX     r12,r1,#12,#1
        0x000012cc:    0e09        ..      LSRS     r1,r1,#24
        0x000012ce:    4683        .F      MOV      r11,r0
        0x000012d0:    eb000342    ..B.    ADD      r3,r0,r2,LSL #1
        0x000012d4:    fb1cf101    ....    SMULBB   r1,r12,r1
        0x000012d8:    4fef        .O      LDR      r7,[pc,#956] ; [0x1698] = 0x2dc6c00
        0x000012da:    1c4a        J.      ADDS     r2,r1,#1
        0x000012dc:    1e41        A.      SUBS     r1,r0,#1
        0x000012de:    fa03f101    ....    LSL      r1,r3,r1
        0x000012e2:    4351        QC      MULS     r1,r2,r1
        0x000012e4:    fbb7f6f1    ....    UDIV     r6,r7,r1
        0x000012e8:    fbb7fcf1    ....    UDIV     r12,r7,r1
        0x000012ec:    fb017616    ...v    MLS      r6,r1,r6,r7
        0x000012f0:    ebb60f51    ..Q.    CMP      r6,r1,LSR #1
        0x000012f4:    bf8c        ..      ITE      HI
        0x000012f6:    2101        .!      MOVHI    r1,#1
        0x000012f8:    2100        .!      MOVLS    r1,#0
        0x000012fa:    4461        aD      ADD      r1,r1,r12
        0x000012fc:    42a1        .B      CMP      r1,r4
        0x000012fe:    d800        ..      BHI      0x1302 ; am_hal_iom_workaround_word_write + 134
        0x00001300:    b949        I.      CBNZ     r1,0x1316 ; am_hal_iom_workaround_word_write + 154
        0x00001302:    1c40        @.      ADDS     r0,r0,#1
        0x00001304:    2808        .(      CMP      r0,#8
        0x00001306:    d3e9        ..      BCC      0x12dc ; am_hal_iom_workaround_word_write + 96
        0x00001308:    a2e4        ..      ADR      r2,{pc}+0x394 ; 0x169c
        0x0000130a:    f2404147    @.GA    MOV      r1,#0x447
        0x0000130e:    a0f1        ..      ADR      r0,{pc}+0x3c6 ; 0x16d4
        0x00001310:    f7fff936    ..6.    BL       am_hal_debug_error ; 0x580
        0x00001314:    4620         F      MOV      r0,r4
        0x00001316:    462e        .F      MOV      r6,r5
        0x00001318:    f360260a    `..&    BFI      r6,r0,#8,#3
        0x0000131c:    f3c52202    ..."    UBFX     r2,r5,#8,#3
        0x00001320:    f3c520c0    ...     UBFX     r0,r5,#11,#1
        0x00001324:    eb0b0040    ..@.    ADD      r0,r11,r0,LSL #1
        0x00001328:    1e52        R.      SUBS     r2,r2,#1
        0x0000132a:    f3c53300    ...3    UBFX     r3,r5,#12,#1
        0x0000132e:    ea4f6c15    O..l    LSR      r12,r5,#24
        0x00001332:    4090        .@      LSLS     r0,r0,r2
        0x00001334:    fb13f20c    ....    SMULBB   r2,r3,r12
        0x00001338:    1c52        R.      ADDS     r2,r2,#1
        0x0000133a:    4350        PC      MULS     r0,r2,r0
        0x0000133c:    fbb7f3f0    ....    UDIV     r3,r7,r0
        0x00001340:    fbb7f2f0    ....    UDIV     r2,r7,r0
        0x00001344:    fb007113    ...q    MLS      r1,r0,r3,r7
        0x00001348:    ebb10f50    ..P.    CMP      r1,r0,LSR #1
        0x0000134c:    bf8c        ..      ITE      HI
        0x0000134e:    2001        .       MOVHI    r0,#1
        0x00001350:    2000        .       MOVLS    r0,#0
        0x00001352:    4410        .D      ADD      r0,r0,r2
        0x00001354:    49c4        .I      LDR      r1,[pc,#784] ; [0x1668] = 0x50008000
        0x00001356:    f8c1610c    ...a    STR      r6,[r1,#0x10c]
        0x0000135a:    49e2        .I      LDR      r1,[pc,#904] ; [0x16e4] = 0x5b8d800
        0x0000135c:    eb000040    ..@.    ADD      r0,r0,r0,LSL #1
        0x00001360:    fbb1f0f0    ....    UDIV     r0,r1,r0
        0x00001364:    49e0        .I      LDR      r1,[pc,#896] ; [0x16e8] = 0x800009d
        0x00001366:    4788        .G      BLX      r1
        0x00001368:    f3c62102    ...!    UBFX     r1,r6,#8,#3
        0x0000136c:    f3c623c0    ...#    UBFX     r3,r6,#11,#1
        0x00001370:    eb0b0343    ..C.    ADD      r3,r11,r3,LSL #1
        0x00001374:    1e49        I.      SUBS     r1,r1,#1
        0x00001376:    4638        8F      MOV      r0,r7
        0x00001378:    f3c63200    ...2    UBFX     r2,r6,#12,#1
        0x0000137c:    ea4f6c16    O..l    LSR      r12,r6,#24
        0x00001380:    fa03f101    ....    LSL      r1,r3,r1
        0x00001384:    fb12f20c    ....    SMULBB   r2,r2,r12
        0x00001388:    1c52        R.      ADDS     r2,r2,#1
        0x0000138a:    4351        QC      MULS     r1,r2,r1
        0x0000138c:    fbb7f3f1    ....    UDIV     r3,r7,r1
        0x00001390:    fbb7f2f1    ....    UDIV     r2,r7,r1
        0x00001394:    fb010313    ....    MLS      r3,r1,r3,r0
        0x00001398:    ebb30f51    ..Q.    CMP      r3,r1,LSR #1
        0x0000139c:    bf8c        ..      ITE      HI
        0x0000139e:    2101        .!      MOVHI    r1,#1
        0x000013a0:    2100        .!      MOVLS    r1,#0
        0x000013a2:    188e        ..      ADDS     r6,r1,r2
        0x000013a4:    d025        %.      BEQ      0x13f2 ; am_hal_iom_workaround_word_write + 374
        0x000013a6:    49b0        .I      LDR      r1,[pc,#704] ; [0x1668] = 0x50008000
        0x000013a8:    4fd0        .O      LDR      r7,[pc,#832] ; [0x16ec] = 0xf4240
        0x000013aa:    f8d1110c    ....    LDR      r1,[r1,#0x10c]
        0x000013ae:    2401        .$      MOVS     r4,#1
        0x000013b0:    f3c123c0    ...#    UBFX     r3,r1,#11,#1
        0x000013b4:    f3c13200    ...2    UBFX     r2,r1,#12,#1
        0x000013b8:    0e09        ..      LSRS     r1,r1,#24
        0x000013ba:    eb040b43    ..C.    ADD      r11,r4,r3,LSL #1
        0x000013be:    fb12f101    ....    SMULBB   r1,r2,r1
        0x000013c2:    f1010c01    ....    ADD      r12,r1,#1
        0x000013c6:    1e61        a.      SUBS     r1,r4,#1
        0x000013c8:    fa0bf101    ....    LSL      r1,r11,r1
        0x000013cc:    fb01f10c    ....    MUL      r1,r1,r12
        0x000013d0:    fbb0fef1    ....    UDIV     lr,r0,r1
        0x000013d4:    fbb0f3f1    ....    UDIV     r3,r0,r1
        0x000013d8:    fb01021e    ....    MLS      r2,r1,lr,r0
        0x000013dc:    ebb20f51    ..Q.    CMP      r2,r1,LSR #1
        0x000013e0:    bf8c        ..      ITE      HI
        0x000013e2:    2101        .!      MOVHI    r1,#1
        0x000013e4:    2100        .!      MOVLS    r1,#0
        0x000013e6:    4419        .D      ADD      r1,r1,r3
        0x000013e8:    42b9        .B      CMP      r1,r7
        0x000013ea:    d80b        ..      BHI      0x1404 ; am_hal_iom_workaround_word_write + 392
        0x000013ec:    2900        .)      CMP      r1,#0
        0x000013ee:    d113        ..      BNE      0x1418 ; am_hal_iom_workaround_word_write + 412
        0x000013f0:    e008        ..      B        0x1404 ; am_hal_iom_workaround_word_write + 392
        0x000013f2:    a2bf        ..      ADR      r2,{pc}+0x2fe ; 0x16f0
        0x000013f4:    f24041d4    @..A    MOV      r1,#0x4d4
        0x000013f8:    a0a2        ..      ADR      r0,{pc}+0x28c ; 0x1684
        0x000013fa:    f7fff8c1    ....    BL       am_hal_debug_error ; 0x580
        0x000013fe:    b009        ..      ADD      sp,sp,#0x24
        0x00001400:    e8bd8ff0    ....    POP      {r4-r11,pc}
        0x00001404:    1c64        d.      ADDS     r4,r4,#1
        0x00001406:    2c08        .,      CMP      r4,#8
        0x00001408:    d3dd        ..      BCC      0x13c6 ; am_hal_iom_workaround_word_write + 330
        0x0000140a:    a2a4        ..      ADR      r2,{pc}+0x292 ; 0x169c
        0x0000140c:    f2404147    @.GA    MOV      r1,#0x447
        0x00001410:    a0b0        ..      ADR      r0,{pc}+0x2c4 ; 0x16d4
        0x00001412:    f7fff8b5    ....    BL       am_hal_debug_error ; 0x580
        0x00001416:    463c        <F      MOV      r4,r7
        0x00001418:    4628        (F      MOV      r0,r5
        0x0000141a:    f364200a    d..     BFI      r0,r4,#8,#3
        0x0000141e:    9003        ..      STR      r0,[sp,#0xc]
        0x00001420:    f01a4f80    ...O    TST      r10,#0x40000000
        0x00001424:    eb060046    ..F.    ADD      r0,r6,r6,LSL #1
        0x00001428:    d04f        O.      BEQ      0x14ca ; am_hal_iom_workaround_word_write + 590
        0x0000142a:    49b9        .I      LDR      r1,[pc,#740] ; [0x1710] = 0x4d3f6400
        0x0000142c:    fbb1f7f0    ....    UDIV     r7,r1,r0
        0x00001430:    9806        ..      LDR      r0,[sp,#0x18]
        0x00001432:    7800        .x      LDRB     r0,[r0,#0]
        0x00001434:    f0100f80    ....    TST      r0,#0x80
        0x00001438:    bf03        ..      ITTTE    EQ
        0x0000143a:    f06f00ff    o...    MVNEQ    r0,#0xff
        0x0000143e:    9002        ..      STREQ    r0,[sp,#8]
        0x00001440:    2600        .&      MOVEQ    r6,#0
        0x00001442:    f8cd8008    ....    STRNE    r8,[sp,#8]
        0x00001446:    bf18        ..      IT       NE
        0x00001448:    2601        .&      MOVNE    r6,#1
        0x0000144a:    f04a4080    J..@    ORR      r0,r10,#0x40000000
        0x0000144e:    9008        ..      STR      r0,[sp,#0x20]
        0x00001450:    9807        ..      LDR      r0,[sp,#0x1c]
        0x00001452:    f1000a04    ....    ADD      r10,r0,#4
        0x00001456:    45ca        .E      CMP      r10,r9
        0x00001458:    bf98        ..      IT       LS
        0x0000145a:    46d1        .F      MOVLS    r9,r10
        0x0000145c:    2204        ."      MOVS     r2,#4
        0x0000145e:    a902        ..      ADD      r1,sp,#8
        0x00001460:    4610        .F      MOV      r0,r2
        0x00001462:    f7fffaa9    ....    BL       am_hal_iom_fifo_write ; 0x9b8
        0x00001466:    f1a90204    ....    SUB      r2,r9,#4
        0x0000146a:    2004        .       MOVS     r0,#4
        0x0000146c:    9906        ..      LDR      r1,[sp,#0x18]
        0x0000146e:    f7fffaa3    ....    BL       am_hal_iom_fifo_write ; 0x9b8
        0x00001472:    49a8        .I      LDR      r1,[pc,#672] ; [0x1714] = 0x3da1
        0x00001474:    9b05        ..      LDR      r3,[sp,#0x14]
        0x00001476:    2000        .       MOVS     r0,#0
        0x00001478:    f04f09ff    O...    MOV      r9,#0xff
        0x0000147c:    eb000240    ..@.    ADD      r2,r0,r0,LSL #1
        0x00001480:    f811c002    ....    LDRB     r12,[r1,r2]
        0x00001484:    459c        .E      CMP      r12,r3
        0x00001486:    d133        3.      BNE      0x14f0 ; am_hal_iom_workaround_word_write + 628
        0x00001488:    eb020c01    ....    ADD      r12,r2,r1
        0x0000148c:    f89c2001    ...     LDRB     r2,[r12,#1]
        0x00001490:    f00204fc    ....    AND      r4,r2,#0xfc
        0x00001494:    f1044480    ...D    ADD      r4,r4,#0x40000000
        0x00001498:    f5043480    ...4    ADD      r4,r4,#0x10000
        0x0000149c:    6824        $h      LDR      r4,[r4,#0]
        0x0000149e:    0792        ..      LSLS     r2,r2,#30
        0x000014a0:    0ed2        ..      LSRS     r2,r2,#27
        0x000014a2:    fa09fb02    ....    LSL      r11,r9,r2
        0x000014a6:    ea04040b    ....    AND      r4,r4,r11
        0x000014aa:    fa24f202    $...    LSR      r2,r4,r2
        0x000014ae:    f89cc002    ....    LDRB     r12,[r12,#2]
        0x000014b2:    f3c202c2    ....    UBFX     r2,r2,#3,#3
        0x000014b6:    4594        .E      CMP      r12,r2
        0x000014b8:    d11a        ..      BNE      0x14f0 ; am_hal_iom_workaround_word_write + 628
        0x000014ba:    eb000040    ..@.    ADD      r0,r0,r0,LSL #1
        0x000014be:    4408        .D      ADD      r0,r0,r1
        0x000014c0:    7844        Dx      LDRB     r4,[r0,#1]
        0x000014c2:    4895        .H      LDR      r0,[pc,#596] ; [0x1718] = 0xdeadbeef
        0x000014c4:    4284        .B      CMP      r4,r0
        0x000014c6:    d11d        ..      BNE      0x1504 ; am_hal_iom_workaround_word_write + 648
        0x000014c8:    e016        ..      B        0x14f8 ; am_hal_iom_workaround_word_write + 636
        0x000014ca:    4994        .I      LDR      r1,[pc,#592] ; [0x171c] = 0x365c0400
        0x000014cc:    fbb1f7f0    ....    UDIV     r7,r1,r0
        0x000014d0:    f40a407f    ...@    AND      r0,r10,#0xff00
        0x000014d4:    0400        ..      LSLS     r0,r0,#16
        0x000014d6:    f0104f00    ...O    TST      r0,#0x80000000
        0x000014da:    9002        ..      STR      r0,[sp,#8]
        0x000014dc:    bf11        ..      ITEEE    NE
        0x000014de:    2601        .&      MOVNE    r6,#1
        0x000014e0:    f440407f    @..@    ORREQ    r0,r0,#0xff00
        0x000014e4:    f440007f    @...    ORREQ    r0,r0,#0xff0000
        0x000014e8:    9002        ..      STREQ    r0,[sp,#8]
        0x000014ea:    bf08        ..      IT       EQ
        0x000014ec:    2600        .&      MOVEQ    r6,#0
        0x000014ee:    e7ac        ..      B        0x144a ; am_hal_iom_workaround_word_write + 462
        0x000014f0:    1c40        @.      ADDS     r0,r0,#1
        0x000014f2:    280d        .(      CMP      r0,#0xd
        0x000014f4:    d3c2        ..      BCC      0x147c ; am_hal_iom_workaround_word_write + 512
        0x000014f6:    4c88        .L      LDR      r4,[pc,#544] ; [0x1718] = 0xdeadbeef
        0x000014f8:    2200        ."      MOVS     r2,#0
        0x000014fa:    f44f61a4    O..a    MOV      r1,#0x520
        0x000014fe:    a061        a.      ADR      r0,{pc}+0x186 ; 0x1684
        0x00001500:    f7fff83e    ..>.    BL       am_hal_debug_error ; 0x580
        0x00001504:    f0040bfc    ....    AND      r11,r4,#0xfc
        0x00001508:    f10b4b80    ...K    ADD      r11,r11,#0x40000000
        0x0000150c:    f50b3b80    ...;    ADD      r11,r11,#0x10000
        0x00001510:    f8db0000    ....    LDR      r0,[r11,#0]
        0x00001514:    9000        ..      STR      r0,[sp,#0]
        0x00001516:    f004011f    ....    AND      r1,r4,#0x1f
        0x0000151a:    2001        .       MOVS     r0,#1
        0x0000151c:    4088        .@      LSLS     r0,r0,r1
        0x0000151e:    2104        .!      MOVS     r1,#4
        0x00001520:    ea0101d4    ....    AND      r1,r1,r4,LSR #3
        0x00001524:    f1014180    ...A    ADD      r1,r1,#0x40000000
        0x00001528:    f5013180    ...1    ADD      r1,r1,#0x10000
        0x0000152c:    f8c10090    ....    STR      r0,[r1,#0x90]
        0x00001530:    2c32        2,      CMP      r4,#0x32
        0x00001532:    d231        1.      BCS      0x1598 ; am_hal_iom_workaround_word_write + 796
        0x00001534:    f7fefe2c    ..,.    BL       am_hal_interrupt_master_disable ; 0x190
        0x00001538:    4979        yI      LDR      r1,[pc,#484] ; [0x1720] = 0x40010000
        0x0000153a:    9001        ..      STR      r0,[sp,#4]
        0x0000153c:    2073        s       MOVS     r0,#0x73
        0x0000153e:    6608        .f      STR      r0,[r1,#0x60]
        0x00001540:    207c        |       MOVS     r0,#0x7c
        0x00001542:    ea000054    ..T.    AND      r0,r0,r4,LSR #1
        0x00001546:    4408        .D      ADD      r0,r0,r1
        0x00001548:    6c03        .l      LDR      r3,[r0,#0x40]
        0x0000154a:    0762        b.      LSLS     r2,r4,#29
        0x0000154c:    0ed2        ..      LSRS     r2,r2,#27
        0x0000154e:    f04f0c07    O...    MOV      r12,#7
        0x00001552:    fa0cfc02    ....    LSL      r12,r12,r2
        0x00001556:    ea23030c    #...    BIC      r3,r3,r12
        0x0000155a:    f04f0c02    O...    MOV      r12,#2
        0x0000155e:    fa0cf202    ....    LSL      r2,r12,r2
        0x00001562:    431a        .C      ORRS     r2,r2,r3
        0x00001564:    6402        .d      STR      r2,[r0,#0x40]
        0x00001566:    f8db3000    ...0    LDR      r3,[r11,#0]
        0x0000156a:    07a0        ..      LSLS     r0,r4,#30
        0x0000156c:    0ec0        ..      LSRS     r0,r0,#27
        0x0000156e:    fa09f200    ....    LSL      r2,r9,r0
        0x00001572:    f04f0c18    O...    MOV      r12,#0x18
        0x00001576:    4393        .C      BICS     r3,r3,r2
        0x00001578:    fa0cf000    ....    LSL      r0,r12,r0
        0x0000157c:    4303        .C      ORRS     r3,r3,r0
        0x0000157e:    f8cb3000    ...0    STR      r3,[r11,#0]
        0x00001582:    f8db00e0    ....    LDR      r0,[r11,#0xe0]
        0x00001586:    ea200202     ...    BIC      r2,r0,r2
        0x0000158a:    f8cb20e0    ...     STR      r2,[r11,#0xe0]
        0x0000158e:    f8c18060    ..`.    STR      r8,[r1,#0x60]
        0x00001592:    9801        ..      LDR      r0,[sp,#4]
        0x00001594:    f7fefe00    ....    BL       am_hal_interrupt_master_set ; 0x198
        0x00001598:    f7fefdfa    ....    BL       am_hal_interrupt_master_disable ; 0x190
        0x0000159c:    4c60        `L      LDR      r4,[pc,#384] ; [0x1720] = 0x40010000
        0x0000159e:    9001        ..      STR      r0,[sp,#4]
        0x000015a0:    2073        s       MOVS     r0,#0x73
        0x000015a2:    6620         f      STR      r0,[r4,#0x60]
        0x000015a4:    6d60        `m      LDR      r0,[r4,#0x54]
        0x000015a6:    f42020e0     ..     BIC      r0,r0,#0x70000
        0x000015aa:    6560        `e      STR      r0,[r4,#0x54]
        0x000015ac:    6ae0        .j      LDR      r0,[r4,#0x2c]
        0x000015ae:    f02000ff     ...    BIC      r0,r0,#0xff
        0x000015b2:    f040002a    @.*.    ORR      r0,r0,#0x2a
        0x000015b6:    62e0        .b      STR      r0,[r4,#0x2c]
        0x000015b8:    f8d4010c    ....    LDR      r0,[r4,#0x10c]
        0x000015bc:    f02000ff     ...    BIC      r0,r0,#0xff
        0x000015c0:    f8c4010c    ....    STR      r0,[r4,#0x10c]
        0x000015c4:    f8c48060    ..`.    STR      r8,[r4,#0x60]
        0x000015c8:    9801        ..      LDR      r0,[sp,#4]
        0x000015ca:    f7fefde5    ....    BL       am_hal_interrupt_master_set ; 0x198
        0x000015ce:    2073        s       MOVS     r0,#0x73
        0x000015d0:    6620         f      STR      r0,[r4,#0x60]
        0x000015d2:    f40a6270    ..pb    AND      r2,r10,#0xf00
        0x000015d6:    ea4832c2    H..2    ORR      r2,r8,r2,LSL #15
        0x000015da:    f00a03ff    ....    AND      r3,r10,#0xff
        0x000015de:    431a        .C      ORRS     r2,r2,r3
        0x000015e0:    9905        ..      LDR      r1,[sp,#0x14]
        0x000015e2:    f44f23e0    O..#    MOV      r3,#0x70000
        0x000015e6:    ea034101    ...A    AND      r1,r3,r1,LSL #16
        0x000015ea:    4311        .C      ORRS     r1,r1,r2
        0x000015ec:    4a4d        MJ      LDR      r2,[pc,#308] ; [0x1724] = 0x5c00ff00
        0x000015ee:    9808        ..      LDR      r0,[sp,#0x20]
        0x000015f0:    f8cdb004    ....    STR      r11,[sp,#4]
        0x000015f4:    4010        .@      ANDS     r0,r0,r2
        0x000015f6:    ea400901    @...    ORR      r9,r0,r1
        0x000015fa:    f8ddb00c    ....    LDR      r11,[sp,#0xc]
        0x000015fe:    f7fefdc7    ....    BL       am_hal_interrupt_master_disable ; 0x190
        0x00001602:    f8dfa064    ..d.    LDR      r10,[pc,#100] ; [0x1668] = 0x50008000
        0x00001606:    9003        ..      STR      r0,[sp,#0xc]
        0x00001608:    f8ca9110    ....    STR      r9,[r10,#0x110]
        0x0000160c:    4936        6I      LDR      r1,[pc,#216] ; [0x16e8] = 0x800009d
        0x0000160e:    4638        8F      MOV      r0,r7
        0x00001610:    4788        .G      BLX      r1
        0x00001612:    f8cab10c    ....    STR      r11,[r10,#0x10c]
        0x00001616:    e9dd0100    ....    LDRD     r0,r1,[sp,#0]
        0x0000161a:    4632        2F      MOV      r2,r6
        0x0000161c:    f7fefdc0    ....    BL       __asm___12_am_hal_iom_c_97762dd2__iom_workaround_loop ; 0x1a0
        0x00001620:    f8ca510c    ...Q    STR      r5,[r10,#0x10c]
        0x00001624:    f7fefdb4    ....    BL       am_hal_interrupt_master_disable ; 0x190
        0x00001628:    9000        ..      STR      r0,[sp,#0]
        0x0000162a:    2073        s       MOVS     r0,#0x73
        0x0000162c:    6620         f      STR      r0,[r4,#0x60]
        0x0000162e:    6d60        `m      LDR      r0,[r4,#0x54]
        0x00001630:    f42020e0     ..     BIC      r0,r0,#0x70000
        0x00001634:    6560        `e      STR      r0,[r4,#0x54]
        0x00001636:    6ae0        .j      LDR      r0,[r4,#0x2c]
        0x00001638:    f02000ff     ...    BIC      r0,r0,#0xff
        0x0000163c:    f0400028    @.(.    ORR      r0,r0,#0x28
        0x00001640:    62e0        .b      STR      r0,[r4,#0x2c]
        0x00001642:    f8d4010c    ....    LDR      r0,[r4,#0x10c]
        0x00001646:    f02000ff     ...    BIC      r0,r0,#0xff
        0x0000164a:    f8c4010c    ....    STR      r0,[r4,#0x10c]
        0x0000164e:    f8c48060    ..`.    STR      r8,[r4,#0x60]
        0x00001652:    9800        ..      LDR      r0,[sp,#0]
        0x00001654:    f7fefda0    ....    BL       am_hal_interrupt_master_set ; 0x198
        0x00001658:    9803        ..      LDR      r0,[sp,#0xc]
        0x0000165a:    f7fefd9d    ....    BL       am_hal_interrupt_master_set ; 0x198
        0x0000165e:    f8c48060    ..`.    STR      r8,[r4,#0x60]
        0x00001662:    b009        ..      ADD      sp,sp,#0x24
        0x00001664:    e8bd8ff0    ....    POP      {r4-r11,pc}
    $d
        0x00001668:    50008000    ...P    DCD    1342210048
        0x0000166c:    20495053    SPI     DCD    541675603
        0x00001670:    6e617274    tran    DCD    1851880052
        0x00001674:    72656673    sfer    DCD    1919247987
        0x00001678:    6f6f7420     too    DCD    1869575200
        0x0000167c:    67696220     big    DCD    1734959648
        0x00001680:    0000002e    ....    DCD    46
        0x00001684:    685f6d61    am_h    DCD    1751084385
        0x00001688:    695f6c61    al_i    DCD    1767861345
        0x0000168c:    632e6d6f    om.c    DCD    1663987055
        0x00001690:    00000000    ....    DCD    0
        0x00001694:    00f42400    .$..    DCD    16000000
        0x00001698:    02dc6c00    .l..    DCD    48000000
        0x0000169c:    6c756f43    Coul    DCD    1819635523
        0x000016a0:    69662064    d fi    DCD    1768300644
        0x000016a4:    6120646e    nd a    DCD    1629512814
        0x000016a8:    6c617620     val    DCD    1818326560
        0x000016ac:    66206469    id f    DCD    1713398889
        0x000016b0:    75716572    requ    DCD    1970365810
        0x000016b4:    79636e65    ency    DCD    2036559461
        0x000016b8:    5320202e    .  S    DCD    1394614318
        0x000016bc:    6c756f68    houl    DCD    1819635560
        0x000016c0:    656e2064    d ne    DCD    1701716068
        0x000016c4:    20726576    ver     DCD    544367990
        0x000016c8:    20746567    get     DCD    544499047
        0x000016cc:    65726568    here    DCD    1701995880
        0x000016d0:    0000002e    ....    DCD    46
        0x000016d4:    685f6d61    am_h    DCD    1751084385
        0x000016d8:    695f6c61    al_i    DCD    1767861345
        0x000016dc:    632e6d6f    om.c    DCD    1663987055
        0x000016e0:    00000000    ....    DCD    0
        0x000016e4:    05b8d800    ....    DCD    96000000
        0x000016e8:    0800009d    ....    DCD    134217885
        0x000016ec:    000f4240    @B..    DCD    1000000
        0x000016f0:    61766e49    Inva    DCD    1635151433
        0x000016f4:    2064696c    lid     DCD    543451500
        0x000016f8:    46206948    Hi F    DCD    1176529224
        0x000016fc:    75716572    requ    DCD    1970365810
        0x00001700:    79636e65    ency    DCD    2036559461
        0x00001704:    726f6620     for    DCD    1919903264
        0x00001708:    4d4f4920     IOM    DCD    1297041696
        0x0000170c:    0000002e    ....    DCD    46
        0x00001710:    4d3f6400    .d?M    DCD    1296000000
        0x00001714:    00003da1    .=..    DCD    15777
        0x00001718:    deadbeef    ....    DCD    3735928559
        0x0000171c:    365c0400    ..\6    DCD    912000000
        0x00001720:    40010000    ...@    DCD    1073807360
        0x00001724:    5c00ff00    ...\    DCD    1543569152
    $t
    i.am_hal_pwrctrl_bucks_disable
    am_hal_pwrctrl_bucks_disable
        0x00001728:    4810        .H      LDR      r0,[pc,#64] ; [0x176c] = 0x40021000
        0x0000172a:    6841        Ah      LDR      r1,[r0,#4]
        0x0000172c:    f0110f02    ....    TST      r1,#2
        0x00001730:    bf02        ..      ITTT     EQ
        0x00001732:    6841        Ah      LDREQ    r1,[r0,#4]
        0x00001734:    f0110f01    ....    TSTEQ    r1,#1
        0x00001738:    4770        pG      BXEQ     lr
        0x0000173a:    490d        .I      LDR      r1,[pc,#52] ; [0x1770] = 0x40020000
        0x0000173c:    68c9        .h      LDR      r1,[r1,#0xc]
        0x0000173e:    f00101f0    ....    AND      r1,r1,#0xf0
        0x00001742:    2920         )      CMP      r1,#0x20
        0x00001744:    bf04        ..      ITT      EQ
        0x00001746:    6881        .h      LDREQ    r1,[r0,#8]
        0x00001748:    f5b17f00    ....    CMPEQ    r1,#0x200
        0x0000174c:    6801        .h      LDR      r1,[r0,#0]
        0x0000174e:    bf0f        ..      ITEEE    EQ
        0x00001750:    f0010105    ....    ANDEQ    r1,r1,#5
        0x00001754:    f0210102    !...    BICNE    r1,r1,#2
        0x00001758:    6001        .`      STRNE    r1,[r0,#0]
        0x0000175a:    6801        .h      LDRNE    r1,[r0,#0]
        0x0000175c:    bf18        ..      IT       NE
        0x0000175e:    f0210101    !...    BICNE    r1,r1,#1
        0x00001762:    6001        .`      STR      r1,[r0,#0]
        0x00001764:    f04f000a    O...    MOV      r0,#0xa
        0x00001768:    f7febf0c    ....    B        am_hal_flash_delay ; 0x584
    $d
        0x0000176c:    40021000    ...@    DCD    1073876992
        0x00001770:    40020000    ...@    DCD    1073872896
    $t
    i.am_hal_pwrctrl_bucks_enable
    am_hal_pwrctrl_bucks_enable
        0x00001774:    480b        .H      LDR      r0,[pc,#44] ; [0x17a4] = 0x40021000
        0x00001776:    6841        Ah      LDR      r1,[r0,#4]
        0x00001778:    f0110f02    ....    TST      r1,#2
        0x0000177c:    bf1e        ..      ITTT     NE
        0x0000177e:    6841        Ah      LDRNE    r1,[r0,#4]
        0x00001780:    f0110f01    ....    TSTNE    r1,#1
        0x00001784:    4770        pG      BXNE     lr
        0x00001786:    6801        .h      LDR      r1,[r0,#0]
        0x00001788:    f0410102    A...    ORR      r1,r1,#2
        0x0000178c:    6001        .`      STR      r1,[r0,#0]
        0x0000178e:    6801        .h      LDR      r1,[r0,#0]
        0x00001790:    f0410101    A...    ORR      r1,r1,#1
        0x00001794:    6001        .`      STR      r1,[r0,#0]
        0x00001796:    2103        .!      MOVS     r1,#3
        0x00001798:    6842        Bh      LDR      r2,[r0,#4]
        0x0000179a:    ea310202    1...    BICS     r2,r1,r2
        0x0000179e:    d1fb        ..      BNE      0x1798 ; am_hal_pwrctrl_bucks_enable + 36
        0x000017a0:    4770        pG      BX       lr
    $d
        0x000017a2:    0000        ..      DCW    0
        0x000017a4:    40021000    ...@    DCD    1073876992
    $t
    i.am_hal_pwrctrl_bucks_init
    am_hal_pwrctrl_bucks_init
        0x000017a8:    480e        .H      LDR      r0,[pc,#56] ; [0x17e4] = 0x40021000
        0x000017aa:    6841        Ah      LDR      r1,[r0,#4]
        0x000017ac:    f0110f02    ....    TST      r1,#2
        0x000017b0:    f04f0103    O...    MOV      r1,#3
        0x000017b4:    bf1c        ..      ITT      NE
        0x000017b6:    6842        Bh      LDRNE    r2,[r0,#4]
        0x000017b8:    f0120f01    ....    TSTNE    r2,#1
        0x000017bc:    d10b        ..      BNE      0x17d6 ; am_hal_pwrctrl_bucks_init + 46
        0x000017be:    6802        .h      LDR      r2,[r0,#0]
        0x000017c0:    f0420202    B...    ORR      r2,r2,#2
        0x000017c4:    6002        .`      STR      r2,[r0,#0]
        0x000017c6:    6802        .h      LDR      r2,[r0,#0]
        0x000017c8:    f0420201    B...    ORR      r2,r2,#1
        0x000017cc:    6002        .`      STR      r2,[r0,#0]
        0x000017ce:    6842        Bh      LDR      r2,[r0,#4]
        0x000017d0:    ea310202    1...    BICS     r2,r1,r2
        0x000017d4:    d1fb        ..      BNE      0x17ce ; am_hal_pwrctrl_bucks_init + 38
        0x000017d6:    6842        Bh      LDR      r2,[r0,#4]
        0x000017d8:    ea310202    1...    BICS     r2,r1,r2
        0x000017dc:    d1fb        ..      BNE      0x17d6 ; am_hal_pwrctrl_bucks_init + 46
        0x000017de:    2042        B       MOVS     r0,#0x42
        0x000017e0:    f7febed0    ....    B        am_hal_flash_delay ; 0x584
    $d
        0x000017e4:    40021000    ...@    DCD    1073876992
    $t
    i.am_hal_pwrctrl_low_power_init
    am_hal_pwrctrl_low_power_init
        0x000017e8:    4804        .H      LDR      r0,[pc,#16] ; [0x17fc] = 0x40021000
        0x000017ea:    6981        .i      LDR      r1,[r0,#0x18]
        0x000017ec:    f0410106    A...    ORR      r1,r1,#6
        0x000017f0:    6181        .a      STR      r1,[r0,#0x18]
        0x000017f2:    6801        .h      LDR      r1,[r0,#0]
        0x000017f4:    f0210104    !...    BIC      r1,r1,#4
        0x000017f8:    6001        .`      STR      r1,[r0,#0]
        0x000017fa:    4770        pG      BX       lr
    $d
        0x000017fc:    40021000    ...@    DCD    1073876992
    $t
    i.am_hal_pwrctrl_memory_enable
    am_hal_pwrctrl_memory_enable
        0x00001800:    b410        ..      PUSH     {r4}
        0x00001802:    f8dfc170    ..p.    LDR      r12,[pc,#368] ; [0x1974] = 0x40021000
        0x00001806:    f5b06f00    ...o    CMP      r0,#0x800
        0x0000180a:    d051        Q.      BEQ      0x18b0 ; am_hal_pwrctrl_memory_enable + 176
        0x0000180c:    f5b05fc0    ..._    CMP      r0,#0x1800
        0x00001810:    d054        T.      BEQ      0x18bc ; am_hal_pwrctrl_memory_enable + 188
        0x00001812:    2801        .(      CMP      r0,#1
        0x00001814:    d057        W.      BEQ      0x18c6 ; am_hal_pwrctrl_memory_enable + 198
        0x00001816:    2803        .(      CMP      r0,#3
        0x00001818:    d05b        [.      BEQ      0x18d2 ; am_hal_pwrctrl_memory_enable + 210
        0x0000181a:    2807        .(      CMP      r0,#7
        0x0000181c:    d05f        _.      BEQ      0x18de ; am_hal_pwrctrl_memory_enable + 222
        0x0000181e:    280f        .(      CMP      r0,#0xf
        0x00001820:    d063        c.      BEQ      0x18ea ; am_hal_pwrctrl_memory_enable + 234
        0x00001822:    281f        .(      CMP      r0,#0x1f
        0x00001824:    d067        g.      BEQ      0x18f6 ; am_hal_pwrctrl_memory_enable + 246
        0x00001826:    283f        ?(      CMP      r0,#0x3f
        0x00001828:    d06b        k.      BEQ      0x1902 ; am_hal_pwrctrl_memory_enable + 258
        0x0000182a:    287f        .(      CMP      r0,#0x7f
        0x0000182c:    d072        r.      BEQ      0x1914 ; am_hal_pwrctrl_memory_enable + 276
        0x0000182e:    28ff        .(      CMP      r0,#0xff
        0x00001830:    d076        v.      BEQ      0x1920 ; am_hal_pwrctrl_memory_enable + 288
        0x00001832:    f5a07180    ...q    SUB      r1,r0,#0x100
        0x00001836:    39ff        .9      SUBS     r1,r1,#0xff
        0x00001838:    d033        3.      BEQ      0x18a2 ; am_hal_pwrctrl_memory_enable + 162
        0x0000183a:    f5a07140    ..@q    SUB      r1,r0,#0x300
        0x0000183e:    39ff        .9      SUBS     r1,r1,#0xff
        0x00001840:    d074        t.      BEQ      0x192c ; am_hal_pwrctrl_memory_enable + 300
        0x00001842:    4a4d        MJ      LDR      r2,[pc,#308] ; [0x1978] = 0x7ff00
        0x00001844:    ebb02122    .."!    SUBS     r1,r0,r2,ASR #8
        0x00001848:    bf08        ..      IT       EQ
        0x0000184a:    f24071ff    @..q    MOVEQ    r1,#0x7ff
        0x0000184e:    d075        u.      BEQ      0x193c ; am_hal_pwrctrl_memory_enable + 316
        0x00001850:    f1b04f20    .. O    CMP      r0,#0xa0000000
        0x00001854:    bf04        ..      ITT      EQ
        0x00001856:    f04f4120    O. A    MOVEQ    r1,#0xa0000000
        0x0000185a:    0a8a        ..      LSREQ    r2,r1,#10
        0x0000185c:    d06e        n.      BEQ      0x193c ; am_hal_pwrctrl_memory_enable + 316
        0x0000185e:    f06f4120    o. A    MVN      r1,#0xa0000000
        0x00001862:    4288        .B      CMP      r0,r1
        0x00001864:    d16c        l.      BNE      0x1940 ; am_hal_pwrctrl_memory_enable + 320
        0x00001866:    2100        .!      MOVS     r1,#0
        0x00001868:    43c3        .C      MVNS     r3,r0
        0x0000186a:    460a        .F      MOV      r2,r1
        0x0000186c:    ea5f2093    _..     LSRS.W   r0,r3,#10
        0x00001870:    f8dc4010    ...@    LDR      r4,[r12,#0x10]
        0x00001874:    ea240303    $...    BIC      r3,r4,r3
        0x00001878:    f8cc3010    ...0    STR      r3,[r12,#0x10]
        0x0000187c:    b129        ).      CBZ      r1,0x188a ; am_hal_pwrctrl_memory_enable + 138
        0x0000187e:    bf00        ..      NOP      
        0x00001880:    f8dc3010    ...0    LDR      r3,[r12,#0x10]
        0x00001884:    4319        .C      ORRS     r1,r1,r3
        0x00001886:    f8cc1010    ....    STR      r1,[r12,#0x10]
        0x0000188a:    2800        .(      CMP      r0,#0
        0x0000188c:    bf18        ..      IT       NE
        0x0000188e:    21c7        .!      MOVNE    r1,#0xc7
        0x00001890:    d05c        \.      BEQ      0x194c ; am_hal_pwrctrl_memory_enable + 332
        0x00001892:    bf00        ..      NOP      
        0x00001894:    f8dc3014    ...0    LDR      r3,[r12,#0x14]
        0x00001898:    4203        .B      TST      r3,r0
        0x0000189a:    d055        U.      BEQ      0x1948 ; am_hal_pwrctrl_memory_enable + 328
        0x0000189c:    1e49        I.      SUBS     r1,r1,#1
        0x0000189e:    d1f9        ..      BNE      0x1894 ; am_hal_pwrctrl_memory_enable + 148
        0x000018a0:    e062        b.      B        0x1968 ; am_hal_pwrctrl_memory_enable + 360
        0x000018a2:    f24011ff    @...    MOV      r1,#0x1ff
        0x000018a6:    f44f63c0    O..c    MOV      r3,#0x600
        0x000018aa:    020a        ..      LSLS     r2,r1,#8
        0x000018ac:    0218        ..      LSLS     r0,r3,#8
        0x000018ae:    e7df        ..      B        0x1870 ; am_hal_pwrctrl_memory_enable + 112
        0x000018b0:    f44f6100    O..a    MOV      r1,#0x800
        0x000018b4:    004b        K.      LSLS     r3,r1,#1
        0x000018b6:    2220         "      MOVS     r2,#0x20
        0x000018b8:    2040        @       MOVS     r0,#0x40
        0x000018ba:    e7d9        ..      B        0x1870 ; am_hal_pwrctrl_memory_enable + 112
        0x000018bc:    2260        `"      MOVS     r2,#0x60
        0x000018be:    f44f51c0    O..Q    MOV      r1,#0x1800
        0x000018c2:    2000        .       MOVS     r0,#0
        0x000018c4:    e7dc        ..      B        0x1880 ; am_hal_pwrctrl_memory_enable + 128
        0x000018c6:    2101        .!      MOVS     r1,#1
        0x000018c8:    f24073fe    @..s    MOV      r3,#0x7fe
        0x000018cc:    020a        ..      LSLS     r2,r1,#8
        0x000018ce:    0218        ..      LSLS     r0,r3,#8
        0x000018d0:    e7ce        ..      B        0x1870 ; am_hal_pwrctrl_memory_enable + 112
        0x000018d2:    2103        .!      MOVS     r1,#3
        0x000018d4:    f24073fc    @..s    MOV      r3,#0x7fc
        0x000018d8:    020a        ..      LSLS     r2,r1,#8
        0x000018da:    0218        ..      LSLS     r0,r3,#8
        0x000018dc:    e7c8        ..      B        0x1870 ; am_hal_pwrctrl_memory_enable + 112
        0x000018de:    2107        .!      MOVS     r1,#7
        0x000018e0:    f44f63ff    O..c    MOV      r3,#0x7f8
        0x000018e4:    020a        ..      LSLS     r2,r1,#8
        0x000018e6:    0218        ..      LSLS     r0,r3,#8
        0x000018e8:    e7c2        ..      B        0x1870 ; am_hal_pwrctrl_memory_enable + 112
        0x000018ea:    210f        .!      MOVS     r1,#0xf
        0x000018ec:    f44f63fe    O..c    MOV      r3,#0x7f0
        0x000018f0:    020a        ..      LSLS     r2,r1,#8
        0x000018f2:    0218        ..      LSLS     r0,r3,#8
        0x000018f4:    e7bc        ..      B        0x1870 ; am_hal_pwrctrl_memory_enable + 112
        0x000018f6:    211f        .!      MOVS     r1,#0x1f
        0x000018f8:    f44f63fc    O..c    MOV      r3,#0x7e0
        0x000018fc:    020a        ..      LSLS     r2,r1,#8
        0x000018fe:    0218        ..      LSLS     r0,r3,#8
        0x00001900:    e7b6        ..      B        0x1870 ; am_hal_pwrctrl_memory_enable + 112
        0x00001902:    213f        ?!      MOVS     r1,#0x3f
        0x00001904:    f44f63f8    O..c    MOV      r3,#0x7c0
        0x00001908:    020a        ..      LSLS     r2,r1,#8
        0x0000190a:    0218        ..      LSLS     r0,r3,#8
        0x0000190c:    e7b0        ..      B        0x1870 ; am_hal_pwrctrl_memory_enable + 112
        0x0000190e:    e001        ..      B        0x1914 ; am_hal_pwrctrl_memory_enable + 276
        0x00001910:    e006        ..      B        0x1920 ; am_hal_pwrctrl_memory_enable + 288
        0x00001912:    e00b        ..      B        0x192c ; am_hal_pwrctrl_memory_enable + 300
        0x00001914:    217f        .!      MOVS     r1,#0x7f
        0x00001916:    f44f63f0    O..c    MOV      r3,#0x780
        0x0000191a:    020a        ..      LSLS     r2,r1,#8
        0x0000191c:    0218        ..      LSLS     r0,r3,#8
        0x0000191e:    e7a7        ..      B        0x1870 ; am_hal_pwrctrl_memory_enable + 112
        0x00001920:    21ff        .!      MOVS     r1,#0xff
        0x00001922:    f44f63e0    O..c    MOV      r3,#0x700
        0x00001926:    020a        ..      LSLS     r2,r1,#8
        0x00001928:    0218        ..      LSLS     r0,r3,#8
        0x0000192a:    e7a1        ..      B        0x1870 ; am_hal_pwrctrl_memory_enable + 112
        0x0000192c:    f24031ff    @..1    MOV      r1,#0x3ff
        0x00001930:    1c4b        K.      ADDS     r3,r1,#1
        0x00001932:    020a        ..      LSLS     r2,r1,#8
        0x00001934:    0218        ..      LSLS     r0,r3,#8
        0x00001936:    e79b        ..      B        0x1870 ; am_hal_pwrctrl_memory_enable + 112
        0x00001938:    e000        ..      B        0x193c ; am_hal_pwrctrl_memory_enable + 316
        0x0000193a:    e001        ..      B        0x1940 ; am_hal_pwrctrl_memory_enable + 320
        0x0000193c:    2000        .       MOVS     r0,#0
        0x0000193e:    e79f        ..      B        0x1880 ; am_hal_pwrctrl_memory_enable + 128
        0x00001940:    490e        .I      LDR      r1,[pc,#56] ; [0x197c] = 0xa0001fff
        0x00001942:    4288        .B      CMP      r0,r1
        0x00001944:    d0fa        ..      BEQ      0x193c ; am_hal_pwrctrl_memory_enable + 316
        0x00001946:    e00f        ..      B        0x1968 ; am_hal_pwrctrl_memory_enable + 360
        0x00001948:    2900        .)      CMP      r1,#0
        0x0000194a:    dd0d        ..      BLE      0x1968 ; am_hal_pwrctrl_memory_enable + 360
        0x0000194c:    2a00        .*      CMP      r2,#0
        0x0000194e:    bf18        ..      IT       NE
        0x00001950:    20c7        .       MOVNE    r0,#0xc7
        0x00001952:    d00c        ..      BEQ      0x196e ; am_hal_pwrctrl_memory_enable + 366
        0x00001954:    f8dc1014    ....    LDR      r1,[r12,#0x14]
        0x00001958:    ea320101    2...    BICS     r1,r2,r1
        0x0000195c:    d002        ..      BEQ      0x1964 ; am_hal_pwrctrl_memory_enable + 356
        0x0000195e:    1e40        @.      SUBS     r0,r0,#1
        0x00001960:    d1f8        ..      BNE      0x1954 ; am_hal_pwrctrl_memory_enable + 340
        0x00001962:    e001        ..      B        0x1968 ; am_hal_pwrctrl_memory_enable + 360
        0x00001964:    2800        .(      CMP      r0,#0
        0x00001966:    dc02        ..      BGT      0x196e ; am_hal_pwrctrl_memory_enable + 366
        0x00001968:    bc10        ..      POP      {r4}
        0x0000196a:    2000        .       MOVS     r0,#0
        0x0000196c:    4770        pG      BX       lr
        0x0000196e:    bc10        ..      POP      {r4}
        0x00001970:    2001        .       MOVS     r0,#1
        0x00001972:    4770        pG      BX       lr
    $d
        0x00001974:    40021000    ...@    DCD    1073876992
        0x00001978:    0007ff00    ....    DCD    524032
        0x0000197c:    a0001fff    ....    DCD    2684362751
    $t
    i.am_hal_pwrctrl_periph_enable
    am_hal_pwrctrl_periph_enable
        0x00001980:    b538        8.      PUSH     {r3-r5,lr}
        0x00001982:    0004        ..      MOVS     r4,r0
        0x00001984:    d002        ..      BEQ      0x198c ; am_hal_pwrctrl_periph_enable + 12
        0x00001986:    1e60        `.      SUBS     r0,r4,#1
        0x00001988:    4204        .B      TST      r4,r0
        0x0000198a:    d004        ..      BEQ      0x1996 ; am_hal_pwrctrl_periph_enable + 22
        0x0000198c:    a218        ..      ADR      r2,{pc}+0x64 ; 0x19f0
        0x0000198e:    215f        _!      MOVS     r1,#0x5f
        0x00001990:    a024        $.      ADR      r0,{pc}+0x94 ; 0x1a24
        0x00001992:    f7fefdf5    ....    BL       am_hal_debug_error ; 0x580
        0x00001996:    f7fefbfb    ....    BL       am_hal_interrupt_master_disable ; 0x190
        0x0000199a:    4d27        'M      LDR      r5,[pc,#156] ; [0x1a38] = 0x40021000
        0x0000199c:    9000        ..      STR      r0,[sp,#0]
        0x0000199e:    68a8        .h      LDR      r0,[r5,#8]
        0x000019a0:    4320         C      ORRS     r0,r0,r4
        0x000019a2:    60a8        .`      STR      r0,[r5,#8]
        0x000019a4:    9800        ..      LDR      r0,[sp,#0]
        0x000019a6:    f7fefbf7    ....    BL       am_hal_interrupt_master_set ; 0x198
        0x000019aa:    200e        .       MOVS     r0,#0xe
        0x000019ac:    f7fefdea    ....    BL       am_hal_flash_delay ; 0x584
        0x000019b0:    f0140f0e    ....    TST      r4,#0xe
        0x000019b4:    bf18        ..      IT       NE
        0x000019b6:    2004        .       MOVNE    r0,#4
        0x000019b8:    d003        ..      BEQ      0x19c2 ; am_hal_pwrctrl_periph_enable + 66
        0x000019ba:    6969        ii      LDR      r1,[r5,#0x14]
        0x000019bc:    4201        .B      TST      r1,r0
        0x000019be:    d0fc        ..      BEQ      0x19ba ; am_hal_pwrctrl_periph_enable + 58
        0x000019c0:    bd38        8.      POP      {r3-r5,pc}
        0x000019c2:    f0140f70    ..p.    TST      r4,#0x70
        0x000019c6:    bf18        ..      IT       NE
        0x000019c8:    2008        .       MOVNE    r0,#8
        0x000019ca:    d1f6        ..      BNE      0x19ba ; am_hal_pwrctrl_periph_enable + 58
        0x000019cc:    f2401081    @...    MOV      r0,#0x181
        0x000019d0:    4204        .B      TST      r4,r0
        0x000019d2:    bf18        ..      IT       NE
        0x000019d4:    2002        .       MOVNE    r0,#2
        0x000019d6:    d1f0        ..      BNE      0x19ba ; am_hal_pwrctrl_periph_enable + 58
        0x000019d8:    f4147f00    ....    TST      r4,#0x200
        0x000019dc:    bf18        ..      IT       NE
        0x000019de:    2080        .       MOVNE    r0,#0x80
        0x000019e0:    d1eb        ..      BNE      0x19ba ; am_hal_pwrctrl_periph_enable + 58
        0x000019e2:    f4146f80    ...o    TST      r4,#0x400
        0x000019e6:    bf14        ..      ITE      NE
        0x000019e8:    2010        .       MOVNE    r0,#0x10
        0x000019ea:    f04f30ff    O..0    MOVEQ    r0,#0xffffffff
        0x000019ee:    e7e4        ..      B        0x19ba ; am_hal_pwrctrl_periph_enable + 58
    $d
        0x000019f0:    6e6e6143    Cann    DCD    1852727619
        0x000019f4:    6520746f    ot e    DCD    1696625775
        0x000019f8:    6c62616e    nabl    DCD    1818386798
        0x000019fc:    6f6d2065    e mo    DCD    1869422693
        0x00001a00:    74206572    re t    DCD    1948280178
        0x00001a04:    206e6168    han     DCD    544104808
        0x00001a08:    20656e6f    one     DCD    543518319
        0x00001a0c:    69726570    peri    DCD    1769104752
        0x00001a10:    72656870    pher    DCD    1919248496
        0x00001a14:    61206c61    al a    DCD    1629514849
        0x00001a18:    20612074    t a     DCD    543236212
        0x00001a1c:    656d6974    time    DCD    1701669236
        0x00001a20:    0000002e    ....    DCD    46
        0x00001a24:    685f6d61    am_h    DCD    1751084385
        0x00001a28:    705f6c61    al_p    DCD    1885301857
        0x00001a2c:    74637277    wrct    DCD    1952674423
        0x00001a30:    632e6c72    rl.c    DCD    1663986802
        0x00001a34:    00000000    ....    DCD    0
        0x00001a38:    40021000    ...@    DCD    1073876992
    $t
    i.am_hal_queue_item_add
    am_hal_queue_item_add
        0x00001a3c:    e92d41f0    -..A    PUSH     {r4-r8,lr}
        0x00001a40:    4604        .F      MOV      r4,r0
        0x00001a42:    6900        .i      LDR      r0,[r0,#0x10]
        0x00001a44:    2600        .&      MOVS     r6,#0
        0x00001a46:    fb00f502    ....    MUL      r5,r0,r2
        0x00001a4a:    460f        .F      MOV      r7,r1
        0x00001a4c:    f7fefba0    ....    BL       am_hal_interrupt_master_disable ; 0x190
        0x00001a50:    4603        .F      MOV      r3,r0
        0x00001a52:    e9d41002    ....    LDRD     r1,r0,[r4,#8]
        0x00001a56:    1a40        @.      SUBS     r0,r0,r1
        0x00001a58:    42a8        .B      CMP      r0,r5
        0x00001a5a:    d338        8.      BCC      0x1ace ; am_hal_queue_item_add + 146
        0x00001a5c:    b39d        ..      CBZ      r5,0x1ac6 ; am_hal_queue_item_add + 138
        0x00001a5e:    1e78        x.      SUBS     r0,r7,#1
        0x00001a60:    f0150f01    ....    TST      r5,#1
        0x00001a64:    d00e        ..      BEQ      0x1a84 ; am_hal_queue_item_add + 72
        0x00001a66:    f8d4c000    ....    LDR      r12,[r4,#0]
        0x00001a6a:    6962        bi      LDR      r2,[r4,#0x14]
        0x00001a6c:    f8101f01    ....    LDRB     r1,[r0,#1]!
        0x00001a70:    f802100c    ....    STRB     r1,[r2,r12]
        0x00001a74:    6821        !h      LDR      r1,[r4,#0]
        0x00001a76:    68e2        .h      LDR      r2,[r4,#0xc]
        0x00001a78:    1c49        I.      ADDS     r1,r1,#1
        0x00001a7a:    fbb1fcf2    ....    UDIV     r12,r1,r2
        0x00001a7e:    fb02111c    ....    MLS      r1,r2,r12,r1
        0x00001a82:    6021        !`      STR      r1,[r4,#0]
        0x00001a84:    0869        i.      LSRS     r1,r5,#1
        0x00001a86:    d01e        ..      BEQ      0x1ac6 ; am_hal_queue_item_add + 138
        0x00001a88:    f8d4c014    ....    LDR      r12,[r4,#0x14]
        0x00001a8c:    6826        &h      LDR      r6,[r4,#0]
        0x00001a8e:    7842        Bx      LDRB     r2,[r0,#1]
        0x00001a90:    f80c2006    ...     STRB     r2,[r12,r6]
        0x00001a94:    6822        "h      LDR      r2,[r4,#0]
        0x00001a96:    f8d4c00c    ....    LDR      r12,[r4,#0xc]
        0x00001a9a:    1c52        R.      ADDS     r2,r2,#1
        0x00001a9c:    fbb2f6fc    ....    UDIV     r6,r2,r12
        0x00001aa0:    fb0c2216    ..."    MLS      r2,r12,r6,r2
        0x00001aa4:    6022        "`      STR      r2,[r4,#0]
        0x00001aa6:    6966        fi      LDR      r6,[r4,#0x14]
        0x00001aa8:    f810cf02    ....    LDRB     r12,[r0,#2]!
        0x00001aac:    f806c002    ....    STRB     r12,[r6,r2]
        0x00001ab0:    6822        "h      LDR      r2,[r4,#0]
        0x00001ab2:    f8d4c00c    ....    LDR      r12,[r4,#0xc]
        0x00001ab6:    1c52        R.      ADDS     r2,r2,#1
        0x00001ab8:    fbb2f6fc    ....    UDIV     r6,r2,r12
        0x00001abc:    fb0c2216    ..."    MLS      r2,r12,r6,r2
        0x00001ac0:    6022        "`      STR      r2,[r4,#0]
        0x00001ac2:    1e49        I.      SUBS     r1,r1,#1
        0x00001ac4:    d1e0        ..      BNE      0x1a88 ; am_hal_queue_item_add + 76
        0x00001ac6:    68a0        .h      LDR      r0,[r4,#8]
        0x00001ac8:    2601        .&      MOVS     r6,#1
        0x00001aca:    4428        (D      ADD      r0,r0,r5
        0x00001acc:    60a0        .`      STR      r0,[r4,#8]
        0x00001ace:    4618        .F      MOV      r0,r3
        0x00001ad0:    f7fefb62    ..b.    BL       am_hal_interrupt_master_set ; 0x198
        0x00001ad4:    4630        0F      MOV      r0,r6
        0x00001ad6:    e8bd81f0    ....    POP      {r4-r8,pc}
    i.am_hal_rtc_osc_disable
    am_hal_rtc_osc_disable
        0x00001ada:    f04f2040    O.@     MOV      r0,#0x40004000
        0x00001ade:    6d01        .m      LDR      r1,[r0,#0x50]
        0x00001ae0:    f0410110    A...    ORR      r1,r1,#0x10
        0x00001ae4:    6501        .e      STR      r1,[r0,#0x50]
        0x00001ae6:    4770        pG      BX       lr
    i.am_hal_rtc_osc_select
    am_hal_rtc_osc_select
        0x00001ae8:    f04f2140    O.@!    MOV      r1,#0x40004000
        0x00001aec:    2800        .(      CMP      r0,#0
        0x00001aee:    68c8        .h      LDR      r0,[r1,#0xc]
        0x00001af0:    bf14        ..      ITE      NE
        0x00001af2:    f0400080    @...    ORRNE    r0,r0,#0x80
        0x00001af6:    f0200080     ...    BICEQ    r0,r0,#0x80
        0x00001afa:    60c8        .`      STR      r0,[r1,#0xc]
        0x00001afc:    4770        pG      BX       lr
        0x00001afe:    0000        ..      MOVS     r0,r0
    i.am_hal_sysctrl_sleep
    am_hal_sysctrl_sleep
        0x00001b00:    b5f8        ..      PUSH     {r3-r7,lr}
        0x00001b02:    4604        .F      MOV      r4,r0
        0x00001b04:    f7fefb44    ..D.    BL       am_hal_interrupt_master_disable ; 0x190
        0x00001b08:    493c        <I      LDR      r1,[pc,#240] ; [0x1bfc] = 0xe000ed10
        0x00001b0a:    4605        .F      MOV      r5,r0
        0x00001b0c:    b12c        ,.      CBZ      r4,0x1b1a ; am_hal_sysctrl_sleep + 26
        0x00001b0e:    483c        <H      LDR      r0,[pc,#240] ; [0x1c00] = 0x40020000
        0x00001b10:    f8d02250    ..P"    LDR      r2,[r0,#0x250]
        0x00001b14:    f0120f01    ....    TST      r2,#1
        0x00001b18:    d00d        ..      BEQ      0x1b36 ; am_hal_sysctrl_sleep + 54
        0x00001b1a:    6808        .h      LDR      r0,[r1,#0]
        0x00001b1c:    f0200004     ...    BIC      r0,r0,#4
        0x00001b20:    6008        .`      STR      r0,[r1,#0]
        0x00001b22:    f3bf8f4f    ..O.    DSB      
        0x00001b26:    bf30        0.      WFI      
        0x00001b28:    f3bf8f6f    ..o.    ISB      
        0x00001b2c:    4628        (F      MOV      r0,r5
        0x00001b2e:    e8bd40f8    ...@    POP      {r3-r7,lr}
        0x00001b32:    f7febb31    ..1.    B        am_hal_interrupt_master_set ; 0x198
        0x00001b36:    680a        .h      LDR      r2,[r1,#0]
        0x00001b38:    f0420204    B...    ORR      r2,r2,#4
        0x00001b3c:    600a        .`      STR      r2,[r1,#0]
        0x00001b3e:    68c0        .h      LDR      r0,[r0,#0xc]
        0x00001b40:    f00000f0    ....    AND      r0,r0,#0xf0
        0x00001b44:    2820         (      CMP      r0,#0x20
        0x00001b46:    bf14        ..      ITE      NE
        0x00001b48:    2000        .       MOVNE    r0,#0
        0x00001b4a:    2002        .       MOVEQ    r0,#2
        0x00001b4c:    4c2d        -L      LDR      r4,[pc,#180] ; [0x1c04] = 0x10000048
        0x00001b4e:    60e0        .`      STR      r0,[r4,#0xc]
        0x00001b50:    6861        ah      LDR      r1,[r4,#4]
        0x00001b52:    1e49        I.      SUBS     r1,r1,#1
        0x00001b54:    2903        .)      CMP      r1,#3
        0x00001b56:    bf94        ..      ITE      LS
        0x00001b58:    2104        .!      MOVLS    r1,#4
        0x00001b5a:    2100        .!      MOVHI    r1,#0
        0x00001b5c:    4301        .C      ORRS     r1,r1,r0
        0x00001b5e:    482a        *H      LDR      r0,[pc,#168] ; [0x1c08] = 0x40021000
        0x00001b60:    60e1        .`      STR      r1,[r4,#0xc]
        0x00001b62:    6802        .h      LDR      r2,[r0,#0]
        0x00001b64:    f0120203    ....    ANDS     r2,r2,#3
        0x00001b68:    bf18        ..      IT       NE
        0x00001b6a:    2201        ."      MOVNE    r2,#1
        0x00001b6c:    4311        .C      ORRS     r1,r1,r2
        0x00001b6e:    60e1        .`      STR      r1,[r4,#0xc]
        0x00001b70:    6880        .h      LDR      r0,[r0,#8]
        0x00001b72:    f24052ff    @..R    MOV      r2,#0x5ff
        0x00001b76:    4210        .B      TST      r0,r2
        0x00001b78:    bf14        ..      ITE      NE
        0x00001b7a:    2000        .       MOVNE    r0,#0
        0x00001b7c:    2008        .       MOVEQ    r0,#8
        0x00001b7e:    4308        .C      ORRS     r0,r0,r1
        0x00001b80:    2600        .&      MOVS     r6,#0
        0x00001b82:    2101        .!      MOVS     r1,#1
        0x00001b84:    60e0        .`      STR      r0,[r4,#0xc]
        0x00001b86:    280f        .(      CMP      r0,#0xf
        0x00001b88:    d006        ..      BEQ      0x1b98 ; am_hal_sysctrl_sleep + 152
        0x00001b8a:    f3bf8f4f    ..O.    DSB      
        0x00001b8e:    bf30        0.      WFI      
        0x00001b90:    f3bf8f6f    ..o.    ISB      
        0x00001b94:    7021        !p      STRB     r1,[r4,#0]
        0x00001b96:    e7c9        ..      B        0x1b2c ; am_hal_sysctrl_sleep + 44
        0x00001b98:    6860        `h      LDR      r0,[r4,#4]
        0x00001b9a:    2703        .'      MOVS     r7,#3
        0x00001b9c:    1e40        @.      SUBS     r0,r0,#1
        0x00001b9e:    9000        ..      STR      r0,[sp,#0]
        0x00001ba0:    0040        @.      LSLS     r0,r0,#1
        0x00001ba2:    fa07f000    ....    LSL      r0,r7,r0
        0x00001ba6:    f7fefcaf    ....    BL       am_hal_ctimer_int_disable ; 0x508
        0x00001baa:    1f39        9.      SUBS     r1,r7,#4
        0x00001bac:    9800        ..      LDR      r0,[sp,#0]
        0x00001bae:    f7fefc97    ....    BL       am_hal_ctimer_clear ; 0x4e0
        0x00001bb2:    9800        ..      LDR      r0,[sp,#0]
        0x00001bb4:    0040        @.      LSLS     r0,r0,#1
        0x00001bb6:    fa07f000    ....    LSL      r0,r7,r0
        0x00001bba:    f7fefcb7    ....    BL       am_hal_ctimer_int_enable ; 0x52c
        0x00001bbe:    f7fffdb3    ....    BL       am_hal_pwrctrl_bucks_disable ; 0x1728
        0x00001bc2:    f3bf8f4f    ..O.    DSB      
        0x00001bc6:    bf30        0.      WFI      
        0x00001bc8:    f3bf8f6f    ..o.    ISB      
        0x00001bcc:    2107        .!      MOVS     r1,#7
        0x00001bce:    2231        1"      MOVS     r2,#0x31
        0x00001bd0:    4608        .F      MOV      r0,r1
        0x00001bd2:    f000f97b    ..{.    BL       setBuckZX ; 0x1ecc
        0x00001bd6:    201c        .       MOVS     r0,#0x1c
        0x00001bd8:    f7fefcd4    ....    BL       am_hal_flash_delay ; 0x584
        0x00001bdc:    f7fffdca    ....    BL       am_hal_pwrctrl_bucks_enable ; 0x1774
        0x00001be0:    6860        `h      LDR      r0,[r4,#4]
        0x00001be2:    1e40        @.      SUBS     r0,r0,#1
        0x00001be4:    9000        ..      STR      r0,[sp,#0]
        0x00001be6:    7026        &p      STRB     r6,[r4,#0]
        0x00001be8:    60a6        .`      STR      r6,[r4,#8]
        0x00001bea:    204c        L       MOVS     r0,#0x4c
        0x00001bec:    f7fefcca    ....    BL       am_hal_flash_delay ; 0x584
        0x00001bf0:    1f39        9.      SUBS     r1,r7,#4
        0x00001bf2:    9800        ..      LDR      r0,[sp,#0]
        0x00001bf4:    f7fefcac    ....    BL       am_hal_ctimer_start ; 0x550
        0x00001bf8:    e798        ..      B        0x1b2c ; am_hal_sysctrl_sleep + 44
    $d
        0x00001bfa:    0000        ..      DCW    0
        0x00001bfc:    e000ed10    ....    DCD    3758157072
        0x00001c00:    40020000    ...@    DCD    1073872896
        0x00001c04:    10000048    H...    DCD    268435528
        0x00001c08:    40021000    ...@    DCD    1073876992
    $t
    i.am_hal_vcomp_disable
    am_hal_vcomp_disable
        0x00001c0c:    4901        .I      LDR      r1,[pc,#4] ; [0x1c14] = 0x4000c000
        0x00001c0e:    2037        7       MOVS     r0,#0x37
        0x00001c10:    6088        .`      STR      r0,[r1,#8]
        0x00001c12:    4770        pG      BX       lr
    $d
        0x00001c14:    4000c000    ...@    DCD    1073790976
    $t
    i.am_util_delay_us
    am_util_delay_us
        0x00001c18:    b570        p.      PUSH     {r4-r6,lr}
        0x00001c1a:    4604        .F      MOV      r4,r0
        0x00001c1c:    f7fefc1c    ....    BL       am_hal_clkgen_sysclk_get ; 0x458
        0x00001c20:    4606        .F      MOV      r6,r0
        0x00001c22:    4804        .H      LDR      r0,[pc,#16] ; [0x1c34] = 0x2dc6c0
        0x00001c24:    fbb6f0f0    ....    UDIV     r0,r6,r0
        0x00001c28:    fb00f504    ....    MUL      r5,r0,r4
        0x00001c2c:    4628        (F      MOV      r0,r5
        0x00001c2e:    f7fefca9    ....    BL       am_hal_flash_delay ; 0x584
        0x00001c32:    bd70        p.      POP      {r4-r6,pc}
    $d
        0x00001c34:    002dc6c0    ..-.    DCD    3000000
    $t
    i.configure_pins
    configure_pins
        0x00001c38:    b508        ..      PUSH     {r3,lr}
        0x00001c3a:    f7fefaa9    ....    BL       am_hal_interrupt_master_disable ; 0x190
        0x00001c3e:    9000        ..      STR      r0,[sp,#0]
        0x00001c40:    2073        s       MOVS     r0,#0x73
        0x00001c42:    494d        MI      LDR      r1,[pc,#308] ; [0x1d78] = 0x40010000
        0x00001c44:    6608        .f      STR      r0,[r1,#0x60]
        0x00001c46:    4608        .F      MOV      r0,r1
        0x00001c48:    6c00        .l      LDR      r0,[r0,#0x40]
        0x00001c4a:    f42000e0     ...    BIC      r0,r0,#0x700000
        0x00001c4e:    6408        .d      STR      r0,[r1,#0x40]
        0x00001c50:    4608        .F      MOV      r0,r1
        0x00001c52:    6840        @h      LDR      r0,[r0,#4]
        0x00001c54:    f420407f     ..@    BIC      r0,r0,#0xff00
        0x00001c58:    f4406020    @. `    ORR      r0,r0,#0xa00
        0x00001c5c:    6048        H`      STR      r0,[r1,#4]
        0x00001c5e:    4846        FH      LDR      r0,[pc,#280] ; [0x1d78] = 0x40010000
        0x00001c60:    30e4        .0      ADDS     r0,r0,#0xe4
        0x00001c62:    6800        .h      LDR      r0,[r0,#0]
        0x00001c64:    f420407f     ..@    BIC      r0,r0,#0xff00
        0x00001c68:    f8c100e4    ....    STR      r0,[r1,#0xe4]
        0x00001c6c:    2000        .       MOVS     r0,#0
        0x00001c6e:    6608        .f      STR      r0,[r1,#0x60]
        0x00001c70:    9800        ..      LDR      r0,[sp,#0]
        0x00001c72:    f7fefa91    ....    BL       am_hal_interrupt_master_set ; 0x198
        0x00001c76:    f7fefa8b    ....    BL       am_hal_interrupt_master_disable ; 0x190
        0x00001c7a:    9000        ..      STR      r0,[sp,#0]
        0x00001c7c:    2073        s       MOVS     r0,#0x73
        0x00001c7e:    493e        >I      LDR      r1,[pc,#248] ; [0x1d78] = 0x40010000
        0x00001c80:    6608        .f      STR      r0,[r1,#0x60]
        0x00001c82:    4608        .F      MOV      r0,r1
        0x00001c84:    6c00        .l      LDR      r0,[r0,#0x40]
        0x00001c86:    f02060e0     ..`    BIC      r0,r0,#0x7000000
        0x00001c8a:    6408        .d      STR      r0,[r1,#0x40]
        0x00001c8c:    4608        .F      MOV      r0,r1
        0x00001c8e:    6840        @h      LDR      r0,[r0,#4]
        0x00001c90:    f420007f     ...    BIC      r0,r0,#0xff0000
        0x00001c94:    f4402020    @.      ORR      r0,r0,#0xa0000
        0x00001c98:    6048        H`      STR      r0,[r1,#4]
        0x00001c9a:    4608        .F      MOV      r0,r1
        0x00001c9c:    f8d000e4    ....    LDR      r0,[r0,#0xe4]
        0x00001ca0:    f420007f     ...    BIC      r0,r0,#0xff0000
        0x00001ca4:    4934        4I      LDR      r1,[pc,#208] ; [0x1d78] = 0x40010000
        0x00001ca6:    31e4        .1      ADDS     r1,r1,#0xe4
        0x00001ca8:    6008        .`      STR      r0,[r1,#0]
        0x00001caa:    2000        .       MOVS     r0,#0
        0x00001cac:    4932        2I      LDR      r1,[pc,#200] ; [0x1d78] = 0x40010000
        0x00001cae:    6608        .f      STR      r0,[r1,#0x60]
        0x00001cb0:    9800        ..      LDR      r0,[sp,#0]
        0x00001cb2:    f7fefa71    ..q.    BL       am_hal_interrupt_master_set ; 0x198
        0x00001cb6:    f7fefa6b    ..k.    BL       am_hal_interrupt_master_disable ; 0x190
        0x00001cba:    9000        ..      STR      r0,[sp,#0]
        0x00001cbc:    2073        s       MOVS     r0,#0x73
        0x00001cbe:    492e        .I      LDR      r1,[pc,#184] ; [0x1d78] = 0x40010000
        0x00001cc0:    6608        .f      STR      r0,[r1,#0x60]
        0x00001cc2:    4608        .F      MOV      r0,r1
        0x00001cc4:    6c00        .l      LDR      r0,[r0,#0x40]
        0x00001cc6:    f02040e0     ..@    BIC      r0,r0,#0x70000000
        0x00001cca:    6408        .d      STR      r0,[r1,#0x40]
        0x00001ccc:    4608        .F      MOV      r0,r1
        0x00001cce:    6840        @h      LDR      r0,[r0,#4]
        0x00001cd0:    f020407f     ..@    BIC      r0,r0,#0xff000000
        0x00001cd4:    f0406000    @..`    ORR      r0,r0,#0x8000000
        0x00001cd8:    6048        H`      STR      r0,[r1,#4]
        0x00001cda:    4608        .F      MOV      r0,r1
        0x00001cdc:    f8d000e4    ....    LDR      r0,[r0,#0xe4]
        0x00001ce0:    f020407f     ..@    BIC      r0,r0,#0xff000000
        0x00001ce4:    4924        $I      LDR      r1,[pc,#144] ; [0x1d78] = 0x40010000
        0x00001ce6:    31e4        .1      ADDS     r1,r1,#0xe4
        0x00001ce8:    6008        .`      STR      r0,[r1,#0]
        0x00001cea:    2000        .       MOVS     r0,#0
        0x00001cec:    4922        "I      LDR      r1,[pc,#136] ; [0x1d78] = 0x40010000
        0x00001cee:    6608        .f      STR      r0,[r1,#0x60]
        0x00001cf0:    9800        ..      LDR      r0,[sp,#0]
        0x00001cf2:    f7fefa51    ..Q.    BL       am_hal_interrupt_master_set ; 0x198
        0x00001cf6:    f7fefa4b    ..K.    BL       am_hal_interrupt_master_disable ; 0x190
        0x00001cfa:    9000        ..      STR      r0,[sp,#0]
        0x00001cfc:    2073        s       MOVS     r0,#0x73
        0x00001cfe:    491e        .I      LDR      r1,[pc,#120] ; [0x1d78] = 0x40010000
        0x00001d00:    6608        .f      STR      r0,[r1,#0x60]
        0x00001d02:    4608        .F      MOV      r0,r1
        0x00001d04:    6c40        @l      LDR      r0,[r0,#0x44]
        0x00001d06:    f42040e0     ..@    BIC      r0,r0,#0x7000
        0x00001d0a:    6448        Hd      STR      r0,[r1,#0x44]
        0x00001d0c:    4608        .F      MOV      r0,r1
        0x00001d0e:    6880        .h      LDR      r0,[r0,#8]
        0x00001d10:    f020407f     ..@    BIC      r0,r0,#0xff000000
        0x00001d14:    f0406000    @..`    ORR      r0,r0,#0x8000000
        0x00001d18:    6088        .`      STR      r0,[r1,#8]
        0x00001d1a:    4608        .F      MOV      r0,r1
        0x00001d1c:    f8d000e8    ....    LDR      r0,[r0,#0xe8]
        0x00001d20:    f020407f     ..@    BIC      r0,r0,#0xff000000
        0x00001d24:    4914        .I      LDR      r1,[pc,#80] ; [0x1d78] = 0x40010000
        0x00001d26:    31e8        .1      ADDS     r1,r1,#0xe8
        0x00001d28:    6008        .`      STR      r0,[r1,#0]
        0x00001d2a:    2000        .       MOVS     r0,#0
        0x00001d2c:    4912        .I      LDR      r1,[pc,#72] ; [0x1d78] = 0x40010000
        0x00001d2e:    6608        .f      STR      r0,[r1,#0x60]
        0x00001d30:    9800        ..      LDR      r0,[sp,#0]
        0x00001d32:    f7fefa31    ..1.    BL       am_hal_interrupt_master_set ; 0x198
        0x00001d36:    f7fefa2b    ..+.    BL       am_hal_interrupt_master_disable ; 0x190
        0x00001d3a:    9000        ..      STR      r0,[sp,#0]
        0x00001d3c:    2073        s       MOVS     r0,#0x73
        0x00001d3e:    490e        .I      LDR      r1,[pc,#56] ; [0x1d78] = 0x40010000
        0x00001d40:    6608        .f      STR      r0,[r1,#0x60]
        0x00001d42:    4608        .F      MOV      r0,r1
        0x00001d44:    6c00        .l      LDR      r0,[r0,#0x40]
        0x00001d46:    f42060e0     ..`    BIC      r0,r0,#0x700
        0x00001d4a:    6408        .d      STR      r0,[r1,#0x40]
        0x00001d4c:    4608        .F      MOV      r0,r1
        0x00001d4e:    6800        .h      LDR      r0,[r0,#0]
        0x00001d50:    f420007f     ...    BIC      r0,r0,#0xff0000
        0x00001d54:    f44010d8    @...    ORR      r0,r0,#0x1b0000
        0x00001d58:    6008        .`      STR      r0,[r1,#0]
        0x00001d5a:    4608        .F      MOV      r0,r1
        0x00001d5c:    f8d000e0    ....    LDR      r0,[r0,#0xe0]
        0x00001d60:    f420007f     ...    BIC      r0,r0,#0xff0000
        0x00001d64:    4904        .I      LDR      r1,[pc,#16] ; [0x1d78] = 0x40010000
        0x00001d66:    31e0        .1      ADDS     r1,r1,#0xe0
        0x00001d68:    6008        .`      STR      r0,[r1,#0]
        0x00001d6a:    2000        .       MOVS     r0,#0
        0x00001d6c:    4902        .I      LDR      r1,[pc,#8] ; [0x1d78] = 0x40010000
        0x00001d6e:    6608        .f      STR      r0,[r1,#0x60]
        0x00001d70:    9800        ..      LDR      r0,[sp,#0]
        0x00001d72:    f7fefa11    ....    BL       am_hal_interrupt_master_set ; 0x198
        0x00001d76:    bd08        ..      POP      {r3,pc}
    $d
        0x00001d78:    40010000    ...@    DCD    1073807360
    $t
    i.internal_iom_get_int_err
    internal_iom_get_int_err
        0x00001d7c:    4602        .F      MOV      r2,r0
        0x00001d7e:    2000        .       MOVS     r0,#0
        0x00001d80:    2a06        .*      CMP      r2,#6
        0x00001d82:    bf2f        /.      ITEEE    CS
        0x00001d84:    2200        ."      MOVCS    r2,#0
        0x00001d86:    0312        ..      LSLCC    r2,r2,#12
        0x00001d88:    f5024280    ...B    ADDCC    r2,r2,#0x4000
        0x00001d8c:    f10242a0    ...B    ADDCC    r2,r2,#0x50000000
        0x00001d90:    bf38        8.      IT       CC
        0x00001d92:    f8d22204    ..."    LDRCC    r2,[r2,#0x204]
        0x00001d96:    4311        .C      ORRS     r1,r1,r2
        0x00001d98:    f0110fcc    ....    TST      r1,#0xcc
        0x00001d9c:    bf1c        ..      ITT      NE
        0x00001d9e:    2005        .       MOVNE    r0,#5
        0x00001da0:    4770        pG      BXNE     lr
        0x00001da2:    f4116fe0    ...o    TST      r1,#0x700
        0x00001da6:    bf1c        ..      ITT      NE
        0x00001da8:    2007        .       MOVNE    r0,#7
        0x00001daa:    4770        pG      BXNE     lr
        0x00001dac:    f0110f10    ....    TST      r1,#0x10
        0x00001db0:    bf18        ..      IT       NE
        0x00001db2:    2006        .       MOVNE    r0,#6
        0x00001db4:    4770        pG      BX       lr
        0x00001db6:    0000        ..      MOVS     r0,r0
    i.main
    main
        0x00001db8:    b508        ..      PUSH     {r3,lr}
        0x00001dba:    2000        .       MOVS     r0,#0
        0x00001dbc:    f7fefb5c    ..\.    BL       am_hal_clkgen_sysclk_select ; 0x478
        0x00001dc0:    481c        .H      LDR      r0,[pc,#112] ; [0x1e34] = 0x3d90
        0x00001dc2:    f7fefad7    ....    BL       am_hal_cachectrl_enable ; 0x374
        0x00001dc6:    f7fefab9    ....    BL       am_bsp_low_power_init ; 0x33c
        0x00001dca:    f7ffff35    ..5.    BL       configure_pins ; 0x1c38
        0x00001dce:    2000        .       MOVS     r0,#0
        0x00001dd0:    f7fefe72    ..r.    BL       am_hal_iom_pwrctrl_enable ; 0xab8
        0x00001dd4:    4918        .I      LDR      r1,[pc,#96] ; [0x1e38] = 0x3d84
        0x00001dd6:    2000        .       MOVS     r0,#0
        0x00001dd8:    f7fefc28    ..(.    BL       am_hal_iom_config ; 0x62c
        0x00001ddc:    2000        .       MOVS     r0,#0
        0x00001dde:    f7fefa3b    ..;.    BL       am_bsp_iom_enable ; 0x258
        0x00001de2:    f000f8b1    ....    BL       start_boot_mode ; 0x1f48
        0x00001de6:    f000f915    ....    BL       start_new_image ; 0x2014
        0x00001dea:    2100        .!      MOVS     r1,#0
        0x00001dec:    2012        .       MOVS     r0,#0x12
        0x00001dee:    f000f82b    ..+.    BL       override_pin_set ; 0x1e48
        0x00001df2:    f000f961    ..a.    BL       transfer_image ; 0x20b8
        0x00001df6:    bf00        ..      NOP      
        0x00001df8:    4810        .H      LDR      r0,[pc,#64] ; [0x1e3c] = 0x40010080
        0x00001dfa:    6800        .h      LDR      r0,[r0,#0]
        0x00001dfc:    f0000004    ....    AND      r0,r0,#4
        0x00001e00:    2800        .(      CMP      r0,#0
        0x00001e02:    d1f9        ..      BNE      0x1df8 ; main + 64
        0x00001e04:    2304        .#      MOVS     r3,#4
        0x00001e06:    4a0e        .J      LDR      r2,[pc,#56] ; [0x1e40] = 0x10000164
        0x00001e08:    4601        .F      MOV      r1,r0
        0x00001e0a:    9000        ..      STR      r0,[sp,#0]
        0x00001e0c:    f7fefeb2    ....    BL       am_hal_iom_spi_read ; 0xb74
        0x00001e10:    480b        .H      LDR      r0,[pc,#44] ; [0x1e40] = 0x10000164
        0x00001e12:    6800        .h      LDR      r0,[r0,#0]
        0x00001e14:    2803        .(      CMP      r0,#3
        0x00001e16:    d10a        ..      BNE      0x1e2e ; main + 118
        0x00001e18:    2004        .       MOVS     r0,#4
        0x00001e1a:    490a        .I      LDR      r1,[pc,#40] ; [0x1e44] = 0x10000064
        0x00001e1c:    6008        .`      STR      r0,[r1,#0]
        0x00001e1e:    0340        @.      LSLS     r0,r0,#13
        0x00001e20:    2304        .#      MOVS     r3,#4
        0x00001e22:    460a        .F      MOV      r2,r1
        0x00001e24:    2100        .!      MOVS     r1,#0
        0x00001e26:    9000        ..      STR      r0,[sp,#0]
        0x00001e28:    4608        .F      MOV      r0,r1
        0x00001e2a:    f7fff877    ..w.    BL       am_hal_iom_spi_write ; 0xf1c
        0x00001e2e:    bf00        ..      NOP      
        0x00001e30:    e7fe        ..      B        0x1e30 ; main + 120
    $d
        0x00001e32:    0000        ..      DCW    0
        0x00001e34:    00003d90    .=..    DCD    15760
        0x00001e38:    00003d84    .=..    DCD    15748
        0x00001e3c:    40010080    ...@    DCD    1073807488
        0x00001e40:    10000164    d...    DCD    268435812
        0x00001e44:    10000064    d...    DCD    268435556
    $t
    i.override_pin_set
    override_pin_set
        0x00001e48:    b538        8.      PUSH     {r3-r5,lr}
        0x00001e4a:    4605        .F      MOV      r5,r0
        0x00001e4c:    460c        .F      MOV      r4,r1
        0x00001e4e:    bf00        ..      NOP      
        0x00001e50:    481b        .H      LDR      r0,[pc,#108] ; [0x1ec0] = 0x40010080
        0x00001e52:    6800        .h      LDR      r0,[r0,#0]
        0x00001e54:    f0000004    ....    AND      r0,r0,#4
        0x00001e58:    2800        .(      CMP      r0,#0
        0x00001e5a:    d1f9        ..      BNE      0x1e50 ; override_pin_set + 8
        0x00001e5c:    2304        .#      MOVS     r3,#4
        0x00001e5e:    4a19        .J      LDR      r2,[pc,#100] ; [0x1ec4] = 0x10000164
        0x00001e60:    4601        .F      MOV      r1,r0
        0x00001e62:    9000        ..      STR      r0,[sp,#0]
        0x00001e64:    f7fefe86    ....    BL       am_hal_iom_spi_read ; 0xb74
        0x00001e68:    2000        .       MOVS     r0,#0
        0x00001e6a:    4917        .I      LDR      r1,[pc,#92] ; [0x1ec8] = 0x10000064
        0x00001e6c:    6008        .`      STR      r0,[r1,#0]
        0x00001e6e:    f44f4000    O..@    MOV      r0,#0x8000
        0x00001e72:    2304        .#      MOVS     r3,#4
        0x00001e74:    460a        .F      MOV      r2,r1
        0x00001e76:    2100        .!      MOVS     r1,#0
        0x00001e78:    9000        ..      STR      r0,[sp,#0]
        0x00001e7a:    4608        .F      MOV      r0,r1
        0x00001e7c:    f7fff84e    ..N.    BL       am_hal_iom_spi_write ; 0xf1c
        0x00001e80:    bf00        ..      NOP      
        0x00001e82:    480f        .H      LDR      r0,[pc,#60] ; [0x1ec0] = 0x40010080
        0x00001e84:    6800        .h      LDR      r0,[r0,#0]
        0x00001e86:    f0000004    ....    AND      r0,r0,#4
        0x00001e8a:    2800        .(      CMP      r0,#0
        0x00001e8c:    d0f9        ..      BEQ      0x1e82 ; override_pin_set + 58
        0x00001e8e:    480e        .H      LDR      r0,[pc,#56] ; [0x1ec8] = 0x10000064
        0x00001e90:    6005        .`      STR      r5,[r0,#0]
        0x00001e92:    6044        D`      STR      r4,[r0,#4]
        0x00001e94:    f44f4004    O..@    MOV      r0,#0x8400
        0x00001e98:    2308        .#      MOVS     r3,#8
        0x00001e9a:    4a0b        .J      LDR      r2,[pc,#44] ; [0x1ec8] = 0x10000064
        0x00001e9c:    2100        .!      MOVS     r1,#0
        0x00001e9e:    9000        ..      STR      r0,[sp,#0]
        0x00001ea0:    4608        .F      MOV      r0,r1
        0x00001ea2:    f7fff83b    ..;.    BL       am_hal_iom_spi_write ; 0xf1c
        0x00001ea6:    2005        .       MOVS     r0,#5
        0x00001ea8:    4907        .I      LDR      r1,[pc,#28] ; [0x1ec8] = 0x10000064
        0x00001eaa:    6008        .`      STR      r0,[r1,#0]
        0x00001eac:    f44f4000    O..@    MOV      r0,#0x8000
        0x00001eb0:    2304        .#      MOVS     r3,#4
        0x00001eb2:    460a        .F      MOV      r2,r1
        0x00001eb4:    2100        .!      MOVS     r1,#0
        0x00001eb6:    9000        ..      STR      r0,[sp,#0]
        0x00001eb8:    4608        .F      MOV      r0,r1
        0x00001eba:    f7fff82f    ../.    BL       am_hal_iom_spi_write ; 0xf1c
        0x00001ebe:    bd38        8.      POP      {r3-r5,pc}
    $d
        0x00001ec0:    40010080    ...@    DCD    1073807488
        0x00001ec4:    10000164    d...    DCD    268435812
        0x00001ec8:    10000064    d...    DCD    268435556
    $t
    i.setBuckZX
    setBuckZX
        0x00001ecc:    b5f8        ..      PUSH     {r3-r7,lr}
        0x00001ece:    4614        .F      MOV      r4,r2
        0x00001ed0:    460e        .F      MOV      r6,r1
        0x00001ed2:    4605        .F      MOV      r5,r0
        0x00001ed4:    f7fef95c    ..\.    BL       am_hal_interrupt_master_disable ; 0x190
        0x00001ed8:    4b19        .K      LDR      r3,[pc,#100] ; [0x1f40] = 0x40020000
        0x00001eda:    9000        ..      STR      r0,[sp,#0]
        0x00001edc:    6e98        .n      LDR      r0,[r3,#0x68]
        0x00001ede:    6e99        .n      LDR      r1,[r3,#0x68]
        0x00001ee0:    f3c00083    ....    UBFX     r0,r0,#2,#4
        0x00001ee4:    4a17        .J      LDR      r2,[pc,#92] ; [0x1f44] = 0x10000048
        0x00001ee6:    f3c13143    ..C1    UBFX     r1,r1,#13,#4
        0x00001eea:    f0140f02    ....    TST      r4,#2
        0x00001eee:    bf14        ..      ITE      NE
        0x00001ef0:    e9d25604    ...V    LDRDNE   r5,r6,[r2,#0x10]
        0x00001ef4:    f0140f01    ....    TSTEQ    r4,#1
        0x00001ef8:    d011        ..      BEQ      0x1f1e ; setBuckZX + 82
        0x00001efa:    f0140f10    ....    TST      r4,#0x10
        0x00001efe:    d005        ..      BEQ      0x1f0c ; setBuckZX + 64
        0x00001f00:    f8d3c068    ..h.    LDR      r12,[r3,#0x68]
        0x00001f04:    f3650c85    e...    BFI      r12,r5,#2,#4
        0x00001f08:    f8c3c068    ..h.    STR      r12,[r3,#0x68]
        0x00001f0c:    f0140f20    .. .    TST      r4,#0x20
        0x00001f10:    d005        ..      BEQ      0x1f1e ; setBuckZX + 82
        0x00001f12:    f8d3c068    ..h.    LDR      r12,[r3,#0x68]
        0x00001f16:    f3663c50    f.P<    BFI      r12,r6,#13,#4
        0x00001f1a:    f8c3c068    ..h.    STR      r12,[r3,#0x68]
        0x00001f1e:    f0140f04    ....    TST      r4,#4
        0x00001f22:    d007        ..      BEQ      0x1f34 ; setBuckZX + 104
        0x00001f24:    f0140f10    ....    TST      r4,#0x10
        0x00001f28:    bf18        ..      IT       NE
        0x00001f2a:    6110        .a      STRNE    r0,[r2,#0x10]
        0x00001f2c:    f0140f20    .. .    TST      r4,#0x20
        0x00001f30:    bf18        ..      IT       NE
        0x00001f32:    6151        Qa      STRNE    r1,[r2,#0x14]
        0x00001f34:    9800        ..      LDR      r0,[sp,#0]
        0x00001f36:    e8bd40f8    ...@    POP      {r3-r7,lr}
        0x00001f3a:    f7feb92d    ..-.    B        am_hal_interrupt_master_set ; 0x198
    $d
        0x00001f3e:    0000        ..      DCW    0
        0x00001f40:    40020000    ...@    DCD    1073872896
        0x00001f44:    10000048    H...    DCD    268435528
    $t
    i.start_boot_mode
    start_boot_mode
        0x00001f48:    b508        ..      PUSH     {r3,lr}
        0x00001f4a:    f44f3000    O..0    MOV      r0,#0x20000
        0x00001f4e:    4930        0I      LDR      r1,[pc,#192] ; [0x2010] = 0x40010098
        0x00001f50:    6008        .`      STR      r0,[r1,#0]
        0x00001f52:    f7fef91d    ....    BL       am_hal_interrupt_master_disable ; 0x190
        0x00001f56:    9000        ..      STR      r0,[sp,#0]
        0x00001f58:    2073        s       MOVS     r0,#0x73
        0x00001f5a:    492d        -I      LDR      r1,[pc,#180] ; [0x2010] = 0x40010098
        0x00001f5c:    3998        .9      SUBS     r1,r1,#0x98
        0x00001f5e:    6608        .f      STR      r0,[r1,#0x60]
        0x00001f60:    4608        .F      MOV      r0,r1
        0x00001f62:    6c80        .l      LDR      r0,[r0,#0x48]
        0x00001f64:    f0200070     .p.    BIC      r0,r0,#0x70
        0x00001f68:    f0400020    @. .    ORR      r0,r0,#0x20
        0x00001f6c:    6488        .d      STR      r0,[r1,#0x48]
        0x00001f6e:    4608        .F      MOV      r0,r1
        0x00001f70:    6900        .i      LDR      r0,[r0,#0x10]
        0x00001f72:    f420407f     ..@    BIC      r0,r0,#0xff00
        0x00001f76:    f44050c0    @..P    ORR      r0,r0,#0x1800
        0x00001f7a:    6108        .a      STR      r0,[r1,#0x10]
        0x00001f7c:    4608        .F      MOV      r0,r1
        0x00001f7e:    f8d000f0    ....    LDR      r0,[r0,#0xf0]
        0x00001f82:    f420407f     ..@    BIC      r0,r0,#0xff00
        0x00001f86:    4922        "I      LDR      r1,[pc,#136] ; [0x2010] = 0x40010098
        0x00001f88:    3158        X1      ADDS     r1,r1,#0x58
        0x00001f8a:    6008        .`      STR      r0,[r1,#0]
        0x00001f8c:    2000        .       MOVS     r0,#0
        0x00001f8e:    4920         I      LDR      r1,[pc,#128] ; [0x2010] = 0x40010098
        0x00001f90:    3998        .9      SUBS     r1,r1,#0x98
        0x00001f92:    6608        .f      STR      r0,[r1,#0x60]
        0x00001f94:    9800        ..      LDR      r0,[sp,#0]
        0x00001f96:    f7fef8ff    ....    BL       am_hal_interrupt_master_set ; 0x198
        0x00001f9a:    2010        .       MOVS     r0,#0x10
        0x00001f9c:    491c        .I      LDR      r1,[pc,#112] ; [0x2010] = 0x40010098
        0x00001f9e:    3998        .9      SUBS     r1,r1,#0x98
        0x00001fa0:    f8c10098    ....    STR      r0,[r1,#0x98]
        0x00001fa4:    f7fef8f4    ....    BL       am_hal_interrupt_master_disable ; 0x190
        0x00001fa8:    9000        ..      STR      r0,[sp,#0]
        0x00001faa:    2073        s       MOVS     r0,#0x73
        0x00001fac:    4918        .I      LDR      r1,[pc,#96] ; [0x2010] = 0x40010098
        0x00001fae:    3998        .9      SUBS     r1,r1,#0x98
        0x00001fb0:    6608        .f      STR      r0,[r1,#0x60]
        0x00001fb2:    4608        .F      MOV      r0,r1
        0x00001fb4:    6c00        .l      LDR      r0,[r0,#0x40]
        0x00001fb6:    f42020e0     ..     BIC      r0,r0,#0x70000
        0x00001fba:    f4403000    @..0    ORR      r0,r0,#0x20000
        0x00001fbe:    6408        .d      STR      r0,[r1,#0x40]
        0x00001fc0:    4608        .F      MOV      r0,r1
        0x00001fc2:    6840        @h      LDR      r0,[r0,#4]
        0x00001fc4:    f02000ff     ...    BIC      r0,r0,#0xff
        0x00001fc8:    f0400018    @...    ORR      r0,r0,#0x18
        0x00001fcc:    6048        H`      STR      r0,[r1,#4]
        0x00001fce:    4608        .F      MOV      r0,r1
        0x00001fd0:    f8d000e4    ....    LDR      r0,[r0,#0xe4]
        0x00001fd4:    f02000ff     ...    BIC      r0,r0,#0xff
        0x00001fd8:    490d        .I      LDR      r1,[pc,#52] ; [0x2010] = 0x40010098
        0x00001fda:    314c        L1      ADDS     r1,r1,#0x4c
        0x00001fdc:    6008        .`      STR      r0,[r1,#0]
        0x00001fde:    2000        .       MOVS     r0,#0
        0x00001fe0:    490b        .I      LDR      r1,[pc,#44] ; [0x2010] = 0x40010098
        0x00001fe2:    3998        .9      SUBS     r1,r1,#0x98
        0x00001fe4:    6608        .f      STR      r0,[r1,#0x60]
        0x00001fe6:    9800        ..      LDR      r0,[sp,#0]
        0x00001fe8:    f7fef8d6    ....    BL       am_hal_interrupt_master_set ; 0x198
        0x00001fec:    2005        .       MOVS     r0,#5
        0x00001fee:    f7fffe13    ....    BL       am_util_delay_us ; 0x1c18
        0x00001ff2:    f44f3000    O..0    MOV      r0,#0x20000
        0x00001ff6:    4906        .I      LDR      r1,[pc,#24] ; [0x2010] = 0x40010098
        0x00001ff8:    3908        .9      SUBS     r1,r1,#8
        0x00001ffa:    6008        .`      STR      r0,[r1,#0]
        0x00001ffc:    bf00        ..      NOP      
        0x00001ffe:    4804        .H      LDR      r0,[pc,#16] ; [0x2010] = 0x40010098
        0x00002000:    3818        .8      SUBS     r0,r0,#0x18
        0x00002002:    6800        .h      LDR      r0,[r0,#0]
        0x00002004:    f0000004    ....    AND      r0,r0,#4
        0x00002008:    2800        .(      CMP      r0,#0
        0x0000200a:    d0f8        ..      BEQ      0x1ffe ; start_boot_mode + 182
        0x0000200c:    bd08        ..      POP      {r3,pc}
    $d
        0x0000200e:    0000        ..      DCW    0
        0x00002010:    40010098    ...@    DCD    1073807512
    $t
    i.start_new_image
    start_new_image
        0x00002014:    b508        ..      PUSH     {r3,lr}
        0x00002016:    bf00        ..      NOP      
        0x00002018:    4823        #H      LDR      r0,[pc,#140] ; [0x20a8] = 0x40010080
        0x0000201a:    6800        .h      LDR      r0,[r0,#0]
        0x0000201c:    f0000004    ....    AND      r0,r0,#4
        0x00002020:    2800        .(      CMP      r0,#0
        0x00002022:    d1f9        ..      BNE      0x2018 ; start_new_image + 4
        0x00002024:    2010        .       MOVS     r0,#0x10
        0x00002026:    4920         I      LDR      r1,[pc,#128] ; [0x20a8] = 0x40010080
        0x00002028:    3110        .1      ADDS     r1,r1,#0x10
        0x0000202a:    6008        .`      STR      r0,[r1,#0]
        0x0000202c:    f04f31ff    O..1    MOV      r1,#0xffffffff
        0x00002030:    2000        .       MOVS     r0,#0
        0x00002032:    f7fefd35    ..5.    BL       am_hal_iom_int_clear ; 0xaa0
        0x00002036:    2000        .       MOVS     r0,#0
        0x00002038:    2304        .#      MOVS     r3,#4
        0x0000203a:    4a1c        .J      LDR      r2,[pc,#112] ; [0x20ac] = 0x10000164
        0x0000203c:    4601        .F      MOV      r1,r0
        0x0000203e:    9000        ..      STR      r0,[sp,#0]
        0x00002040:    f7fefd98    ....    BL       am_hal_iom_spi_read ; 0xb74
        0x00002044:    2000        .       MOVS     r0,#0
        0x00002046:    491a        .I      LDR      r1,[pc,#104] ; [0x20b0] = 0x10000064
        0x00002048:    6008        .`      STR      r0,[r1,#0]
        0x0000204a:    f44f4000    O..@    MOV      r0,#0x8000
        0x0000204e:    2304        .#      MOVS     r3,#4
        0x00002050:    460a        .F      MOV      r2,r1
        0x00002052:    2100        .!      MOVS     r1,#0
        0x00002054:    9000        ..      STR      r0,[sp,#0]
        0x00002056:    4608        .F      MOV      r0,r1
        0x00002058:    f7feff60    ..`.    BL       am_hal_iom_spi_write ; 0xf1c
        0x0000205c:    bf00        ..      NOP      
        0x0000205e:    4812        .H      LDR      r0,[pc,#72] ; [0x20a8] = 0x40010080
        0x00002060:    6800        .h      LDR      r0,[r0,#0]
        0x00002062:    f0000004    ....    AND      r0,r0,#4
        0x00002066:    2800        .(      CMP      r0,#0
        0x00002068:    d0f9        ..      BEQ      0x205e ; start_new_image + 74
        0x0000206a:    f44f4000    O..@    MOV      r0,#0x8000
        0x0000206e:    4910        .I      LDR      r1,[pc,#64] ; [0x20b0] = 0x10000064
        0x00002070:    6008        .`      STR      r0,[r1,#0]
        0x00002072:    f641400a    A..@    MOV      r0,#0x1c0a
        0x00002076:    6048        H`      STR      r0,[r1,#4]
        0x00002078:    480e        .H      LDR      r0,[pc,#56] ; [0x20b4] = 0x160b7b17
        0x0000207a:    6088        .`      STR      r0,[r1,#8]
        0x0000207c:    f44f4004    O..@    MOV      r0,#0x8400
        0x00002080:    230c        .#      MOVS     r3,#0xc
        0x00002082:    460a        .F      MOV      r2,r1
        0x00002084:    2100        .!      MOVS     r1,#0
        0x00002086:    9000        ..      STR      r0,[sp,#0]
        0x00002088:    4608        .F      MOV      r0,r1
        0x0000208a:    f7feff47    ..G.    BL       am_hal_iom_spi_write ; 0xf1c
        0x0000208e:    2002        .       MOVS     r0,#2
        0x00002090:    4907        .I      LDR      r1,[pc,#28] ; [0x20b0] = 0x10000064
        0x00002092:    6008        .`      STR      r0,[r1,#0]
        0x00002094:    0380        ..      LSLS     r0,r0,#14
        0x00002096:    2304        .#      MOVS     r3,#4
        0x00002098:    460a        .F      MOV      r2,r1
        0x0000209a:    2100        .!      MOVS     r1,#0
        0x0000209c:    9000        ..      STR      r0,[sp,#0]
        0x0000209e:    4608        .F      MOV      r0,r1
        0x000020a0:    f7feff3c    ..<.    BL       am_hal_iom_spi_write ; 0xf1c
        0x000020a4:    bd08        ..      POP      {r3,pc}
    $d
        0x000020a6:    0000        ..      DCW    0
        0x000020a8:    40010080    ...@    DCD    1073807488
        0x000020ac:    10000164    d...    DCD    268435812
        0x000020b0:    10000064    d...    DCD    268435556
        0x000020b4:    160b7b17    .{..    DCD    369851159
    $t
    i.transfer_image
    transfer_image
        0x000020b8:    b5f8        ..      PUSH     {r3-r7,lr}
        0x000020ba:    f641460a    A..F    MOV      r6,#0x1c0a
        0x000020be:    2700        .'      MOVS     r7,#0
        0x000020c0:    e049        I.      B        0x2156 ; transfer_image + 158
        0x000020c2:    bf00        ..      NOP      
        0x000020c4:    4825        %H      LDR      r0,[pc,#148] ; [0x215c] = 0x40010080
        0x000020c6:    6800        .h      LDR      r0,[r0,#0]
        0x000020c8:    f0000004    ....    AND      r0,r0,#4
        0x000020cc:    2800        .(      CMP      r0,#0
        0x000020ce:    d1f9        ..      BNE      0x20c4 ; transfer_image + 12
        0x000020d0:    2304        .#      MOVS     r3,#4
        0x000020d2:    4a23        #J      LDR      r2,[pc,#140] ; [0x2160] = 0x10000164
        0x000020d4:    4601        .F      MOV      r1,r0
        0x000020d6:    9000        ..      STR      r0,[sp,#0]
        0x000020d8:    f7fefd4c    ..L.    BL       am_hal_iom_spi_read ; 0xb74
        0x000020dc:    2000        .       MOVS     r0,#0
        0x000020de:    4921        !I      LDR      r1,[pc,#132] ; [0x2164] = 0x10000064
        0x000020e0:    6008        .`      STR      r0,[r1,#0]
        0x000020e2:    f44f4000    O..@    MOV      r0,#0x8000
        0x000020e6:    2304        .#      MOVS     r3,#4
        0x000020e8:    460a        .F      MOV      r2,r1
        0x000020ea:    2100        .!      MOVS     r1,#0
        0x000020ec:    9000        ..      STR      r0,[sp,#0]
        0x000020ee:    4608        .F      MOV      r0,r1
        0x000020f0:    f7feff14    ....    BL       am_hal_iom_spi_write ; 0xf1c
        0x000020f4:    bf00        ..      NOP      
        0x000020f6:    4819        .H      LDR      r0,[pc,#100] ; [0x215c] = 0x40010080
        0x000020f8:    6800        .h      LDR      r0,[r0,#0]
        0x000020fa:    f0000004    ....    AND      r0,r0,#4
        0x000020fe:    2800        .(      CMP      r0,#0
        0x00002100:    d0f9        ..      BEQ      0x20f6 ; transfer_image + 62
        0x00002102:    2e70        p.      CMP      r6,#0x70
        0x00002104:    d901        ..      BLS      0x210a ; transfer_image + 82
        0x00002106:    2070        p       MOVS     r0,#0x70
        0x00002108:    e000        ..      B        0x210c ; transfer_image + 84
        0x0000210a:    4630        0F      MOV      r0,r6
        0x0000210c:    4604        .F      MOV      r4,r0
        0x0000210e:    4815        .H      LDR      r0,[pc,#84] ; [0x2164] = 0x10000064
        0x00002110:    6004        .`      STR      r4,[r0,#0]
        0x00002112:    2500        .%      MOVS     r5,#0
        0x00002114:    e006        ..      B        0x2124 ; transfer_image + 108
        0x00002116:    1978        x.      ADDS     r0,r7,r5
        0x00002118:    4913        .I      LDR      r1,[pc,#76] ; [0x2168] = 0x2178
        0x0000211a:    5c09        .\      LDRB     r1,[r1,r0]
        0x0000211c:    1d28        (.      ADDS     r0,r5,#4
        0x0000211e:    4a11        .J      LDR      r2,[pc,#68] ; [0x2164] = 0x10000064
        0x00002120:    5411        .T      STRB     r1,[r2,r0]
        0x00002122:    1c6d        m.      ADDS     r5,r5,#1
        0x00002124:    42a5        .B      CMP      r5,r4
        0x00002126:    d3f6        ..      BCC      0x2116 ; transfer_image + 94
        0x00002128:    f44f4004    O..@    MOV      r0,#0x8400
        0x0000212c:    1d23        #.      ADDS     r3,r4,#4
        0x0000212e:    4a0d        .J      LDR      r2,[pc,#52] ; [0x2164] = 0x10000064
        0x00002130:    2100        .!      MOVS     r1,#0
        0x00002132:    9000        ..      STR      r0,[sp,#0]
        0x00002134:    4608        .F      MOV      r0,r1
        0x00002136:    f7fefef1    ....    BL       am_hal_iom_spi_write ; 0xf1c
        0x0000213a:    2003        .       MOVS     r0,#3
        0x0000213c:    4909        .I      LDR      r1,[pc,#36] ; [0x2164] = 0x10000064
        0x0000213e:    6008        .`      STR      r0,[r1,#0]
        0x00002140:    f44f4000    O..@    MOV      r0,#0x8000
        0x00002144:    2304        .#      MOVS     r3,#4
        0x00002146:    460a        .F      MOV      r2,r1
        0x00002148:    2100        .!      MOVS     r1,#0
        0x0000214a:    9000        ..      STR      r0,[sp,#0]
        0x0000214c:    4608        .F      MOV      r0,r1
        0x0000214e:    f7fefee5    ....    BL       am_hal_iom_spi_write ; 0xf1c
        0x00002152:    1b36        6.      SUBS     r6,r6,r4
        0x00002154:    4427        'D      ADD      r7,r7,r4
        0x00002156:    2e00        ..      CMP      r6,#0
        0x00002158:    d1b3        ..      BNE      0x20c2 ; transfer_image + 10
        0x0000215a:    bdf8        ..      POP      {r3-r7,pc}
    $d
        0x0000215c:    40010080    ...@    DCD    1073807488
        0x00002160:    10000164    d...    DCD    268435812
        0x00002164:    10000064    d...    DCD    268435556
        0x00002168:    00002178    x!..    DCD    8568
    $t
    x$fpl$fpinit
    $v0
    _fp_init
        0x0000216c:    f04f7040    O.@p    MOV      r0,#0x3000000
        0x00002170:    eee10a10    ....    VMSR     FPSCR,r0
    __fplib_config_fpu_vfp
    __fplib_config_pureend_doubles
        0x00002174:    4770        pG      BX       lr
        0x00002176:    0000        ..      MOVS     r0,r0
    $d.realdata
    .constdata
    g_pui8Apollo2BootDemo
        0x00002178:    10001000    ....    DCD    268439552
        0x0000217c:    00009c01    ....    DCD    39937
        0x00002180:    00009c09    ....    DCD    39945
        0x00002184:    000098dd    ....    DCD    39133
        0x00002188:    000098dd    ....    DCD    39133
        0x0000218c:    000098dd    ....    DCD    39133
        0x00002190:    000098dd    ....    DCD    39133
        0x00002194:    00000000    ....    DCD    0
        0x00002198:    00000000    ....    DCD    0
        0x0000219c:    00000000    ....    DCD    0
        0x000021a0:    00000000    ....    DCD    0
        0x000021a4:    00009c07    ....    DCD    39943
        0x000021a8:    00009c07    ....    DCD    39943
        0x000021ac:    00000000    ....    DCD    0
        0x000021b0:    00009c07    ....    DCD    39943
        0x000021b4:    00009c07    ....    DCD    39943
        0x000021b8:    00009c07    ....    DCD    39943
        0x000021bc:    00009c07    ....    DCD    39943
        0x000021c0:    00009c07    ....    DCD    39943
        0x000021c4:    00009c07    ....    DCD    39943
        0x000021c8:    00009c07    ....    DCD    39943
        0x000021cc:    00009c07    ....    DCD    39943
        0x000021d0:    00009c07    ....    DCD    39943
        0x000021d4:    00009c07    ....    DCD    39943
        0x000021d8:    00009c07    ....    DCD    39943
        0x000021dc:    00009c07    ....    DCD    39943
        0x000021e0:    00009c07    ....    DCD    39943
        0x000021e4:    00009c07    ....    DCD    39943
        0x000021e8:    00009c07    ....    DCD    39943
        0x000021ec:    000093a7    ....    DCD    37799
        0x000021f0:    00009c07    ....    DCD    39943
        0x000021f4:    00009c07    ....    DCD    39943
        0x000021f8:    00009c07    ....    DCD    39943
        0x000021fc:    00009c07    ....    DCD    39943
        0x00002200:    00009c07    ....    DCD    39943
        0x00002204:    00009c07    ....    DCD    39943
        0x00002208:    00009c07    ....    DCD    39943
        0x0000220c:    00009c07    ....    DCD    39943
        0x00002210:    00009c07    ....    DCD    39943
        0x00002214:    00009c07    ....    DCD    39943
        0x00002218:    00009c07    ....    DCD    39943
        0x0000221c:    00009c07    ....    DCD    39943
        0x00002220:    00009c07    ....    DCD    39943
        0x00002224:    00009c07    ....    DCD    39943
        0x00002228:    00009c07    ....    DCD    39943
        0x0000222c:    00009c07    ....    DCD    39943
        0x00002230:    00009c07    ....    DCD    39943
        0x00002234:    00009c07    ....    DCD    39943
        0x00002238:    18a0f8df    ....    DCD    413202655
        0x0000223c:    47706008    .`pG    DCD    1198546952
        0x00002240:    0ff0e92d    -...    DCD    267446573
        0x00002244:    000d0004    ....    DCD    851972
        0x00002248:    d04d2d00    .-M.    DCD    3494718720
        0x0000224c:    00290020     .).    DCD    2687008
        0x00002250:    ea5f0849    I._.    DCD    3932096585
        0x00002254:    46800030    0..F    DCD    1182793776
        0x00002258:    00204689    .F .    DCD    2115209
        0x0000225c:    08800029    )...    DCD    142606377
        0x00002260:    7081ea40    @..p    DCD    1887562304
        0x00002264:    eb180889    ....    DCD    3944220809
        0x00002268:    eb590000    ..Y.    DCD    3948478464
        0x0000226c:    00060101    ....    DCD    393473
        0x00002270:    0030000f    ..0.    DCD    3145743
        0x00002274:    09000039    9...    DCD    150995001
        0x00002278:    7001ea40    @..p    DCD    1879173696
        0x0000227c:    18360909    ..6.    DCD    406194441
        0x00002280:    0030414f    OA0.    DCD    3162447
        0x00002284:    0a000039    9...    DCD    167772217
        0x00002288:    6001ea40    @..`    DCD    1610738240
        0x0000228c:    18360a09    ..6.    DCD    406194697
        0x00002290:    0030414f    OA0.    DCD    3162447
        0x00002294:    0c000039    9...    DCD    201326649
        0x00002298:    4001ea40    @..@    DCD    1073867328
        0x0000229c:    18360c09    ..6.    DCD    406195209
        0x000022a0:    0030414f    OA0.    DCD    3162447
        0x000022a4:    00080039    9...    DCD    524345
        0x000022a8:    18362100    .!6.    DCD    406200576
        0x000022ac:    08f6414f    OA..    DCD    150356303
        0x000022b0:    7647ea46    F.Gv    DCD    1984424518
        0x000022b4:    200a08ff    ...     DCD    537528575
        0x000022b8:    fba02100    .!..    DCD    4221575424
        0x000022bc:    fb008906    ....    DCD    4211116294
        0x000022c0:    fb019907    ....    DCD    4211185927
        0x000022c4:    ebb49906    ....    DCD    3954481414
        0x000022c8:    eb750008    ..u.    DCD    3950313480
        0x000022cc:    46820109    ...F    DCD    1182925065
        0x000022d0:    f11a468b    .F..    DCD    4045031051
        0x000022d4:    f15b0006    ..[.    DCD    4049272838
        0x000022d8:    09000100    ....    DCD    150995200
        0x000022dc:    7001ea40    @..p    DCD    1879173696
        0x000022e0:    18300909    ..0.    DCD    405801225
        0x000022e4:    e0154179    yA..    DCD    3759489401
        0x000022e8:    466046a4    .F`F    DCD    1180714660
        0x000022ec:    eb100880    ....    DCD    3943696512
        0x000022f0:    0002005c    \...    DCD    131164
        0x000022f4:    1212eb12    ....    DCD    303229714
        0x000022f8:    2212eb12    ..."    DCD    571665170
        0x000022fc:    4212eb12    ...B    DCD    1108536082
        0x00002300:    200a08d2    ...     DCD    537528530
        0x00002304:    c012fb00    ....    DCD    3222469376
        0x00002308:    1d9b0003    ....    DCD    496697347
        0x0000230c:    1213eb12    ....    DCD    303295250
        0x00002310:    21000010    ...!    DCD    553648144
        0x00002314:    0ff0e8bd    ....    DCD    267446461
        0x00002318:    b5104770    pG..    DCD    3037742960
        0x0000231c:    000b0002    ....    DCD    720898
        0x00002320:    21002000    . .!    DCD    553656320
        0x00002324:    d101428b    .B..    DCD    3506520715
        0x00002328:    d0014282    .B..    DCD    3489743490
        0x0000232c:    e0002400    .$..    DCD    3758105600
        0x00002330:    20002401    .$.     DCD    536880129
        0x00002334:    428b2100    .!.B    DCD    1116414208
        0x00002338:    4282d101    ...B    DCD    1115869441
        0x0000233c:    0010d007    ....    DCD    1101831
        0x00002340:    f7ff0019    ....    DCD    4160684057
        0x00002344:    0002ff7d    }...    DCD    196477
        0x00002348:    1c64000b    ..d.    DCD    476315659
        0x0000234c:    0020e7f1    .. .    DCD    2156529
        0x00002350:    b580bd10    ....    DCD    3045113104
        0x00002354:    23002200    .".#    DCD    587211264
        0x00002358:    dc054299    .B..    DCD    3691332249
        0x0000235c:    4290db01    ...B    DCD    1116789505
        0x00002360:    4240d202    ..@B    DCD    1111544322
        0x00002364:    0141eb71    q.A.    DCD    21097329
        0x00002368:    ffd7f7ff    ....    DCD    4292343807
        0x0000236c:    b430bd02    ..0.    DCD    3023092994
        0x00002370:    000b0002    ....    DCD    720898
        0x00002374:    21002000    . .!    DCD    553656320
        0x00002378:    d101428b    .B..    DCD    3506520715
        0x0000237c:    d0014282    .B..    DCD    3489743490
        0x00002380:    e0002000    . ..    DCD    3758104576
        0x00002384:    24002001    . .$    DCD    603987969
        0x00002388:    42ab2500    .%.B    DCD    1118512384
        0x0000238c:    42a2d101    ...B    DCD    1117966593
        0x00002390:    0912d005    ....    DCD    152227845
        0x00002394:    7203ea42    B..r    DCD    1912859202
        0x00002398:    1c40091b    ..@.    DCD    473958683
        0x0000239c:    bc30e7f3    ..0.    DCD    3157321715
        0x000023a0:    b4304770    pG0.    DCD    3023062896
        0x000023a4:    22000003    ..."    DCD    570425347
        0x000023a8:    25002000    . .%    DCD    620765184
        0x000023ac:    2c2d781c    .x-,    DCD    741177372
        0x000023b0:    2401d103    ...$    DCD    604098819
        0x000023b4:    1c5b0022    ".[.    DCD    475725858
        0x000023b8:    781c1c6d    m..x    DCD    2015108205
        0x000023bc:    db0a2c30    0,..    DCD    3674876976
        0x000023c0:    2c3a781c    .x:,    DCD    742029340
        0x000023c4:    1c6dda07    ..m.    DCD    476961287
        0x000023c8:    4360240a    .$`C    DCD    1130374154
        0x000023cc:    3c30781c    .x0<    DCD    1009809436
        0x000023d0:    1c5b1820     .[.    DCD    475732000
        0x000023d4:    2900e7f1    ...)    DCD    687925233
        0x000023d8:    600dd000    ...`    DCD    1611517952
        0x000023dc:    2a00b2d2    ...*    DCD    704688850
        0x000023e0:    4240d001    ..@B    DCD    1111543809
        0x000023e4:    bc30e7ff    ..0.    DCD    3157321727
        0x000023e8:    e92d4770    pG-.    DCD    3912058736
        0x000023ec:    b0874ff0    .O..    DCD    2961657840
        0x000023f0:    000f0006    ....    DCD    983046
        0x000023f4:    f05f4690    .F_.    DCD    4032775824
        0x000023f8:    f05f0900    .._.    DCD    4032760064
        0x000023fc:    00300a00    ..0.    DCD    3148288
        0x00002400:    f7ff0039    9...    DCD    4160684089
        0x00002404:    0004ff1d    ....    DCD    327453
        0x00002408:    200a000d    ...     DCD    537526285
        0x0000240c:    fba02100    .!..    DCD    4221575424
        0x00002410:    fb002304    .#..    DCD    4211090180
        0x00002414:    fb013305    .3..    DCD    4211159813
        0x00002418:    1ab03304    .3..    DCD    447755012
        0x0000241c:    0103eb77    w...    DCD    17034103
        0x00002420:    f11b4683    .F..    DCD    4045096579
        0x00002424:    46690030    0.iF    DCD    1181286448
        0x00002428:    0009f801    ....    DCD    653313
        0x0000242c:    0901f119    ....    DCD    151122201
        0x00002430:    002f0026    &./.    DCD    3080230
        0x00002434:    21002000    . .!    DCD    553656320
        0x00002438:    d1e0428f    .B..    DCD    3521135247
        0x0000243c:    d1de4286    .B..    DCD    3521004166
        0x00002440:    f1b846ca    .F..    DCD    4055385802
        0x00002444:    d00f0f00    ....    DCD    3490647808
        0x00002448:    f1b04648    HF..    DCD    4054861384
        0x0000244c:    28000901    ...(    DCD    671090945
        0x00002450:    4668d007    ..hF    DCD    1181274119
        0x00002454:    0009f810    ....    DCD    653328
        0x00002458:    0000f888    ....    DCD    63624
        0x0000245c:    0801f118    ....    DCD    134344984
        0x00002460:    2000e7f2    ...     DCD    536930290
        0x00002464:    0000f888    ....    DCD    63624
        0x00002468:    b0074650    PF..    DCD    2953266768
        0x0000246c:    8ff0e8bd    ....    DCD    2414930109
        0x00002470:    b085b5f0    ....    DCD    2961552880
        0x00002474:    000d0004    ....    DCD    851972
        0x00002478:    0c00f05f    _...    DCD    201388127
        0x0000247c:    27002600    .&.'    DCD    654321152
        0x00002480:    d10742bd    .B..    DCD    3506913981
        0x00002484:    d10542b4    .B..    DCD    3506782900
        0x00002488:    466e2030    0 nF    DCD    1181622320
        0x0000248c:    000cf806    ....    DCD    849926
        0x00002490:    0c01f11c    ....    DCD    201453852
        0x00002494:    27002600    .&.'    DCD    654321152
        0x00002498:    d10142bd    .B..    DCD    3506520765
        0x0000249c:    d01c42b4    .B..    DCD    3491513012
        0x000024a0:    f0100020     ...    DCD    4027580448
        0x000024a4:    4686000f    ...F    DCD    1183186959
        0x000024a8:    fe8efa5f    _...    DCD    4270783071
        0x000024ac:    0f0af1be    ....    DCD    252375486
        0x000024b0:    b2dbdb07    ....    DCD    3000752903
        0x000024b4:    d0012b00    .+..    DCD    3489737472
        0x000024b8:    e0002027    ' ..    DCD    3758104615
        0x000024bc:    eb102007    . ..    DCD    3943702535
        0x000024c0:    f11e0e0e    ....    DCD    4045278734
        0x000024c4:    466e0030    0.nF    DCD    1181614128
        0x000024c8:    000cf806    ....    DCD    849926
        0x000024cc:    0c01f11c    ....    DCD    201453852
        0x000024d0:    ea440924    $.D.    DCD    3930327332
        0x000024d4:    092d7405    .t-.    DCD    153973765
        0x000024d8:    4661e7dc    ..aF    DCD    1180821468
        0x000024dc:    d00c2a00    .*..    DCD    3490458112
        0x000024e0:    f1b04660    `F..    DCD    4054861408
        0x000024e4:    28000c01    ...(    DCD    671091713
        0x000024e8:    4668d005    ..hF    DCD    1181274117
        0x000024ec:    000cf810    ....    DCD    849936
        0x000024f0:    1c527010    .pR.    DCD    475164688
        0x000024f4:    2000e7f4    ...     DCD    536930292
        0x000024f8:    00087010    .p..    DCD    552976
        0x000024fc:    bdf0b005    ....    DCD    3186667525
        0x00002500:    20000002    ...     DCD    536870914
        0x00002504:    d0062a00    .*..    DCD    3490064896
        0x00002508:    1c4a0011    ..J.    DCD    474611729
        0x0000250c:    29007809    .x.)    DCD    687896585
        0x00002510:    1c40d001    ..@.    DCD    474009601
        0x00002514:    4770e7f8    ..pG    DCD    1198581752
        0x00002518:    0004b410    ....    DCD    308240
        0x0000251c:    2a012000    . .*    DCD    704716800
        0x00002520:    0013db09    ....    DCD    1301257
        0x00002524:    2b001e5a    Z..+    DCD    721428058
        0x00002528:    2c00d005    ...,    DCD    738250757
        0x0000252c:    7021d001    ..!p    DCD    1881264129
        0x00002530:    1c401c64    d.@.    DCD    473963620
        0x00002534:    bc10e7f5    ....    DCD    3155224565
        0x00002538:    e92d4770    pG-.    DCD    3912058736
        0x0000253c:    ed2d4ff8    .O-.    DCD    3979169784
        0x00002540:    b0828b02    ....    DCD    2961345282
        0x00002544:    8a40eeb0    ..@.    DCD    2319511216
        0x00002548:    000f0006    ....    DCD    983046
        0x0000254c:    46836830    0h.F    DCD    1183017008
        0x00002550:    0f04f1bb    ....    DCD    251982267
        0x00002554:    f07fda02    ....    DCD    4034910722
        0x00002558:    e09a0002    ....    DCD    3768188930
        0x0000255c:    8a40eeb5    ..@.    DCD    2319511221
        0x00002560:    fa10eef1    ....    DCD    4195413745
        0x00002564:    f8dfd104    ....    DCD    4175417604
        0x00002568:    6030057c    |.0`    DCD    1613759868
        0x0000256c:    e0902003    . ..    DCD    3767541763
        0x00002570:    ed8d46b1    .F..    DCD    3985458865
        0x00002574:    98008a00    ....    DCD    2550172160
        0x00002578:    50c7f3c0    ...P    DCD    1355281344
        0x0000257c:    4680387f    .8.F    DCD    1182808191
        0x00002580:    f0209800    .. .    DCD    4028667904
        0x00002584:    f450407f    .@P.    DCD    4098900095
        0x00002588:    46820000    ...F    DCD    1182924800
        0x0000258c:    00052000    . ..    DCD    335872
        0x00002590:    00042000    . ..    DCD    270336
        0x00002594:    0f1ff1b8    ....    DCD    253751736
        0x00002598:    f07fdb02    ....    DCD    4034910978
        0x0000259c:    e0780001    ..x.    DCD    3765960705
        0x000025a0:    0f17f118    ....    DCD    253227288
        0x000025a4:    f05fda02    .._.    DCD    4032813570
        0x000025a8:    e07230ff    .0r.    DCD    3765580031
        0x000025ac:    0f17f1b8    ....    DCD    253227448
        0x000025b0:    4640db05    ..@F    DCD    1178655493
        0x000025b4:    fa1a3817    .8..    DCD    4196022295
        0x000025b8:    0004f000    ....    DCD    323584
        0x000025bc:    f1b8e016    ....    DCD    4055425046
        0x000025c0:    d40c0f00    ....    DCD    3557560064
        0x000025c4:    0017f1d8    ....    DCD    1569240
        0x000025c8:    41014651    QF.A    DCD    1090602577
        0x000025cc:    f118000c    ....    DCD    4044881932
        0x000025d0:    fa1a0001    ....    DCD    4196007937
        0x000025d4:    f020f000    .. .    DCD    4028690432
        0x000025d8:    0005407f    .@..    DCD    344191
        0x000025dc:    f02ae006    ..*.    DCD    4029341702
        0x000025e0:    f118407f    .@..    DCD    4044898431
        0x000025e4:    42490101    ..IB    DCD    1112080641
        0x000025e8:    00054108    .A..    DCD    344328
        0x000025ec:    28009800    ...(    DCD    671127552
        0x000025f0:    202dd502    ..-     DCD    539874562
        0x000025f4:    1c767030    0pv.    DCD    477524016
        0x000025f8:    d1032c00    .,..    DCD    3506646016
        0x000025fc:    70302030    0 0p    DCD    1882202160
        0x00002600:    e0141c76    v...    DCD    3759414390
        0x00002604:    db052c01    .,..    DCD    3674549249
        0x00002608:    00200032    2. .    DCD    2097202
        0x0000260c:    f7ff17e1    ....    DCD    4160690145
        0x00002610:    e007feec    ....    DCD    3758620396
        0x00002614:    7030202d    - 0p    DCD    1882202157
        0x00002618:    00321c76    v.2.    DCD    3284086
        0x0000261c:    17c14260    `B..    DCD    398541408
        0x00002620:    fee3f7ff    ....    DCD    4276353023
        0x00002624:    28007830    0x.(    DCD    671119408
        0x00002628:    1c76d001    ..v.    DCD    477548545
        0x0000262c:    202ee7fa    ...     DCD    539944954
        0x00002630:    1c767030    0pv.    DCD    477524016
        0x00002634:    d1032d00    .-..    DCD    3506646272
        0x00002638:    70302030    0 0p    DCD    1882202160
        0x0000263c:    e0231c76    v.#.    DCD    3760397430
        0x00002640:    0009ebb6    ....    DCD    650166
        0x00002644:    0000ebbb    ....    DCD    60347
        0x00002648:    00011e40    @...    DCD    73280
        0x0000264c:    da01428f    .B..    DCD    3657515663
        0x00002650:    e7ff0039    9...    DCD    3892248633
        0x00002654:    00022000    . ..    DCD    139264
        0x00002658:    da0a428a    .B..    DCD    3658105482
        0x0000265c:    4345200a    . EC    DCD    1128603658
        0x00002660:    16000028    (...    DCD    369098792
        0x00002664:    70303030    000p    DCD    1882206256
        0x00002668:    f0251c76    v.%.    DCD    4028963958
        0x0000266c:    1c52457f    .ER.    DCD    475153791
        0x00002670:    1e76e7f2    ..v.    DCD    511109106
        0x00002674:    28307830    0x0(    DCD    674265136
        0x00002678:    f816d105    ....    DCD    4162244869
        0x0000267c:    282e0c01    ...(    DCD    674106369
        0x00002680:    1e76d001    ..v.    DCD    511102977
        0x00002684:    1c76e7f6    ..v.    DCD    477554678
        0x00002688:    70302000    . 0p    DCD    1882202112
        0x0000268c:    0609ebb6    ....    DCD    101313462
        0x00002690:    b0020030    0...    DCD    2952921136
        0x00002694:    8b02ecbd    ....    DCD    2332224701
        0x00002698:    8ff2e8bd    ....    DCD    2415061181
        0x0000269c:    4ff8e92d    -..O    DCD    1341712685
        0x000026a0:    8b02ed2d    -...    DCD    2332224813
        0x000026a4:    0004b088    ....    DCD    307336
        0x000026a8:    00174688    .F..    DCD    1525384
        0x000026ac:    20002600    .&.     DCD    536880640
        0x000026b0:    f8989002    ....    DCD    4170747906
        0x000026b4:    28000000    ...(    DCD    671088640
        0x000026b8:    81edf000    ....    DCD    2179854336
        0x000026bc:    90052006    . ..    DCD    2416254982
        0x000026c0:    0000f898    ....    DCD    63640
        0x000026c4:    d0162825    %(..    DCD    3491112997
        0x000026c8:    d0102c00    .,..    DCD    3490720768
        0x000026cc:    0000f898    ....    DCD    63640
        0x000026d0:    d108280a    .(..    DCD    3506972682
        0x000026d4:    0408f8df    ....    DCD    67696863
        0x000026d8:    28007800    .x.(    DCD    671119360
        0x000026dc:    200dd003    ...     DCD    537776131
        0x000026e0:    1c647020     pd.    DCD    476344352
        0x000026e4:    f8981c76    v...    DCD    4170718326
        0x000026e8:    70200000    .. p    DCD    1881145344
        0x000026ec:    f1181c64    d...    DCD    4044889188
        0x000026f0:    1c760801    ..v.    DCD    477497345
        0x000026f4:    f118e7dd    ....    DCD    4044941277
        0x000026f8:    20000801    ...     DCD    536872961
        0x000026fc:    0001f88d    ....    DCD    129165
        0x00002700:    0001f89d    ....    DCD    129181
        0x00002704:    0003f88d    ....    DCD    260237
        0x00002708:    f88d2020      ..    DCD    4169998368
        0x0000270c:    f8980000    ....    DCD    4170711040
        0x00002710:    28300000    ..0(    DCD    674234368
        0x00002714:    2030d104    ..0     DCD    540070148
        0x00002718:    0000f88d    ....    DCD    63629
        0x0000271c:    0801f118    ....    DCD    134344984
        0x00002720:    4640a904    ..@F    DCD    1178642692
        0x00002724:    fe3df7ff    ..=.    DCD    4265474047
        0x00002728:    98040005    ....    DCD    2550398981
        0x0000272c:    f8984480    .D..    DCD    4170728576
        0x00002730:    28730000    ..s(    DCD    678625280
        0x00002734:    2d00d002    ...-    DCD    755027970
        0x00002738:    426dd500    ..mB    DCD    1114494208
        0x0000273c:    0000f898    ....    DCD    63640
        0x00002740:    d108282e    .(..    DCD    3506972718
        0x00002744:    0801f118    ....    DCD    134344984
        0x00002748:    4640a904    ..@F    DCD    1178642692
        0x0000274c:    fe29f7ff    ..).    DCD    4264163327
        0x00002750:    98049005    ....    DCD    2550435845
        0x00002754:    f8984480    .D..    DCD    4170728576
        0x00002758:    286c0000    ..l(    DCD    678166528
        0x0000275c:    f118d10a    ....    DCD    4044935434
        0x00002760:    f8980801    ....    DCD    4170713089
        0x00002764:    286c0000    ..l(    DCD    678166528
        0x00002768:    f118d104    ....    DCD    4044935428
        0x0000276c:    20010801    ...     DCD    536938497
        0x00002770:    0001f88d    ....    DCD    129165
        0x00002774:    0000f898    ....    DCD    63640
        0x00002778:    f0002846    F(..    DCD    4026542150
        0x0000277c:    28588153    S.X(    DCD    676888915
        0x00002780:    2863d067    g.c(    DCD    677630055
        0x00002784:    2864d010    ..d(    DCD    677695504
        0x00002788:    80d1f000    ....    DCD    2161242112
        0x0000278c:    f0002866    f(..    DCD    4026542182
        0x00002790:    28698149    I.i(    DCD    678003017
        0x00002794:    80cbf000    ....    DCD    2160848896
        0x00002798:    d0112873    s(..    DCD    3490785395
        0x0000279c:    f0002875    u(..    DCD    4026542197
        0x000027a0:    28788090    ..x(    DCD    678985872
        0x000027a4:    e16cd052    R.l.    DCD    3782004818
        0x000027a8:    1d3f6838    8h?.    DCD    490694712
        0x000027ac:    0004f88d    ....    DCD    325773
        0x000027b0:    d0032c00    .,..    DCD    3489868800
        0x000027b4:    0004f89d    ....    DCD    325789
        0x000027b8:    1c647020     pd.    DCD    476344352
        0x000027bc:    e1671c76    v.g.    DCD    3781631094
        0x000027c0:    1d3f6838    8h?.    DCD    490694712
        0x000027c4:    98039003    ....    DCD    2550370307
        0x000027c8:    fe9af7ff    ....    DCD    4271568895
        0x000027cc:    2d019002    ...-    DCD    755077122
        0x000027d0:    9802db14    ....    DCD    2550323988
        0x000027d4:    d21142a8    .B..    DCD    3524346536
        0x000027d8:    1a2d9802    ..-.    DCD    439195650
        0x000027dc:    f89d002a    *...    DCD    4171038762
        0x000027e0:    00201000    .. .    DCD    2101248
        0x000027e4:    fe98f7ff    ....    DCD    4271437823
        0x000027e8:    2c000005    ...,    DCD    738197509
        0x000027ec:    0028d001    ..(.    DCD    2674689
        0x000027f0:    2000e000    ...     DCD    536928256
        0x000027f4:    19ae4404    .D..    DCD    430851076
        0x000027f8:    00052000    . ..    DCD    335872
        0x000027fc:    78009803    ...x    DCD    2013304835
        0x00002800:    d00a2800    .(..    DCD    3490326528
        0x00002804:    d0032c00    .,..    DCD    3489868800
        0x00002808:    78009803    ...x    DCD    2013304835
        0x0000280c:    1c647020     pd.    DCD    476344352
        0x00002810:    1c409803    ..@.    DCD    473995267
        0x00002814:    1c769003    ..v.    DCD    477532163
        0x00002818:    2d00e7f0    ...-    DCD    755034096
        0x0000281c:    426dd015    ..mB    DCD    1114492949
        0x00002820:    42a89802    ...B    DCD    1118345218
        0x00002824:    9802d211    ....    DCD    2550321681
        0x00002828:    002a1a2d    -.*.    DCD    2759213
        0x0000282c:    1000f89d    ....    DCD    268499101
        0x00002830:    f7ff0020     ...    DCD    4160684064
        0x00002834:    0005fe71    q...    DCD    392817
        0x00002838:    d0012c00    .,..    DCD    3489737728
        0x0000283c:    e0000028    (...    DCD    3758096424
        0x00002840:    44042000    . .D    DCD    1141121024
        0x00002844:    200019ae    ...     DCD    536877486
        0x00002848:    e1210005    ..!.    DCD    3777036293
        0x0000284c:    f88d2001    . ..    DCD    4169998337
        0x00002850:    f89d0003    ....    DCD    4171038723
        0x00002854:    28000001    ...(    DCD    671088641
        0x00002858:    1dffd008    ....    DCD    503304200
        0x0000285c:    0707f037    7...    DCD    117960759
        0x00002860:    0100e9d7    ....    DCD    16837079
        0x00002864:    46823708    .7.F    DCD    1182938888
        0x00002868:    e004468b    .F..    DCD    3758376587
        0x0000286c:    1d3f6838    8h?.    DCD    490694712
        0x00002870:    46822100    .!.F    DCD    1182933248
        0x00002874:    2d00468b    .F.-    DCD    754992779
        0x00002878:    4650d015    ..PF    DCD    1179701269
        0x0000287c:    f7ff4659    YF..    DCD    4160702041
        0x00002880:    1a28fd76    v.(.    DCD    438893942
        0x00002884:    002a0005    ..*.    DCD    2752517
        0x00002888:    1000f89d    ....    DCD    268499101
        0x0000288c:    f7ff0020     ...    DCD    4160684064
        0x00002890:    0005fe43    C...    DCD    392771
        0x00002894:    d0012c00    .,..    DCD    3489737728
        0x00002898:    e0000028    (...    DCD    3758096424
        0x0000289c:    44042000    . .D    DCD    1141121024
        0x000028a0:    200019ae    ...     DCD    536877486
        0x000028a4:    f89d0005    ....    DCD    4171038725
        0x000028a8:    00223003    .0".    DCD    2240515
        0x000028ac:    46594650    PFYF    DCD    1180255824
        0x000028b0:    fddef7ff    ....    DCD    4259248127
        0x000028b4:    2c004681    .F.,    DCD    738215553
        0x000028b8:    444cd000    ..LD    DCD    1145884672
        0x000028bc:    0606eb19    ....    DCD    101116697
        0x000028c0:    f89de0e6    ....    DCD    4171096294
        0x000028c4:    28000001    ...(    DCD    671088641
        0x000028c8:    1dffd008    ....    DCD    503304200
        0x000028cc:    0707f037    7...    DCD    117960759
        0x000028d0:    0100e9d7    ....    DCD    16837079
        0x000028d4:    46823708    .7.F    DCD    1182938888
        0x000028d8:    e004468b    .F..    DCD    3758376587
        0x000028dc:    1d3f6838    8h?.    DCD    490694712
        0x000028e0:    46822100    .!.F    DCD    1182933248
        0x000028e4:    2d00468b    .F.-    DCD    754992779
        0x000028e8:    4650d015    ..PF    DCD    1179701269
        0x000028ec:    f7ff4659    YF..    DCD    4160702041
        0x000028f0:    1a28fd14    ..(.    DCD    438893844
        0x000028f4:    002a0005    ..*.    DCD    2752517
        0x000028f8:    1000f89d    ....    DCD    268499101
        0x000028fc:    f7ff0020     ...    DCD    4160684064
        0x00002900:    0005fe0b    ....    DCD    392715
        0x00002904:    d0012c00    .,..    DCD    3489737728
        0x00002908:    e0000028    (...    DCD    3758096424
        0x0000290c:    44042000    . .D    DCD    1141121024
        0x00002910:    200019ae    ...     DCD    536877486
        0x00002914:    00220005    ..".    DCD    2228229
        0x00002918:    46594650    PFYF    DCD    1180255824
        0x0000291c:    fd65f7ff    ..e.    DCD    4251318271
        0x00002920:    2c004681    .F.,    DCD    738215553
        0x00002924:    444cd000    ..LD    DCD    1145884672
        0x00002928:    0606eb19    ....    DCD    101116697
        0x0000292c:    f89de0b0    ....    DCD    4171096240
        0x00002930:    28000001    ...(    DCD    671088641
        0x00002934:    1dffd008    ....    DCD    503304200
        0x00002938:    0707f037    7...    DCD    117960759
        0x0000293c:    0100e9d7    ....    DCD    16837079
        0x00002940:    e9cd3708    .7..    DCD    3922540296
        0x00002944:    e0040106    ....    DCD    3758358790
        0x00002948:    1d3f6838    8h?.    DCD    490694712
        0x0000294c:    e9cd17c1    ....    DCD    3922532289
        0x00002950:    e9dd0106    ....    DCD    3923575046
        0x00002954:    00020106    ....    DCD    131334
        0x00002958:    2000000b    ...     DCD    536870923
        0x0000295c:    428b2100    .!.B    DCD    1116414208
        0x00002960:    db01dc0d    ....    DCD    3674332173
        0x00002964:    d20a4282    .B..    DCD    3523887746
        0x00002968:    0106e9dd    ....    DCD    17230301
        0x0000296c:    eb714240    @Bq.    DCD    3950068288
        0x00002970:    46820141    A..F    DCD    1182925121
        0x00002974:    2001468b    .F.     DCD    536954507
        0x00002978:    0002f88d    ....    DCD    194701
        0x0000297c:    e9dde006    ....    DCD    3923632134
        0x00002980:    46820106    ...F    DCD    1182925062
        0x00002984:    2000468b    .F.     DCD    536888971
        0x00002988:    0002f88d    ....    DCD    194701
        0x0000298c:    d0332d00    .-3.    DCD    3493014784
        0x00002990:    46594650    PFYF    DCD    1180255824
        0x00002994:    fcddf7ff    ....    DCD    4242405375
        0x00002998:    00051a28    (...    DCD    334376
        0x0000299c:    0002f89d    ....    DCD    194717
        0x000029a0:    d00a2800    .(..    DCD    3490326528
        0x000029a4:    f89d1e6d    m...    DCD    4171046509
        0x000029a8:    28300000    ..0(    DCD    674234368
        0x000029ac:    2c00d105    ...,    DCD    738251013
        0x000029b0:    202dd002    ..-     DCD    539873282
        0x000029b4:    1c647020     pd.    DCD    476344352
        0x000029b8:    002a1c76    v.*.    DCD    2759798
        0x000029bc:    1000f89d    ....    DCD    268499101
        0x000029c0:    f7ff0020     ...    DCD    4160684064
        0x000029c4:    0005fda9    ....    DCD    392617
        0x000029c8:    d0012c00    .,..    DCD    3489737728
        0x000029cc:    e0000028    (...    DCD    3758096424
        0x000029d0:    44042000    . .D    DCD    1141121024
        0x000029d4:    200019ae    ...     DCD    536877486
        0x000029d8:    f89d0005    ....    DCD    4171038725
        0x000029dc:    28000002    ...(    DCD    671088642
        0x000029e0:    f89dd014    ....    DCD    4171091988
        0x000029e4:    28200000    .. (    DCD    673185792
        0x000029e8:    2c00d110    ...,    DCD    738251024
        0x000029ec:    202dd002    ..-     DCD    539873282
        0x000029f0:    1c647020     pd.    DCD    476344352
        0x000029f4:    e0091c76    v...    DCD    3758693494
        0x000029f8:    0002f89d    ....    DCD    194717
        0x000029fc:    d0052800    .(..    DCD    3489998848
        0x00002a00:    d0022c00    .,..    DCD    3489803264
        0x00002a04:    7020202d    -  p    DCD    1881153581
        0x00002a08:    1c761c64    d.v.    DCD    477502564
        0x00002a0c:    46500022    ".PF    DCD    1179648034
        0x00002a10:    f7ff4659    YF..    DCD    4160702041
        0x00002a14:    4681fcea    ...F    DCD    1182924010
        0x00002a18:    d0002c00    .,..    DCD    3489672192
        0x00002a1c:    eb19444c    LD..    DCD    3944301644
        0x00002a20:    e0350606    ..5.    DCD    3761571334
        0x00002a24:    d02b2c00    .,+.    DCD    3492490240
        0x00002a28:    f0371dff    ..7.    DCD    4030143999
        0x00002a2c:    ed970707    ....    DCD    3986097927
        0x00002a30:    37080b00    ...7    DCD    923273984
        0x00002a34:    0b10ec51    Q...    DCD    185658449
        0x00002a38:    f85ef000    ..^.    DCD    4166971392
        0x00002a3c:    0a10ee08    ....    DCD    168881672
        0x00002a40:    60202014    .  `    DCD    1612718100
        0x00002a44:    00209905    .. .    DCD    2136325
        0x00002a48:    0a48eeb0    ..H.    DCD    172551856
        0x00002a4c:    fd75f7ff    ..u.    DCD    4252366847
        0x00002a50:    f1b94681    .F..    DCD    4055451265
        0x00002a54:    d5100f00    ....    DCD    3574599424
        0x00002a58:    0f01f119    ....    DCD    251785497
        0x00002a5c:    4921d102    ..!I    DCD    1226952962
        0x00002a60:    e0070008    ....    DCD    3758555144
        0x00002a64:    0f02f119    ....    DCD    251851033
        0x00002a68:    491fd102    ...I    DCD    1226821890
        0x00002a6c:    e0010008    ....    DCD    3758161928
        0x00002a70:    0008491e    .I..    DCD    543006
        0x00002a74:    21036020     `.!    DCD    553869344
        0x00002a78:    eb194689    .F..    DCD    3944302217
        0x00002a7c:    444c0606    ..LD    DCD    1145832966
        0x00002a80:    2c00e006    ...,    DCD    738254854
        0x00002a84:    f898d003    ....    DCD    4170764291
        0x00002a88:    70200000    .. p    DCD    1881145344
        0x00002a8c:    1c761c64    d.v.    DCD    477502564
        0x00002a90:    0801f118    ....    DCD    134344984
        0x00002a94:    2c00e60d    ...,    DCD    738256397
        0x00002a98:    2000d001    ...     DCD    536924161
        0x00002a9c:    00307020     p0.    DCD    3174432
        0x00002aa0:    ecbdb008    ....    DCD    3971854344
        0x00002aa4:    e8bd8b02    ....    DCD    3904736002
        0x00002aa8:    b40e8ff2    ....    DCD    3020853234
        0x00002aac:    0004b578    x...    DCD    308600
        0x00002ab0:    0006a805    ....    DCD    436229
        0x00002ab4:    00210032    2.!.    DCD    2162738
        0x00002ab8:    f7ff480d    .H..    DCD    4160702477
        0x00002abc:    0005fdef    ....    DCD    392687
        0x00002ac0:    4906480b    .H.I    DCD    1225148427
        0x00002ac4:    47886809    .h.G    DCD    1200121865
        0x00002ac8:    bc720028    (.r.    DCD    3161587752
        0x00002acc:    fb10f85d    ]...    DCD    4212193373
        0x00002ad0:    4808b580    ...H    DCD    1208530304
        0x00002ad4:    ffe9f7ff    ....    DCD    4293523455
        0x00002ad8:    0000bd01    ....    DCD    48385
        0x00002adc:    1000119c    ....    DCD    268439964
        0x00002ae0:    100011a8    ....    DCD    268439976
        0x00002ae4:    00302e30    0.0.    DCD    3157552
        0x00002ae8:    00232e23    #.#.    DCD    2305571
        0x00002aec:    003f2e3f    ?.?.    DCD    4140607
        0x00002af0:    10001084    ....    DCD    268439684
        0x00002af4:    00009bd4    ....    DCD    39892
        0x00002af8:    4200f001    ...B    DCD    1107357697
        0x00002afc:    f1a31a8b    ....    DCD    4053998219
        0x00002b00:    f5b15160    `Q..    DCD    4122038624
        0x00002b04:    db0a1f80    ....    DCD    3674873728
        0x00002b08:    6f7ff1b1    ...o    DCD    1870655921
        0x00002b0c:    ea42d21f    ..B.    DCD    3930247711
        0x00002b10:    00c102c1    ....    DCD    12649153
        0x00002b14:    4100f171    q..A    DCD    1090580849
        0x00002b18:    7050eb42    B.Pp    DCD    1884351298
        0x00002b1c:    150b4770    pG..    DCD    353060720
        0x00002b20:    0309f1c3    ....    DCD    50983363
        0x00002b24:    d2102b21    !+..    DCD    3524274977
        0x00002b28:    ea410289    ..A.    DCD    3930129033
        0x00002b2c:    02805190    .Q..    DCD    41963920
        0x00002b30:    41492801    .(IA    DCD    1095313409
        0x00002b34:    4100f041    A..A    DCD    1090580545
        0x00002b38:    f003fa21    !...    DCD    4026792481
        0x00002b3c:    0320f1c3    .. .    DCD    52490691
        0x00002b40:    f1714099    .@q.    DCD    4050731161
        0x00002b44:    41504100    .APA    DCD    1095778560
        0x00002b48:    00104770    pG..    DCD    1066864
        0x00002b4c:    f06f4770    pGo.    DCD    4033824624
        0x00002b50:    eb130000    ....    DCD    3943890944
        0x00002b54:    bf5c3f10    .?\.    DCD    3210493712
        0x00002b58:    ea420e00    ..B.    DCD    3930197504
        0x00002b5c:    477050c0    .PpG    DCD    1198543040
        0x00002b60:    7901b418    ...y    DCD    2030154776
        0x00002b64:    f1400789    ..@.    DCD    4047505289
        0x00002b68:    6801808d    ...h    DCD    1744928909
        0x00002b6c:    d25d2932    2)].    DCD    3529320754
        0x00002b70:    8110f3ef    ....    DCD    2165371887
        0x00002b74:    b6729100    ..r.    DCD    3060961536
        0x00002b78:    f8df2173    s!..    DCD    4175372659
        0x00002b7c:    60112314    .#.`    DCD    1611735828
        0x00002b80:    68012202    .".h    DCD    1744904706
        0x00002b84:    f0110089    ....    DCD    4027646089
        0x00002b88:    408a011c    ...@    DCD    1082786076
        0x00002b8c:    085b6803    .h[.    DCD    140208131
        0x00002b90:    037cf013    ..|.    DCD    58519571
        0x00002b94:    12fcf8df    ....    DCD    318568671
        0x00002b98:    681918cb    ...h    DCD    1746475211
        0x00002b9c:    68042307    .#.h    DCD    1745101575
        0x00002ba0:    f01400a4    ....    DCD    4027842724
        0x00002ba4:    40a3041c    ...@    DCD    1084425244
        0x00002ba8:    430a4399    .C.C    DCD    1124746137
        0x00002bac:    085b6803    .h[.    DCD    140208131
        0x00002bb0:    037cf013    ..|.    DCD    58519571
        0x00002bb4:    12dcf8df    ....    DCD    316471519
        0x00002bb8:    601a18cb    ...`    DCD    1612323019
        0x00002bbc:    68012218    .".h    DCD    1744904728
        0x00002bc0:    f01100c9    ....    DCD    4027646153
        0x00002bc4:    408a0118    ...@    DCD    1082786072
        0x00002bc8:    f0137803    .x..    DCD    4027807747
        0x00002bcc:    f8df03fc    ....    DCD    4175365116
        0x00002bd0:    18cb12c8    ....    DCD    415961800
        0x00002bd4:    23ff6819    .h.#    DCD    603940889
        0x00002bd8:    00e46804    .h..    DCD    14968836
        0x00002bdc:    0418f014    ....    DCD    68743188
        0x00002be0:    439940a3    .@.C    DCD    1134117027
        0x00002be4:    7803430a    .C.x    DCD    2013479690
        0x00002be8:    03fcf013    ....    DCD    66908179
        0x00002bec:    12a8f8df    ....    DCD    313063647
        0x00002bf0:    601a18cb    ...`    DCD    1612323019
        0x00002bf4:    f0127802    .x..    DCD    4027742210
        0x00002bf8:    f8df02fc    ....    DCD    4175364860
        0x00002bfc:    188a12a0    ....    DCD    411701920
        0x00002c00:    21ff6812    .h.!    DCD    570386450
        0x00002c04:    00db6803    .h..    DCD    14379011
        0x00002c08:    0318f013    ....    DCD    51965971
        0x00002c0c:    438a4099    .@.C    DCD    1133133977
        0x00002c10:    f0137803    .x..    DCD    4027807747
        0x00002c14:    f8df03fc    ....    DCD    4175365116
        0x00002c18:    18cb1284    ....    DCD    415961732
        0x00002c1c:    2100601a    .`.!    DCD    553672730
        0x00002c20:    226cf8df    ..l"    DCD    577566943
        0x00002c24:    99006011    .`..    DCD    2566938641
        0x00002c28:    8810f381    ....    DCD    2282812289
        0x00002c2c:    78012201    .".x    DCD    2013340161
        0x00002c30:    011ff011    ....    DCD    18870289
        0x00002c34:    6803408a    .@.h    DCD    1745043594
        0x00002c38:    f01308db    ....    DCD    4027779291
        0x00002c3c:    f8df0304    ....    DCD    4175364868
        0x00002c40:    18cb1260    `...    DCD    415961696
        0x00002c44:    7901601a    .`.y    DCD    2030133274
        0x00002c48:    d50d07c9    ....    DCD    3574400969
        0x00002c4c:    78012201    .".x    DCD    2013340161
        0x00002c50:    011ff011    ....    DCD    18870289
        0x00002c54:    6803408a    .@.h    DCD    1745043594
        0x00002c58:    f01308db    ....    DCD    4027779291
        0x00002c5c:    f8df0304    ....    DCD    4175364868
        0x00002c60:    18cb1244    D...    DCD    415961668
        0x00002c64:    e08e601a    .`..    DCD    3767427098
        0x00002c68:    78012201    .".x    DCD    2013340161
        0x00002c6c:    011ff011    ....    DCD    18870289
        0x00002c70:    6803408a    .@.h    DCD    1745043594
        0x00002c74:    f01308db    ....    DCD    4027779291
        0x00002c78:    f8df0304    ....    DCD    4175364868
        0x00002c7c:    18cb122c    ,...    DCD    415961644
        0x00002c80:    e080601a    .`..    DCD    3766509594
        0x00002c84:    29326801    .h2)    DCD    691169281
        0x00002c88:    f3efd255    U...    DCD    4092580437
        0x00002c8c:    91008110    ....    DCD    2432729360
        0x00002c90:    2173b672    r.s!    DCD    561231474
        0x00002c94:    60114a7e    ~J.`    DCD    1611745918
        0x00002c98:    68012206    .".h    DCD    1744904710
        0x00002c9c:    f0110089    ....    DCD    4027646089
        0x00002ca0:    408a011c    ...@    DCD    1082786076
        0x00002ca4:    085b6803    .h[.    DCD    140208131
        0x00002ca8:    037cf013    ..|.    DCD    58519571
        0x00002cac:    18cb4979    yI..    DCD    415975801
        0x00002cb0:    23076819    .h.#    DCD    587687961
        0x00002cb4:    00a46804    .h..    DCD    10774532
        0x00002cb8:    041cf014    ....    DCD    69005332
        0x00002cbc:    439940a3    .@.C    DCD    1134117027
        0x00002cc0:    6803430a    .C.h    DCD    1745044234
        0x00002cc4:    f013085b    [...    DCD    4027779163
        0x00002cc8:    4972037c    |.rI    DCD    1232208764
        0x00002ccc:    601a18cb    ...`    DCD    1612323019
        0x00002cd0:    68012218    .".h    DCD    1744904728
        0x00002cd4:    f01100c9    ....    DCD    4027646153
        0x00002cd8:    408a0118    ...@    DCD    1082786072
        0x00002cdc:    f0137803    .x..    DCD    4027807747
        0x00002ce0:    496d03fc    ..mI    DCD    1231881212
        0x00002ce4:    681918cb    ...h    DCD    1746475211
        0x00002ce8:    680423ff    .#.h    DCD    1745101823
        0x00002cec:    f01400e4    ....    DCD    4027842788
        0x00002cf0:    40a30418    ...@    DCD    1084425240
        0x00002cf4:    430a4399    .C.C    DCD    1124746137
        0x00002cf8:    f0137803    .x..    DCD    4027807747
        0x00002cfc:    496603fc    ..fI    DCD    1231422460
        0x00002d00:    601a18cb    ...`    DCD    1612323019
        0x00002d04:    f0127802    .x..    DCD    4027742210
        0x00002d08:    496402fc    ..dI    DCD    1231291132
        0x00002d0c:    6812188a    ...h    DCD    1746016394
        0x00002d10:    680321ff    .!.h    DCD    1745035775
        0x00002d14:    f01300db    ....    DCD    4027777243
        0x00002d18:    40990318    ...@    DCD    1083769624
        0x00002d1c:    7803438a    .C.x    DCD    2013479818
        0x00002d20:    03fcf013    ....    DCD    66908179
        0x00002d24:    18cb495d    ]I..    DCD    415975773
        0x00002d28:    2100601a    .`.!    DCD    553672730
        0x00002d2c:    60114a58    XJ.`    DCD    1611745880
        0x00002d30:    f3819900    ....    DCD    4085356800
        0x00002d34:    22018810    ..."    DCD    570525712
        0x00002d38:    f0117801    .x..    DCD    4027676673
        0x00002d3c:    408a011f    ...@    DCD    1082786079
        0x00002d40:    08db6803    .h..    DCD    148596739
        0x00002d44:    0304f013    ....    DCD    50655251
        0x00002d48:    18cb4958    XI..    DCD    415975768
        0x00002d4c:    7901601a    .`.y    DCD    2030133274
        0x00002d50:    d50c07c9    ....    DCD    3574335433
        0x00002d54:    78012201    .".x    DCD    2013340161
        0x00002d58:    011ff011    ....    DCD    18870289
        0x00002d5c:    6803408a    .@.h    DCD    1745043594
        0x00002d60:    f01308db    ....    DCD    4027779291
        0x00002d64:    494f0304    ..OI    DCD    1229914884
        0x00002d68:    601a18cb    ...`    DCD    1612323019
        0x00002d6c:    2201e00b    ..."    DCD    570548235
        0x00002d70:    f0117801    .x..    DCD    4027676673
        0x00002d74:    408a011f    ...@    DCD    1082786079
        0x00002d78:    08db6803    .h..    DCD    148596739
        0x00002d7c:    0304f013    ....    DCD    50655251
        0x00002d80:    18cb4949    II..    DCD    415975753
        0x00002d84:    bc11601a    .`..    DCD    3155255322
        0x00002d88:    00004770    pG..    DCD    18288
        0x00002d8c:    0004b570    p...    DCD    308592
        0x00002d90:    2000000d    ...     DCD    536870925
        0x00002d94:    42ae0006    ...B    DCD    1118699526
        0x00002d98:    eb04d205    ....    DCD    3942961669
        0x00002d9c:    f7ff00c6    ....    DCD    4160684230
        0x00002da0:    1c76fedf    ..v.    DCD    477560543
        0x00002da4:    bd70e7f7    ..p.    DCD    3178293239
        0x00002da8:    eb00b410    ....    DCD    3942691856
        0x00002dac:    791202c1    ...y    DCD    2031223489
        0x00002db0:    d5220792    ..".    DCD    3575777170
        0x00002db4:    02c1eb00    ....    DCD    46263040
        0x00002db8:    07d27912    .y..    DCD    131234066
        0x00002dbc:    f850d50e    ..P.    DCD    4166046990
        0x00002dc0:    08db3031    10..    DCD    148582449
        0x00002dc4:    0304f013    ....    DCD    50655251
        0x00002dc8:    18d34a36    6J..    DCD    416500278
        0x00002dcc:    f8102201    ."..    DCD    4161806849
        0x00002dd0:    f0144031    1@..    DCD    4027858993
        0x00002dd4:    40a2041f    ...@    DCD    1084359711
        0x00002dd8:    e01c601a    .`..    DCD    3759955994
        0x00002ddc:    3031f850    P.10    DCD    808581200
        0x00002de0:    f01308db    ....    DCD    4027779291
        0x00002de4:    4a300304    ..0J    DCD    1244660484
        0x00002de8:    220118d3    ..."    DCD    570497235
        0x00002dec:    4031f810    ..1@    DCD    1077016592
        0x00002df0:    041ff014    ....    DCD    69201940
        0x00002df4:    601a40a2    .@.`    DCD    1612333218
        0x00002df8:    f850e00d    ..P.    DCD    4166049805
        0x00002dfc:    08db3031    10..    DCD    148582449
        0x00002e00:    0304f013    ....    DCD    50655251
        0x00002e04:    18d34a26    &J..    DCD    416500262
        0x00002e08:    f8102201    ."..    DCD    4161806849
        0x00002e0c:    f0144031    1@..    DCD    4027858993
        0x00002e10:    40a2041f    ...@    DCD    1084359711
        0x00002e14:    bc10601a    .`..    DCD    3155189786
        0x00002e18:    b4104770    pG..    DCD    3020965744
        0x00002e1c:    02c1eb00    ....    DCD    46263040
        0x00002e20:    07927912    .y..    DCD    127039762
        0x00002e24:    eb00d522    "...    DCD    3942700322
        0x00002e28:    791202c1    ...y    DCD    2031223489
        0x00002e2c:    d40e07d2    ....    DCD    3557689298
        0x00002e30:    3031f850    P.10    DCD    808581200
        0x00002e34:    f01308db    ....    DCD    4027779291
        0x00002e38:    4a1a0304    ...J    DCD    1243218692
        0x00002e3c:    220118d3    ..."    DCD    570497235
        0x00002e40:    4031f810    ..1@    DCD    1077016592
        0x00002e44:    041ff014    ....    DCD    69201940
        0x00002e48:    601a40a2    .@.`    DCD    1612333218
        0x00002e4c:    f850e01c    ..P.    DCD    4166049820
        0x00002e50:    08db3031    10..    DCD    148582449
        0x00002e54:    0304f013    ....    DCD    50655251
        0x00002e58:    18d34a13    .J..    DCD    416500243
        0x00002e5c:    f8102201    ."..    DCD    4161806849
        0x00002e60:    f0144031    1@..    DCD    4027858993
        0x00002e64:    40a2041f    ...@    DCD    1084359711
        0x00002e68:    e00d601a    .`..    DCD    3758972954
        0x00002e6c:    3031f850    P.10    DCD    808581200
        0x00002e70:    f01308db    ....    DCD    4027779291
        0x00002e74:    4a0d0304    ...J    DCD    1242366724
        0x00002e78:    220118d3    ..."    DCD    570497235
        0x00002e7c:    4031f810    ..1@    DCD    1077016592
        0x00002e80:    041ff014    ....    DCD    69201940
        0x00002e84:    601a40a2    .@.`    DCD    1612333218
        0x00002e88:    4770bc10    ..pG    DCD    1198570512
        0x00002e8c:    00000000    ....    DCD    0
        0x00002e90:    40010060    `..@    DCD    1073807456
        0x00002e94:    40010040    @..@    DCD    1073807424
        0x00002e98:    40010000    ...@    DCD    1073807360
        0x00002e9c:    400100e0    ...@    DCD    1073807584
        0x00002ea0:    400100a8    ...@    DCD    1073807528
        0x00002ea4:    40010090    ...@    DCD    1073807504
        0x00002ea8:    40010098    ...@    DCD    1073807512
        0x00002eac:    400100b4    ...@    DCD    1073807540
        0x00002eb0:    0004b5f8    ....    DCD    308728
        0x00002eb4:    0016000d    ....    DCD    1441805
        0x00002eb8:    00072000    . ..    DCD    466944
        0x00002ebc:    d20e42af    .B..    DCD    3524149935
        0x00002ec0:    40f80030    0..@    DCD    1089994800
        0x00002ec4:    d50407c0    ....    DCD    3573811136
        0x00002ec8:    00200039    9. .    DCD    2097209
        0x00002ecc:    ff6cf7ff    ..l.    DCD    4285331455
        0x00002ed0:    0039e003    ..9.    DCD    3792899
        0x00002ed4:    f7ff0020     ...    DCD    4160684064
        0x00002ed8:    1c7fffa0    ....    DCD    478150560
        0x00002edc:    bdf1e7ee    ....    DCD    3186747374
        0x00002ee0:    f5b0b430    0...    DCD    4121998384
        0x00002ee4:    d1276f00    .o'.    DCD    3509022464
        0x00002ee8:    6300f44f    O..c    DCD    1661006927
        0x00002eec:    5080f44f    O..P    DCD    1350628431
        0x00002ef0:    21402220     "@!    DCD    557851168
        0x00002ef4:    68254c8d    .L%h    DCD    1747274893
        0x00002ef8:    0000ea25    %...    DCD    59941
        0x00002efc:    60202b00    .+ `    DCD    1612720896
        0x00002f00:    80a0f040    @...    DCD    2158030912
        0x00002f04:    1e4020c8    . @.    DCD    507519176
        0x00002f08:    4b88d013    ...K    DCD    1267257363
        0x00002f0c:    420c685c    \h.B    DCD    1108109404
        0x00002f10:    2800d1f9    ...(    DCD    671142393
        0x00002f14:    20c8dd0d    ...     DCD    550034701
        0x00002f18:    f0002a00    .*..    DCD    4026542592
        0x00002f1c:    1e40809c    ..@.    DCD    507543708
        0x00002f20:    4982d007    ...I    DCD    1233309703
        0x00002f24:    4013684b    Kh.@    DCD    1075013707
        0x00002f28:    d1f84293    .B..    DCD    3522708115
        0x00002f2c:    f3002800    .(..    DCD    4076873728
        0x00002f30:    bc308092    ..0.    DCD    3157295250
        0x00002f34:    47702000    . pG    DCD    1198530560
        0x00002f38:    5fc0f5b0    ..._    DCD    1606481328
        0x00002f3c:    f44fd103    ..O.    DCD    4098871555
        0x00002f40:    226053c0    .S`"    DCD    576738240
        0x00002f44:    2801e07d    }..(    DCD    671211645
        0x00002f48:    2301d106    ...#    DCD    587321606
        0x00002f4c:    70fef240    @..p    DCD    1895756352
        0x00002f50:    7280f44f    O..r    DCD    1921053775
        0x00002f54:    e7cd4976    vI..    DCD    3888990582
        0x00002f58:    d1062803    .(..    DCD    3506841603
        0x00002f5c:    f2402303    .#@.    DCD    4064289539
        0x00002f60:    f44f70fc    .pO.    DCD    4098846972
        0x00002f64:    49737240    @rsI    DCD    1232302656
        0x00002f68:    2807e7c4    ...(    DCD    671606724
        0x00002f6c:    2307d107    ...#    DCD    587714823
        0x00002f70:    60fff44f    O..`    DCD    1627386959
        0x00002f74:    62e0f44f    O..b    DCD    1658909775
        0x00002f78:    21fff44f    O..!    DCD    570422351
        0x00002f7c:    280fe7ba    ...(    DCD    672131002
        0x00002f80:    230fd107    ...#    DCD    588239111
        0x00002f84:    60fef44f    O..`    DCD    1627321423
        0x00002f88:    6270f44f    O.pb    DCD    1651569743
        0x00002f8c:    21fef44f    O..!    DCD    570356815
        0x00002f90:    281fe7b0    ...(    DCD    673179568
        0x00002f94:    231fd107    ...#    DCD    589287687
        0x00002f98:    60fcf44f    O..`    DCD    1627190351
        0x00002f9c:    52f8f44f    O..R    DCD    1392047183
        0x00002fa0:    21fcf44f    O..!    DCD    570225743
        0x00002fa4:    283fe7a6    ..?(    DCD    675276710
        0x00002fa8:    233fd107    ..?#    DCD    591384839
        0x00002fac:    60f8f44f    O..`    DCD    1626928207
        0x00002fb0:    527cf44f    O.|R    DCD    1383920719
        0x00002fb4:    21f8f44f    O..!    DCD    569963599
        0x00002fb8:    287fe79c    ...(    DCD    679471004
        0x00002fbc:    237fd107    ...#    DCD    595579143
        0x00002fc0:    60f0f44f    O..`    DCD    1626403919
        0x00002fc4:    42fef44f    O..B    DCD    1124004943
        0x00002fc8:    21f0f44f    O..!    DCD    569439311
        0x00002fcc:    28ffe792    ...(    DCD    687859602
        0x00002fd0:    23ffd107    ...#    DCD    603967751
        0x00002fd4:    60e0f44f    O..`    DCD    1625355343
        0x00002fd8:    427ff44f    O..B    DCD    1115681871
        0x00002fdc:    21e0f44f    O..!    DCD    568390735
        0x00002fe0:    f240e788    ..@.    DCD    4064339848
        0x00002fe4:    429813ff    ...B    DCD    1117262847
        0x00002fe8:    f44fd105    ..O.    DCD    4098871557
        0x00002fec:    4a5260c0    .`RJ    DCD    1246912704
        0x00002ff0:    21c0f44f    O..!    DCD    566293583
        0x00002ff4:    f240e77e    ~.@.    DCD    4064339838
        0x00002ff8:    429833ff    .3.B    DCD    1117271039
        0x00002ffc:    f44fd105    ..O.    DCD    4098871557
        0x00003000:    4a4e6080    .`NJ    DCD    1246650496
        0x00003004:    2180f44f    O..!    DCD    562099279
        0x00003008:    f240e774    t.@.    DCD    4064339828
        0x0000300c:    429873ff    .s.B    DCD    1117287423
        0x00003010:    f1b0d016    ....    DCD    4054896662
        0x00003014:    d1044f20     O..    DCD    3506720544
        0x00003018:    4320f04f    O. C    DCD    1126232143
        0x0000301c:    1220f44f    O. .    DCD    304149583
        0x00003020:    f06fe00f    ..o.    DCD    4033863695
        0x00003024:    42884120     A.B    DCD    1116225824
        0x00003028:    2300d106    ...#    DCD    587256070
        0x0000302c:    4020f04f    O. @    DCD    1075900495
        0x00003030:    f44f2200    ."O.    DCD    4098826752
        0x00003034:    e75d1120     .].    DCD    3881636128
        0x00003038:    42984b41    AK.B    DCD    1117276993
        0x0000303c:    af79f47f    ..y.    DCD    2944005247
        0x00003040:    21004a40    @J.!    DCD    553667136
        0x00003044:    68204c39    9L h    DCD    1746947129
        0x00003048:    20c84303    .C.     DCD    549995267
        0x0000304c:    60232900    .)#`    DCD    1612916992
        0x00003050:    af61f43f    ?.a.    DCD    2942432319
        0x00003054:    bc30e757    W.0.    DCD    3157321559
        0x00003058:    47702001    . pG    DCD    1198530561
        0x0000305c:    6848493a    :IHh    DCD    1749567802
        0x00003060:    0040f3c0    ..@.    DCD    4256704
        0x00003064:    6848b110    ..Hh    DCD    1749594384
        0x00003068:    d40c07c2    ....    DCD    3557558210
        0x0000306c:    f042680a    .hB.    DCD    4030883850
        0x00003070:    600a0202    ...`    DCD    1611268610
        0x00003074:    f0406808    .h@.    DCD    4030752776
        0x00003078:    60080001    ...`    DCD    1611137025
        0x0000307c:    f002684a    Jh..    DCD    4026689610
        0x00003080:    2a030203    ...*    DCD    704840195
        0x00003084:    6848d1fa    ..Hh    DCD    1749602810
        0x00003088:    0003f000    ....    DCD    258048
        0x0000308c:    d1fa2803    .(..    DCD    3522832387
        0x00003090:    f0002042    B ..    DCD    4026540098
        0x00003094:    492cb85d    ].,I    DCD    1227667549
        0x00003098:    f3c06848    Hh..    DCD    4089473096
        0x0000309c:    b1100040    @...    DCD    2970615872
        0x000030a0:    07c26848    Hh..    DCD    130181192
        0x000030a4:    680ad40c    ...h    DCD    1745540108
        0x000030a8:    0202f042    B...    DCD    33747010
        0x000030ac:    6808600a    .`.h    DCD    1745379338
        0x000030b0:    0001f040    @...    DCD    127040
        0x000030b4:    684a6008    .`Jh    DCD    1749704712
        0x000030b8:    0203f002    ....    DCD    33812482
        0x000030bc:    d1fa2a03    .*..    DCD    3522832899
        0x000030c0:    49224770    pG"I    DCD    1226983280
        0x000030c4:    0ff8f8d1    ....    DCD    267974865
        0x000030c8:    0040f3c0    ..@.    DCD    4256704
        0x000030cc:    f8d1b918    ....    DCD    4174493976
        0x000030d0:    07c20ff8    ....    DCD    130158584
        0x000030d4:    680ad51f    ...h    DCD    1745540383
        0x000030d8:    02f0f002    ....    DCD    49344514
        0x000030dc:    bf042a20     *..    DCD    3204721184
        0x000030e0:    0ffcf8d1    ....    DCD    268237009
        0x000030e4:    7f00f5b0    ....    DCD    2130769328
        0x000030e8:    f8d1d106    ....    DCD    4174500102
        0x000030ec:    f0022ff4    ./..    DCD    4026675188
        0x000030f0:    f8c10205    ....    DCD    4173398533
        0x000030f4:    e00b2ff4    ./..    DCD    3758829556
        0x000030f8:    0ff4f8d1    ....    DCD    267712721
        0x000030fc:    0002f020     ...    DCD    192544
        0x00003100:    0ff4f8c1    ....    DCD    267712705
        0x00003104:    0ff4f8d1    ....    DCD    267712721
        0x00003108:    00400840    @.@.    DCD    4196416
        0x0000310c:    0ff4f8c1    ....    DCD    267712705
        0x00003110:    f000200a    . ..    DCD    4026540042
        0x00003114:    4770b81d    ..pG    DCD    1198569501
        0x00003118:    6981480b    .H.i    DCD    1770080267
        0x0000311c:    0106f041    A...    DCD    17231937
        0x00003120:    68026181    .a.h    DCD    1744986497
        0x00003124:    0204f022    "...    DCD    33878050
        0x00003128:    47706002    .`pG    DCD    1198546946
        0x0000312c:    40021010    ...@    DCD    1073877008
        0x00003130:    0007fe00    ....    DCD    523776
        0x00003134:    0007fc00    ....    DCD    523264
        0x00003138:    0001ff00    ....    DCD    130816
        0x0000313c:    0003ff00    ....    DCD    261888
        0x00003140:    a0001fff    ....    DCD    2684362751
        0x00003144:    0007ff00    ....    DCD    524032
        0x00003148:    40021000    ...@    DCD    1073876992
        0x0000314c:    4002000c    ...@    DCD    1073872908
        0x00003150:    1004f8df    ....    DCD    268761311
        0x00003154:    47106b4a    Jk.G    DCD    1192258378
        0x00003158:    1000100c    ....    DCD    268439564
        0x0000315c:    684ab081    ..Jh    DCD    1749725313
        0x00003160:    6809688b    .h.h    DCD    1745447051
        0x00003164:    4203ea42    B..B    DCD    1107552834
        0x00003168:    bf182900    .)..    DCD    3206031616
        0x0000316c:    4200f052    R..B    DCD    1107357778
        0x00003170:    8110f3ef    ....    DCD    2165371887
        0x00003174:    b6729100    ..r.    DCD    3060961536
        0x00003178:    117cf8df    ..|.    DCD    293402847
        0x0000317c:    1100eb01    ....    DCD    285272833
        0x00003180:    0174f8df    ..t.    DCD    24443103
        0x00003184:    f8d0600a    .`..    DCD    4174405642
        0x00003188:    f00110f4    ....    DCD    4026601716
        0x0000318c:    2901010f    ...)    DCD    687931663
        0x00003190:    2902bf18    ...)    DCD    688045848
        0x00003194:    6801d036    6..h    DCD    1744949302
        0x00003198:    0244f3c1    ..D.    DCD    38073281
        0x0000319c:    2a041e52    R..*    DCD    704912978
        0x000031a0:    f3c1bf82    ....    DCD    4089560962
        0x000031a4:    1e494144    DAI.    DCD    508117316
        0x000031a8:    d92b2904    .)+.    DCD    3643484420
        0x000031ac:    f3c16901    .i..    DCD    4089538817
        0x000031b0:    1e520244    D.R.    DCD    508691012
        0x000031b4:    bf822a04    .*..    DCD    3212978692
        0x000031b8:    4144f3c1    ..DA    DCD    1095037889
        0x000031bc:    29041e49    I..)    DCD    688135753
        0x000031c0:    6a01d920     ..j    DCD    1778506016
        0x000031c4:    0244f3c1    ..D.    DCD    38073281
        0x000031c8:    2a041e52    R..*    DCD    704912978
        0x000031cc:    f3c1bf82    ....    DCD    4089560962
        0x000031d0:    1e494144    DAI.    DCD    508117316
        0x000031d4:    d9152904    .)..    DCD    3642042628
        0x000031d8:    f3c06b00    .k..    DCD    4089473792
        0x000031dc:    1e490144    D.I.    DCD    508100932
        0x000031e0:    bf822904    .)..    DCD    3212978436
        0x000031e4:    4044f3c0    ..D@    DCD    1078260672
        0x000031e8:    28041e40    @..(    DCD    671358528
        0x000031ec:    f8dfd90a    ....    DCD    4175419658
        0x000031f0:    6801010c    ...h    DCD    1744896268
        0x000031f4:    0104f041    A...    DCD    17100865
        0x000031f8:    98006001    .`..    DCD    2550161409
        0x000031fc:    8810f380    ....    DCD    2282812288
        0x00003200:    4770b001    ..pG    DCD    1198567425
        0x00003204:    00f4f8df    ....    DCD    16054495
        0x00003208:    f0226802    .h".    DCD    4028786690
        0x0000320c:    60020204    ...`    DCD    1610744324
        0x00003210:    f3809800    ....    DCD    4085291008
        0x00003214:    b0018810    ....    DCD    2952890384
        0x00003218:    00004770    pG..    DCD    18288
        0x0000321c:    b0814a36    6J..    DCD    2961263158
        0x00003220:    1200eb12    ....    DCD    302050066
        0x00003224:    8010f3ef    ....    DCD    2148594671
        0x00003228:    b6729000    ..r.    DCD    3060961280
        0x0000322c:    f0016813    .h..    DCD    4026624019
        0x00003230:    43832008    . .C    DCD    1132666888
        0x00003234:    1101f001    ....    DCD    285339649
        0x00003238:    60114319    .C.`    DCD    1611744025
        0x0000323c:    f3809800    ....    DCD    4085291008
        0x00003240:    b0018810    ....    DCD    2952890384
        0x00003244:    00004770    pG..    DCD    18288
        0x00003248:    b0814a2b    +J..    DCD    2961263147
        0x0000324c:    1200eb12    ....    DCD    302050066
        0x00003250:    8010f3ef    ....    DCD    2148594671
        0x00003254:    b6729000    ..r.    DCD    3060961280
        0x00003258:    f0016810    .h..    DCD    4026624016
        0x0000325c:    43012108    .!.C    DCD    1124147464
        0x00003260:    98006011    .`..    DCD    2550161425
        0x00003264:    8810f380    ....    DCD    2282812288
        0x00003268:    4770b001    ..pG    DCD    1198567425
        0x0000326c:    b081b4f0    ....    DCD    2961290480
        0x00003270:    4e254d24    $M%N    DCD    1311067428
        0x00003274:    1500eb05    ....    DCD    352381701
        0x00003278:    8410f3ef    ....    DCD    2215703535
        0x0000327c:    1600eb16    ....    DCD    369158934
        0x00003280:    b6729400    ..r.    DCD    3060962304
        0x00003284:    eb044c1c    .L..    DCD    3942927388
        0x00003288:    4c1d1000    ...L    DCD    1276973056
        0x0000328c:    42a16800    .h.B    DCD    1117874176
        0x00003290:    0c00bf08    ....    DCD    201375496
        0x00003294:    70e0f400    ...p    DCD    1893790720
        0x00003298:    bf172880    .(..    DCD    3205965952
        0x0000329c:    1ad328c0    .(..    DCD    450046144
        0x000032a0:    22004613    .F."    DCD    570443283
        0x000032a4:    77fff64f    O..w    DCD    2013263439
        0x000032a8:    4002eac3    ...@    DCD    1073932995
        0x000032ac:    bf0842b9    .B..    DCD    3204989625
        0x000032b0:    d0096028    (`..    DCD    3490275368
        0x000032b4:    bf0842a1    .B..    DCD    3204989601
        0x000032b8:    d0056030    0`..    DCD    3490013232
        0x000032bc:    04120c12    ....    DCD    68291602
        0x000032c0:    ea426028    (`B.    DCD    3930218536
        0x000032c4:    60324213    .B2`    DCD    1613906451
        0x000032c8:    f3809800    ....    DCD    4085291008
        0x000032cc:    b0018810    ....    DCD    2952890384
        0x000032d0:    4770bcf0    ..pG    DCD    1198570736
        0x000032d4:    f3efb081    ....    DCD    4092571777
        0x000032d8:    91008110    ....    DCD    2432729360
        0x000032dc:    490bb672    r..I    DCD    1225504370
        0x000032e0:    4310680a    .h.C    DCD    1125148682
        0x000032e4:    98006008    .`..    DCD    2550161416
        0x000032e8:    8810f380    ....    DCD    2282812288
        0x000032ec:    4770b001    ..pG    DCD    1198567425
        0x000032f0:    60084907    .I.`    DCD    1611155719
        0x000032f4:    00004770    pG..    DCD    18288
        0x000032f8:    4000800c    ...@    DCD    1073774604
        0x000032fc:    40021020     ..@    DCD    1073877024
        0x00003300:    ffff0000    ....    DCD    4294901760
        0x00003304:    40008004    ...@    DCD    1073774596
        0x00003308:    40008008    ...@    DCD    1073774600
        0x0000330c:    40008200    ...@    DCD    1073775104
        0x00003310:    40008208    ...@    DCD    1073775112
        0x00003314:    b081b470    p...    DCD    2961290352
        0x00003318:    8310f3ef    ....    DCD    2198926319
        0x0000331c:    b6729300    ..r.    DCD    3060962048
        0x00003320:    681c4b51    QK.h    DCD    1746684753
        0x00003324:    0796681d    .h..    DCD    127297565
        0x00003328:    0483f3c4    ....    DCD    75756484
        0x0000332c:    3543f3c5    ..C5    DCD    893645765
        0x00003330:    494ed503    ..NI    DCD    1229903107
        0x00003334:    68496808    .hIh    DCD    1749641224
        0x00003338:    07d6e001    ....    DCD    131522561
        0x0000333c:    06d6d513    ....    DCD    114742547
        0x00003340:    681ed507    ...h    DCD    1746851079
        0x00003344:    f0000080    ....    DCD    4026531968
        0x00003348:    f026003c    <.&.    DCD    4029022268
        0x0000334c:    4330063c    <.0C    DCD    1127220796
        0x00003350:    06906018    .`..    DCD    110125080
        0x00003354:    6818d507    ...h    DCD    1746457863
        0x00003358:    f4010349    I...    DCD    4093707081
        0x0000335c:    f42031f0    .1 .    DCD    4095750640
        0x00003360:    430130f0    .0.C    DCD    1124151536
        0x00003364:    07516019    .`Q.    DCD    122773529
        0x00003368:    06d0d507    ....    DCD    114349319
        0x0000336c:    483fbf44    D.?H    DCD    1212137284
        0x00003370:    06906004    .`..    DCD    110125060
        0x00003374:    483dbf44    D.=H    DCD    1212006212
        0x00003378:    98006045    E`..    DCD    2550161477
        0x0000337c:    8810f380    ....    DCD    2282812288
        0x00003380:    bc70b001    ..p.    DCD    3161501697
        0x00003384:    00004770    pG..    DCD    18288
        0x00003388:    b082b570    p...    DCD    2961356144
        0x0000338c:    f0004604    .F..    DCD    4026549764
        0x00003390:    2c01f8a1    ...,    DCD    738326689
        0x00003394:    d15a4605    .FZ.    DCD    3512354309
        0x00003398:    f8d04835    5H..    DCD    4174399541
        0x0000339c:    07ca1244    D...    DCD    130683460
        0x000033a0:    4934d455    U.4I    DCD    1228198997
        0x000033a4:    680a4e34    4N.h    DCD    1745505844
        0x000033a8:    0204f042    B...    DCD    33878082
        0x000033ac:    6801600a    .`.h    DCD    1744920586
        0x000033b0:    f0016872    rh..    DCD    4026624114
        0x000033b4:    292001f0    .. )    DCD    689963504
        0x000033b8:    2102bf0c    ...!    DCD    553828108
        0x000033bc:    1e522100    .!R.    DCD    508698880
        0x000033c0:    f8d02a04    .*..    DCD    4174391812
        0x000033c4:    f8d02ff4    ./..    DCD    4174393332
        0x000033c8:    bf380ffc    ..8.    DCD    3208122364
        0x000033cc:    0104f041    A...    DCD    17100865
        0x000033d0:    0f03f012    ....    DCD    251916306
        0x000033d4:    f041bf18    ..A.    DCD    4030840600
        0x000033d8:    f2400101    ..@.    DCD    4064280833
        0x000033dc:    421052ff    .R.B    DCD    1108366079
        0x000033e0:    f041bf08    ..A.    DCD    4030840584
        0x000033e4:    290f0108    ...)    DCD    688849160
        0x000033e8:    6870d112    ..ph    DCD    1752224018
        0x000033ec:    90001e40    @...    DCD    2415926848
        0x000033f0:    31fff04f    O..1    DCD    838856783
        0x000033f4:    f7ff9800    ....    DCD    4160722944
        0x000033f8:    9800ff27    '...    DCD    2550202151
        0x000033fc:    f04f2300    .#O.    DCD    4031718144
        0x00003400:    f04f1201    ..O.    DCD    4031713793
        0x00003404:    f7ff31ff    .1..    DCD    4160696831
        0x00003408:    f7ffff31    1...    DCD    4160749361
        0x0000340c:    e000fe5a    Z...    DCD    3758161498
        0x00003410:    bf302400    .$0.    DCD    3207603200
        0x00003414:    2231b1c4    ..1"    DCD    573682116
        0x00003418:    20072107    .!.     DCD    537338119
        0x0000341c:    ff7af7ff    ..z.    DCD    4286248959
        0x00003420:    f7ff201c    . ..    DCD    4160692252
        0x00003424:    f7fffe95    ....    DCD    4160749205
        0x00003428:    6870fe36    6.ph    DCD    1752235574
        0x0000342c:    90001e40    @...    DCD    2415926848
        0x00003430:    70312100    .!1p    DCD    1882267904
        0x00003434:    204c60b1    .`L     DCD    541876401
        0x00003438:    fe8af7ff    ....    DCD    4270520319
        0x0000343c:    f04f9800    ..O.    DCD    4031748096
        0x00003440:    f7ff31ff    .1..    DCD    4160696831
        0x00003444:    e008feeb    ....    DCD    3758685931
        0x00003448:    70302001    . 0p    DCD    1882202113
        0x0000344c:    4909e005    ...I    DCD    1225383941
        0x00003450:    f0306808    .h0.    DCD    4029704200
        0x00003454:    60080004    ...`    DCD    1611137028
        0x00003458:    4628bf30    0.(F    DCD    1177075504
        0x0000345c:    e8bdb002    ....    DCD    3904745474
        0x00003460:    f0004070    p@..    DCD    4026548336
        0x00003464:    0000b83d    =...    DCD    47165
        0x00003468:    40020068    h..@    DCD    1073873000
        0x0000346c:    10001194    ....    DCD    268439956
        0x00003470:    4002000c    ...@    DCD    1073872908
        0x00003474:    e000ed10    ....    DCD    3758157072
        0x00003478:    10001184    ....    DCD    268439940
        0x0000347c:    d3072810    .(..    DCD    3540461584
        0x00003480:    21013810    .8.!    DCD    553728016
        0x00003484:    001ff000    ....    DCD    2093056
        0x00003488:    40814a0e    .J.@    DCD    1082214926
        0x0000348c:    47706011    .`pG    DCD    1198546961
        0x00003490:    d00f2804    .(..    DCD    3490654212
        0x00003494:    2806d315    ...(    DCD    671535893
        0x00003498:    d212d006    ....    DCD    3524448262
        0x0000349c:    f8d04809    .H..    DCD    4174399497
        0x000034a0:    f4411c24    $.A.    DCD    4097907748
        0x000034a4:    e00a3100    .1..    DCD    3758764288
        0x000034a8:    f8d04806    .H..    DCD    4174399494
        0x000034ac:    f4411c24    $.A.    DCD    4097907748
        0x000034b0:    e0042180    .!..    DCD    3758367104
        0x000034b4:    f8d04803    .H..    DCD    4174399491
        0x000034b8:    f4411c24    $.A.    DCD    4097907748
        0x000034bc:    f8c03180    .1..    DCD    4173345152
        0x000034c0:    47701c24    $.pG    DCD    1198529572
        0x000034c4:    e000e100    ....    DCD    3758153984
        0x000034c8:    8010f3ef    ....    DCD    2148594671
        0x000034cc:    4770b662    b.pG    DCD    1198569058
        0x000034d0:    00004770    pG..    DCD    18288
        0x000034d4:    8010f3ef    ....    DCD    2148594671
        0x000034d8:    4770b672    r.pG    DCD    1198569074
        0x000034dc:    00004770    pG..    DCD    18288
        0x000034e0:    8810f380    ....    DCD    2282812288
        0x000034e4:    47704770    pGpG    DCD    1198540656
        0x000034e8:    2002b510    ...     DCD    537048336
        0x000034ec:    f8aff000    ....    DCD    4172279808
        0x000034f0:    71fff64f    O..q    DCD    1912600143
        0x000034f4:    f7ff2000    . ..    DCD    4160692224
        0x000034f8:    493bfea7    ..;I    DCD    1228668583
        0x000034fc:    f7ff2000    . ..    DCD    4160692224
        0x00003500:    2008fe2d    -..     DCD    537460269
        0x00003504:    00230004    ..#.    DCD    2293764
        0x00003508:    0022085b    [.".    DCD    2230363
        0x0000350c:    71fff64f    O..q    DCD    1912600143
        0x00003510:    f7ff2000    . ..    DCD    4160692224
        0x00003514:    2001feab    ...     DCD    537001643
        0x00003518:    feeaf7ff    ....    DCD    4276811775
        0x0000351c:    b580bd10    ....    DCD    3045113104
        0x00003520:    f7ff2001    . ..    DCD    4160692225
        0x00003524:    4831fee5    ..1H    DCD    1211236069
        0x00003528:    1c406800    .h@.    DCD    473982976
        0x0000352c:    6008492f    /I.`    DCD    1611155759
        0x00003530:    d3022820     (..    DCD    3540133920
        0x00003534:    492d2000    . -I    DCD    1227694080
        0x00003538:    bd016008    .`..    DCD    3170983944
        0x0000353c:    2000b580    ...     DCD    536917376
        0x00003540:    f866f000    ..f.    DCD    4167495680
        0x00003544:    f000482a    *H..    DCD    4026550314
        0x00003548:    f000f8db    ....    DCD    4026595547
        0x0000354c:    4829f937    7.)H    DCD    1210710327
        0x00003550:    fe72f7fe    ..r.    DCD    4268947454
        0x00003554:    8010f3ef    ....    DCD    2148594671
        0x00003558:    b6729000    ..r.    DCD    3060961280
        0x0000355c:    49262073    s &I    DCD    1227235443
        0x00003560:    48266008    .`&H    DCD    1210474504
        0x00003564:    f0306800    .h0.    DCD    4029704192
        0x00003568:    49240070    p.$I    DCD    1227096176
        0x0000356c:    48246008    .`$H    DCD    1210343432
        0x00003570:    f4306800    .h0.    DCD    4096813056
        0x00003574:    f450407f    .@P.    DCD    4098900095
        0x00003578:    49215080    .P!I    DCD    1226920064
        0x0000357c:    48216008    .`!H    DCD    1210146824
        0x00003580:    f4306800    .h0.    DCD    4096813056
        0x00003584:    491f407f    .@.I    DCD    1226784895
        0x00003588:    20006008    .`.     DCD    536895496
        0x0000358c:    6008491a    .I.`    DCD    1611155738
        0x00003590:    f3809800    ....    DCD    4085291008
        0x00003594:    21058810    ...!    DCD    554010640
        0x00003598:    f7ff481b    .H..    DCD    4160702491
        0x0000359c:    f000fbf7    ....    DCD    4026596343
        0x000035a0:    f000f996    ....    DCD    4026595734
        0x000035a4:    f7fff91f    ....    DCD    4160747807
        0x000035a8:    4818fa93    ...H    DCD    1209596563
        0x000035ac:    fa7df7ff    ..}.    DCD    4202559487
        0x000035b0:    ff9af7ff    ....    DCD    4288346111
        0x000035b4:    f7ff2001    . ..    DCD    4160692225
        0x000035b8:    201dfe8d    ...     DCD    538836621
        0x000035bc:    ff5ef7ff    ..^.    DCD    4284413951
        0x000035c0:    ff82f7ff    ....    DCD    4286773247
        0x000035c4:    71fff64f    O..q    DCD    1912600143
        0x000035c8:    f7ff2000    . ..    DCD    4160692224
        0x000035cc:    f000fe27    '...    DCD    4026596903
        0x000035d0:    2001f937    7..     DCD    537000247
        0x000035d4:    fed8f7ff    ....    DCD    4275632127
        0x000035d8:    68024804    .H.h    DCD    1744979972
        0x000035dc:    480a2105    .!.H    DCD    1208623365
        0x000035e0:    fc66f7ff    ..f.    DCD    4234606591
        0x000035e4:    0000e7f5    ....    DCD    59381
        0x000035e8:    10001000    ....    DCD    268439552
        0x000035ec:    100011a0    ....    DCD    268439968
        0x000035f0:    00009be8    ....    DCD    39912
        0x000035f4:    00009739    9...    DCD    38713
        0x000035f8:    40010060    `..@    DCD    1073807456
        0x000035fc:    40010054    T..@    DCD    1073807444
        0x00003600:    40010028    (..@    DCD    1073807400
        0x00003604:    40010108    ...@    DCD    1073807624
        0x00003608:    1000105c    \...    DCD    268439644
        0x0000360c:    00009bbc    ....    DCD    39868
        0x00003610:    0004b510    ....    DCD    308496
        0x00003614:    f20fd006    ....    DCD    4061122566
        0x00003618:    f20f02b0    ....    DCD    4061070000
        0x0000361c:    2150005c    \.P!    DCD    558891100
        0x00003620:    f9aff000    ....    DCD    4189057024
        0x00003624:    2147480f    .HG!    DCD    558319631
        0x00003628:    60446001    .`D`    DCD    1615093761
        0x0000362c:    60012100    .!.`    DCD    1610686720
        0x00003630:    480dbd10    ...H    DCD    1208859920
        0x00003634:    f0106800    .h..    DCD    4027607040
        0x00003638:    d0040001    ....    DCD    3489923073
        0x0000363c:    d0042801    .(..    DCD    3489933313
        0x00003640:    30fff04f    O..0    DCD    822079567
        0x00003644:    48094770    pG.H    DCD    1208567664
        0x00003648:    48094770    pG.H    DCD    1208567664
        0x0000364c:    49094770    pG.I    DCD    1225344880
        0x00003650:    ea22680a    .h".    DCD    3928123402
        0x00003654:    60080000    ...`    DCD    1611137024
        0x00003658:    49064770    pG.I    DCD    1225148272
        0x0000365c:    4310680a    .h.C    DCD    1125148682
        0x00003660:    47706008    .`pG    DCD    1198546952
        0x00003664:    40004014    .@.@    DCD    1073758228
        0x00003668:    40004018    .@.@    DCD    1073758232
        0x0000366c:    02dc6c00    .l..    DCD    48000000
        0x00003670:    016e3600    .6n.    DCD    24000000
        0x00003674:    4000400c    .@.@    DCD    1073758220
        0x00003678:    6a5c3a43    C:\j    DCD    1784429123
        0x0000367c:    615c7376    vs\a    DCD    1633448822
        0x00003680:    7169626d    mbiq    DCD    1902731885
        0x00003684:    726f775c    \wor    DCD    1919907676
        0x00003688:    65745c6b    k\te    DCD    1702124651
        0x0000368c:    6e697473    stin    DCD    1852404851
        0x00003690:    65525c67    g\Re    DCD    1699896423
        0x00003694:    2e312d6c    l-1.    DCD    774974828
        0x00003698:    5c392e32    2.9\    DCD    1547251250
        0x0000369c:    69626d41    Ambi    DCD    1768058177
        0x000036a0:    69755371    qSui    DCD    1769296753
        0x000036a4:    6d5c6574    te\m    DCD    1834771828
        0x000036a8:    615c7563    cu\a    DCD    1633449315
        0x000036ac:    6c6c6f70    poll    DCD    1819045744
        0x000036b0:    685c326f    o2\h    DCD    1750872687
        0x000036b4:    615c6c61    al\a    DCD    1633447009
        0x000036b8:    61685f6d    m_ha    DCD    1634230125
        0x000036bc:    6c635f6c    l_cl    DCD    1818451820
        0x000036c0:    6e65676b    kgen    DCD    1852139371
        0x000036c4:    0000632e    .c..    DCD    25390
        0x000036c8:    685f6d61    am_h    DCD    1751084385
        0x000036cc:    635f6c61    al_c    DCD    1667198049
        0x000036d0:    65676b6c    lkge    DCD    1701276524
        0x000036d4:    79735f6e    n_sy    DCD    2037604206
        0x000036d8:    6b6c6373    sclk    DCD    1802265459
        0x000036dc:    6c65735f    _sel    DCD    1818587999
        0x000036e0:    28746365    ect(    DCD    678716261
        0x000036e4:    69203a29    ): i    DCD    1763719721
        0x000036e8:    6c61766e    nval    DCD    1818326638
        0x000036ec:    63206469    id c    DCD    1663067241
        0x000036f0:    6b636f6c    lock    DCD    1801678700
        0x000036f4:    74657320     set    DCD    1952805664
        0x000036f8:    676e6974    ting    DCD    1735289204
        0x000036fc:    0000002e    ....    DCD    46
        0x00003700:    4605b530    0..F    DCD    1174779184
        0x00003704:    78acb081    ...x    DCD    2024583297
        0x00003708:    00407868    hx@.    DCD    4225128
        0x0000370c:    086400a1    ..d.    DCD    140771489
        0x00003710:    0002f000    ....    DCD    192512
        0x00003714:    0104f001    ....    DCD    17100801
        0x00003718:    430800e4    ...C    DCD    1124597988
        0x0000371c:    0408f004    ....    DCD    67694596
        0x00003720:    78e84304    .C.x    DCD    2028487428
        0x00003724:    79284304    .C(y    DCD    2032681732
        0x00003728:    f00001c0    ....    DCD    4026532288
        0x0000372c:    43040080    ...C    DCD    1124335744
        0x00003730:    028079a8    .y..    DCD    41974184
        0x00003734:    6080f400    ...`    DCD    1619063808
        0x00003738:    79e84304    .C.y    DCD    2045264644
        0x0000373c:    f40002c0    ....    DCD    4093641408
        0x00003740:    43046000    .`.C    DCD    1124360192
        0x00003744:    03007a28    (z..    DCD    50362920
        0x00003748:    4070f400    ..p@    DCD    1081144320
        0x0000374c:    7a684304    .Chz    DCD    2053653252
        0x00003750:    f4000400    ....    DCD    4093641728
        0x00003754:    43042070    p .C    DCD    1124343920
        0x00003758:    05007aa8    .z..    DCD    83917480
        0x0000375c:    1080f400    ....    DCD    276886528
        0x00003760:    7ae84304    .C.z    DCD    2062041860
        0x00003764:    f0000600    ....    DCD    4026533376
        0x00003768:    43047080    .p.C    DCD    1124364416
        0x0000376c:    4020f04f    O. @    DCD    1075900495
        0x00003770:    fbb6f7ff    ....    DCD    4223072255
        0x00003774:    f0444910    .ID.    DCD    4031006992
        0x00003778:    600c0401    ...`    DCD    1611400193
        0x0000377c:    688a2032    2 .h    DCD    1753882674
        0x00003780:    d4010753    S...    DCD    3556837203
        0x00003784:    d1fa1e40    @...    DCD    3522829888
        0x00003788:    f0406888    .h@.    DCD    4030752904
        0x0000378c:    60880001    ...`    DCD    1619525633
        0x00003790:    688a2032    2 .h    DCD    1753882674
        0x00003794:    d4010753    S...    DCD    3556837203
        0x00003798:    d1fa1e40    @...    DCD    3522829888
        0x0000379c:    02027968    hy..    DCD    33716584
        0x000037a0:    f4020840    @...    DCD    4093773888
        0x000037a4:    02407280    .r@.    DCD    37778048
        0x000037a8:    f4004314    .C..    DCD    4093657876
        0x000037ac:    43047000    .p.C    DCD    1124364288
        0x000037b0:    b001600c    .`..    DCD    2952880140
        0x000037b4:    0000bd30    0...    DCD    48432
        0x000037b8:    40018000    ...@    DCD    1073840128
        0x000037bc:    b081b500    ....    DCD    2961290496
        0x000037c0:    fc4cf7ff    ..L.    DCD    4232902655
        0x000037c4:    fca8f7ff    ....    DCD    4238931967
        0x000037c8:    f8dcf000    ....    DCD    4175228928
        0x000037cc:    f0002001    . ..    DCD    4026540033
        0x000037d0:    2001f8df    ...     DCD    537000159
        0x000037d4:    ff41f7ff    ..A.    DCD    4282513407
        0x000037d8:    f85db001    ..].    DCD    4166889473
        0x000037dc:    f000eb04    ....    DCD    4026592004
        0x000037e0:    0000b8e4    ....    DCD    47332
        0x000037e4:    6801482d    -H.h    DCD    1744914477
        0x000037e8:    d50007ca    ....    DCD    3573549002
        0x000037ec:    b5004770    pG..    DCD    3036694384
        0x000037f0:    482c492b    +I,H    DCD    1210861867
        0x000037f4:    6008b087    ...`    DCD    1611182215
        0x000037f8:    492ba801    ..+I    DCD    1227597825
        0x000037fc:    f0009101    ....    DCD    4026568961
        0x00003800:    f3eff8df    ....    DCD    4092590303
        0x00003804:    90008010    ....    DCD    2415951888
        0x00003808:    4828b672    r.(H    DCD    1210627698
        0x0000380c:    63812173    s!.c    DCD    1669407091
        0x00003810:    f0216ac1    .j!.    DCD    4028721857
        0x00003814:    62c10170    p..b    DCD    1656815984
        0x00003818:    f4226802    .h".    DCD    4095895554
        0x0000381c:    f442427f    .BB.    DCD    4097983103
        0x00003820:    60025280    .R.`    DCD    1610764928
        0x00003824:    f8d02200    ."..    DCD    4174389760
        0x00003828:    f42110e0    ..!.    DCD    4095807712
        0x0000382c:    f8c0417f    .A..    DCD    4173349247
        0x00003830:    638210e0    ...c    DCD    1669468384
        0x00003834:    f3809800    ....    DCD    4085291008
        0x00003838:    b0078810    ....    DCD    2953283600
        0x0000383c:    0000bd00    ....    DCD    48384
        0x00003840:    4816b500    ...H    DCD    1209447680
        0x00003844:    6801b081    ...h    DCD    1744941185
        0x00003848:    d42407ca    ..$.    DCD    3559131082
        0x0000384c:    f858f000    ..X.    DCD    4166578176
        0x00003850:    8010f3ef    ....    DCD    2148594671
        0x00003854:    b6729000    ..r.    DCD    3060961280
        0x00003858:    21734814    .Hs!    DCD    561203220
        0x0000385c:    22006381    .c."    DCD    570450817
        0x00003860:    f0216ac1    .j!.    DCD    4028721857
        0x00003864:    f0410170    p.A.    DCD    4030792048
        0x00003868:    62c10120     ..b    DCD    1656815904
        0x0000386c:    f4216801    .h!.    DCD    4095830017
        0x00003870:    f441417f    .AA.    DCD    4097917311
        0x00003874:    600151c0    .Q.`    DCD    1610699200
        0x00003878:    10e0f8d0    ....    DCD    283179216
        0x0000387c:    417ff421    !..A    DCD    1098904609
        0x00003880:    10e0f8c0    ....    DCD    283179200
        0x00003884:    98006382    .c..    DCD    2550162306
        0x00003888:    8810f380    ....    DCD    2282812288
        0x0000388c:    f85db001    ..].    DCD    4166889473
        0x00003890:    f000eb04    ....    DCD    4026592004
        0x00003894:    b001b8d2    ....    DCD    2952902866
        0x00003898:    0000bd00    ....    DCD    48384
        0x0000389c:    100011a4    ....    DCD    268439972
        0x000038a0:    e0000e80    ....    DCD    3758100096
        0x000038a4:    00150511    ....    DCD    1377553
        0x000038a8:    000f4240    @B..    DCD    1000000
        0x000038ac:    40010028    (..@    DCD    1073807400
        0x000038b0:    b848f000    ..H.    DCD    3091787776
        0x000038b4:    4604b510    ...F    DCD    1174713616
        0x000038b8:    febbf7ff    ....    DCD    4273731583
        0x000038bc:    fba04a1a    .J..    DCD    4221585946
        0x000038c0:    0d482102    .!H.    DCD    222830850
        0x000038c4:    e8bd4360    `C..    DCD    3904717664
        0x000038c8:    f7ff4010    .@..    DCD    4160700432
        0x000038cc:    4817bc41    A..H    DCD    1209515073
        0x000038d0:    07ca6801    .h..    DCD    130705409
        0x000038d4:    4816d413    ...H    DCD    1209455635
        0x000038d8:    f0416801    .hA.    DCD    4030818305
        0x000038dc:    60017180    .q.`    DCD    1610707328
        0x000038e0:    01d16802    .h..    DCD    30500866
        0x000038e4:    4813d5fc    ...H    DCD    1209259516
        0x000038e8:    f8c04913    .I..    DCD    4173351187
        0x000038ec:    210f11b0    ...!    DCD    554635696
        0x000038f0:    f04f6401    .dO.    DCD    4031734785
        0x000038f4:    600131ff    .1.`    DCD    1610691071
        0x000038f8:    f8c04910    .I..    DCD    4173351184
        0x000038fc:    47701080    ..pG    DCD    1198526592
        0x00003900:    b081b500    ....    DCD    2961290496
        0x00003904:    6801480e    .H.h    DCD    1744914446
        0x00003908:    d4fc020a    ....    DCD    3573285386
        0x0000390c:    fe91f7ff    ....    DCD    4270979071
        0x00003910:    fba04b05    .K..    DCD    4221586181
        0x00003914:    b0013203    .2..    DCD    2952868355
        0x00003918:    21320d50    P.2!    DCD    556928336
        0x0000391c:    eb04f85d    ]...    DCD    3942971485
        0x00003920:    f000fb11    ....    DCD    4026596113
        0x00003924:    bc14f7ff    ....    DCD    3155490815
        0x00003928:    b2f4fc08    ....    DCD    3002399752
        0x0000392c:    100011a4    ....    DCD    268439972
        0x00003930:    e000edfc    ....    DCD    3758157308
        0x00003934:    e0000e00    ....    DCD    3758099968
        0x00003938:    c5acce55    U...    DCD    3316436565
        0x0000393c:    00150511    ....    DCD    1377553
        0x00003940:    e0000e80    ....    DCD    3758100096
        0x00003944:    22007801    .x."    DCD    570456065
        0x00003948:    1c52b1d1    ..R.    DCD    475181521
        0x0000394c:    b1535c83    .\S.    DCD    2975030403
        0x00003950:    5c811c52    R..\    DCD    1551965266
        0x00003954:    1c52b139    9.R.    DCD    475181369
        0x00003958:    2b005c83    .\.+    DCD    721443971
        0x0000395c:    1c52d003    ..R.    DCD    475189251
        0x00003960:    29005c81    .\.)    DCD    687889537
        0x00003964:    b15ad1f1    ..Z.    DCD    2975519217
        0x00003968:    4360f04f    O.`C    DCD    1130426447
        0x0000396c:    c000f890    ....    DCD    3221289104
        0x00003970:    29006819    .h.)    DCD    687892505
        0x00003974:    1c40d0fc    ..@.    DCD    474009852
        0x00003978:    f8831e52    R...    DCD    4169342546
        0x0000397c:    d1f5c000    ....    DCD    3522543616
        0x00003980:    e7fe4770    pG..    DCD    3892201328
        0x00003984:    20374901    .I7     DCD    540494081
        0x00003988:    47706008    .`pG    DCD    1198546952
        0x0000398c:    4000c008    ...@    DCD    1073790984
        0x00003990:    1024f8df    ..$.    DCD    270858463
        0x00003994:    6808b120     ..h    DCD    1745400096
        0x00003998:    0080f040    @...    DCD    8450112
        0x0000399c:    47706008    .`pG    DCD    1198546952
        0x000039a0:    f022680a    .h".    DCD    4028786698
        0x000039a4:    600a0280    ...`    DCD    1611268736
        0x000039a8:    f8df4770    pG..    DCD    4175382384
        0x000039ac:    68010010    ...h    DCD    1744896016
        0x000039b0:    0110f041    A...    DCD    17887297
        0x000039b4:    47706001    .`pG    DCD    1198546945
        0x000039b8:    4000400c    .@.@    DCD    1073758220
        0x000039bc:    40004050    P@.@    DCD    1073758288
        0x000039c0:    b081b530    0...    DCD    2961290544
        0x000039c4:    4d206804    .h M    DCD    1293969412
        0x000039c8:    f8c52100    .!..    DCD    4173668608
        0x000039cc:    b1fc1300    ....    DCD    2986087168
        0x000039d0:    60282001    . (`    DCD    1613242369
        0x000039d4:    4061f5a4    ..a@    DCD    1080161700
        0x000039d8:    4288491c    .I.B    DCD    1116227868
        0x000039dc:    4c1cbf28    (..L    DCD    1276952360
        0x000039e0:    fe27f7ff    ..'.    DCD    4264032255
        0x000039e4:    0f01f110    ....    DCD    251785488
        0x000039e8:    08c0d005    ....    DCD    146853893
        0x000039ec:    f0f4fbb0    ....    DCD    4042587056
        0x000039f0:    b2801e40    @...    DCD    2994740800
        0x000039f4:    2005e000    ...     DCD    537255936
        0x000039f8:    200260e8    .`.     DCD    537026792
        0x000039fc:    00ecf8c5    ....    DCD    15530181
        0x00003a00:    f8c52000    . ..    DCD    4173668352
        0x00003a04:    f2400efc    ..@.    DCD    4064284412
        0x00003a08:    490e2001    . .I    DCD    1225662465
        0x00003a0c:    e00e6008    .`..    DCD    3759038472
        0x00003a10:    60e96901    .i.`    DCD    1625909505
        0x00003a14:    68812201    .".h    DCD    1753293313
        0x00003a18:    10ecf8c5    ....    DCD    283965637
        0x00003a1c:    1e5968c3    .hY.    DCD    509176003
        0x00003a20:    602a408a    .@*`    DCD    1613381770
        0x00003a24:    680a4907    .I.h    DCD    1745504519
        0x00003a28:    43026840    @h.C    DCD    1124231232
        0x00003a2c:    b001600a    .`..    DCD    2952880138
        0x00003a30:    4030e8bd    ..0@    DCD    1076947133
        0x00003a34:    f7ff2032    2 ..    DCD    4160692274
        0x00003a38:    4902bf3d    =..I    DCD    1224916797
        0x00003a3c:    60082000    . .`    DCD    1611145216
        0x00003a40:    00004770    pG..    DCD    18288
        0x00003a44:    40020250    P..@    DCD    1073873488
        0x00003a48:    e0040004    ....    DCD    3758358532
        0x00003a4c:    001da381    ....    DCD    1942401
        0x00003a50:    000f4240    @B..    DCD    1000000
        0x00003a54:    4668b580    ..hF    DCD    1181267328
        0x00003a58:    f0003008    .0..    DCD    4026544136
        0x00003a5c:    bd01f808    ....    DCD    3171022856
        0x00003a60:    00004770    pG..    DCD    18288
        0x00003a64:    18400080    ..@.    DCD    406847616
        0x00003a68:    47706800    .hpG    DCD    1198548992
        0x00003a6c:    b5304770    pG0.    DCD    3039840112
        0x00003a70:    0004b093    ....    DCD    307347
        0x00003a74:    2118a80c    ...!    DCD    555264012
        0x00003a78:    f852f000    ..R.    DCD    4166184960
        0x00003a7c:    950a2500    .%..    DCD    2500470016
        0x00003a80:    68004825    %H.h    DCD    1744848933
        0x00003a84:    980a900a    ....    DCD    2550829066
        0x00003a88:    002cf88d    ..,.    DCD    2947213
        0x00003a8c:    0a00980a    ....    DCD    167811082
        0x00003a90:    002df88d    ..-.    DCD    3012749
        0x00003a94:    0c00980a    ....    DCD    201365514
        0x00003a98:    002ef8ad    ....    DCD    3078317
        0x00003a9c:    6800481f    .H.h    DCD    1744848927
        0x00003aa0:    f89d9009    ....    DCD    4171075593
        0x00003aa4:    0780002d    -...    DCD    125829165
        0x00003aa8:    0021d504    ..!.    DCD    2217220
        0x00003aac:    f7ff2006    . ..    DCD    4160692230
        0x00003ab0:    e001ffd9    ....    DCD    3758227417
        0x00003ab4:    30fff05f    _..0    DCD    822079583
        0x00003ab8:    00219008    ..!.    DCD    2199560
        0x00003abc:    f7ff2000    . ..    DCD    4160692224
        0x00003ac0:    9000ffd1    ....    DCD    2415984593
        0x00003ac4:    20010021    !..     DCD    536936481
        0x00003ac8:    ffccf7ff    ....    DCD    4291622911
        0x00003acc:    00219001    ..!.    DCD    2199553
        0x00003ad0:    f7ff2002    . ..    DCD    4160692226
        0x00003ad4:    9002ffc7    ....    DCD    2416115655
        0x00003ad8:    20030021    !..     DCD    537067553
        0x00003adc:    ffc2f7ff    ....    DCD    4290967551
        0x00003ae0:    00219003    ..!.    DCD    2199555
        0x00003ae4:    f7ff2004    . ..    DCD    4160692228
        0x00003ae8:    9004ffbd    ....    DCD    2416246717
        0x00003aec:    20050021    !..     DCD    537198625
        0x00003af0:    ffb8f7ff    ....    DCD    4290312191
        0x00003af4:    00219005    ..!.    DCD    2199557
        0x00003af8:    f7ff2006    . ..    DCD    4160692230
        0x00003afc:    9006ffb3    ....    DCD    2416377779
        0x00003b00:    20070021    !..     DCD    537329697
        0x00003b04:    ffaef7ff    ....    DCD    4289656831
        0x00003b08:    a80c9007    ....    DCD    2819395591
        0x00003b0c:    f80cf000    ....    DCD    4161597440
        0x00003b10:    00052000    . ..    DCD    335872
        0x00003b14:    0000e7fe    ....    DCD    59390
        0x00003b18:    e000ed28    (...    DCD    3758157096
        0x00003b1c:    e000ed38    8...    DCD    3758157112
        0x00003b20:    f0002200    ."..    DCD    4026540544
        0x00003b24:    0000b81b    ....    DCD    47131
        0x00003b28:    68d14a0b    .J.h    DCD    1758546443
        0x00003b2c:    0301f001    ....    DCD    50458625
        0x00003b30:    084b7003    .pK.    DCD    139161603
        0x00003b34:    f0010889    ....    DCD    4026599561
        0x00003b38:    f0030101    ....    DCD    4026728705
        0x00003b3c:    74010301    ...t    DCD    1946223361
        0x00003b40:    68517203    .rQh    DCD    1750168067
        0x00003b44:    60c16843    Ch.`    DCD    1623287875
        0x00003b48:    430b6811    .h.C    DCD    1124821009
        0x00003b4c:    69436043    C`Ci    DCD    1766023235
        0x00003b50:    430b6891    .h.C    DCD    1124821137
        0x00003b54:    47706143    CapG    DCD    1198547267
        0x00003b58:    400201c0    ...@    DCD    1073873344
        0x00003b5c:    bf00b500    ....    DCD    3204494592
        0x00003b60:    46960013    ...F    DCD    1184235539
        0x00003b64:    39104694    .F.9    DCD    957367956
        0x00003b68:    e8a0bf28    (...    DCD    3902848808
        0x00003b6c:    d8fa500c    .P..    DCD    3640283148
        0x00003b70:    7c41ea5f    _.A|    DCD    2084694623
        0x00003b74:    c00cbf28    (...    DCD    3222060840
        0x00003b78:    f840bf48    H.@.    DCD    4164992840
        0x00003b7c:    07c92b04    .+..    DCD    130624260
        0x00003b80:    f820bf28    (. .    DCD    4162895656
        0x00003b84:    bf482b02    .+H.    DCD    3209177858
        0x00003b88:    2b01f800    ...+    DCD    721549312
        0x00003b8c:    0000bd00    ....    DCD    48384
        0x00003b90:    00000000    ....    DCD    0
        0x00003b94:    00000256    V...    DCD    598
        0x00003b98:    00000000    ....    DCD    0
        0x00003b9c:    0800004d    M...    DCD    134217805
        0x00003ba0:    08000051    Q...    DCD    134217809
        0x00003ba4:    08000055    U...    DCD    134217813
        0x00003ba8:    08000059    Y...    DCD    134217817
        0x00003bac:    0800006d    m...    DCD    134217837
        0x00003bb0:    08000071    q...    DCD    134217841
        0x00003bb4:    0800007d    }...    DCD    134217853
        0x00003bb8:    08000081    ....    DCD    134217857
        0x00003bbc:    08000089    ....    DCD    134217865
        0x00003bc0:    08000091    ....    DCD    134217873
        0x00003bc4:    08000099    ....    DCD    134217881
        0x00003bc8:    08000075    u...    DCD    134217845
        0x00003bcc:    08000079    y...    DCD    134217849
        0x00003bd0:    0800009d    ....    DCD    134217885
        0x00003bd4:    0800005d    ]...    DCD    134217821
        0x00003bd8:    08000061    a...    DCD    134217825
        0x00003bdc:    08000065    e...    DCD    134217829
        0x00003be0:    08000069    i...    DCD    134217833
        0x00003be4:    08000085    ....    DCD    134217861
        0x00003be8:    0800008d    ....    DCD    134217869
        0x00003bec:    00000011    ....    DCD    17
        0x00003bf0:    00000003    ....    DCD    3
        0x00003bf4:    0000000e    ....    DCD    14
        0x00003bf8:    00000003    ....    DCD    3
        0x00003bfc:    0000000f    ....    DCD    15
        0x00003c00:    00000003    ....    DCD    3
        0x00003c04:    0000001e    ....    DCD    30
        0x00003c08:    00000003    ....    DCD    3
        0x00003c0c:    0000000a    ....    DCD    10
        0x00003c10:    00000003    ....    DCD    3
        0x00003c14:    f850e019    ..P.    DCD    4166049817
        0x00003c18:    07d32b04    .+..    DCD    131279620
        0x00003c1c:    f1a9bf44    D...    DCD    4054433604
        0x00003c20:    189a0301    ....    DCD    412746497
        0x00003c24:    23001f09    ...#    DCD    587210505
        0x00003c28:    f8422904    .)B.    DCD    4165085444
        0x00003c2c:    d2f93b04    .;..    DCD    3539548932
        0x00003c30:    7c81ea5f    _..|    DCD    2088888927
        0x00003c34:    d5044613    .F..    DCD    3573827091
        0x00003c38:    0c00f04f    O...    DCD    201388111
        0x00003c3c:    c000f8a2    ....    DCD    3221289122
        0x00003c40:    07c91c9b    ....    DCD    130620571
        0x00003c44:    2100bf44    D..!    DCD    553697092
        0x00003c48:    f8507019    .pP.    DCD    4166021145
        0x00003c4c:    29001b04    ...)    DCD    687872772
        0x00003c50:    4770d1e1    ..pG    DCD    1198576097
        0x00003c54:    f850b410    ..P.    DCD    4166038544
        0x00003c58:    b1791b04    ..y.    DCD    2977504004
        0x00003c5c:    68436802    .hCh    DCD    1749248002
        0x00003c60:    30084402    .D.0    DCD    805848066
        0x00003c64:    bf4407dc    ..D.    DCD    3208906716
        0x00003c68:    0401f1a9    ....    DCD    67236265
        0x00003c6c:    f85218e3    ..R.    DCD    4166129891
        0x00003c70:    f8434b04    .KC.    DCD    4165159684
        0x00003c74:    1f094b04    .K..    DCD    520702724
        0x00003c78:    e7ecd1f9    ....    DCD    3891057145
        0x00003c7c:    4770bc10    ..pG    DCD    1198570512
        0x00003c80:    4907b510    ...I    DCD    1225241872
        0x00003c84:    31184479    yD.1    DCD    823673977
        0x00003c88:    447c4c06    .L|D    DCD    1148996614
        0x00003c8c:    e0043416    .4..    DCD    3758371862
        0x00003c90:    1d08680a    .h..    DCD    487090186
        0x00003c94:    47884411    .D.G    DCD    1200112657
        0x00003c98:    42a14601    .F.B    DCD    1117865473
        0x00003c9c:    bd10d1f8    ....    DCD    3171996152
        0x00003ca0:    0000002c    ,...    DCD    44
        0x00003ca4:    0000004c    L...    DCD    76
        0x00003ca8:    5188f64e    N..Q    DCD    1367930446
        0x00003cac:    0100f2ce    ....    DCD    16839374
        0x00003cb0:    f4406808    .h@.    DCD    4097861640
        0x00003cb4:    60080070    p..`    DCD    1611137136
        0x00003cb8:    8f4ff3bf    ..O.    DCD    2404381631
        0x00003cbc:    8f6ff3bf    ..o.    DCD    2406478783
        0x00003cc0:    7000f04f    O..p    DCD    1879109711
        0x00003cc4:    0a10eee1    ....    DCD    168881889
        0x00003cc8:    00004770    pG..    DCD    18288
        0x00003ccc:    ffffff49    I...    DCD    4294967113
        0x00003cd0:    00000128    (...    DCD    296
        0x00003cd4:    10001084    ....    DCD    268439684
        0x00003cd8:    00000000    ....    DCD    0
        0x00003cdc:    ffffff79    y...    DCD    4294967161
        0x00003ce0:    00000084    ....    DCD    132
        0x00003ce4:    fffffeac    ....    DCD    4294966956
        0x00003ce8:    10001000    ....    DCD    268439552
        0x00003cec:    00000000    ....    DCD    0
        0x00003cf0:    f80bf000    ....    DCD    4161531904
        0x00003cf4:    d0012800    .(..    DCD    3489736704
        0x00003cf8:    ffc2f7ff    ....    DCD    4290967551
        0x00003cfc:    f3af2000    . ..    DCD    4088340480
        0x00003d00:    f7ff8000    ....    DCD    4160716800
        0x00003d04:    f000fc1b    ....    DCD    4026596379
        0x00003d08:    2001f802    ...     DCD    536999938
        0x00003d0c:    f0004770    pG..    DCD    4026550128
        0x00003d10:    0000b801    ....    DCD    47105
        0x00003d14:    46384607    .F8F    DCD    1178093063
        0x00003d18:    f802f000    ....    DCD    4160942080
        0x00003d1c:    0000e7fb    ....    DCD    59387
        0x00003d20:    f3afb580    ....    DCD    4088378752
        0x00003d24:    4a028000    ...J    DCD    1241677824
        0x00003d28:    20180011    ...     DCD    538443793
        0x00003d2c:    e7fbbeab    ....    DCD    3892035243
        0x00003d30:    00020026    &...    DCD    131110
        0x00003d34:    616e6942    Bina    DCD    1634625858
        0x00003d38:    43207972    ry C    DCD    1126201714
        0x00003d3c:    746e756f    ount    DCD    1953396079
        0x00003d40:    45207265    er E    DCD    1159754341
        0x00003d44:    706d6178    xamp    DCD    1886216568
        0x00003d48:    000a656c    le..    DCD    681324
        0x00003d4c:    0a0a0a0a    ....    DCD    168430090
        0x00003d50:    0a0a0a0a    ....    DCD    168430090
        0x00003d54:    0a0a0a0a    ....    DCD    168430090
        0x00003d58:    0a0a0a0a    ....    DCD    168430090
        0x00003d5c:    00000a0a    ....    DCD    2570
        0x00003d60:    50000001    ...P    DCD    1342177281
        0x00003d64:    00010300    ....    DCD    66304
        0x00003d68:    00010101    ....    DCD    65793
        0x00003d6c:    8000f3af    ....    DCD    2147546031
        0x00003d70:    ff9af7ff    ....    DCD    4288346111
        0x00003d74:    ffbcf7ff    ....    DCD    4290574335
        0x00003d78:    fff8f7ff    ....    DCD    4294506495
        0x00003d7c:    e7fe4770    pG..    DCD    3892201328
        0x00003d80:    0000e7fe    ....    DCD    59390
    g_sIOMConfig
        0x00003d84:    00000001    ....    DCD    1
        0x00003d88:    000186a0    ....    DCD    100000
        0x00003d8c:    3c040000    ...<    DCD    1006895104
    .constdata
    am_hal_cachectrl_defaults
        0x00003d90:    50000001    ...P    DCD    1342177281
        0x00003d94:    00010300    ....    DCD    66304
        0x00003d98:    00010101    ....    DCD    65793
    .constdata
    i2c_bb_errmap
        0x00003d9c:    01060600    ....    DCD    17171968
        0x00003da0:    01          .       DCB    1
    g_IOMPads
        0x00003da1:    001d06      ...     DCB    0,29,6
        0x00003da4:    01062200    ."..    DCD    17179136
        0x00003da8:    25010412    ...%    DCD    620823570
        0x00003dac:    06290205    ..).    DCD    103350789
        0x00003db0:    03041103    ....    DCD    50598147
        0x00003db4:    0a04042d    -...    DCD    168035373
        0x00003db8:    062e0406    ....    DCD    103678982
        0x00003dbc:    05040905    ....    DCD    84150533
        0x00003dc0:    2306062f    /..#    DCD    587597359
        0x00003dc4:    06260704    ..&.    DCD    103155460
    g_I2CPads
        0x00003dc8:    01000500    ....    DCD    16778496
        0x00003dcc:    00020008    ....    DCD    131080
        0x00003dd0:    042a0307    ..*.    DCD    69862151
        0x00003dd4:    05042704    .'..    DCD    84158212
        0x00003dd8:    1b020430    0...    DCD    453116976
        0x00003ddc:    00000004    ....    DCD    4
    Region$$Table$$Base
        0x00003de0:    00003e00    .>..    DCD    15872
        0x00003de4:    10000000    ....    DCD    268435456
        0x00003de8:    00000064    d...    DCD    100
        0x00003dec:    00000124    $...    DCD    292
        0x00003df0:    00003e64    d>..    DCD    15972
        0x00003df4:    10000064    d...    DCD    268435556
        0x00003df8:    000014ec    ....    DCD    5356
        0x00003dfc:    00000140    @...    DCD    320
    Region$$Table$$Limit

** Section #2 'SRAM' (SHT_PROGBITS) [SHF_ALLOC + SHF_WRITE]
    Size   : 100 bytes (alignment 4)
    Address: 0x10000000

    0x10000000:   00 00 00 00 06 00 00 00 0a 00 00 00 09 00 00 00    ................
    0x10000010:   0a 00 00 00 19 00 00 00 2a 00 00 00 2b 00 00 00    ........*...+...
    0x10000020:   2a 00 00 00 28 00 00 00 2a 00 00 00 31 00 00 00    *...(...*...1...
    0x10000030:   2a 00 00 00 1d 0b 00 00 00 00 00 00 00 00 00 00    *...............
    0x10000040:   00 00 00 00 00 00 00 00 00 00 00 00 00 00 00 00    ................
    0x10000050:   00 00 00 00 00 00 00 00 00 00 00 00 00 00 00 00    ................
    0x10000060:   00 00 00 00                                        ....


** Section #3 'SRAM' (SHT_NOBITS) [SHF_ALLOC + SHF_WRITE]
    Size   : 5356 bytes (alignment 8)
    Address: 0x10000064


** Section #4 '.debug_abbrev' (SHT_PROGBITS)
    Size   : 1476 bytes


** Section #5 '.debug_frame' (SHT_PROGBITS)
    Size   : 2740 bytes


** Section #6 '.debug_info' (SHT_PROGBITS)
    Size   : 5900 bytes


** Section #7 '.debug_line' (SHT_PROGBITS)
    Size   : 1884 bytes


** Section #8 '.debug_loc' (SHT_PROGBITS)
    Size   : 380 bytes


** Section #9 '.debug_macinfo' (SHT_PROGBITS)
    Size   : 6000 bytes


** Section #10 '.debug_pubnames' (SHT_PROGBITS)
    Size   : 473 bytes


** Section #11 '.symtab' (SHT_SYMTAB)
    Size   : 7920 bytes (alignment 4)
    String table #12 '.strtab'
    Last local symbol no. 315

    Symbol table .symtab (494 symbols, 315 local)

      #  Symbol Name                Value      Bind  Sec  Type  Vis  Size
    ========================================================================

      1  $d                         0x00000000   Lc    1   --   De 
      2  $t                         0x000000c0   Lc    1   --   De 
      3  $d                         0x000000e4   Lc    1   --   De 
      4  $t                         0x000000e8   Lc    1   --   De 
      5  $d                         0x0000011c   Lc    1   --   De 
      6  $t                         0x00000124   Lc    1   --   De 
      7  $d                         0x000001c0   Lc    1   --   De 
      8  $t                         0x000001c4   Lc    1   --   De 
      9  $d                         0x000001ce   Lc    1   --   De 
     10  $t                         0x000001dc   Lc    1   --   De 
     11  $d                         0x00000244   Lc    1   --   De 
     12  $t                         0x00000248   Lc    1   --   De 
     13  $d                         0x00000250   Lc    1   --   De 
     14  $t                         0x00000254   Lc    1   --   De 
     15  $d                         0x0000032e   Lc    1   --   De 
     16  $t                         0x0000033c   Lc    1   --   De 
     17  $d                         0x00000440   Lc    1   --   De 
     18  $t                         0x00000444   Lc    1   --   De 
     19  $d                         0x00000470   Lc    1   --   De 
     20  $t                         0x00000478   Lc    1   --   De 
     21  $d                         0x00000498   Lc    1   --   De 
     22  $t                         0x000004e0   Lc    1   --   De 
     23  $d                         0x00000504   Lc    1   --   De 
     24  $t                         0x00000508   Lc    1   --   De 
     25  $d                         0x00000528   Lc    1   --   De 
     26  $t                         0x0000052c   Lc    1   --   De 
     27  $d                         0x0000054c   Lc    1   --   De 
     28  $t                         0x00000550   Lc    1   --   De 
     29  $d                         0x0000057a   Lc    1   --   De 
     30  $t                         0x00000580   Lc    1   --   De 
     31  $d                         0x00000588   Lc    1   --   De 
     32  $t                         0x0000058c   Lc    1   --   De 
     33  $d                         0x000005bc   Lc    1   --   De 
     34  $t                         0x000005c0   Lc    1   --   De 
     35  $d                         0x000005e0   Lc    1   --   De 
     36  $t                         0x000005e4   Lc    1   --   De 
     37  $d                         0x00000626   Lc    1   --   De 
     38  $t                         0x0000062c   Lc    1   --   De 
     39  $d                         0x0000089a   Lc    1   --   De 
     40  $t                         0x000008b8   Lc    1   --   De 
     41  $d                         0x000008dc   Lc    1   --   De 
     42  $t                         0x000008e0   Lc    1   --   De 
     43  $d                         0x00000970   Lc    1   --   De 
     44  $t                         0x000009b8   Lc    1   --   De 
     45  $d                         0x00000a5c   Lc    1   --   De 
     46  $t                         0x00000aa0   Lc    1   --   De 
     47  $d                         0x00000ad8   Lc    1   --   De 
     48  $t                         0x00000b1c   Lc    1   --   De 
     49  $d                         0x00000b6a   Lc    1   --   De 
     50  $t                         0x00000b74   Lc    1   --   De 
     51  $d                         0x00000c62   Lc    1   --   De 
     52  $t                         0x00000c74   Lc    1   --   De 
     53  $d                         0x00000d78   Lc    1   --   De 
     54  $t                         0x00000d98   Lc    1   --   De 
     55  $d                         0x00000efc   Lc    1   --   De 
     56  $t                         0x00000f1c   Lc    1   --   De 
     57  $d                         0x00000ff0   Lc    1   --   De 
     58  $t                         0x00001000   Lc    1   --   De 
     59  $d                         0x00001108   Lc    1   --   De 
     60  $t                         0x0000111c   Lc    1   --   De 
     61  $d                         0x00001264   Lc    1   --   De 
     62  $t                         0x0000127c   Lc    1   --   De 
     63  $d                         0x00001668   Lc    1   --   De 
     64  $t                         0x00001728   Lc    1   --   De 
     65  $d                         0x0000176c   Lc    1   --   De 
     66  $t                         0x00001774   Lc    1   --   De 
     67  $d                         0x000017a2   Lc    1   --   De 
     68  $t                         0x000017a8   Lc    1   --   De 
     69  $d                         0x000017e4   Lc    1   --   De 
     70  $t                         0x000017e8   Lc    1   --   De 
     71  $d                         0x000017fc   Lc    1   --   De 
     72  $t                         0x00001800   Lc    1   --   De 
     73  $d                         0x00001974   Lc    1   --   De 
     74  $t                         0x00001980   Lc    1   --   De 
     75  $d                         0x000019f0   Lc    1   --   De 
     76  $t                         0x00001a3c   Lc    1   --   De 
     77  $d                         0x00001bfa   Lc    1   --   De 
     78  $t                         0x00001c0c   Lc    1   --   De 
     79  $d                         0x00001c14   Lc    1   --   De 
     80  $t                         0x00001c18   Lc    1   --   De 
     81  $d                         0x00001c34   Lc    1   --   De 
     82  $t                         0x00001c38   Lc    1   --   De 
     83  $d                         0x00001d78   Lc    1   --   De 
     84  $t                         0x00001d7c   Lc    1   --   De 
     85  $d                         0x00001e32   Lc    1   --   De 
     86  $t                         0x00001e48   Lc    1   --   De 
     87  $d                         0x00001ec0   Lc    1   --   De 
     88  $t                         0x00001ecc   Lc    1   --   De 
     89  $d                         0x00001f3e   Lc    1   --   De 
     90  $t                         0x00001f48   Lc    1   --   De 
     91  $d                         0x0000200e   Lc    1   --   De 
     92  $t                         0x00002014   Lc    1   --   De 
     93  $d                         0x000020a6   Lc    1   --   De 
     94  $t                         0x000020b8   Lc    1   --   De 
     95  $d                         0x0000215c   Lc    1   --   De 
     96  $t                         0x0000216c   Lc    1   --   De 
     97  $d.realdata                0x00002178   Lc    1   --   De 
     98  $d.realdata                0x10000000   Lc    2   --   De 
     99  ../src/spi_boot_host.c     0x00000000   Lc  Abs  File  De 
    100  i.am_gpio_isr              0x0000035e   Lc    1  Sect  De 
    101  i.configure_pins           0x00001c38   Lc    1  Sect  De 
    102  i.main                     0x00001db8   Lc    1  Sect  De 
    103  i.override_pin_set         0x00001e48   Lc    1  Sect  De 
    104  i.start_boot_mode          0x00001f48   Lc    1  Sect  De 
    105  i.start_new_image          0x00002014   Lc    1  Sect  De 
    106  i.transfer_image           0x000020b8   Lc    1  Sect  De 
    107  .bss                       0x10000064   Lc    3  Sect  De   0x2f0
    108  .constdata                 0x00002178   Lc    1  Sect  De   0x1c18
    109  ../../../../../utils/am_util_delay.c
                                    0x00000000   Lc  Abs  File  De 
    110  i.am_util_delay_us         0x00001c18   Lc    1  Sect  De 
    111  ../../../../../utils/am_util_stdio.c
                                    0x00000000   Lc  Abs  File  De 
    112  ../keil/startup_keil.s     0x00000000   Lc  Abs  File  De 
    113  STACK                      0x10000550   Lc    3  Sect  De   0x1000
    114  StackMem                   0x10000550   Lc    3  Data  De 
    115  HEAP                       0x10000550   Lc    3  Sect  De 
    116  HeapMem                    0x10000550   Lc    3  Data  De 
    117  RESET                      0x00000000   Lc    1  Sect  De   0xe8
    118  $v0                        0x000000c0   Lc    1   --   De 
    119  .text                      0x000001c4   Lc    1  Sect  De   0x18
    120  $v0                        0x000001c4   Lc    1   --   De 
    121  ..\am_hal_global.c         0x00000000   Lc  Abs  File  De 
    122  ../am_hal_global.c         0x00000000   Lc  Abs  File  De 
    123  .data                      0x10000000   Lc    2  Sect  De   0x4
    124  ../am_bsp.c                0x00000000   Lc  Abs  File  De 
    125  i.am_bsp_iom_enable        0x00000258   Lc    1  Sect  De 
    126  i.am_bsp_low_power_init    0x0000033c   Lc    1  Sect  De 
    127  .data                      0x10000004   Lc    2  Sect  De   0x30
    128  g_SPIpins                  0x10000004   Lc    2  Data  De   0x30
    129  ../am_hal_cachectrl.c      0x00000000   Lc  Abs  File  De 
    130  i.am_hal_cachectrl_enable  0x00000374   Lc    1  Sect  De 
    131  .constdata                 0x00003d90   Lc    1  Sect  De   0xc
    132  ../am_hal_clkgen.c         0x00000000   Lc  Abs  File  De 
    133  i.am_hal_clkgen_osc_stop   0x00000444   Lc    1  Sect  De 
    134  i.am_hal_clkgen_sysclk_get 0x00000458   Lc    1  Sect  De 
    135  i.am_hal_clkgen_sysclk_select
                                    0x00000478   Lc    1  Sect  De 
    136  ../am_hal_flash.c          0x00000000   Lc  Abs  File  De 
    137  i.am_hal_flash_delay       0x00000584   Lc    1  Sect  De 
    138  i.am_hal_flash_delay_status_change
                                    0x0000058c   Lc    1  Sect  De 
    139  ../am_hal_gpio.c           0x00000000   Lc  Abs  File  De 
    140  i.am_hal_gpio_int_clear    0x000005c0   Lc    1  Sect  De 
    141  i.am_hal_gpio_int_status_get
                                    0x000005e4   Lc    1  Sect  De 
    142  ..\am_hal_interrupt.c      0x00000000   Lc  Abs  File  De 
    143  .emb_text                  0x00000188   Lc    1  Sect  De   0x16
    144  $v0                        0x00000188   Lc    1   --   De 
    145  ../am_hal_interrupt.c      0x00000000   Lc  Abs  File  De 
    146  ..\am_hal_iom.c            0x00000000   Lc  Abs  File  De 
    147  .emb_text                  0x000001a0   Lc    1  Sect  De   0x24
    148  $v0                        0x000001a0   Lc    1   --   De 
    149  ../am_hal_iom.c            0x00000000   Lc  Abs  File  De 
    150  i.am_hal_iom_config        0x0000062c   Lc    1  Sect  De 
    151  i.am_hal_iom_enable        0x000008b8   Lc    1  Sect  De 
    152  i.am_hal_iom_fifo_read     0x000008e0   Lc    1  Sect  De 
    153  i.am_hal_iom_fifo_write    0x000009b8   Lc    1  Sect  De 
    154  i.am_hal_iom_int_clear     0x00000aa0   Lc    1  Sect  De 
    155  i.am_hal_iom_pwrctrl_enable
                                    0x00000ab8   Lc    1  Sect  De 
    156  i.am_hal_iom_sleeping_queue_flush
                                    0x00000b1c   Lc    1  Sect  De 
    157  i.am_hal_iom_spi_read      0x00000b74   Lc    1  Sect  De 
    158  i.am_hal_iom_spi_read_nb   0x00000c74   Lc    1  Sect  De 
    159  i.am_hal_iom_spi_read_nq   0x00000d98   Lc    1  Sect  De 
    160  i.am_hal_iom_spi_write     0x00000f1c   Lc    1  Sect  De 
    161  i.am_hal_iom_spi_write_nb  0x00001000   Lc    1  Sect  De 
    162  i.am_hal_iom_spi_write_nq  0x0000111c   Lc    1  Sect  De 
    163  i.am_hal_iom_workaround_word_write
                                    0x0000127c   Lc    1  Sect  De 
    164  i.internal_iom_get_int_err 0x00001d7c   Lc    1  Sect  De 
    165  internal_iom_get_int_err   0x00001d7d   Lc    1  Code  De   0x3a
    166  .bss                       0x10000354   Lc    3  Sect  De   0x198
    167  .constdata                 0x00003d9c   Lc    1  Sect  De   0x41
    168  .data                      0x10000034   Lc    2  Sect  De   0x12
    169  g_iom_error_status         0x1000003f   Lc    2  Data  De   0x7
    170  ../am_hal_debug.c          0x00000000   Lc  Abs  File  De 
    171  i.am_hal_debug_error       0x00000580   Lc    1  Sect  De 
    172  ../am_hal_i2c_bit_bang.c   0x00000000   Lc  Abs  File  De 
    173  ../am_hal_itm.c            0x00000000   Lc  Abs  File  De 
    174  ../am_hal_pwrctrl.c        0x00000000   Lc  Abs  File  De 
    175  i.am_hal_pwrctrl_bucks_disable
                                    0x00001728   Lc    1  Sect  De 
    176  i.am_hal_pwrctrl_bucks_enable
                                    0x00001774   Lc    1  Sect  De 
    177  i.am_hal_pwrctrl_bucks_init
                                    0x000017a8   Lc    1  Sect  De 
    178  i.am_hal_pwrctrl_low_power_init
                                    0x000017e8   Lc    1  Sect  De 
    179  i.am_hal_pwrctrl_memory_enable
                                    0x00001800   Lc    1  Sect  De 
    180  i.am_hal_pwrctrl_periph_enable
                                    0x00001980   Lc    1  Sect  De 
    181  ../am_hal_queue.c          0x00000000   Lc  Abs  File  De 
    182  i.am_hal_queue_item_add    0x00001a3c   Lc    1  Sect  De 
    183  ../am_hal_rtc.c            0x00000000   Lc  Abs  File  De 
    184  i.am_hal_rtc_osc_disable   0x00001ada   Lc    1  Sect  De 
    185  i.am_hal_rtc_osc_select    0x00001ae8   Lc    1  Sect  De 
    186  ../am_hal_sysctrl.c        0x00000000   Lc  Abs  File  De 
    187  i.am_hal_sysctrl_sleep     0x00001b00   Lc    1  Sect  De 
    188  i.setBuckZX                0x00001ecc   Lc    1  Sect  De 
    189  setBuckZX                  0x00001ecd   Lc    1  Code  De   0x72
    190  .data                      0x10000048   Lc    2  Sect  De   0x1c
    191  g_bBuckRestoreComplete     0x10000048   Lc    2  Data  De   0x1
    192  g_ui32BuckTimer            0x1000004c   Lc    2  Data  De   0x4
    193  g_ui32BuckInputs           0x10000050   Lc    2  Data  De   0x4
    194  g_buckZX_chk               0x10000054   Lc    2  Data  De   0x4
    195  g_ui32SaveCoreBuckZX       0x10000058   Lc    2  Data  De   0x4
    196  g_ui32SaveMemBuckZX        0x1000005c   Lc    2  Data  De   0x4
    197  g_ui32CoreBuck             0x10000060   Lc    2  Data  De   0x4
    198  ../am_hal_tpiu.c           0x00000000   Lc  Abs  File  De 
    199  ../am_hal_uart.c           0x00000000   Lc  Abs  File  De 
    200  ../am_hal_vcomp.c          0x00000000   Lc  Abs  File  De 
    201  i.am_hal_vcomp_disable     0x00001c0c   Lc    1  Sect  De 
    202  ../am_hal_ctimer.c         0x00000000   Lc  Abs  File  De 
    203  i.am_hal_ctimer_clear      0x000004e0   Lc    1  Sect  De 
    204  i.am_hal_ctimer_int_disable
                                    0x00000508   Lc    1  Sect  De 
    205  i.am_hal_ctimer_int_enable 0x0000052c   Lc    1  Sect  De 
    206  i.am_hal_ctimer_start      0x00000550   Lc    1  Sect  De 
    207  dc.s                       0x00000000   Lc  Abs  File  De 
    208  ../clib/longlong.s         0x00000000   Lc  Abs  File  De 
    209  ../clib/heapaux.c          0x00000000   Lc  Abs  File  De 
    210  .text                      0x000001dc   Lc    1  Sect  De 
    211  ../clib/angel/startup.s    0x00000000   Lc  Abs  File  De 
    212  !!!main                    0x000000e8   Lc    1  Sect  De   0x8
    213  ../fplib/d2f.s             0x00000000   Lc  Abs  File  De 
    214  ../clib/angel/kernel.s     0x00000000   Lc  Abs  File  De 
    215  .ARM.Collect$$rtentry$$00000000
                                    0x00000168   Lc    1  Sect  De 
    216  ../fplib/dnaninf.s         0x00000000   Lc  Abs  File  De 
    217  ../fplib/fretinf.s         0x00000000   Lc  Abs  File  De 
    218  ../fplib/usenofp.s         0x00000000   Lc  Abs  File  De 
    219  ../clib/angel/kernel.s     0x00000000   Lc  Abs  File  De 
    220  .ARM.Collect$$rtentry$$00000002
                                    0x00000168   Lc    1  Sect  De 
    221  .ARM.Collect$$rtentry$$00000009
                                    0x0000016e   Lc    1  Sect  De 
    222  .ARM.Collect$$rtentry$$0000000A
                                    0x0000016e   Lc    1  Sect  De   0x4
    223  .ARM.Collect$$rtentry$$0000000C
                                    0x00000172   Lc    1  Sect  De 
    224  .ARM.Collect$$rtentry$$0000000D
                                    0x00000172   Lc    1  Sect  De   0x8
    225  ../clib/angel/kernel.s     0x00000000   Lc  Abs  File  De 
    226  .ARM.Collect$$rtentry$$00000004
                                    0x00000168   Lc    1  Sect  De   0x6
    227  ../clib/angel/sys.s        0x00000000   Lc  Abs  File  De 
    228  .text                      0x000001e2   Lc    1  Sect  De   0x4a
    229  ../clib/stdlib.c           0x00000000   Lc  Abs  File  De 
    230  .text                      0x0000022c   Lc    1  Sect  De 
    231  ../clib/angel/boardlib.s   0x00000000   Lc  Abs  File  De 
    232  ../clib/angel/boardlib.s   0x00000000   Lc  Abs  File  De 
    233  ../clib/angel/boardlib.s   0x00000000   Lc  Abs  File  De 
    234  ../clib/libinit.s          0x00000000   Lc  Abs  File  De 
    235  .ARM.Collect$$libinit$$00000000
                                    0x0000015c   Lc    1  Sect  De   0x2
    236  ../clib/angel/sys.s        0x00000000   Lc  Abs  File  De 
    237  .text                      0x00000240   Lc    1  Sect  De   0x8
    238  .bss                       0x100004ec   Lc    3  Sect  De   0x60
    239  ../clib/angel/kernel.s     0x00000000   Lc  Abs  File  De 
    240  .ARM.Collect$$rtexit$$00000000
                                    0x0000017a   Lc    1  Sect  De   0x2
    241  ../clib/libinit.s          0x00000000   Lc  Abs  File  De 
    242  .ARM.Collect$$libinit$$00000001
                                    0x0000015e   Lc    1  Sect  De   0x4
    243  .ARM.Collect$$libinit$$00000004
                                    0x00000162   Lc    1  Sect  De 
    244  .ARM.Collect$$libinit$$0000000A
                                    0x00000162   Lc    1  Sect  De 
    245  .ARM.Collect$$libinit$$0000000C
                                    0x00000162   Lc    1  Sect  De 
    246  .ARM.Collect$$libinit$$0000000E
                                    0x00000162   Lc    1  Sect  De 
    247  .ARM.Collect$$libinit$$00000011
                                    0x00000162   Lc    1  Sect  De 
    248  .ARM.Collect$$libinit$$00000013
                                    0x00000162   Lc    1  Sect  De 
    249  .ARM.Collect$$libinit$$00000015
                                    0x00000162   Lc    1  Sect  De 
    250  .ARM.Collect$$libinit$$00000017
                                    0x00000162   Lc    1  Sect  De 
    251  .ARM.Collect$$libinit$$00000019
                                    0x00000162   Lc    1  Sect  De 
    252  .ARM.Collect$$libinit$$0000001B
                                    0x00000162   Lc    1  Sect  De 
    253  .ARM.Collect$$libinit$$0000001D
                                    0x00000162   Lc    1  Sect  De 
    254  .ARM.Collect$$libinit$$0000001F
                                    0x00000162   Lc    1  Sect  De 
    255  .ARM.Collect$$libinit$$00000021
                                    0x00000162   Lc    1  Sect  De 
    256  .ARM.Collect$$libinit$$00000023
                                    0x00000162   Lc    1  Sect  De 
    257  .ARM.Collect$$libinit$$00000025
                                    0x00000162   Lc    1  Sect  De 
    258  .ARM.Collect$$libinit$$0000002C
                                    0x00000162   Lc    1  Sect  De 
    259  .ARM.Collect$$libinit$$0000002E
                                    0x00000162   Lc    1  Sect  De 
    260  .ARM.Collect$$libinit$$00000030
                                    0x00000162   Lc    1  Sect  De 
    261  .ARM.Collect$$libinit$$00000032
                                    0x00000162   Lc    1  Sect  De 
    262  .ARM.Collect$$libinit$$00000033
                                    0x00000162   Lc    1  Sect  De   0x2
    263  ../clib/angel/kernel.s     0x00000000   Lc  Abs  File  De 
    264  .ARM.Collect$$rtexit$$00000002
                                    0x0000017c   Lc    1  Sect  De 
    265  .ARM.Collect$$rtexit$$00000003
                                    0x0000017c   Lc    1  Sect  De   0x4
    266  .ARM.Collect$$rtexit$$00000004
                                    0x00000180   Lc    1  Sect  De   0x6
    267  ../clib/armsys.c           0x00000000   Lc  Abs  File  De 
    268  ../clib/armsys.c           0x00000000   Lc  Abs  File  De 
    269  ../fplib/fpinit.s          0x00000000   Lc  Abs  File  De 
    270  x$fpl$fpinit               0x0000216c   Lc    1  Sect  De   0xa
    271  $v0                        0x0000216c   Lc    1   --   De 
    272  ../clib/angel/sysapp.c     0x00000000   Lc  Abs  File  De 
    273  .text                      0x00000248   Lc    1  Sect  De 
    274  ../clib/angel/boardlib.s   0x00000000   Lc  Abs  File  De 
    275  ../clib/armsys.c           0x00000000   Lc  Abs  File  De 
    276  ../clib/armsys.c           0x00000000   Lc  Abs  File  De 
    277  ../clib/libinit.s          0x00000000   Lc  Abs  File  De 
    278  .ARM.Collect$$libshutdown$$00000000
                                    0x00000164   Lc    1  Sect  De   0x2
    279  ../clib/angel/sysapp.c     0x00000000   Lc  Abs  File  De 
    280  ../clib/angel/sys.s        0x00000000   Lc  Abs  File  De 
    281  .text                      0x00000254   Lc    1  Sect  De   0x2
    282  ../clib/angel/sys.s        0x00000000   Lc  Abs  File  De 
    283  .text                      0x00000256   Lc    1  Sect  De 
    284  ../clib/heapalloc.c        0x00000000   Lc  Abs  File  De 
    285  ../clib/signal.c           0x00000000   Lc  Abs  File  De 
    286  ../clib/signal.c           0x00000000   Lc  Abs  File  De 
    287  ../clib/libinit.s          0x00000000   Lc  Abs  File  De 
    288  .ARM.Collect$$libshutdown$$00000002
                                    0x00000166   Lc    1  Sect  De 
    289  .ARM.Collect$$libshutdown$$00000004
                                    0x00000166   Lc    1  Sect  De 
    290  .ARM.Collect$$libshutdown$$00000007
                                    0x00000166   Lc    1  Sect  De 
    291  .ARM.Collect$$libshutdown$$0000000A
                                    0x00000166   Lc    1  Sect  De 
    292  .ARM.Collect$$libshutdown$$0000000C
                                    0x00000166   Lc    1  Sect  De 
    293  .ARM.Collect$$libshutdown$$0000000F
                                    0x00000166   Lc    1  Sect  De 
    294  .ARM.Collect$$libshutdown$$00000010
                                    0x00000166   Lc    1  Sect  De   0x2
    295  ../clib/angel/rt.s         0x00000000   Lc  Abs  File  De 
    296  ../clib/signal.c           0x00000000   Lc  Abs  File  De 
    297  ../clib/signal.c           0x00000000   Lc  Abs  File  De 
    298  ../clib/signal.c           0x00000000   Lc  Abs  File  De 
    299  ../clib/signal.c           0x00000000   Lc  Abs  File  De 
    300  ../clib/angel/sysapp.c     0x00000000   Lc  Abs  File  De 
    301  ../clib/signal.s           0x00000000   Lc  Abs  File  De 
    302  ../clib/signal.c           0x00000000   Lc  Abs  File  De 
    303  ../clib/signal.c           0x00000000   Lc  Abs  File  De 
    304  ../clib/signal.c           0x00000000   Lc  Abs  File  De 
    305  ../clib/signal.c           0x00000000   Lc  Abs  File  De 
    306  ../clib/signal.c           0x00000000   Lc  Abs  File  De 
    307  ../clib/signal.c           0x00000000   Lc  Abs  File  De 
    308  ../clib/signal.c           0x00000000   Lc  Abs  File  De 
    309  ../clib/signal.c           0x00000000   Lc  Abs  File  De 
    310  ../clib/angel/scatter.s    0x00000000   Lc  Abs  File  De 
    311  !!!scatter                 0x000000f0   Lc    1  Sect  De   0x34
    312  ../clib/angel/handlers.s   0x00000000   Lc  Abs  File  De 
    313  !!handler_copy             0x00000124   Lc    1  Sect  De   0x1a
    314  ../clib/angel/handlers.s   0x00000000   Lc  Abs  File  De 
    315  !!handler_zi               0x00000140   Lc    1  Sect  De   0x1c
    316  BuildAttributes$$THM_ISAv4$E$P$D$K$B$S$7EM$VFPi3$EXTD16$VFPS$VFMA$PE$A:L22UL41UL21$X:L11$S22US41US21$IEEE1$IW$USESV6$~STKCKD$USESV7$~SHL$OTIME$ROPI$EBA8$UX$STANDARDLIB$REQ8$PRES8$EABIv2
                                    0x00000000   Gb  Abs   --   Hi 
    317  __ARM_use_no_argv          0x00000000   Gb  Abs   --   Hi 
    318  __Vectors                  0x00000000   Gb    1  Data  Hi 
    319  Reset_Handler              0x000000c1   Wk    1  Code  Hi   0x1c
    320  am_nmi_isr                 0x000000dd   Wk    1  Code  Hi   0x2
    321  am_fault_isr               0x000000df   Wk    1  Code  Hi   0x2
    322  am_memmanage_isr           0x000000e1   Wk    1  Code  Hi   0x2
    323  am_adc_isr                 0x000000e3   Wk    1  Code  Hi 
    324  am_brownout_isr            0x000000e3   Wk    1  Code  Hi 
    325  am_clkgen_isr              0x000000e3   Wk    1  Code  Hi 
    326  am_ctimer_isr              0x000000e3   Wk    1  Code  Hi 
    327  am_debugmon_isr            0x000000e3   Wk    1  Code  Hi 
    328  am_flash_isr               0x000000e3   Wk    1  Code  Hi 
    329  am_iomaster0_isr           0x000000e3   Wk    1  Code  Hi 
    330  am_iomaster1_isr           0x000000e3   Wk    1  Code  Hi 
    331  am_iomaster2_isr           0x000000e3   Wk    1  Code  Hi 
    332  am_iomaster3_isr           0x000000e3   Wk    1  Code  Hi 
    333  am_iomaster4_isr           0x000000e3   Wk    1  Code  Hi 
    334  am_iomaster5_isr           0x000000e3   Wk    1  Code  Hi 
    335  am_ioslave_acc_isr         0x000000e3   Wk    1  Code  Hi 
    336  am_ioslave_ios_isr         0x000000e3   Wk    1  Code  Hi 
    337  am_pdm0_isr                0x000000e3   Wk    1  Code  Hi 
    338  am_pendsv_isr              0x000000e3   Wk    1  Code  Hi 
    339  am_software0_isr           0x000000e3   Wk    1  Code  Hi 
    340  am_software1_isr           0x000000e3   Wk    1  Code  Hi 
    341  am_software2_isr           0x000000e3   Wk    1  Code  Hi 
    342  am_software3_isr           0x000000e3   Wk    1  Code  Hi 
    343  am_stimer_cmpr0_isr        0x000000e3   Wk    1  Code  Hi 
    344  am_stimer_cmpr1_isr        0x000000e3   Wk    1  Code  Hi 
    345  am_stimer_cmpr2_isr        0x000000e3   Wk    1  Code  Hi 
    346  am_stimer_cmpr3_isr        0x000000e3   Wk    1  Code  Hi 
    347  am_stimer_cmpr4_isr        0x000000e3   Wk    1  Code  Hi 
    348  am_stimer_cmpr5_isr        0x000000e3   Wk    1  Code  Hi 
    349  am_stimer_cmpr6_isr        0x000000e3   Wk    1  Code  Hi 
    350  am_stimer_cmpr7_isr        0x000000e3   Wk    1  Code  Hi 
    351  am_stimer_isr              0x000000e3   Wk    1  Code  Hi 
    352  am_svcall_isr              0x000000e3   Wk    1  Code  Hi 
    353  am_systick_isr             0x000000e3   Wk    1  Code  Hi 
    354  am_uart0_isr               0x000000e3   Wk    1  Code  Hi 
    355  am_uart1_isr               0x000000e3   Wk    1  Code  Hi 
    356  am_uart_isr                0x000000e3   Wk    1  Code  Hi 
    357  am_vcomp_isr               0x000000e3   Wk    1  Code  Hi 
    358  am_watchdog_isr            0x000000e3   Wk    1  Code  Hi 
    359  __main                     0x000000e9   Gb    1  Code  Hi   0x8
    360  __scatterload              0x000000f1   Gb    1  Code  Hi 
    361  __scatterload_rt2          0x000000f1   Gb    1  Code  Hi   0x2c
    362  __scatterload_rt2_thumb_only
                                    0x000000f1   Gb    1  Code  Hi 
    363  __scatterload_null         0x000000ff   Gb    1  Code  Hi 
    364  __scatterload_copy         0x00000125   Gb    1  Code  Hi   0x1a
    365  __scatterload_zeroinit     0x00000141   Gb    1  Code  Hi   0x1c
    366  __rt_lib_init              0x0000015d   Gb    1  Code  De 
    367  __rt_lib_init_fp_1         0x0000015f   Gb    1  Code  Hi 
    368  __rt_lib_init_alloca_1     0x00000163   Gb    1  Code  Hi 
    369  __rt_lib_init_argv_1       0x00000163   Gb    1  Code  Hi 
    370  __rt_lib_init_atexit_1     0x00000163   Gb    1  Code  Hi 
    371  __rt_lib_init_clock_1      0x00000163   Gb    1  Code  Hi 
    372  __rt_lib_init_cpp_1        0x00000163   Gb    1  Code  Hi 
    373  __rt_lib_init_exceptions_1 0x00000163   Gb    1  Code  Hi 
    374  __rt_lib_init_fp_trap_1    0x00000163   Gb    1  Code  Hi 
    375  __rt_lib_init_getenv_1     0x00000163   Gb    1  Code  Hi 
    376  __rt_lib_init_heap_1       0x00000163   Gb    1  Code  Hi 
    377  __rt_lib_init_lc_collate_1 0x00000163   Gb    1  Code  Hi 
    378  __rt_lib_init_lc_ctype_1   0x00000163   Gb    1  Code  Hi 
    379  __rt_lib_init_lc_monetary_1
                                    0x00000163   Gb    1  Code  Hi 
    380  __rt_lib_init_lc_numeric_1 0x00000163   Gb    1  Code  Hi 
    381  __rt_lib_init_lc_time_1    0x00000163   Gb    1  Code  Hi 
    382  __rt_lib_init_preinit_1    0x00000163   Gb    1  Code  Hi 
    383  __rt_lib_init_rand_1       0x00000163   Gb    1  Code  Hi 
    384  __rt_lib_init_return       0x00000163   Gb    1  Code  Hi 
    385  __rt_lib_init_signal_1     0x00000163   Gb    1  Code  Hi 
    386  __rt_lib_init_stdio_1      0x00000163   Gb    1  Code  Hi 
    387  __rt_lib_init_user_alloc_1 0x00000163   Gb    1  Code  Hi 
    388  __rt_lib_shutdown          0x00000165   Gb    1  Code  De 
    389  __rt_lib_shutdown_cpp_1    0x00000167   Gb    1  Code  Hi 
    390  __rt_lib_shutdown_fp_trap_1
                                    0x00000167   Gb    1  Code  Hi 
    391  __rt_lib_shutdown_heap_1   0x00000167   Gb    1  Code  Hi 
    392  __rt_lib_shutdown_return   0x00000167   Gb    1  Code  Hi 
    393  __rt_lib_shutdown_signal_1 0x00000167   Gb    1  Code  Hi 
    394  __rt_lib_shutdown_stdio_1  0x00000167   Gb    1  Code  Hi 
    395  __rt_lib_shutdown_user_alloc_1
                                    0x00000167   Gb    1  Code  Hi 
    396  __rt_entry                 0x00000169   Gb    1  Code  Hi 
    397  __rt_entry_presh_1         0x00000169   Gb    1  Code  Hi 
    398  __rt_entry_sh              0x00000169   Gb    1  Code  Hi 
    399  __rt_entry_li              0x0000016f   Gb    1  Code  Hi 
    400  __rt_entry_postsh_1        0x0000016f   Gb    1  Code  Hi 
    401  __rt_entry_main            0x00000173   Gb    1  Code  Hi 
    402  __rt_entry_postli_1        0x00000173   Gb    1  Code  Hi 
    403  __rt_exit                  0x0000017b   Gb    1  Code  De 
    404  __rt_exit_ls               0x0000017d   Gb    1  Code  Hi 
    405  __rt_exit_prels_1          0x0000017d   Gb    1  Code  Hi 
    406  __rt_exit_exit             0x00000181   Gb    1  Code  Hi 
    407  am_hal_interrupt_master_enable
                                    0x00000189   Gb    1  Code  Hi   0x8
    408  am_hal_interrupt_master_disable
                                    0x00000191   Gb    1  Code  Hi   0x8
    409  am_hal_interrupt_master_set
                                    0x00000199   Gb    1  Code  Hi   0x6
    410  __asm___12_am_hal_iom_c_97762dd2__iom_workaround_loop
                                    0x000001a1   Gb    1  Code  Hi   0x20
    411  __user_initial_stackheap   0x000001c5   Gb    1  Code  Hi   0xa
    412  __use_two_region_memory    0x000001dd   Gb    1  Code  Hi   0x2
    413  __rt_heap_escrow$2region   0x000001df   Gb    1  Code  De   0x2
    414  __rt_heap_expand$2region   0x000001e1   Gb    1  Code  De   0x2
    415  __user_setup_stackheap     0x000001e3   Gb    1  Code  De   0x4a
    416  exit                       0x0000022d   Gb    1  Code  De   0x12
    417  __user_libspace            0x00000241   Wk    1  Code  De   0x8
    418  __user_perproc_libspace    0x00000241   Wk    1  Code  De 
    419  __user_perthread_libspace  0x00000241   Wk    1  Code  De 
    420  _sys_exit                  0x00000249   Gb    1  Code  De   0x8
    421  __I$use$semihosting        0x00000255   Gb    1  Code  Hi 
    422  __use_no_semihosting_swi   0x00000255   Gb    1  Code  Hi   0x2
    423  __semihosting_library_function
                                    0x00000257   Gb    1  Code  Hi 
    424  am_bsp_iom_enable          0x00000259   Gb    1  Code  Hi   0xd6
    425  am_bsp_low_power_init      0x0000033d   Gb    1  Code  Hi   0x22
    426  am_gpio_isr                0x0000035f   Gb    1  Code  Hi   0x16
    427  am_hal_cachectrl_enable    0x00000375   Gb    1  Code  Hi   0xcc
    428  am_hal_clkgen_osc_stop     0x00000445   Gb    1  Code  Hi   0x14
    429  am_hal_clkgen_sysclk_get   0x00000459   Gb    1  Code  Hi   0x18
    430  am_hal_clkgen_sysclk_select
                                    0x00000479   Gb    1  Code  Hi   0x20
    431  am_hal_ctimer_clear        0x000004e1   Gb    1  Code  Hi   0x24
    432  am_hal_ctimer_int_disable  0x00000509   Gb    1  Code  Hi   0x20
    433  am_hal_ctimer_int_enable   0x0000052d   Gb    1  Code  Hi   0x20
    434  am_hal_ctimer_start        0x00000551   Gb    1  Code  Hi   0x2a
    435  am_hal_debug_error         0x00000581   Wk    1  Code  Hi   0x2
    436  am_hal_flash_delay         0x00000585   Gb    1  Code  Hi   0x4
    437  am_hal_flash_delay_status_change
                                    0x0000058d   Gb    1  Code  Hi   0x30
    438  am_hal_gpio_int_clear      0x000005c1   Gb    1  Code  Hi   0x20
    439  am_hal_gpio_int_status_get 0x000005e5   Gb    1  Code  Hi   0x42
    440  am_hal_iom_config          0x0000062d   Gb    1  Code  Hi   0x26e
    441  am_hal_iom_enable          0x000008b9   Gb    1  Code  Hi   0x24
    442  am_hal_iom_fifo_read       0x000008e1   Gb    1  Code  Hi   0x90
    443  am_hal_iom_fifo_write      0x000009b9   Gb    1  Code  Hi   0xa4
    444  am_hal_iom_int_clear       0x00000aa1   Gb    1  Code  Hi   0x16
    445  am_hal_iom_pwrctrl_enable  0x00000ab9   Gb    1  Code  Hi   0x20
    446  am_hal_iom_sleeping_queue_flush
                                    0x00000b1d   Gb    1  Code  Hi   0x4e
    447  am_hal_iom_spi_read        0x00000b75   Gb    1  Code  Hi   0xee
    448  am_hal_iom_spi_read_nb     0x00000c75   Gb    1  Code  Hi   0x104
    449  am_hal_iom_spi_read_nq     0x00000d99   Gb    1  Code  Hi   0x164
    450  am_hal_iom_spi_write       0x00000f1d   Gb    1  Code  Hi   0xd4
    451  am_hal_iom_spi_write_nb    0x00001001   Gb    1  Code  Hi   0x108
    452  am_hal_iom_spi_write_nq    0x0000111d   Gb    1  Code  Hi   0x148
    453  am_hal_iom_workaround_word_write
                                    0x0000127d   Gb    1  Code  Hi   0x4ac
    454  am_hal_pwrctrl_bucks_disable
                                    0x00001729   Gb    1  Code  Hi   0x44
    455  am_hal_pwrctrl_bucks_enable
                                    0x00001775   Gb    1  Code  Hi   0x2e
    456  am_hal_pwrctrl_bucks_init  0x000017a9   Gb    1  Code  Hi   0x3c
    457  am_hal_pwrctrl_low_power_init
                                    0x000017e9   Gb    1  Code  Hi   0x14
    458  am_hal_pwrctrl_memory_enable
                                    0x00001801   Gb    1  Code  Hi   0x174
    459  am_hal_pwrctrl_periph_enable
                                    0x00001981   Gb    1  Code  Hi   0x70
    460  am_hal_queue_item_add      0x00001a3d   Gb    1  Code  Hi   0x9e
    461  am_hal_rtc_osc_disable     0x00001adb   Gb    1  Code  Hi   0xe
    462  am_hal_rtc_osc_select      0x00001ae9   Gb    1  Code  Hi   0x16
    463  am_hal_sysctrl_sleep       0x00001b01   Gb    1  Code  Hi   0xfa
    464  am_hal_vcomp_disable       0x00001c0d   Gb    1  Code  Hi   0x8
    465  am_util_delay_us           0x00001c19   Gb    1  Code  Hi   0x1c
    466  configure_pins             0x00001c39   Gb    1  Code  Hi   0x140
    467  main                       0x00001db9   Gb    1  Code  Hi   0x7a
    468  override_pin_set           0x00001e49   Gb    1  Code  Hi   0x78
    469  start_boot_mode            0x00001f49   Gb    1  Code  Hi   0xc6
    470  start_new_image            0x00002015   Gb    1  Code  Hi   0x92
    471  transfer_image             0x000020b9   Gb    1  Code  Hi   0xa4
    472  _fp_init                   0x0000216d   Gb    1  Code  De   0xa
    473  __fplib_config_fpu_vfp     0x00002175   Gb    1  Code  De 
    474  __fplib_config_pureend_doubles
                                    0x00002175   Gb    1  Code  De 
    475  g_pui8Apollo2BootDemo      0x00002178   Gb    1  Data  Hi   0x1c0a
    476  g_sIOMConfig               0x00003d84   Gb    1  Data  Hi   0xc
    477  am_hal_cachectrl_defaults  0x00003d90   Gb    1  Data  Hi   0xc
    478  i2c_bb_errmap              0x00003d9c   Gb    1  Data  Hi   0x5
    479  g_IOMPads                  0x00003da1   Gb    1  Data  Hi   0x27
    480  g_I2CPads                  0x00003dc8   Gb    1  Data  Hi   0x15
    481  Region$$Table$$Base        0x00003de0   Gb    1   --   Hi 
    482  Region$$Table$$Limit       0x00003e00   Gb    1   --   Hi 
    483  g_ui32HALflags             0x10000000   Gb    2  Data  Hi   0x4
    484  am_hal_iom_queue_flush     0x10000034   Gb    2  Data  Hi   0x4
    485  g_bIomBusy                 0x10000038   Gb    2  Data  Hi   0x7
    486  g_psTxBuffer               0x10000064   Gb    3  Data  Hi   0x100
    487  g_psRxBuffer               0x10000164   Gb    3  Data  Hi   0x100
    488  pui32ExpandedKey           0x10000264   Gb    3  Data  Hi   0xf0
    489  g_psIOMBuffers             0x10000354   Gb    3  Data  Hi   0x78
    490  ui32StatusTimeout          0x100003cc   Gb    3  Data  Hi   0x18
    491  g_psIOMQueue               0x100003e4   Gb    3  Data  Hi   0x90
    492  am_hal_iom_pwrsave         0x10000474   Gb    3  Data  Hi   0x78
    493  __libspace_start           0x100004ec   Gb    3  Data  De   0x60
    494  __temporary_stack_top$libspace
                                    0x1000054c   Gb    3  Data  De 


** Section #12 '.strtab' (SHT_STRTAB)
    Size   : 7600 bytes

            #  Offset String
        ====================================

            1      1: $d
            2      4: $t
            3      7: $d.realdata
            4     19: ../src/spi_boot_host.c
            5     42: i.am_gpio_isr
            6     56: i.configure_pins
            7     73: i.main
            8     80: i.override_pin_set
            9     99: i.start_boot_mode
           10    117: i.start_new_image
           11    135: i.transfer_image
           12    152: .bss
           13    157: .constdata
           14    168: ../../../../../utils/am_util_delay.c
           15    205: i.am_util_delay_us
           16    224: ../../../../../utils/am_util_stdio.c
           17    261: ../keil/startup_keil.s
           18    284: STACK
           19    290: StackMem
           20    299: HEAP
           21    304: HeapMem
           22    312: RESET
           23    318: $v0
           24    322: .text
           25    328: ..\am_hal_global.c
           26    347: ../am_hal_global.c
           27    366: .data
           28    372: ../am_bsp.c
           29    384: i.am_bsp_iom_enable
           30    404: i.am_bsp_low_power_init
           31    428: g_SPIpins
           32    438: ../am_hal_cachectrl.c
           33    460: i.am_hal_cachectrl_enable
           34    486: ../am_hal_clkgen.c
           35    505: i.am_hal_clkgen_osc_stop
           36    530: i.am_hal_clkgen_sysclk_get
           37    557: i.am_hal_clkgen_sysclk_select
           38    587: ../am_hal_flash.c
           39    605: i.am_hal_flash_delay
           40    626: i.am_hal_flash_delay_status_change
           41    661: ../am_hal_gpio.c
           42    678: i.am_hal_gpio_int_clear
           43    702: i.am_hal_gpio_int_status_get
           44    731: ..\am_hal_interrupt.c
           45    753: .emb_text
           46    763: ../am_hal_interrupt.c
           47    785: ..\am_hal_iom.c
           48    801: ../am_hal_iom.c
           49    817: i.am_hal_iom_config
           50    837: i.am_hal_iom_enable
           51    857: i.am_hal_iom_fifo_read
           52    880: i.am_hal_iom_fifo_write
           53    904: i.am_hal_iom_int_clear
           54    927: i.am_hal_iom_pwrctrl_enable
           55    955: i.am_hal_iom_sleeping_queue_flush
           56    989: i.am_hal_iom_spi_read
           57   1011: i.am_hal_iom_spi_read_nb
           58   1036: i.am_hal_iom_spi_read_nq
           59   1061: i.am_hal_iom_spi_write
           60   1084: i.am_hal_iom_spi_write_nb
           61   1110: i.am_hal_iom_spi_write_nq
           62   1136: i.am_hal_iom_workaround_word_write
           63   1171: i.internal_iom_get_int_err
           64   1198: internal_iom_get_int_err
           65   1223: g_iom_error_status
           66   1242: ../am_hal_debug.c
           67   1260: i.am_hal_debug_error
           68   1281: ../am_hal_i2c_bit_bang.c
           69   1306: ../am_hal_itm.c
           70   1322: ../am_hal_pwrctrl.c
           71   1342: i.am_hal_pwrctrl_bucks_disable
           72   1373: i.am_hal_pwrctrl_bucks_enable
           73   1403: i.am_hal_pwrctrl_bucks_init
           74   1431: i.am_hal_pwrctrl_low_power_init
           75   1463: i.am_hal_pwrctrl_memory_enable
           76   1494: i.am_hal_pwrctrl_periph_enable
           77   1525: ../am_hal_queue.c
           78   1543: i.am_hal_queue_item_add
           79   1567: ../am_hal_rtc.c
           80   1583: i.am_hal_rtc_osc_disable
           81   1608: i.am_hal_rtc_osc_select
           82   1632: ../am_hal_sysctrl.c
           83   1652: i.am_hal_sysctrl_sleep
           84   1675: i.setBuckZX
           85   1687: setBuckZX
           86   1697: g_bBuckRestoreComplete
           87   1720: g_ui32BuckTimer
           88   1736: g_ui32BuckInputs
           89   1753: g_buckZX_chk
           90   1766: g_ui32SaveCoreBuckZX
           91   1787: g_ui32SaveMemBuckZX
           92   1807: g_ui32CoreBuck
           93   1822: ../am_hal_tpiu.c
           94   1839: ../am_hal_uart.c
           95   1856: ../am_hal_vcomp.c
           96   1874: i.am_hal_vcomp_disable
           97   1897: ../am_hal_ctimer.c
           98   1916: i.am_hal_ctimer_clear
           99   1938: i.am_hal_ctimer_int_disable
          100   1966: i.am_hal_ctimer_int_enable
          101   1993: i.am_hal_ctimer_start
          102   2015: dc.s
          103   2020: ../clib/longlong.s
          104   2039: ../clib/heapaux.c
          105   2057: ../clib/angel/startup.s
          106   2081: !!!main
          107   2089: ../fplib/d2f.s
          108   2104: ../clib/angel/kernel.s
          109   2127: .ARM.Collect$$rtentry$$00000000
          110   2159: ../fplib/dnaninf.s
          111   2178: ../fplib/fretinf.s
          112   2197: ../fplib/usenofp.s
          113   2216: .ARM.Collect$$rtentry$$00000002
          114   2248: .ARM.Collect$$rtentry$$00000009
          115   2280: .ARM.Collect$$rtentry$$0000000A
          116   2312: .ARM.Collect$$rtentry$$0000000C
          117   2344: .ARM.Collect$$rtentry$$0000000D
          118   2376: .ARM.Collect$$rtentry$$00000004
          119   2408: ../clib/angel/sys.s
          120   2428: ../clib/stdlib.c
          121   2445: ../clib/angel/boardlib.s
          122   2470: ../clib/libinit.s
          123   2488: .ARM.Collect$$libinit$$00000000
          124   2520: .ARM.Collect$$rtexit$$00000000
          125   2551: .ARM.Collect$$libinit$$00000001
          126   2583: .ARM.Collect$$libinit$$00000004
          127   2615: .ARM.Collect$$libinit$$0000000A
          128   2647: .ARM.Collect$$libinit$$0000000C
          129   2679: .ARM.Collect$$libinit$$0000000E
          130   2711: .ARM.Collect$$libinit$$00000011
          131   2743: .ARM.Collect$$libinit$$00000013
          132   2775: .ARM.Collect$$libinit$$00000015
          133   2807: .ARM.Collect$$libinit$$00000017
          134   2839: .ARM.Collect$$libinit$$00000019
          135   2871: .ARM.Collect$$libinit$$0000001B
          136   2903: .ARM.Collect$$libinit$$0000001D
          137   2935: .ARM.Collect$$libinit$$0000001F
          138   2967: .ARM.Collect$$libinit$$00000021
          139   2999: .ARM.Collect$$libinit$$00000023
          140   3031: .ARM.Collect$$libinit$$00000025
          141   3063: .ARM.Collect$$libinit$$0000002C
          142   3095: .ARM.Collect$$libinit$$0000002E
          143   3127: .ARM.Collect$$libinit$$00000030
          144   3159: .ARM.Collect$$libinit$$00000032
          145   3191: .ARM.Collect$$libinit$$00000033
          146   3223: .ARM.Collect$$rtexit$$00000002
          147   3254: .ARM.Collect$$rtexit$$00000003
          148   3285: .ARM.Collect$$rtexit$$00000004
          149   3316: ../clib/armsys.c
          150   3333: ../fplib/fpinit.s
          151   3351: x$fpl$fpinit
          152   3364: ../clib/angel/sysapp.c
          153   3387: .ARM.Collect$$libshutdown$$00000000
          154   3423: ../clib/heapalloc.c
          155   3443: ../clib/signal.c
          156   3460: .ARM.Collect$$libshutdown$$00000002
          157   3496: .ARM.Collect$$libshutdown$$00000004
          158   3532: .ARM.Collect$$libshutdown$$00000007
          159   3568: .ARM.Collect$$libshutdown$$0000000A
          160   3604: .ARM.Collect$$libshutdown$$0000000C
          161   3640: .ARM.Collect$$libshutdown$$0000000F
          162   3676: .ARM.Collect$$libshutdown$$00000010
          163   3712: ../clib/angel/rt.s
          164   3731: ../clib/signal.s
          165   3748: ../clib/angel/scatter.s
          166   3772: !!!scatter
          167   3783: ../clib/angel/handlers.s
          168   3808: !!handler_copy
          169   3823: !!handler_zi
          170   3836: BuildAttributes$$THM_ISAv4$E$P$D$K$B$S$7EM$VFPi3$EXTD16$VFPS$VFMA$PE$A:L22UL41UL21$X:L11$S22US41US21$IEEE1$IW$USESV6$~STKCKD$USESV7$~SHL$OTIME$ROPI$EBA8$UX$STANDARDLIB$REQ8$PRES8$EABIv2
          171   4022: __ARM_use_no_argv
          172   4040: __Vectors
          173   4050: Reset_Handler
          174   4064: am_nmi_isr
          175   4075: am_fault_isr
          176   4088: am_memmanage_isr
          177   4105: am_adc_isr
          178   4116: am_brownout_isr
          179   4132: am_clkgen_isr
          180   4146: am_ctimer_isr
          181   4160: am_debugmon_isr
          182   4176: am_flash_isr
          183   4189: am_iomaster0_isr
          184   4206: am_iomaster1_isr
          185   4223: am_iomaster2_isr
          186   4240: am_iomaster3_isr
          187   4257: am_iomaster4_isr
          188   4274: am_iomaster5_isr
          189   4291: am_ioslave_acc_isr
          190   4310: am_ioslave_ios_isr
          191   4329: am_pdm0_isr
          192   4341: am_pendsv_isr
          193   4355: am_software0_isr
          194   4372: am_software1_isr
          195   4389: am_software2_isr
          196   4406: am_software3_isr
          197   4423: am_stimer_cmpr0_isr
          198   4443: am_stimer_cmpr1_isr
          199   4463: am_stimer_cmpr2_isr
          200   4483: am_stimer_cmpr3_isr
          201   4503: am_stimer_cmpr4_isr
          202   4523: am_stimer_cmpr5_isr
          203   4543: am_stimer_cmpr6_isr
          204   4563: am_stimer_cmpr7_isr
          205   4583: am_stimer_isr
          206   4597: am_svcall_isr
          207   4611: am_systick_isr
          208   4626: am_uart0_isr
          209   4639: am_uart1_isr
          210   4652: am_uart_isr
          211   4664: am_vcomp_isr
          212   4677: am_watchdog_isr
          213   4693: __main
          214   4700: __scatterload
          215   4714: __scatterload_rt2
          216   4732: __scatterload_rt2_thumb_only
          217   4761: __scatterload_null
          218   4780: __scatterload_copy
          219   4799: __scatterload_zeroinit
          220   4822: __rt_lib_init
          221   4836: __rt_lib_init_fp_1
          222   4855: __rt_lib_init_alloca_1
          223   4878: __rt_lib_init_argv_1
          224   4899: __rt_lib_init_atexit_1
          225   4922: __rt_lib_init_clock_1
          226   4944: __rt_lib_init_cpp_1
          227   4964: __rt_lib_init_exceptions_1
          228   4991: __rt_lib_init_fp_trap_1
          229   5015: __rt_lib_init_getenv_1
          230   5038: __rt_lib_init_heap_1
          231   5059: __rt_lib_init_lc_collate_1
          232   5086: __rt_lib_init_lc_ctype_1
          233   5111: __rt_lib_init_lc_monetary_1
          234   5139: __rt_lib_init_lc_numeric_1
          235   5166: __rt_lib_init_lc_time_1
          236   5190: __rt_lib_init_preinit_1
          237   5214: __rt_lib_init_rand_1
          238   5235: __rt_lib_init_return
          239   5256: __rt_lib_init_signal_1
          240   5279: __rt_lib_init_stdio_1
          241   5301: __rt_lib_init_user_alloc_1
          242   5328: __rt_lib_shutdown
          243   5346: __rt_lib_shutdown_cpp_1
          244   5370: __rt_lib_shutdown_fp_trap_1
          245   5398: __rt_lib_shutdown_heap_1
          246   5423: __rt_lib_shutdown_return
          247   5448: __rt_lib_shutdown_signal_1
          248   5475: __rt_lib_shutdown_stdio_1
          249   5501: __rt_lib_shutdown_user_alloc_1
          250   5532: __rt_entry
          251   5543: __rt_entry_presh_1
          252   5562: __rt_entry_sh
          253   5576: __rt_entry_li
          254   5590: __rt_entry_postsh_1
          255   5610: __rt_entry_main
          256   5626: __rt_entry_postli_1
          257   5646: __rt_exit
          258   5656: __rt_exit_ls
          259   5669: __rt_exit_prels_1
          260   5687: __rt_exit_exit
          261   5702: am_hal_interrupt_master_enable
          262   5733: am_hal_interrupt_master_disable
          263   5765: am_hal_interrupt_master_set
          264   5793: __asm___12_am_hal_iom_c_97762dd2__iom_workaround_loop
          265   5847: __user_initial_stackheap
          266   5872: __use_two_region_memory
          267   5896: __rt_heap_escrow$2region
          268   5921: __rt_heap_expand$2region
          269   5946: __user_setup_stackheap
          270   5969: exit
          271   5974: __user_libspace
          272   5990: __user_perproc_libspace
          273   6014: __user_perthread_libspace
          274   6040: _sys_exit
          275   6050: __I$use$semihosting
          276   6070: __use_no_semihosting_swi
          277   6095: __semihosting_library_function
          278   6126: am_bsp_iom_enable
          279   6144: am_bsp_low_power_init
          280   6166: am_gpio_isr
          281   6178: am_hal_cachectrl_enable
          282   6202: am_hal_clkgen_osc_stop
          283   6225: am_hal_clkgen_sysclk_get
          284   6250: am_hal_clkgen_sysclk_select
          285   6278: am_hal_ctimer_clear
          286   6298: am_hal_ctimer_int_disable
          287   6324: am_hal_ctimer_int_enable
          288   6349: am_hal_ctimer_start
          289   6369: am_hal_debug_error
          290   6388: am_hal_flash_delay
          291   6407: am_hal_flash_delay_status_change
          292   6440: am_hal_gpio_int_clear
          293   6462: am_hal_gpio_int_status_get
          294   6489: am_hal_iom_config
          295   6507: am_hal_iom_enable
          296   6525: am_hal_iom_fifo_read
          297   6546: am_hal_iom_fifo_write
          298   6568: am_hal_iom_int_clear
          299   6589: am_hal_iom_pwrctrl_enable
          300   6615: am_hal_iom_sleeping_queue_flush
          301   6647: am_hal_iom_spi_read
          302   6667: am_hal_iom_spi_read_nb
          303   6690: am_hal_iom_spi_read_nq
          304   6713: am_hal_iom_spi_write
          305   6734: am_hal_iom_spi_write_nb
          306   6758: am_hal_iom_spi_write_nq
          307   6782: am_hal_iom_workaround_word_write
          308   6815: am_hal_pwrctrl_bucks_disable
          309   6844: am_hal_pwrctrl_bucks_enable
          310   6872: am_hal_pwrctrl_bucks_init
          311   6898: am_hal_pwrctrl_low_power_init
          312   6928: am_hal_pwrctrl_memory_enable
          313   6957: am_hal_pwrctrl_periph_enable
          314   6986: am_hal_queue_item_add
          315   7008: am_hal_rtc_osc_disable
          316   7031: am_hal_rtc_osc_select
          317   7053: am_hal_sysctrl_sleep
          318   7074: am_hal_vcomp_disable
          319   7095: am_util_delay_us
          320   7112: configure_pins
          321   7127: main
          322   7132: override_pin_set
          323   7149: start_boot_mode
          324   7165: start_new_image
          325   7181: transfer_image
          326   7196: _fp_init
          327   7205: __fplib_config_fpu_vfp
          328   7228: __fplib_config_pureend_doubles
          329   7259: g_pui8Apollo2BootDemo
          330   7281: g_sIOMConfig
          331   7294: am_hal_cachectrl_defaults
          332   7320: i2c_bb_errmap
          333   7334: g_IOMPads
          334   7344: g_I2CPads
          335   7354: Region$$Table$$Base
          336   7374: Region$$Table$$Limit
          337   7395: g_ui32HALflags
          338   7410: am_hal_iom_queue_flush
          339   7433: g_bIomBusy
          340   7444: g_psTxBuffer
          341   7457: g_psRxBuffer
          342   7470: pui32ExpandedKey
          343   7487: g_psIOMBuffers
          344   7502: ui32StatusTimeout
          345   7520: g_psIOMQueue
          346   7533: am_hal_iom_pwrsave
          347   7552: __libspace_start
          348   7569: __temporary_stack_top$libspace


** Section #13 '.note' (SHT_NOTE)
    Size   : 28 bytes (alignment 4)


** Section #14 '.comment' (SHT_PROGBITS)
    Size   : 15352 bytes


** Section #15 '.shstrtab' (SHT_STRTAB)
    Size   : 148 bytes

            #  Offset String
        ====================================

            1      1: FLASH
            2      7: SRAM
            3     12: .debug_abbrev
            4     26: .debug_frame
            5     39: .debug_info
            6     51: .debug_line
            7     63: .debug_loc
            8     74: .debug_macinfo
            9     89: .debug_pubnames
           10    105: .symtab
           11    113: .strtab
           12    121: .note
           13    127: .comment
           14    136: .shstrtab
           15    146: 
           16    147: 


