
========================================================================

** ELF Header Information

    File Name: bin\multi_boot.axf

    Machine class: ELFCLASS32 (32-bit)
    Data encoding: ELFDATA2LSB (Little endian)
    Header version: EV_CURRENT (Current version)
    Operating System ABI: none
    ABI Version: 0
    File Type: ET_EXEC (Executable) (2)
    Machine: EM_ARM (ARM)

    Image Entry point: 0x000000e9
    Flags: EF_ARM_HASENTRY + EF_ARM_ABI_FLOAT_HARD (0x05000402)

    ARM ELF revision: 5 (ABI version 2)

    Conforms to Hard float procedure-call standard

    Built with
    Component: ARM Compiler 5.06 update 6 (build 750) Tool: armasm [4d35ec]
    Component: ARM Compiler 5.06 update 6 (build 750) Tool: armlink [4d35ed]

    Header size: 52 bytes (0x34)
    Program header entry size: 32 bytes (0x20)
    Section header entry size: 40 bytes (0x28)

    Program header entries: 1
    Section header entries: 16

    Program header offset: 97256 (0x00017be8)
    Section header offset: 97288 (0x00017c08)

    Section header string table index: 15

========================================================================

** Program header #0 (PT_LOAD) [PF_X + PF_W + PF_R + PF_ARM_ENTRY]
    Size : 21796 bytes (8836 bytes in file)
    Virtual address: 0x00000000 (Alignment 8)


========================================================================

** Section #1 'FLASH' (SHT_PROGBITS) [SHF_ALLOC + SHF_EXECINSTR]
    Size   : 8596 bytes (alignment 4)
    Address: 0x00000000

    $d
    RESET
    __Vectors
        0x00000000:    10003390    .3..    DCD    268448656
        0x00000004:    000000c1    ....    DCD    193
        0x00000008:    000000dd    ....    DCD    221
        0x0000000c:    000000df    ....    DCD    223
        0x00000010:    000000df    ....    DCD    223
        0x00000014:    000000df    ....    DCD    223
        0x00000018:    000000df    ....    DCD    223
        0x0000001c:    00000000    ....    DCD    0
        0x00000020:    00000000    ....    DCD    0
        0x00000024:    00000000    ....    DCD    0
        0x00000028:    00000000    ....    DCD    0
        0x0000002c:    000000e3    ....    DCD    227
        0x00000030:    000000e3    ....    DCD    227
        0x00000034:    00000000    ....    DCD    0
        0x00000038:    000000e3    ....    DCD    227
        0x0000003c:    000000e3    ....    DCD    227
        0x00000040:    000000e3    ....    DCD    227
        0x00000044:    000000e3    ....    DCD    227
        0x00000048:    000000e3    ....    DCD    227
        0x0000004c:    000000e3    ....    DCD    227
        0x00000050:    000000e3    ....    DCD    227
        0x00000054:    000000e3    ....    DCD    227
        0x00000058:    000000e3    ....    DCD    227
        0x0000005c:    000000e3    ....    DCD    227
        0x00000060:    000000e3    ....    DCD    227
        0x00000064:    000000e3    ....    DCD    227
        0x00000068:    000000e3    ....    DCD    227
        0x0000006c:    000000e3    ....    DCD    227
        0x00000070:    0000056d    m...    DCD    1389
        0x00000074:    000000e3    ....    DCD    227
        0x00000078:    0000169d    ....    DCD    5789
        0x0000007c:    000000e3    ....    DCD    227
        0x00000080:    000000e3    ....    DCD    227
        0x00000084:    000000e3    ....    DCD    227
        0x00000088:    000000e3    ....    DCD    227
        0x0000008c:    000000e3    ....    DCD    227
        0x00000090:    000000e3    ....    DCD    227
        0x00000094:    000000e3    ....    DCD    227
        0x00000098:    000000e3    ....    DCD    227
        0x0000009c:    000000e3    ....    DCD    227
        0x000000a0:    000000e3    ....    DCD    227
        0x000000a4:    000000e3    ....    DCD    227
        0x000000a8:    000000e3    ....    DCD    227
        0x000000ac:    000000e3    ....    DCD    227
        0x000000b0:    000000e3    ....    DCD    227
        0x000000b4:    000000e3    ....    DCD    227
        0x000000b8:    000000e3    ....    DCD    227
        0x000000bc:    000000e3    ....    DCD    227
    $t
    $v0
    Reset_Handler
        0x000000c0:    f64e5088    N..P    MOV      r0,#0xed88
        0x000000c4:    f2ce0000    ....    MOVT     r0,#0xe000
        0x000000c8:    6801        .h      LDR      r1,[r0,#0]
        0x000000ca:    f4410170    A.p.    ORR      r1,r1,#0xf00000
        0x000000ce:    6001        .`      STR      r1,[r0,#0]
        0x000000d0:    f3bf8f4f    ..O.    DSB      
        0x000000d4:    f3bf8f6f    ..o.    ISB      
        0x000000d8:    4802        .H      LDR      r0,[pc,#8] ; [0xe4] = 0xe9
        0x000000da:    4700        .G      BX       r0
    am_nmi_isr
        0x000000dc:    e7fe        ..      B        am_nmi_isr ; 0xdc
    am_fault_isr
        0x000000de:    e7fe        ..      B        am_fault_isr ; 0xde
    am_memmanage_isr
        0x000000e0:    e7fe        ..      B        am_memmanage_isr ; 0xe0
    am_adc_isr
    am_brownout_isr
    am_clkgen_isr
    am_ctimer_isr
    am_debugmon_isr
    am_flash_isr
    am_iomaster0_isr
    am_iomaster1_isr
    am_iomaster2_isr
    am_iomaster3_isr
    am_iomaster4_isr
    am_iomaster5_isr
    am_ioslave_acc_isr
    am_ioslave_ios_isr
    am_pdm0_isr
    am_pendsv_isr
    am_software0_isr
    am_software1_isr
    am_software2_isr
    am_software3_isr
    am_stimer_cmpr0_isr
    am_stimer_cmpr1_isr
    am_stimer_cmpr2_isr
    am_stimer_cmpr3_isr
    am_stimer_cmpr4_isr
    am_stimer_cmpr5_isr
    am_stimer_cmpr6_isr
    am_stimer_cmpr7_isr
    am_stimer_isr
    am_svcall_isr
    am_systick_isr
    am_uart0_isr
    am_uart1_isr
    am_vcomp_isr
    am_watchdog_isr
        0x000000e2:    e7fe        ..      B        am_adc_isr ; 0xe2
    $d
        0x000000e4:    000000e9    ....    DCD    233
    $t
    !!!main
    __main
        0x000000e8:    f000f802    ....    BL       __scatterload ; 0xf0
        0x000000ec:    f000f83c    ..<.    BL       __rt_entry ; 0x168
    !!!scatter
    __scatterload
    __scatterload_rt2
    __scatterload_rt2_thumb_only
        0x000000f0:    a00a        ..      ADR      r0,{pc}+0x2c ; 0x11c
        0x000000f2:    e8900c00    ....    LDM      r0,{r10,r11}
        0x000000f6:    4482        .D      ADD      r10,r10,r0
        0x000000f8:    4483        .D      ADD      r11,r11,r0
        0x000000fa:    f1aa0701    ....    SUB      r7,r10,#1
    __scatterload_null
        0x000000fe:    45da        .E      CMP      r10,r11
        0x00000100:    d101        ..      BNE      0x106 ; __scatterload_null + 8
        0x00000102:    f000f831    ..1.    BL       __rt_entry ; 0x168
        0x00000106:    f2af0e09    ....    ADR      lr,{pc}-7 ; 0xff
        0x0000010a:    e8ba000f    ....    LDM      r10!,{r0-r3}
        0x0000010e:    f0130f01    ....    TST      r3,#1
        0x00000112:    bf18        ..      IT       NE
        0x00000114:    1afb        ..      SUBNE    r3,r7,r3
        0x00000116:    f0430301    C...    ORR      r3,r3,#1
        0x0000011a:    4718        .G      BX       r3
    $d
        0x0000011c:    00002058    X ..    DCD    8280
        0x00000120:    00002078    x ..    DCD    8312
    $t
    !!handler_copy
    __scatterload_copy
        0x00000124:    3a10        .:      SUBS     r2,r2,#0x10
        0x00000126:    bf24        $.      ITT      CS
        0x00000128:    c878        x.      LDMCS    r0!,{r3-r6}
        0x0000012a:    c178        x.      STMCS    r1!,{r3-r6}
        0x0000012c:    d8fa        ..      BHI      __scatterload_copy ; 0x124
        0x0000012e:    0752        R.      LSLS     r2,r2,#29
        0x00000130:    bf24        $.      ITT      CS
        0x00000132:    c830        0.      LDMCS    r0!,{r4,r5}
        0x00000134:    c130        0.      STMCS    r1!,{r4,r5}
        0x00000136:    bf44        D.      ITT      MI
        0x00000138:    6804        .h      LDRMI    r4,[r0,#0]
        0x0000013a:    600c        .`      STRMI    r4,[r1,#0]
        0x0000013c:    4770        pG      BX       lr
        0x0000013e:    0000        ..      MOVS     r0,r0
    !!handler_zi
    __scatterload_zeroinit
        0x00000140:    2300        .#      MOVS     r3,#0
        0x00000142:    2400        .$      MOVS     r4,#0
        0x00000144:    2500        .%      MOVS     r5,#0
        0x00000146:    2600        .&      MOVS     r6,#0
        0x00000148:    3a10        .:      SUBS     r2,r2,#0x10
        0x0000014a:    bf28        (.      IT       CS
        0x0000014c:    c178        x.      STMCS    r1!,{r3-r6}
        0x0000014e:    d8fb        ..      BHI      0x148 ; __scatterload_zeroinit + 8
        0x00000150:    0752        R.      LSLS     r2,r2,#29
        0x00000152:    bf28        (.      IT       CS
        0x00000154:    c130        0.      STMCS    r1!,{r4,r5}
        0x00000156:    bf48        H.      IT       MI
        0x00000158:    600b        .`      STRMI    r3,[r1,#0]
        0x0000015a:    4770        pG      BX       lr
    .ARM.Collect$$libinit$$00000000
    __rt_lib_init
        0x0000015c:    b51f        ..      PUSH     {r0-r4,lr}
    .ARM.Collect$$libinit$$00000001
    __rt_lib_init_fp_1
        0x0000015e:    f001fde3    ....    BL       _fp_init ; 0x1d28
    .ARM.Collect$$libinit$$00000004
    .ARM.Collect$$libinit$$0000000A
    .ARM.Collect$$libinit$$0000000C
    .ARM.Collect$$libinit$$0000000E
    .ARM.Collect$$libinit$$00000011
    .ARM.Collect$$libinit$$00000013
    .ARM.Collect$$libinit$$00000015
    .ARM.Collect$$libinit$$00000017
    .ARM.Collect$$libinit$$00000019
    .ARM.Collect$$libinit$$0000001B
    .ARM.Collect$$libinit$$0000001D
    .ARM.Collect$$libinit$$0000001F
    .ARM.Collect$$libinit$$00000021
    .ARM.Collect$$libinit$$00000023
    .ARM.Collect$$libinit$$00000025
    .ARM.Collect$$libinit$$0000002C
    .ARM.Collect$$libinit$$0000002E
    .ARM.Collect$$libinit$$00000030
    .ARM.Collect$$libinit$$00000032
    .ARM.Collect$$libinit$$00000033
    __rt_lib_init_alloca_1
    __rt_lib_init_argv_1
    __rt_lib_init_atexit_1
    __rt_lib_init_clock_1
    __rt_lib_init_cpp_1
    __rt_lib_init_exceptions_1
    __rt_lib_init_fp_trap_1
    __rt_lib_init_getenv_1
    __rt_lib_init_heap_1
    __rt_lib_init_lc_collate_1
    __rt_lib_init_lc_ctype_1
    __rt_lib_init_lc_monetary_1
    __rt_lib_init_lc_numeric_1
    __rt_lib_init_lc_time_1
    __rt_lib_init_preinit_1
    __rt_lib_init_rand_1
    __rt_lib_init_return
    __rt_lib_init_signal_1
    __rt_lib_init_stdio_1
    __rt_lib_init_user_alloc_1
        0x00000162:    bd1f        ..      POP      {r0-r4,pc}
    .ARM.Collect$$libshutdown$$00000000
    __rt_lib_shutdown
        0x00000164:    b510        ..      PUSH     {r4,lr}
    .ARM.Collect$$libshutdown$$00000002
    .ARM.Collect$$libshutdown$$00000004
    .ARM.Collect$$libshutdown$$00000007
    .ARM.Collect$$libshutdown$$0000000A
    .ARM.Collect$$libshutdown$$0000000C
    .ARM.Collect$$libshutdown$$0000000F
    .ARM.Collect$$libshutdown$$00000010
    __rt_lib_shutdown_cpp_1
    __rt_lib_shutdown_fp_trap_1
    __rt_lib_shutdown_heap_1
    __rt_lib_shutdown_return
    __rt_lib_shutdown_signal_1
    __rt_lib_shutdown_stdio_1
    __rt_lib_shutdown_user_alloc_1
        0x00000166:    bd10        ..      POP      {r4,pc}
    .ARM.Collect$$rtentry$$00000000
    .ARM.Collect$$rtentry$$00000002
    .ARM.Collect$$rtentry$$00000004
    __rt_entry
    __rt_entry_presh_1
    __rt_entry_sh
        0x00000168:    f000f8c7    ....    BL       __user_setup_stackheap ; 0x2fa
        0x0000016c:    4611        .F      MOV      r1,r2
    .ARM.Collect$$rtentry$$00000009
    .ARM.Collect$$rtentry$$0000000A
    __rt_entry_li
    __rt_entry_postsh_1
        0x0000016e:    f7fffff5    ....    BL       __rt_lib_init ; 0x15c
    .ARM.Collect$$rtentry$$0000000C
    .ARM.Collect$$rtentry$$0000000D
    __rt_entry_main
    __rt_entry_postli_1
        0x00000172:    f001fbe1    ....    BL       main ; 0x1938
        0x00000176:    f000f8e5    ....    BL       exit ; 0x344
    .ARM.Collect$$rtexit$$00000000
    __rt_exit
        0x0000017a:    b403        ..      PUSH     {r0,r1}
    .ARM.Collect$$rtexit$$00000002
    .ARM.Collect$$rtexit$$00000003
    __rt_exit_ls
    __rt_exit_prels_1
        0x0000017c:    f7fffff2    ....    BL       __rt_lib_shutdown ; 0x164
    .ARM.Collect$$rtexit$$00000004
    __rt_exit_exit
        0x00000180:    bc03        ..      POP      {r0,r1}
        0x00000182:    f000f8ed    ....    BL       _sys_exit ; 0x360
        0x00000186:    0000        ..      MOVS     r0,r0
    .emb_text
    $v0
    am_bootloader_encrypted_image_run
        0x00000188:    6941        Ai      LDR      r1,[r0,#0x14]
        0x0000018a:    6982        .i      LDR      r2,[r0,#0x18]
        0x0000018c:    6800        .h      LDR      r0,[r0,#0]
        0x0000018e:    f64e5308    N..S    MOV      r3,#0xed08
        0x00000192:    f2ce0300    ....    MOVT     r3,#0xe000
        0x00000196:    6018        .`      STR      r0,[r3,#0]
        0x00000198:    468d        .F      MOV      sp,r1
        0x0000019a:    4710        .G      BX       r2
    am_bootloader_clear_image_run
        0x0000019c:    6800        .h      LDR      r0,[r0,#0]
        0x0000019e:    f64e5308    N..S    MOV      r3,#0xed08
        0x000001a2:    f2ce0300    ....    MOVT     r3,#0xe000
        0x000001a6:    6018        .`      STR      r0,[r3,#0]
        0x000001a8:    6801        .h      LDR      r1,[r0,#0]
        0x000001aa:    6842        Bh      LDR      r2,[r0,#4]
        0x000001ac:    468d        .F      MOV      sp,r1
        0x000001ae:    4710        .G      BX       r2
    .emb_text
    $v0
    am_hal_interrupt_master_enable
        0x000001b0:    f3ef8010    ....    MRS      r0,PRIMASK
        0x000001b4:    b662        b.      CPSIE    i
        0x000001b6:    4770        pG      BX       lr
    am_hal_interrupt_master_disable
        0x000001b8:    f3ef8010    ....    MRS      r0,PRIMASK
        0x000001bc:    b672        r.      CPSID    i
        0x000001be:    4770        pG      BX       lr
    am_hal_interrupt_master_set
        0x000001c0:    f3808810    ....    MSR      PRIMASK,r0
        0x000001c4:    4770        pG      BX       lr
        0x000001c6:    0000        ..      MOVS     r0,r0
    .text
    $v0
    __user_initial_stackheap
        0x000001c8:    4802        .H      LDR      r0,[pc,#8] ; [0x1d4] = 0x10002390
        0x000001ca:    4903        .I      LDR      r1,[pc,#12] ; [0x1d8] = 0x10003390
        0x000001cc:    4a01        .J      LDR      r2,[pc,#4] ; [0x1d4] = 0x10002390
        0x000001ce:    4b03        .K      LDR      r3,[pc,#12] ; [0x1dc] = 0x10002390
        0x000001d0:    4770        pG      BX       lr
    $d
        0x000001d2:    0000        ..      DCW    0
        0x000001d4:    10002390    .#..    DCD    268444560
        0x000001d8:    10003390    .3..    DCD    268448656
        0x000001dc:    10002390    .#..    DCD    268444560
    $t
    .text
    __aeabi_llsl
    _ll_shift_l
        0x000001e0:    f1b20320    .. .    SUBS     r3,r2,#0x20
        0x000001e4:    d50a        ..      BPL      0x1fc ; __aeabi_llsl + 28
        0x000001e6:    f1c20320    .. .    RSB      r3,r2,#0x20
        0x000001ea:    fa01f102    ....    LSL      r1,r1,r2
        0x000001ee:    fa20f303     ...    LSR      r3,r0,r3
        0x000001f2:    fa00f002    ....    LSL      r0,r0,r2
        0x000001f6:    ea410103    A...    ORR      r1,r1,r3
        0x000001fa:    4770        pG      BX       lr
        0x000001fc:    fa00f103    ....    LSL      r1,r0,r3
        0x00000200:    f04f0000    O...    MOV      r0,#0
        0x00000204:    4770        pG      BX       lr
    .text
    __aeabi_memcpy
    __rt_memcpy
        0x00000206:    2a03        .*      CMP      r2,#3
        0x00000208:    f2408030    @.0.    BLS.W    _memcpy_lastbytes ; 0x26c
        0x0000020c:    f0100c03    ....    ANDS     r12,r0,#3
        0x00000210:    f0008015    ....    BEQ.W    0x23e ; __aeabi_memcpy + 56
        0x00000214:    f8113b01    ...;    LDRB     r3,[r1],#1
        0x00000218:    f1bc0f02    ....    CMP      r12,#2
        0x0000021c:    4462        bD      ADD      r2,r2,r12
        0x0000021e:    bf98        ..      IT       LS
        0x00000220:    f811cb01    ....    LDRBLS   r12,[r1],#1
        0x00000224:    f8003b01    ...;    STRB     r3,[r0],#1
        0x00000228:    bf38        8.      IT       CC
        0x0000022a:    f8113b01    ...;    LDRBCC   r3,[r1],#1
        0x0000022e:    f1a20204    ....    SUB      r2,r2,#4
        0x00000232:    bf98        ..      IT       LS
        0x00000234:    f800cb01    ....    STRBLS   r12,[r0],#1
        0x00000238:    bf38        8.      IT       CC
        0x0000023a:    f8003b01    ...;    STRBCC   r3,[r0],#1
        0x0000023e:    f0110303    ....    ANDS     r3,r1,#3
        0x00000242:    f0008028    ..(.    BEQ.W    __aeabi_memcpy4 ; 0x296
        0x00000246:    3a08        .:      SUBS     r2,r2,#8
        0x00000248:    f0c08008    ....    BCC.W    0x25c ; __aeabi_memcpy + 86
        0x0000024c:    f8513b04    Q..;    LDR      r3,[r1],#4
        0x00000250:    3a08        .:      SUBS     r2,r2,#8
        0x00000252:    f851cb04    Q...    LDR      r12,[r1],#4
        0x00000256:    e8a01008    ....    STM      r0!,{r3,r12}
        0x0000025a:    e7f5        ..      B        0x248 ; __aeabi_memcpy + 66
        0x0000025c:    1d12        ..      ADDS     r2,r2,#4
        0x0000025e:    bf5c        \.      ITT      PL
        0x00000260:    f8513b04    Q..;    LDRPL    r3,[r1],#4
        0x00000264:    f8403b04    @..;    STRPL    r3,[r0],#4
        0x00000268:    f3af8000    ....    NOP.W    
    _memcpy_lastbytes
        0x0000026c:    07d2        ..      LSLS     r2,r2,#31
        0x0000026e:    bf24        $.      ITT      CS
        0x00000270:    f8113b01    ...;    LDRBCS   r3,[r1],#1
        0x00000274:    f811cb01    ....    LDRBCS   r12,[r1],#1
        0x00000278:    bf48        H.      IT       MI
        0x0000027a:    f8112b01    ...+    LDRBMI   r2,[r1],#1
        0x0000027e:    bf24        $.      ITT      CS
        0x00000280:    f8003b01    ...;    STRBCS   r3,[r0],#1
        0x00000284:    f800cb01    ....    STRBCS   r12,[r0],#1
        0x00000288:    bf48        H.      IT       MI
        0x0000028a:    f8002b01    ...+    STRBMI   r2,[r0],#1
        0x0000028e:    4770        pG      BX       lr
    .text
    __use_two_region_memory
        0x00000290:    4770        pG      BX       lr
    __rt_heap_escrow$2region
        0x00000292:    4770        pG      BX       lr
    __rt_heap_expand$2region
        0x00000294:    4770        pG      BX       lr
    .text
    __aeabi_memcpy4
    __aeabi_memcpy8
    __rt_memcpy_w
        0x00000296:    b510        ..      PUSH     {r4,lr}
        0x00000298:    3a20         :      SUBS     r2,r2,#0x20
        0x0000029a:    f0c0800b    ....    BCC.W    0x2b4 ; __aeabi_memcpy4 + 30
        0x0000029e:    e8b15018    ...P    LDM      r1!,{r3,r4,r12,lr}
        0x000002a2:    3a20         :      SUBS     r2,r2,#0x20
        0x000002a4:    e8a05018    ...P    STM      r0!,{r3,r4,r12,lr}
        0x000002a8:    e8b15018    ...P    LDM      r1!,{r3,r4,r12,lr}
        0x000002ac:    e8a05018    ...P    STM      r0!,{r3,r4,r12,lr}
        0x000002b0:    f4bfaff5    ....    BCS.W    0x29e ; __aeabi_memcpy4 + 8
        0x000002b4:    ea5f7c02    _..|    LSLS     r12,r2,#28
        0x000002b8:    bf24        $.      ITT      CS
        0x000002ba:    e8b15018    ...P    LDMCS    r1!,{r3,r4,r12,lr}
        0x000002be:    e8a05018    ...P    STMCS    r0!,{r3,r4,r12,lr}
        0x000002c2:    bf44        D.      ITT      MI
        0x000002c4:    c918        ..      LDMMI    r1!,{r3,r4}
        0x000002c6:    c018        ..      STMMI    r0!,{r3,r4}
        0x000002c8:    e8bd4010    ...@    POP      {r4,lr}
        0x000002cc:    ea5f7c82    _..|    LSLS     r12,r2,#30
        0x000002d0:    bf24        $.      ITT      CS
        0x000002d2:    f8513b04    Q..;    LDRCS    r3,[r1],#4
        0x000002d6:    f8403b04    @..;    STRCS    r3,[r0],#4
        0x000002da:    bf08        ..      IT       EQ
        0x000002dc:    4770        pG      BXEQ     lr
    _memcpy_lastbytes_aligned
        0x000002de:    07d2        ..      LSLS     r2,r2,#31
        0x000002e0:    bf28        (.      IT       CS
        0x000002e2:    f8313b02    1..;    LDRHCS   r3,[r1],#2
        0x000002e6:    bf48        H.      IT       MI
        0x000002e8:    f8112b01    ...+    LDRBMI   r2,[r1],#1
        0x000002ec:    bf28        (.      IT       CS
        0x000002ee:    f8203b02     ..;    STRHCS   r3,[r0],#2
        0x000002f2:    bf48        H.      IT       MI
        0x000002f4:    f8002b01    ...+    STRBMI   r2,[r0],#1
        0x000002f8:    4770        pG      BX       lr
    .text
    __user_setup_stackheap
        0x000002fa:    4675        uF      MOV      r5,lr
        0x000002fc:    f000f82c    ..,.    BL       __user_libspace ; 0x358
        0x00000300:    46ae        .F      MOV      lr,r5
        0x00000302:    0005        ..      MOVS     r5,r0
        0x00000304:    4669        iF      MOV      r1,sp
        0x00000306:    4653        SF      MOV      r3,r10
        0x00000308:    f0200007     ...    BIC      r0,r0,#7
        0x0000030c:    4685        .F      MOV      sp,r0
        0x0000030e:    b018        ..      ADD      sp,sp,#0x60
        0x00000310:    b520         .      PUSH     {r5,lr}
        0x00000312:    f7ffff59    ..Y.    BL       __user_initial_stackheap ; 0x1c8
        0x00000316:    e8bd4020    .. @    POP      {r5,lr}
        0x0000031a:    f04f0600    O...    MOV      r6,#0
        0x0000031e:    f04f0700    O...    MOV      r7,#0
        0x00000322:    f04f0800    O...    MOV      r8,#0
        0x00000326:    f04f0b00    O...    MOV      r11,#0
        0x0000032a:    f0210107    !...    BIC      r1,r1,#7
        0x0000032e:    46ac        .F      MOV      r12,r5
        0x00000330:    e8ac09c0    ....    STM      r12!,{r6-r8,r11}
        0x00000334:    e8ac09c0    ....    STM      r12!,{r6-r8,r11}
        0x00000338:    e8ac09c0    ....    STM      r12!,{r6-r8,r11}
        0x0000033c:    e8ac09c0    ....    STM      r12!,{r6-r8,r11}
        0x00000340:    468d        .F      MOV      sp,r1
        0x00000342:    4770        pG      BX       lr
    .text
    exit
        0x00000344:    b510        ..      PUSH     {r4,lr}
        0x00000346:    4604        .F      MOV      r4,r0
        0x00000348:    f3af8000    ....    NOP.W    
        0x0000034c:    4620         F      MOV      r0,r4
        0x0000034e:    e8bd4010    ...@    POP      {r4,lr}
        0x00000352:    f7ffbf12    ....    B.W      __rt_exit ; 0x17a
        0x00000356:    0000        ..      MOVS     r0,r0
    .text
    __user_libspace
    __user_perproc_libspace
    __user_perthread_libspace
        0x00000358:    4800        .H      LDR      r0,[pc,#0] ; [0x35c] = 0x10002330
        0x0000035a:    4770        pG      BX       lr
    $d
        0x0000035c:    10002330    0#..    DCD    268444464
    $t
    .text
    _sys_exit
        0x00000360:    4901        .I      LDR      r1,[pc,#4] ; [0x368] = 0x20026
        0x00000362:    2018        .       MOVS     r0,#0x18
        0x00000364:    beab        ..      BKPT     #0xab
        0x00000366:    e7fe        ..      B        0x366 ; _sys_exit + 6
    $d
        0x00000368:    00020026    &...    DCD    131110
    $t
    .text
    __I$use$semihosting
    __use_no_semihosting_swi
        0x0000036c:    4770        pG      BX       lr
    i.am_bootloader_check_index
    .text
    __semihosting_library_function
    am_bootloader_check_index
        0x0000036e:    b510        ..      PUSH     {r4,lr}
        0x00000370:    4602        .F      MOV      r2,r0
        0x00000372:    680b        .h      LDR      r3,[r1,#0]
        0x00000374:    2a1f        .*      CMP      r2,#0x1f
        0x00000376:    d901        ..      BLS      0x37c ; __semihosting_library_function + 14
        0x00000378:    2001        .       MOVS     r0,#1
        0x0000037a:    bd10        ..      POP      {r4,pc}
        0x0000037c:    f1c2041f    ....    RSB      r4,r2,#0x1f
        0x00000380:    2001        .       MOVS     r0,#1
        0x00000382:    40a0        .@      LSLS     r0,r0,r4
        0x00000384:    4018        .@      ANDS     r0,r0,r3
        0x00000386:    b108        ..      CBZ      r0,0x38c ; __semihosting_library_function + 30
        0x00000388:    2000        .       MOVS     r0,#0
        0x0000038a:    e7f6        ..      B        0x37a ; __semihosting_library_function + 12
        0x0000038c:    2001        .       MOVS     r0,#1
        0x0000038e:    e7f4        ..      B        0x37a ; __semihosting_library_function + 12
    i.am_bootloader_erase_flash_page
    am_bootloader_erase_flash_page
        0x00000390:    e92d41f0    -..A    PUSH     {r4-r8,lr}
        0x00000394:    4604        .F      MOV      r4,r0
        0x00000396:    f3c43545    ..E5    UBFX     r5,r4,#13,#6
        0x0000039a:    f3c446c0    ...F    UBFX     r6,r4,#19,#1
        0x0000039e:    f7ffff0b    ....    BL       am_hal_interrupt_master_disable ; 0x1b8
        0x000003a2:    4607        .F      MOV      r7,r0
        0x000003a4:    462a        *F      MOV      r2,r5
        0x000003a6:    4631        1F      MOV      r1,r6
        0x000003a8:    4803        .H      LDR      r0,[pc,#12] ; [0x3b8] = 0x12344321
        0x000003aa:    f000faf5    ....    BL       am_hal_flash_page_erase ; 0x998
        0x000003ae:    4638        8F      MOV      r0,r7
        0x000003b0:    f7ffff06    ....    BL       am_hal_interrupt_master_set ; 0x1c0
        0x000003b4:    e8bd81f0    ....    POP      {r4-r8,pc}
    $d
        0x000003b8:    12344321    !C4.    DCD    305414945
    $t
    i.am_bootloader_fast_crc32
    am_bootloader_fast_crc32
        0x000003bc:    b570        p.      PUSH     {r4-r6,lr}
        0x000003be:    4602        .F      MOV      r2,r0
        0x000003c0:    460b        .F      MOV      r3,r1
        0x000003c2:    2000        .       MOVS     r0,#0
        0x000003c4:    4615        .F      MOV      r5,r2
        0x000003c6:    2100        .!      MOVS     r1,#0
        0x000003c8:    e008        ..      B        0x3dc ; am_bootloader_fast_crc32 + 32
        0x000003ca:    5c6e        n\      LDRB     r6,[r5,r1]
        0x000003cc:    ea866410    ...d    EOR      r4,r6,r0,LSR #24
        0x000003d0:    4e04        .N      LDR      r6,[pc,#16] ; [0x3e4] = 0x1d34
        0x000003d2:    f8566024    V.$`    LDR      r6,[r6,r4,LSL #2]
        0x000003d6:    ea862000    ...     EOR      r0,r6,r0,LSL #8
        0x000003da:    1c49        I.      ADDS     r1,r1,#1
        0x000003dc:    4299        .B      CMP      r1,r3
        0x000003de:    d3f4        ..      BCC      0x3ca ; am_bootloader_fast_crc32 + 14
        0x000003e0:    bd70        p.      POP      {r4-r6,pc}
    $d
        0x000003e2:    0000        ..      DCW    0
        0x000003e4:    00001d34    4...    DCD    7476
    $t
    i.am_bootloader_flag_page_update
    am_bootloader_flag_page_update
        0x000003e8:    e92d47f0    -..G    PUSH     {r4-r10,lr}
        0x000003ec:    4604        .F      MOV      r4,r0
        0x000003ee:    460d        .F      MOV      r5,r1
        0x000003f0:    2000        .       MOVS     r0,#0
        0x000003f2:    6220         b      STR      r0,[r4,#0x20]
        0x000003f4:    f3c53745    ..E7    UBFX     r7,r5,#13,#6
        0x000003f8:    f3c546c0    ...F    UBFX     r6,r5,#19,#1
        0x000003fc:    f1040220    .. .    ADD      r2,r4,#0x20
        0x00000400:    2120         !      MOVS     r1,#0x20
        0x00000402:    4620         F      MOV      r0,r4
        0x00000404:    f000f85a    ..Z.    BL       am_bootloader_partial_crc32 ; 0x4bc
        0x00000408:    f7fffed6    ....    BL       am_hal_interrupt_master_disable ; 0x1b8
        0x0000040c:    4681        .F      MOV      r9,r0
        0x0000040e:    463a        :F      MOV      r2,r7
        0x00000410:    4631        1F      MOV      r1,r6
        0x00000412:    4808        .H      LDR      r0,[pc,#32] ; [0x434] = 0x12344321
        0x00000414:    f000fac0    ....    BL       am_hal_flash_page_erase ; 0x998
        0x00000418:    4680        .F      MOV      r8,r0
        0x0000041a:    2309        .#      MOVS     r3,#9
        0x0000041c:    462a        *F      MOV      r2,r5
        0x0000041e:    4621        !F      MOV      r1,r4
        0x00000420:    4804        .H      LDR      r0,[pc,#16] ; [0x434] = 0x12344321
        0x00000422:    f000fabd    ....    BL       am_hal_flash_program_main ; 0x9a0
        0x00000426:    4680        .F      MOV      r8,r0
        0x00000428:    4648        HF      MOV      r0,r9
        0x0000042a:    f7fffec9    ....    BL       am_hal_interrupt_master_set ; 0x1c0
        0x0000042e:    4640        @F      MOV      r0,r8
        0x00000430:    e8bd87f0    ....    POP      {r4-r10,pc}
    $d
        0x00000434:    12344321    !C4.    DCD    305414945
    $t
    i.am_bootloader_flash_check
    am_bootloader_flash_check
        0x00000438:    b5f0        ..      PUSH     {r4-r7,lr}
        0x0000043a:    b08d        ..      SUB      sp,sp,#0x34
        0x0000043c:    4604        .F      MOV      r4,r0
        0x0000043e:    6827        'h      LDR      r7,[r4,#0]
        0x00000440:    a801        ..      ADD      r0,sp,#4
        0x00000442:    f000fb5f    .._.    BL       am_hal_mcuctrl_device_info_get ; 0xb04
        0x00000446:    bf00        ..      NOP      
        0x00000448:    9807        ..      LDR      r0,[sp,#0x1c]
        0x0000044a:    42b8        .B      CMP      r0,r7
        0x0000044c:    d802        ..      BHI      0x454 ; am_bootloader_flash_check + 28
        0x0000044e:    2000        .       MOVS     r0,#0
        0x00000450:    b00d        ..      ADD      sp,sp,#0x34
        0x00000452:    bdf0        ..      POP      {r4-r7,pc}
        0x00000454:    69e0        .i      LDR      r0,[r4,#0x1c]
        0x00000456:    b920         .      CBNZ     r0,0x462 ; am_bootloader_flash_check + 42
        0x00000458:    6820         h      LDR      r0,[r4,#0]
        0x0000045a:    6806        .h      LDR      r6,[r0,#0]
        0x0000045c:    6820         h      LDR      r0,[r4,#0]
        0x0000045e:    6845        Eh      LDR      r5,[r0,#4]
        0x00000460:    e001        ..      B        0x466 ; am_bootloader_flash_check + 46
        0x00000462:    6966        fi      LDR      r6,[r4,#0x14]
        0x00000464:    69a5        .i      LDR      r5,[r4,#0x18]
        0x00000466:    f1b65f80    ..._    CMP      r6,#0x10000000
        0x0000046a:    d304        ..      BCC      0x476 ; am_bootloader_flash_check + 62
        0x0000046c:    9808        ..      LDR      r0,[sp,#0x20]
        0x0000046e:    f1005080    ...P    ADD      r0,r0,#0x10000000
        0x00000472:    42b0        .B      CMP      r0,r6
        0x00000474:    d801        ..      BHI      0x47a ; am_bootloader_flash_check + 66
        0x00000476:    2000        .       MOVS     r0,#0
        0x00000478:    e7ea        ..      B        0x450 ; am_bootloader_flash_check + 24
        0x0000047a:    42bd        .B      CMP      r5,r7
        0x0000047c:    d303        ..      BCC      0x486 ; am_bootloader_flash_check + 78
        0x0000047e:    6860        `h      LDR      r0,[r4,#4]
        0x00000480:    4438        8D      ADD      r0,r0,r7
        0x00000482:    42a8        .B      CMP      r0,r5
        0x00000484:    d801        ..      BHI      0x48a ; am_bootloader_flash_check + 82
        0x00000486:    2000        .       MOVS     r0,#0
        0x00000488:    e7e2        ..      B        0x450 ; am_bootloader_flash_check + 24
        0x0000048a:    69e0        .i      LDR      r0,[r4,#0x1c]
        0x0000048c:    b940        @.      CBNZ     r0,0x4a0 ; am_bootloader_flash_check + 104
        0x0000048e:    e9d40100    ....    LDRD     r0,r1,[r4,#0]
        0x00000492:    f7ffff93    ....    BL       am_bootloader_fast_crc32 ; 0x3bc
        0x00000496:    68a1        .h      LDR      r1,[r4,#8]
        0x00000498:    4288        .B      CMP      r0,r1
        0x0000049a:    d001        ..      BEQ      0x4a0 ; am_bootloader_flash_check + 104
        0x0000049c:    2000        .       MOVS     r0,#0
        0x0000049e:    e7d7        ..      B        0x450 ; am_bootloader_flash_check + 24
        0x000004a0:    2001        .       MOVS     r0,#1
        0x000004a2:    e7d5        ..      B        0x450 ; am_bootloader_flash_check + 24
    i.am_bootloader_image_run
    am_bootloader_image_run
        0x000004a4:    b510        ..      PUSH     {r4,lr}
        0x000004a6:    4604        .F      MOV      r4,r0
        0x000004a8:    69e0        .i      LDR      r0,[r4,#0x1c]
        0x000004aa:    b118        ..      CBZ      r0,0x4b4 ; am_bootloader_image_run + 16
        0x000004ac:    4620         F      MOV      r0,r4
        0x000004ae:    f7fffe6b    ..k.    BL       am_bootloader_encrypted_image_run ; 0x188
        0x000004b2:    e002        ..      B        0x4ba ; am_bootloader_image_run + 22
        0x000004b4:    4620         F      MOV      r0,r4
        0x000004b6:    f7fffe71    ..q.    BL       am_bootloader_clear_image_run ; 0x19c
        0x000004ba:    bd10        ..      POP      {r4,pc}
    i.am_bootloader_partial_crc32
    am_bootloader_partial_crc32
        0x000004bc:    b5f0        ..      PUSH     {r4-r7,lr}
        0x000004be:    4603        .F      MOV      r3,r0
        0x000004c0:    460c        .F      MOV      r4,r1
        0x000004c2:    6811        .h      LDR      r1,[r2,#0]
        0x000004c4:    461e        .F      MOV      r6,r3
        0x000004c6:    2000        .       MOVS     r0,#0
        0x000004c8:    e008        ..      B        0x4dc ; am_bootloader_partial_crc32 + 32
        0x000004ca:    5c37        7\      LDRB     r7,[r6,r0]
        0x000004cc:    ea876511    ...e    EOR      r5,r7,r1,LSR #24
        0x000004d0:    4f04        .O      LDR      r7,[pc,#16] ; [0x4e4] = 0x1d34
        0x000004d2:    f8577025    W.%p    LDR      r7,[r7,r5,LSL #2]
        0x000004d6:    ea872101    ...!    EOR      r1,r7,r1,LSL #8
        0x000004da:    1c40        @.      ADDS     r0,r0,#1
        0x000004dc:    42a0        .B      CMP      r0,r4
        0x000004de:    d3f4        ..      BCC      0x4ca ; am_bootloader_partial_crc32 + 14
        0x000004e0:    6011        .`      STR      r1,[r2,#0]
        0x000004e2:    bdf0        ..      POP      {r4-r7,pc}
    $d
        0x000004e4:    00001d34    4...    DCD    7476
    $t
    i.am_bootloader_program_flash_page
    am_bootloader_program_flash_page
        0x000004e8:    e92d41f0    -..A    PUSH     {r4-r8,lr}
        0x000004ec:    4604        .F      MOV      r4,r0
        0x000004ee:    460e        .F      MOV      r6,r1
        0x000004f0:    4615        .F      MOV      r5,r2
        0x000004f2:    4620         F      MOV      r0,r4
        0x000004f4:    f7ffff4c    ..L.    BL       am_bootloader_erase_flash_page ; 0x390
        0x000004f8:    1ce8        ..      ADDS     r0,r5,#3
        0x000004fa:    0887        ..      LSRS     r7,r0,#2
        0x000004fc:    f7fffe5c    ..\.    BL       am_hal_interrupt_master_disable ; 0x1b8
        0x00000500:    4680        .F      MOV      r8,r0
        0x00000502:    463b        ;F      MOV      r3,r7
        0x00000504:    4622        "F      MOV      r2,r4
        0x00000506:    4631        1F      MOV      r1,r6
        0x00000508:    4803        .H      LDR      r0,[pc,#12] ; [0x518] = 0x12344321
        0x0000050a:    f000fa49    ..I.    BL       am_hal_flash_program_main ; 0x9a0
        0x0000050e:    4640        @F      MOV      r0,r8
        0x00000510:    f7fffe56    ..V.    BL       am_hal_interrupt_master_set ; 0x1c0
        0x00000514:    e8bd81f0    ....    POP      {r4-r8,pc}
    $d
        0x00000518:    12344321    !C4.    DCD    305414945
    $t
    i.am_bootloader_validate_structure
    am_bootloader_validate_structure
        0x0000051c:    b578        x.      PUSH     {r3-r6,lr}
        0x0000051e:    4605        .F      MOV      r5,r0
        0x00000520:    460c        .F      MOV      r4,r1
        0x00000522:    2000        .       MOVS     r0,#0
        0x00000524:    9000        ..      STR      r0,[sp,#0]
        0x00000526:    08a0        ..      LSRS     r0,r4,#2
        0x00000528:    eb050080    ....    ADD      r0,r5,r0,LSL #2
        0x0000052c:    1f06        ..      SUBS     r6,r0,#4
        0x0000052e:    1f21        !.      SUBS     r1,r4,#4
        0x00000530:    466a        jF      MOV      r2,sp
        0x00000532:    4628        (F      MOV      r0,r5
        0x00000534:    f7ffffc2    ....    BL       am_bootloader_partial_crc32 ; 0x4bc
        0x00000538:    6830        0h      LDR      r0,[r6,#0]
        0x0000053a:    9900        ..      LDR      r1,[sp,#0]
        0x0000053c:    4288        .B      CMP      r0,r1
        0x0000053e:    d001        ..      BEQ      0x544 ; am_bootloader_validate_structure + 40
        0x00000540:    2000        .       MOVS     r0,#0
        0x00000542:    bd78        x.      POP      {r3-r6,pc}
        0x00000544:    2001        .       MOVS     r0,#1
        0x00000546:    e7fc        ..      B        0x542 ; am_bootloader_validate_structure + 38
    i.am_bsp_low_power_init
    am_bsp_low_power_init
        0x00000548:    b510        ..      PUSH     {r4,lr}
        0x0000054a:    f000fb7b    ..{.    BL       am_hal_pwrctrl_bucks_init ; 0xc44
        0x0000054e:    f000fb99    ....    BL       am_hal_pwrctrl_low_power_init ; 0xc84
        0x00000552:    f000fdbb    ....    BL       am_hal_vcomp_disable ; 0x10cc
        0x00000556:    2001        .       MOVS     r0,#1
        0x00000558:    f000fc0a    ....    BL       am_hal_rtc_osc_select ; 0xd70
        0x0000055c:    2001        .       MOVS     r0,#1
        0x0000055e:    f000f94b    ..K.    BL       am_hal_clkgen_osc_stop ; 0x7f8
        0x00000562:    e8bd4010    ...@    POP      {r4,lr}
        0x00000566:    f000bbfc    ....    B.W      am_hal_rtc_osc_disable ; 0xd62
        0x0000056a:    0000        ..      MOVS     r0,r0
    i.am_gpio_isr
    am_gpio_isr
        0x0000056c:    b510        ..      PUSH     {r4,lr}
        0x0000056e:    2017        .       MOVS     r0,#0x17
        0x00000570:    f000fe74    ..t.    BL       am_multiboot_uart_detect_baudrate ; 0x125c
        0x00000574:    4604        .F      MOV      r4,r0
        0x00000576:    4621        !F      MOV      r1,r4
        0x00000578:    2000        .       MOVS     r0,#0
        0x0000057a:    f000fe25    ..%.    BL       am_multiboot_setup_serial ; 0x11c8
        0x0000057e:    2155        U!      MOVS     r1,#0x55
        0x00000580:    2000        .       MOVS     r0,#0
        0x00000582:    f000fc9b    ....    BL       am_hal_uart_char_transmit_polled ; 0xebc
        0x00000586:    2001        .       MOVS     r0,#1
        0x00000588:    4901        .I      LDR      r1,[pc,#4] ; [0x590] = 0x10000000
        0x0000058a:    7008        .p      STRB     r0,[r1,#0]
        0x0000058c:    bd10        ..      POP      {r4,pc}
    $d
        0x0000058e:    0000        ..      DCW    0
        0x00000590:    10000000    ....    DCD    268435456
    $t
    i.am_hal_bootloader_override_check
    am_hal_bootloader_override_check
        0x00000594:    b538        8.      PUSH     {r3-r5,lr}
        0x00000596:    4604        .F      MOV      r4,r0
        0x00000598:    68e0        .h      LDR      r0,[r4,#0xc]
        0x0000059a:    1c40        @.      ADDS     r0,r0,#1
        0x0000059c:    2800        .(      CMP      r0,#0
        0x0000059e:    d07d        }.      BEQ      0x69c ; am_hal_bootloader_override_check + 264
        0x000005a0:    68e0        .h      LDR      r0,[r4,#0xc]
        0x000005a2:    2832        2(      CMP      r0,#0x32
        0x000005a4:    d255        U.      BCS      0x652 ; am_hal_bootloader_override_check + 190
        0x000005a6:    f7fffe07    ....    BL       am_hal_interrupt_master_disable ; 0x1b8
        0x000005aa:    9000        ..      STR      r0,[sp,#0]
        0x000005ac:    2073        s       MOVS     r0,#0x73
        0x000005ae:    4991        .I      LDR      r1,[pc,#580] ; [0x7f4] = 0x40010000
        0x000005b0:    6608        .f      STR      r0,[r1,#0x60]
        0x000005b2:    7b20         {      LDRB     r0,[r4,#0xc]
        0x000005b4:    f00000f8    ....    AND      r0,r0,#0xf8
        0x000005b8:    eb010050    ..P.    ADD      r0,r1,r0,LSR #1
        0x000005bc:    6c00        .l      LDR      r0,[r0,#0x40]
        0x000005be:    7b21        !{      LDRB     r1,[r4,#0xc]
        0x000005c0:    0749        I.      LSLS     r1,r1,#29
        0x000005c2:    0eca        ..      LSRS     r2,r1,#27
        0x000005c4:    2107        .!      MOVS     r1,#7
        0x000005c6:    4091        .@      LSLS     r1,r1,r2
        0x000005c8:    4388        .C      BICS     r0,r0,r1
        0x000005ca:    7b21        !{      LDRB     r1,[r4,#0xc]
        0x000005cc:    0749        I.      LSLS     r1,r1,#29
        0x000005ce:    0eca        ..      LSRS     r2,r1,#27
        0x000005d0:    2100        .!      MOVS     r1,#0
        0x000005d2:    4091        .@      LSLS     r1,r1,r2
        0x000005d4:    4308        .C      ORRS     r0,r0,r1
        0x000005d6:    7b21        !{      LDRB     r1,[r4,#0xc]
        0x000005d8:    f00101f8    ....    AND      r1,r1,#0xf8
        0x000005dc:    4a85        .J      LDR      r2,[pc,#532] ; [0x7f4] = 0x40010000
        0x000005de:    eb020151    ..Q.    ADD      r1,r2,r1,LSR #1
        0x000005e2:    6408        .d      STR      r0,[r1,#0x40]
        0x000005e4:    7b20         {      LDRB     r0,[r4,#0xc]
        0x000005e6:    f00000fc    ....    AND      r0,r0,#0xfc
        0x000005ea:    4611        .F      MOV      r1,r2
        0x000005ec:    5840        @X      LDR      r0,[r0,r1]
        0x000005ee:    7b21        !{      LDRB     r1,[r4,#0xc]
        0x000005f0:    0789        ..      LSLS     r1,r1,#30
        0x000005f2:    0eca        ..      LSRS     r2,r1,#27
        0x000005f4:    21ff        .!      MOVS     r1,#0xff
        0x000005f6:    4091        .@      LSLS     r1,r1,r2
        0x000005f8:    4388        .C      BICS     r0,r0,r1
        0x000005fa:    7b21        !{      LDRB     r1,[r4,#0xc]
        0x000005fc:    0789        ..      LSLS     r1,r1,#30
        0x000005fe:    0eca        ..      LSRS     r2,r1,#27
        0x00000600:    211a        .!      MOVS     r1,#0x1a
        0x00000602:    4091        .@      LSLS     r1,r1,r2
        0x00000604:    4308        .C      ORRS     r0,r0,r1
        0x00000606:    7b21        !{      LDRB     r1,[r4,#0xc]
        0x00000608:    f00101fc    ....    AND      r1,r1,#0xfc
        0x0000060c:    4a79        yJ      LDR      r2,[pc,#484] ; [0x7f4] = 0x40010000
        0x0000060e:    5088        .P      STR      r0,[r1,r2]
        0x00000610:    7b20         {      LDRB     r0,[r4,#0xc]
        0x00000612:    f00000fc    ....    AND      r0,r0,#0xfc
        0x00000616:    4611        .F      MOV      r1,r2
        0x00000618:    4408        .D      ADD      r0,r0,r1
        0x0000061a:    f8d000e0    ....    LDR      r0,[r0,#0xe0]
        0x0000061e:    7b21        !{      LDRB     r1,[r4,#0xc]
        0x00000620:    0789        ..      LSLS     r1,r1,#30
        0x00000622:    0eca        ..      LSRS     r2,r1,#27
        0x00000624:    21ff        .!      MOVS     r1,#0xff
        0x00000626:    4091        .@      LSLS     r1,r1,r2
        0x00000628:    4388        .C      BICS     r0,r0,r1
        0x0000062a:    7b21        !{      LDRB     r1,[r4,#0xc]
        0x0000062c:    0789        ..      LSLS     r1,r1,#30
        0x0000062e:    0eca        ..      LSRS     r2,r1,#27
        0x00000630:    2100        .!      MOVS     r1,#0
        0x00000632:    4091        .@      LSLS     r1,r1,r2
        0x00000634:    4308        .C      ORRS     r0,r0,r1
        0x00000636:    7b21        !{      LDRB     r1,[r4,#0xc]
        0x00000638:    f00101fc    ....    AND      r1,r1,#0xfc
        0x0000063c:    4a6d        mJ      LDR      r2,[pc,#436] ; [0x7f4] = 0x40010000
        0x0000063e:    4411        .D      ADD      r1,r1,r2
        0x00000640:    f8c100e0    ....    STR      r0,[r1,#0xe0]
        0x00000644:    2000        .       MOVS     r0,#0
        0x00000646:    4611        .F      MOV      r1,r2
        0x00000648:    6608        .f      STR      r0,[r1,#0x60]
        0x0000064a:    9800        ..      LDR      r0,[sp,#0]
        0x0000064c:    f7fffdb8    ....    BL       am_hal_interrupt_master_set ; 0x1c0
        0x00000650:    bf00        ..      NOP      
        0x00000652:    7b20         {      LDRB     r0,[r4,#0xc]
        0x00000654:    f0000020    .. .    AND      r0,r0,#0x20
        0x00000658:    4966        fI      LDR      r1,[pc,#408] ; [0x7f4] = 0x40010000
        0x0000065a:    eb0100d0    ....    ADD      r0,r1,r0,LSR #3
        0x0000065e:    f8d00080    ....    LDR      r0,[r0,#0x80]
        0x00000662:    7b21        !{      LDRB     r1,[r4,#0xc]
        0x00000664:    f001021f    ....    AND      r2,r1,#0x1f
        0x00000668:    2101        .!      MOVS     r1,#1
        0x0000066a:    4091        .@      LSLS     r1,r1,r2
        0x0000066c:    4008        .@      ANDS     r0,r0,r1
        0x0000066e:    b108        ..      CBZ      r0,0x674 ; am_hal_bootloader_override_check + 224
        0x00000670:    2001        .       MOVS     r0,#1
        0x00000672:    e000        ..      B        0x676 ; am_hal_bootloader_override_check + 226
        0x00000674:    2000        .       MOVS     r0,#0
        0x00000676:    4605        .F      MOV      r5,r0
        0x00000678:    7c20         |      LDRB     r0,[r4,#0x10]
        0x0000067a:    f0000001    ....    AND      r0,r0,#1
        0x0000067e:    42a8        .B      CMP      r0,r5
        0x00000680:    d15c        \.      BNE      0x73c ; am_hal_bootloader_override_check + 424
        0x00000682:    68e0        .h      LDR      r0,[r4,#0xc]
        0x00000684:    2832        2(      CMP      r0,#0x32
        0x00000686:    d257        W.      BCS      0x738 ; am_hal_bootloader_override_check + 420
        0x00000688:    f7fffd96    ....    BL       am_hal_interrupt_master_disable ; 0x1b8
        0x0000068c:    9000        ..      STR      r0,[sp,#0]
        0x0000068e:    2073        s       MOVS     r0,#0x73
        0x00000690:    4958        XI      LDR      r1,[pc,#352] ; [0x7f4] = 0x40010000
        0x00000692:    6608        .f      STR      r0,[r1,#0x60]
        0x00000694:    7b20         {      LDRB     r0,[r4,#0xc]
        0x00000696:    f00000f8    ....    AND      r0,r0,#0xf8
        0x0000069a:    e000        ..      B        0x69e ; am_hal_bootloader_override_check + 266
        0x0000069c:    e0a7        ..      B        0x7ee ; am_hal_bootloader_override_check + 602
        0x0000069e:    eb010050    ..P.    ADD      r0,r1,r0,LSR #1
        0x000006a2:    6c00        .l      LDR      r0,[r0,#0x40]
        0x000006a4:    7b21        !{      LDRB     r1,[r4,#0xc]
        0x000006a6:    0749        I.      LSLS     r1,r1,#29
        0x000006a8:    0eca        ..      LSRS     r2,r1,#27
        0x000006aa:    2107        .!      MOVS     r1,#7
        0x000006ac:    4091        .@      LSLS     r1,r1,r2
        0x000006ae:    4388        .C      BICS     r0,r0,r1
        0x000006b0:    7b21        !{      LDRB     r1,[r4,#0xc]
        0x000006b2:    0749        I.      LSLS     r1,r1,#29
        0x000006b4:    0eca        ..      LSRS     r2,r1,#27
        0x000006b6:    2100        .!      MOVS     r1,#0
        0x000006b8:    4091        .@      LSLS     r1,r1,r2
        0x000006ba:    4308        .C      ORRS     r0,r0,r1
        0x000006bc:    7b21        !{      LDRB     r1,[r4,#0xc]
        0x000006be:    f00101f8    ....    AND      r1,r1,#0xf8
        0x000006c2:    4a4c        LJ      LDR      r2,[pc,#304] ; [0x7f4] = 0x40010000
        0x000006c4:    eb020151    ..Q.    ADD      r1,r2,r1,LSR #1
        0x000006c8:    6408        .d      STR      r0,[r1,#0x40]
        0x000006ca:    7b20         {      LDRB     r0,[r4,#0xc]
        0x000006cc:    f00000fc    ....    AND      r0,r0,#0xfc
        0x000006d0:    4611        .F      MOV      r1,r2
        0x000006d2:    5840        @X      LDR      r0,[r0,r1]
        0x000006d4:    7b21        !{      LDRB     r1,[r4,#0xc]
        0x000006d6:    0789        ..      LSLS     r1,r1,#30
        0x000006d8:    0eca        ..      LSRS     r2,r1,#27
        0x000006da:    21ff        .!      MOVS     r1,#0xff
        0x000006dc:    4091        .@      LSLS     r1,r1,r2
        0x000006de:    4388        .C      BICS     r0,r0,r1
        0x000006e0:    7b21        !{      LDRB     r1,[r4,#0xc]
        0x000006e2:    0789        ..      LSLS     r1,r1,#30
        0x000006e4:    0eca        ..      LSRS     r2,r1,#27
        0x000006e6:    2118        .!      MOVS     r1,#0x18
        0x000006e8:    4091        .@      LSLS     r1,r1,r2
        0x000006ea:    4308        .C      ORRS     r0,r0,r1
        0x000006ec:    7b21        !{      LDRB     r1,[r4,#0xc]
        0x000006ee:    f00101fc    ....    AND      r1,r1,#0xfc
        0x000006f2:    4a40        @J      LDR      r2,[pc,#256] ; [0x7f4] = 0x40010000
        0x000006f4:    5088        .P      STR      r0,[r1,r2]
        0x000006f6:    7b20         {      LDRB     r0,[r4,#0xc]
        0x000006f8:    f00000fc    ....    AND      r0,r0,#0xfc
        0x000006fc:    4611        .F      MOV      r1,r2
        0x000006fe:    4408        .D      ADD      r0,r0,r1
        0x00000700:    f8d000e0    ....    LDR      r0,[r0,#0xe0]
        0x00000704:    7b21        !{      LDRB     r1,[r4,#0xc]
        0x00000706:    0789        ..      LSLS     r1,r1,#30
        0x00000708:    0eca        ..      LSRS     r2,r1,#27
        0x0000070a:    21ff        .!      MOVS     r1,#0xff
        0x0000070c:    4091        .@      LSLS     r1,r1,r2
        0x0000070e:    4388        .C      BICS     r0,r0,r1
        0x00000710:    7b21        !{      LDRB     r1,[r4,#0xc]
        0x00000712:    0789        ..      LSLS     r1,r1,#30
        0x00000714:    0eca        ..      LSRS     r2,r1,#27
        0x00000716:    2100        .!      MOVS     r1,#0
        0x00000718:    4091        .@      LSLS     r1,r1,r2
        0x0000071a:    4308        .C      ORRS     r0,r0,r1
        0x0000071c:    7b21        !{      LDRB     r1,[r4,#0xc]
        0x0000071e:    f00101fc    ....    AND      r1,r1,#0xfc
        0x00000722:    4a34        4J      LDR      r2,[pc,#208] ; [0x7f4] = 0x40010000
        0x00000724:    4411        .D      ADD      r1,r1,r2
        0x00000726:    f8c100e0    ....    STR      r0,[r1,#0xe0]
        0x0000072a:    2000        .       MOVS     r0,#0
        0x0000072c:    4611        .F      MOV      r1,r2
        0x0000072e:    6608        .f      STR      r0,[r1,#0x60]
        0x00000730:    9800        ..      LDR      r0,[sp,#0]
        0x00000732:    f7fffd45    ..E.    BL       am_hal_interrupt_master_set ; 0x1c0
        0x00000736:    bf00        ..      NOP      
        0x00000738:    2001        .       MOVS     r0,#1
        0x0000073a:    bd38        8.      POP      {r3-r5,pc}
        0x0000073c:    68e0        .h      LDR      r0,[r4,#0xc]
        0x0000073e:    2832        2(      CMP      r0,#0x32
        0x00000740:    d255        U.      BCS      0x7ee ; am_hal_bootloader_override_check + 602
        0x00000742:    f7fffd39    ..9.    BL       am_hal_interrupt_master_disable ; 0x1b8
        0x00000746:    9000        ..      STR      r0,[sp,#0]
        0x00000748:    2073        s       MOVS     r0,#0x73
        0x0000074a:    492a        *I      LDR      r1,[pc,#168] ; [0x7f4] = 0x40010000
        0x0000074c:    6608        .f      STR      r0,[r1,#0x60]
        0x0000074e:    7b20         {      LDRB     r0,[r4,#0xc]
        0x00000750:    f00000f8    ....    AND      r0,r0,#0xf8
        0x00000754:    eb010050    ..P.    ADD      r0,r1,r0,LSR #1
        0x00000758:    6c00        .l      LDR      r0,[r0,#0x40]
        0x0000075a:    7b21        !{      LDRB     r1,[r4,#0xc]
        0x0000075c:    0749        I.      LSLS     r1,r1,#29
        0x0000075e:    0eca        ..      LSRS     r2,r1,#27
        0x00000760:    2107        .!      MOVS     r1,#7
        0x00000762:    4091        .@      LSLS     r1,r1,r2
        0x00000764:    4388        .C      BICS     r0,r0,r1
        0x00000766:    7b21        !{      LDRB     r1,[r4,#0xc]
        0x00000768:    0749        I.      LSLS     r1,r1,#29
        0x0000076a:    0eca        ..      LSRS     r2,r1,#27
        0x0000076c:    2100        .!      MOVS     r1,#0
        0x0000076e:    4091        .@      LSLS     r1,r1,r2
        0x00000770:    4308        .C      ORRS     r0,r0,r1
        0x00000772:    7b21        !{      LDRB     r1,[r4,#0xc]
        0x00000774:    f00101f8    ....    AND      r1,r1,#0xf8
        0x00000778:    4a1e        .J      LDR      r2,[pc,#120] ; [0x7f4] = 0x40010000
        0x0000077a:    eb020151    ..Q.    ADD      r1,r2,r1,LSR #1
        0x0000077e:    6408        .d      STR      r0,[r1,#0x40]
        0x00000780:    7b20         {      LDRB     r0,[r4,#0xc]
        0x00000782:    f00000fc    ....    AND      r0,r0,#0xfc
        0x00000786:    4611        .F      MOV      r1,r2
        0x00000788:    5840        @X      LDR      r0,[r0,r1]
        0x0000078a:    7b21        !{      LDRB     r1,[r4,#0xc]
        0x0000078c:    0789        ..      LSLS     r1,r1,#30
        0x0000078e:    0eca        ..      LSRS     r2,r1,#27
        0x00000790:    21ff        .!      MOVS     r1,#0xff
        0x00000792:    4091        .@      LSLS     r1,r1,r2
        0x00000794:    4388        .C      BICS     r0,r0,r1
        0x00000796:    7b21        !{      LDRB     r1,[r4,#0xc]
        0x00000798:    0789        ..      LSLS     r1,r1,#30
        0x0000079a:    0eca        ..      LSRS     r2,r1,#27
        0x0000079c:    2118        .!      MOVS     r1,#0x18
        0x0000079e:    4091        .@      LSLS     r1,r1,r2
        0x000007a0:    4308        .C      ORRS     r0,r0,r1
        0x000007a2:    7b21        !{      LDRB     r1,[r4,#0xc]
        0x000007a4:    f00101fc    ....    AND      r1,r1,#0xfc
        0x000007a8:    4a12        .J      LDR      r2,[pc,#72] ; [0x7f4] = 0x40010000
        0x000007aa:    5088        .P      STR      r0,[r1,r2]
        0x000007ac:    7b20         {      LDRB     r0,[r4,#0xc]
        0x000007ae:    f00000fc    ....    AND      r0,r0,#0xfc
        0x000007b2:    4611        .F      MOV      r1,r2
        0x000007b4:    4408        .D      ADD      r0,r0,r1
        0x000007b6:    f8d000e0    ....    LDR      r0,[r0,#0xe0]
        0x000007ba:    7b21        !{      LDRB     r1,[r4,#0xc]
        0x000007bc:    0789        ..      LSLS     r1,r1,#30
        0x000007be:    0eca        ..      LSRS     r2,r1,#27
        0x000007c0:    21ff        .!      MOVS     r1,#0xff
        0x000007c2:    4091        .@      LSLS     r1,r1,r2
        0x000007c4:    4388        .C      BICS     r0,r0,r1
        0x000007c6:    7b21        !{      LDRB     r1,[r4,#0xc]
        0x000007c8:    0789        ..      LSLS     r1,r1,#30
        0x000007ca:    0eca        ..      LSRS     r2,r1,#27
        0x000007cc:    2100        .!      MOVS     r1,#0
        0x000007ce:    4091        .@      LSLS     r1,r1,r2
        0x000007d0:    4308        .C      ORRS     r0,r0,r1
        0x000007d2:    7b21        !{      LDRB     r1,[r4,#0xc]
        0x000007d4:    f00101fc    ....    AND      r1,r1,#0xfc
        0x000007d8:    4a06        .J      LDR      r2,[pc,#24] ; [0x7f4] = 0x40010000
        0x000007da:    4411        .D      ADD      r1,r1,r2
        0x000007dc:    f8c100e0    ....    STR      r0,[r1,#0xe0]
        0x000007e0:    2000        .       MOVS     r0,#0
        0x000007e2:    4611        .F      MOV      r1,r2
        0x000007e4:    6608        .f      STR      r0,[r1,#0x60]
        0x000007e6:    9800        ..      LDR      r0,[sp,#0]
        0x000007e8:    f7fffcea    ....    BL       am_hal_interrupt_master_set ; 0x1c0
        0x000007ec:    bf00        ..      NOP      
        0x000007ee:    2000        .       MOVS     r0,#0
        0x000007f0:    e7a3        ..      B        0x73a ; am_hal_bootloader_override_check + 422
    $d
        0x000007f2:    0000        ..      DCW    0
        0x000007f4:    40010000    ...@    DCD    1073807360
    $t
    i.am_hal_clkgen_osc_stop
    am_hal_clkgen_osc_stop
        0x000007f8:    f0100f03    ....    TST      r0,#3
        0x000007fc:    bf08        ..      IT       EQ
        0x000007fe:    4770        pG      BXEQ     lr
        0x00000800:    f04f2140    O.@!    MOV      r1,#0x40004000
        0x00000804:    68ca        .h      LDR      r2,[r1,#0xc]
        0x00000806:    4310        .C      ORRS     r0,r0,r2
        0x00000808:    60c8        .`      STR      r0,[r1,#0xc]
        0x0000080a:    4770        pG      BX       lr
    i.am_hal_clkgen_sysclk_select
    am_hal_clkgen_sysclk_select
        0x0000080c:    b510        ..      PUSH     {r4,lr}
        0x0000080e:    0004        ..      MOVS     r4,r0
        0x00000810:    d004        ..      BEQ      0x81c ; am_hal_clkgen_sysclk_select + 16
        0x00000812:    a206        ..      ADR      r2,{pc}+0x1a ; 0x82c
        0x00000814:    2152        R!      MOVS     r1,#0x52
        0x00000816:    a013        ..      ADR      r0,{pc}+0x4e ; 0x864
        0x00000818:    f000f8b8    ....    BL       am_hal_debug_error ; 0x98c
        0x0000081c:    f04f2040    O.@     MOV      r0,#0x40004000
        0x00000820:    2147        G!      MOVS     r1,#0x47
        0x00000822:    6141        Aa      STR      r1,[r0,#0x14]
        0x00000824:    6184        .a      STR      r4,[r0,#0x18]
        0x00000826:    2100        .!      MOVS     r1,#0
        0x00000828:    6141        Aa      STR      r1,[r0,#0x14]
        0x0000082a:    bd10        ..      POP      {r4,pc}
    $d
        0x0000082c:    685f6d61    am_h    DCD    1751084385
        0x00000830:    635f6c61    al_c    DCD    1667198049
        0x00000834:    65676b6c    lkge    DCD    1701276524
        0x00000838:    79735f6e    n_sy    DCD    2037604206
        0x0000083c:    6b6c6373    sclk    DCD    1802265459
        0x00000840:    6c65735f    _sel    DCD    1818587999
        0x00000844:    28746365    ect(    DCD    678716261
        0x00000848:    69203a29    ): i    DCD    1763719721
        0x0000084c:    6c61766e    nval    DCD    1818326638
        0x00000850:    63206469    id c    DCD    1663067241
        0x00000854:    6b636f6c    lock    DCD    1801678700
        0x00000858:    74657320     set    DCD    1952805664
        0x0000085c:    676e6974    ting    DCD    1735289204
        0x00000860:    0000002e    ....    DCD    46
        0x00000864:    685f6d61    am_h    DCD    1751084385
        0x00000868:    635f6c61    al_c    DCD    1667198049
        0x0000086c:    65676b6c    lkge    DCD    1701276524
        0x00000870:    00632e6e    n.c.    DCD    6499950
    $t
    i.am_hal_clkgen_uarten_set
    am_hal_clkgen_uarten_set
        0x00000874:    2802        .(      CMP      r0,#2
        0x00000876:    bf28        (.      IT       CS
        0x00000878:    4770        pG      BXCS     lr
        0x0000087a:    2903        .)      CMP      r1,#3
        0x0000087c:    bf88        ..      IT       HI
        0x0000087e:    4770        pG      BXHI     lr
        0x00000880:    b538        8.      PUSH     {r3-r5,lr}
        0x00000882:    fb00f200    ....    MUL      r2,r0,r0
        0x00000886:    00d2        ..      LSLS     r2,r2,#3
        0x00000888:    fa01f402    ....    LSL      r4,r1,r2
        0x0000088c:    00c0        ..      LSLS     r0,r0,#3
        0x0000088e:    2103        .!      MOVS     r1,#3
        0x00000890:    fa01f000    ....    LSL      r0,r1,r0
        0x00000894:    43c5        .C      MVNS     r5,r0
        0x00000896:    f7fffc8f    ....    BL       am_hal_interrupt_master_disable ; 0x1b8
        0x0000089a:    9000        ..      STR      r0,[sp,#0]
        0x0000089c:    f04f2040    O.@     MOV      r0,#0x40004000
        0x000008a0:    6b41        Ak      LDR      r1,[r0,#0x34]
        0x000008a2:    4029        )@      ANDS     r1,r1,r5
        0x000008a4:    6341        Ac      STR      r1,[r0,#0x34]
        0x000008a6:    6b41        Ak      LDR      r1,[r0,#0x34]
        0x000008a8:    4321        !C      ORRS     r1,r1,r4
        0x000008aa:    6341        Ac      STR      r1,[r0,#0x34]
        0x000008ac:    9800        ..      LDR      r0,[sp,#0]
        0x000008ae:    e8bd4038    ..8@    POP      {r3-r5,lr}
        0x000008b2:    f7ffbc85    ....    B.W      am_hal_interrupt_master_set ; 0x1c0
        0x000008b6:    0000        ..      MOVS     r0,r0
    i.am_hal_ctimer_clear
    am_hal_ctimer_clear
        0x000008b8:    b538        8.      PUSH     {r3-r5,lr}
        0x000008ba:    460d        .F      MOV      r5,r1
        0x000008bc:    4907        .I      LDR      r1,[pc,#28] ; [0x8dc] = 0x4000800c
        0x000008be:    eb011400    ....    ADD      r4,r1,r0,LSL #4
        0x000008c2:    f7fffc79    ..y.    BL       am_hal_interrupt_master_disable ; 0x1b8
        0x000008c6:    9000        ..      STR      r0,[sp,#0]
        0x000008c8:    6820         h      LDR      r0,[r4,#0]
        0x000008ca:    f0052108    ...!    AND      r1,r5,#0x8000800
        0x000008ce:    4308        .C      ORRS     r0,r0,r1
        0x000008d0:    6020         `      STR      r0,[r4,#0]
        0x000008d2:    9800        ..      LDR      r0,[sp,#0]
        0x000008d4:    e8bd4038    ..8@    POP      {r3-r5,lr}
        0x000008d8:    f7ffbc72    ..r.    B.W      am_hal_interrupt_master_set ; 0x1c0
    $d
        0x000008dc:    4000800c    ...@    DCD    1073774604
    $t
    i.am_hal_ctimer_period_set
    am_hal_ctimer_period_set
        0x000008e0:    e92d43f8    -..C    PUSH     {r3-r9,lr}
        0x000008e4:    460e        .F      MOV      r6,r1
        0x000008e6:    491b        .I      LDR      r1,[pc,#108] ; [0x954] = 0x4000800c
        0x000008e8:    461d        .F      MOV      r5,r3
        0x000008ea:    eb011900    ....    ADD      r9,r1,r0,LSL #4
        0x000008ee:    491a        .I      LDR      r1,[pc,#104] ; [0x958] = 0x40008004
        0x000008f0:    4614        .F      MOV      r4,r2
        0x000008f2:    eb011700    ....    ADD      r7,r1,r0,LSL #4
        0x000008f6:    1d09        ..      ADDS     r1,r1,#4
        0x000008f8:    eb011800    ....    ADD      r8,r1,r0,LSL #4
        0x000008fc:    f7fffc5c    ..\.    BL       am_hal_interrupt_master_disable ; 0x1b8
        0x00000900:    9000        ..      STR      r0,[sp,#0]
        0x00000902:    f8d90000    ....    LDR      r0,[r9,#0]
        0x00000906:    f5163f80    ...?    CMN      r6,#0x10000
        0x0000090a:    bf08        ..      IT       EQ
        0x0000090c:    0c00        ..      LSREQ    r0,r0,#16
        0x0000090e:    f40070e0    ...p    AND      r0,r0,#0x1c0
        0x00000912:    2880        .(      CMP      r0,#0x80
        0x00000914:    bf17        ..      ITETT    NE
        0x00000916:    28c0        .(      CMPNE    r0,#0xc0
        0x00000918:    1b65        e.      SUBEQ    r5,r4,r5
        0x0000091a:    4625        %F      MOVNE    r5,r4
        0x0000091c:    2400        .$      MOVNE    r4,#0
        0x0000091e:    f5a6407f    ...@    SUB      r0,r6,#0xff00
        0x00000922:    38ff        .8      SUBS     r0,r0,#0xff
        0x00000924:    bf04        ..      ITT      EQ
        0x00000926:    eac54004    ...@    PKHBTEQ  r0,r5,r4,LSL #16
        0x0000092a:    6038        8`      STREQ    r0,[r7,#0]
        0x0000092c:    d00c        ..      BEQ      0x948 ; am_hal_ctimer_period_set + 104
        0x0000092e:    f5163f80    ...?    CMN      r6,#0x10000
        0x00000932:    eac54004    ...@    PKHBT    r0,r5,r4,LSL #16
        0x00000936:    d005        ..      BEQ      0x944 ; am_hal_ctimer_period_set + 100
        0x00000938:    6038        8`      STR      r0,[r7,#0]
        0x0000093a:    0c28        (.      LSRS     r0,r5,#16
        0x0000093c:    f36f040f    o...    BFC      r4,#0,#16
        0x00000940:    eac00004    ....    PKHBT    r0,r0,r4
        0x00000944:    f8c80000    ....    STR      r0,[r8,#0]
        0x00000948:    9800        ..      LDR      r0,[sp,#0]
        0x0000094a:    e8bd43f8    ...C    POP      {r3-r9,lr}
        0x0000094e:    f7ffbc37    ..7.    B.W      am_hal_interrupt_master_set ; 0x1c0
    $d
        0x00000952:    0000        ..      DCW    0
        0x00000954:    4000800c    ...@    DCD    1073774604
        0x00000958:    40008004    ...@    DCD    1073774596
    $t
    i.am_hal_ctimer_start
    am_hal_ctimer_start
        0x0000095c:    b538        8.      PUSH     {r3-r5,lr}
        0x0000095e:    460c        .F      MOV      r4,r1
        0x00000960:    4909        .I      LDR      r1,[pc,#36] ; [0x988] = 0x4000800c
        0x00000962:    eb011500    ....    ADD      r5,r1,r0,LSL #4
        0x00000966:    f7fffc27    ..'.    BL       am_hal_interrupt_master_disable ; 0x1b8
        0x0000096a:    9000        ..      STR      r0,[sp,#0]
        0x0000096c:    6828        (h      LDR      r0,[r5,#0]
        0x0000096e:    f0042108    ...!    AND      r1,r4,#0x8000800
        0x00000972:    4388        .C      BICS     r0,r0,r1
        0x00000974:    f0041101    ....    AND      r1,r4,#0x10001
        0x00000978:    4308        .C      ORRS     r0,r0,r1
        0x0000097a:    6028        (`      STR      r0,[r5,#0]
        0x0000097c:    9800        ..      LDR      r0,[sp,#0]
        0x0000097e:    e8bd4038    ..8@    POP      {r3-r5,lr}
        0x00000982:    f7ffbc1d    ....    B.W      am_hal_interrupt_master_set ; 0x1c0
    $d
        0x00000986:    0000        ..      DCW    0
        0x00000988:    4000800c    ...@    DCD    1073774604
    $t
    i.am_hal_debug_error
    am_hal_debug_error
        0x0000098c:    e7fe        ..      B        am_hal_debug_error ; 0x98c
        0x0000098e:    0000        ..      MOVS     r0,r0
    i.am_hal_flash_delay
    am_hal_flash_delay
        0x00000990:    4900        .I      LDR      r1,[pc,#0] ; [0x994] = 0x800009d
        0x00000992:    4708        .G      BX       r1
    $d
        0x00000994:    0800009d    ....    DCD    134217885
    $t
    i.am_hal_flash_page_erase
    am_hal_flash_page_erase
        0x00000998:    4b00        .K      LDR      r3,[pc,#0] ; [0x99c] = 0x8000051
        0x0000099a:    4718        .G      BX       r3
    $d
        0x0000099c:    08000051    Q...    DCD    134217809
    $t
    i.am_hal_flash_program_main
    am_hal_flash_program_main
        0x000009a0:    e92d43f8    -..C    PUSH     {r3-r9,lr}
        0x000009a4:    461c        .F      MOV      r4,r3
        0x000009a6:    4680        .F      MOV      r8,r0
        0x000009a8:    eb010584    ....    ADD      r5,r1,r4,LSL #2
        0x000009ac:    4e11        .N      LDR      r6,[pc,#68] ; [0x9f4] = 0x8000055
        0x000009ae:    f1a55080    ...P    SUB      r0,r5,#0x10000000
        0x000009b2:    4617        .F      MOV      r7,r2
        0x000009b4:    f5b02080    ...     SUBS     r0,r0,#0x40000
        0x000009b8:    d005        ..      BEQ      0x9c6 ; am_hal_flash_program_main + 38
        0x000009ba:    b001        ..      ADD      sp,sp,#4
        0x000009bc:    4640        @F      MOV      r0,r8
        0x000009be:    46b4        .F      MOV      r12,r6
        0x000009c0:    e8bd43f0    ...C    POP      {r4-r9,lr}
        0x000009c4:    4760        `G      BX       r12
        0x000009c6:    2c01        .,      CMP      r4,#1
        0x000009c8:    d907        ..      BLS      0x9da ; am_hal_flash_program_main + 58
        0x000009ca:    1e63        c.      SUBS     r3,r4,#1
        0x000009cc:    4640        @F      MOV      r0,r8
        0x000009ce:    f7ffffe7    ....    BL       am_hal_flash_program_main ; 0x9a0
        0x000009d2:    2800        .(      CMP      r0,#0
        0x000009d4:    bf18        ..      IT       NE
        0x000009d6:    e8bd83f8    ....    POPNE    {r3-r9,pc}
        0x000009da:    f8550c04    U...    LDR      r0,[r5,#-4]
        0x000009de:    9000        ..      STR      r0,[sp,#0]
        0x000009e0:    eb070084    ....    ADD      r0,r7,r4,LSL #2
        0x000009e4:    1f02        ..      SUBS     r2,r0,#4
        0x000009e6:    2301        .#      MOVS     r3,#1
        0x000009e8:    4669        iF      MOV      r1,sp
        0x000009ea:    4640        @F      MOV      r0,r8
        0x000009ec:    47b0        .G      BLX      r6
        0x000009ee:    e8bd83f8    ....    POP      {r3-r9,pc}
    $d
        0x000009f2:    0000        ..      DCW    0
        0x000009f4:    08000055    U...    DCD    134217813
    $t
    i.am_hal_gpio_int_clear
    am_hal_gpio_int_clear
        0x000009f8:    b538        8.      PUSH     {r3-r5,lr}
        0x000009fa:    4604        .F      MOV      r4,r0
        0x000009fc:    460d        .F      MOV      r5,r1
        0x000009fe:    f7fffbdb    ....    BL       am_hal_interrupt_master_disable ; 0x1b8
        0x00000a02:    9000        ..      STR      r0,[sp,#0]
        0x00000a04:    4804        .H      LDR      r0,[pc,#16] ; [0xa18] = 0x40010000
        0x00000a06:    f8c05218    ...R    STR      r5,[r0,#0x218]
        0x00000a0a:    f8c04208    ...B    STR      r4,[r0,#0x208]
        0x00000a0e:    9800        ..      LDR      r0,[sp,#0]
        0x00000a10:    e8bd4038    ..8@    POP      {r3-r5,lr}
        0x00000a14:    f7ffbbd4    ....    B        am_hal_interrupt_master_set ; 0x1c0
    $d
        0x00000a18:    40010000    ...@    DCD    1073807360
    $t
    i.am_hal_gpio_int_disable
    am_hal_gpio_int_disable
        0x00000a1c:    b538        8.      PUSH     {r3-r5,lr}
        0x00000a1e:    4604        .F      MOV      r4,r0
        0x00000a20:    460d        .F      MOV      r5,r1
        0x00000a22:    f7fffbc9    ....    BL       am_hal_interrupt_master_disable ; 0x1b8
        0x00000a26:    9000        ..      STR      r0,[sp,#0]
        0x00000a28:    4808        .H      LDR      r0,[pc,#32] ; [0xa4c] = 0x40010000
        0x00000a2a:    f8d02210    ..."    LDR      r2,[r0,#0x210]
        0x00000a2e:    ea220105    "...    BIC      r1,r2,r5
        0x00000a32:    f8c01210    ....    STR      r1,[r0,#0x210]
        0x00000a36:    f8d02200    ..."    LDR      r2,[r0,#0x200]
        0x00000a3a:    ea220104    "...    BIC      r1,r2,r4
        0x00000a3e:    f8c01200    ....    STR      r1,[r0,#0x200]
        0x00000a42:    9800        ..      LDR      r0,[sp,#0]
        0x00000a44:    e8bd4038    ..8@    POP      {r3-r5,lr}
        0x00000a48:    f7ffbbba    ....    B        am_hal_interrupt_master_set ; 0x1c0
    $d
        0x00000a4c:    40010000    ...@    DCD    1073807360
    $t
    i.am_hal_gpio_int_enable
    am_hal_gpio_int_enable
        0x00000a50:    4a05        .J      LDR      r2,[pc,#20] ; [0xa68] = 0x40010000
        0x00000a52:    f8d23210    ...2    LDR      r3,[r2,#0x210]
        0x00000a56:    4319        .C      ORRS     r1,r1,r3
        0x00000a58:    f8c21210    ....    STR      r1,[r2,#0x210]
        0x00000a5c:    f8d21200    ....    LDR      r1,[r2,#0x200]
        0x00000a60:    4308        .C      ORRS     r0,r0,r1
        0x00000a62:    f8c20200    ....    STR      r0,[r2,#0x200]
        0x00000a66:    4770        pG      BX       lr
    $d
        0x00000a68:    40010000    ...@    DCD    1073807360
    $t
    i.am_hal_interrupt_disable
    am_hal_interrupt_disable
        0x00000a6c:    280f        .(      CMP      r0,#0xf
        0x00000a6e:    d90a        ..      BLS      0xa86 ; am_hal_interrupt_disable + 26
        0x00000a70:    3810        .8      SUBS     r0,r0,#0x10
        0x00000a72:    f000001f    ....    AND      r0,r0,#0x1f
        0x00000a76:    2101        .!      MOVS     r1,#1
        0x00000a78:    fa01f000    ....    LSL      r0,r1,r0
        0x00000a7c:    f04f21e0    O..!    MOV      r1,#0xe000e000
        0x00000a80:    f8c10180    ....    STR      r0,[r1,#0x180]
        0x00000a84:    4770        pG      BX       lr
        0x00000a86:    490b        .I      LDR      r1,[pc,#44] ; [0xab4] = 0xe000ed24
        0x00000a88:    2804        .(      CMP      r0,#4
        0x00000a8a:    d00d        ..      BEQ      0xaa8 ; am_hal_interrupt_disable + 60
        0x00000a8c:    2805        .(      CMP      r0,#5
        0x00000a8e:    bf04        ..      ITT      EQ
        0x00000a90:    6808        .h      LDREQ    r0,[r1,#0]
        0x00000a92:    f4203000     ..0    BICEQ    r0,r0,#0x20000
        0x00000a96:    d005        ..      BEQ      0xaa4 ; am_hal_interrupt_disable + 56
        0x00000a98:    2806        .(      CMP      r0,#6
        0x00000a9a:    bf06        ..      ITTE     EQ
        0x00000a9c:    6808        .h      LDREQ    r0,[r1,#0]
        0x00000a9e:    f4202080     ..     BICEQ    r0,r0,#0x40000
        0x00000aa2:    4770        pG      BXNE     lr
        0x00000aa4:    6008        .`      STR      r0,[r1,#0]
        0x00000aa6:    4770        pG      BX       lr
        0x00000aa8:    6808        .h      LDR      r0,[r1,#0]
        0x00000aaa:    f4203080     ..0    BIC      r0,r0,#0x10000
        0x00000aae:    6008        .`      STR      r0,[r1,#0]
        0x00000ab0:    4770        pG      BX       lr
    $d
        0x00000ab2:    0000        ..      DCW    0
        0x00000ab4:    e000ed24    $...    DCD    3758157092
    $t
    i.am_hal_interrupt_enable
    am_hal_interrupt_enable
        0x00000ab8:    280f        .(      CMP      r0,#0xf
        0x00000aba:    d90a        ..      BLS      0xad2 ; am_hal_interrupt_enable + 26
        0x00000abc:    3810        .8      SUBS     r0,r0,#0x10
        0x00000abe:    f000001f    ....    AND      r0,r0,#0x1f
        0x00000ac2:    2101        .!      MOVS     r1,#1
        0x00000ac4:    fa01f000    ....    LSL      r0,r1,r0
        0x00000ac8:    f04f21e0    O..!    MOV      r1,#0xe000e000
        0x00000acc:    f8c10100    ....    STR      r0,[r1,#0x100]
        0x00000ad0:    4770        pG      BX       lr
        0x00000ad2:    490b        .I      LDR      r1,[pc,#44] ; [0xb00] = 0xe000ed24
        0x00000ad4:    2804        .(      CMP      r0,#4
        0x00000ad6:    d00d        ..      BEQ      0xaf4 ; am_hal_interrupt_enable + 60
        0x00000ad8:    2805        .(      CMP      r0,#5
        0x00000ada:    bf04        ..      ITT      EQ
        0x00000adc:    6808        .h      LDREQ    r0,[r1,#0]
        0x00000ade:    f4403000    @..0    ORREQ    r0,r0,#0x20000
        0x00000ae2:    d005        ..      BEQ      0xaf0 ; am_hal_interrupt_enable + 56
        0x00000ae4:    2806        .(      CMP      r0,#6
        0x00000ae6:    bf06        ..      ITTE     EQ
        0x00000ae8:    6808        .h      LDREQ    r0,[r1,#0]
        0x00000aea:    f4402080    @..     ORREQ    r0,r0,#0x40000
        0x00000aee:    4770        pG      BXNE     lr
        0x00000af0:    6008        .`      STR      r0,[r1,#0]
        0x00000af2:    4770        pG      BX       lr
        0x00000af4:    6808        .h      LDR      r0,[r1,#0]
        0x00000af6:    f4403080    @..0    ORR      r0,r0,#0x10000
        0x00000afa:    6008        .`      STR      r0,[r1,#0]
        0x00000afc:    4770        pG      BX       lr
    $d
        0x00000afe:    0000        ..      DCW    0
        0x00000b00:    e000ed24    $...    DCD    3758157092
    $t
    i.am_hal_mcuctrl_device_info_get
    am_hal_mcuctrl_device_info_get
        0x00000b04:    4927        'I      LDR      r1,[pc,#156] ; [0xba4] = 0x40020000
        0x00000b06:    680a        .h      LDR      r2,[r1,#0]
        0x00000b08:    6002        .`      STR      r2,[r0,#0]
        0x00000b0a:    684b        Kh      LDR      r3,[r1,#4]
        0x00000b0c:    6043        C`      STR      r3,[r0,#4]
        0x00000b0e:    688b        .h      LDR      r3,[r1,#8]
        0x00000b10:    6083        .`      STR      r3,[r0,#8]
        0x00000b12:    68cb        .h      LDR      r3,[r1,#0xc]
        0x00000b14:    60c3        .`      STR      r3,[r0,#0xc]
        0x00000b16:    6909        .i      LDR      r1,[r1,#0x10]
        0x00000b18:    6101        .a      STR      r1,[r0,#0x10]
        0x00000b1a:    f0020101    ....    AND      r1,r2,#1
        0x00000b1e:    6141        Aa      STR      r1,[r0,#0x14]
        0x00000b20:    213c        <!      MOVS     r1,#0x3c
        0x00000b22:    4b21        !K      LDR      r3,[pc,#132] ; [0xba8] = 0x2134
        0x00000b24:    ea014c92    ...L    AND      r12,r1,r2,LSR #18
        0x00000b28:    ea013192    ...1    AND      r1,r1,r2,LSR #14
        0x00000b2c:    f853c00c    S...    LDR      r12,[r3,r12]
        0x00000b30:    f8c0c018    ....    STR      r12,[r0,#0x18]
        0x00000b34:    5859        YX      LDR      r1,[r3,r1]
        0x00000b36:    61c1        .a      STR      r1,[r0,#0x1c]
        0x00000b38:    491c        .I      LDR      r1,[pc,#112] ; [0xbac] = 0xf0000fe0
        0x00000b3a:    6809        .h      LDR      r1,[r1,#0]
        0x00000b3c:    4a1c        .J      LDR      r2,[pc,#112] ; [0xbb0] = 0xf0000fe4
        0x00000b3e:    b2c9        ..      UXTB     r1,r1
        0x00000b40:    6201        .b      STR      r1,[r0,#0x20]
        0x00000b42:    6813        .h      LDR      r3,[r2,#0]
        0x00000b44:    f003030f    ....    AND      r3,r3,#0xf
        0x00000b48:    ea412103    A..!    ORR      r1,r1,r3,LSL #8
        0x00000b4c:    6201        .b      STR      r1,[r0,#0x20]
        0x00000b4e:    6811        .h      LDR      r1,[r2,#0]
        0x00000b50:    1d12        ..      ADDS     r2,r2,#4
        0x00000b52:    f3c11103    ....    UBFX     r1,r1,#4,#4
        0x00000b56:    6241        Ab      STR      r1,[r0,#0x24]
        0x00000b58:    6813        .h      LDR      r3,[r2,#0]
        0x00000b5a:    f003030f    ....    AND      r3,r3,#0xf
        0x00000b5e:    ea411103    A...    ORR      r1,r1,r3,LSL #4
        0x00000b62:    6241        Ab      STR      r1,[r0,#0x24]
        0x00000b64:    6811        .h      LDR      r1,[r2,#0]
        0x00000b66:    1d12        ..      ADDS     r2,r2,#4
        0x00000b68:    f00101f0    ....    AND      r1,r1,#0xf0
        0x00000b6c:    6281        .b      STR      r1,[r0,#0x28]
        0x00000b6e:    6812        .h      LDR      r2,[r2,#0]
        0x00000b70:    f3c21203    ....    UBFX     r2,r2,#4,#4
        0x00000b74:    4311        .C      ORRS     r1,r1,r2
        0x00000b76:    6281        .b      STR      r1,[r0,#0x28]
        0x00000b78:    490e        .I      LDR      r1,[pc,#56] ; [0xbb4] = 0xf0000ffc
        0x00000b7a:    6809        .h      LDR      r1,[r1,#0]
        0x00000b7c:    4a0e        .J      LDR      r2,[pc,#56] ; [0xbb8] = 0xf0000ff8
        0x00000b7e:    0609        ..      LSLS     r1,r1,#24
        0x00000b80:    62c1        .b      STR      r1,[r0,#0x2c]
        0x00000b82:    6812        .h      LDR      r2,[r2,#0]
        0x00000b84:    b2d2        ..      UXTB     r2,r2
        0x00000b86:    ea414102    A..A    ORR      r1,r1,r2,LSL #16
        0x00000b8a:    4a0c        .J      LDR      r2,[pc,#48] ; [0xbbc] = 0xf0000ff4
        0x00000b8c:    62c1        .b      STR      r1,[r0,#0x2c]
        0x00000b8e:    6812        .h      LDR      r2,[r2,#0]
        0x00000b90:    b2d2        ..      UXTB     r2,r2
        0x00000b92:    ea412102    A..!    ORR      r1,r1,r2,LSL #8
        0x00000b96:    4a0a        .J      LDR      r2,[pc,#40] ; [0xbc0] = 0xf0000ff0
        0x00000b98:    62c1        .b      STR      r1,[r0,#0x2c]
        0x00000b9a:    6812        .h      LDR      r2,[r2,#0]
        0x00000b9c:    b2d2        ..      UXTB     r2,r2
        0x00000b9e:    4311        .C      ORRS     r1,r1,r2
        0x00000ba0:    62c1        .b      STR      r1,[r0,#0x2c]
        0x00000ba2:    4770        pG      BX       lr
    $d
        0x00000ba4:    40020000    ...@    DCD    1073872896
        0x00000ba8:    00002134    4!..    DCD    8500
        0x00000bac:    f0000fe0    ....    DCD    4026535904
        0x00000bb0:    f0000fe4    ....    DCD    4026535908
        0x00000bb4:    f0000ffc    ....    DCD    4026535932
        0x00000bb8:    f0000ff8    ....    DCD    4026535928
        0x00000bbc:    f0000ff4    ....    DCD    4026535924
        0x00000bc0:    f0000ff0    ....    DCD    4026535920
    $t
    i.am_hal_pwrctrl_bucks_disable
    am_hal_pwrctrl_bucks_disable
        0x00000bc4:    4810        .H      LDR      r0,[pc,#64] ; [0xc08] = 0x40021000
        0x00000bc6:    6841        Ah      LDR      r1,[r0,#4]
        0x00000bc8:    f0110f02    ....    TST      r1,#2
        0x00000bcc:    bf02        ..      ITTT     EQ
        0x00000bce:    6841        Ah      LDREQ    r1,[r0,#4]
        0x00000bd0:    f0110f01    ....    TSTEQ    r1,#1
        0x00000bd4:    4770        pG      BXEQ     lr
        0x00000bd6:    490d        .I      LDR      r1,[pc,#52] ; [0xc0c] = 0x40020000
        0x00000bd8:    68c9        .h      LDR      r1,[r1,#0xc]
        0x00000bda:    f00101f0    ....    AND      r1,r1,#0xf0
        0x00000bde:    2920         )      CMP      r1,#0x20
        0x00000be0:    bf04        ..      ITT      EQ
        0x00000be2:    6881        .h      LDREQ    r1,[r0,#8]
        0x00000be4:    f5b17f00    ....    CMPEQ    r1,#0x200
        0x00000be8:    6801        .h      LDR      r1,[r0,#0]
        0x00000bea:    bf0f        ..      ITEEE    EQ
        0x00000bec:    f0010105    ....    ANDEQ    r1,r1,#5
        0x00000bf0:    f0210102    !...    BICNE    r1,r1,#2
        0x00000bf4:    6001        .`      STRNE    r1,[r0,#0]
        0x00000bf6:    6801        .h      LDRNE    r1,[r0,#0]
        0x00000bf8:    bf18        ..      IT       NE
        0x00000bfa:    f0210101    !...    BICNE    r1,r1,#1
        0x00000bfe:    6001        .`      STR      r1,[r0,#0]
        0x00000c00:    f04f000a    O...    MOV      r0,#0xa
        0x00000c04:    f7ffbec4    ....    B.W      am_hal_flash_delay ; 0x990
    $d
        0x00000c08:    40021000    ...@    DCD    1073876992
        0x00000c0c:    40020000    ...@    DCD    1073872896
    $t
    i.am_hal_pwrctrl_bucks_enable
    am_hal_pwrctrl_bucks_enable
        0x00000c10:    480b        .H      LDR      r0,[pc,#44] ; [0xc40] = 0x40021000
        0x00000c12:    6841        Ah      LDR      r1,[r0,#4]
        0x00000c14:    f0110f02    ....    TST      r1,#2
        0x00000c18:    bf1e        ..      ITTT     NE
        0x00000c1a:    6841        Ah      LDRNE    r1,[r0,#4]
        0x00000c1c:    f0110f01    ....    TSTNE    r1,#1
        0x00000c20:    4770        pG      BXNE     lr
        0x00000c22:    6801        .h      LDR      r1,[r0,#0]
        0x00000c24:    f0410102    A...    ORR      r1,r1,#2
        0x00000c28:    6001        .`      STR      r1,[r0,#0]
        0x00000c2a:    6801        .h      LDR      r1,[r0,#0]
        0x00000c2c:    f0410101    A...    ORR      r1,r1,#1
        0x00000c30:    6001        .`      STR      r1,[r0,#0]
        0x00000c32:    2103        .!      MOVS     r1,#3
        0x00000c34:    6842        Bh      LDR      r2,[r0,#4]
        0x00000c36:    ea310202    1...    BICS     r2,r1,r2
        0x00000c3a:    d1fb        ..      BNE      0xc34 ; am_hal_pwrctrl_bucks_enable + 36
        0x00000c3c:    4770        pG      BX       lr
    $d
        0x00000c3e:    0000        ..      DCW    0
        0x00000c40:    40021000    ...@    DCD    1073876992
    $t
    i.am_hal_pwrctrl_bucks_init
    am_hal_pwrctrl_bucks_init
        0x00000c44:    480e        .H      LDR      r0,[pc,#56] ; [0xc80] = 0x40021000
        0x00000c46:    6841        Ah      LDR      r1,[r0,#4]
        0x00000c48:    f0110f02    ....    TST      r1,#2
        0x00000c4c:    f04f0103    O...    MOV      r1,#3
        0x00000c50:    bf1c        ..      ITT      NE
        0x00000c52:    6842        Bh      LDRNE    r2,[r0,#4]
        0x00000c54:    f0120f01    ....    TSTNE    r2,#1
        0x00000c58:    d10b        ..      BNE      0xc72 ; am_hal_pwrctrl_bucks_init + 46
        0x00000c5a:    6802        .h      LDR      r2,[r0,#0]
        0x00000c5c:    f0420202    B...    ORR      r2,r2,#2
        0x00000c60:    6002        .`      STR      r2,[r0,#0]
        0x00000c62:    6802        .h      LDR      r2,[r0,#0]
        0x00000c64:    f0420201    B...    ORR      r2,r2,#1
        0x00000c68:    6002        .`      STR      r2,[r0,#0]
        0x00000c6a:    6842        Bh      LDR      r2,[r0,#4]
        0x00000c6c:    ea310202    1...    BICS     r2,r1,r2
        0x00000c70:    d1fb        ..      BNE      0xc6a ; am_hal_pwrctrl_bucks_init + 38
        0x00000c72:    6842        Bh      LDR      r2,[r0,#4]
        0x00000c74:    ea310202    1...    BICS     r2,r1,r2
        0x00000c78:    d1fb        ..      BNE      0xc72 ; am_hal_pwrctrl_bucks_init + 46
        0x00000c7a:    2042        B       MOVS     r0,#0x42
        0x00000c7c:    f7ffbe88    ....    B.W      am_hal_flash_delay ; 0x990
    $d
        0x00000c80:    40021000    ...@    DCD    1073876992
    $t
    i.am_hal_pwrctrl_low_power_init
    am_hal_pwrctrl_low_power_init
        0x00000c84:    4804        .H      LDR      r0,[pc,#16] ; [0xc98] = 0x40021000
        0x00000c86:    6981        .i      LDR      r1,[r0,#0x18]
        0x00000c88:    f0410106    A...    ORR      r1,r1,#6
        0x00000c8c:    6181        .a      STR      r1,[r0,#0x18]
        0x00000c8e:    6801        .h      LDR      r1,[r0,#0]
        0x00000c90:    f0210104    !...    BIC      r1,r1,#4
        0x00000c94:    6001        .`      STR      r1,[r0,#0]
        0x00000c96:    4770        pG      BX       lr
    $d
        0x00000c98:    40021000    ...@    DCD    1073876992
    $t
    i.am_hal_pwrctrl_periph_enable
    am_hal_pwrctrl_periph_enable
        0x00000c9c:    b538        8.      PUSH     {r3-r5,lr}
        0x00000c9e:    0004        ..      MOVS     r4,r0
        0x00000ca0:    d002        ..      BEQ      0xca8 ; am_hal_pwrctrl_periph_enable + 12
        0x00000ca2:    1e60        `.      SUBS     r0,r4,#1
        0x00000ca4:    4204        .B      TST      r4,r0
        0x00000ca6:    d004        ..      BEQ      0xcb2 ; am_hal_pwrctrl_periph_enable + 22
        0x00000ca8:    a218        ..      ADR      r2,{pc}+0x64 ; 0xd0c
        0x00000caa:    215f        _!      MOVS     r1,#0x5f
        0x00000cac:    a024        $.      ADR      r0,{pc}+0x94 ; 0xd40
        0x00000cae:    f7fffe6d    ..m.    BL       am_hal_debug_error ; 0x98c
        0x00000cb2:    f7fffa81    ....    BL       am_hal_interrupt_master_disable ; 0x1b8
        0x00000cb6:    4d27        'M      LDR      r5,[pc,#156] ; [0xd54] = 0x40021000
        0x00000cb8:    9000        ..      STR      r0,[sp,#0]
        0x00000cba:    68a8        .h      LDR      r0,[r5,#8]
        0x00000cbc:    4320         C      ORRS     r0,r0,r4
        0x00000cbe:    60a8        .`      STR      r0,[r5,#8]
        0x00000cc0:    9800        ..      LDR      r0,[sp,#0]
        0x00000cc2:    f7fffa7d    ..}.    BL       am_hal_interrupt_master_set ; 0x1c0
        0x00000cc6:    200e        .       MOVS     r0,#0xe
        0x00000cc8:    f7fffe62    ..b.    BL       am_hal_flash_delay ; 0x990
        0x00000ccc:    f0140f0e    ....    TST      r4,#0xe
        0x00000cd0:    bf18        ..      IT       NE
        0x00000cd2:    2004        .       MOVNE    r0,#4
        0x00000cd4:    d003        ..      BEQ      0xcde ; am_hal_pwrctrl_periph_enable + 66
        0x00000cd6:    6969        ii      LDR      r1,[r5,#0x14]
        0x00000cd8:    4201        .B      TST      r1,r0
        0x00000cda:    d0fc        ..      BEQ      0xcd6 ; am_hal_pwrctrl_periph_enable + 58
        0x00000cdc:    bd38        8.      POP      {r3-r5,pc}
        0x00000cde:    f0140f70    ..p.    TST      r4,#0x70
        0x00000ce2:    bf18        ..      IT       NE
        0x00000ce4:    2008        .       MOVNE    r0,#8
        0x00000ce6:    d1f6        ..      BNE      0xcd6 ; am_hal_pwrctrl_periph_enable + 58
        0x00000ce8:    f2401081    @...    MOV      r0,#0x181
        0x00000cec:    4204        .B      TST      r4,r0
        0x00000cee:    bf18        ..      IT       NE
        0x00000cf0:    2002        .       MOVNE    r0,#2
        0x00000cf2:    d1f0        ..      BNE      0xcd6 ; am_hal_pwrctrl_periph_enable + 58
        0x00000cf4:    f4147f00    ....    TST      r4,#0x200
        0x00000cf8:    bf18        ..      IT       NE
        0x00000cfa:    2080        .       MOVNE    r0,#0x80
        0x00000cfc:    d1eb        ..      BNE      0xcd6 ; am_hal_pwrctrl_periph_enable + 58
        0x00000cfe:    f4146f80    ...o    TST      r4,#0x400
        0x00000d02:    bf14        ..      ITE      NE
        0x00000d04:    2010        .       MOVNE    r0,#0x10
        0x00000d06:    f04f30ff    O..0    MOVEQ    r0,#0xffffffff
        0x00000d0a:    e7e4        ..      B        0xcd6 ; am_hal_pwrctrl_periph_enable + 58
    $d
        0x00000d0c:    6e6e6143    Cann    DCD    1852727619
        0x00000d10:    6520746f    ot e    DCD    1696625775
        0x00000d14:    6c62616e    nabl    DCD    1818386798
        0x00000d18:    6f6d2065    e mo    DCD    1869422693
        0x00000d1c:    74206572    re t    DCD    1948280178
        0x00000d20:    206e6168    han     DCD    544104808
        0x00000d24:    20656e6f    one     DCD    543518319
        0x00000d28:    69726570    peri    DCD    1769104752
        0x00000d2c:    72656870    pher    DCD    1919248496
        0x00000d30:    61206c61    al a    DCD    1629514849
        0x00000d34:    20612074    t a     DCD    543236212
        0x00000d38:    656d6974    time    DCD    1701669236
        0x00000d3c:    0000002e    ....    DCD    46
        0x00000d40:    685f6d61    am_h    DCD    1751084385
        0x00000d44:    705f6c61    al_p    DCD    1885301857
        0x00000d48:    74637277    wrct    DCD    1952674423
        0x00000d4c:    632e6c72    rl.c    DCD    1663986802
        0x00000d50:    00000000    ....    DCD    0
        0x00000d54:    40021000    ...@    DCD    1073876992
    $t
    i.am_hal_reset_poi
    am_hal_reset_poi
        0x00000d58:    f04f4180    O..A    MOV      r1,#0x40000000
        0x00000d5c:    201b        .       MOVS     r0,#0x1b
        0x00000d5e:    6048        H`      STR      r0,[r1,#4]
        0x00000d60:    4770        pG      BX       lr
    i.am_hal_rtc_osc_disable
    am_hal_rtc_osc_disable
        0x00000d62:    f04f2040    O.@     MOV      r0,#0x40004000
        0x00000d66:    6d01        .m      LDR      r1,[r0,#0x50]
        0x00000d68:    f0410110    A...    ORR      r1,r1,#0x10
        0x00000d6c:    6501        .e      STR      r1,[r0,#0x50]
        0x00000d6e:    4770        pG      BX       lr
    i.am_hal_rtc_osc_select
    am_hal_rtc_osc_select
        0x00000d70:    f04f2140    O.@!    MOV      r1,#0x40004000
        0x00000d74:    2800        .(      CMP      r0,#0
        0x00000d76:    68c8        .h      LDR      r0,[r1,#0xc]
        0x00000d78:    bf14        ..      ITE      NE
        0x00000d7a:    f0400080    @...    ORRNE    r0,r0,#0x80
        0x00000d7e:    f0200080     ...    BICEQ    r0,r0,#0x80
        0x00000d82:    60c8        .`      STR      r0,[r1,#0xc]
        0x00000d84:    4770        pG      BX       lr
        0x00000d86:    0000        ..      MOVS     r0,r0
    i.am_hal_sysctrl_sleep
    am_hal_sysctrl_sleep
        0x00000d88:    b5f8        ..      PUSH     {r3-r7,lr}
        0x00000d8a:    4604        .F      MOV      r4,r0
        0x00000d8c:    f7fffa14    ....    BL       am_hal_interrupt_master_disable ; 0x1b8
        0x00000d90:    493a        :I      LDR      r1,[pc,#232] ; [0xe7c] = 0xe000ed10
        0x00000d92:    4605        .F      MOV      r5,r0
        0x00000d94:    b12c        ,.      CBZ      r4,0xda2 ; am_hal_sysctrl_sleep + 26
        0x00000d96:    483a        :H      LDR      r0,[pc,#232] ; [0xe80] = 0x40020000
        0x00000d98:    f8d02250    ..P"    LDR      r2,[r0,#0x250]
        0x00000d9c:    f0120f01    ....    TST      r2,#1
        0x00000da0:    d00d        ..      BEQ      0xdbe ; am_hal_sysctrl_sleep + 54
        0x00000da2:    6808        .h      LDR      r0,[r1,#0]
        0x00000da4:    f0200004     ...    BIC      r0,r0,#4
        0x00000da8:    6008        .`      STR      r0,[r1,#0]
        0x00000daa:    f3bf8f4f    ..O.    DSB      
        0x00000dae:    bf30        0.      WFI      
        0x00000db0:    f3bf8f6f    ..o.    ISB      
        0x00000db4:    4628        (F      MOV      r0,r5
        0x00000db6:    e8bd40f8    ...@    POP      {r3-r7,lr}
        0x00000dba:    f7ffba01    ....    B        am_hal_interrupt_master_set ; 0x1c0
        0x00000dbe:    680a        .h      LDR      r2,[r1,#0]
        0x00000dc0:    f0420204    B...    ORR      r2,r2,#4
        0x00000dc4:    600a        .`      STR      r2,[r1,#0]
        0x00000dc6:    68c0        .h      LDR      r0,[r0,#0xc]
        0x00000dc8:    f00000f0    ....    AND      r0,r0,#0xf0
        0x00000dcc:    2820         (      CMP      r0,#0x20
        0x00000dce:    bf14        ..      ITE      NE
        0x00000dd0:    2000        .       MOVNE    r0,#0
        0x00000dd2:    2002        .       MOVEQ    r0,#2
        0x00000dd4:    4c2b        +L      LDR      r4,[pc,#172] ; [0xe84] = 0x100000d4
        0x00000dd6:    60e0        .`      STR      r0,[r4,#0xc]
        0x00000dd8:    6861        ah      LDR      r1,[r4,#4]
        0x00000dda:    1e49        I.      SUBS     r1,r1,#1
        0x00000ddc:    2903        .)      CMP      r1,#3
        0x00000dde:    bf94        ..      ITE      LS
        0x00000de0:    2104        .!      MOVLS    r1,#4
        0x00000de2:    2100        .!      MOVHI    r1,#0
        0x00000de4:    4301        .C      ORRS     r1,r1,r0
        0x00000de6:    4828        (H      LDR      r0,[pc,#160] ; [0xe88] = 0x40021000
        0x00000de8:    60e1        .`      STR      r1,[r4,#0xc]
        0x00000dea:    6802        .h      LDR      r2,[r0,#0]
        0x00000dec:    f0120203    ....    ANDS     r2,r2,#3
        0x00000df0:    bf18        ..      IT       NE
        0x00000df2:    2201        ."      MOVNE    r2,#1
        0x00000df4:    4311        .C      ORRS     r1,r1,r2
        0x00000df6:    60e1        .`      STR      r1,[r4,#0xc]
        0x00000df8:    6880        .h      LDR      r0,[r0,#8]
        0x00000dfa:    f24052ff    @..R    MOV      r2,#0x5ff
        0x00000dfe:    4210        .B      TST      r0,r2
        0x00000e00:    bf14        ..      ITE      NE
        0x00000e02:    2000        .       MOVNE    r0,#0
        0x00000e04:    2008        .       MOVEQ    r0,#8
        0x00000e06:    4308        .C      ORRS     r0,r0,r1
        0x00000e08:    2600        .&      MOVS     r6,#0
        0x00000e0a:    2101        .!      MOVS     r1,#1
        0x00000e0c:    60e0        .`      STR      r0,[r4,#0xc]
        0x00000e0e:    280f        .(      CMP      r0,#0xf
        0x00000e10:    d006        ..      BEQ      0xe20 ; am_hal_sysctrl_sleep + 152
        0x00000e12:    f3bf8f4f    ..O.    DSB      
        0x00000e16:    bf30        0.      WFI      
        0x00000e18:    f3bf8f6f    ..o.    ISB      
        0x00000e1c:    7021        !p      STRB     r1,[r4,#0]
        0x00000e1e:    e7c9        ..      B        0xdb4 ; am_hal_sysctrl_sleep + 44
        0x00000e20:    6860        `h      LDR      r0,[r4,#4]
        0x00000e22:    f04f31ff    O..1    MOV      r1,#0xffffffff
        0x00000e26:    1e40        @.      SUBS     r0,r0,#1
        0x00000e28:    9000        ..      STR      r0,[sp,#0]
        0x00000e2a:    f7fffd45    ..E.    BL       am_hal_ctimer_clear ; 0x8b8
        0x00000e2e:    2300        .#      MOVS     r3,#0
        0x00000e30:    f04f1201    O...    MOV      r2,#0x10001
        0x00000e34:    1e59        Y.      SUBS     r1,r3,#1
        0x00000e36:    9800        ..      LDR      r0,[sp,#0]
        0x00000e38:    f7fffd52    ..R.    BL       am_hal_ctimer_period_set ; 0x8e0
        0x00000e3c:    f7fffec2    ....    BL       am_hal_pwrctrl_bucks_disable ; 0xbc4
        0x00000e40:    f3bf8f4f    ..O.    DSB      
        0x00000e44:    bf30        0.      WFI      
        0x00000e46:    f3bf8f6f    ..o.    ISB      
        0x00000e4a:    2107        .!      MOVS     r1,#7
        0x00000e4c:    2231        1"      MOVS     r2,#0x31
        0x00000e4e:    4608        .F      MOV      r0,r1
        0x00000e50:    f000fed8    ....    BL       setBuckZX ; 0x1c04
        0x00000e54:    201c        .       MOVS     r0,#0x1c
        0x00000e56:    f7fffd9b    ....    BL       am_hal_flash_delay ; 0x990
        0x00000e5a:    f7fffed9    ....    BL       am_hal_pwrctrl_bucks_enable ; 0xc10
        0x00000e5e:    6860        `h      LDR      r0,[r4,#4]
        0x00000e60:    1e40        @.      SUBS     r0,r0,#1
        0x00000e62:    9000        ..      STR      r0,[sp,#0]
        0x00000e64:    7026        &p      STRB     r6,[r4,#0]
        0x00000e66:    60a6        .`      STR      r6,[r4,#8]
        0x00000e68:    204c        L       MOVS     r0,#0x4c
        0x00000e6a:    f7fffd91    ....    BL       am_hal_flash_delay ; 0x990
        0x00000e6e:    f04f31ff    O..1    MOV      r1,#0xffffffff
        0x00000e72:    9800        ..      LDR      r0,[sp,#0]
        0x00000e74:    f7fffd72    ..r.    BL       am_hal_ctimer_start ; 0x95c
        0x00000e78:    e79c        ..      B        0xdb4 ; am_hal_sysctrl_sleep + 44
    $d
        0x00000e7a:    0000        ..      DCW    0
        0x00000e7c:    e000ed10    ....    DCD    3758157072
        0x00000e80:    40020000    ...@    DCD    1073872896
        0x00000e84:    100000d4    ....    DCD    268435668
        0x00000e88:    40021000    ...@    DCD    1073876992
    $t
    i.am_hal_systick_count
    am_hal_systick_count
        0x00000e8c:    f04f20e0    O..     MOV      r0,#0xe000e000
        0x00000e90:    6980        .i      LDR      r0,[r0,#0x18]
        0x00000e92:    4770        pG      BX       lr
    i.am_hal_systick_load
    am_hal_systick_load
        0x00000e94:    f04f21e0    O..!    MOV      r1,#0xe000e000
        0x00000e98:    6148        Ha      STR      r0,[r1,#0x14]
        0x00000e9a:    2000        .       MOVS     r0,#0
        0x00000e9c:    6188        .a      STR      r0,[r1,#0x18]
        0x00000e9e:    4770        pG      BX       lr
    i.am_hal_systick_start
    am_hal_systick_start
        0x00000ea0:    f04f20e0    O..     MOV      r0,#0xe000e000
        0x00000ea4:    6901        .i      LDR      r1,[r0,#0x10]
        0x00000ea6:    f0410101    A...    ORR      r1,r1,#1
        0x00000eaa:    6101        .a      STR      r1,[r0,#0x10]
        0x00000eac:    4770        pG      BX       lr
    i.am_hal_systick_stop
    am_hal_systick_stop
        0x00000eae:    f04f20e0    O..     MOV      r0,#0xe000e000
        0x00000eb2:    6901        .i      LDR      r1,[r0,#0x10]
        0x00000eb4:    f0210101    !...    BIC      r1,r1,#1
        0x00000eb8:    6101        .a      STR      r1,[r0,#0x10]
        0x00000eba:    4770        pG      BX       lr
    i.am_hal_uart_char_transmit_polled
    am_hal_uart_char_transmit_polled
        0x00000ebc:    0300        ..      LSLS     r0,r0,#12
        0x00000ebe:    f1004080    ...@    ADD      r0,r0,#0x40000000
        0x00000ec2:    f50030e0    ...0    ADD      r0,r0,#0x1c000
        0x00000ec6:    6982        .i      LDR      r2,[r0,#0x18]
        0x00000ec8:    f0120f20    .. .    TST      r2,#0x20
        0x00000ecc:    d1fb        ..      BNE      0xec6 ; am_hal_uart_char_transmit_polled + 10
        0x00000ece:    6001        .`      STR      r1,[r0,#0]
        0x00000ed0:    4770        pG      BX       lr
    i.am_hal_uart_clock_enable
    am_hal_uart_clock_enable
        0x00000ed2:    b510        ..      PUSH     {r4,lr}
        0x00000ed4:    4604        .F      MOV      r4,r0
        0x00000ed6:    2101        .!      MOVS     r1,#1
        0x00000ed8:    f7fffccc    ....    BL       am_hal_clkgen_uarten_set ; 0x874
        0x00000edc:    0320         .      LSLS     r0,r4,#12
        0x00000ede:    f1004080    ...@    ADD      r0,r0,#0x40000000
        0x00000ee2:    f50030e0    ...0    ADD      r0,r0,#0x1c000
        0x00000ee6:    6b01        .k      LDR      r1,[r0,#0x30]
        0x00000ee8:    f0410108    A...    ORR      r1,r1,#8
        0x00000eec:    6301        .c      STR      r1,[r0,#0x30]
        0x00000eee:    6b01        .k      LDR      r1,[r0,#0x30]
        0x00000ef0:    f0410110    A...    ORR      r1,r1,#0x10
        0x00000ef4:    6301        .c      STR      r1,[r0,#0x30]
        0x00000ef6:    bd10        ..      POP      {r4,pc}
    i.am_hal_uart_config
    am_hal_uart_config
        0x00000ef8:    b5f8        ..      PUSH     {r3-r7,lr}
        0x00000efa:    460d        .F      MOV      r5,r1
        0x00000efc:    4604        .F      MOV      r4,r0
        0x00000efe:    f7fff95b    ..[.    BL       am_hal_interrupt_master_disable ; 0x1b8
        0x00000f02:    9000        ..      STR      r0,[sp,#0]
        0x00000f04:    0320         .      LSLS     r0,r4,#12
        0x00000f06:    f1004480    ...D    ADD      r4,r0,#0x40000000
        0x00000f0a:    f50434e0    ...4    ADD      r4,r4,#0x1c000
        0x00000f0e:    6b20         k      LDR      r0,[r4,#0x30]
        0x00000f10:    f0200001     ...    BIC      r0,r0,#1
        0x00000f14:    f4207040     .@p    BIC      r0,r0,#0x300
        0x00000f18:    6320         c      STR      r0,[r4,#0x30]
        0x00000f1a:    9800        ..      LDR      r0,[sp,#0]
        0x00000f1c:    f7fff950    ..P.    BL       am_hal_interrupt_master_set ; 0x1c0
        0x00000f20:    6828        (h      LDR      r0,[r5,#0]
        0x00000f22:    4918        .I      LDR      r1,[pc,#96] ; [0xf84] = 0x16e3600
        0x00000f24:    0100        ..      LSLS     r0,r0,#4
        0x00000f26:    fbb1f7f0    ....    UDIV     r7,r1,r0
        0x00000f2a:    0189        ..      LSLS     r1,r1,#6
        0x00000f2c:    fbb1f0f0    ....    UDIV     r0,r1,r0
        0x00000f30:    01b9        ..      LSLS     r1,r7,#6
        0x00000f32:    1a46        F.      SUBS     r6,r0,r1
        0x00000f34:    b927        '.      CBNZ     r7,0xf40 ; am_hal_uart_config + 72
        0x00000f36:    a214        ..      ADR      r2,{pc}+0x52 ; 0xf88
        0x00000f38:    2165        e!      MOVS     r1,#0x65
        0x00000f3a:    a020         .      ADR      r0,{pc}+0x82 ; 0xfbc
        0x00000f3c:    f7fffd26    ..&.    BL       am_hal_debug_error ; 0x98c
        0x00000f40:    6267        gb      STR      r7,[r4,#0x24]
        0x00000f42:    6267        gb      STR      r7,[r4,#0x24]
        0x00000f44:    62a6        .b      STR      r6,[r4,#0x28]
        0x00000f46:    f7fff937    ..7.    BL       am_hal_interrupt_master_disable ; 0x1b8
        0x00000f4a:    9000        ..      STR      r0,[sp,#0]
        0x00000f4c:    6b20         k      LDR      r0,[r4,#0x30]
        0x00000f4e:    f2403101    @..1    MOV      r1,#0x301
        0x00000f52:    4308        .C      ORRS     r0,r0,r1
        0x00000f54:    6320         c      STR      r0,[r4,#0x30]
        0x00000f56:    9800        ..      LDR      r0,[sp,#0]
        0x00000f58:    f7fff932    ..2.    BL       am_hal_interrupt_master_set ; 0x1c0
        0x00000f5c:    7a29        )z      LDRB     r1,[r5,#8]
        0x00000f5e:    6868        hh      LDR      r0,[r5,#4]
        0x00000f60:    2900        .)      CMP      r1,#0
        0x00000f62:    bf18        ..      IT       NE
        0x00000f64:    2108        .!      MOVNE    r1,#8
        0x00000f66:    4308        .C      ORRS     r0,r0,r1
        0x00000f68:    68e9        .h      LDR      r1,[r5,#0xc]
        0x00000f6a:    4308        .C      ORRS     r0,r0,r1
        0x00000f6c:    6ae1        .j      LDR      r1,[r4,#0x2c]
        0x00000f6e:    4308        .C      ORRS     r0,r0,r1
        0x00000f70:    62e0        .b      STR      r0,[r4,#0x2c]
        0x00000f72:    6b20         k      LDR      r0,[r4,#0x30]
        0x00000f74:    6929        )i      LDR      r1,[r5,#0x10]
        0x00000f76:    4308        .C      ORRS     r0,r0,r1
        0x00000f78:    6320         c      STR      r0,[r4,#0x30]
        0x00000f7a:    6b20         k      LDR      r0,[r4,#0x30]
        0x00000f7c:    f0400010    @...    ORR      r0,r0,#0x10
        0x00000f80:    6320         c      STR      r0,[r4,#0x30]
        0x00000f82:    bdf8        ..      POP      {r3-r7,pc}
    $d
        0x00000f84:    016e3600    .6n.    DCD    24000000
        0x00000f88:    65746e49    Inte    DCD    1702129225
        0x00000f8c:    20726567    ger     DCD    544367975
        0x00000f90:    69766964    divi    DCD    1769367908
        0x00000f94:    20726f73    sor     DCD    544370547
        0x00000f98:    5453554d    MUST    DCD    1414747469
        0x00000f9c:    20656220     be     DCD    543515168
        0x00000fa0:    61657267    grea    DCD    1634038375
        0x00000fa4:    20726574    ter     DCD    544367988
        0x00000fa8:    6e616874    than    DCD    1851877492
        0x00000fac:    20726f20     or     DCD    544370464
        0x00000fb0:    61757165    equa    DCD    1635086693
        0x00000fb4:    6f74206c    l to    DCD    1869881452
        0x00000fb8:    002e3120     1..    DCD    3027232
        0x00000fbc:    685f6d61    am_h    DCD    1751084385
        0x00000fc0:    755f6c61    al_u    DCD    1969187937
        0x00000fc4:    2e747261    art.    DCD    779383393
        0x00000fc8:    00000063    c...    DCD    99
    $t
    i.am_hal_uart_disable
    am_hal_uart_disable
        0x00000fcc:    b538        8.      PUSH     {r3-r5,lr}
        0x00000fce:    4604        .F      MOV      r4,r0
        0x00000fd0:    f7fff8f2    ....    BL       am_hal_interrupt_master_disable ; 0x1b8
        0x00000fd4:    9000        ..      STR      r0,[sp,#0]
        0x00000fd6:    0320         .      LSLS     r0,r4,#12
        0x00000fd8:    f1004080    ...@    ADD      r0,r0,#0x40000000
        0x00000fdc:    f50030e0    ...0    ADD      r0,r0,#0x1c000
        0x00000fe0:    6b01        .k      LDR      r1,[r0,#0x30]
        0x00000fe2:    f0210101    !...    BIC      r1,r1,#1
        0x00000fe6:    f4217140    !.@q    BIC      r1,r1,#0x300
        0x00000fea:    6301        .c      STR      r1,[r0,#0x30]
        0x00000fec:    9800        ..      LDR      r0,[sp,#0]
        0x00000fee:    e8bd4038    ..8@    POP      {r3-r5,lr}
        0x00000ff2:    f7ffb8e5    ....    B        am_hal_interrupt_master_set ; 0x1c0
    i.am_hal_uart_enable
    am_hal_uart_enable
        0x00000ff6:    b538        8.      PUSH     {r3-r5,lr}
        0x00000ff8:    4604        .F      MOV      r4,r0
        0x00000ffa:    f7fff8dd    ....    BL       am_hal_interrupt_master_disable ; 0x1b8
        0x00000ffe:    9000        ..      STR      r0,[sp,#0]
        0x00001000:    0320         .      LSLS     r0,r4,#12
        0x00001002:    f1004080    ...@    ADD      r0,r0,#0x40000000
        0x00001006:    f50030e0    ...0    ADD      r0,r0,#0x1c000
        0x0000100a:    6b01        .k      LDR      r1,[r0,#0x30]
        0x0000100c:    f2403201    @..2    MOV      r2,#0x301
        0x00001010:    4311        .C      ORRS     r1,r1,r2
        0x00001012:    6301        .c      STR      r1,[r0,#0x30]
        0x00001014:    9800        ..      LDR      r0,[sp,#0]
        0x00001016:    e8bd4038    ..8@    POP      {r3-r5,lr}
        0x0000101a:    f7ffb8d1    ....    B        am_hal_interrupt_master_set ; 0x1c0
    i.am_hal_uart_fifo_config
    am_hal_uart_fifo_config
        0x0000101e:    0300        ..      LSLS     r0,r0,#12
        0x00001020:    f1004080    ...@    ADD      r0,r0,#0x40000000
        0x00001024:    f50030e0    ...0    ADD      r0,r0,#0x1c000
        0x00001028:    6ac2        .j      LDR      r2,[r0,#0x2c]
        0x0000102a:    f0420210    B...    ORR      r2,r2,#0x10
        0x0000102e:    62c2        .b      STR      r2,[r0,#0x2c]
        0x00001030:    6341        Ac      STR      r1,[r0,#0x34]
        0x00001032:    4770        pG      BX       lr
    i.am_hal_uart_int_clear
    am_hal_uart_int_clear
        0x00001034:    0300        ..      LSLS     r0,r0,#12
        0x00001036:    f1004080    ...@    ADD      r0,r0,#0x40000000
        0x0000103a:    f50030e0    ...0    ADD      r0,r0,#0x1c000
        0x0000103e:    6441        Ad      STR      r1,[r0,#0x44]
        0x00001040:    4770        pG      BX       lr
    i.am_hal_uart_int_enable
    am_hal_uart_int_enable
        0x00001042:    0300        ..      LSLS     r0,r0,#12
        0x00001044:    f1004080    ...@    ADD      r0,r0,#0x40000000
        0x00001048:    f50030e0    ...0    ADD      r0,r0,#0x1c000
        0x0000104c:    6b82        .k      LDR      r2,[r0,#0x38]
        0x0000104e:    4311        .C      ORRS     r1,r1,r2
        0x00001050:    6381        .c      STR      r1,[r0,#0x38]
        0x00001052:    4770        pG      BX       lr
    i.am_hal_uart_int_status_get
    am_hal_uart_int_status_get
        0x00001054:    0300        ..      LSLS     r0,r0,#12
        0x00001056:    f1004080    ...@    ADD      r0,r0,#0x40000000
        0x0000105a:    f50030e0    ...0    ADD      r0,r0,#0x1c000
        0x0000105e:    2900        .)      CMP      r1,#0
        0x00001060:    bf14        ..      ITE      NE
        0x00001062:    6c00        .l      LDRNE    r0,[r0,#0x40]
        0x00001064:    6bc0        .k      LDREQ    r0,[r0,#0x3c]
        0x00001066:    4770        pG      BX       lr
    i.am_hal_uart_pwrctrl_enable
    am_hal_uart_pwrctrl_enable
        0x00001068:    b510        ..      PUSH     {r4,lr}
        0x0000106a:    4604        .F      MOV      r4,r0
        0x0000106c:    2802        .(      CMP      r0,#2
        0x0000106e:    d305        ..      BCC      0x107c ; am_hal_uart_pwrctrl_enable + 20
        0x00001070:    a205        ..      ADR      r2,{pc}+0x18 ; 0x1088
        0x00001072:    f44f71d8    O..q    MOV      r1,#0x1b0
        0x00001076:    a011        ..      ADR      r0,{pc}+0x46 ; 0x10bc
        0x00001078:    f7fffc88    ....    BL       am_hal_debug_error ; 0x98c
        0x0000107c:    2080        .       MOVS     r0,#0x80
        0x0000107e:    40a0        .@      LSLS     r0,r0,r4
        0x00001080:    e8bd4010    ...@    POP      {r4,lr}
        0x00001084:    f7ffbe0a    ....    B.W      am_hal_pwrctrl_periph_enable ; 0xc9c
    $d
        0x00001088:    69797254    Tryi    DCD    1769566804
        0x0000108c:    7420676e    ng t    DCD    1948280686
        0x00001090:    6964206f    o di    DCD    1768169583
        0x00001094:    6c626173    sabl    DCD    1818386803
        0x00001098:    20612065    e a     DCD    543236197
        0x0000109c:    54524155    UART    DCD    1414676821
        0x000010a0:    646f6d20     mod    DCD    1685024032
        0x000010a4:    20656c75    ule     DCD    543517813
        0x000010a8:    74616874    that    DCD    1952540788
        0x000010ac:    656f6420     doe    DCD    1701798944
        0x000010b0:    74276e73    sn't    DCD    1948741235
        0x000010b4:    69786520     exi    DCD    1769497888
        0x000010b8:    00007473    st..    DCD    29811
        0x000010bc:    685f6d61    am_h    DCD    1751084385
        0x000010c0:    755f6c61    al_u    DCD    1969187937
        0x000010c4:    2e747261    art.    DCD    779383393
        0x000010c8:    00000063    c...    DCD    99
    $t
    i.am_hal_vcomp_disable
    am_hal_vcomp_disable
        0x000010cc:    4901        .I      LDR      r1,[pc,#4] ; [0x10d4] = 0x4000c000
        0x000010ce:    2037        7       MOVS     r0,#0x37
        0x000010d0:    6088        .`      STR      r0,[r1,#8]
        0x000010d2:    4770        pG      BX       lr
    $d
        0x000010d4:    4000c000    ...@    DCD    1073790976
    $t
    i.am_multiboot_check_boot_from_flash
    am_multiboot_check_boot_from_flash
        0x000010d8:    b570        p.      PUSH     {r4-r6,lr}
        0x000010da:    4604        .F      MOV      r4,r0
        0x000010dc:    460d        .F      MOV      r5,r1
        0x000010de:    2600        .&      MOVS     r6,#0
        0x000010e0:    2124        $!      MOVS     r1,#0x24
        0x000010e2:    4816        .H      LDR      r0,[pc,#88] ; [0x113c] = 0x10000054
        0x000010e4:    6800        .h      LDR      r0,[r0,#0]
        0x000010e6:    f7fffa19    ....    BL       am_bootloader_validate_structure ; 0x51c
        0x000010ea:    b198        ..      CBZ      r0,0x1114 ; am_multiboot_check_boot_from_flash + 60
        0x000010ec:    4813        .H      LDR      r0,[pc,#76] ; [0x113c] = 0x10000054
        0x000010ee:    6800        .h      LDR      r0,[r0,#0]
        0x000010f0:    f7fffa50    ..P.    BL       am_hal_bootloader_override_check ; 0x594
        0x000010f4:    b110        ..      CBZ      r0,0x10fc ; am_multiboot_check_boot_from_flash + 36
        0x000010f6:    2001        .       MOVS     r0,#1
        0x000010f8:    7020         p      STRB     r0,[r4,#0]
        0x000010fa:    e01c        ..      B        0x1136 ; am_multiboot_check_boot_from_flash + 94
        0x000010fc:    2000        .       MOVS     r0,#0
        0x000010fe:    7020         p      STRB     r0,[r4,#0]
        0x00001100:    480e        .H      LDR      r0,[pc,#56] ; [0x113c] = 0x10000054
        0x00001102:    6800        .h      LDR      r0,[r0,#0]
        0x00001104:    f7fff998    ....    BL       am_bootloader_flash_check ; 0x438
        0x00001108:    b1a8        ..      CBZ      r0,0x1136 ; am_multiboot_check_boot_from_flash + 94
        0x0000110a:    480c        .H      LDR      r0,[pc,#48] ; [0x113c] = 0x10000054
        0x0000110c:    6800        .h      LDR      r0,[r0,#0]
        0x0000110e:    6028        (`      STR      r0,[r5,#0]
        0x00001110:    2601        .&      MOVS     r6,#1
        0x00001112:    e010        ..      B        0x1136 ; am_multiboot_check_boot_from_flash + 94
        0x00001114:    480a        .H      LDR      r0,[pc,#40] ; [0x1140] = 0x10000030
        0x00001116:    f7fffa3d    ..=.    BL       am_hal_bootloader_override_check ; 0x594
        0x0000111a:    b110        ..      CBZ      r0,0x1122 ; am_multiboot_check_boot_from_flash + 74
        0x0000111c:    2001        .       MOVS     r0,#1
        0x0000111e:    7020         p      STRB     r0,[r4,#0]
        0x00001120:    e009        ..      B        0x1136 ; am_multiboot_check_boot_from_flash + 94
        0x00001122:    2000        .       MOVS     r0,#0
        0x00001124:    7020         p      STRB     r0,[r4,#0]
        0x00001126:    4806        .H      LDR      r0,[pc,#24] ; [0x1140] = 0x10000030
        0x00001128:    6800        .h      LDR      r0,[r0,#0]
        0x0000112a:    6800        .h      LDR      r0,[r0,#0]
        0x0000112c:    1c40        @.      ADDS     r0,r0,#1
        0x0000112e:    b110        ..      CBZ      r0,0x1136 ; am_multiboot_check_boot_from_flash + 94
        0x00001130:    4803        .H      LDR      r0,[pc,#12] ; [0x1140] = 0x10000030
        0x00001132:    6028        (`      STR      r0,[r5,#0]
        0x00001134:    2601        .&      MOVS     r6,#1
        0x00001136:    4630        0F      MOV      r0,r6
        0x00001138:    bd70        p.      POP      {r4-r6,pc}
    $d
        0x0000113a:    0000        ..      DCW    0
        0x0000113c:    10000054    T...    DCD    268435540
        0x00001140:    10000030    0...    DCD    268435504
    $t
    i.am_multiboot_flash_erase_page
    am_multiboot_flash_erase_page
        0x00001144:    b510        ..      PUSH     {r4,lr}
        0x00001146:    4604        .F      MOV      r4,r0
        0x00001148:    2104        .!      MOVS     r1,#4
        0x0000114a:    4620         F      MOV      r0,r4
        0x0000114c:    f000faac    ....    BL       check_flash_address_range ; 0x16a8
        0x00001150:    b120         .      CBZ      r0,0x115c ; am_multiboot_flash_erase_page + 24
        0x00001152:    4620         F      MOV      r0,r4
        0x00001154:    f7fff91c    ....    BL       am_bootloader_erase_flash_page ; 0x390
        0x00001158:    2000        .       MOVS     r0,#0
        0x0000115a:    bd10        ..      POP      {r4,pc}
        0x0000115c:    f04f30ff    O..0    MOV      r0,#0xffffffff
        0x00001160:    e7fb        ..      B        0x115a ; am_multiboot_flash_erase_page + 22
    i.am_multiboot_flash_read_page
    am_multiboot_flash_read_page
        0x00001162:    b570        p.      PUSH     {r4-r6,lr}
        0x00001164:    4606        .F      MOV      r6,r0
        0x00001166:    460c        .F      MOV      r4,r1
        0x00001168:    4615        .F      MOV      r5,r2
        0x0000116a:    4629        )F      MOV      r1,r5
        0x0000116c:    4620         F      MOV      r0,r4
        0x0000116e:    f000fa9b    ....    BL       check_flash_address_range ; 0x16a8
        0x00001172:    b130        0.      CBZ      r0,0x1182 ; am_multiboot_flash_read_page + 32
        0x00001174:    462a        *F      MOV      r2,r5
        0x00001176:    4621        !F      MOV      r1,r4
        0x00001178:    4630        0F      MOV      r0,r6
        0x0000117a:    f7fff844    ..D.    BL       __aeabi_memcpy ; 0x206
        0x0000117e:    2000        .       MOVS     r0,#0
        0x00001180:    bd70        p.      POP      {r4-r6,pc}
        0x00001182:    f04f30ff    O..0    MOV      r0,#0xffffffff
        0x00001186:    e7fb        ..      B        0x1180 ; am_multiboot_flash_read_page + 30
    i.am_multiboot_flash_write_page
    am_multiboot_flash_write_page
        0x00001188:    b570        p.      PUSH     {r4-r6,lr}
        0x0000118a:    4605        .F      MOV      r5,r0
        0x0000118c:    460e        .F      MOV      r6,r1
        0x0000118e:    4614        .F      MOV      r4,r2
        0x00001190:    4621        !F      MOV      r1,r4
        0x00001192:    4628        (F      MOV      r0,r5
        0x00001194:    f000fa88    ....    BL       check_flash_address_range ; 0x16a8
        0x00001198:    b130        0.      CBZ      r0,0x11a8 ; am_multiboot_flash_write_page + 32
        0x0000119a:    4622        "F      MOV      r2,r4
        0x0000119c:    4631        1F      MOV      r1,r6
        0x0000119e:    4628        (F      MOV      r0,r5
        0x000011a0:    f7fff9a2    ....    BL       am_bootloader_program_flash_page ; 0x4e8
        0x000011a4:    2000        .       MOVS     r0,#0
        0x000011a6:    bd70        p.      POP      {r4-r6,pc}
        0x000011a8:    f04f30ff    O..0    MOV      r0,#0xffffffff
        0x000011ac:    e7fb        ..      B        0x11a6 ; am_multiboot_flash_write_page + 30
        0x000011ae:    0000        ..      MOVS     r0,r0
    i.am_multiboot_init
    am_multiboot_init
        0x000011b0:    4602        .F      MOV      r2,r0
        0x000011b2:    2000        .       MOVS     r0,#0
        0x000011b4:    b12a        *.      CBZ      r2,0x11c2 ; am_multiboot_init + 18
        0x000011b6:    f5b15f00    ..._    CMP      r1,#0x2000
        0x000011ba:    d302        ..      BCC      0x11c2 ; am_multiboot_init + 18
        0x000011bc:    4b01        .K      LDR      r3,[pc,#4] ; [0x11c4] = 0x10002110
        0x000011be:    601a        .`      STR      r2,[r3,#0]
        0x000011c0:    2001        .       MOVS     r0,#1
        0x000011c2:    4770        pG      BX       lr
    $d
        0x000011c4:    10002110    .!..    DCD    268443920
    $t
    i.am_multiboot_setup_serial
    am_multiboot_setup_serial
        0x000011c8:    b570        p.      PUSH     {r4-r6,lr}
        0x000011ca:    4604        .F      MOV      r4,r0
        0x000011cc:    460d        .F      MOV      r5,r1
        0x000011ce:    261e        .&      MOVS     r6,#0x1e
        0x000011d0:    2000        .       MOVS     r0,#0
        0x000011d2:    491a        .I      LDR      r1,[pc,#104] ; [0x123c] = 0x100000c0
        0x000011d4:    6008        .`      STR      r0,[r1,#0]
        0x000011d6:    491a        .I      LDR      r1,[pc,#104] ; [0x1240] = 0x100000a4
        0x000011d8:    6008        .`      STR      r0,[r1,#0]
        0x000011da:    491a        .I      LDR      r1,[pc,#104] ; [0x1244] = 0x100000ac
        0x000011dc:    6008        .`      STR      r0,[r1,#0]
        0x000011de:    491a        .I      LDR      r1,[pc,#104] ; [0x1248] = 0x100000a8
        0x000011e0:    6008        .`      STR      r0,[r1,#0]
        0x000011e2:    491a        .I      LDR      r1,[pc,#104] ; [0x124c] = 0x100000a1
        0x000011e4:    7008        .p      STRB     r0,[r1,#0]
        0x000011e6:    2001        .       MOVS     r0,#1
        0x000011e8:    4919        .I      LDR      r1,[pc,#100] ; [0x1250] = 0x100000a2
        0x000011ea:    7008        .p      STRB     r0,[r1,#0]
        0x000011ec:    20ff        .       MOVS     r0,#0xff
        0x000011ee:    4919        .I      LDR      r1,[pc,#100] ; [0x1254] = 0x100000c4
        0x000011f0:    6008        .`      STR      r0,[r1,#0]
        0x000011f2:    4620         F      MOV      r0,r4
        0x000011f4:    f7ffff38    ..8.    BL       am_hal_uart_pwrctrl_enable ; 0x1068
        0x000011f8:    4620         F      MOV      r0,r4
        0x000011fa:    f7fffe6a    ..j.    BL       am_hal_uart_clock_enable ; 0xed2
        0x000011fe:    4620         F      MOV      r0,r4
        0x00001200:    f7fffee4    ....    BL       am_hal_uart_disable ; 0xfcc
        0x00001204:    4814        .H      LDR      r0,[pc,#80] ; [0x1258] = 0x10000088
        0x00001206:    6005        .`      STR      r5,[r0,#0]
        0x00001208:    4601        .F      MOV      r1,r0
        0x0000120a:    4620         F      MOV      r0,r4
        0x0000120c:    f7fffe74    ..t.    BL       am_hal_uart_config ; 0xef8
        0x00001210:    211b        .!      MOVS     r1,#0x1b
        0x00001212:    4620         F      MOV      r0,r4
        0x00001214:    f7ffff03    ....    BL       am_hal_uart_fifo_config ; 0x101e
        0x00001218:    4620         F      MOV      r0,r4
        0x0000121a:    f7fffeec    ....    BL       am_hal_uart_enable ; 0xff6
        0x0000121e:    2150        P!      MOVS     r1,#0x50
        0x00001220:    4620         F      MOV      r0,r4
        0x00001222:    f7ffff07    ....    BL       am_hal_uart_int_clear ; 0x1034
        0x00001226:    2150        P!      MOVS     r1,#0x50
        0x00001228:    4620         F      MOV      r0,r4
        0x0000122a:    f7ffff0a    ....    BL       am_hal_uart_int_enable ; 0x1042
        0x0000122e:    2c01        .,      CMP      r4,#1
        0x00001230:    d100        ..      BNE      0x1234 ; am_multiboot_setup_serial + 108
        0x00001232:    261f        .&      MOVS     r6,#0x1f
        0x00001234:    4630        0F      MOV      r0,r6
        0x00001236:    f7fffc3f    ..?.    BL       am_hal_interrupt_enable ; 0xab8
        0x0000123a:    bd70        p.      POP      {r4-r6,pc}
    $d
        0x0000123c:    100000c0    ....    DCD    268435648
        0x00001240:    100000a4    ....    DCD    268435620
        0x00001244:    100000ac    ....    DCD    268435628
        0x00001248:    100000a8    ....    DCD    268435624
        0x0000124c:    100000a1    ....    DCD    268435617
        0x00001250:    100000a2    ....    DCD    268435618
        0x00001254:    100000c4    ....    DCD    268435652
        0x00001258:    10000088    ....    DCD    268435592
    $t
    i.am_multiboot_uart_detect_baudrate
    am_multiboot_uart_detect_baudrate
        0x0000125c:    e92d4ffe    -..O    PUSH     {r1-r11,lr}
        0x00001260:    4604        .F      MOV      r4,r0
        0x00001262:    f7fffe13    ....    BL       am_hal_systick_count ; 0xe8c
        0x00001266:    9002        ..      STR      r0,[sp,#8]
        0x00001268:    bf00        ..      NOP      
        0x0000126a:    f0040020    .. .    AND      r0,r4,#0x20
        0x0000126e:    4954        TI      LDR      r1,[pc,#336] ; [0x13c0] = 0x40010000
        0x00001270:    eb0100d0    ....    ADD      r0,r1,r0,LSR #3
        0x00001274:    f8d00080    ....    LDR      r0,[r0,#0x80]
        0x00001278:    f004021f    ....    AND      r2,r4,#0x1f
        0x0000127c:    2101        .!      MOVS     r1,#1
        0x0000127e:    4091        .@      LSLS     r1,r1,r2
        0x00001280:    4008        .@      ANDS     r0,r0,r1
        0x00001282:    2800        .(      CMP      r0,#0
        0x00001284:    d0f1        ..      BEQ      0x126a ; am_multiboot_uart_detect_baudrate + 14
        0x00001286:    bf00        ..      NOP      
        0x00001288:    f0040020    .. .    AND      r0,r4,#0x20
        0x0000128c:    494c        LI      LDR      r1,[pc,#304] ; [0x13c0] = 0x40010000
        0x0000128e:    eb0100d0    ....    ADD      r0,r1,r0,LSR #3
        0x00001292:    f8d00080    ....    LDR      r0,[r0,#0x80]
        0x00001296:    f004021f    ....    AND      r2,r4,#0x1f
        0x0000129a:    2101        .!      MOVS     r1,#1
        0x0000129c:    4091        .@      LSLS     r1,r1,r2
        0x0000129e:    4008        .@      ANDS     r0,r0,r1
        0x000012a0:    2800        .(      CMP      r0,#0
        0x000012a2:    d1f1        ..      BNE      0x1288 ; am_multiboot_uart_detect_baudrate + 44
        0x000012a4:    bf00        ..      NOP      
        0x000012a6:    f0040020    .. .    AND      r0,r4,#0x20
        0x000012aa:    4945        EI      LDR      r1,[pc,#276] ; [0x13c0] = 0x40010000
        0x000012ac:    eb0100d0    ....    ADD      r0,r1,r0,LSR #3
        0x000012b0:    f8d00080    ....    LDR      r0,[r0,#0x80]
        0x000012b4:    f004021f    ....    AND      r2,r4,#0x1f
        0x000012b8:    2101        .!      MOVS     r1,#1
        0x000012ba:    4091        .@      LSLS     r1,r1,r2
        0x000012bc:    4008        .@      ANDS     r0,r0,r1
        0x000012be:    2800        .(      CMP      r0,#0
        0x000012c0:    d0f1        ..      BEQ      0x12a6 ; am_multiboot_uart_detect_baudrate + 74
        0x000012c2:    bf00        ..      NOP      
        0x000012c4:    f0040020    .. .    AND      r0,r4,#0x20
        0x000012c8:    493d        =I      LDR      r1,[pc,#244] ; [0x13c0] = 0x40010000
        0x000012ca:    eb0100d0    ....    ADD      r0,r1,r0,LSR #3
        0x000012ce:    f8d00080    ....    LDR      r0,[r0,#0x80]
        0x000012d2:    f004021f    ....    AND      r2,r4,#0x1f
        0x000012d6:    2101        .!      MOVS     r1,#1
        0x000012d8:    4091        .@      LSLS     r1,r1,r2
        0x000012da:    4008        .@      ANDS     r0,r0,r1
        0x000012dc:    2800        .(      CMP      r0,#0
        0x000012de:    d1f1        ..      BNE      0x12c4 ; am_multiboot_uart_detect_baudrate + 104
        0x000012e0:    bf00        ..      NOP      
        0x000012e2:    f0040020    .. .    AND      r0,r4,#0x20
        0x000012e6:    4936        6I      LDR      r1,[pc,#216] ; [0x13c0] = 0x40010000
        0x000012e8:    eb0100d0    ....    ADD      r0,r1,r0,LSR #3
        0x000012ec:    f8d00080    ....    LDR      r0,[r0,#0x80]
        0x000012f0:    f004021f    ....    AND      r2,r4,#0x1f
        0x000012f4:    2101        .!      MOVS     r1,#1
        0x000012f6:    4091        .@      LSLS     r1,r1,r2
        0x000012f8:    4008        .@      ANDS     r0,r0,r1
        0x000012fa:    2800        .(      CMP      r0,#0
        0x000012fc:    d0f1        ..      BEQ      0x12e2 ; am_multiboot_uart_detect_baudrate + 134
        0x000012fe:    bf00        ..      NOP      
        0x00001300:    f0040020    .. .    AND      r0,r4,#0x20
        0x00001304:    492e        .I      LDR      r1,[pc,#184] ; [0x13c0] = 0x40010000
        0x00001306:    eb0100d0    ....    ADD      r0,r1,r0,LSR #3
        0x0000130a:    f8d00080    ....    LDR      r0,[r0,#0x80]
        0x0000130e:    f004021f    ....    AND      r2,r4,#0x1f
        0x00001312:    2101        .!      MOVS     r1,#1
        0x00001314:    4091        .@      LSLS     r1,r1,r2
        0x00001316:    4008        .@      ANDS     r0,r0,r1
        0x00001318:    2800        .(      CMP      r0,#0
        0x0000131a:    d1f1        ..      BNE      0x1300 ; am_multiboot_uart_detect_baudrate + 164
        0x0000131c:    bf00        ..      NOP      
        0x0000131e:    f0040020    .. .    AND      r0,r4,#0x20
        0x00001322:    4927        'I      LDR      r1,[pc,#156] ; [0x13c0] = 0x40010000
        0x00001324:    eb0100d0    ....    ADD      r0,r1,r0,LSR #3
        0x00001328:    f8d00080    ....    LDR      r0,[r0,#0x80]
        0x0000132c:    f004021f    ....    AND      r2,r4,#0x1f
        0x00001330:    2101        .!      MOVS     r1,#1
        0x00001332:    4091        .@      LSLS     r1,r1,r2
        0x00001334:    4008        .@      ANDS     r0,r0,r1
        0x00001336:    2800        .(      CMP      r0,#0
        0x00001338:    d0f1        ..      BEQ      0x131e ; am_multiboot_uart_detect_baudrate + 194
        0x0000133a:    bf00        ..      NOP      
        0x0000133c:    f0040020    .. .    AND      r0,r4,#0x20
        0x00001340:    491f        .I      LDR      r1,[pc,#124] ; [0x13c0] = 0x40010000
        0x00001342:    eb0100d0    ....    ADD      r0,r1,r0,LSR #3
        0x00001346:    f8d00080    ....    LDR      r0,[r0,#0x80]
        0x0000134a:    f004021f    ....    AND      r2,r4,#0x1f
        0x0000134e:    2101        .!      MOVS     r1,#1
        0x00001350:    4091        .@      LSLS     r1,r1,r2
        0x00001352:    4008        .@      ANDS     r0,r0,r1
        0x00001354:    2800        .(      CMP      r0,#0
        0x00001356:    d1f1        ..      BNE      0x133c ; am_multiboot_uart_detect_baudrate + 224
        0x00001358:    bf00        ..      NOP      
        0x0000135a:    f0040020    .. .    AND      r0,r4,#0x20
        0x0000135e:    4918        .I      LDR      r1,[pc,#96] ; [0x13c0] = 0x40010000
        0x00001360:    eb0100d0    ....    ADD      r0,r1,r0,LSR #3
        0x00001364:    f8d00080    ....    LDR      r0,[r0,#0x80]
        0x00001368:    f004021f    ....    AND      r2,r4,#0x1f
        0x0000136c:    2101        .!      MOVS     r1,#1
        0x0000136e:    4091        .@      LSLS     r1,r1,r2
        0x00001370:    4008        .@      ANDS     r0,r0,r1
        0x00001372:    2800        .(      CMP      r0,#0
        0x00001374:    d0f1        ..      BEQ      0x135a ; am_multiboot_uart_detect_baudrate + 254
        0x00001376:    f7fffd89    ....    BL       am_hal_systick_count ; 0xe8c
        0x0000137a:    4681        .F      MOV      r9,r0
        0x0000137c:    f7fffd97    ....    BL       am_hal_systick_stop ; 0xeae
        0x00001380:    4622        "F      MOV      r2,r4
        0x00001382:    2501        .%      MOVS     r5,#1
        0x00001384:    2600        .&      MOVS     r6,#0
        0x00001386:    4628        (F      MOV      r0,r5
        0x00001388:    4631        1F      MOV      r1,r6
        0x0000138a:    f7feff29    ..).    BL       __aeabi_llsl ; 0x1e0
        0x0000138e:    e9cd0100    ....    STRD     r0,r1,[sp,#0]
        0x00001392:    f7fffb43    ..C.    BL       am_hal_gpio_int_disable ; 0xa1c
        0x00001396:    4622        "F      MOV      r2,r4
        0x00001398:    2701        .'      MOVS     r7,#1
        0x0000139a:    f04f0800    O...    MOV      r8,#0
        0x0000139e:    4638        8F      MOV      r0,r7
        0x000013a0:    4641        AF      MOV      r1,r8
        0x000013a2:    f7feff1d    ....    BL       __aeabi_llsl ; 0x1e0
        0x000013a6:    e9cd0100    ....    STRD     r0,r1,[sp,#0]
        0x000013aa:    f7fffb25    ..%.    BL       am_hal_gpio_int_clear ; 0x9f8
        0x000013ae:    9802        ..      LDR      r0,[sp,#8]
        0x000013b0:    eba00a09    ....    SUB      r10,r0,r9
        0x000013b4:    4803        .H      LDR      r0,[pc,#12] ; [0x13c4] = 0x19bfcc00
        0x000013b6:    fbb0fbfa    ....    UDIV     r11,r0,r10
        0x000013ba:    4658        XF      MOV      r0,r11
        0x000013bc:    e8bd8ffe    ....    POP      {r1-r11,pc}
    $d
        0x000013c0:    40010000    ...@    DCD    1073807360
        0x000013c4:    19bfcc00    ....    DCD    432000000
    $t
    i.am_multiboot_uart_isr_handler
    am_multiboot_uart_isr_handler
        0x000013c8:    e92d5ff0    -.._    PUSH     {r4-r12,lr}
        0x000013cc:    4607        .F      MOV      r7,r0
        0x000013ce:    f04f0a00    O...    MOV      r10,#0
        0x000013d2:    46d0        .F      MOV      r8,r10
        0x000013d4:    2100        .!      MOVS     r1,#0
        0x000013d6:    4638        8F      MOV      r0,r7
        0x000013d8:    f7fffe3c    ..<.    BL       am_hal_uart_int_status_get ; 0x1054
        0x000013dc:    4683        .F      MOV      r11,r0
        0x000013de:    4659        YF      MOV      r1,r11
        0x000013e0:    4638        8F      MOV      r0,r7
        0x000013e2:    f7fffe27    ..'.    BL       am_hal_uart_int_clear ; 0x1034
        0x000013e6:    2000        .       MOVS     r0,#0
        0x000013e8:    499c        .I      LDR      r1,[pc,#624] ; [0x165c] = 0x100000a2
        0x000013ea:    7008        .p      STRB     r0,[r1,#0]
        0x000013ec:    e0fd        ..      B        0x15ea ; am_multiboot_uart_isr_handler + 546
        0x000013ee:    489c        .H      LDR      r0,[pc,#624] ; [0x1660] = 0x100000a8
        0x000013f0:    6800        .h      LDR      r0,[r0,#0]
        0x000013f2:    f5b07f02    ....    CMP      r0,#0x208
        0x000013f6:    d109        ..      BNE      0x140c ; am_multiboot_uart_isr_handler + 68
        0x000013f8:    2001        .       MOVS     r0,#1
        0x000013fa:    499a        .I      LDR      r1,[pc,#616] ; [0x1664] = 0x100000a1
        0x000013fc:    7008        .p      STRB     r0,[r1,#0]
        0x000013fe:    4c9a        .L      LDR      r4,[pc,#616] ; [0x1668] = 0x100000b3
        0x00001400:    2005        .       MOVS     r0,#5
        0x00001402:    6020         `      STR      r0,[r4,#0]
        0x00001404:    f04f0a01    O...    MOV      r10,#1
        0x00001408:    2504        .%      MOVS     r5,#4
        0x0000140a:    e0f8        ..      B        0x15fe ; am_multiboot_uart_isr_handler + 566
        0x0000140c:    4897        .H      LDR      r0,[pc,#604] ; [0x166c] = 0x4001c000
        0x0000140e:    1481        ..      ASRS     r1,r0,#18
        0x00001410:    fb010007    ....    MLA      r0,r1,r7,r0
        0x00001414:    6800        .h      LDR      r0,[r0,#0]
        0x00001416:    f00009ff    ....    AND      r9,r0,#0xff
        0x0000141a:    4991        .I      LDR      r1,[pc,#580] ; [0x1660] = 0x100000a8
        0x0000141c:    6808        .h      LDR      r0,[r1,#0]
        0x0000141e:    1c41        A.      ADDS     r1,r0,#1
        0x00001420:    4a8f        .J      LDR      r2,[pc,#572] ; [0x1660] = 0x100000a8
        0x00001422:    6011        .`      STR      r1,[r2,#0]
        0x00001424:    4992        .I      LDR      r1,[pc,#584] ; [0x1670] = 0x10002128
        0x00001426:    f8019000    ....    STRB     r9,[r1,r0]
        0x0000142a:    4892        .H      LDR      r0,[pc,#584] ; [0x1674] = 0x100000a4
        0x0000142c:    6800        .h      LDR      r0,[r0,#0]
        0x0000142e:    1c40        @.      ADDS     r0,r0,#1
        0x00001430:    4990        .I      LDR      r1,[pc,#576] ; [0x1674] = 0x100000a4
        0x00001432:    6008        .`      STR      r0,[r1,#0]
        0x00001434:    f1080801    ....    ADD      r8,r8,#1
        0x00001438:    4608        .F      MOV      r0,r1
        0x0000143a:    6800        .h      LDR      r0,[r0,#0]
        0x0000143c:    2804        .(      CMP      r0,#4
        0x0000143e:    d12d        -.      BNE      0x149c ; am_multiboot_uart_isr_handler + 212
        0x00001440:    488b        .H      LDR      r0,[pc,#556] ; [0x1670] = 0x10002128
        0x00001442:    7800        .x      LDRB     r0,[r0,#0]
        0x00001444:    498c        .I      LDR      r1,[pc,#560] ; [0x1678] = 0x100000c0
        0x00001446:    6008        .`      STR      r0,[r1,#0]
        0x00001448:    4608        .F      MOV      r0,r1
        0x0000144a:    6800        .h      LDR      r0,[r0,#0]
        0x0000144c:    280a        .(      CMP      r0,#0xa
        0x0000144e:    d220         .      BCS      0x1492 ; am_multiboot_uart_isr_handler + 202
        0x00001450:    e8dff000    ....    TBB      [pc,r0]
    $d
        0x00001454:    0a051713    ....    DCD    168105747
        0x00001458:    1f0f060b    ....    DCD    521078283
        0x0000145c:    1b1f        ..      DCW    6943
    $t
        0x0000145e:    e01c        ..      B        0x149a ; am_multiboot_uart_isr_handler + 210
        0x00001460:    200c        .       MOVS     r0,#0xc
        0x00001462:    4986        .I      LDR      r1,[pc,#536] ; [0x167c] = 0x100000c4
        0x00001464:    6008        .`      STR      r0,[r1,#0]
        0x00001466:    e018        ..      B        0x149a ; am_multiboot_uart_isr_handler + 210
        0x00001468:    e017        ..      B        0x149a ; am_multiboot_uart_isr_handler + 210
        0x0000146a:    2004        .       MOVS     r0,#4
        0x0000146c:    4983        .I      LDR      r1,[pc,#524] ; [0x167c] = 0x100000c4
        0x0000146e:    6008        .`      STR      r0,[r1,#0]
        0x00001470:    e013        ..      B        0x149a ; am_multiboot_uart_isr_handler + 210
        0x00001472:    2004        .       MOVS     r0,#4
        0x00001474:    4981        .I      LDR      r1,[pc,#516] ; [0x167c] = 0x100000c4
        0x00001476:    6008        .`      STR      r0,[r1,#0]
        0x00001478:    e00f        ..      B        0x149a ; am_multiboot_uart_isr_handler + 210
        0x0000147a:    2004        .       MOVS     r0,#4
        0x0000147c:    497f        .I      LDR      r1,[pc,#508] ; [0x167c] = 0x100000c4
        0x0000147e:    6008        .`      STR      r0,[r1,#0]
        0x00001480:    e00b        ..      B        0x149a ; am_multiboot_uart_isr_handler + 210
        0x00001482:    2004        .       MOVS     r0,#4
        0x00001484:    497d        }I      LDR      r1,[pc,#500] ; [0x167c] = 0x100000c4
        0x00001486:    6008        .`      STR      r0,[r1,#0]
        0x00001488:    e007        ..      B        0x149a ; am_multiboot_uart_isr_handler + 210
        0x0000148a:    2004        .       MOVS     r0,#4
        0x0000148c:    497b        {I      LDR      r1,[pc,#492] ; [0x167c] = 0x100000c4
        0x0000148e:    6008        .`      STR      r0,[r1,#0]
        0x00001490:    e003        ..      B        0x149a ; am_multiboot_uart_isr_handler + 210
        0x00001492:    2004        .       MOVS     r0,#4
        0x00001494:    4979        yI      LDR      r1,[pc,#484] ; [0x167c] = 0x100000c4
        0x00001496:    6008        .`      STR      r0,[r1,#0]
        0x00001498:    bf00        ..      NOP      
        0x0000149a:    bf00        ..      NOP      
        0x0000149c:    4876        vH      LDR      r0,[pc,#472] ; [0x1678] = 0x100000c0
        0x0000149e:    6800        .h      LDR      r0,[r0,#0]
        0x000014a0:    2803        .(      CMP      r0,#3
        0x000014a2:    d10c        ..      BNE      0x14be ; am_multiboot_uart_isr_handler + 246
        0x000014a4:    4873        sH      LDR      r0,[pc,#460] ; [0x1674] = 0x100000a4
        0x000014a6:    6800        .h      LDR      r0,[r0,#0]
        0x000014a8:    2808        .(      CMP      r0,#8
        0x000014aa:    d108        ..      BNE      0x14be ; am_multiboot_uart_isr_handler + 246
        0x000014ac:    4870        pH      LDR      r0,[pc,#448] ; [0x1670] = 0x10002128
        0x000014ae:    6840        @h      LDR      r0,[r0,#4]
        0x000014b0:    4973        sI      LDR      r1,[pc,#460] ; [0x1680] = 0x100000c8
        0x000014b2:    6008        .`      STR      r0,[r1,#0]
        0x000014b4:    4608        .F      MOV      r0,r1
        0x000014b6:    6800        .h      LDR      r0,[r0,#0]
        0x000014b8:    3008        .0      ADDS     r0,r0,#8
        0x000014ba:    4970        pI      LDR      r1,[pc,#448] ; [0x167c] = 0x100000c4
        0x000014bc:    6008        .`      STR      r0,[r1,#0]
        0x000014be:    486e        nH      LDR      r0,[pc,#440] ; [0x1678] = 0x100000c0
        0x000014c0:    6800        .h      LDR      r0,[r0,#0]
        0x000014c2:    2802        .(      CMP      r0,#2
        0x000014c4:    d10c        ..      BNE      0x14e0 ; am_multiboot_uart_isr_handler + 280
        0x000014c6:    486b        kH      LDR      r0,[pc,#428] ; [0x1674] = 0x100000a4
        0x000014c8:    6800        .h      LDR      r0,[r0,#0]
        0x000014ca:    2814        .(      CMP      r0,#0x14
        0x000014cc:    d108        ..      BNE      0x14e0 ; am_multiboot_uart_isr_handler + 280
        0x000014ce:    4868        hH      LDR      r0,[pc,#416] ; [0x1670] = 0x10002128
        0x000014d0:    6900        .i      LDR      r0,[r0,#0x10]
        0x000014d2:    496b        kI      LDR      r1,[pc,#428] ; [0x1680] = 0x100000c8
        0x000014d4:    6008        .`      STR      r0,[r1,#0]
        0x000014d6:    4608        .F      MOV      r0,r1
        0x000014d8:    6800        .h      LDR      r0,[r0,#0]
        0x000014da:    3014        .0      ADDS     r0,r0,#0x14
        0x000014dc:    4967        gI      LDR      r1,[pc,#412] ; [0x167c] = 0x100000c4
        0x000014de:    6008        .`      STR      r0,[r1,#0]
        0x000014e0:    4864        dH      LDR      r0,[pc,#400] ; [0x1674] = 0x100000a4
        0x000014e2:    6800        .h      LDR      r0,[r0,#0]
        0x000014e4:    2804        .(      CMP      r0,#4
        0x000014e6:    d374        t.      BCC      0x15d2 ; am_multiboot_uart_isr_handler + 522
        0x000014e8:    4862        bH      LDR      r0,[pc,#392] ; [0x1674] = 0x100000a4
        0x000014ea:    6800        .h      LDR      r0,[r0,#0]
        0x000014ec:    4963        cI      LDR      r1,[pc,#396] ; [0x167c] = 0x100000c4
        0x000014ee:    6809        .h      LDR      r1,[r1,#0]
        0x000014f0:    4288        .B      CMP      r0,r1
        0x000014f2:    d17a        z.      BNE      0x15ea ; am_multiboot_uart_isr_handler + 546
        0x000014f4:    4e5e        ^N      LDR      r6,[pc,#376] ; [0x1670] = 0x10002128
        0x000014f6:    4c5c        \L      LDR      r4,[pc,#368] ; [0x1668] = 0x100000b3
        0x000014f8:    6830        0h      LDR      r0,[r6,#0]
        0x000014fa:    280a        .(      CMP      r0,#0xa
        0x000014fc:    d26d        m.      BCS      0x15da ; am_multiboot_uart_isr_handler + 530
        0x000014fe:    e8dff000    ....    TBB      [pc,r0]
    $d
        0x00001502:    6b6a        jk      DCW    27498
        0x00001504:    17552205    ."U.    DCD    391455237
        0x00001508:    5d6c6c61    all]    DCD    1567386721
    $t
        0x0000150c:    4958        XI      LDR      r1,[pc,#352] ; [0x1670] = 0x10002128
        0x0000150e:    485d        ]H      LDR      r0,[pc,#372] ; [0x1684] = 0x10000030
        0x00001510:    f000f95c    ..\.    BL       image_start_packet_read ; 0x17cc
        0x00001514:    495c        \I      LDR      r1,[pc,#368] ; [0x1688] = 0x100000cc
        0x00001516:    7008        .p      STRB     r0,[r1,#0]
        0x00001518:    4608        .F      MOV      r0,r1
        0x0000151a:    7800        .x      LDRB     r0,[r0,#0]
        0x0000151c:    b110        ..      CBZ      r0,0x1524 ; am_multiboot_uart_isr_handler + 348
        0x0000151e:    2002        .       MOVS     r0,#2
        0x00001520:    6020         `      STR      r0,[r4,#0]
        0x00001522:    e001        ..      B        0x1528 ; am_multiboot_uart_isr_handler + 352
        0x00001524:    2005        .       MOVS     r0,#5
        0x00001526:    6020         `      STR      r0,[r4,#0]
        0x00001528:    f04f0a01    O...    MOV      r10,#1
        0x0000152c:    2504        .%      MOVS     r5,#4
        0x0000152e:    e05a        Z.      B        0x15e6 ; am_multiboot_uart_isr_handler + 542
        0x00001530:    4954        TI      LDR      r1,[pc,#336] ; [0x1684] = 0x10000030
        0x00001532:    6870        ph      LDR      r0,[r6,#4]
        0x00001534:    60c8        .`      STR      r0,[r1,#0xc]
        0x00001536:    68b0        .h      LDR      r0,[r6,#8]
        0x00001538:    6108        .a      STR      r0,[r1,#0x10]
        0x0000153a:    2002        .       MOVS     r0,#2
        0x0000153c:    6020         `      STR      r0,[r4,#0]
        0x0000153e:    f04f0a01    O...    MOV      r10,#1
        0x00001542:    2504        .%      MOVS     r5,#4
        0x00001544:    e04f        O.      B        0x15e6 ; am_multiboot_uart_isr_handler + 542
        0x00001546:    4850        PH      LDR      r0,[pc,#320] ; [0x1688] = 0x100000cc
        0x00001548:    7800        .x      LDRB     r0,[r0,#0]
        0x0000154a:    b910        ..      CBNZ     r0,0x1552 ; am_multiboot_uart_isr_handler + 394
        0x0000154c:    2005        .       MOVS     r0,#5
        0x0000154e:    6020         `      STR      r0,[r4,#0]
        0x00001550:    e049        I.      B        0x15e6 ; am_multiboot_uart_isr_handler + 542
        0x00001552:    4847        GH      LDR      r0,[pc,#284] ; [0x1670] = 0x10002128
        0x00001554:    6841        Ah      LDR      r1,[r0,#4]
        0x00001556:    3008        .0      ADDS     r0,r0,#8
        0x00001558:    f000f8d8    ....    BL       image_data_packet_read ; 0x170c
        0x0000155c:    4849        IH      LDR      r0,[pc,#292] ; [0x1684] = 0x10000030
        0x0000155e:    6840        @h      LDR      r0,[r0,#4]
        0x00001560:    494a        JI      LDR      r1,[pc,#296] ; [0x168c] = 0x10000028
        0x00001562:    6809        .h      LDR      r1,[r1,#0]
        0x00001564:    4288        .B      CMP      r0,r1
        0x00001566:    d11b        ..      BNE      0x15a0 ; am_multiboot_uart_isr_handler + 472
        0x00001568:    4846        FH      LDR      r0,[pc,#280] ; [0x1684] = 0x10000030
        0x0000156a:    6880        .h      LDR      r0,[r0,#8]
        0x0000156c:    4948        HI      LDR      r1,[pc,#288] ; [0x1690] = 0x1000002c
        0x0000156e:    6809        .h      LDR      r1,[r1,#0]
        0x00001570:    4288        .B      CMP      r0,r1
        0x00001572:    d104        ..      BNE      0x157e ; am_multiboot_uart_isr_handler + 438
        0x00001574:    4843        CH      LDR      r0,[pc,#268] ; [0x1684] = 0x10000030
        0x00001576:    3008        .0      ADDS     r0,r0,#8
        0x00001578:    f000fae6    ....    BL       multiboot_secure_verify ; 0x1b48
        0x0000157c:    b110        ..      CBZ      r0,0x1584 ; am_multiboot_uart_isr_handler + 444
        0x0000157e:    2004        .       MOVS     r0,#4
        0x00001580:    6020         `      STR      r0,[r4,#0]
        0x00001582:    e00f        ..      B        0x15a4 ; am_multiboot_uart_isr_handler + 476
        0x00001584:    493f        ?I      LDR      r1,[pc,#252] ; [0x1684] = 0x10000030
        0x00001586:    69c8        .i      LDR      r0,[r1,#0x1c]
        0x00001588:    f000fb02    ....    BL       program_image ; 0x1b90
        0x0000158c:    483d        =H      LDR      r0,[pc,#244] ; [0x1684] = 0x10000030
        0x0000158e:    f7feff53    ..S.    BL       am_bootloader_flash_check ; 0x438
        0x00001592:    b110        ..      CBZ      r0,0x159a ; am_multiboot_uart_isr_handler + 466
        0x00001594:    2003        .       MOVS     r0,#3
        0x00001596:    6020         `      STR      r0,[r4,#0]
        0x00001598:    e004        ..      B        0x15a4 ; am_multiboot_uart_isr_handler + 476
        0x0000159a:    2005        .       MOVS     r0,#5
        0x0000159c:    6020         `      STR      r0,[r4,#0]
        0x0000159e:    e001        ..      B        0x15a4 ; am_multiboot_uart_isr_handler + 476
        0x000015a0:    2002        .       MOVS     r0,#2
        0x000015a2:    6020         `      STR      r0,[r4,#0]
        0x000015a4:    f04f0a01    O...    MOV      r10,#1
        0x000015a8:    2504        .%      MOVS     r5,#4
        0x000015aa:    e01c        ..      B        0x15e6 ; am_multiboot_uart_isr_handler + 542
        0x000015ac:    f44f4180    O..A    MOV      r1,#0x4000
        0x000015b0:    4834        4H      LDR      r0,[pc,#208] ; [0x1684] = 0x10000030
        0x000015b2:    f7feff19    ....    BL       am_bootloader_flag_page_update ; 0x3e8
        0x000015b6:    f000fb99    ....    BL       wipe_sram ; 0x1cec
        0x000015ba:    bf00        ..      NOP      
        0x000015bc:    f7fffbcc    ....    BL       am_hal_reset_poi ; 0xd58
        0x000015c0:    bf00        ..      NOP      
        0x000015c2:    e7fe        ..      B        0x15c2 ; am_multiboot_uart_isr_handler + 506
        0x000015c4:    2006        .       MOVS     r0,#6
        0x000015c6:    6020         `      STR      r0,[r4,#0]
        0x000015c8:    2001        .       MOVS     r0,#1
        0x000015ca:    6060        ``      STR      r0,[r4,#4]
        0x000015cc:    4682        .F      MOV      r10,r0
        0x000015ce:    2508        .%      MOVS     r5,#8
        0x000015d0:    e009        ..      B        0x15e6 ; am_multiboot_uart_isr_handler + 542
        0x000015d2:    e00a        ..      B        0x15ea ; am_multiboot_uart_isr_handler + 546
        0x000015d4:    e001        ..      B        0x15da ; am_multiboot_uart_isr_handler + 530
        0x000015d6:    bf00        ..      NOP      
        0x000015d8:    e005        ..      B        0x15e6 ; am_multiboot_uart_isr_handler + 542
        0x000015da:    2005        .       MOVS     r0,#5
        0x000015dc:    6020         `      STR      r0,[r4,#0]
        0x000015de:    f04f0a01    O...    MOV      r10,#1
        0x000015e2:    2504        .%      MOVS     r5,#4
        0x000015e4:    bf00        ..      NOP      
        0x000015e6:    bf00        ..      NOP      
        0x000015e8:    e009        ..      B        0x15fe ; am_multiboot_uart_isr_handler + 566
        0x000015ea:    4820         H      LDR      r0,[pc,#128] ; [0x166c] = 0x4001c000
        0x000015ec:    1481        ..      ASRS     r1,r0,#18
        0x000015ee:    fb010007    ....    MLA      r0,r1,r7,r0
        0x000015f2:    6980        .i      LDR      r0,[r0,#0x18]
        0x000015f4:    f3c01000    ....    UBFX     r0,r0,#4,#1
        0x000015f8:    2800        .(      CMP      r0,#0
        0x000015fa:    f43faef8    ?...    BEQ      0x13ee ; am_multiboot_uart_isr_handler + 38
        0x000015fe:    bf00        ..      NOP      
        0x00001600:    f1ba0f00    ....    CMP      r10,#0
        0x00001604:    d027        '.      BEQ      0x1656 ; am_multiboot_uart_isr_handler + 654
        0x00001606:    2000        .       MOVS     r0,#0
        0x00001608:    4922        "I      LDR      r1,[pc,#136] ; [0x1694] = 0x100000bd
        0x0000160a:    7008        .p      STRB     r0,[r1,#0]
        0x0000160c:    4680        .F      MOV      r8,r0
        0x0000160e:    e00c        ..      B        0x162a ; am_multiboot_uart_isr_handler + 610
        0x00001610:    4820         H      LDR      r0,[pc,#128] ; [0x1694] = 0x100000bd
        0x00001612:    7802        .x      LDRB     r2,[r0,#0]
        0x00001614:    7800        .x      LDRB     r0,[r0,#0]
        0x00001616:    1c40        @.      ADDS     r0,r0,#1
        0x00001618:    4b1e        .K      LDR      r3,[pc,#120] ; [0x1694] = 0x100000bd
        0x0000161a:    7018        .p      STRB     r0,[r3,#0]
        0x0000161c:    4812        .H      LDR      r0,[pc,#72] ; [0x1668] = 0x100000b3
        0x0000161e:    5c81        .\      LDRB     r1,[r0,r2]
        0x00001620:    4638        8F      MOV      r0,r7
        0x00001622:    f000fadd    ....    BL       ser_out ; 0x1be0
        0x00001626:    f1080801    ....    ADD      r8,r8,#1
        0x0000162a:    45a8        .E      CMP      r8,r5
        0x0000162c:    d3f0        ..      BCC      0x1610 ; am_multiboot_uart_isr_handler + 584
        0x0000162e:    2000        .       MOVS     r0,#0
        0x00001630:    4911        .I      LDR      r1,[pc,#68] ; [0x1678] = 0x100000c0
        0x00001632:    6008        .`      STR      r0,[r1,#0]
        0x00001634:    490f        .I      LDR      r1,[pc,#60] ; [0x1674] = 0x100000a4
        0x00001636:    6008        .`      STR      r0,[r1,#0]
        0x00001638:    4917        .I      LDR      r1,[pc,#92] ; [0x1698] = 0x100000ac
        0x0000163a:    6008        .`      STR      r0,[r1,#0]
        0x0000163c:    4908        .I      LDR      r1,[pc,#32] ; [0x1660] = 0x100000a8
        0x0000163e:    6008        .`      STR      r0,[r1,#0]
        0x00001640:    4908        .I      LDR      r1,[pc,#32] ; [0x1664] = 0x100000a1
        0x00001642:    7008        .p      STRB     r0,[r1,#0]
        0x00001644:    2001        .       MOVS     r0,#1
        0x00001646:    4905        .I      LDR      r1,[pc,#20] ; [0x165c] = 0x100000a2
        0x00001648:    7008        .p      STRB     r0,[r1,#0]
        0x0000164a:    f04f0a00    O...    MOV      r10,#0
        0x0000164e:    2500        .%      MOVS     r5,#0
        0x00001650:    20ff        .       MOVS     r0,#0xff
        0x00001652:    490a        .I      LDR      r1,[pc,#40] ; [0x167c] = 0x100000c4
        0x00001654:    6008        .`      STR      r0,[r1,#0]
        0x00001656:    e8bd9ff0    ....    POP      {r4-r12,pc}
    $d
        0x0000165a:    0000        ..      DCW    0
        0x0000165c:    100000a2    ....    DCD    268435618
        0x00001660:    100000a8    ....    DCD    268435624
        0x00001664:    100000a1    ....    DCD    268435617
        0x00001668:    100000b3    ....    DCD    268435635
        0x0000166c:    4001c000    ...@    DCD    1073856512
        0x00001670:    10002128    (!..    DCD    268443944
        0x00001674:    100000a4    ....    DCD    268435620
        0x00001678:    100000c0    ....    DCD    268435648
        0x0000167c:    100000c4    ....    DCD    268435652
        0x00001680:    100000c8    ....    DCD    268435656
        0x00001684:    10000030    0...    DCD    268435504
        0x00001688:    100000cc    ....    DCD    268435660
        0x0000168c:    10000028    (...    DCD    268435496
        0x00001690:    1000002c    ,...    DCD    268435500
        0x00001694:    100000bd    ....    DCD    268435645
        0x00001698:    100000ac    ....    DCD    268435628
    $t
    i.am_uart_isr
    am_uart_isr
        0x0000169c:    b510        ..      PUSH     {r4,lr}
        0x0000169e:    2000        .       MOVS     r0,#0
        0x000016a0:    f7fffe92    ....    BL       am_multiboot_uart_isr_handler ; 0x13c8
        0x000016a4:    bd10        ..      POP      {r4,pc}
        0x000016a6:    0000        ..      MOVS     r0,r0
    i.check_flash_address_range
    check_flash_address_range
        0x000016a8:    b5f0        ..      PUSH     {r4-r7,lr}
        0x000016aa:    b08d        ..      SUB      sp,sp,#0x34
        0x000016ac:    4605        .F      MOV      r5,r0
        0x000016ae:    460e        .F      MOV      r6,r1
        0x000016b0:    462c        ,F      MOV      r4,r5
        0x000016b2:    19a8        ..      ADDS     r0,r5,r6
        0x000016b4:    1e47        G.      SUBS     r7,r0,#1
        0x000016b6:    4814        .H      LDR      r0,[pc,#80] ; [0x1708] = 0x10000084
        0x000016b8:    6800        .h      LDR      r0,[r0,#0]
        0x000016ba:    b928        (.      CBNZ     r0,0x16c8 ; check_flash_address_range + 32
        0x000016bc:    a801        ..      ADD      r0,sp,#4
        0x000016be:    f7fffa21    ..!.    BL       am_hal_mcuctrl_device_info_get ; 0xb04
        0x000016c2:    4911        .I      LDR      r1,[pc,#68] ; [0x1708] = 0x10000084
        0x000016c4:    9807        ..      LDR      r0,[sp,#0x1c]
        0x000016c6:    6008        .`      STR      r0,[r1,#0]
        0x000016c8:    f5b45f40    ..@_    CMP      r4,#0x3000
        0x000016cc:    d202        ..      BCS      0x16d4 ; check_flash_address_range + 44
        0x000016ce:    2000        .       MOVS     r0,#0
        0x000016d0:    b00d        ..      ADD      sp,sp,#0x34
        0x000016d2:    bdf0        ..      POP      {r4-r7,pc}
        0x000016d4:    480c        .H      LDR      r0,[pc,#48] ; [0x1708] = 0x10000084
        0x000016d6:    6800        .h      LDR      r0,[r0,#0]
        0x000016d8:    4287        .B      CMP      r7,r0
        0x000016da:    d301        ..      BCC      0x16e0 ; check_flash_address_range + 56
        0x000016dc:    2000        .       MOVS     r0,#0
        0x000016de:    e7f7        ..      B        0x16d0 ; check_flash_address_range + 40
        0x000016e0:    f5b44f80    ...O    CMP      r4,#0x4000
        0x000016e4:    d00b        ..      BEQ      0x16fe ; check_flash_address_range + 86
        0x000016e6:    f5b44f80    ...O    CMP      r4,#0x4000
        0x000016ea:    d902        ..      BLS      0x16f2 ; check_flash_address_range + 74
        0x000016ec:    f5b44fc0    ...O    CMP      r4,#0x6000
        0x000016f0:    d305        ..      BCC      0x16fe ; check_flash_address_range + 86
        0x000016f2:    f5b44f80    ...O    CMP      r4,#0x4000
        0x000016f6:    d204        ..      BCS      0x1702 ; check_flash_address_range + 90
        0x000016f8:    f5b74f80    ...O    CMP      r7,#0x4000
        0x000016fc:    d301        ..      BCC      0x1702 ; check_flash_address_range + 90
        0x000016fe:    2000        .       MOVS     r0,#0
        0x00001700:    e7e6        ..      B        0x16d0 ; check_flash_address_range + 40
        0x00001702:    2001        .       MOVS     r0,#1
        0x00001704:    e7e4        ..      B        0x16d0 ; check_flash_address_range + 40
    $d
        0x00001706:    0000        ..      DCW    0
        0x00001708:    10000084    ....    DCD    268435588
    $t
    i.image_data_packet_read
    image_data_packet_read
        0x0000170c:    b570        p.      PUSH     {r4-r6,lr}
        0x0000170e:    4604        .F      MOV      r4,r0
        0x00001710:    460d        .F      MOV      r5,r1
        0x00001712:    2600        .&      MOVS     r6,#0
        0x00001714:    e04f        O.      B        0x17b6 ; image_data_packet_read + 170
        0x00001716:    f8140b01    ....    LDRB     r0,[r4],#1
        0x0000171a:    4928        (I      LDR      r1,[pc,#160] ; [0x17bc] = 0x10002110
        0x0000171c:    6849        Ih      LDR      r1,[r1,#4]
        0x0000171e:    4a27        'J      LDR      r2,[pc,#156] ; [0x17bc] = 0x10002110
        0x00001720:    6892        .h      LDR      r2,[r2,#8]
        0x00001722:    5488        .T      STRB     r0,[r1,r2]
        0x00001724:    4825        %H      LDR      r0,[pc,#148] ; [0x17bc] = 0x10002110
        0x00001726:    6880        .h      LDR      r0,[r0,#8]
        0x00001728:    1c40        @.      ADDS     r0,r0,#1
        0x0000172a:    4924        $I      LDR      r1,[pc,#144] ; [0x17bc] = 0x10002110
        0x0000172c:    6088        .`      STR      r0,[r1,#8]
        0x0000172e:    4824        $H      LDR      r0,[pc,#144] ; [0x17c0] = 0x10000028
        0x00001730:    6800        .h      LDR      r0,[r0,#0]
        0x00001732:    1c40        @.      ADDS     r0,r0,#1
        0x00001734:    4922        "I      LDR      r1,[pc,#136] ; [0x17c0] = 0x10000028
        0x00001736:    6008        .`      STR      r0,[r1,#0]
        0x00001738:    4820         H      LDR      r0,[pc,#128] ; [0x17bc] = 0x10002110
        0x0000173a:    7b00        .{      LDRB     r0,[r0,#0xc]
        0x0000173c:    b920         .      CBNZ     r0,0x1748 ; image_data_packet_read + 60
        0x0000173e:    481f        .H      LDR      r0,[pc,#124] ; [0x17bc] = 0x10002110
        0x00001740:    6880        .h      LDR      r0,[r0,#8]
        0x00001742:    f5b05f00    ..._    CMP      r0,#0x2000
        0x00001746:    d005        ..      BEQ      0x1754 ; image_data_packet_read + 72
        0x00001748:    481e        .H      LDR      r0,[pc,#120] ; [0x17c4] = 0x10000030
        0x0000174a:    6840        @h      LDR      r0,[r0,#4]
        0x0000174c:    491c        .I      LDR      r1,[pc,#112] ; [0x17c0] = 0x10000028
        0x0000174e:    6809        .h      LDR      r1,[r1,#0]
        0x00001750:    4288        .B      CMP      r0,r1
        0x00001752:    d12f        /.      BNE      0x17b4 ; image_data_packet_read + 168
        0x00001754:    4a19        .J      LDR      r2,[pc,#100] ; [0x17bc] = 0x10002110
        0x00001756:    6891        .h      LDR      r1,[r2,#8]
        0x00001758:    6850        Ph      LDR      r0,[r2,#4]
        0x0000175a:    4a1b        .J      LDR      r2,[pc,#108] ; [0x17c8] = 0x1000002c
        0x0000175c:    f7fefeae    ....    BL       am_bootloader_partial_crc32 ; 0x4bc
        0x00001760:    4a16        .J      LDR      r2,[pc,#88] ; [0x17bc] = 0x10002110
        0x00001762:    6891        .h      LDR      r1,[r2,#8]
        0x00001764:    6850        Ph      LDR      r0,[r2,#4]
        0x00001766:    f000f9d3    ....    BL       multiboot_secure_decrypt ; 0x1b10
        0x0000176a:    4814        .H      LDR      r0,[pc,#80] ; [0x17bc] = 0x10002110
        0x0000176c:    7b00        .{      LDRB     r0,[r0,#0xc]
        0x0000176e:    b920         .      CBNZ     r0,0x177a ; image_data_packet_read + 110
        0x00001770:    4813        .H      LDR      r0,[pc,#76] ; [0x17c0] = 0x10000028
        0x00001772:    6800        .h      LDR      r0,[r0,#0]
        0x00001774:    f5b05f00    ..._    CMP      r0,#0x2000
        0x00001778:    d808        ..      BHI      0x178c ; image_data_packet_read + 128
        0x0000177a:    4810        .H      LDR      r0,[pc,#64] ; [0x17bc] = 0x10002110
        0x0000177c:    6840        @h      LDR      r0,[r0,#4]
        0x0000177e:    6800        .h      LDR      r0,[r0,#0]
        0x00001780:    4910        .I      LDR      r1,[pc,#64] ; [0x17c4] = 0x10000030
        0x00001782:    6148        Ha      STR      r0,[r1,#0x14]
        0x00001784:    480d        .H      LDR      r0,[pc,#52] ; [0x17bc] = 0x10002110
        0x00001786:    6840        @h      LDR      r0,[r0,#4]
        0x00001788:    6840        @h      LDR      r0,[r0,#4]
        0x0000178a:    6188        .a      STR      r0,[r1,#0x18]
        0x0000178c:    480b        .H      LDR      r0,[pc,#44] ; [0x17bc] = 0x10002110
        0x0000178e:    7b00        .{      LDRB     r0,[r0,#0xc]
        0x00001790:    b980        ..      CBNZ     r0,0x17b4 ; image_data_packet_read + 168
        0x00001792:    4b0a        .K      LDR      r3,[pc,#40] ; [0x17bc] = 0x10002110
        0x00001794:    689a        .h      LDR      r2,[r3,#8]
        0x00001796:    6859        Yh      LDR      r1,[r3,#4]
        0x00001798:    6918        .i      LDR      r0,[r3,#0x10]
        0x0000179a:    f7fefea5    ....    BL       am_bootloader_program_flash_page ; 0x4e8
        0x0000179e:    4807        .H      LDR      r0,[pc,#28] ; [0x17bc] = 0x10002110
        0x000017a0:    6900        .i      LDR      r0,[r0,#0x10]
        0x000017a2:    4906        .I      LDR      r1,[pc,#24] ; [0x17bc] = 0x10002110
        0x000017a4:    6889        .h      LDR      r1,[r1,#8]
        0x000017a6:    0889        ..      LSRS     r1,r1,#2
        0x000017a8:    eb000081    ....    ADD      r0,r0,r1,LSL #2
        0x000017ac:    4903        .I      LDR      r1,[pc,#12] ; [0x17bc] = 0x10002110
        0x000017ae:    6108        .a      STR      r0,[r1,#0x10]
        0x000017b0:    2000        .       MOVS     r0,#0
        0x000017b2:    6088        .`      STR      r0,[r1,#8]
        0x000017b4:    1c76        v.      ADDS     r6,r6,#1
        0x000017b6:    42ae        .B      CMP      r6,r5
        0x000017b8:    d3ad        ..      BCC      0x1716 ; image_data_packet_read + 10
        0x000017ba:    bd70        p.      POP      {r4-r6,pc}
    $d
        0x000017bc:    10002110    .!..    DCD    268443920
        0x000017c0:    10000028    (...    DCD    268435496
        0x000017c4:    10000030    0...    DCD    268435504
        0x000017c8:    1000002c    ,...    DCD    268435500
    $t
    i.image_start_packet_read
    image_start_packet_read
        0x000017cc:    b530        0.      PUSH     {r4,r5,lr}
        0x000017ce:    b08d        ..      SUB      sp,sp,#0x34
        0x000017d0:    4604        .F      MOV      r4,r0
        0x000017d2:    460d        .F      MOV      r5,r1
        0x000017d4:    a801        ..      ADD      r0,sp,#4
        0x000017d6:    f7fff995    ....    BL       am_hal_mcuctrl_device_info_get ; 0xb04
        0x000017da:    6868        hh      LDR      r0,[r5,#4]
        0x000017dc:    6020         `      STR      r0,[r4,#0]
        0x000017de:    68a8        .h      LDR      r0,[r5,#8]
        0x000017e0:    6060        ``      STR      r0,[r4,#4]
        0x000017e2:    68e8        .h      LDR      r0,[r5,#0xc]
        0x000017e4:    60a0        .`      STR      r0,[r4,#8]
        0x000017e6:    2012        .       MOVS     r0,#0x12
        0x000017e8:    60e0        .`      STR      r0,[r4,#0xc]
        0x000017ea:    2000        .       MOVS     r0,#0
        0x000017ec:    6120         a      STR      r0,[r4,#0x10]
        0x000017ee:    61e0        .a      STR      r0,[r4,#0x1c]
        0x000017f0:    6160        `a      STR      r0,[r4,#0x14]
        0x000017f2:    61a0        .a      STR      r0,[r4,#0x18]
        0x000017f4:    e9d40100    ....    LDRD     r0,r1,[r4,#0]
        0x000017f8:    f7ffff56    ..V.    BL       check_flash_address_range ; 0x16a8
        0x000017fc:    b910        ..      CBNZ     r0,0x1804 ; image_start_packet_read + 56
        0x000017fe:    2000        .       MOVS     r0,#0
        0x00001800:    b00d        ..      ADD      sp,sp,#0x34
        0x00001802:    bd30        0.      POP      {r4,r5,pc}
        0x00001804:    9808        ..      LDR      r0,[sp,#0x20]
        0x00001806:    f5a04080    ...@    SUB      r0,r0,#0x4000
        0x0000180a:    6861        ah      LDR      r1,[r4,#4]
        0x0000180c:    4288        .B      CMP      r0,r1
        0x0000180e:    d307        ..      BCC      0x1820 ; image_start_packet_read + 84
        0x00001810:    2001        .       MOVS     r0,#1
        0x00001812:    4918        .I      LDR      r1,[pc,#96] ; [0x1874] = 0x10002110
        0x00001814:    7308        .s      STRB     r0,[r1,#0xc]
        0x00001816:    4818        .H      LDR      r0,[pc,#96] ; [0x1878] = 0x10004000
        0x00001818:    6048        H`      STR      r0,[r1,#4]
        0x0000181a:    9808        ..      LDR      r0,[sp,#0x20]
        0x0000181c:    6148        Ha      STR      r0,[r1,#0x14]
        0x0000181e:    e00e        ..      B        0x183e ; image_start_packet_read + 114
        0x00001820:    2000        .       MOVS     r0,#0
        0x00001822:    4914        .I      LDR      r1,[pc,#80] ; [0x1874] = 0x10002110
        0x00001824:    7308        .s      STRB     r0,[r1,#0xc]
        0x00001826:    4608        .F      MOV      r0,r1
        0x00001828:    6800        .h      LDR      r0,[r0,#0]
        0x0000182a:    b908        ..      CBNZ     r0,0x1830 ; image_start_packet_read + 100
        0x0000182c:    2000        .       MOVS     r0,#0
        0x0000182e:    e7e7        ..      B        0x1800 ; image_start_packet_read + 52
        0x00001830:    4810        .H      LDR      r0,[pc,#64] ; [0x1874] = 0x10002110
        0x00001832:    6800        .h      LDR      r0,[r0,#0]
        0x00001834:    490f        .I      LDR      r1,[pc,#60] ; [0x1874] = 0x10002110
        0x00001836:    6048        H`      STR      r0,[r1,#4]
        0x00001838:    f44f4080    O..@    MOV      r0,#0x4000
        0x0000183c:    6148        Ha      STR      r0,[r1,#0x14]
        0x0000183e:    f104001c    ....    ADD      r0,r4,#0x1c
        0x00001842:    490c        .I      LDR      r1,[pc,#48] ; [0x1874] = 0x10002110
        0x00001844:    9000        ..      STR      r0,[sp,#0]
        0x00001846:    7b0a        .{      LDRB     r2,[r1,#0xc]
        0x00001848:    4623        #F      MOV      r3,r4
        0x0000184a:    f1050114    ....    ADD      r1,r5,#0x14
        0x0000184e:    6928        (i      LDR      r0,[r5,#0x10]
        0x00001850:    f000f818    ....    BL       init_multiboot_secure ; 0x1884
        0x00001854:    b108        ..      CBZ      r0,0x185a ; image_start_packet_read + 142
        0x00001856:    2000        .       MOVS     r0,#0
        0x00001858:    e7d2        ..      B        0x1800 ; image_start_packet_read + 52
        0x0000185a:    4906        .I      LDR      r1,[pc,#24] ; [0x1874] = 0x10002110
        0x0000185c:    6820         h      LDR      r0,[r4,#0]
        0x0000185e:    6108        .a      STR      r0,[r1,#0x10]
        0x00001860:    2000        .       MOVS     r0,#0
        0x00001862:    4906        .I      LDR      r1,[pc,#24] ; [0x187c] = 0x10000028
        0x00001864:    6008        .`      STR      r0,[r1,#0]
        0x00001866:    4903        .I      LDR      r1,[pc,#12] ; [0x1874] = 0x10002110
        0x00001868:    6088        .`      STR      r0,[r1,#8]
        0x0000186a:    4905        .I      LDR      r1,[pc,#20] ; [0x1880] = 0x1000002c
        0x0000186c:    6008        .`      STR      r0,[r1,#0]
        0x0000186e:    2001        .       MOVS     r0,#1
        0x00001870:    e7c6        ..      B        0x1800 ; image_start_packet_read + 52
    $d
        0x00001872:    0000        ..      DCW    0
        0x00001874:    10002110    .!..    DCD    268443920
        0x00001878:    10004000    .@..    DCD    268451840
        0x0000187c:    10000028    (...    DCD    268435496
        0x00001880:    1000002c    ,...    DCD    268435500
    $t
    i.init_multiboot_secure
    init_multiboot_secure
        0x00001884:    e92d47f0    -..G    PUSH     {r4-r10,lr}
        0x00001888:    4606        .F      MOV      r6,r0
        0x0000188a:    460f        .F      MOV      r7,r1
        0x0000188c:    4692        .F      MOV      r10,r2
        0x0000188e:    4698        .F      MOV      r8,r3
        0x00001890:    f8dd9020    .. .    LDR      r9,[sp,#0x20]
        0x00001894:    463d        =F      MOV      r5,r7
        0x00001896:    2e18        ..      CMP      r6,#0x18
        0x00001898:    d003        ..      BEQ      0x18a2 ; init_multiboot_secure + 30
        0x0000189a:    f04f30ff    O..0    MOV      r0,#0xffffffff
        0x0000189e:    e8bd87f0    ....    POP      {r4-r10,pc}
        0x000018a2:    6828        (h      LDR      r0,[r5,#0]
        0x000018a4:    f000f9ec    ....    BL       validate_keyidx ; 0x1c80
        0x000018a8:    b110        ..      CBZ      r0,0x18b0 ; init_multiboot_secure + 44
        0x000018aa:    f04f30ff    O..0    MOV      r0,#0xffffffff
        0x000018ae:    e7f6        ..      B        0x189e ; init_multiboot_secure + 26
        0x000018b0:    4628        (F      MOV      r0,r5
        0x000018b2:    f000f9f3    ....    BL       validate_sec_trailer ; 0x1c9c
        0x000018b6:    b110        ..      CBZ      r0,0x18be ; init_multiboot_secure + 58
        0x000018b8:    f04f30ff    O..0    MOV      r0,#0xffffffff
        0x000018bc:    e7ef        ..      B        0x189e ; init_multiboot_secure + 26
        0x000018be:    491c        .I      LDR      r1,[pc,#112] ; [0x1930] = 0x100020f0
        0x000018c0:    68a8        .h      LDR      r0,[r5,#8]
        0x000018c2:    6088        .`      STR      r0,[r1,#8]
        0x000018c4:    4608        .F      MOV      r0,r1
        0x000018c6:    6880        .h      LDR      r0,[r0,#8]
        0x000018c8:    f8d81004    ....    LDR      r1,[r8,#4]
        0x000018cc:    4288        .B      CMP      r0,r1
        0x000018ce:    d002        ..      BEQ      0x18d6 ; init_multiboot_secure + 82
        0x000018d0:    f04f30ff    O..0    MOV      r0,#0xffffffff
        0x000018d4:    e7e3        ..      B        0x189e ; init_multiboot_secure + 26
        0x000018d6:    2000        .       MOVS     r0,#0
        0x000018d8:    4915        .I      LDR      r1,[pc,#84] ; [0x1930] = 0x100020f0
        0x000018da:    61c8        .a      STR      r0,[r1,#0x1c]
        0x000018dc:    6188        .a      STR      r0,[r1,#0x18]
        0x000018de:    2400        .$      MOVS     r4,#0
        0x000018e0:    e01e        ..      B        0x1920 ; init_multiboot_secure + 156
        0x000018e2:    f1050010    ....    ADD      r0,r5,#0x10
        0x000018e6:    f8501024    P.$.    LDR      r1,[r0,r4,LSL #2]
        0x000018ea:    4811        .H      LDR      r0,[pc,#68] ; [0x1930] = 0x100020f0
        0x000018ec:    3010        .0      ADDS     r0,r0,#0x10
        0x000018ee:    f8401024    @.$.    STR      r1,[r0,r4,LSL #2]
        0x000018f2:    f105000c    ....    ADD      r0,r5,#0xc
        0x000018f6:    f8500024    P.$.    LDR      r0,[r0,r4,LSL #2]
        0x000018fa:    490d        .I      LDR      r1,[pc,#52] ; [0x1930] = 0x100020f0
        0x000018fc:    f8410024    A.$.    STR      r0,[r1,r4,LSL #2]
        0x00001900:    2100        .!      MOVS     r1,#0
        0x00001902:    480b        .H      LDR      r0,[pc,#44] ; [0x1930] = 0x100020f0
        0x00001904:    1d00        ..      ADDS     r0,r0,#4
        0x00001906:    f8401024    @.$.    STR      r1,[r0,r4,LSL #2]
        0x0000190a:    490a        .I      LDR      r1,[pc,#40] ; [0x1934] = 0x10000008
        0x0000190c:    6828        (h      LDR      r0,[r5,#0]
        0x0000190e:    eb010080    ....    ADD      r0,r1,r0,LSL #2
        0x00001912:    f8501024    P.$.    LDR      r1,[r0,r4,LSL #2]
        0x00001916:    4806        .H      LDR      r0,[pc,#24] ; [0x1930] = 0x100020f0
        0x00001918:    3014        .0      ADDS     r0,r0,#0x14
        0x0000191a:    f8401024    @.$.    STR      r1,[r0,r4,LSL #2]
        0x0000191e:    1c64        d.      ADDS     r4,r4,#1
        0x00001920:    2c01        .,      CMP      r4,#1
        0x00001922:    dbde        ..      BLT      0x18e2 ; init_multiboot_secure + 94
        0x00001924:    6868        hh      LDR      r0,[r5,#4]
        0x00001926:    f8c90000    ....    STR      r0,[r9,#0]
        0x0000192a:    2000        .       MOVS     r0,#0
        0x0000192c:    e7b7        ..      B        0x189e ; init_multiboot_secure + 26
    $d
        0x0000192e:    0000        ..      DCW    0
        0x00001930:    100020f0    . ..    DCD    268443888
        0x00001934:    10000008    ....    DCD    268435464
    $t
    i.main
    main
        0x00001938:    b50e        ..      PUSH     {r1-r3,lr}
        0x0000193a:    2000        .       MOVS     r0,#0
        0x0000193c:    9001        ..      STR      r0,[sp,#4]
        0x0000193e:    2400        .$      MOVS     r4,#0
        0x00001940:    a902        ..      ADD      r1,sp,#8
        0x00001942:    a801        ..      ADD      r0,sp,#4
        0x00001944:    f7fffbc8    ....    BL       am_multiboot_check_boot_from_flash ; 0x10d8
        0x00001948:    4604        .F      MOV      r4,r0
        0x0000194a:    f89d0004    ....    LDRB     r0,[sp,#4]
        0x0000194e:    b918        ..      CBNZ     r0,0x1958 ; main + 32
        0x00001950:    b114        ..      CBZ      r4,0x1958 ; main + 32
        0x00001952:    9802        ..      LDR      r0,[sp,#8]
        0x00001954:    f7fefda6    ....    BL       am_bootloader_image_run ; 0x4a4
        0x00001958:    2000        .       MOVS     r0,#0
        0x0000195a:    f7feff57    ..W.    BL       am_hal_clkgen_sysclk_select ; 0x80c
        0x0000195e:    f7fefdf3    ....    BL       am_bsp_low_power_init ; 0x548
        0x00001962:    f44f5100    O..Q    MOV      r1,#0x2000
        0x00001966:    4852        RH      LDR      r0,[pc,#328] ; [0x1ab0] = 0x100000f0
        0x00001968:    f7fffc22    ..".    BL       am_multiboot_init ; 0x11b0
        0x0000196c:    f7fffa9f    ....    BL       am_hal_systick_stop ; 0xeae
        0x00001970:    f06f407f    o..@    MVN      r0,#0xff000000
        0x00001974:    f7fffa8e    ....    BL       am_hal_systick_load ; 0xe94
        0x00001978:    f7fffa92    ....    BL       am_hal_systick_start ; 0xea0
        0x0000197c:    f7fefc1c    ....    BL       am_hal_interrupt_master_disable ; 0x1b8
        0x00001980:    9000        ..      STR      r0,[sp,#0]
        0x00001982:    2073        s       MOVS     r0,#0x73
        0x00001984:    494b        KI      LDR      r1,[pc,#300] ; [0x1ab4] = 0x40010000
        0x00001986:    6608        .f      STR      r0,[r1,#0x60]
        0x00001988:    4608        .F      MOV      r0,r1
        0x0000198a:    6c80        .l      LDR      r0,[r0,#0x48]
        0x0000198c:    f02040e0     ..@    BIC      r0,r0,#0x70000000
        0x00001990:    6488        .d      STR      r0,[r1,#0x48]
        0x00001992:    4608        .F      MOV      r0,r1
        0x00001994:    6940        @i      LDR      r0,[r0,#0x14]
        0x00001996:    f020407f     ..@    BIC      r0,r0,#0xff000000
        0x0000199a:    f04050d0    @..P    ORR      r0,r0,#0x1a000000
        0x0000199e:    6148        Ha      STR      r0,[r1,#0x14]
        0x000019a0:    4844        DH      LDR      r0,[pc,#272] ; [0x1ab4] = 0x40010000
        0x000019a2:    30f4        .0      ADDS     r0,r0,#0xf4
        0x000019a4:    6800        .h      LDR      r0,[r0,#0]
        0x000019a6:    f020407f     ..@    BIC      r0,r0,#0xff000000
        0x000019aa:    f8c100f4    ....    STR      r0,[r1,#0xf4]
        0x000019ae:    2000        .       MOVS     r0,#0
        0x000019b0:    6608        .f      STR      r0,[r1,#0x60]
        0x000019b2:    9800        ..      LDR      r0,[sp,#0]
        0x000019b4:    f7fefc04    ....    BL       am_hal_interrupt_master_set ; 0x1c0
        0x000019b8:    f7fefbfe    ....    BL       am_hal_interrupt_master_disable ; 0x1b8
        0x000019bc:    9000        ..      STR      r0,[sp,#0]
        0x000019be:    2073        s       MOVS     r0,#0x73
        0x000019c0:    493c        <I      LDR      r1,[pc,#240] ; [0x1ab4] = 0x40010000
        0x000019c2:    6608        .f      STR      r0,[r1,#0x60]
        0x000019c4:    4608        .F      MOV      r0,r1
        0x000019c6:    6c80        .l      LDR      r0,[r0,#0x48]
        0x000019c8:    f0404000    @..@    ORR      r0,r0,#0x80000000
        0x000019cc:    6488        .d      STR      r0,[r1,#0x48]
        0x000019ce:    2000        .       MOVS     r0,#0
        0x000019d0:    6608        .f      STR      r0,[r1,#0x60]
        0x000019d2:    9800        ..      LDR      r0,[sp,#0]
        0x000019d4:    f7fefbf4    ....    BL       am_hal_interrupt_master_set ; 0x1c0
        0x000019d8:    f44f0000    O...    MOV      r0,#0x800000
        0x000019dc:    2100        .!      MOVS     r1,#0
        0x000019de:    f7fff80b    ....    BL       am_hal_gpio_int_clear ; 0x9f8
        0x000019e2:    f44f0000    O...    MOV      r0,#0x800000
        0x000019e6:    2100        .!      MOVS     r1,#0
        0x000019e8:    f7fff832    ..2.    BL       am_hal_gpio_int_enable ; 0xa50
        0x000019ec:    201c        .       MOVS     r0,#0x1c
        0x000019ee:    f7fff863    ..c.    BL       am_hal_interrupt_enable ; 0xab8
        0x000019f2:    f7fefbdd    ....    BL       am_hal_interrupt_master_enable ; 0x1b0
        0x000019f6:    e011        ..      B        0x1a1c ; main + 228
        0x000019f8:    f7fefbde    ....    BL       am_hal_interrupt_master_disable ; 0x1b8
        0x000019fc:    4605        .F      MOV      r5,r0
        0x000019fe:    482e        .H      LDR      r0,[pc,#184] ; [0x1ab8] = 0x10000000
        0x00001a00:    7800        .x      LDRB     r0,[r0,#0]
        0x00001a02:    b930        0.      CBNZ     r0,0x1a12 ; main + 218
        0x00001a04:    2000        .       MOVS     r0,#0
        0x00001a06:    f7fff9bf    ....    BL       am_hal_sysctrl_sleep ; 0xd88
        0x00001a0a:    4628        (F      MOV      r0,r5
        0x00001a0c:    f7fefbd8    ....    BL       am_hal_interrupt_master_set ; 0x1c0
        0x00001a10:    e003        ..      B        0x1a1a ; main + 226
        0x00001a12:    4628        (F      MOV      r0,r5
        0x00001a14:    f7fefbd4    ....    BL       am_hal_interrupt_master_set ; 0x1c0
        0x00001a18:    e001        ..      B        0x1a1e ; main + 230
        0x00001a1a:    bf00        ..      NOP      
        0x00001a1c:    e7ec        ..      B        0x19f8 ; main + 192
        0x00001a1e:    bf00        ..      NOP      
        0x00001a20:    f44f0000    O...    MOV      r0,#0x800000
        0x00001a24:    2100        .!      MOVS     r1,#0
        0x00001a26:    f7fefff9    ....    BL       am_hal_gpio_int_disable ; 0xa1c
        0x00001a2a:    201c        .       MOVS     r0,#0x1c
        0x00001a2c:    f7fff81e    ....    BL       am_hal_interrupt_disable ; 0xa6c
        0x00001a30:    f7fefbc2    ....    BL       am_hal_interrupt_master_disable ; 0x1b8
        0x00001a34:    9000        ..      STR      r0,[sp,#0]
        0x00001a36:    2073        s       MOVS     r0,#0x73
        0x00001a38:    491e        .I      LDR      r1,[pc,#120] ; [0x1ab4] = 0x40010000
        0x00001a3a:    6608        .f      STR      r0,[r1,#0x60]
        0x00001a3c:    4608        .F      MOV      r0,r1
        0x00001a3e:    6c80        .l      LDR      r0,[r0,#0x48]
        0x00001a40:    f02060e0     ..`    BIC      r0,r0,#0x7000000
        0x00001a44:    6488        .d      STR      r0,[r1,#0x48]
        0x00001a46:    4608        .F      MOV      r0,r1
        0x00001a48:    6940        @i      LDR      r0,[r0,#0x14]
        0x00001a4a:    f420007f     ...    BIC      r0,r0,#0xff0000
        0x00001a4e:    6148        Ha      STR      r0,[r1,#0x14]
        0x00001a50:    4818        .H      LDR      r0,[pc,#96] ; [0x1ab4] = 0x40010000
        0x00001a52:    30f4        .0      ADDS     r0,r0,#0xf4
        0x00001a54:    6800        .h      LDR      r0,[r0,#0]
        0x00001a56:    f420007f     ...    BIC      r0,r0,#0xff0000
        0x00001a5a:    f8c100f4    ....    STR      r0,[r1,#0xf4]
        0x00001a5e:    2000        .       MOVS     r0,#0
        0x00001a60:    6608        .f      STR      r0,[r1,#0x60]
        0x00001a62:    9800        ..      LDR      r0,[sp,#0]
        0x00001a64:    f7fefbac    ....    BL       am_hal_interrupt_master_set ; 0x1c0
        0x00001a68:    f7fefba6    ....    BL       am_hal_interrupt_master_disable ; 0x1b8
        0x00001a6c:    9000        ..      STR      r0,[sp,#0]
        0x00001a6e:    2073        s       MOVS     r0,#0x73
        0x00001a70:    4910        .I      LDR      r1,[pc,#64] ; [0x1ab4] = 0x40010000
        0x00001a72:    6608        .f      STR      r0,[r1,#0x60]
        0x00001a74:    4608        .F      MOV      r0,r1
        0x00001a76:    6c80        .l      LDR      r0,[r0,#0x48]
        0x00001a78:    f02040e0     ..@    BIC      r0,r0,#0x70000000
        0x00001a7c:    6488        .d      STR      r0,[r1,#0x48]
        0x00001a7e:    4608        .F      MOV      r0,r1
        0x00001a80:    6940        @i      LDR      r0,[r0,#0x14]
        0x00001a82:    f020407f     ..@    BIC      r0,r0,#0xff000000
        0x00001a86:    f0407000    @..p    ORR      r0,r0,#0x2000000
        0x00001a8a:    6148        Ha      STR      r0,[r1,#0x14]
        0x00001a8c:    4608        .F      MOV      r0,r1
        0x00001a8e:    f8d000f4    ....    LDR      r0,[r0,#0xf4]
        0x00001a92:    f020407f     ..@    BIC      r0,r0,#0xff000000
        0x00001a96:    4907        .I      LDR      r1,[pc,#28] ; [0x1ab4] = 0x40010000
        0x00001a98:    31f4        .1      ADDS     r1,r1,#0xf4
        0x00001a9a:    6008        .`      STR      r0,[r1,#0]
        0x00001a9c:    2000        .       MOVS     r0,#0
        0x00001a9e:    4905        .I      LDR      r1,[pc,#20] ; [0x1ab4] = 0x40010000
        0x00001aa0:    6608        .f      STR      r0,[r1,#0x60]
        0x00001aa2:    9800        ..      LDR      r0,[sp,#0]
        0x00001aa4:    f7fefb8c    ....    BL       am_hal_interrupt_master_set ; 0x1c0
        0x00001aa8:    f7fefb82    ....    BL       am_hal_interrupt_master_enable ; 0x1b0
        0x00001aac:    bf00        ..      NOP      
        0x00001aae:    e7fe        ..      B        0x1aae ; main + 374
    $d
        0x00001ab0:    100000f0    ....    DCD    268435696
        0x00001ab4:    40010000    ...@    DCD    1073807360
        0x00001ab8:    10000000    ....    DCD    268435456
    $t
    i.multiboot_decrypt
    multiboot_decrypt
        0x00001abc:    e92d41f0    -..A    PUSH     {r4-r8,lr}
        0x00001ac0:    4604        .F      MOV      r4,r0
        0x00001ac2:    460e        .F      MOV      r6,r1
        0x00001ac4:    9d06        ..      LDR      r5,[sp,#0x18]
        0x00001ac6:    2100        .!      MOVS     r1,#0
        0x00001ac8:    e01b        ..      B        0x1b02 ; multiboot_decrypt + 70
        0x00001aca:    2000        .       MOVS     r0,#0
        0x00001acc:    e016        ..      B        0x1afc ; multiboot_decrypt + 64
        0x00001ace:    fb010c03    ....    MLA      r12,r1,r3,r0
        0x00001ad2:    f854702c    T.,p    LDR      r7,[r4,r12,LSL #2]
        0x00001ad6:    fb010c03    ....    MLA      r12,r1,r3,r0
        0x00001ada:    f854c02c    T.,.    LDR      r12,[r4,r12,LSL #2]
        0x00001ade:    f8528020    R. .    LDR      r8,[r2,r0,LSL #2]
        0x00001ae2:    ea8c0c08    ....    EOR      r12,r12,r8
        0x00001ae6:    f8558020    U. .    LDR      r8,[r5,r0,LSL #2]
        0x00001aea:    ea8c0c08    ....    EOR      r12,r12,r8
        0x00001aee:    fb010803    ....    MLA      r8,r1,r3,r0
        0x00001af2:    f844c028    D.(.    STR      r12,[r4,r8,LSL #2]
        0x00001af6:    f8457020    E. p    STR      r7,[r5,r0,LSL #2]
        0x00001afa:    1c40        @.      ADDS     r0,r0,#1
        0x00001afc:    4298        .B      CMP      r0,r3
        0x00001afe:    d3e6        ..      BCC      0x1ace ; multiboot_decrypt + 18
        0x00001b00:    1c49        I.      ADDS     r1,r1,#1
        0x00001b02:    fbb6fcf3    ....    UDIV     r12,r6,r3
        0x00001b06:    458c        .E      CMP      r12,r1
        0x00001b08:    d8df        ..      BHI      0x1aca ; multiboot_decrypt + 14
        0x00001b0a:    e8bd81f0    ....    POP      {r4-r8,pc}
        0x00001b0e:    0000        ..      MOVS     r0,r0
    i.multiboot_secure_decrypt
    multiboot_secure_decrypt
        0x00001b10:    b538        8.      PUSH     {r3-r5,lr}
        0x00001b12:    4605        .F      MOV      r5,r0
        0x00001b14:    460c        .F      MOV      r4,r1
        0x00001b16:    480b        .H      LDR      r0,[pc,#44] ; [0x1b44] = 0x10002100
        0x00001b18:    08a1        ..      LSRS     r1,r4,#2
        0x00001b1a:    2301        .#      MOVS     r3,#1
        0x00001b1c:    1d02        ..      ADDS     r2,r0,#4
        0x00001b1e:    9000        ..      STR      r0,[sp,#0]
        0x00001b20:    4628        (F      MOV      r0,r5
        0x00001b22:    f7ffffcb    ....    BL       multiboot_decrypt ; 0x1abc
        0x00001b26:    4a07        .J      LDR      r2,[pc,#28] ; [0x1b44] = 0x10002100
        0x00001b28:    320c        .2      ADDS     r2,r2,#0xc
        0x00001b2a:    4621        !F      MOV      r1,r4
        0x00001b2c:    4628        (F      MOV      r0,r5
        0x00001b2e:    f7fefcc5    ....    BL       am_bootloader_partial_crc32 ; 0x4bc
        0x00001b32:    4804        .H      LDR      r0,[pc,#16] ; [0x1b44] = 0x10002100
        0x00001b34:    3810        .8      SUBS     r0,r0,#0x10
        0x00001b36:    6980        .i      LDR      r0,[r0,#0x18]
        0x00001b38:    4420         D      ADD      r0,r0,r4
        0x00001b3a:    4902        .I      LDR      r1,[pc,#8] ; [0x1b44] = 0x10002100
        0x00001b3c:    3910        .9      SUBS     r1,r1,#0x10
        0x00001b3e:    6188        .a      STR      r0,[r1,#0x18]
        0x00001b40:    bd38        8.      POP      {r3-r5,pc}
    $d
        0x00001b42:    0000        ..      DCW    0
        0x00001b44:    10002100    .!..    DCD    268443904
    $t
    i.multiboot_secure_verify
    multiboot_secure_verify
        0x00001b48:    4602        .F      MOV      r2,r0
        0x00001b4a:    2100        .!      MOVS     r1,#0
        0x00001b4c:    e016        ..      B        0x1b7c ; multiboot_secure_verify + 52
        0x00001b4e:    480f        .H      LDR      r0,[pc,#60] ; [0x1b8c] = 0x10002104
        0x00001b50:    f8500021    P.!.    LDR      r0,[r0,r1,LSL #2]
        0x00001b54:    4b0d        .K      LDR      r3,[pc,#52] ; [0x1b8c] = 0x10002104
        0x00001b56:    3b14        .;      SUBS     r3,r3,#0x14
        0x00001b58:    69db        .i      LDR      r3,[r3,#0x1c]
        0x00001b5a:    4058        X@      EORS     r0,r0,r3
        0x00001b5c:    4b0b        .K      LDR      r3,[pc,#44] ; [0x1b8c] = 0x10002104
        0x00001b5e:    3b10        .;      SUBS     r3,r3,#0x10
        0x00001b60:    f8430021    C.!.    STR      r0,[r3,r1,LSL #2]
        0x00001b64:    4618        .F      MOV      r0,r3
        0x00001b66:    f8500021    P.!.    LDR      r0,[r0,r1,LSL #2]
        0x00001b6a:    1f1b        ..      SUBS     r3,r3,#4
        0x00001b6c:    f8533021    S.!0    LDR      r3,[r3,r1,LSL #2]
        0x00001b70:    4298        .B      CMP      r0,r3
        0x00001b72:    d002        ..      BEQ      0x1b7a ; multiboot_secure_verify + 50
        0x00001b74:    f04f30ff    O..0    MOV      r0,#0xffffffff
        0x00001b78:    4770        pG      BX       lr
        0x00001b7a:    1c49        I.      ADDS     r1,r1,#1
        0x00001b7c:    2901        .)      CMP      r1,#1
        0x00001b7e:    dbe6        ..      BLT      0x1b4e ; multiboot_secure_verify + 6
        0x00001b80:    4802        .H      LDR      r0,[pc,#8] ; [0x1b8c] = 0x10002104
        0x00001b82:    3814        .8      SUBS     r0,r0,#0x14
        0x00001b84:    69c0        .i      LDR      r0,[r0,#0x1c]
        0x00001b86:    6010        .`      STR      r0,[r2,#0]
        0x00001b88:    2000        .       MOVS     r0,#0
        0x00001b8a:    e7f5        ..      B        0x1b78 ; multiboot_secure_verify + 48
    $d
        0x00001b8c:    10002104    .!..    DCD    268443908
    $t
    i.program_image
    program_image
        0x00001b90:    e92d41f0    -..A    PUSH     {r4-r8,lr}
        0x00001b94:    4607        .F      MOV      r7,r0
        0x00001b96:    4811        .H      LDR      r0,[pc,#68] ; [0x1bdc] = 0x10002110
        0x00001b98:    6905        .i      LDR      r5,[r0,#0x10]
        0x00001b9a:    6846        Fh      LDR      r6,[r0,#4]
        0x00001b9c:    6884        .h      LDR      r4,[r0,#8]
        0x00001b9e:    7b00        .{      LDRB     r0,[r0,#0xc]
        0x00001ba0:    b1d0        ..      CBZ      r0,0x1bd8 ; program_image + 72
        0x00001ba2:    e016        ..      B        0x1bd2 ; program_image + 66
        0x00001ba4:    f5b45f00    ..._    CMP      r4,#0x2000
        0x00001ba8:    d902        ..      BLS      0x1bb0 ; program_image + 32
        0x00001baa:    f44f5000    O..P    MOV      r0,#0x2000
        0x00001bae:    e000        ..      B        0x1bb2 ; program_image + 34
        0x00001bb0:    4620         F      MOV      r0,r4
        0x00001bb2:    4602        .F      MOV      r2,r0
        0x00001bb4:    4631        1F      MOV      r1,r6
        0x00001bb6:    4628        (F      MOV      r0,r5
        0x00001bb8:    f7fefc96    ....    BL       am_bootloader_program_flash_page ; 0x4e8
        0x00001bbc:    f5b45f00    ..._    CMP      r4,#0x2000
        0x00001bc0:    d906        ..      BLS      0x1bd0 ; program_image + 64
        0x00001bc2:    f5a45400    ...T    SUB      r4,r4,#0x2000
        0x00001bc6:    f5055500    ...U    ADD      r5,r5,#0x2000
        0x00001bca:    f5065600    ...V    ADD      r6,r6,#0x2000
        0x00001bce:    e000        ..      B        0x1bd2 ; program_image + 66
        0x00001bd0:    e001        ..      B        0x1bd6 ; program_image + 70
        0x00001bd2:    2c00        .,      CMP      r4,#0
        0x00001bd4:    d1e6        ..      BNE      0x1ba4 ; program_image + 20
        0x00001bd6:    bf00        ..      NOP      
        0x00001bd8:    e8bd81f0    ....    POP      {r4-r8,pc}
    $d
        0x00001bdc:    10002110    .!..    DCD    268443920
    $t
    i.ser_out
    ser_out
        0x00001be0:    4a07        .J      LDR      r2,[pc,#28] ; [0x1c00] = 0x4001c000
        0x00001be2:    1493        ..      ASRS     r3,r2,#18
        0x00001be4:    fb032200    ..."    MLA      r2,r3,r0,r2
        0x00001be8:    6011        .`      STR      r1,[r2,#0]
        0x00001bea:    bf00        ..      NOP      
        0x00001bec:    4a04        .J      LDR      r2,[pc,#16] ; [0x1c00] = 0x4001c000
        0x00001bee:    1493        ..      ASRS     r3,r2,#18
        0x00001bf0:    fb032200    ..."    MLA      r2,r3,r0,r2
        0x00001bf4:    6992        .i      LDR      r2,[r2,#0x18]
        0x00001bf6:    f3c21240    ..@.    UBFX     r2,r2,#5,#1
        0x00001bfa:    2a00        .*      CMP      r2,#0
        0x00001bfc:    d1f6        ..      BNE      0x1bec ; ser_out + 12
        0x00001bfe:    4770        pG      BX       lr
    $d
        0x00001c00:    4001c000    ...@    DCD    1073856512
    $t
    i.setBuckZX
    setBuckZX
        0x00001c04:    b5f8        ..      PUSH     {r3-r7,lr}
        0x00001c06:    4614        .F      MOV      r4,r2
        0x00001c08:    460e        .F      MOV      r6,r1
        0x00001c0a:    4605        .F      MOV      r5,r0
        0x00001c0c:    f7fefad4    ....    BL       am_hal_interrupt_master_disable ; 0x1b8
        0x00001c10:    4b19        .K      LDR      r3,[pc,#100] ; [0x1c78] = 0x40020000
        0x00001c12:    9000        ..      STR      r0,[sp,#0]
        0x00001c14:    6e98        .n      LDR      r0,[r3,#0x68]
        0x00001c16:    6e99        .n      LDR      r1,[r3,#0x68]
        0x00001c18:    f3c00083    ....    UBFX     r0,r0,#2,#4
        0x00001c1c:    4a17        .J      LDR      r2,[pc,#92] ; [0x1c7c] = 0x100000d4
        0x00001c1e:    f3c13143    ..C1    UBFX     r1,r1,#13,#4
        0x00001c22:    f0140f02    ....    TST      r4,#2
        0x00001c26:    bf14        ..      ITE      NE
        0x00001c28:    e9d25604    ...V    LDRDNE   r5,r6,[r2,#0x10]
        0x00001c2c:    f0140f01    ....    TSTEQ    r4,#1
        0x00001c30:    d011        ..      BEQ      0x1c56 ; setBuckZX + 82
        0x00001c32:    f0140f10    ....    TST      r4,#0x10
        0x00001c36:    d005        ..      BEQ      0x1c44 ; setBuckZX + 64
        0x00001c38:    f8d3c068    ..h.    LDR      r12,[r3,#0x68]
        0x00001c3c:    f3650c85    e...    BFI      r12,r5,#2,#4
        0x00001c40:    f8c3c068    ..h.    STR      r12,[r3,#0x68]
        0x00001c44:    f0140f20    .. .    TST      r4,#0x20
        0x00001c48:    d005        ..      BEQ      0x1c56 ; setBuckZX + 82
        0x00001c4a:    f8d3c068    ..h.    LDR      r12,[r3,#0x68]
        0x00001c4e:    f3663c50    f.P<    BFI      r12,r6,#13,#4
        0x00001c52:    f8c3c068    ..h.    STR      r12,[r3,#0x68]
        0x00001c56:    f0140f04    ....    TST      r4,#4
        0x00001c5a:    d007        ..      BEQ      0x1c6c ; setBuckZX + 104
        0x00001c5c:    f0140f10    ....    TST      r4,#0x10
        0x00001c60:    bf18        ..      IT       NE
        0x00001c62:    6110        .a      STRNE    r0,[r2,#0x10]
        0x00001c64:    f0140f20    .. .    TST      r4,#0x20
        0x00001c68:    bf18        ..      IT       NE
        0x00001c6a:    6151        Qa      STRNE    r1,[r2,#0x14]
        0x00001c6c:    9800        ..      LDR      r0,[sp,#0]
        0x00001c6e:    e8bd40f8    ...@    POP      {r3-r7,lr}
        0x00001c72:    f7febaa5    ....    B        am_hal_interrupt_master_set ; 0x1c0
    $d
        0x00001c76:    0000        ..      DCW    0
        0x00001c78:    40020000    ...@    DCD    1073872896
        0x00001c7c:    100000d4    ....    DCD    268435668
    $t
    i.validate_keyidx
    validate_keyidx
        0x00001c80:    b510        ..      PUSH     {r4,lr}
        0x00001c82:    4604        .F      MOV      r4,r0
        0x00001c84:    2c08        .,      CMP      r4,#8
        0x00001c86:    d901        ..      BLS      0x1c8c ; validate_keyidx + 12
        0x00001c88:    2001        .       MOVS     r0,#1
        0x00001c8a:    bd10        ..      POP      {r4,pc}
        0x00001c8c:    4902        .I      LDR      r1,[pc,#8] ; [0x1c98] = 0x10000004
        0x00001c8e:    4620         F      MOV      r0,r4
        0x00001c90:    f7fefb6d    ..m.    BL       __semihosting_library_function ; 0x36e
        0x00001c94:    e7f9        ..      B        0x1c8a ; validate_keyidx + 10
    $d
        0x00001c96:    0000        ..      DCW    0
        0x00001c98:    10000004    ....    DCD    268435460
    $t
    i.validate_sec_trailer
    validate_sec_trailer
        0x00001c9c:    b538        8.      PUSH     {r3-r5,lr}
        0x00001c9e:    4605        .F      MOV      r5,r0
        0x00001ca0:    2000        .       MOVS     r0,#0
        0x00001ca2:    9000        ..      STR      r0,[sp,#0]
        0x00001ca4:    466a        jF      MOV      r2,sp
        0x00001ca6:    2104        .!      MOVS     r1,#4
        0x00001ca8:    4628        (F      MOV      r0,r5
        0x00001caa:    f7fefc07    ....    BL       am_bootloader_partial_crc32 ; 0x4bc
        0x00001cae:    466a        jF      MOV      r2,sp
        0x00001cb0:    2110        .!      MOVS     r1,#0x10
        0x00001cb2:    1d28        (.      ADDS     r0,r5,#4
        0x00001cb4:    f7fefc02    ....    BL       am_bootloader_partial_crc32 ; 0x4bc
        0x00001cb8:    2400        .$      MOVS     r4,#0
        0x00001cba:    e010        ..      B        0x1cde ; validate_sec_trailer + 66
        0x00001cbc:    490a        .I      LDR      r1,[pc,#40] ; [0x1ce8] = 0x10000008
        0x00001cbe:    6828        (h      LDR      r0,[r5,#0]
        0x00001cc0:    eb010080    ....    ADD      r0,r1,r0,LSL #2
        0x00001cc4:    f8500024    P.$.    LDR      r0,[r0,r4,LSL #2]
        0x00001cc8:    9900        ..      LDR      r1,[sp,#0]
        0x00001cca:    4048        H@      EORS     r0,r0,r1
        0x00001ccc:    f1050114    ....    ADD      r1,r5,#0x14
        0x00001cd0:    f8511024    Q.$.    LDR      r1,[r1,r4,LSL #2]
        0x00001cd4:    4288        .B      CMP      r0,r1
        0x00001cd6:    d001        ..      BEQ      0x1cdc ; validate_sec_trailer + 64
        0x00001cd8:    2001        .       MOVS     r0,#1
        0x00001cda:    bd38        8.      POP      {r3-r5,pc}
        0x00001cdc:    1c64        d.      ADDS     r4,r4,#1
        0x00001cde:    2c01        .,      CMP      r4,#1
        0x00001ce0:    dbec        ..      BLT      0x1cbc ; validate_sec_trailer + 32
        0x00001ce2:    2000        .       MOVS     r0,#0
        0x00001ce4:    e7f9        ..      B        0x1cda ; validate_sec_trailer + 62
    $d
        0x00001ce6:    0000        ..      DCW    0
        0x00001ce8:    10000008    ....    DCD    268435464
    $t
    i.wipe_sram
    wipe_sram
        0x00001cec:    480d        .H      LDR      r0,[pc,#52] ; [0x1d24] = 0x10002110
        0x00001cee:    6940        @i      LDR      r0,[r0,#0x14]
        0x00001cf0:    f1005080    ...P    ADD      r0,r0,#0x10000000
        0x00001cf4:    1f00        ..      SUBS     r0,r0,#4
        0x00001cf6:    f04f5180    O..Q    MOV      r1,#0x10000000
        0x00001cfa:    6008        .`      STR      r0,[r1,#0]
        0x00001cfc:    e00b        ..      B        0x1d16 ; wipe_sram + 42
        0x00001cfe:    2000        .       MOVS     r0,#0
        0x00001d00:    f04f5180    O..Q    MOV      r1,#0x10000000
        0x00001d04:    6809        .h      LDR      r1,[r1,#0]
        0x00001d06:    6008        .`      STR      r0,[r1,#0]
        0x00001d08:    f04f5080    O..P    MOV      r0,#0x10000000
        0x00001d0c:    6800        .h      LDR      r0,[r0,#0]
        0x00001d0e:    1f00        ..      SUBS     r0,r0,#4
        0x00001d10:    f04f5180    O..Q    MOV      r1,#0x10000000
        0x00001d14:    6008        .`      STR      r0,[r1,#0]
        0x00001d16:    f04f5080    O..P    MOV      r0,#0x10000000
        0x00001d1a:    6800        .h      LDR      r0,[r0,#0]
        0x00001d1c:    f1b05f80    ..._    CMP      r0,#0x10000000
        0x00001d20:    d1ed        ..      BNE      0x1cfe ; wipe_sram + 18
        0x00001d22:    4770        pG      BX       lr
    $d
        0x00001d24:    10002110    .!..    DCD    268443920
    $t
    x$fpl$fpinit
    $v0
    _fp_init
        0x00001d28:    f04f7040    O.@p    MOV      r0,#0x3000000
        0x00001d2c:    eee10a10    ....    VMSR     FPSCR,r0
    __fplib_config_fpu_vfp
    __fplib_config_pureend_doubles
        0x00001d30:    4770        pG      BX       lr
        0x00001d32:    0000        ..      MOVS     r0,r0
    $d.realdata
    .constdata
    g_pui32CRC32Table
        0x00001d34:    00000000    ....    DCD    0
        0x00001d38:    1edc6f41    Ao..    DCD    517762881
        0x00001d3c:    3db8de82    ...=    DCD    1035525762
        0x00001d40:    2364b1c3    ..d#    DCD    593801667
        0x00001d44:    7b71bd04    ..q{    DCD    2071051524
        0x00001d48:    65add245    E..e    DCD    1705890373
        0x00001d4c:    46c96386    .c.F    DCD    1187603334
        0x00001d50:    58150cc7    ...X    DCD    1477774535
        0x00001d54:    f6e37a08    .z..    DCD    4142103048
        0x00001d58:    e83f1549    I.?.    DCD    3896448329
        0x00001d5c:    cb5ba48a    ..[.    DCD    3411780746
        0x00001d60:    d587cbcb    ....    DCD    3582446539
        0x00001d64:    8d92c70c    ....    DCD    2375206668
        0x00001d68:    934ea84d    M.N.    DCD    2471405645
        0x00001d6c:    b02a198e    ..*.    DCD    2955549070
        0x00001d70:    aef676cf    .v..    DCD    2935387855
        0x00001d74:    f31a9b51    Q...    DCD    4078607185
        0x00001d78:    edc6f410    ....    DCD    3989238800
        0x00001d7c:    cea245d3    .E..    DCD    3466741203
        0x00001d80:    d07e2a92    .*~.    DCD    3497929362
        0x00001d84:    886b2655    U&k.    DCD    2288723541
        0x00001d88:    96b74914    .I..    DCD    2528594196
        0x00001d8c:    b5d3f8d7    ....    DCD    3050567895
        0x00001d90:    ab0f9796    ....    DCD    2869925782
        0x00001d94:    05f9e159    Y...    DCD    100262233
        0x00001d98:    1b258e18    ..%.    DCD    455446040
        0x00001d9c:    38413fdb    .?A8    DCD    943800283
        0x00001da0:    269d509a    .P.&    DCD    647843994
        0x00001da4:    7e885c5d    ]\.~    DCD    2122865757
        0x00001da8:    6054331c    .3T`    DCD    1616130844
        0x00001dac:    433082df    ..0C    DCD    1127252703
        0x00001db0:    5deced9e    ...]    DCD    1575808414
        0x00001db4:    f8e959e3    .Y..    DCD    4176042467
        0x00001db8:    e63536a2    .65.    DCD    3862247074
        0x00001dbc:    c5518761    a.Q.    DCD    3310454625
        0x00001dc0:    db8de820     ...    DCD    3683510304
        0x00001dc4:    8398e4e7    ....    DCD    2207835367
        0x00001dc8:    9d448ba6    ..D.    DCD    2638515110
        0x00001dcc:    be203a65    e: .    DCD    3189783141
        0x00001dd0:    a0fc5524    $U..    DCD    2700891428
        0x00001dd4:    0e0a23eb    .#..    DCD    235545579
        0x00001dd8:    10d64caa    .L..    DCD    282479786
        0x00001ddc:    33b2fd69    i..3    DCD    867368297
        0x00001de0:    2d6e9228    (.n-    DCD    762221096
        0x00001de4:    757b9eef    ..{u    DCD    1971035887
        0x00001de8:    6ba7f1ae    ...k    DCD    1806168494
        0x00001dec:    48c3406d    m@.H    DCD    1220755565
        0x00001df0:    561f2f2c    ,/.V    DCD    1444884268
        0x00001df4:    0bf3c2b2    ....    DCD    200524466
        0x00001df8:    152fadf3    ../.    DCD    355446259
        0x00001dfc:    364b1c30    0.K6    DCD    910892080
        0x00001e00:    28977371    qs.(    DCD    681014129
        0x00001e04:    70827fb6    ...p    DCD    1887600566
        0x00001e08:    6e5e10f7    ..^n    DCD    1851658487
        0x00001e0c:    4d3aa134    4.:M    DCD    1295687988
        0x00001e10:    53e6ce75    u..S    DCD    1407635061
        0x00001e14:    fd10b8ba    ....    DCD    4245731514
        0x00001e18:    e3ccd7fb    ....    DCD    3821852667
        0x00001e1c:    c0a86638    8f..    DCD    3232261688
        0x00001e20:    de740979    y.t.    DCD    3732146553
        0x00001e24:    866105be    ..a.    DCD    2254505406
        0x00001e28:    98bd6aff    .j..    DCD    2562550527
        0x00001e2c:    bbd9db3c    <...    DCD    3151616828
        0x00001e30:    a505b47d    }...    DCD    2768614525
        0x00001e34:    ef0edc87    ....    DCD    4010728583
        0x00001e38:    f1d2b3c6    ....    DCD    4057117638
        0x00001e3c:    d2b60205    ....    DCD    3535143429
        0x00001e40:    cc6a6d44    Dmj.    DCD    3429526852
        0x00001e44:    947f6183    .a..    DCD    2491376003
        0x00001e48:    8aa30ec2    ....    DCD    2325941954
        0x00001e4c:    a9c7bf01    ....    DCD    2848440065
        0x00001e50:    b71bd040    @...    DCD    3072053312
        0x00001e54:    19eda68f    ....    DCD    435005071
        0x00001e58:    0731c9ce    ..1.    DCD    120703438
        0x00001e5c:    2455780d    .xU$    DCD    609581069
        0x00001e60:    3a89174c    L..:    DCD    982062924
        0x00001e64:    629c1b8b    ...b    DCD    1654397835
        0x00001e68:    7c4074ca    .t@|    DCD    2084598986
        0x00001e6c:    5f24c509    ..$_    DCD    1596245257
        0x00001e70:    41f8aa48    H..A    DCD    1106815560
        0x00001e74:    1c1447d6    .G..    DCD    471091158
        0x00001e78:    02c82897    .(..    DCD    46672023
        0x00001e7c:    21ac9954    T..!    DCD    564959572
        0x00001e80:    3f70f615    ..p?    DCD    1064367637
        0x00001e84:    6765fad2    ..eg    DCD    1734736594
        0x00001e88:    79b99593    ...y    DCD    2042205587
        0x00001e8c:    5add2450    P$.Z    DCD    1524442192
        0x00001e90:    44014b11    .K.D    DCD    1140935441
        0x00001e94:    eaf73dde    .=..    DCD    3942071774
        0x00001e98:    f42b529f    .R+.    DCD    4096479903
        0x00001e9c:    d74fe35c    \.O.    DCD    3612336988
        0x00001ea0:    c9938c1d    ....    DCD    3381890077
        0x00001ea4:    918680da    ....    DCD    2441511130
        0x00001ea8:    8f5aef9b    ..Z.    DCD    2405101467
        0x00001eac:    ac3e5e58    X^>.    DCD    2889768536
        0x00001eb0:    b2e23119    .1..    DCD    3001168153
        0x00001eb4:    17e78564    d...    DCD    401048932
        0x00001eb8:    093bea25    %.;.    DCD    154921509
        0x00001ebc:    2a5f5be6    .[_*    DCD    710892518
        0x00001ec0:    348334a7    .4.4    DCD    881013927
        0x00001ec4:    6c963860    `8.l    DCD    1821784160
        0x00001ec8:    724a5721    !WJr    DCD    1917474593
        0x00001ecc:    512ee6e2    ...Q    DCD    1362028258
        0x00001ed0:    4ff289a3    ...O    DCD    1341295011
        0x00001ed4:    e104ff6c    l...    DCD    3775201132
        0x00001ed8:    ffd8902d    -...    DCD    4292382765
        0x00001edc:    dcbc21ee    .!..    DCD    3703316974
        0x00001ee0:    c2604eaf    .N`.    DCD    3261091503
        0x00001ee4:    9a754268    hBu.    DCD    2591375976
        0x00001ee8:    84a92d29    )-..    DCD    2225679657
        0x00001eec:    a7cd9cea    ....    DCD    2815270122
        0x00001ef0:    b911f3ab    ....    DCD    3104961451
        0x00001ef4:    e4fd1e35    5...    DCD    3841793589
        0x00001ef8:    fa217174    tq!.    DCD    4196495732
        0x00001efc:    d945c0b7    ..E.    DCD    3645227191
        0x00001f00:    c799aff6    ....    DCD    3348738038
        0x00001f04:    9f8ca331    1...    DCD    2676794161
        0x00001f08:    8150cc70    p.P.    DCD    2169556080
        0x00001f0c:    a2347db3    .}4.    DCD    2721349043
        0x00001f10:    bce812f2    ....    DCD    3169325810
        0x00001f14:    121e643d    =d..    DCD    303981629
        0x00001f18:    0cc20b7c    |...    DCD    214043516
        0x00001f1c:    2fa6babf    .../    DCD    799455935
        0x00001f20:    317ad5fe    ..z1    DCD    830133758
        0x00001f24:    696fd939    9.oi    DCD    1768937785
        0x00001f28:    77b3b678    x..w    DCD    2008266360
        0x00001f2c:    54d707bb    ...T    DCD    1423378363
        0x00001f30:    4a0b68fa    .h.J    DCD    1242261754
        0x00001f34:    c0c1d64f    O...    DCD    3233928783
        0x00001f38:    de1db90e    ....    DCD    3726489870
        0x00001f3c:    fd7908cd    ..y.    DCD    4252567757
        0x00001f40:    e3a5678c    .g..    DCD    3819267980
        0x00001f44:    bbb06b4b    Kk..    DCD    3148901195
        0x00001f48:    a56c040a    ..l.    DCD    2775319562
        0x00001f4c:    8608b5c9    ....    DCD    2248717769
        0x00001f50:    98d4da88    ....    DCD    2564086408
        0x00001f54:    3622ac47    G."6    DCD    908241991
        0x00001f58:    28fec306    ...(    DCD    687784710
        0x00001f5c:    0b9a72c5    .r..    DCD    194671301
        0x00001f60:    15461d84    ..F.    DCD    356916612
        0x00001f64:    4d531143    C.SM    DCD    1297289539
        0x00001f68:    538f7e02    .~.S    DCD    1401912834
        0x00001f6c:    70ebcfc1    ...p    DCD    1894502337
        0x00001f70:    6e37a080    ..7n    DCD    1849139328
        0x00001f74:    33db4d1e    .M.3    DCD    870010142
        0x00001f78:    2d07225f    _".-    DCD    755442271
        0x00001f7c:    0e63939c    ..c.    DCD    241406876
        0x00001f80:    10bffcdd    ....    DCD    281017565
        0x00001f84:    48aaf01a    ...H    DCD    1219162138
        0x00001f88:    56769f5b    [.vV    DCD    1450614619
        0x00001f8c:    75122e98    ...u    DCD    1964125848
        0x00001f90:    6bce41d9    .A.k    DCD    1808679385
        0x00001f94:    c5383716    .78.    DCD    3308795670
        0x00001f98:    dbe45857    WX..    DCD    3689175127
        0x00001f9c:    f880e994    ....    DCD    4169197972
        0x00001fa0:    e65c86d5    ..\.    DCD    3864823509
        0x00001fa4:    be498a12    ..I.    DCD    3192490514
        0x00001fa8:    a095e553    S...    DCD    2694178131
        0x00001fac:    83f15490    .T..    DCD    2213631120
        0x00001fb0:    9d2d3bd1    .;-.    DCD    2636987345
        0x00001fb4:    38288fac    ..(8    DCD    942182316
        0x00001fb8:    26f4e0ed    ...&    DCD    653582573
        0x00001fbc:    0590512e    .Q..    DCD    93344046
        0x00001fc0:    1b4c3e6f    o>L.    DCD    457981551
        0x00001fc4:    435932a8    .2YC    DCD    1129919144
        0x00001fc8:    5d855de9    .].]    DCD    1569021417
        0x00001fcc:    7ee1ec2a    *..~    DCD    2128735274
        0x00001fd0:    603d836b    k.=`    DCD    1614644075
        0x00001fd4:    cecbf5a4    ....    DCD    3469473188
        0x00001fd8:    d0179ae5    ....    DCD    3491207909
        0x00001fdc:    f3732b26    &+s.    DCD    4084411174
        0x00001fe0:    edaf4467    gD..    DCD    3987686503
        0x00001fe4:    b5ba48a0    .H..    DCD    3048884384
        0x00001fe8:    ab6627e1    .'f.    DCD    2875598817
        0x00001fec:    88029622    "...    DCD    2281870882
        0x00001ff0:    96def963    c...    DCD    2531195235
        0x00001ff4:    cb3214fd    ..2.    DCD    3409057021
        0x00001ff8:    d5ee7bbc    .{..    DCD    3589176252
        0x00001ffc:    f68aca7f    ....    DCD    4136290943
        0x00002000:    e856a53e    >.V.    DCD    3897992510
        0x00002004:    b043a9f9    ..C.    DCD    2957224441
        0x00002008:    ae9fc6b8    ....    DCD    2929706680
        0x0000200c:    8dfb777b    {w..    DCD    2382067579
        0x00002010:    9327183a    :.'.    DCD    2468812858
        0x00002014:    3dd16ef5    .n.=    DCD    1037135605
        0x00002018:    230d01b4    ...#    DCD    588054964
        0x0000201c:    0069b077    w.i.    DCD    6926455
        0x00002020:    1eb5df36    6...    DCD    515235638
        0x00002024:    46a0d3f1    ...F    DCD    1184945137
        0x00002028:    587cbcb0    ..|X    DCD    1484569776
        0x0000202c:    7b180d73    s..{    DCD    2065173875
        0x00002030:    65c46232    2b.e    DCD    1707369010
        0x00002034:    2fcf0ac8    .../    DCD    802097864
        0x00002038:    31136589    .e.1    DCD    823354761
        0x0000203c:    1277d44a    J.w.    DCD    309843018
        0x00002040:    0cabbb0b    ....    DCD    212581131
        0x00002044:    54beb7cc    ...T    DCD    1421785036
        0x00002048:    4a62d88d    ..bJ    DCD    1247991949
        0x0000204c:    6906694e    Ni.i    DCD    1762027854
        0x00002050:    77da060f    ...w    DCD    2010777103
        0x00002054:    d92c70c0    .p,.    DCD    3643568320
        0x00002058:    c7f01f81    ....    DCD    3354402689
        0x0000205c:    e494ae42    B...    DCD    3834949186
        0x00002060:    fa48c103    ..H.    DCD    4199072003
        0x00002064:    a25dcdc4    ..].    DCD    2724056516
        0x00002068:    bc81a285    ....    DCD    3162612357
        0x0000206c:    9fe51346    F...    DCD    2682590022
        0x00002070:    81397c07    .|9.    DCD    2168028167
        0x00002074:    dcd59199    ....    DCD    3704983961
        0x00002078:    c209fed8    ....    DCD    3255434968
        0x0000207c:    e16d4f1b    .Om.    DCD    3782037275
        0x00002080:    ffb1205a    Z ..    DCD    4289798234
        0x00002084:    a7a42c9d    .,..    DCD    2812554397
        0x00002088:    b97843dc    .Cx.    DCD    3111666652
        0x0000208c:    9a1cf21f    ....    DCD    2585588255
        0x00002090:    84c09d5e    ^...    DCD    2227215710
        0x00002094:    2a36eb91    ..6*    DCD    708242321
        0x00002098:    34ea84d0    ...4    DCD    887784656
        0x0000209c:    178e3513    .5..    DCD    395195667
        0x000020a0:    09525a52    RZR.    DCD    156392018
        0x000020a4:    51475695    .VGQ    DCD    1363629717
        0x000020a8:    4f9b39d4    .9.O    DCD    1335572948
        0x000020ac:    6cff8817    ...l    DCD    1828685847
        0x000020b0:    7223e756    V.#r    DCD    1914955606
        0x000020b4:    d726532b    +S&.    DCD    3609613099
        0x000020b8:    c9fa3c6a    j<..    DCD    3388619882
        0x000020bc:    ea9e8da9    ....    DCD    3936259497
        0x000020c0:    f442e2e8    ..B.    DCD    4098024168
        0x000020c4:    ac57ee2f    /.W.    DCD    2891443759
        0x000020c8:    b28b816e    n...    DCD    2995487086
        0x000020cc:    91ef30ad    .0..    DCD    2448371885
        0x000020d0:    8f335fec    ._3.    DCD    2402508780
        0x000020d4:    21c52923    #).!    DCD    566569251
        0x000020d8:    3f194662    bF.?    DCD    1058621026
        0x000020dc:    1c7df7a1    ..}.    DCD    478017441
        0x000020e0:    02a198e0    ....    DCD    44144864
        0x000020e4:    5ab49427    '..Z    DCD    1521783847
        0x000020e8:    4468fb66    f.hD    DCD    1147730790
        0x000020ec:    670c4aa5    .J.g    DCD    1728858789
        0x000020f0:    79d025e4    .%.y    DCD    2043684324
        0x000020f4:    243cc87a    z.<$    DCD    607963258
        0x000020f8:    3ae0a73b    ;..:    DCD    987801403
        0x000020fc:    198416f8    ....    DCD    428087032
        0x00002100:    075879b9    .yX.    DCD    123238841
        0x00002104:    5f4d757e    ~uM_    DCD    1598911870
        0x00002108:    41911a3f    ?..A    DCD    1100028479
        0x0000210c:    62f5abfc    ...b    DCD    1660267516
        0x00002110:    7c29c4bd    ..)|    DCD    2083112125
        0x00002114:    d2dfb272    r...    DCD    3537875570
        0x00002118:    cc03dd33    3...    DCD    3422805299
        0x0000211c:    ef676cf0    .lg.    DCD    4016532720
        0x00002120:    f1bb03b1    ....    DCD    4055565233
        0x00002124:    a9ae0f76    v...    DCD    2846756726
        0x00002128:    b7726037    7`r.    DCD    3077726263
        0x0000212c:    9416d1f4    ....    DCD    2484523508
        0x00002130:    8acabeb5    ....    DCD    2328542901
    .constdata
    g_am_hal_mcuctrl_flash_size
        0x00002134:    00004000    .@..    DCD    16384
        0x00002138:    00008000    ....    DCD    32768
        0x0000213c:    00010000    ....    DCD    65536
        0x00002140:    00020000    ....    DCD    131072
        0x00002144:    00040000    ....    DCD    262144
        0x00002148:    00080000    ....    DCD    524288
        0x0000214c:    00100000    ....    DCD    1048576
        0x00002150:    00200000    .. .    DCD    2097152
        0x00002154:    00000000    ....    DCD    0
        0x00002158:    00000000    ....    DCD    0
        0x0000215c:    00000000    ....    DCD    0
        0x00002160:    00000000    ....    DCD    0
        0x00002164:    00000000    ....    DCD    0
        0x00002168:    00000000    ....    DCD    0
        0x0000216c:    00000000    ....    DCD    0
        0x00002170:    00000000    ....    DCD    0
    Region$$Table$$Base
        0x00002174:    00002194    .!..    DCD    8596
        0x00002178:    10000000    ....    DCD    268435456
        0x0000217c:    000000f0    ....    DCD    240
        0x00002180:    00000124    $...    DCD    292
        0x00002184:    00002284    ."..    DCD    8836
        0x00002188:    100000f0    ....    DCD    268435696
        0x0000218c:    000032a0    .2..    DCD    12960
        0x00002190:    00000140    @...    DCD    320
    Region$$Table$$Limit

** Section #2 'SRAM' (SHT_PROGBITS) [SHF_ALLOC + SHF_WRITE]
    Size   : 240 bytes (alignment 4)
    Address: 0x10000000

    0x10000000:   00 00 00 00 ff ff ff fd ef be ad de aa aa aa aa    ................
    0x10000010:   11 11 11 11 00 00 00 00 ff ff ff ff 55 55 55 55    ............UUUU
    0x10000020:   a5 a5 a5 a5 66 66 66 66 00 00 00 00 00 00 00 00    ....ffff........
    0x10000030:   00 80 00 00 00 00 00 00 00 00 00 00 12 00 00 00    ................
    0x10000040:   00 00 00 00 00 00 00 00 00 00 00 00 00 00 00 00    ................
    0x10000050:   00 00 00 00 00 40 00 00 00 20 00 00 00 20 00 00    .....@... ... ..
    0x10000060:   00 00 00 00 00 00 00 00 00 00 00 00 00 00 00 00    ................
    0x10000070:   63 11 00 00 89 11 00 00 45 11 00 00 00 00 00 00    c.......E.......
    0x10000080:   00 00 00 00 00 00 00 00 00 c2 01 00 60 00 00 00    ............`...
    0x10000090:   00 00 00 00 00 00 00 00 00 00 00 00 00 00 00 00    ................
    0x100000a0:   00 00 00 00 00 00 00 00 00 00 00 00 00 00 00 00    ................
    0x100000b0:   00 00 00 00 00 00 00 00 00 00 00 00 00 00 00 00    ................
    0x100000c0:   00 00 00 00 00 00 00 00 00 00 00 00 00 00 00 00    ................
    0x100000d0:   00 00 00 00 00 00 00 00 00 00 00 00 00 00 00 00    ................
    0x100000e0:   00 00 00 00 00 00 00 00 00 00 00 00 00 00 00 00    ................


** Section #3 'SRAM' (SHT_NOBITS) [SHF_ALLOC + SHF_WRITE]
    Size   : 12960 bytes (alignment 8)
    Address: 0x100000f0


** Section #4 '.debug_abbrev' (SHT_PROGBITS)
    Size   : 1476 bytes


** Section #5 '.debug_frame' (SHT_PROGBITS)
    Size   : 3484 bytes


** Section #6 '.debug_info' (SHT_PROGBITS)
    Size   : 22736 bytes


** Section #7 '.debug_line' (SHT_PROGBITS)
    Size   : 7864 bytes


** Section #8 '.debug_loc' (SHT_PROGBITS)
    Size   : 3600 bytes


** Section #9 '.debug_macinfo' (SHT_PROGBITS)
    Size   : 6512 bytes


** Section #10 '.debug_pubnames' (SHT_PROGBITS)
    Size   : 1888 bytes


** Section #11 '.symtab' (SHT_SYMTAB)
    Size   : 9680 bytes (alignment 4)
    String table #12 '.strtab'
    Last local symbol no. 381

    Symbol table .symtab (604 symbols, 381 local)

      #  Symbol Name                Value      Bind  Sec  Type  Vis  Size
    ========================================================================

      1  $d                         0x00000000   Lc    1   --   De 
      2  $t                         0x000000c0   Lc    1   --   De 
      3  $d                         0x000000e4   Lc    1   --   De 
      4  $t                         0x000000e8   Lc    1   --   De 
      5  $d                         0x0000011c   Lc    1   --   De 
      6  $t                         0x00000124   Lc    1   --   De 
      7  $d                         0x000001d2   Lc    1   --   De 
      8  $t                         0x000001e0   Lc    1   --   De 
      9  $d                         0x0000035c   Lc    1   --   De 
     10  $t                         0x00000360   Lc    1   --   De 
     11  $d                         0x00000368   Lc    1   --   De 
     12  $t                         0x0000036c   Lc    1   --   De 
     13  $d                         0x000003b8   Lc    1   --   De 
     14  $t                         0x000003bc   Lc    1   --   De 
     15  $d                         0x000003e2   Lc    1   --   De 
     16  $t                         0x000003e8   Lc    1   --   De 
     17  $d                         0x00000434   Lc    1   --   De 
     18  $t                         0x00000438   Lc    1   --   De 
     19  $d                         0x000004e4   Lc    1   --   De 
     20  $t                         0x000004e8   Lc    1   --   De 
     21  $d                         0x00000518   Lc    1   --   De 
     22  $t                         0x0000051c   Lc    1   --   De 
     23  $d                         0x0000058e   Lc    1   --   De 
     24  $t                         0x00000594   Lc    1   --   De 
     25  $d                         0x000007f2   Lc    1   --   De 
     26  $t                         0x000007f8   Lc    1   --   De 
     27  $d                         0x0000082c   Lc    1   --   De 
     28  $t                         0x00000874   Lc    1   --   De 
     29  $d                         0x000008dc   Lc    1   --   De 
     30  $t                         0x000008e0   Lc    1   --   De 
     31  $d                         0x00000952   Lc    1   --   De 
     32  $t                         0x0000095c   Lc    1   --   De 
     33  $d                         0x00000986   Lc    1   --   De 
     34  $t                         0x0000098c   Lc    1   --   De 
     35  $d                         0x00000994   Lc    1   --   De 
     36  $t                         0x00000998   Lc    1   --   De 
     37  $d                         0x0000099c   Lc    1   --   De 
     38  $t                         0x000009a0   Lc    1   --   De 
     39  $d                         0x000009f2   Lc    1   --   De 
     40  $t                         0x000009f8   Lc    1   --   De 
     41  $d                         0x00000a18   Lc    1   --   De 
     42  $t                         0x00000a1c   Lc    1   --   De 
     43  $d                         0x00000a4c   Lc    1   --   De 
     44  $t                         0x00000a50   Lc    1   --   De 
     45  $d                         0x00000a68   Lc    1   --   De 
     46  $t                         0x00000a6c   Lc    1   --   De 
     47  $d                         0x00000ab2   Lc    1   --   De 
     48  $t                         0x00000ab8   Lc    1   --   De 
     49  $d                         0x00000afe   Lc    1   --   De 
     50  $t                         0x00000b04   Lc    1   --   De 
     51  $d                         0x00000ba4   Lc    1   --   De 
     52  $t                         0x00000bc4   Lc    1   --   De 
     53  $d                         0x00000c08   Lc    1   --   De 
     54  $t                         0x00000c10   Lc    1   --   De 
     55  $d                         0x00000c3e   Lc    1   --   De 
     56  $t                         0x00000c44   Lc    1   --   De 
     57  $d                         0x00000c80   Lc    1   --   De 
     58  $t                         0x00000c84   Lc    1   --   De 
     59  $d                         0x00000c98   Lc    1   --   De 
     60  $t                         0x00000c9c   Lc    1   --   De 
     61  $d                         0x00000d0c   Lc    1   --   De 
     62  $t                         0x00000d58   Lc    1   --   De 
     63  $d                         0x00000e7a   Lc    1   --   De 
     64  $t                         0x00000e8c   Lc    1   --   De 
     65  $d                         0x00000f84   Lc    1   --   De 
     66  $t                         0x00000fcc   Lc    1   --   De 
     67  $d                         0x00001088   Lc    1   --   De 
     68  $t                         0x000010cc   Lc    1   --   De 
     69  $d                         0x000010d4   Lc    1   --   De 
     70  $t                         0x000010d8   Lc    1   --   De 
     71  $d                         0x0000113a   Lc    1   --   De 
     72  $t                         0x00001144   Lc    1   --   De 
     73  $d                         0x000011c4   Lc    1   --   De 
     74  $t                         0x000011c8   Lc    1   --   De 
     75  $d                         0x0000123c   Lc    1   --   De 
     76  $t                         0x0000125c   Lc    1   --   De 
     77  $d                         0x000013c0   Lc    1   --   De 
     78  $t                         0x000013c8   Lc    1   --   De 
     79  $d                         0x00001454   Lc    1   --   De 
     80  $t                         0x0000145e   Lc    1   --   De 
     81  $d                         0x00001502   Lc    1   --   De 
     82  $t                         0x0000150c   Lc    1   --   De 
     83  $d                         0x0000165a   Lc    1   --   De 
     84  $t                         0x0000169c   Lc    1   --   De 
     85  $d                         0x00001706   Lc    1   --   De 
     86  $t                         0x0000170c   Lc    1   --   De 
     87  $d                         0x000017bc   Lc    1   --   De 
     88  $t                         0x000017cc   Lc    1   --   De 
     89  $d                         0x00001872   Lc    1   --   De 
     90  $t                         0x00001884   Lc    1   --   De 
     91  $d                         0x0000192e   Lc    1   --   De 
     92  $t                         0x00001938   Lc    1   --   De 
     93  $d                         0x00001ab0   Lc    1   --   De 
     94  $t                         0x00001abc   Lc    1   --   De 
     95  $d                         0x00001b42   Lc    1   --   De 
     96  $t                         0x00001b48   Lc    1   --   De 
     97  $d                         0x00001b8c   Lc    1   --   De 
     98  $t                         0x00001b90   Lc    1   --   De 
     99  $d                         0x00001bdc   Lc    1   --   De 
    100  $t                         0x00001be0   Lc    1   --   De 
    101  $d                         0x00001c00   Lc    1   --   De 
    102  $t                         0x00001c04   Lc    1   --   De 
    103  $d                         0x00001c76   Lc    1   --   De 
    104  $t                         0x00001c80   Lc    1   --   De 
    105  $d                         0x00001c96   Lc    1   --   De 
    106  $t                         0x00001c9c   Lc    1   --   De 
    107  $d                         0x00001ce6   Lc    1   --   De 
    108  $t                         0x00001cec   Lc    1   --   De 
    109  $d                         0x00001d24   Lc    1   --   De 
    110  $t                         0x00001d28   Lc    1   --   De 
    111  $d.realdata                0x00001d34   Lc    1   --   De 
    112  $d.realdata                0x10000000   Lc    2   --   De 
    113  ../src/multi_boot.c        0x00000000   Lc  Abs  File  De 
    114  i.am_gpio_isr              0x0000056c   Lc    1  Sect  De 
    115  i.am_uart_isr              0x0000169c   Lc    1  Sect  De 
    116  i.main                     0x00001938   Lc    1  Sect  De 
    117  .bss                       0x100000f0   Lc    3  Sect  De   0x2000
    118  .data                      0x10000000   Lc    2  Sect  De   0x1
    119  ../src/multi_boot_secure.c 0x00000000   Lc  Abs  File  De 
    120  i.init_multiboot_secure    0x00001884   Lc    1  Sect  De 
    121  i.multiboot_decrypt        0x00001abc   Lc    1  Sect  De 
    122  multiboot_decrypt          0x00001abd   Lc    1  Code  De   0x52
    123  i.multiboot_secure_decrypt 0x00001b10   Lc    1  Sect  De 
    124  i.multiboot_secure_verify  0x00001b48   Lc    1  Sect  De 
    125  i.validate_keyidx          0x00001c80   Lc    1  Sect  De 
    126  validate_keyidx            0x00001c81   Lc    1  Code  De   0x16
    127  i.validate_sec_trailer     0x00001c9c   Lc    1  Sect  De 
    128  validate_sec_trailer       0x00001c9d   Lc    1  Code  De   0x4a
    129  .bss                       0x100020f0   Lc    3  Sect  De   0x20
    130  g_sSecState                0x100020f0   Lc    3  Data  De   0x20
    131  .data                      0x10000004   Lc    2  Sect  De   0x24
    132  keyTbl                     0x10000008   Lc    2  Data  De   0x20
    133  ..\..\..\..\..\bootloader\am_bootloader.c
                                    0x00000000   Lc  Abs  File  De 
    134  .emb_text                  0x00000188   Lc    1  Sect  De   0x28
    135  $v0                        0x00000188   Lc    1   --   De 
    136  ../../../../../bootloader/am_bootloader.c
                                    0x00000000   Lc  Abs  File  De 
    137  i.am_bootloader_check_index
                                    0x0000036e   Lc    1  Sect  De 
    138  i.am_bootloader_erase_flash_page
                                    0x00000390   Lc    1  Sect  De 
    139  i.am_bootloader_fast_crc32 0x000003bc   Lc    1  Sect  De 
    140  i.am_bootloader_flag_page_update
                                    0x000003e8   Lc    1  Sect  De 
    141  i.am_bootloader_flash_check
                                    0x00000438   Lc    1  Sect  De 
    142  i.am_bootloader_image_run  0x000004a4   Lc    1  Sect  De 
    143  i.am_bootloader_partial_crc32
                                    0x000004bc   Lc    1  Sect  De 
    144  i.am_bootloader_program_flash_page
                                    0x000004e8   Lc    1  Sect  De 
    145  i.am_bootloader_validate_structure
                                    0x0000051c   Lc    1  Sect  De 
    146  i.am_hal_bootloader_override_check
                                    0x00000594   Lc    1  Sect  De 
    147  .constdata                 0x00001d34   Lc    1  Sect  De   0x400
    148  g_pui32CRC32Table          0x00001d34   Lc    1  Data  De   0x400
    149  ../../../../../bootloader/am_ios_boot_handlers.c
                                    0x00000000   Lc  Abs  File  De 
    150  ../../../../../bootloader/am_multi_boot.c
                                    0x00000000   Lc  Abs  File  De 
    151  i.am_multiboot_check_boot_from_flash
                                    0x000010d8   Lc    1  Sect  De 
    152  i.am_multiboot_flash_erase_page
                                    0x00001144   Lc    1  Sect  De 
    153  am_multiboot_flash_erase_page
                                    0x00001145   Lc    1  Code  De   0x1e
    154  i.am_multiboot_flash_read_page
                                    0x00001162   Lc    1  Sect  De 
    155  am_multiboot_flash_read_page
                                    0x00001163   Lc    1  Code  De   0x26
    156  i.am_multiboot_flash_write_page
                                    0x00001188   Lc    1  Sect  De 
    157  am_multiboot_flash_write_page
                                    0x00001189   Lc    1  Code  De   0x26
    158  i.am_multiboot_init        0x000011b0   Lc    1  Sect  De 
    159  i.check_flash_address_range
                                    0x000016a8   Lc    1  Sect  De 
    160  check_flash_address_range  0x000016a9   Lc    1  Code  De   0x5e
    161  i.image_data_packet_read   0x0000170c   Lc    1  Sect  De 
    162  i.image_start_packet_read  0x000017cc   Lc    1  Sect  De 
    163  i.program_image            0x00001b90   Lc    1  Sect  De 
    164  i.wipe_sram                0x00001cec   Lc    1  Sect  De 
    165  .bss                       0x10002110   Lc    3  Sect  De   0x18
    166  g_am_multiboot             0x10002110   Lc    3  Data  De   0x18
    167  .data                      0x10000028   Lc    2  Sect  De   0x60
    168  g_intFlashSize             0x10000084   Lc    2  Data  De   0x4
    169  ../../../../../bootloader/am_uart_boot_handlers.c
                                    0x00000000   Lc  Abs  File  De 
    170  i.am_multiboot_setup_serial
                                    0x000011c8   Lc    1  Sect  De 
    171  i.am_multiboot_uart_detect_baudrate
                                    0x0000125c   Lc    1  Sect  De 
    172  i.am_multiboot_uart_isr_handler
                                    0x000013c8   Lc    1  Sect  De 
    173  i.ser_out                  0x00001be0   Lc    1  Sect  De 
    174  .bss                       0x10002128   Lc    3  Sect  De   0x208
    175  .data                      0x10000088   Lc    2  Sect  De   0x45
    176  ../../../../../utils/am_util_delay.c
                                    0x00000000   Lc  Abs  File  De 
    177  ../../../../../utils/am_util_stdio.c
                                    0x00000000   Lc  Abs  File  De 
    178  ../keil/startup_keil.s     0x00000000   Lc  Abs  File  De 
    179  STACK                      0x10002390   Lc    3  Sect  De   0x1000
    180  StackMem                   0x10002390   Lc    3  Data  De 
    181  HEAP                       0x10002390   Lc    3  Sect  De 
    182  HeapMem                    0x10002390   Lc    3  Data  De 
    183  RESET                      0x00000000   Lc    1  Sect  De   0xe8
    184  $v0                        0x000000c0   Lc    1   --   De 
    185  .text                      0x000001c8   Lc    1  Sect  De   0x18
    186  $v0                        0x000001c8   Lc    1   --   De 
    187  ../am_hal_global.c         0x00000000   Lc  Abs  File  De 
    188  .data                      0x100000d0   Lc    2  Sect  De   0x4
    189  ../am_hal_clkgen.c         0x00000000   Lc  Abs  File  De 
    190  i.am_hal_clkgen_osc_stop   0x000007f8   Lc    1  Sect  De 
    191  i.am_hal_clkgen_sysclk_select
                                    0x0000080c   Lc    1  Sect  De 
    192  i.am_hal_clkgen_uarten_set 0x00000874   Lc    1  Sect  De 
    193  ../am_hal_flash.c          0x00000000   Lc  Abs  File  De 
    194  i.am_hal_flash_delay       0x00000990   Lc    1  Sect  De 
    195  i.am_hal_flash_page_erase  0x00000998   Lc    1  Sect  De 
    196  i.am_hal_flash_program_main
                                    0x000009a0   Lc    1  Sect  De 
    197  ../am_hal_gpio.c           0x00000000   Lc  Abs  File  De 
    198  i.am_hal_gpio_int_clear    0x000009f8   Lc    1  Sect  De 
    199  i.am_hal_gpio_int_disable  0x00000a1c   Lc    1  Sect  De 
    200  i.am_hal_gpio_int_enable   0x00000a50   Lc    1  Sect  De 
    201  ..\am_hal_interrupt.c      0x00000000   Lc  Abs  File  De 
    202  .emb_text                  0x000001b0   Lc    1  Sect  De   0x16
    203  $v0                        0x000001b0   Lc    1   --   De 
    204  ../am_hal_interrupt.c      0x00000000   Lc  Abs  File  De 
    205  i.am_hal_interrupt_disable 0x00000a6c   Lc    1  Sect  De 
    206  i.am_hal_interrupt_enable  0x00000ab8   Lc    1  Sect  De 
    207  ..\am_hal_ios.c            0x00000000   Lc  Abs  File  De 
    208  ../am_hal_ios.c            0x00000000   Lc  Abs  File  De 
    209  ../am_hal_mcuctrl.c        0x00000000   Lc  Abs  File  De 
    210  i.am_hal_mcuctrl_device_info_get
                                    0x00000b04   Lc    1  Sect  De 
    211  .constdata                 0x00002134   Lc    1  Sect  De   0x40
    212  ../am_hal_reset.c          0x00000000   Lc  Abs  File  De 
    213  i.am_hal_reset_poi         0x00000d58   Lc    1  Sect  De 
    214  ../am_hal_sysctrl.c        0x00000000   Lc  Abs  File  De 
    215  i.am_hal_sysctrl_sleep     0x00000d88   Lc    1  Sect  De 
    216  i.setBuckZX                0x00001c04   Lc    1  Sect  De 
    217  setBuckZX                  0x00001c05   Lc    1  Code  De   0x72
    218  .data                      0x100000d4   Lc    2  Sect  De   0x1c
    219  g_bBuckRestoreComplete     0x100000d4   Lc    2  Data  De   0x1
    220  g_ui32BuckTimer            0x100000d8   Lc    2  Data  De   0x4
    221  g_ui32BuckInputs           0x100000dc   Lc    2  Data  De   0x4
    222  g_buckZX_chk               0x100000e0   Lc    2  Data  De   0x4
    223  g_ui32SaveCoreBuckZX       0x100000e4   Lc    2  Data  De   0x4
    224  g_ui32SaveMemBuckZX        0x100000e8   Lc    2  Data  De   0x4
    225  g_ui32CoreBuck             0x100000ec   Lc    2  Data  De   0x4
    226  ../am_hal_systick.c        0x00000000   Lc  Abs  File  De 
    227  i.am_hal_systick_count     0x00000e8c   Lc    1  Sect  De 
    228  i.am_hal_systick_load      0x00000e94   Lc    1  Sect  De 
    229  i.am_hal_systick_start     0x00000ea0   Lc    1  Sect  De 
    230  i.am_hal_systick_stop      0x00000eae   Lc    1  Sect  De 
    231  ../am_hal_uart.c           0x00000000   Lc  Abs  File  De 
    232  i.am_hal_uart_char_transmit_polled
                                    0x00000ebc   Lc    1  Sect  De 
    233  i.am_hal_uart_clock_enable 0x00000ed2   Lc    1  Sect  De 
    234  i.am_hal_uart_config       0x00000ef8   Lc    1  Sect  De 
    235  i.am_hal_uart_disable      0x00000fcc   Lc    1  Sect  De 
    236  i.am_hal_uart_enable       0x00000ff6   Lc    1  Sect  De 
    237  i.am_hal_uart_fifo_config  0x0000101e   Lc    1  Sect  De 
    238  i.am_hal_uart_int_clear    0x00001034   Lc    1  Sect  De 
    239  i.am_hal_uart_int_enable   0x00001042   Lc    1  Sect  De 
    240  i.am_hal_uart_int_status_get
                                    0x00001054   Lc    1  Sect  De 
    241  i.am_hal_uart_pwrctrl_enable
                                    0x00001068   Lc    1  Sect  De 
    242  ../am_bsp.c                0x00000000   Lc  Abs  File  De 
    243  i.am_bsp_low_power_init    0x00000548   Lc    1  Sect  De 
    244  ..\am_hal_ctimer.c         0x00000000   Lc  Abs  File  De 
    245  ../am_hal_ctimer.c         0x00000000   Lc  Abs  File  De 
    246  i.am_hal_ctimer_clear      0x000008b8   Lc    1  Sect  De 
    247  i.am_hal_ctimer_period_set 0x000008e0   Lc    1  Sect  De 
    248  i.am_hal_ctimer_start      0x0000095c   Lc    1  Sect  De 
    249  ../am_hal_debug.c          0x00000000   Lc  Abs  File  De 
    250  i.am_hal_debug_error       0x0000098c   Lc    1  Sect  De 
    251  ..\am_hal_iom.c            0x00000000   Lc  Abs  File  De 
    252  ../am_hal_iom.c            0x00000000   Lc  Abs  File  De 
    253  ../am_hal_itm.c            0x00000000   Lc  Abs  File  De 
    254  ../am_hal_pwrctrl.c        0x00000000   Lc  Abs  File  De 
    255  i.am_hal_pwrctrl_bucks_disable
                                    0x00000bc4   Lc    1  Sect  De 
    256  i.am_hal_pwrctrl_bucks_enable
                                    0x00000c10   Lc    1  Sect  De 
    257  i.am_hal_pwrctrl_bucks_init
                                    0x00000c44   Lc    1  Sect  De 
    258  i.am_hal_pwrctrl_low_power_init
                                    0x00000c84   Lc    1  Sect  De 
    259  i.am_hal_pwrctrl_periph_enable
                                    0x00000c9c   Lc    1  Sect  De 
    260  ../am_hal_queue.c          0x00000000   Lc  Abs  File  De 
    261  ../am_hal_rtc.c            0x00000000   Lc  Abs  File  De 
    262  i.am_hal_rtc_osc_disable   0x00000d62   Lc    1  Sect  De 
    263  i.am_hal_rtc_osc_select    0x00000d70   Lc    1  Sect  De 
    264  ../am_hal_tpiu.c           0x00000000   Lc  Abs  File  De 
    265  ../am_hal_vcomp.c          0x00000000   Lc  Abs  File  De 
    266  i.am_hal_vcomp_disable     0x000010cc   Lc    1  Sect  De 
    267  ../am_hal_i2c_bit_bang.c   0x00000000   Lc  Abs  File  De 
    268  dc.s                       0x00000000   Lc  Abs  File  De 
    269  ../clib/longlong.s         0x00000000   Lc  Abs  File  De 
    270  .text                      0x000001e0   Lc    1  Sect  De   0x26
    271  ../clib/memcpset.s         0x00000000   Lc  Abs  File  De 
    272  .text                      0x00000206   Lc    1  Sect  De   0x8a
    273  ../clib/heapaux.c          0x00000000   Lc  Abs  File  De 
    274  .text                      0x00000290   Lc    1  Sect  De 
    275  ../clib/angel/startup.s    0x00000000   Lc  Abs  File  De 
    276  !!!main                    0x000000e8   Lc    1  Sect  De   0x8
    277  ../fplib/d2f.s             0x00000000   Lc  Abs  File  De 
    278  ../clib/angel/kernel.s     0x00000000   Lc  Abs  File  De 
    279  .ARM.Collect$$rtentry$$00000000
                                    0x00000168   Lc    1  Sect  De 
    280  ../clib/memcpset.s         0x00000000   Lc  Abs  File  De 
    281  .text                      0x00000296   Lc    1  Sect  De   0x64
    282  ../fplib/dnaninf.s         0x00000000   Lc  Abs  File  De 
    283  ../fplib/fretinf.s         0x00000000   Lc  Abs  File  De 
    284  ../fplib/usenofp.s         0x00000000   Lc  Abs  File  De 
    285  ../clib/angel/kernel.s     0x00000000   Lc  Abs  File  De 
    286  .ARM.Collect$$rtentry$$00000002
                                    0x00000168   Lc    1  Sect  De 
    287  .ARM.Collect$$rtentry$$00000009
                                    0x0000016e   Lc    1  Sect  De 
    288  .ARM.Collect$$rtentry$$0000000A
                                    0x0000016e   Lc    1  Sect  De   0x4
    289  .ARM.Collect$$rtentry$$0000000C
                                    0x00000172   Lc    1  Sect  De 
    290  .ARM.Collect$$rtentry$$0000000D
                                    0x00000172   Lc    1  Sect  De   0x8
    291  ../clib/angel/kernel.s     0x00000000   Lc  Abs  File  De 
    292  .ARM.Collect$$rtentry$$00000004
                                    0x00000168   Lc    1  Sect  De   0x6
    293  ../clib/angel/sys.s        0x00000000   Lc  Abs  File  De 
    294  .text                      0x000002fa   Lc    1  Sect  De   0x4a
    295  ../clib/stdlib.c           0x00000000   Lc  Abs  File  De 
    296  .text                      0x00000344   Lc    1  Sect  De 
    297  ../clib/angel/boardlib.s   0x00000000   Lc  Abs  File  De 
    298  ../clib/angel/boardlib.s   0x00000000   Lc  Abs  File  De 
    299  ../clib/angel/boardlib.s   0x00000000   Lc  Abs  File  De 
    300  ../clib/libinit.s          0x00000000   Lc  Abs  File  De 
    301  .ARM.Collect$$libinit$$00000000
                                    0x0000015c   Lc    1  Sect  De   0x2
    302  ../clib/angel/sys.s        0x00000000   Lc  Abs  File  De 
    303  .text                      0x00000358   Lc    1  Sect  De   0x8
    304  .bss                       0x10002330   Lc    3  Sect  De   0x60
    305  ../clib/angel/kernel.s     0x00000000   Lc  Abs  File  De 
    306  .ARM.Collect$$rtexit$$00000000
                                    0x0000017a   Lc    1  Sect  De   0x2
    307  ../clib/libinit.s          0x00000000   Lc  Abs  File  De 
    308  .ARM.Collect$$libinit$$00000001
                                    0x0000015e   Lc    1  Sect  De   0x4
    309  .ARM.Collect$$libinit$$00000004
                                    0x00000162   Lc    1  Sect  De 
    310  .ARM.Collect$$libinit$$0000000A
                                    0x00000162   Lc    1  Sect  De 
    311  .ARM.Collect$$libinit$$0000000C
                                    0x00000162   Lc    1  Sect  De 
    312  .ARM.Collect$$libinit$$0000000E
                                    0x00000162   Lc    1  Sect  De 
    313  .ARM.Collect$$libinit$$00000011
                                    0x00000162   Lc    1  Sect  De 
    314  .ARM.Collect$$libinit$$00000013
                                    0x00000162   Lc    1  Sect  De 
    315  .ARM.Collect$$libinit$$00000015
                                    0x00000162   Lc    1  Sect  De 
    316  .ARM.Collect$$libinit$$00000017
                                    0x00000162   Lc    1  Sect  De 
    317  .ARM.Collect$$libinit$$00000019
                                    0x00000162   Lc    1  Sect  De 
    318  .ARM.Collect$$libinit$$0000001B
                                    0x00000162   Lc    1  Sect  De 
    319  .ARM.Collect$$libinit$$0000001D
                                    0x00000162   Lc    1  Sect  De 
    320  .ARM.Collect$$libinit$$0000001F
                                    0x00000162   Lc    1  Sect  De 
    321  .ARM.Collect$$libinit$$00000021
                                    0x00000162   Lc    1  Sect  De 
    322  .ARM.Collect$$libinit$$00000023
                                    0x00000162   Lc    1  Sect  De 
    323  .ARM.Collect$$libinit$$00000025
                                    0x00000162   Lc    1  Sect  De 
    324  .ARM.Collect$$libinit$$0000002C
                                    0x00000162   Lc    1  Sect  De 
    325  .ARM.Collect$$libinit$$0000002E
                                    0x00000162   Lc    1  Sect  De 
    326  .ARM.Collect$$libinit$$00000030
                                    0x00000162   Lc    1  Sect  De 
    327  .ARM.Collect$$libinit$$00000032
                                    0x00000162   Lc    1  Sect  De 
    328  .ARM.Collect$$libinit$$00000033
                                    0x00000162   Lc    1  Sect  De   0x2
    329  ../clib/angel/kernel.s     0x00000000   Lc  Abs  File  De 
    330  .ARM.Collect$$rtexit$$00000002
                                    0x0000017c   Lc    1  Sect  De 
    331  .ARM.Collect$$rtexit$$00000003
                                    0x0000017c   Lc    1  Sect  De   0x4
    332  .ARM.Collect$$rtexit$$00000004
                                    0x00000180   Lc    1  Sect  De   0x6
    333  ../clib/armsys.c           0x00000000   Lc  Abs  File  De 
    334  ../clib/armsys.c           0x00000000   Lc  Abs  File  De 
    335  ../fplib/fpinit.s          0x00000000   Lc  Abs  File  De 
    336  x$fpl$fpinit               0x00001d28   Lc    1  Sect  De   0xa
    337  $v0                        0x00001d28   Lc    1   --   De 
    338  ../clib/angel/sysapp.c     0x00000000   Lc  Abs  File  De 
    339  .text                      0x00000360   Lc    1  Sect  De 
    340  ../clib/angel/boardlib.s   0x00000000   Lc  Abs  File  De 
    341  ../clib/armsys.c           0x00000000   Lc  Abs  File  De 
    342  ../clib/armsys.c           0x00000000   Lc  Abs  File  De 
    343  ../clib/libinit.s          0x00000000   Lc  Abs  File  De 
    344  .ARM.Collect$$libshutdown$$00000000
                                    0x00000164   Lc    1  Sect  De   0x2
    345  ../clib/angel/sysapp.c     0x00000000   Lc  Abs  File  De 
    346  ../clib/angel/sys.s        0x00000000   Lc  Abs  File  De 
    347  .text                      0x0000036c   Lc    1  Sect  De   0x2
    348  ../clib/angel/sys.s        0x00000000   Lc  Abs  File  De 
    349  .text                      0x0000036e   Lc    1  Sect  De 
    350  ../clib/heapalloc.c        0x00000000   Lc  Abs  File  De 
    351  ../clib/signal.c           0x00000000   Lc  Abs  File  De 
    352  ../clib/signal.c           0x00000000   Lc  Abs  File  De 
    353  ../clib/libinit.s          0x00000000   Lc  Abs  File  De 
    354  .ARM.Collect$$libshutdown$$00000002
                                    0x00000166   Lc    1  Sect  De 
    355  .ARM.Collect$$libshutdown$$00000004
                                    0x00000166   Lc    1  Sect  De 
    356  .ARM.Collect$$libshutdown$$00000007
                                    0x00000166   Lc    1  Sect  De 
    357  .ARM.Collect$$libshutdown$$0000000A
                                    0x00000166   Lc    1  Sect  De 
    358  .ARM.Collect$$libshutdown$$0000000C
                                    0x00000166   Lc    1  Sect  De 
    359  .ARM.Collect$$libshutdown$$0000000F
                                    0x00000166   Lc    1  Sect  De 
    360  .ARM.Collect$$libshutdown$$00000010
                                    0x00000166   Lc    1  Sect  De   0x2
    361  ../clib/angel/rt.s         0x00000000   Lc  Abs  File  De 
    362  ../clib/signal.c           0x00000000   Lc  Abs  File  De 
    363  ../clib/signal.c           0x00000000   Lc  Abs  File  De 
    364  ../clib/signal.c           0x00000000   Lc  Abs  File  De 
    365  ../clib/signal.c           0x00000000   Lc  Abs  File  De 
    366  ../clib/angel/sysapp.c     0x00000000   Lc  Abs  File  De 
    367  ../clib/signal.s           0x00000000   Lc  Abs  File  De 
    368  ../clib/signal.c           0x00000000   Lc  Abs  File  De 
    369  ../clib/signal.c           0x00000000   Lc  Abs  File  De 
    370  ../clib/signal.c           0x00000000   Lc  Abs  File  De 
    371  ../clib/signal.c           0x00000000   Lc  Abs  File  De 
    372  ../clib/signal.c           0x00000000   Lc  Abs  File  De 
    373  ../clib/signal.c           0x00000000   Lc  Abs  File  De 
    374  ../clib/signal.c           0x00000000   Lc  Abs  File  De 
    375  ../clib/signal.c           0x00000000   Lc  Abs  File  De 
    376  ../clib/angel/scatter.s    0x00000000   Lc  Abs  File  De 
    377  !!!scatter                 0x000000f0   Lc    1  Sect  De   0x34
    378  ../clib/angel/handlers.s   0x00000000   Lc  Abs  File  De 
    379  !!handler_copy             0x00000124   Lc    1  Sect  De   0x1a
    380  ../clib/angel/handlers.s   0x00000000   Lc  Abs  File  De 
    381  !!handler_zi               0x00000140   Lc    1  Sect  De   0x1c
    382  BuildAttributes$$THM_ISAv4$E$P$D$K$B$S$7EM$VFPi3$EXTD16$VFPS$VFMA$PE$A:L22UL41UL21$X:L11$S22US41US21$IEEE1$IW$USESV6$~STKCKD$USESV7$~SHL$OTIME$ROPI$EBA8$UX$STANDARDLIB$REQ8$EABIv2
                                    0x00000000   Gb  Abs   --   Hi 
    383  __ARM_use_no_argv          0x00000000   Gb  Abs   --   Hi 
    384  __Vectors                  0x00000000   Gb    1  Data  Hi 
    385  Reset_Handler              0x000000c1   Wk    1  Code  Hi   0x1c
    386  am_nmi_isr                 0x000000dd   Wk    1  Code  Hi   0x2
    387  am_fault_isr               0x000000df   Wk    1  Code  Hi   0x2
    388  am_memmanage_isr           0x000000e1   Wk    1  Code  Hi   0x2
    389  am_adc_isr                 0x000000e3   Wk    1  Code  Hi 
    390  am_brownout_isr            0x000000e3   Wk    1  Code  Hi 
    391  am_clkgen_isr              0x000000e3   Wk    1  Code  Hi 
    392  am_ctimer_isr              0x000000e3   Wk    1  Code  Hi 
    393  am_debugmon_isr            0x000000e3   Wk    1  Code  Hi 
    394  am_flash_isr               0x000000e3   Wk    1  Code  Hi 
    395  am_iomaster0_isr           0x000000e3   Wk    1  Code  Hi 
    396  am_iomaster1_isr           0x000000e3   Wk    1  Code  Hi 
    397  am_iomaster2_isr           0x000000e3   Wk    1  Code  Hi 
    398  am_iomaster3_isr           0x000000e3   Wk    1  Code  Hi 
    399  am_iomaster4_isr           0x000000e3   Wk    1  Code  Hi 
    400  am_iomaster5_isr           0x000000e3   Wk    1  Code  Hi 
    401  am_ioslave_acc_isr         0x000000e3   Wk    1  Code  Hi 
    402  am_ioslave_ios_isr         0x000000e3   Wk    1  Code  Hi 
    403  am_pdm0_isr                0x000000e3   Wk    1  Code  Hi 
    404  am_pendsv_isr              0x000000e3   Wk    1  Code  Hi 
    405  am_software0_isr           0x000000e3   Wk    1  Code  Hi 
    406  am_software1_isr           0x000000e3   Wk    1  Code  Hi 
    407  am_software2_isr           0x000000e3   Wk    1  Code  Hi 
    408  am_software3_isr           0x000000e3   Wk    1  Code  Hi 
    409  am_stimer_cmpr0_isr        0x000000e3   Wk    1  Code  Hi 
    410  am_stimer_cmpr1_isr        0x000000e3   Wk    1  Code  Hi 
    411  am_stimer_cmpr2_isr        0x000000e3   Wk    1  Code  Hi 
    412  am_stimer_cmpr3_isr        0x000000e3   Wk    1  Code  Hi 
    413  am_stimer_cmpr4_isr        0x000000e3   Wk    1  Code  Hi 
    414  am_stimer_cmpr5_isr        0x000000e3   Wk    1  Code  Hi 
    415  am_stimer_cmpr6_isr        0x000000e3   Wk    1  Code  Hi 
    416  am_stimer_cmpr7_isr        0x000000e3   Wk    1  Code  Hi 
    417  am_stimer_isr              0x000000e3   Wk    1  Code  Hi 
    418  am_svcall_isr              0x000000e3   Wk    1  Code  Hi 
    419  am_systick_isr             0x000000e3   Wk    1  Code  Hi 
    420  am_uart0_isr               0x000000e3   Wk    1  Code  Hi 
    421  am_uart1_isr               0x000000e3   Wk    1  Code  Hi 
    422  am_vcomp_isr               0x000000e3   Wk    1  Code  Hi 
    423  am_watchdog_isr            0x000000e3   Wk    1  Code  Hi 
    424  __main                     0x000000e9   Gb    1  Code  Hi   0x8
    425  __scatterload              0x000000f1   Gb    1  Code  Hi 
    426  __scatterload_rt2          0x000000f1   Gb    1  Code  Hi   0x2c
    427  __scatterload_rt2_thumb_only
                                    0x000000f1   Gb    1  Code  Hi 
    428  __scatterload_null         0x000000ff   Gb    1  Code  Hi 
    429  __scatterload_copy         0x00000125   Gb    1  Code  Hi   0x1a
    430  __scatterload_zeroinit     0x00000141   Gb    1  Code  Hi   0x1c
    431  __rt_lib_init              0x0000015d   Gb    1  Code  De 
    432  __rt_lib_init_fp_1         0x0000015f   Gb    1  Code  Hi 
    433  __rt_lib_init_alloca_1     0x00000163   Gb    1  Code  Hi 
    434  __rt_lib_init_argv_1       0x00000163   Gb    1  Code  Hi 
    435  __rt_lib_init_atexit_1     0x00000163   Gb    1  Code  Hi 
    436  __rt_lib_init_clock_1      0x00000163   Gb    1  Code  Hi 
    437  __rt_lib_init_cpp_1        0x00000163   Gb    1  Code  Hi 
    438  __rt_lib_init_exceptions_1 0x00000163   Gb    1  Code  Hi 
    439  __rt_lib_init_fp_trap_1    0x00000163   Gb    1  Code  Hi 
    440  __rt_lib_init_getenv_1     0x00000163   Gb    1  Code  Hi 
    441  __rt_lib_init_heap_1       0x00000163   Gb    1  Code  Hi 
    442  __rt_lib_init_lc_collate_1 0x00000163   Gb    1  Code  Hi 
    443  __rt_lib_init_lc_ctype_1   0x00000163   Gb    1  Code  Hi 
    444  __rt_lib_init_lc_monetary_1
                                    0x00000163   Gb    1  Code  Hi 
    445  __rt_lib_init_lc_numeric_1 0x00000163   Gb    1  Code  Hi 
    446  __rt_lib_init_lc_time_1    0x00000163   Gb    1  Code  Hi 
    447  __rt_lib_init_preinit_1    0x00000163   Gb    1  Code  Hi 
    448  __rt_lib_init_rand_1       0x00000163   Gb    1  Code  Hi 
    449  __rt_lib_init_return       0x00000163   Gb    1  Code  Hi 
    450  __rt_lib_init_signal_1     0x00000163   Gb    1  Code  Hi 
    451  __rt_lib_init_stdio_1      0x00000163   Gb    1  Code  Hi 
    452  __rt_lib_init_user_alloc_1 0x00000163   Gb    1  Code  Hi 
    453  __rt_lib_shutdown          0x00000165   Gb    1  Code  De 
    454  __rt_lib_shutdown_cpp_1    0x00000167   Gb    1  Code  Hi 
    455  __rt_lib_shutdown_fp_trap_1
                                    0x00000167   Gb    1  Code  Hi 
    456  __rt_lib_shutdown_heap_1   0x00000167   Gb    1  Code  Hi 
    457  __rt_lib_shutdown_return   0x00000167   Gb    1  Code  Hi 
    458  __rt_lib_shutdown_signal_1 0x00000167   Gb    1  Code  Hi 
    459  __rt_lib_shutdown_stdio_1  0x00000167   Gb    1  Code  Hi 
    460  __rt_lib_shutdown_user_alloc_1
                                    0x00000167   Gb    1  Code  Hi 
    461  __rt_entry                 0x00000169   Gb    1  Code  Hi 
    462  __rt_entry_presh_1         0x00000169   Gb    1  Code  Hi 
    463  __rt_entry_sh              0x00000169   Gb    1  Code  Hi 
    464  __rt_entry_li              0x0000016f   Gb    1  Code  Hi 
    465  __rt_entry_postsh_1        0x0000016f   Gb    1  Code  Hi 
    466  __rt_entry_main            0x00000173   Gb    1  Code  Hi 
    467  __rt_entry_postli_1        0x00000173   Gb    1  Code  Hi 
    468  __rt_exit                  0x0000017b   Gb    1  Code  De 
    469  __rt_exit_ls               0x0000017d   Gb    1  Code  Hi 
    470  __rt_exit_prels_1          0x0000017d   Gb    1  Code  Hi 
    471  __rt_exit_exit             0x00000181   Gb    1  Code  Hi 
    472  am_bootloader_encrypted_image_run
                                    0x00000189   Gb    1  Code  Hi   0x14
    473  am_bootloader_clear_image_run
                                    0x0000019d   Gb    1  Code  Hi   0x14
    474  am_hal_interrupt_master_enable
                                    0x000001b1   Gb    1  Code  Hi   0x8
    475  am_hal_interrupt_master_disable
                                    0x000001b9   Gb    1  Code  Hi   0x8
    476  am_hal_interrupt_master_set
                                    0x000001c1   Gb    1  Code  Hi   0x6
    477  __user_initial_stackheap   0x000001c9   Gb    1  Code  Hi   0xa
    478  __aeabi_llsl               0x000001e1   Gb    1  Code  Hi 
    479  _ll_shift_l                0x000001e1   Gb    1  Code  De   0x26
    480  __aeabi_memcpy             0x00000207   Gb    1  Code  Hi 
    481  __rt_memcpy                0x00000207   Gb    1  Code  De   0x8a
    482  _memcpy_lastbytes          0x0000026d   Gb    1  Code  De 
    483  __use_two_region_memory    0x00000291   Gb    1  Code  Hi   0x2
    484  __rt_heap_escrow$2region   0x00000293   Gb    1  Code  De   0x2
    485  __rt_heap_expand$2region   0x00000295   Gb    1  Code  De   0x2
    486  __aeabi_memcpy4            0x00000297   Gb    1  Code  De 
    487  __aeabi_memcpy8            0x00000297   Gb    1  Code  De 
    488  __rt_memcpy_w              0x00000297   Gb    1  Code  De   0x64
    489  _memcpy_lastbytes_aligned  0x000002df   Gb    1  Code  De 
    490  __user_setup_stackheap     0x000002fb   Gb    1  Code  De   0x4a
    491  exit                       0x00000345   Gb    1  Code  De   0x12
    492  __user_libspace            0x00000359   Wk    1  Code  De   0x8
    493  __user_perproc_libspace    0x00000359   Wk    1  Code  De 
    494  __user_perthread_libspace  0x00000359   Wk    1  Code  De 
    495  _sys_exit                  0x00000361   Gb    1  Code  De   0x8
    496  __I$use$semihosting        0x0000036d   Gb    1  Code  Hi 
    497  __use_no_semihosting_swi   0x0000036d   Gb    1  Code  Hi   0x2
    498  __semihosting_library_function
                                    0x0000036f   Gb    1  Code  Hi 
    499  am_bootloader_check_index  0x0000036f   Gb    1  Code  Hi   0x22
    500  am_bootloader_erase_flash_page
                                    0x00000391   Gb    1  Code  Hi   0x28
    501  am_bootloader_fast_crc32   0x000003bd   Gb    1  Code  Hi   0x26
    502  am_bootloader_flag_page_update
                                    0x000003e9   Gb    1  Code  Hi   0x4c
    503  am_bootloader_flash_check  0x00000439   Gb    1  Code  Hi   0x6c
    504  am_bootloader_image_run    0x000004a5   Gb    1  Code  Hi   0x18
    505  am_bootloader_partial_crc32
                                    0x000004bd   Gb    1  Code  Hi   0x28
    506  am_bootloader_program_flash_page
                                    0x000004e9   Gb    1  Code  Hi   0x30
    507  am_bootloader_validate_structure
                                    0x0000051d   Gb    1  Code  Hi   0x2c
    508  am_bsp_low_power_init      0x00000549   Gb    1  Code  Hi   0x22
    509  am_gpio_isr                0x0000056d   Gb    1  Code  Hi   0x22
    510  am_hal_bootloader_override_check
                                    0x00000595   Gb    1  Code  Hi   0x25e
    511  am_hal_clkgen_osc_stop     0x000007f9   Gb    1  Code  Hi   0x14
    512  am_hal_clkgen_sysclk_select
                                    0x0000080d   Gb    1  Code  Hi   0x20
    513  am_hal_clkgen_uarten_set   0x00000875   Gb    1  Code  Hi   0x42
    514  am_hal_ctimer_clear        0x000008b9   Gb    1  Code  Hi   0x24
    515  am_hal_ctimer_period_set   0x000008e1   Gb    1  Code  Hi   0x72
    516  am_hal_ctimer_start        0x0000095d   Gb    1  Code  Hi   0x2a
    517  am_hal_debug_error         0x0000098d   Wk    1  Code  Hi   0x2
    518  am_hal_flash_delay         0x00000991   Gb    1  Code  Hi   0x4
    519  am_hal_flash_page_erase    0x00000999   Gb    1  Code  Hi   0x4
    520  am_hal_flash_program_main  0x000009a1   Gb    1  Code  Hi   0x52
    521  am_hal_gpio_int_clear      0x000009f9   Gb    1  Code  Hi   0x20
    522  am_hal_gpio_int_disable    0x00000a1d   Gb    1  Code  Hi   0x30
    523  am_hal_gpio_int_enable     0x00000a51   Gb    1  Code  Hi   0x18
    524  am_hal_interrupt_disable   0x00000a6d   Gb    1  Code  Hi   0x46
    525  am_hal_interrupt_enable    0x00000ab9   Gb    1  Code  Hi   0x46
    526  am_hal_mcuctrl_device_info_get
                                    0x00000b05   Gb    1  Code  Hi   0xa0
    527  am_hal_pwrctrl_bucks_disable
                                    0x00000bc5   Gb    1  Code  Hi   0x44
    528  am_hal_pwrctrl_bucks_enable
                                    0x00000c11   Gb    1  Code  Hi   0x2e
    529  am_hal_pwrctrl_bucks_init  0x00000c45   Gb    1  Code  Hi   0x3c
    530  am_hal_pwrctrl_low_power_init
                                    0x00000c85   Gb    1  Code  Hi   0x14
    531  am_hal_pwrctrl_periph_enable
                                    0x00000c9d   Gb    1  Code  Hi   0x70
    532  am_hal_reset_poi           0x00000d59   Gb    1  Code  Hi   0xa
    533  am_hal_rtc_osc_disable     0x00000d63   Gb    1  Code  Hi   0xe
    534  am_hal_rtc_osc_select      0x00000d71   Gb    1  Code  Hi   0x16
    535  am_hal_sysctrl_sleep       0x00000d89   Gb    1  Code  Hi   0xf2
    536  am_hal_systick_count       0x00000e8d   Gb    1  Code  Hi   0x8
    537  am_hal_systick_load        0x00000e95   Gb    1  Code  Hi   0xc
    538  am_hal_systick_start       0x00000ea1   Gb    1  Code  Hi   0xe
    539  am_hal_systick_stop        0x00000eaf   Gb    1  Code  Hi   0xe
    540  am_hal_uart_char_transmit_polled
                                    0x00000ebd   Gb    1  Code  Hi   0x16
    541  am_hal_uart_clock_enable   0x00000ed3   Gb    1  Code  Hi   0x26
    542  am_hal_uart_config         0x00000ef9   Gb    1  Code  Hi   0x8c
    543  am_hal_uart_disable        0x00000fcd   Gb    1  Code  Hi   0x2a
    544  am_hal_uart_enable         0x00000ff7   Gb    1  Code  Hi   0x28
    545  am_hal_uart_fifo_config    0x0000101f   Gb    1  Code  Hi   0x16
    546  am_hal_uart_int_clear      0x00001035   Gb    1  Code  Hi   0xe
    547  am_hal_uart_int_enable     0x00001043   Gb    1  Code  Hi   0x12
    548  am_hal_uart_int_status_get 0x00001055   Gb    1  Code  Hi   0x14
    549  am_hal_uart_pwrctrl_enable 0x00001069   Gb    1  Code  Hi   0x20
    550  am_hal_vcomp_disable       0x000010cd   Gb    1  Code  Hi   0x8
    551  am_multiboot_check_boot_from_flash
                                    0x000010d9   Gb    1  Code  Hi   0x62
    552  am_multiboot_init          0x000011b1   Gb    1  Code  Hi   0x14
    553  am_multiboot_setup_serial  0x000011c9   Gb    1  Code  Hi   0x74
    554  am_multiboot_uart_detect_baudrate
                                    0x0000125d   Gb    1  Code  Hi   0x164
    555  am_multiboot_uart_isr_handler
                                    0x000013c9   Gb    1  Code  Hi   0x292
    556  am_uart_isr                0x0000169d   Gb    1  Code  Hi   0xa
    557  image_data_packet_read     0x0000170d   Gb    1  Code  Hi   0xb0
    558  image_start_packet_read    0x000017cd   Gb    1  Code  Hi   0xa6
    559  init_multiboot_secure      0x00001885   Gb    1  Code  Hi   0xaa
    560  main                       0x00001939   Gb    1  Code  Hi   0x178
    561  multiboot_secure_decrypt   0x00001b11   Gb    1  Code  Hi   0x32
    562  multiboot_secure_verify    0x00001b49   Gb    1  Code  Hi   0x44
    563  program_image              0x00001b91   Gb    1  Code  Hi   0x4c
    564  ser_out                    0x00001be1   Gb    1  Code  Hi   0x20
    565  wipe_sram                  0x00001ced   Gb    1  Code  Hi   0x38
    566  _fp_init                   0x00001d29   Gb    1  Code  De   0xa
    567  __fplib_config_fpu_vfp     0x00001d31   Gb    1  Code  De 
    568  __fplib_config_pureend_doubles
                                    0x00001d31   Gb    1  Code  De 
    569  g_am_hal_mcuctrl_flash_size
                                    0x00002134   Gb    1  Data  Hi   0x40
    570  Region$$Table$$Base        0x00002174   Gb    1   --   Hi 
    571  Region$$Table$$Limit       0x00002194   Gb    1   --   Hi 
    572  g_bUartConfigured          0x10000000   Gb    2  Data  Hi   0x1
    573  g_ui32KeyValid             0x10000004   Gb    2  Data  Hi   0x4
    574  g_ui32BytesReceived        0x10000028   Gb    2  Data  Hi   0x4
    575  g_ui32CRC                  0x1000002c   Gb    2  Data  Hi   0x4
    576  g_sImage                   0x10000030   Gb    2  Data  Hi   0x24
    577  g_psBootImage              0x10000054   Gb    2  Data  Hi   0x4
    578  g_intFlash                 0x10000058   Gb    2  Data  Hi   0x24
    579  g_pFlashInfo               0x1000007c   Gb    2  Data  Hi   0x4
    580  g_pTempBuf                 0x10000080   Gb    2  Data  Hi   0x4
    581  g_sUartConfig              0x10000088   Gb    2  Data  Hi   0x14
    582  ui32_serial_status         0x1000009c   Gb    2  Data  Hi   0x4
    583  cRecChar                   0x100000a0   Gb    2  Data  Hi   0x1
    584  RX_FIFO_FULL               0x100000a1   Gb    2  Data  Hi   0x1
    585  RX_FIFO_EMPTY              0x100000a2   Gb    2  Data  Hi   0x1
    586  uart_RX_cnt                0x100000a4   Gb    2  Data  Hi   0x4
    587  uart_RX_head               0x100000a8   Gb    2  Data  Hi   0x4
    588  uart_RX_tail               0x100000ac   Gb    2  Data  Hi   0x4
    589  cTxChar                    0x100000b0   Gb    2  Data  Hi   0x1
    590  TX_FIFO_FULL               0x100000b1   Gb    2  Data  Hi   0x1
    591  TX_FIFO_EMPTY              0x100000b2   Gb    2  Data  Hi   0x1
    592  uart_TX_buffer             0x100000b3   Gb    2  Data  Hi   0x8
    593  uart_TX_cnt                0x100000bb   Gb    2  Data  Hi   0x1
    594  uart_TX_head               0x100000bc   Gb    2  Data  Hi   0x1
    595  uart_TX_tail               0x100000bd   Gb    2  Data  Hi   0x1
    596  command                    0x100000c0   Gb    2  Data  Hi   0x4
    597  packet_cnt                 0x100000c4   Gb    2  Data  Hi   0x4
    598  pkt_size                   0x100000c8   Gb    2  Data  Hi   0x4
    599  g_bUartImageValid          0x100000cc   Gb    2  Data  Hi   0x1
    600  g_ui32HALflags             0x100000d0   Gb    2  Data  Hi   0x4
    601  sramTempBuf                0x100000f0   Gb    3  Data  Hi   0x2000
    602  uart_RX_buffer             0x10002128   Gb    3  Data  Hi   0x208
    603  __libspace_start           0x10002330   Gb    3  Data  De   0x60
    604  __temporary_stack_top$libspace
                                    0x10002390   Gb    3  Data  De 


** Section #12 '.strtab' (SHT_STRTAB)
    Size   : 9648 bytes

            #  Offset String
        ====================================

            1      1: $d
            2      4: $t
            3      7: $d.realdata
            4     19: ../src/multi_boot.c
            5     39: i.am_gpio_isr
            6     53: i.am_uart_isr
            7     67: i.main
            8     74: .bss
            9     79: .data
           10     85: ../src/multi_boot_secure.c
           11    112: i.init_multiboot_secure
           12    136: i.multiboot_decrypt
           13    156: multiboot_decrypt
           14    174: i.multiboot_secure_decrypt
           15    201: i.multiboot_secure_verify
           16    227: i.validate_keyidx
           17    245: validate_keyidx
           18    261: i.validate_sec_trailer
           19    284: validate_sec_trailer
           20    305: g_sSecState
           21    317: keyTbl
           22    324: ..\..\..\..\..\bootloader\am_bootloader.c
           23    366: .emb_text
           24    376: $v0
           25    380: ../../../../../bootloader/am_bootloader.c
           26    422: i.am_bootloader_check_index
           27    450: i.am_bootloader_erase_flash_page
           28    483: i.am_bootloader_fast_crc32
           29    510: i.am_bootloader_flag_page_update
           30    543: i.am_bootloader_flash_check
           31    571: i.am_bootloader_image_run
           32    597: i.am_bootloader_partial_crc32
           33    627: i.am_bootloader_program_flash_page
           34    662: i.am_bootloader_validate_structure
           35    697: i.am_hal_bootloader_override_check
           36    732: .constdata
           37    743: g_pui32CRC32Table
           38    761: ../../../../../bootloader/am_ios_boot_handlers.c
           39    810: ../../../../../bootloader/am_multi_boot.c
           40    852: i.am_multiboot_check_boot_from_flash
           41    889: i.am_multiboot_flash_erase_page
           42    921: am_multiboot_flash_erase_page
           43    951: i.am_multiboot_flash_read_page
           44    982: am_multiboot_flash_read_page
           45   1011: i.am_multiboot_flash_write_page
           46   1043: am_multiboot_flash_write_page
           47   1073: i.am_multiboot_init
           48   1093: i.check_flash_address_range
           49   1121: check_flash_address_range
           50   1147: i.image_data_packet_read
           51   1172: i.image_start_packet_read
           52   1198: i.program_image
           53   1214: i.wipe_sram
           54   1226: g_am_multiboot
           55   1241: g_intFlashSize
           56   1256: ../../../../../bootloader/am_uart_boot_handlers.c
           57   1306: i.am_multiboot_setup_serial
           58   1334: i.am_multiboot_uart_detect_baudrate
           59   1370: i.am_multiboot_uart_isr_handler
           60   1402: i.ser_out
           61   1412: ../../../../../utils/am_util_delay.c
           62   1449: ../../../../../utils/am_util_stdio.c
           63   1486: ../keil/startup_keil.s
           64   1509: STACK
           65   1515: StackMem
           66   1524: HEAP
           67   1529: HeapMem
           68   1537: RESET
           69   1543: .text
           70   1549: ../am_hal_global.c
           71   1568: ../am_hal_clkgen.c
           72   1587: i.am_hal_clkgen_osc_stop
           73   1612: i.am_hal_clkgen_sysclk_select
           74   1642: i.am_hal_clkgen_uarten_set
           75   1669: ../am_hal_flash.c
           76   1687: i.am_hal_flash_delay
           77   1708: i.am_hal_flash_page_erase
           78   1734: i.am_hal_flash_program_main
           79   1762: ../am_hal_gpio.c
           80   1779: i.am_hal_gpio_int_clear
           81   1803: i.am_hal_gpio_int_disable
           82   1829: i.am_hal_gpio_int_enable
           83   1854: ..\am_hal_interrupt.c
           84   1876: ../am_hal_interrupt.c
           85   1898: i.am_hal_interrupt_disable
           86   1925: i.am_hal_interrupt_enable
           87   1951: ..\am_hal_ios.c
           88   1967: ../am_hal_ios.c
           89   1983: ../am_hal_mcuctrl.c
           90   2003: i.am_hal_mcuctrl_device_info_get
           91   2036: ../am_hal_reset.c
           92   2054: i.am_hal_reset_poi
           93   2073: ../am_hal_sysctrl.c
           94   2093: i.am_hal_sysctrl_sleep
           95   2116: i.setBuckZX
           96   2128: setBuckZX
           97   2138: g_bBuckRestoreComplete
           98   2161: g_ui32BuckTimer
           99   2177: g_ui32BuckInputs
          100   2194: g_buckZX_chk
          101   2207: g_ui32SaveCoreBuckZX
          102   2228: g_ui32SaveMemBuckZX
          103   2248: g_ui32CoreBuck
          104   2263: ../am_hal_systick.c
          105   2283: i.am_hal_systick_count
          106   2306: i.am_hal_systick_load
          107   2328: i.am_hal_systick_start
          108   2351: i.am_hal_systick_stop
          109   2373: ../am_hal_uart.c
          110   2390: i.am_hal_uart_char_transmit_polled
          111   2425: i.am_hal_uart_clock_enable
          112   2452: i.am_hal_uart_config
          113   2473: i.am_hal_uart_disable
          114   2495: i.am_hal_uart_enable
          115   2516: i.am_hal_uart_fifo_config
          116   2542: i.am_hal_uart_int_clear
          117   2566: i.am_hal_uart_int_enable
          118   2591: i.am_hal_uart_int_status_get
          119   2620: i.am_hal_uart_pwrctrl_enable
          120   2649: ../am_bsp.c
          121   2661: i.am_bsp_low_power_init
          122   2685: ..\am_hal_ctimer.c
          123   2704: ../am_hal_ctimer.c
          124   2723: i.am_hal_ctimer_clear
          125   2745: i.am_hal_ctimer_period_set
          126   2772: i.am_hal_ctimer_start
          127   2794: ../am_hal_debug.c
          128   2812: i.am_hal_debug_error
          129   2833: ..\am_hal_iom.c
          130   2849: ../am_hal_iom.c
          131   2865: ../am_hal_itm.c
          132   2881: ../am_hal_pwrctrl.c
          133   2901: i.am_hal_pwrctrl_bucks_disable
          134   2932: i.am_hal_pwrctrl_bucks_enable
          135   2962: i.am_hal_pwrctrl_bucks_init
          136   2990: i.am_hal_pwrctrl_low_power_init
          137   3022: i.am_hal_pwrctrl_periph_enable
          138   3053: ../am_hal_queue.c
          139   3071: ../am_hal_rtc.c
          140   3087: i.am_hal_rtc_osc_disable
          141   3112: i.am_hal_rtc_osc_select
          142   3136: ../am_hal_tpiu.c
          143   3153: ../am_hal_vcomp.c
          144   3171: i.am_hal_vcomp_disable
          145   3194: ../am_hal_i2c_bit_bang.c
          146   3219: dc.s
          147   3224: ../clib/longlong.s
          148   3243: ../clib/memcpset.s
          149   3262: ../clib/heapaux.c
          150   3280: ../clib/angel/startup.s
          151   3304: !!!main
          152   3312: ../fplib/d2f.s
          153   3327: ../clib/angel/kernel.s
          154   3350: .ARM.Collect$$rtentry$$00000000
          155   3382: ../fplib/dnaninf.s
          156   3401: ../fplib/fretinf.s
          157   3420: ../fplib/usenofp.s
          158   3439: .ARM.Collect$$rtentry$$00000002
          159   3471: .ARM.Collect$$rtentry$$00000009
          160   3503: .ARM.Collect$$rtentry$$0000000A
          161   3535: .ARM.Collect$$rtentry$$0000000C
          162   3567: .ARM.Collect$$rtentry$$0000000D
          163   3599: .ARM.Collect$$rtentry$$00000004
          164   3631: ../clib/angel/sys.s
          165   3651: ../clib/stdlib.c
          166   3668: ../clib/angel/boardlib.s
          167   3693: ../clib/libinit.s
          168   3711: .ARM.Collect$$libinit$$00000000
          169   3743: .ARM.Collect$$rtexit$$00000000
          170   3774: .ARM.Collect$$libinit$$00000001
          171   3806: .ARM.Collect$$libinit$$00000004
          172   3838: .ARM.Collect$$libinit$$0000000A
          173   3870: .ARM.Collect$$libinit$$0000000C
          174   3902: .ARM.Collect$$libinit$$0000000E
          175   3934: .ARM.Collect$$libinit$$00000011
          176   3966: .ARM.Collect$$libinit$$00000013
          177   3998: .ARM.Collect$$libinit$$00000015
          178   4030: .ARM.Collect$$libinit$$00000017
          179   4062: .ARM.Collect$$libinit$$00000019
          180   4094: .ARM.Collect$$libinit$$0000001B
          181   4126: .ARM.Collect$$libinit$$0000001D
          182   4158: .ARM.Collect$$libinit$$0000001F
          183   4190: .ARM.Collect$$libinit$$00000021
          184   4222: .ARM.Collect$$libinit$$00000023
          185   4254: .ARM.Collect$$libinit$$00000025
          186   4286: .ARM.Collect$$libinit$$0000002C
          187   4318: .ARM.Collect$$libinit$$0000002E
          188   4350: .ARM.Collect$$libinit$$00000030
          189   4382: .ARM.Collect$$libinit$$00000032
          190   4414: .ARM.Collect$$libinit$$00000033
          191   4446: .ARM.Collect$$rtexit$$00000002
          192   4477: .ARM.Collect$$rtexit$$00000003
          193   4508: .ARM.Collect$$rtexit$$00000004
          194   4539: ../clib/armsys.c
          195   4556: ../fplib/fpinit.s
          196   4574: x$fpl$fpinit
          197   4587: ../clib/angel/sysapp.c
          198   4610: .ARM.Collect$$libshutdown$$00000000
          199   4646: ../clib/heapalloc.c
          200   4666: ../clib/signal.c
          201   4683: .ARM.Collect$$libshutdown$$00000002
          202   4719: .ARM.Collect$$libshutdown$$00000004
          203   4755: .ARM.Collect$$libshutdown$$00000007
          204   4791: .ARM.Collect$$libshutdown$$0000000A
          205   4827: .ARM.Collect$$libshutdown$$0000000C
          206   4863: .ARM.Collect$$libshutdown$$0000000F
          207   4899: .ARM.Collect$$libshutdown$$00000010
          208   4935: ../clib/angel/rt.s
          209   4954: ../clib/signal.s
          210   4971: ../clib/angel/scatter.s
          211   4995: !!!scatter
          212   5006: ../clib/angel/handlers.s
          213   5031: !!handler_copy
          214   5046: !!handler_zi
          215   5059: BuildAttributes$$THM_ISAv4$E$P$D$K$B$S$7EM$VFPi3$EXTD16$VFPS$VFMA$PE$A:L22UL41UL21$X:L11$S22US41US21$IEEE1$IW$USESV6$~STKCKD$USESV7$~SHL$OTIME$ROPI$EBA8$UX$STANDARDLIB$REQ8$EABIv2
          216   5239: __ARM_use_no_argv
          217   5257: __Vectors
          218   5267: Reset_Handler
          219   5281: am_nmi_isr
          220   5292: am_fault_isr
          221   5305: am_memmanage_isr
          222   5322: am_adc_isr
          223   5333: am_brownout_isr
          224   5349: am_clkgen_isr
          225   5363: am_ctimer_isr
          226   5377: am_debugmon_isr
          227   5393: am_flash_isr
          228   5406: am_iomaster0_isr
          229   5423: am_iomaster1_isr
          230   5440: am_iomaster2_isr
          231   5457: am_iomaster3_isr
          232   5474: am_iomaster4_isr
          233   5491: am_iomaster5_isr
          234   5508: am_ioslave_acc_isr
          235   5527: am_ioslave_ios_isr
          236   5546: am_pdm0_isr
          237   5558: am_pendsv_isr
          238   5572: am_software0_isr
          239   5589: am_software1_isr
          240   5606: am_software2_isr
          241   5623: am_software3_isr
          242   5640: am_stimer_cmpr0_isr
          243   5660: am_stimer_cmpr1_isr
          244   5680: am_stimer_cmpr2_isr
          245   5700: am_stimer_cmpr3_isr
          246   5720: am_stimer_cmpr4_isr
          247   5740: am_stimer_cmpr5_isr
          248   5760: am_stimer_cmpr6_isr
          249   5780: am_stimer_cmpr7_isr
          250   5800: am_stimer_isr
          251   5814: am_svcall_isr
          252   5828: am_systick_isr
          253   5843: am_uart0_isr
          254   5856: am_uart1_isr
          255   5869: am_vcomp_isr
          256   5882: am_watchdog_isr
          257   5898: __main
          258   5905: __scatterload
          259   5919: __scatterload_rt2
          260   5937: __scatterload_rt2_thumb_only
          261   5966: __scatterload_null
          262   5985: __scatterload_copy
          263   6004: __scatterload_zeroinit
          264   6027: __rt_lib_init
          265   6041: __rt_lib_init_fp_1
          266   6060: __rt_lib_init_alloca_1
          267   6083: __rt_lib_init_argv_1
          268   6104: __rt_lib_init_atexit_1
          269   6127: __rt_lib_init_clock_1
          270   6149: __rt_lib_init_cpp_1
          271   6169: __rt_lib_init_exceptions_1
          272   6196: __rt_lib_init_fp_trap_1
          273   6220: __rt_lib_init_getenv_1
          274   6243: __rt_lib_init_heap_1
          275   6264: __rt_lib_init_lc_collate_1
          276   6291: __rt_lib_init_lc_ctype_1
          277   6316: __rt_lib_init_lc_monetary_1
          278   6344: __rt_lib_init_lc_numeric_1
          279   6371: __rt_lib_init_lc_time_1
          280   6395: __rt_lib_init_preinit_1
          281   6419: __rt_lib_init_rand_1
          282   6440: __rt_lib_init_return
          283   6461: __rt_lib_init_signal_1
          284   6484: __rt_lib_init_stdio_1
          285   6506: __rt_lib_init_user_alloc_1
          286   6533: __rt_lib_shutdown
          287   6551: __rt_lib_shutdown_cpp_1
          288   6575: __rt_lib_shutdown_fp_trap_1
          289   6603: __rt_lib_shutdown_heap_1
          290   6628: __rt_lib_shutdown_return
          291   6653: __rt_lib_shutdown_signal_1
          292   6680: __rt_lib_shutdown_stdio_1
          293   6706: __rt_lib_shutdown_user_alloc_1
          294   6737: __rt_entry
          295   6748: __rt_entry_presh_1
          296   6767: __rt_entry_sh
          297   6781: __rt_entry_li
          298   6795: __rt_entry_postsh_1
          299   6815: __rt_entry_main
          300   6831: __rt_entry_postli_1
          301   6851: __rt_exit
          302   6861: __rt_exit_ls
          303   6874: __rt_exit_prels_1
          304   6892: __rt_exit_exit
          305   6907: am_bootloader_encrypted_image_run
          306   6941: am_bootloader_clear_image_run
          307   6971: am_hal_interrupt_master_enable
          308   7002: am_hal_interrupt_master_disable
          309   7034: am_hal_interrupt_master_set
          310   7062: __user_initial_stackheap
          311   7087: __aeabi_llsl
          312   7100: _ll_shift_l
          313   7112: __aeabi_memcpy
          314   7127: __rt_memcpy
          315   7139: _memcpy_lastbytes
          316   7157: __use_two_region_memory
          317   7181: __rt_heap_escrow$2region
          318   7206: __rt_heap_expand$2region
          319   7231: __aeabi_memcpy4
          320   7247: __aeabi_memcpy8
          321   7263: __rt_memcpy_w
          322   7277: _memcpy_lastbytes_aligned
          323   7303: __user_setup_stackheap
          324   7326: exit
          325   7331: __user_libspace
          326   7347: __user_perproc_libspace
          327   7371: __user_perthread_libspace
          328   7397: _sys_exit
          329   7407: __I$use$semihosting
          330   7427: __use_no_semihosting_swi
          331   7452: __semihosting_library_function
          332   7483: am_bootloader_check_index
          333   7509: am_bootloader_erase_flash_page
          334   7540: am_bootloader_fast_crc32
          335   7565: am_bootloader_flag_page_update
          336   7596: am_bootloader_flash_check
          337   7622: am_bootloader_image_run
          338   7646: am_bootloader_partial_crc32
          339   7674: am_bootloader_program_flash_page
          340   7707: am_bootloader_validate_structure
          341   7740: am_bsp_low_power_init
          342   7762: am_gpio_isr
          343   7774: am_hal_bootloader_override_check
          344   7807: am_hal_clkgen_osc_stop
          345   7830: am_hal_clkgen_sysclk_select
          346   7858: am_hal_clkgen_uarten_set
          347   7883: am_hal_ctimer_clear
          348   7903: am_hal_ctimer_period_set
          349   7928: am_hal_ctimer_start
          350   7948: am_hal_debug_error
          351   7967: am_hal_flash_delay
          352   7986: am_hal_flash_page_erase
          353   8010: am_hal_flash_program_main
          354   8036: am_hal_gpio_int_clear
          355   8058: am_hal_gpio_int_disable
          356   8082: am_hal_gpio_int_enable
          357   8105: am_hal_interrupt_disable
          358   8130: am_hal_interrupt_enable
          359   8154: am_hal_mcuctrl_device_info_get
          360   8185: am_hal_pwrctrl_bucks_disable
          361   8214: am_hal_pwrctrl_bucks_enable
          362   8242: am_hal_pwrctrl_bucks_init
          363   8268: am_hal_pwrctrl_low_power_init
          364   8298: am_hal_pwrctrl_periph_enable
          365   8327: am_hal_reset_poi
          366   8344: am_hal_rtc_osc_disable
          367   8367: am_hal_rtc_osc_select
          368   8389: am_hal_sysctrl_sleep
          369   8410: am_hal_systick_count
          370   8431: am_hal_systick_load
          371   8451: am_hal_systick_start
          372   8472: am_hal_systick_stop
          373   8492: am_hal_uart_char_transmit_polled
          374   8525: am_hal_uart_clock_enable
          375   8550: am_hal_uart_config
          376   8569: am_hal_uart_disable
          377   8589: am_hal_uart_enable
          378   8608: am_hal_uart_fifo_config
          379   8632: am_hal_uart_int_clear
          380   8654: am_hal_uart_int_enable
          381   8677: am_hal_uart_int_status_get
          382   8704: am_hal_uart_pwrctrl_enable
          383   8731: am_hal_vcomp_disable
          384   8752: am_multiboot_check_boot_from_flash
          385   8787: am_multiboot_init
          386   8805: am_multiboot_setup_serial
          387   8831: am_multiboot_uart_detect_baudrate
          388   8865: am_multiboot_uart_isr_handler
          389   8895: am_uart_isr
          390   8907: image_data_packet_read
          391   8930: image_start_packet_read
          392   8954: init_multiboot_secure
          393   8976: main
          394   8981: multiboot_secure_decrypt
          395   9006: multiboot_secure_verify
          396   9030: program_image
          397   9044: ser_out
          398   9052: wipe_sram
          399   9062: _fp_init
          400   9071: __fplib_config_fpu_vfp
          401   9094: __fplib_config_pureend_doubles
          402   9125: g_am_hal_mcuctrl_flash_size
          403   9153: Region$$Table$$Base
          404   9173: Region$$Table$$Limit
          405   9194: g_bUartConfigured
          406   9212: g_ui32KeyValid
          407   9227: g_ui32BytesReceived
          408   9247: g_ui32CRC
          409   9257: g_sImage
          410   9266: g_psBootImage
          411   9280: g_intFlash
          412   9291: g_pFlashInfo
          413   9304: g_pTempBuf
          414   9315: g_sUartConfig
          415   9329: ui32_serial_status
          416   9348: cRecChar
          417   9357: RX_FIFO_FULL
          418   9370: RX_FIFO_EMPTY
          419   9384: uart_RX_cnt
          420   9396: uart_RX_head
          421   9409: uart_RX_tail
          422   9422: cTxChar
          423   9430: TX_FIFO_FULL
          424   9443: TX_FIFO_EMPTY
          425   9457: uart_TX_buffer
          426   9472: uart_TX_cnt
          427   9484: uart_TX_head
          428   9497: uart_TX_tail
          429   9510: command
          430   9518: packet_cnt
          431   9529: pkt_size
          432   9538: g_bUartImageValid
          433   9556: g_ui32HALflags
          434   9571: sramTempBuf
          435   9583: uart_RX_buffer
          436   9598: __libspace_start
          437   9615: __temporary_stack_top$libspace
          438   9646: 
          439   9647: 


** Section #13 '.note' (SHT_NOTE)
    Size   : 28 bytes (alignment 4)


** Section #14 '.comment' (SHT_PROGBITS)
    Size   : 21304 bytes


** Section #15 '.shstrtab' (SHT_STRTAB)
    Size   : 148 bytes

            #  Offset String
        ====================================

            1      1: FLASH
            2      7: SRAM
            3     12: .debug_abbrev
            4     26: .debug_frame
            5     39: .debug_info
            6     51: .debug_line
            7     63: .debug_loc
            8     74: .debug_macinfo
            9     89: .debug_pubnames
           10    105: .symtab
           11    113: .strtab
           12    121: .note
           13    127: .comment
           14    136: .shstrtab
           15    146: 
           16    147: 


