
========================================================================

** ELF Header Information

    File Name: bin\coremark.axf

    Machine class: ELFCLASS32 (32-bit)
    Data encoding: ELFDATA2LSB (Little endian)
    Header version: EV_CURRENT (Current version)
    Operating System ABI: none
    ABI Version: 0
    File Type: ET_EXEC (Executable) (2)
    Machine: EM_ARM (ARM)

    Image Entry point: 0x000000e9
    Flags: EF_ARM_HASENTRY + EF_ARM_ABI_FLOAT_HARD (0x05000402)

    ARM ELF revision: 5 (ABI version 2)

    Conforms to Hard float procedure-call standard

    Built with
    Component: ARM Compiler 5.06 update 6 (build 750) Tool: armasm [4d35ec]
    Component: ARM Compiler 5.06 update 6 (build 750) Tool: armlink [4d35ed]

    Header size: 52 bytes (0x34)
    Program header entry size: 32 bytes (0x20)
    Section header entry size: 40 bytes (0x28)

    Program header entries: 1
    Section header entries: 16

    Program header offset: 131884 (0x0002032c)
    Section header offset: 131916 (0x0002034c)

    Section header string table index: 15

========================================================================

** Program header #0 (PT_LOAD) [PF_X + PF_W + PF_R + PF_ARM_ENTRY]
    Size : 20500 bytes (15024 bytes in file)
    Virtual address: 0x00000000 (Alignment 8)


========================================================================

** Section #1 'FLASH' (SHT_PROGBITS) [SHF_ALLOC + SHF_EXECINSTR]
    Size   : 14812 bytes (alignment 8)
    Address: 0x00000000

    $d
    RESET
    __Vectors
        0x00000000:    10001638    8...    DCD    268441144
        0x00000004:    000000c1    ....    DCD    193
        0x00000008:    000000dd    ....    DCD    221
        0x0000000c:    00000189    ....    DCD    393
        0x00000010:    00000189    ....    DCD    393
        0x00000014:    00000189    ....    DCD    393
        0x00000018:    00000189    ....    DCD    393
        0x0000001c:    00000000    ....    DCD    0
        0x00000020:    00000000    ....    DCD    0
        0x00000024:    00000000    ....    DCD    0
        0x00000028:    00000000    ....    DCD    0
        0x0000002c:    000000e3    ....    DCD    227
        0x00000030:    000000e3    ....    DCD    227
        0x00000034:    00000000    ....    DCD    0
        0x00000038:    000000e3    ....    DCD    227
        0x0000003c:    00000e31    1...    DCD    3633
        0x00000040:    000000e3    ....    DCD    227
        0x00000044:    000000e3    ....    DCD    227
        0x00000048:    000000e3    ....    DCD    227
        0x0000004c:    000000e3    ....    DCD    227
        0x00000050:    000000e3    ....    DCD    227
        0x00000054:    000000e3    ....    DCD    227
        0x00000058:    000000e3    ....    DCD    227
        0x0000005c:    000000e3    ....    DCD    227
        0x00000060:    000000e3    ....    DCD    227
        0x00000064:    000000e3    ....    DCD    227
        0x00000068:    000000e3    ....    DCD    227
        0x0000006c:    000000e3    ....    DCD    227
        0x00000070:    000000e3    ....    DCD    227
        0x00000074:    000000e3    ....    DCD    227
        0x00000078:    000000e3    ....    DCD    227
        0x0000007c:    000000e3    ....    DCD    227
        0x00000080:    000000e3    ....    DCD    227
        0x00000084:    000000e3    ....    DCD    227
        0x00000088:    000000e3    ....    DCD    227
        0x0000008c:    000000e3    ....    DCD    227
        0x00000090:    000000e3    ....    DCD    227
        0x00000094:    000000e3    ....    DCD    227
        0x00000098:    000000e3    ....    DCD    227
        0x0000009c:    000000e3    ....    DCD    227
        0x000000a0:    000000e3    ....    DCD    227
        0x000000a4:    000000e3    ....    DCD    227
        0x000000a8:    000000e3    ....    DCD    227
        0x000000ac:    000000e3    ....    DCD    227
        0x000000b0:    000000e3    ....    DCD    227
        0x000000b4:    000000e3    ....    DCD    227
        0x000000b8:    000000e3    ....    DCD    227
        0x000000bc:    000000e3    ....    DCD    227
    $t
    $v0
    Reset_Handler
        0x000000c0:    f64e5088    N..P    MOV      r0,#0xed88
        0x000000c4:    f2ce0000    ....    MOVT     r0,#0xe000
        0x000000c8:    6801        .h      LDR      r1,[r0,#0]
        0x000000ca:    f4410170    A.p.    ORR      r1,r1,#0xf00000
        0x000000ce:    6001        .`      STR      r1,[r0,#0]
        0x000000d0:    f3bf8f4f    ..O.    DSB      
        0x000000d4:    f3bf8f6f    ..o.    ISB      
        0x000000d8:    4802        .H      LDR      r0,[pc,#8] ; [0xe4] = 0xe9
        0x000000da:    4700        .G      BX       r0
    am_nmi_isr
        0x000000dc:    e7fe        ..      B        am_nmi_isr ; 0xdc
        0x000000de:    e7fe        ..      B        0xde ; am_nmi_isr + 2
    am_memmanage_isr
        0x000000e0:    e7fe        ..      B        am_memmanage_isr ; 0xe0
    am_adc_isr
    am_brownout_isr
    am_clkgen_isr
    am_ctimer_isr
    am_debugmon_isr
    am_flash_isr
    am_gpio_isr
    am_iomaster0_isr
    am_iomaster1_isr
    am_iomaster2_isr
    am_iomaster3_isr
    am_iomaster4_isr
    am_iomaster5_isr
    am_ioslave_acc_isr
    am_ioslave_ios_isr
    am_pdm0_isr
    am_pendsv_isr
    am_software0_isr
    am_software1_isr
    am_software2_isr
    am_software3_isr
    am_stimer_cmpr0_isr
    am_stimer_cmpr1_isr
    am_stimer_cmpr2_isr
    am_stimer_cmpr3_isr
    am_stimer_cmpr4_isr
    am_stimer_cmpr5_isr
    am_stimer_cmpr6_isr
    am_stimer_cmpr7_isr
    am_stimer_isr
    am_svcall_isr
    am_uart0_isr
    am_uart1_isr
    am_uart_isr
    am_vcomp_isr
    am_watchdog_isr
        0x000000e2:    e7fe        ..      B        am_adc_isr ; 0xe2
    $d
        0x000000e4:    000000e9    ....    DCD    233
    $t
    !!!main
    __main
        0x000000e8:    f000f802    ....    BL       __scatterload ; 0xf0
        0x000000ec:    f000f83c    ..<.    BL       __rt_entry ; 0x168
    !!!scatter
    __scatterload
    __scatterload_rt2
    __scatterload_rt2_thumb_only
        0x000000f0:    a00a        ..      ADR      r0,{pc}+0x2c ; 0x11c
        0x000000f2:    e8900c00    ....    LDM      r0,{r10,r11}
        0x000000f6:    4482        .D      ADD      r10,r10,r0
        0x000000f8:    4483        .D      ADD      r11,r11,r0
        0x000000fa:    f1aa0701    ....    SUB      r7,r10,#1
    __scatterload_null
        0x000000fe:    45da        .E      CMP      r10,r11
        0x00000100:    d101        ..      BNE      0x106 ; __scatterload_null + 8
        0x00000102:    f000f831    ..1.    BL       __rt_entry ; 0x168
        0x00000106:    f2af0e09    ....    ADR      lr,{pc}-7 ; 0xff
        0x0000010a:    e8ba000f    ....    LDM      r10!,{r0-r3}
        0x0000010e:    f0130f01    ....    TST      r3,#1
        0x00000112:    bf18        ..      IT       NE
        0x00000114:    1afb        ..      SUBNE    r3,r7,r3
        0x00000116:    f0430301    C...    ORR      r3,r3,#1
        0x0000011a:    4718        .G      BX       r3
    $d
        0x0000011c:    000038a0    .8..    DCD    14496
        0x00000120:    000038c0    .8..    DCD    14528
    $t
    !!handler_copy
    __scatterload_copy
        0x00000124:    3a10        .:      SUBS     r2,r2,#0x10
        0x00000126:    bf24        $.      ITT      CS
        0x00000128:    c878        x.      LDMCS    r0!,{r3-r6}
        0x0000012a:    c178        x.      STMCS    r1!,{r3-r6}
        0x0000012c:    d8fa        ..      BHI      __scatterload_copy ; 0x124
        0x0000012e:    0752        R.      LSLS     r2,r2,#29
        0x00000130:    bf24        $.      ITT      CS
        0x00000132:    c830        0.      LDMCS    r0!,{r4,r5}
        0x00000134:    c130        0.      STMCS    r1!,{r4,r5}
        0x00000136:    bf44        D.      ITT      MI
        0x00000138:    6804        .h      LDRMI    r4,[r0,#0]
        0x0000013a:    600c        .`      STRMI    r4,[r1,#0]
        0x0000013c:    4770        pG      BX       lr
        0x0000013e:    0000        ..      MOVS     r0,r0
    !!handler_zi
    __scatterload_zeroinit
        0x00000140:    2300        .#      MOVS     r3,#0
        0x00000142:    2400        .$      MOVS     r4,#0
        0x00000144:    2500        .%      MOVS     r5,#0
        0x00000146:    2600        .&      MOVS     r6,#0
        0x00000148:    3a10        .:      SUBS     r2,r2,#0x10
        0x0000014a:    bf28        (.      IT       CS
        0x0000014c:    c178        x.      STMCS    r1!,{r3-r6}
        0x0000014e:    d8fb        ..      BHI      0x148 ; __scatterload_zeroinit + 8
        0x00000150:    0752        R.      LSLS     r2,r2,#29
        0x00000152:    bf28        (.      IT       CS
        0x00000154:    c130        0.      STMCS    r1!,{r4,r5}
        0x00000156:    bf48        H.      IT       MI
        0x00000158:    600b        .`      STRMI    r3,[r1,#0]
        0x0000015a:    4770        pG      BX       lr
    .ARM.Collect$$libinit$$00000000
    __rt_lib_init
        0x0000015c:    b51f        ..      PUSH     {r0-r4,lr}
    .ARM.Collect$$libinit$$00000001
    __rt_lib_init_fp_1
        0x0000015e:    f003fb6c    ..l.    BL       _fp_init ; 0x383a
    .ARM.Collect$$libinit$$00000004
    .ARM.Collect$$libinit$$0000000A
    .ARM.Collect$$libinit$$0000000C
    .ARM.Collect$$libinit$$0000000E
    .ARM.Collect$$libinit$$00000011
    .ARM.Collect$$libinit$$00000013
    .ARM.Collect$$libinit$$00000015
    .ARM.Collect$$libinit$$00000017
    .ARM.Collect$$libinit$$00000019
    .ARM.Collect$$libinit$$0000001B
    .ARM.Collect$$libinit$$0000001D
    .ARM.Collect$$libinit$$0000001F
    .ARM.Collect$$libinit$$00000021
    .ARM.Collect$$libinit$$00000023
    .ARM.Collect$$libinit$$00000025
    .ARM.Collect$$libinit$$0000002C
    .ARM.Collect$$libinit$$0000002E
    .ARM.Collect$$libinit$$00000030
    .ARM.Collect$$libinit$$00000032
    .ARM.Collect$$libinit$$00000033
    __rt_lib_init_alloca_1
    __rt_lib_init_argv_1
    __rt_lib_init_atexit_1
    __rt_lib_init_clock_1
    __rt_lib_init_cpp_1
    __rt_lib_init_exceptions_1
    __rt_lib_init_fp_trap_1
    __rt_lib_init_getenv_1
    __rt_lib_init_heap_1
    __rt_lib_init_lc_collate_1
    __rt_lib_init_lc_ctype_1
    __rt_lib_init_lc_monetary_1
    __rt_lib_init_lc_numeric_1
    __rt_lib_init_lc_time_1
    __rt_lib_init_preinit_1
    __rt_lib_init_rand_1
    __rt_lib_init_return
    __rt_lib_init_signal_1
    __rt_lib_init_stdio_1
    __rt_lib_init_user_alloc_1
        0x00000162:    bd1f        ..      POP      {r0-r4,pc}
    .ARM.Collect$$libshutdown$$00000000
    __rt_lib_shutdown
        0x00000164:    b510        ..      PUSH     {r4,lr}
    .ARM.Collect$$libshutdown$$00000002
    .ARM.Collect$$libshutdown$$00000004
    .ARM.Collect$$libshutdown$$00000007
    .ARM.Collect$$libshutdown$$0000000A
    .ARM.Collect$$libshutdown$$0000000C
    .ARM.Collect$$libshutdown$$0000000F
    .ARM.Collect$$libshutdown$$00000010
    __rt_lib_shutdown_cpp_1
    __rt_lib_shutdown_fp_trap_1
    __rt_lib_shutdown_heap_1
    __rt_lib_shutdown_return
    __rt_lib_shutdown_signal_1
    __rt_lib_shutdown_stdio_1
    __rt_lib_shutdown_user_alloc_1
        0x00000166:    bd10        ..      POP      {r4,pc}
    .ARM.Collect$$rtentry$$00000000
    .ARM.Collect$$rtentry$$00000002
    .ARM.Collect$$rtentry$$00000004
    __rt_entry
    __rt_entry_presh_1
    __rt_entry_sh
        0x00000168:    f000f884    ....    BL       __user_setup_stackheap ; 0x274
        0x0000016c:    4611        .F      MOV      r1,r2
    .ARM.Collect$$rtentry$$00000009
    .ARM.Collect$$rtentry$$0000000A
    __rt_entry_li
    __rt_entry_postsh_1
        0x0000016e:    f7fffff5    ....    BL       __rt_lib_init ; 0x15c
    .ARM.Collect$$rtentry$$0000000C
    .ARM.Collect$$rtentry$$0000000D
    __rt_entry_main
    __rt_entry_postli_1
        0x00000172:    f001ff7d    ..}.    BL       main ; 0x2070
        0x00000176:    f000f8a2    ....    BL       exit ; 0x2be
    .ARM.Collect$$rtexit$$00000000
    __rt_exit
        0x0000017a:    b403        ..      PUSH     {r0,r1}
    .ARM.Collect$$rtexit$$00000002
    .ARM.Collect$$rtexit$$00000003
    __rt_exit_ls
    __rt_exit_prels_1
        0x0000017c:    f7fffff2    ....    BL       __rt_lib_shutdown ; 0x164
    .ARM.Collect$$rtexit$$00000004
    __rt_exit_exit
        0x00000180:    bc03        ..      POP      {r0,r1}
        0x00000182:    f000f8a9    ....    BL       _sys_exit ; 0x2d8
        0x00000186:    0000        ..      MOVS     r0,r0
    .emb_text
    $v0
    am_fault_isr
        0x00000188:    b501        ..      PUSH     {r0,lr}
        0x0000018a:    f01e0f04    ....    TST      lr,#4
        0x0000018e:    bf0a        ..      ITET     EQ
        0x00000190:    f3ef8008    ....    MRSEQ    r0,MSP
        0x00000194:    f3ef8009    ....    MRSNE    r0,PSP
        0x00000198:    f1100008    ....    ADDSEQ   r0,r0,#8
        0x0000019c:    f000fe5e    ..^.    BL       am_util_faultisr_collect_data ; 0xe5c
        0x000001a0:    bd01        ..      POP      {r0,pc}
    getStackedReg
        0x000001a2:    0080        ..      LSLS     r0,r0,#2
        0x000001a4:    1840        @.      ADDS     r0,r0,r1
        0x000001a6:    6800        .h      LDR      r0,[r0,#0]
        0x000001a8:    4770        pG      BX       lr
        0x000001aa:    0000        ..      MOVS     r0,r0
    .emb_text
    $v0
    am_hal_interrupt_master_enable
        0x000001ac:    f3ef8010    ....    MRS      r0,PRIMASK
        0x000001b0:    b662        b.      CPSIE    i
        0x000001b2:    4770        pG      BX       lr
    am_hal_interrupt_master_disable
        0x000001b4:    f3ef8010    ....    MRS      r0,PRIMASK
        0x000001b8:    b672        r.      CPSID    i
        0x000001ba:    4770        pG      BX       lr
    am_hal_interrupt_master_set
        0x000001bc:    f3808810    ....    MSR      PRIMASK,r0
        0x000001c0:    4770        pG      BX       lr
        0x000001c2:    0000        ..      MOVS     r0,r0
    .text
    $v0
    __user_initial_stackheap
        0x000001c4:    4802        .H      LDR      r0,[pc,#8] ; [0x1d0] = 0x10000638
        0x000001c6:    4903        .I      LDR      r1,[pc,#12] ; [0x1d4] = 0x10001638
        0x000001c8:    4a01        .J      LDR      r2,[pc,#4] ; [0x1d0] = 0x10000638
        0x000001ca:    4b03        .K      LDR      r3,[pc,#12] ; [0x1d8] = 0x10000638
        0x000001cc:    4770        pG      BX       lr
    $d
        0x000001ce:    0000        ..      DCW    0
        0x000001d0:    10000638    8...    DCD    268437048
        0x000001d4:    10001638    8...    DCD    268441144
        0x000001d8:    10000638    8...    DCD    268437048
    $t
    .text
    __aeabi_memclr
    __rt_memclr
        0x000001dc:    f04f0200    O...    MOV      r2,#0
    _memset
        0x000001e0:    2904        .)      CMP      r1,#4
        0x000001e2:    f0c08012    ....    BCC.W    0x20a ; _memset + 42
        0x000001e6:    f0100c03    ....    ANDS     r12,r0,#3
        0x000001ea:    f000801e    ....    BEQ.W    _memset_w ; 0x22a
        0x000001ee:    f1cc0c04    ....    RSB      r12,r12,#4
        0x000001f2:    f1bc0f02    ....    CMP      r12,#2
        0x000001f6:    bf18        ..      IT       NE
        0x000001f8:    f8002b01    ...+    STRBNE   r2,[r0],#1
        0x000001fc:    bfa8        ..      IT       GE
        0x000001fe:    f8202b02     ..+    STRHGE   r2,[r0],#2
        0x00000202:    eba1010c    ....    SUB      r1,r1,r12
        0x00000206:    f000b810    ....    B.W      _memset_w ; 0x22a
        0x0000020a:    ea5f7cc1    _..|    LSLS     r12,r1,#31
        0x0000020e:    bf24        $.      ITT      CS
        0x00000210:    f8002b01    ...+    STRBCS   r2,[r0],#1
        0x00000214:    f8002b01    ...+    STRBCS   r2,[r0],#1
        0x00000218:    bf48        H.      IT       MI
        0x0000021a:    f8002b01    ...+    STRBMI   r2,[r0],#1
        0x0000021e:    4770        pG      BX       lr
    .text
    __use_two_region_memory
        0x00000220:    4770        pG      BX       lr
    __rt_heap_escrow$2region
        0x00000222:    4770        pG      BX       lr
    __rt_heap_expand$2region
        0x00000224:    4770        pG      BX       lr
    .text
    __aeabi_memclr4
    __aeabi_memclr8
    __rt_memclr_w
        0x00000226:    f04f0200    O...    MOV      r2,#0
    _memset_w
        0x0000022a:    b500        ..      PUSH     {lr}
        0x0000022c:    4613        .F      MOV      r3,r2
        0x0000022e:    4694        .F      MOV      r12,r2
        0x00000230:    4696        .F      MOV      lr,r2
        0x00000232:    3920         9      SUBS     r1,r1,#0x20
        0x00000234:    bf22        ".      ITTT     CS
        0x00000236:    e8a0500c    ...P    STMCS    r0!,{r2,r3,r12,lr}
        0x0000023a:    e8a0500c    ...P    STMCS    r0!,{r2,r3,r12,lr}
        0x0000023e:    f1b10120    .. .    SUBSCS   r1,r1,#0x20
        0x00000242:    f4bfaff7    ....    BCS.W    0x234 ; _memset_w + 10
        0x00000246:    0709        ..      LSLS     r1,r1,#28
        0x00000248:    bf28        (.      IT       CS
        0x0000024a:    e8a0500c    ...P    STMCS    r0!,{r2,r3,r12,lr}
        0x0000024e:    bf48        H.      IT       MI
        0x00000250:    c00c        ..      STMMI    r0!,{r2,r3}
        0x00000252:    f85deb04    ]...    POP      {lr}
        0x00000256:    0089        ..      LSLS     r1,r1,#2
        0x00000258:    bf28        (.      IT       CS
        0x0000025a:    f8402b04    @..+    STRCS    r2,[r0],#4
        0x0000025e:    bf08        ..      IT       EQ
        0x00000260:    4770        pG      BXEQ     lr
        0x00000262:    bf48        H.      IT       MI
        0x00000264:    f8202b02     ..+    STRHMI   r2,[r0],#2
        0x00000268:    f0114f80    ...O    TST      r1,#0x40000000
        0x0000026c:    bf18        ..      IT       NE
        0x0000026e:    f8002b01    ...+    STRBNE   r2,[r0],#1
        0x00000272:    4770        pG      BX       lr
    .text
    __user_setup_stackheap
        0x00000274:    4675        uF      MOV      r5,lr
        0x00000276:    f000f82b    ..+.    BL       __user_libspace ; 0x2d0
        0x0000027a:    46ae        .F      MOV      lr,r5
        0x0000027c:    0005        ..      MOVS     r5,r0
        0x0000027e:    4669        iF      MOV      r1,sp
        0x00000280:    4653        SF      MOV      r3,r10
        0x00000282:    f0200007     ...    BIC      r0,r0,#7
        0x00000286:    4685        .F      MOV      sp,r0
        0x00000288:    b018        ..      ADD      sp,sp,#0x60
        0x0000028a:    b520         .      PUSH     {r5,lr}
        0x0000028c:    f7ffff9a    ....    BL       __user_initial_stackheap ; 0x1c4
        0x00000290:    e8bd4020    .. @    POP      {r5,lr}
        0x00000294:    f04f0600    O...    MOV      r6,#0
        0x00000298:    f04f0700    O...    MOV      r7,#0
        0x0000029c:    f04f0800    O...    MOV      r8,#0
        0x000002a0:    f04f0b00    O...    MOV      r11,#0
        0x000002a4:    f0210107    !...    BIC      r1,r1,#7
        0x000002a8:    46ac        .F      MOV      r12,r5
        0x000002aa:    e8ac09c0    ....    STM      r12!,{r6-r8,r11}
        0x000002ae:    e8ac09c0    ....    STM      r12!,{r6-r8,r11}
        0x000002b2:    e8ac09c0    ....    STM      r12!,{r6-r8,r11}
        0x000002b6:    e8ac09c0    ....    STM      r12!,{r6-r8,r11}
        0x000002ba:    468d        .F      MOV      sp,r1
        0x000002bc:    4770        pG      BX       lr
    .text
    exit
        0x000002be:    b510        ..      PUSH     {r4,lr}
        0x000002c0:    4604        .F      MOV      r4,r0
        0x000002c2:    f3af8000    ....    NOP.W    
        0x000002c6:    4620         F      MOV      r0,r4
        0x000002c8:    e8bd4010    ...@    POP      {r4,lr}
        0x000002cc:    f7ffbf55    ..U.    B.W      __rt_exit ; 0x17a
    .text
    __user_libspace
    __user_perproc_libspace
    __user_perthread_libspace
        0x000002d0:    4800        .H      LDR      r0,[pc,#0] ; [0x2d4] = 0x100005d4
        0x000002d2:    4770        pG      BX       lr
    $d
        0x000002d4:    100005d4    ....    DCD    268436948
    $t
    .text
    _sys_exit
        0x000002d8:    4901        .I      LDR      r1,[pc,#4] ; [0x2e0] = 0x20026
        0x000002da:    2018        .       MOVS     r0,#0x18
        0x000002dc:    beab        ..      BKPT     #0xab
        0x000002de:    e7fe        ..      B        0x2de ; _sys_exit + 6
    $d
        0x000002e0:    00020026    &...    DCD    131110
    $t
    .text
    __I$use$semihosting
    __use_no_semihosting_swi
        0x000002e4:    4770        pG      BX       lr
    i.am_bsp_low_power_init
    .text
    __semihosting_library_function
    am_bsp_low_power_init
        0x000002e6:    b510        ..      PUSH     {r4,lr}
        0x000002e8:    f000fa40    ..@.    BL       am_hal_pwrctrl_bucks_init ; 0x76c
        0x000002ec:    f000fa5e    ..^.    BL       am_hal_pwrctrl_low_power_init ; 0x7ac
        0x000002f0:    f000fd4c    ..L.    BL       am_hal_vcomp_disable ; 0xd8c
        0x000002f4:    2001        .       MOVS     r0,#1
        0x000002f6:    f000fbca    ....    BL       am_hal_rtc_osc_select ; 0xa8e
        0x000002fa:    2001        .       MOVS     r0,#1
        0x000002fc:    f000f98c    ....    BL       am_hal_clkgen_osc_stop ; 0x618
        0x00000300:    e8bd4010    ...@    POP      {r4,lr}
        0x00000304:    f000bbbc    ....    B.W      am_hal_rtc_osc_disable ; 0xa80
    i.am_bsp_uart_string_print
    am_bsp_uart_string_print
        0x00000308:    4601        .F      MOV      r1,r0
        0x0000030a:    2000        .       MOVS     r0,#0
        0x0000030c:    f000bd2a    ..*.    B.W      am_hal_uart_string_transmit_polled ; 0xd64
    i.am_devices_led_array_init
    am_devices_led_array_init
        0x00000310:    2800        .(      CMP      r0,#0
        0x00000312:    bf08        ..      IT       EQ
        0x00000314:    4770        pG      BXEQ     lr
        0x00000316:    291f        .)      CMP      r1,#0x1f
        0x00000318:    bf88        ..      IT       HI
        0x0000031a:    4770        pG      BXHI     lr
        0x0000031c:    b570        p.      PUSH     {r4-r6,lr}
        0x0000031e:    000d        ..      MOVS     r5,r1
        0x00000320:    4606        .F      MOV      r6,r0
        0x00000322:    f04f0400    O...    MOV      r4,#0
        0x00000326:    bf08        ..      IT       EQ
        0x00000328:    bd70        p.      POPEQ    {r4-r6,pc}
        0x0000032a:    bf00        ..      NOP      
        0x0000032c:    eb0600c4    ....    ADD      r0,r6,r4,LSL #3
        0x00000330:    f000f804    ....    BL       am_devices_led_init ; 0x33c
        0x00000334:    1c64        d.      ADDS     r4,r4,#1
        0x00000336:    42a5        .B      CMP      r5,r4
        0x00000338:    d8f8        ..      BHI      0x32c ; am_devices_led_array_init + 28
        0x0000033a:    bd70        p.      POP      {r4-r6,pc}
    i.am_devices_led_init
    am_devices_led_init
        0x0000033c:    2800        .(      CMP      r0,#0
        0x0000033e:    bf08        ..      IT       EQ
        0x00000340:    4770        pG      BXEQ     lr
        0x00000342:    e92d4ff8    -..O    PUSH     {r3-r11,lr}
        0x00000346:    4604        .F      MOV      r4,r0
        0x00000348:    6800        .h      LDR      r0,[r0,#0]
        0x0000034a:    2832        2(      CMP      r0,#0x32
        0x0000034c:    bf28        (.      IT       CS
        0x0000034e:    e8bd8ff8    ....    POPCS    {r3-r11,pc}
        0x00000352:    7920         y      LDRB     r0,[r4,#4]
        0x00000354:    4f63        cO      LDR      r7,[pc,#396] ; [0x4e4] = 0x40010000
        0x00000356:    f0100f02    ....    TST      r0,#2
        0x0000035a:    f04f0900    O...    MOV      r9,#0
        0x0000035e:    f04f0b73    O.s.    MOV      r11,#0x73
        0x00000362:    f04f087c    O.|.    MOV      r8,#0x7c
        0x00000366:    f04f0a07    O...    MOV      r10,#7
        0x0000036a:    f04f06ff    O...    MOV      r6,#0xff
        0x0000036e:    f04f0501    O...    MOV      r5,#1
        0x00000372:    d063        c.      BEQ      0x43c ; am_devices_led_init + 256
        0x00000374:    f7ffff1e    ....    BL       am_hal_interrupt_master_disable ; 0x1b4
        0x00000378:    9000        ..      STR      r0,[sp,#0]
        0x0000037a:    f8c7b060    ..`.    STR      r11,[r7,#0x60]
        0x0000037e:    6820         h      LDR      r0,[r4,#0]
        0x00000380:    ea080150    ..P.    AND      r1,r8,r0,LSR #1
        0x00000384:    4439        9D      ADD      r1,r1,r7
        0x00000386:    6c0a        .l      LDR      r2,[r1,#0x40]
        0x00000388:    0740        @.      LSLS     r0,r0,#29
        0x0000038a:    0ec0        ..      LSRS     r0,r0,#27
        0x0000038c:    fa0af300    ....    LSL      r3,r10,r0
        0x00000390:    439a        .C      BICS     r2,r2,r3
        0x00000392:    2302        .#      MOVS     r3,#2
        0x00000394:    fa03f000    ....    LSL      r0,r3,r0
        0x00000398:    4310        .C      ORRS     r0,r0,r2
        0x0000039a:    6408        .d      STR      r0,[r1,#0x40]
        0x0000039c:    7821        !x      LDRB     r1,[r4,#0]
        0x0000039e:    f00100fc    ....    AND      r0,r1,#0xfc
        0x000003a2:    4438        8D      ADD      r0,r0,r7
        0x000003a4:    6802        .h      LDR      r2,[r0,#0]
        0x000003a6:    0789        ..      LSLS     r1,r1,#30
        0x000003a8:    0ec9        ..      LSRS     r1,r1,#27
        0x000003aa:    fa06f301    ....    LSL      r3,r6,r1
        0x000003ae:    ea220303    "...    BIC      r3,r2,r3
        0x000003b2:    2218        ."      MOVS     r2,#0x18
        0x000003b4:    fa02f101    ....    LSL      r1,r2,r1
        0x000003b8:    4319        .C      ORRS     r1,r1,r3
        0x000003ba:    6001        .`      STR      r1,[r0,#0]
        0x000003bc:    7821        !x      LDRB     r1,[r4,#0]
        0x000003be:    f00100fc    ....    AND      r0,r1,#0xfc
        0x000003c2:    4438        8D      ADD      r0,r0,r7
        0x000003c4:    f8d020e0    ...     LDR      r2,[r0,#0xe0]
        0x000003c8:    0789        ..      LSLS     r1,r1,#30
        0x000003ca:    0ec9        ..      LSRS     r1,r1,#27
        0x000003cc:    fa06f101    ....    LSL      r1,r6,r1
        0x000003d0:    ea220101    "...    BIC      r1,r2,r1
        0x000003d4:    f8c010e0    ....    STR      r1,[r0,#0xe0]
        0x000003d8:    f8c79060    ..`.    STR      r9,[r7,#0x60]
        0x000003dc:    9800        ..      LDR      r0,[sp,#0]
        0x000003de:    f7fffeed    ....    BL       am_hal_interrupt_master_set ; 0x1bc
        0x000003e2:    6821        !h      LDR      r1,[r4,#0]
        0x000003e4:    f001001f    ....    AND      r0,r1,#0x1f
        0x000003e8:    fa05f200    ....    LSL      r2,r5,r0
        0x000003ec:    2004        .       MOVS     r0,#4
        0x000003ee:    ea0001d1    ....    AND      r1,r0,r1,LSR #3
        0x000003f2:    4439        9D      ADD      r1,r1,r7
        0x000003f4:    f8c120b4    ...     STR      r2,[r1,#0xb4]
        0x000003f8:    7921        !y      LDRB     r1,[r4,#4]
        0x000003fa:    f0110f01    ....    TST      r1,#1
        0x000003fe:    d00e        ..      BEQ      0x41e ; am_devices_led_init + 226
        0x00000400:    6821        !h      LDR      r1,[r4,#0]
        0x00000402:    ea0000d1    ....    AND      r0,r0,r1,LSR #3
        0x00000406:    f1004080    ...@    ADD      r0,r0,#0x40000000
        0x0000040a:    f001021f    ....    AND      r2,r1,#0x1f
        0x0000040e:    f5003080    ...0    ADD      r0,r0,#0x10000
        0x00000412:    fa05f202    ....    LSL      r2,r5,r2
        0x00000416:    f8c02090    ...     STR      r2,[r0,#0x90]
        0x0000041a:    e8bd8ff8    ....    POP      {r3-r11,pc}
        0x0000041e:    6821        !h      LDR      r1,[r4,#0]
        0x00000420:    ea0000d1    ....    AND      r0,r0,r1,LSR #3
        0x00000424:    f1004080    ...@    ADD      r0,r0,#0x40000000
        0x00000428:    f001021f    ....    AND      r2,r1,#0x1f
        0x0000042c:    f5003080    ...0    ADD      r0,r0,#0x10000
        0x00000430:    fa05f202    ....    LSL      r2,r5,r2
        0x00000434:    f8c02098    ...     STR      r2,[r0,#0x98]
        0x00000438:    e8bd8ff8    ....    POP      {r3-r11,pc}
        0x0000043c:    f7fffeba    ....    BL       am_hal_interrupt_master_disable ; 0x1b4
        0x00000440:    9000        ..      STR      r0,[sp,#0]
        0x00000442:    f8c7b060    ..`.    STR      r11,[r7,#0x60]
        0x00000446:    6820         h      LDR      r0,[r4,#0]
        0x00000448:    ea080150    ..P.    AND      r1,r8,r0,LSR #1
        0x0000044c:    f1014180    ...A    ADD      r1,r1,#0x40000000
        0x00000450:    f5013180    ...1    ADD      r1,r1,#0x10000
        0x00000454:    6c0a        .l      LDR      r2,[r1,#0x40]
        0x00000456:    0740        @.      LSLS     r0,r0,#29
        0x00000458:    0ec0        ..      LSRS     r0,r0,#27
        0x0000045a:    fa0af300    ....    LSL      r3,r10,r0
        0x0000045e:    439a        .C      BICS     r2,r2,r3
        0x00000460:    2306        .#      MOVS     r3,#6
        0x00000462:    fa03f000    ....    LSL      r0,r3,r0
        0x00000466:    4310        .C      ORRS     r0,r0,r2
        0x00000468:    6408        .d      STR      r0,[r1,#0x40]
        0x0000046a:    7821        !x      LDRB     r1,[r4,#0]
        0x0000046c:    f00100fc    ....    AND      r0,r1,#0xfc
        0x00000470:    f1004080    ...@    ADD      r0,r0,#0x40000000
        0x00000474:    f5003080    ...0    ADD      r0,r0,#0x10000
        0x00000478:    6802        .h      LDR      r2,[r0,#0]
        0x0000047a:    0789        ..      LSLS     r1,r1,#30
        0x0000047c:    0ec9        ..      LSRS     r1,r1,#27
        0x0000047e:    fa06f301    ....    LSL      r3,r6,r1
        0x00000482:    ea220303    "...    BIC      r3,r2,r3
        0x00000486:    2218        ."      MOVS     r2,#0x18
        0x00000488:    fa02f101    ....    LSL      r1,r2,r1
        0x0000048c:    4319        .C      ORRS     r1,r1,r3
        0x0000048e:    6001        .`      STR      r1,[r0,#0]
        0x00000490:    7821        !x      LDRB     r1,[r4,#0]
        0x00000492:    f00100fc    ....    AND      r0,r1,#0xfc
        0x00000496:    f1004080    ...@    ADD      r0,r0,#0x40000000
        0x0000049a:    f5003080    ...0    ADD      r0,r0,#0x10000
        0x0000049e:    f8d020e0    ...     LDR      r2,[r0,#0xe0]
        0x000004a2:    0789        ..      LSLS     r1,r1,#30
        0x000004a4:    0ec9        ..      LSRS     r1,r1,#27
        0x000004a6:    fa06f101    ....    LSL      r1,r6,r1
        0x000004aa:    ea220101    "...    BIC      r1,r2,r1
        0x000004ae:    f8c010e0    ....    STR      r1,[r0,#0xe0]
        0x000004b2:    f8c79060    ..`.    STR      r9,[r7,#0x60]
        0x000004b6:    9800        ..      LDR      r0,[sp,#0]
        0x000004b8:    f7fffe80    ....    BL       am_hal_interrupt_master_set ; 0x1bc
        0x000004bc:    6821        !h      LDR      r1,[r4,#0]
        0x000004be:    f001001f    ....    AND      r0,r1,#0x1f
        0x000004c2:    fa05f200    ....    LSL      r2,r5,r0
        0x000004c6:    2004        .       MOVS     r0,#4
        0x000004c8:    ea0001d1    ....    AND      r1,r0,r1,LSR #3
        0x000004cc:    f1014180    ...A    ADD      r1,r1,#0x40000000
        0x000004d0:    f5013180    ...1    ADD      r1,r1,#0x10000
        0x000004d4:    f8c120b4    ...     STR      r2,[r1,#0xb4]
        0x000004d8:    7921        !y      LDRB     r1,[r4,#4]
        0x000004da:    f0110f01    ....    TST      r1,#1
        0x000004de:    d09e        ..      BEQ      0x41e ; am_devices_led_init + 226
        0x000004e0:    e78e        ..      B        0x400 ; am_devices_led_init + 196
    $d
        0x000004e2:    0000        ..      DCW    0
        0x000004e4:    40010000    ...@    DCD    1073807360
    $t
    i.am_devices_led_on
    am_devices_led_on
        0x000004e8:    2800        .(      CMP      r0,#0
        0x000004ea:    bf18        ..      IT       NE
        0x000004ec:    291f        .)      CMPNE    r1,#0x1f
        0x000004ee:    bf3a        :.      ITTE     CC
        0x000004f0:    f8502031    P.1     LDRCC    r2,[r0,r1,LSL #3]
        0x000004f4:    2a32        2*      CMPCC    r2,#0x32
        0x000004f6:    4770        pG      BXCS     lr
        0x000004f8:    eb0000c1    ....    ADD      r0,r0,r1,LSL #3
        0x000004fc:    f04f0104    O...    MOV      r1,#4
        0x00000500:    6843        Ch      LDR      r3,[r0,#4]
        0x00000502:    f04f0001    O...    MOV      r0,#1
        0x00000506:    f0130f02    ....    TST      r3,#2
        0x0000050a:    d011        ..      BEQ      0x530 ; am_devices_led_on + 72
        0x0000050c:    f0130f01    ....    TST      r3,#1
        0x00000510:    ea0101d2    ....    AND      r1,r1,r2,LSR #3
        0x00000514:    f002031f    ....    AND      r3,r2,#0x1f
        0x00000518:    f1014180    ...A    ADD      r1,r1,#0x40000000
        0x0000051c:    fa00f003    ....    LSL      r0,r0,r3
        0x00000520:    f5013180    ...1    ADD      r1,r1,#0x10000
        0x00000524:    bf0c        ..      ITE      EQ
        0x00000526:    f8c10098    ....    STREQ    r0,[r1,#0x98]
        0x0000052a:    f8c10090    ....    STRNE    r0,[r1,#0x90]
        0x0000052e:    4770        pG      BX       lr
        0x00000530:    ea0101d2    ....    AND      r1,r1,r2,LSR #3
        0x00000534:    f1014180    ...A    ADD      r1,r1,#0x40000000
        0x00000538:    f002031f    ....    AND      r3,r2,#0x1f
        0x0000053c:    f5013180    ...1    ADD      r1,r1,#0x10000
        0x00000540:    4098        .@      LSLS     r0,r0,r3
        0x00000542:    f8c100a8    ....    STR      r0,[r1,#0xa8]
        0x00000546:    4770        pG      BX       lr
    i.am_hal_cachectrl_enable
    am_hal_cachectrl_enable
        0x00000548:    b570        p.      PUSH     {r4-r6,lr}
        0x0000054a:    4604        .F      MOV      r4,r0
        0x0000054c:    78c0        .x      LDRB     r0,[r0,#3]
        0x0000054e:    7861        ax      LDRB     r1,[r4,#1]
        0x00000550:    2202        ."      MOVS     r2,#2
        0x00000552:    ea020141    ..A.    AND      r1,r2,r1,LSL #1
        0x00000556:    4301        .C      ORRS     r1,r1,r0
        0x00000558:    78a0        .x      LDRB     r0,[r4,#2]
        0x0000055a:    2204        ."      MOVS     r2,#4
        0x0000055c:    ea020280    ....    AND      r2,r2,r0,LSL #2
        0x00000560:    f3c00040    ..@.    UBFX     r0,r0,#1,#1
        0x00000564:    ea4200c0    B...    ORR      r0,r2,r0,LSL #3
        0x00000568:    4308        .C      ORRS     r0,r0,r1
        0x0000056a:    7921        !y      LDRB     r1,[r4,#4]
        0x0000056c:    2280        ."      MOVS     r2,#0x80
        0x0000056e:    ea0211c1    ....    AND      r1,r2,r1,LSL #7
        0x00000572:    4308        .C      ORRS     r0,r0,r1
        0x00000574:    79a1        .y      LDRB     r1,[r4,#6]
        0x00000576:    00d2        ..      LSLS     r2,r2,#3
        0x00000578:    ea022181    ...!    AND      r1,r2,r1,LSL #10
        0x0000057c:    4308        .C      ORRS     r0,r0,r1
        0x0000057e:    79e1        .y      LDRB     r1,[r4,#7]
        0x00000580:    0052        R.      LSLS     r2,r2,#1
        0x00000582:    ea0221c1    ...!    AND      r1,r2,r1,LSL #11
        0x00000586:    4308        .C      ORRS     r0,r0,r1
        0x00000588:    7a21        !z      LDRB     r1,[r4,#8]
        0x0000058a:    f44f4270    O.pB    MOV      r2,#0xf000
        0x0000058e:    ea023101    ...1    AND      r1,r2,r1,LSL #12
        0x00000592:    4308        .C      ORRS     r0,r0,r1
        0x00000594:    7a61        az      LDRB     r1,[r4,#9]
        0x00000596:    0112        ..      LSLS     r2,r2,#4
        0x00000598:    ea024101    ...A    AND      r1,r2,r1,LSL #16
        0x0000059c:    4308        .C      ORRS     r0,r0,r1
        0x0000059e:    7aa1        .z      LDRB     r1,[r4,#0xa]
        0x000005a0:    f44f1280    O...    MOV      r2,#0x100000
        0x000005a4:    ea025101    ...Q    AND      r1,r2,r1,LSL #20
        0x000005a8:    4308        .C      ORRS     r0,r0,r1
        0x000005aa:    7ae1        .z      LDRB     r1,[r4,#0xb]
        0x000005ac:    0112        ..      LSLS     r2,r2,#4
        0x000005ae:    ea026101    ...a    AND      r1,r2,r1,LSL #24
        0x000005b2:    4308        .C      ORRS     r0,r0,r1
        0x000005b4:    f0400501    @...    ORR      r5,r0,#1
        0x000005b8:    f04f4020    O. @    MOV      r0,#0xa0000000
        0x000005bc:    f000f902    ....    BL       am_hal_pwrctrl_memory_enable ; 0x7c4
        0x000005c0:    4814        .H      LDR      r0,[pc,#80] ; [0x614] = 0x40018000
        0x000005c2:    6005        .`      STR      r5,[r0,#0]
        0x000005c4:    2100        .!      MOVS     r1,#0
        0x000005c6:    6882        .h      LDR      r2,[r0,#8]
        0x000005c8:    f0120f04    ....    TST      r2,#4
        0x000005cc:    bf04        ..      ITT      EQ
        0x000005ce:    6882        .h      LDREQ    r2,[r0,#8]
        0x000005d0:    f0120f04    ....    TSTEQ    r2,#4
        0x000005d4:    d102        ..      BNE      0x5dc ; am_hal_cachectrl_enable + 148
        0x000005d6:    1c89        ..      ADDS     r1,r1,#2
        0x000005d8:    2932        2)      CMP      r1,#0x32
        0x000005da:    d3f4        ..      BCC      0x5c6 ; am_hal_cachectrl_enable + 126
        0x000005dc:    6881        .h      LDR      r1,[r0,#8]
        0x000005de:    f0410101    A...    ORR      r1,r1,#1
        0x000005e2:    6081        .`      STR      r1,[r0,#8]
        0x000005e4:    2100        .!      MOVS     r1,#0
        0x000005e6:    6882        .h      LDR      r2,[r0,#8]
        0x000005e8:    f0120f04    ....    TST      r2,#4
        0x000005ec:    bf04        ..      ITT      EQ
        0x000005ee:    6882        .h      LDREQ    r2,[r0,#8]
        0x000005f0:    f0120f04    ....    TSTEQ    r2,#4
        0x000005f4:    d102        ..      BNE      0x5fc ; am_hal_cachectrl_enable + 180
        0x000005f6:    1c89        ..      ADDS     r1,r1,#2
        0x000005f8:    2932        2)      CMP      r1,#0x32
        0x000005fa:    d3f4        ..      BCC      0x5e6 ; am_hal_cachectrl_enable + 158
        0x000005fc:    7961        ay      LDRB     r1,[r4,#5]
        0x000005fe:    f44f7280    O..r    MOV      r2,#0x100
        0x00000602:    ea022201    ..."    AND      r2,r2,r1,LSL #8
        0x00000606:    f3c10140    ..@.    UBFX     r1,r1,#1,#1
        0x0000060a:    ea422141    B.A!    ORR      r1,r2,r1,LSL #9
        0x0000060e:    4329        )C      ORRS     r1,r1,r5
        0x00000610:    6001        .`      STR      r1,[r0,#0]
        0x00000612:    bd70        p.      POP      {r4-r6,pc}
    $d
        0x00000614:    40018000    ...@    DCD    1073840128
    $t
    i.am_hal_clkgen_osc_stop
    am_hal_clkgen_osc_stop
        0x00000618:    f0100f03    ....    TST      r0,#3
        0x0000061c:    bf08        ..      IT       EQ
        0x0000061e:    4770        pG      BXEQ     lr
        0x00000620:    f04f2140    O.@!    MOV      r1,#0x40004000
        0x00000624:    68ca        .h      LDR      r2,[r1,#0xc]
        0x00000626:    4310        .C      ORRS     r0,r0,r2
        0x00000628:    60c8        .`      STR      r0,[r1,#0xc]
        0x0000062a:    4770        pG      BX       lr
    i.am_hal_clkgen_sysclk_get
    am_hal_clkgen_sysclk_get
        0x0000062c:    f04f2140    O.@!    MOV      r1,#0x40004000
        0x00000630:    6989        .i      LDR      r1,[r1,#0x18]
        0x00000632:    f0110101    ....    ANDS     r1,r1,#1
        0x00000636:    bf04        ..      ITT      EQ
        0x00000638:    4802        .H      LDREQ    r0,[pc,#8] ; [0x644] = 0x2dc6c00
        0x0000063a:    4770        pG      BXEQ     lr
        0x0000063c:    2900        .)      CMP      r1,#0
        0x0000063e:    bf18        ..      IT       NE
        0x00000640:    4801        .H      LDRNE    r0,[pc,#4] ; [0x648] = 0x16e3600
        0x00000642:    4770        pG      BX       lr
    $d
        0x00000644:    02dc6c00    .l..    DCD    48000000
        0x00000648:    016e3600    .6n.    DCD    24000000
    $t
    i.am_hal_clkgen_sysclk_select
    am_hal_clkgen_sysclk_select
        0x0000064c:    b510        ..      PUSH     {r4,lr}
        0x0000064e:    0004        ..      MOVS     r4,r0
        0x00000650:    d004        ..      BEQ      0x65c ; am_hal_clkgen_sysclk_select + 16
        0x00000652:    a206        ..      ADR      r2,{pc}+0x1a ; 0x66c
        0x00000654:    2152        R!      MOVS     r1,#0x52
        0x00000656:    a013        ..      ADR      r0,{pc}+0x4e ; 0x6a4
        0x00000658:    f000f84d    ..M.    BL       am_hal_debug_error ; 0x6f6
        0x0000065c:    f04f2040    O.@     MOV      r0,#0x40004000
        0x00000660:    2147        G!      MOVS     r1,#0x47
        0x00000662:    6141        Aa      STR      r1,[r0,#0x14]
        0x00000664:    6184        .a      STR      r4,[r0,#0x18]
        0x00000666:    2100        .!      MOVS     r1,#0
        0x00000668:    6141        Aa      STR      r1,[r0,#0x14]
        0x0000066a:    bd10        ..      POP      {r4,pc}
    $d
        0x0000066c:    685f6d61    am_h    DCD    1751084385
        0x00000670:    635f6c61    al_c    DCD    1667198049
        0x00000674:    65676b6c    lkge    DCD    1701276524
        0x00000678:    79735f6e    n_sy    DCD    2037604206
        0x0000067c:    6b6c6373    sclk    DCD    1802265459
        0x00000680:    6c65735f    _sel    DCD    1818587999
        0x00000684:    28746365    ect(    DCD    678716261
        0x00000688:    69203a29    ): i    DCD    1763719721
        0x0000068c:    6c61766e    nval    DCD    1818326638
        0x00000690:    63206469    id c    DCD    1663067241
        0x00000694:    6b636f6c    lock    DCD    1801678700
        0x00000698:    74657320     set    DCD    1952805664
        0x0000069c:    676e6974    ting    DCD    1735289204
        0x000006a0:    0000002e    ....    DCD    46
        0x000006a4:    685f6d61    am_h    DCD    1751084385
        0x000006a8:    635f6c61    al_c    DCD    1667198049
        0x000006ac:    65676b6c    lkge    DCD    1701276524
        0x000006b0:    00632e6e    n.c.    DCD    6499950
    $t
    i.am_hal_clkgen_uarten_set
    am_hal_clkgen_uarten_set
        0x000006b4:    2802        .(      CMP      r0,#2
        0x000006b6:    bf28        (.      IT       CS
        0x000006b8:    4770        pG      BXCS     lr
        0x000006ba:    2903        .)      CMP      r1,#3
        0x000006bc:    bf88        ..      IT       HI
        0x000006be:    4770        pG      BXHI     lr
        0x000006c0:    b538        8.      PUSH     {r3-r5,lr}
        0x000006c2:    fb00f200    ....    MUL      r2,r0,r0
        0x000006c6:    00d2        ..      LSLS     r2,r2,#3
        0x000006c8:    fa01f402    ....    LSL      r4,r1,r2
        0x000006cc:    00c0        ..      LSLS     r0,r0,#3
        0x000006ce:    2103        .!      MOVS     r1,#3
        0x000006d0:    fa01f000    ....    LSL      r0,r1,r0
        0x000006d4:    43c5        .C      MVNS     r5,r0
        0x000006d6:    f7fffd6d    ..m.    BL       am_hal_interrupt_master_disable ; 0x1b4
        0x000006da:    9000        ..      STR      r0,[sp,#0]
        0x000006dc:    f04f2040    O.@     MOV      r0,#0x40004000
        0x000006e0:    6b41        Ak      LDR      r1,[r0,#0x34]
        0x000006e2:    4029        )@      ANDS     r1,r1,r5
        0x000006e4:    6341        Ac      STR      r1,[r0,#0x34]
        0x000006e6:    6b41        Ak      LDR      r1,[r0,#0x34]
        0x000006e8:    4321        !C      ORRS     r1,r1,r4
        0x000006ea:    6341        Ac      STR      r1,[r0,#0x34]
        0x000006ec:    9800        ..      LDR      r0,[sp,#0]
        0x000006ee:    e8bd4038    ..8@    POP      {r3-r5,lr}
        0x000006f2:    f7ffbd63    ..c.    B.W      am_hal_interrupt_master_set ; 0x1bc
    i.am_hal_debug_error
    am_hal_debug_error
        0x000006f6:    e7fe        ..      B        am_hal_debug_error ; 0x6f6
    i.am_hal_flash_delay
    am_hal_flash_delay
        0x000006f8:    4900        .I      LDR      r1,[pc,#0] ; [0x6fc] = 0x800009d
        0x000006fa:    4708        .G      BX       r1
    $d
        0x000006fc:    0800009d    ....    DCD    134217885
    $t
    i.am_hal_mcuctrl_fault_status
    am_hal_mcuctrl_fault_status
        0x00000700:    490c        .I      LDR      r1,[pc,#48] ; [0x734] = 0x40020000
        0x00000702:    f8d121cc    ...!    LDR      r2,[r1,#0x1cc]
        0x00000706:    f0020301    ....    AND      r3,r2,#1
        0x0000070a:    7003        .p      STRB     r3,[r0,#0]
        0x0000070c:    f3c20340    ..@.    UBFX     r3,r2,#1,#1
        0x00000710:    7203        .r      STRB     r3,[r0,#8]
        0x00000712:    f3c20280    ....    UBFX     r2,r2,#2,#1
        0x00000716:    7402        .t      STRB     r2,[r0,#0x10]
        0x00000718:    f8d121c4    ...!    LDR      r2,[r1,#0x1c4]
        0x0000071c:    60c2        .`      STR      r2,[r0,#0xc]
        0x0000071e:    6842        Bh      LDR      r2,[r0,#4]
        0x00000720:    f8d131c0    ...1    LDR      r3,[r1,#0x1c0]
        0x00000724:    431a        .C      ORRS     r2,r2,r3
        0x00000726:    6042        B`      STR      r2,[r0,#4]
        0x00000728:    6942        Bi      LDR      r2,[r0,#0x14]
        0x0000072a:    f8d111c8    ....    LDR      r1,[r1,#0x1c8]
        0x0000072e:    4311        .C      ORRS     r1,r1,r2
        0x00000730:    6141        Aa      STR      r1,[r0,#0x14]
        0x00000732:    4770        pG      BX       lr
    $d
        0x00000734:    40020000    ...@    DCD    1073872896
    $t
    i.am_hal_pwrctrl_bucks_enable
    am_hal_pwrctrl_bucks_enable
        0x00000738:    480b        .H      LDR      r0,[pc,#44] ; [0x768] = 0x40021000
        0x0000073a:    6841        Ah      LDR      r1,[r0,#4]
        0x0000073c:    f0110f02    ....    TST      r1,#2
        0x00000740:    bf1e        ..      ITTT     NE
        0x00000742:    6841        Ah      LDRNE    r1,[r0,#4]
        0x00000744:    f0110f01    ....    TSTNE    r1,#1
        0x00000748:    4770        pG      BXNE     lr
        0x0000074a:    6801        .h      LDR      r1,[r0,#0]
        0x0000074c:    f0410102    A...    ORR      r1,r1,#2
        0x00000750:    6001        .`      STR      r1,[r0,#0]
        0x00000752:    6801        .h      LDR      r1,[r0,#0]
        0x00000754:    f0410101    A...    ORR      r1,r1,#1
        0x00000758:    6001        .`      STR      r1,[r0,#0]
        0x0000075a:    2103        .!      MOVS     r1,#3
        0x0000075c:    6842        Bh      LDR      r2,[r0,#4]
        0x0000075e:    ea310202    1...    BICS     r2,r1,r2
        0x00000762:    d1fb        ..      BNE      0x75c ; am_hal_pwrctrl_bucks_enable + 36
        0x00000764:    4770        pG      BX       lr
    $d
        0x00000766:    0000        ..      DCW    0
        0x00000768:    40021000    ...@    DCD    1073876992
    $t
    i.am_hal_pwrctrl_bucks_init
    am_hal_pwrctrl_bucks_init
        0x0000076c:    480e        .H      LDR      r0,[pc,#56] ; [0x7a8] = 0x40021000
        0x0000076e:    6841        Ah      LDR      r1,[r0,#4]
        0x00000770:    f0110f02    ....    TST      r1,#2
        0x00000774:    f04f0103    O...    MOV      r1,#3
        0x00000778:    bf1c        ..      ITT      NE
        0x0000077a:    6842        Bh      LDRNE    r2,[r0,#4]
        0x0000077c:    f0120f01    ....    TSTNE    r2,#1
        0x00000780:    d10b        ..      BNE      0x79a ; am_hal_pwrctrl_bucks_init + 46
        0x00000782:    6802        .h      LDR      r2,[r0,#0]
        0x00000784:    f0420202    B...    ORR      r2,r2,#2
        0x00000788:    6002        .`      STR      r2,[r0,#0]
        0x0000078a:    6802        .h      LDR      r2,[r0,#0]
        0x0000078c:    f0420201    B...    ORR      r2,r2,#1
        0x00000790:    6002        .`      STR      r2,[r0,#0]
        0x00000792:    6842        Bh      LDR      r2,[r0,#4]
        0x00000794:    ea310202    1...    BICS     r2,r1,r2
        0x00000798:    d1fb        ..      BNE      0x792 ; am_hal_pwrctrl_bucks_init + 38
        0x0000079a:    6842        Bh      LDR      r2,[r0,#4]
        0x0000079c:    ea310202    1...    BICS     r2,r1,r2
        0x000007a0:    d1fb        ..      BNE      0x79a ; am_hal_pwrctrl_bucks_init + 46
        0x000007a2:    2042        B       MOVS     r0,#0x42
        0x000007a4:    f7ffbfa8    ....    B.W      am_hal_flash_delay ; 0x6f8
    $d
        0x000007a8:    40021000    ...@    DCD    1073876992
    $t
    i.am_hal_pwrctrl_low_power_init
    am_hal_pwrctrl_low_power_init
        0x000007ac:    4804        .H      LDR      r0,[pc,#16] ; [0x7c0] = 0x40021000
        0x000007ae:    6981        .i      LDR      r1,[r0,#0x18]
        0x000007b0:    f0410106    A...    ORR      r1,r1,#6
        0x000007b4:    6181        .a      STR      r1,[r0,#0x18]
        0x000007b6:    6801        .h      LDR      r1,[r0,#0]
        0x000007b8:    f0210104    !...    BIC      r1,r1,#4
        0x000007bc:    6001        .`      STR      r1,[r0,#0]
        0x000007be:    4770        pG      BX       lr
    $d
        0x000007c0:    40021000    ...@    DCD    1073876992
    $t
    i.am_hal_pwrctrl_memory_enable
    am_hal_pwrctrl_memory_enable
        0x000007c4:    b410        ..      PUSH     {r4}
        0x000007c6:    f8dfc170    ..p.    LDR      r12,[pc,#368] ; [0x938] = 0x40021000
        0x000007ca:    f5b06f00    ...o    CMP      r0,#0x800
        0x000007ce:    d051        Q.      BEQ      0x874 ; am_hal_pwrctrl_memory_enable + 176
        0x000007d0:    f5b05fc0    ..._    CMP      r0,#0x1800
        0x000007d4:    d054        T.      BEQ      0x880 ; am_hal_pwrctrl_memory_enable + 188
        0x000007d6:    2801        .(      CMP      r0,#1
        0x000007d8:    d057        W.      BEQ      0x88a ; am_hal_pwrctrl_memory_enable + 198
        0x000007da:    2803        .(      CMP      r0,#3
        0x000007dc:    d05b        [.      BEQ      0x896 ; am_hal_pwrctrl_memory_enable + 210
        0x000007de:    2807        .(      CMP      r0,#7
        0x000007e0:    d05f        _.      BEQ      0x8a2 ; am_hal_pwrctrl_memory_enable + 222
        0x000007e2:    280f        .(      CMP      r0,#0xf
        0x000007e4:    d063        c.      BEQ      0x8ae ; am_hal_pwrctrl_memory_enable + 234
        0x000007e6:    281f        .(      CMP      r0,#0x1f
        0x000007e8:    d067        g.      BEQ      0x8ba ; am_hal_pwrctrl_memory_enable + 246
        0x000007ea:    283f        ?(      CMP      r0,#0x3f
        0x000007ec:    d06b        k.      BEQ      0x8c6 ; am_hal_pwrctrl_memory_enable + 258
        0x000007ee:    287f        .(      CMP      r0,#0x7f
        0x000007f0:    d072        r.      BEQ      0x8d8 ; am_hal_pwrctrl_memory_enable + 276
        0x000007f2:    28ff        .(      CMP      r0,#0xff
        0x000007f4:    d076        v.      BEQ      0x8e4 ; am_hal_pwrctrl_memory_enable + 288
        0x000007f6:    f5a07180    ...q    SUB      r1,r0,#0x100
        0x000007fa:    39ff        .9      SUBS     r1,r1,#0xff
        0x000007fc:    d033        3.      BEQ      0x866 ; am_hal_pwrctrl_memory_enable + 162
        0x000007fe:    f5a07140    ..@q    SUB      r1,r0,#0x300
        0x00000802:    39ff        .9      SUBS     r1,r1,#0xff
        0x00000804:    d074        t.      BEQ      0x8f0 ; am_hal_pwrctrl_memory_enable + 300
        0x00000806:    4a4d        MJ      LDR      r2,[pc,#308] ; [0x93c] = 0x7ff00
        0x00000808:    ebb02122    .."!    SUBS     r1,r0,r2,ASR #8
        0x0000080c:    bf08        ..      IT       EQ
        0x0000080e:    f24071ff    @..q    MOVEQ    r1,#0x7ff
        0x00000812:    d075        u.      BEQ      0x900 ; am_hal_pwrctrl_memory_enable + 316
        0x00000814:    f1b04f20    .. O    CMP      r0,#0xa0000000
        0x00000818:    bf04        ..      ITT      EQ
        0x0000081a:    f04f4120    O. A    MOVEQ    r1,#0xa0000000
        0x0000081e:    0a8a        ..      LSREQ    r2,r1,#10
        0x00000820:    d06e        n.      BEQ      0x900 ; am_hal_pwrctrl_memory_enable + 316
        0x00000822:    f06f4120    o. A    MVN      r1,#0xa0000000
        0x00000826:    4288        .B      CMP      r0,r1
        0x00000828:    d16c        l.      BNE      0x904 ; am_hal_pwrctrl_memory_enable + 320
        0x0000082a:    2100        .!      MOVS     r1,#0
        0x0000082c:    43c3        .C      MVNS     r3,r0
        0x0000082e:    460a        .F      MOV      r2,r1
        0x00000830:    ea5f2093    _..     LSRS.W   r0,r3,#10
        0x00000834:    f8dc4010    ...@    LDR      r4,[r12,#0x10]
        0x00000838:    ea240303    $...    BIC      r3,r4,r3
        0x0000083c:    f8cc3010    ...0    STR      r3,[r12,#0x10]
        0x00000840:    b129        ).      CBZ      r1,0x84e ; am_hal_pwrctrl_memory_enable + 138
        0x00000842:    bf00        ..      NOP      
        0x00000844:    f8dc3010    ...0    LDR      r3,[r12,#0x10]
        0x00000848:    4319        .C      ORRS     r1,r1,r3
        0x0000084a:    f8cc1010    ....    STR      r1,[r12,#0x10]
        0x0000084e:    2800        .(      CMP      r0,#0
        0x00000850:    bf18        ..      IT       NE
        0x00000852:    21c7        .!      MOVNE    r1,#0xc7
        0x00000854:    d05c        \.      BEQ      0x910 ; am_hal_pwrctrl_memory_enable + 332
        0x00000856:    bf00        ..      NOP      
        0x00000858:    f8dc3014    ...0    LDR      r3,[r12,#0x14]
        0x0000085c:    4203        .B      TST      r3,r0
        0x0000085e:    d055        U.      BEQ      0x90c ; am_hal_pwrctrl_memory_enable + 328
        0x00000860:    1e49        I.      SUBS     r1,r1,#1
        0x00000862:    d1f9        ..      BNE      0x858 ; am_hal_pwrctrl_memory_enable + 148
        0x00000864:    e062        b.      B        0x92c ; am_hal_pwrctrl_memory_enable + 360
        0x00000866:    f24011ff    @...    MOV      r1,#0x1ff
        0x0000086a:    f44f63c0    O..c    MOV      r3,#0x600
        0x0000086e:    020a        ..      LSLS     r2,r1,#8
        0x00000870:    0218        ..      LSLS     r0,r3,#8
        0x00000872:    e7df        ..      B        0x834 ; am_hal_pwrctrl_memory_enable + 112
        0x00000874:    f44f6100    O..a    MOV      r1,#0x800
        0x00000878:    004b        K.      LSLS     r3,r1,#1
        0x0000087a:    2220         "      MOVS     r2,#0x20
        0x0000087c:    2040        @       MOVS     r0,#0x40
        0x0000087e:    e7d9        ..      B        0x834 ; am_hal_pwrctrl_memory_enable + 112
        0x00000880:    2260        `"      MOVS     r2,#0x60
        0x00000882:    f44f51c0    O..Q    MOV      r1,#0x1800
        0x00000886:    2000        .       MOVS     r0,#0
        0x00000888:    e7dc        ..      B        0x844 ; am_hal_pwrctrl_memory_enable + 128
        0x0000088a:    2101        .!      MOVS     r1,#1
        0x0000088c:    f24073fe    @..s    MOV      r3,#0x7fe
        0x00000890:    020a        ..      LSLS     r2,r1,#8
        0x00000892:    0218        ..      LSLS     r0,r3,#8
        0x00000894:    e7ce        ..      B        0x834 ; am_hal_pwrctrl_memory_enable + 112
        0x00000896:    2103        .!      MOVS     r1,#3
        0x00000898:    f24073fc    @..s    MOV      r3,#0x7fc
        0x0000089c:    020a        ..      LSLS     r2,r1,#8
        0x0000089e:    0218        ..      LSLS     r0,r3,#8
        0x000008a0:    e7c8        ..      B        0x834 ; am_hal_pwrctrl_memory_enable + 112
        0x000008a2:    2107        .!      MOVS     r1,#7
        0x000008a4:    f44f63ff    O..c    MOV      r3,#0x7f8
        0x000008a8:    020a        ..      LSLS     r2,r1,#8
        0x000008aa:    0218        ..      LSLS     r0,r3,#8
        0x000008ac:    e7c2        ..      B        0x834 ; am_hal_pwrctrl_memory_enable + 112
        0x000008ae:    210f        .!      MOVS     r1,#0xf
        0x000008b0:    f44f63fe    O..c    MOV      r3,#0x7f0
        0x000008b4:    020a        ..      LSLS     r2,r1,#8
        0x000008b6:    0218        ..      LSLS     r0,r3,#8
        0x000008b8:    e7bc        ..      B        0x834 ; am_hal_pwrctrl_memory_enable + 112
        0x000008ba:    211f        .!      MOVS     r1,#0x1f
        0x000008bc:    f44f63fc    O..c    MOV      r3,#0x7e0
        0x000008c0:    020a        ..      LSLS     r2,r1,#8
        0x000008c2:    0218        ..      LSLS     r0,r3,#8
        0x000008c4:    e7b6        ..      B        0x834 ; am_hal_pwrctrl_memory_enable + 112
        0x000008c6:    213f        ?!      MOVS     r1,#0x3f
        0x000008c8:    f44f63f8    O..c    MOV      r3,#0x7c0
        0x000008cc:    020a        ..      LSLS     r2,r1,#8
        0x000008ce:    0218        ..      LSLS     r0,r3,#8
        0x000008d0:    e7b0        ..      B        0x834 ; am_hal_pwrctrl_memory_enable + 112
        0x000008d2:    e001        ..      B        0x8d8 ; am_hal_pwrctrl_memory_enable + 276
        0x000008d4:    e006        ..      B        0x8e4 ; am_hal_pwrctrl_memory_enable + 288
        0x000008d6:    e00b        ..      B        0x8f0 ; am_hal_pwrctrl_memory_enable + 300
        0x000008d8:    217f        .!      MOVS     r1,#0x7f
        0x000008da:    f44f63f0    O..c    MOV      r3,#0x780
        0x000008de:    020a        ..      LSLS     r2,r1,#8
        0x000008e0:    0218        ..      LSLS     r0,r3,#8
        0x000008e2:    e7a7        ..      B        0x834 ; am_hal_pwrctrl_memory_enable + 112
        0x000008e4:    21ff        .!      MOVS     r1,#0xff
        0x000008e6:    f44f63e0    O..c    MOV      r3,#0x700
        0x000008ea:    020a        ..      LSLS     r2,r1,#8
        0x000008ec:    0218        ..      LSLS     r0,r3,#8
        0x000008ee:    e7a1        ..      B        0x834 ; am_hal_pwrctrl_memory_enable + 112
        0x000008f0:    f24031ff    @..1    MOV      r1,#0x3ff
        0x000008f4:    1c4b        K.      ADDS     r3,r1,#1
        0x000008f6:    020a        ..      LSLS     r2,r1,#8
        0x000008f8:    0218        ..      LSLS     r0,r3,#8
        0x000008fa:    e79b        ..      B        0x834 ; am_hal_pwrctrl_memory_enable + 112
        0x000008fc:    e000        ..      B        0x900 ; am_hal_pwrctrl_memory_enable + 316
        0x000008fe:    e001        ..      B        0x904 ; am_hal_pwrctrl_memory_enable + 320
        0x00000900:    2000        .       MOVS     r0,#0
        0x00000902:    e79f        ..      B        0x844 ; am_hal_pwrctrl_memory_enable + 128
        0x00000904:    490e        .I      LDR      r1,[pc,#56] ; [0x940] = 0xa0001fff
        0x00000906:    4288        .B      CMP      r0,r1
        0x00000908:    d0fa        ..      BEQ      0x900 ; am_hal_pwrctrl_memory_enable + 316
        0x0000090a:    e00f        ..      B        0x92c ; am_hal_pwrctrl_memory_enable + 360
        0x0000090c:    2900        .)      CMP      r1,#0
        0x0000090e:    dd0d        ..      BLE      0x92c ; am_hal_pwrctrl_memory_enable + 360
        0x00000910:    2a00        .*      CMP      r2,#0
        0x00000912:    bf18        ..      IT       NE
        0x00000914:    20c7        .       MOVNE    r0,#0xc7
        0x00000916:    d00c        ..      BEQ      0x932 ; am_hal_pwrctrl_memory_enable + 366
        0x00000918:    f8dc1014    ....    LDR      r1,[r12,#0x14]
        0x0000091c:    ea320101    2...    BICS     r1,r2,r1
        0x00000920:    d002        ..      BEQ      0x928 ; am_hal_pwrctrl_memory_enable + 356
        0x00000922:    1e40        @.      SUBS     r0,r0,#1
        0x00000924:    d1f8        ..      BNE      0x918 ; am_hal_pwrctrl_memory_enable + 340
        0x00000926:    e001        ..      B        0x92c ; am_hal_pwrctrl_memory_enable + 360
        0x00000928:    2800        .(      CMP      r0,#0
        0x0000092a:    dc02        ..      BGT      0x932 ; am_hal_pwrctrl_memory_enable + 366
        0x0000092c:    bc10        ..      POP      {r4}
        0x0000092e:    2000        .       MOVS     r0,#0
        0x00000930:    4770        pG      BX       lr
        0x00000932:    bc10        ..      POP      {r4}
        0x00000934:    2001        .       MOVS     r0,#1
        0x00000936:    4770        pG      BX       lr
    $d
        0x00000938:    40021000    ...@    DCD    1073876992
        0x0000093c:    0007ff00    ....    DCD    524032
        0x00000940:    a0001fff    ....    DCD    2684362751
    $t
    i.am_hal_pwrctrl_periph_disable
    am_hal_pwrctrl_periph_disable
        0x00000944:    b538        8.      PUSH     {r3-r5,lr}
        0x00000946:    0004        ..      MOVS     r4,r0
        0x00000948:    d002        ..      BEQ      0x950 ; am_hal_pwrctrl_periph_disable + 12
        0x0000094a:    1e60        `.      SUBS     r0,r4,#1
        0x0000094c:    4204        .B      TST      r4,r0
        0x0000094e:    d004        ..      BEQ      0x95a ; am_hal_pwrctrl_periph_disable + 22
        0x00000950:    a209        ..      ADR      r2,{pc}+0x28 ; 0x978
        0x00000952:    218f        .!      MOVS     r1,#0x8f
        0x00000954:    a015        ..      ADR      r0,{pc}+0x58 ; 0x9ac
        0x00000956:    f7fffece    ....    BL       am_hal_debug_error ; 0x6f6
        0x0000095a:    f7fffc2b    ..+.    BL       am_hal_interrupt_master_disable ; 0x1b4
        0x0000095e:    9000        ..      STR      r0,[sp,#0]
        0x00000960:    4817        .H      LDR      r0,[pc,#92] ; [0x9c0] = 0x40021000
        0x00000962:    6881        .h      LDR      r1,[r0,#8]
        0x00000964:    43a1        .C      BICS     r1,r1,r4
        0x00000966:    6081        .`      STR      r1,[r0,#8]
        0x00000968:    9800        ..      LDR      r0,[sp,#0]
        0x0000096a:    f7fffc27    ..'.    BL       am_hal_interrupt_master_set ; 0x1bc
        0x0000096e:    e8bd4038    ..8@    POP      {r3-r5,lr}
        0x00000972:    200e        .       MOVS     r0,#0xe
        0x00000974:    f7ffbec0    ....    B.W      am_hal_flash_delay ; 0x6f8
    $d
        0x00000978:    6e6e6143    Cann    DCD    1852727619
        0x0000097c:    6520746f    ot e    DCD    1696625775
        0x00000980:    6c62616e    nabl    DCD    1818386798
        0x00000984:    6f6d2065    e mo    DCD    1869422693
        0x00000988:    74206572    re t    DCD    1948280178
        0x0000098c:    206e6168    han     DCD    544104808
        0x00000990:    20656e6f    one     DCD    543518319
        0x00000994:    69726570    peri    DCD    1769104752
        0x00000998:    72656870    pher    DCD    1919248496
        0x0000099c:    61206c61    al a    DCD    1629514849
        0x000009a0:    20612074    t a     DCD    543236212
        0x000009a4:    656d6974    time    DCD    1701669236
        0x000009a8:    0000002e    ....    DCD    46
        0x000009ac:    685f6d61    am_h    DCD    1751084385
        0x000009b0:    705f6c61    al_p    DCD    1885301857
        0x000009b4:    74637277    wrct    DCD    1952674423
        0x000009b8:    632e6c72    rl.c    DCD    1663986802
        0x000009bc:    00000000    ....    DCD    0
        0x000009c0:    40021000    ...@    DCD    1073876992
    $t
    i.am_hal_pwrctrl_periph_enable
    am_hal_pwrctrl_periph_enable
        0x000009c4:    b538        8.      PUSH     {r3-r5,lr}
        0x000009c6:    0004        ..      MOVS     r4,r0
        0x000009c8:    d002        ..      BEQ      0x9d0 ; am_hal_pwrctrl_periph_enable + 12
        0x000009ca:    1e60        `.      SUBS     r0,r4,#1
        0x000009cc:    4204        .B      TST      r4,r0
        0x000009ce:    d004        ..      BEQ      0x9da ; am_hal_pwrctrl_periph_enable + 22
        0x000009d0:    a218        ..      ADR      r2,{pc}+0x64 ; 0xa34
        0x000009d2:    215f        _!      MOVS     r1,#0x5f
        0x000009d4:    a024        $.      ADR      r0,{pc}+0x94 ; 0xa68
        0x000009d6:    f7fffe8e    ....    BL       am_hal_debug_error ; 0x6f6
        0x000009da:    f7fffbeb    ....    BL       am_hal_interrupt_master_disable ; 0x1b4
        0x000009de:    4d27        'M      LDR      r5,[pc,#156] ; [0xa7c] = 0x40021000
        0x000009e0:    9000        ..      STR      r0,[sp,#0]
        0x000009e2:    68a8        .h      LDR      r0,[r5,#8]
        0x000009e4:    4320         C      ORRS     r0,r0,r4
        0x000009e6:    60a8        .`      STR      r0,[r5,#8]
        0x000009e8:    9800        ..      LDR      r0,[sp,#0]
        0x000009ea:    f7fffbe7    ....    BL       am_hal_interrupt_master_set ; 0x1bc
        0x000009ee:    200e        .       MOVS     r0,#0xe
        0x000009f0:    f7fffe82    ....    BL       am_hal_flash_delay ; 0x6f8
        0x000009f4:    f0140f0e    ....    TST      r4,#0xe
        0x000009f8:    bf18        ..      IT       NE
        0x000009fa:    2004        .       MOVNE    r0,#4
        0x000009fc:    d003        ..      BEQ      0xa06 ; am_hal_pwrctrl_periph_enable + 66
        0x000009fe:    6969        ii      LDR      r1,[r5,#0x14]
        0x00000a00:    4201        .B      TST      r1,r0
        0x00000a02:    d0fc        ..      BEQ      0x9fe ; am_hal_pwrctrl_periph_enable + 58
        0x00000a04:    bd38        8.      POP      {r3-r5,pc}
        0x00000a06:    f0140f70    ..p.    TST      r4,#0x70
        0x00000a0a:    bf18        ..      IT       NE
        0x00000a0c:    2008        .       MOVNE    r0,#8
        0x00000a0e:    d1f6        ..      BNE      0x9fe ; am_hal_pwrctrl_periph_enable + 58
        0x00000a10:    f2401081    @...    MOV      r0,#0x181
        0x00000a14:    4204        .B      TST      r4,r0
        0x00000a16:    bf18        ..      IT       NE
        0x00000a18:    2002        .       MOVNE    r0,#2
        0x00000a1a:    d1f0        ..      BNE      0x9fe ; am_hal_pwrctrl_periph_enable + 58
        0x00000a1c:    f4147f00    ....    TST      r4,#0x200
        0x00000a20:    bf18        ..      IT       NE
        0x00000a22:    2080        .       MOVNE    r0,#0x80
        0x00000a24:    d1eb        ..      BNE      0x9fe ; am_hal_pwrctrl_periph_enable + 58
        0x00000a26:    f4146f80    ...o    TST      r4,#0x400
        0x00000a2a:    bf14        ..      ITE      NE
        0x00000a2c:    2010        .       MOVNE    r0,#0x10
        0x00000a2e:    f04f30ff    O..0    MOVEQ    r0,#0xffffffff
        0x00000a32:    e7e4        ..      B        0x9fe ; am_hal_pwrctrl_periph_enable + 58
    $d
        0x00000a34:    6e6e6143    Cann    DCD    1852727619
        0x00000a38:    6520746f    ot e    DCD    1696625775
        0x00000a3c:    6c62616e    nabl    DCD    1818386798
        0x00000a40:    6f6d2065    e mo    DCD    1869422693
        0x00000a44:    74206572    re t    DCD    1948280178
        0x00000a48:    206e6168    han     DCD    544104808
        0x00000a4c:    20656e6f    one     DCD    543518319
        0x00000a50:    69726570    peri    DCD    1769104752
        0x00000a54:    72656870    pher    DCD    1919248496
        0x00000a58:    61206c61    al a    DCD    1629514849
        0x00000a5c:    20612074    t a     DCD    543236212
        0x00000a60:    656d6974    time    DCD    1701669236
        0x00000a64:    0000002e    ....    DCD    46
        0x00000a68:    685f6d61    am_h    DCD    1751084385
        0x00000a6c:    705f6c61    al_p    DCD    1885301857
        0x00000a70:    74637277    wrct    DCD    1952674423
        0x00000a74:    632e6c72    rl.c    DCD    1663986802
        0x00000a78:    00000000    ....    DCD    0
        0x00000a7c:    40021000    ...@    DCD    1073876992
    $t
    i.am_hal_rtc_osc_disable
    am_hal_rtc_osc_disable
        0x00000a80:    f04f2040    O.@     MOV      r0,#0x40004000
        0x00000a84:    6d01        .m      LDR      r1,[r0,#0x50]
        0x00000a86:    f0410110    A...    ORR      r1,r1,#0x10
        0x00000a8a:    6501        .e      STR      r1,[r0,#0x50]
        0x00000a8c:    4770        pG      BX       lr
    i.am_hal_rtc_osc_select
    am_hal_rtc_osc_select
        0x00000a8e:    f04f2140    O.@!    MOV      r1,#0x40004000
        0x00000a92:    2800        .(      CMP      r0,#0
        0x00000a94:    68c8        .h      LDR      r0,[r1,#0xc]
        0x00000a96:    bf14        ..      ITE      NE
        0x00000a98:    f0400080    @...    ORRNE    r0,r0,#0x80
        0x00000a9c:    f0200080     ...    BICEQ    r0,r0,#0x80
        0x00000aa0:    60c8        .`      STR      r0,[r1,#0xc]
        0x00000aa2:    4770        pG      BX       lr
    i.am_hal_sysctrl_fpu_enable
    am_hal_sysctrl_fpu_enable
        0x00000aa4:    4902        .I      LDR      r1,[pc,#8] ; [0xab0] = 0xe000ed88
        0x00000aa6:    f44f0070    O.p.    MOV      r0,#0xf00000
        0x00000aaa:    6008        .`      STR      r0,[r1,#0]
        0x00000aac:    4770        pG      BX       lr
    $d
        0x00000aae:    0000        ..      DCW    0
        0x00000ab0:    e000ed88    ....    DCD    3758157192
    $t
    i.am_hal_sysctrl_fpu_stacking_enable
    am_hal_sysctrl_fpu_stacking_enable
        0x00000ab4:    b538        8.      PUSH     {r3-r5,lr}
        0x00000ab6:    4604        .F      MOV      r4,r0
        0x00000ab8:    f7fffb7c    ..|.    BL       am_hal_interrupt_master_disable ; 0x1b4
        0x00000abc:    9000        ..      STR      r0,[sp,#0]
        0x00000abe:    4808        .H      LDR      r0,[pc,#32] ; [0xae0] = 0xe000ef34
        0x00000ac0:    6801        .h      LDR      r1,[r0,#0]
        0x00000ac2:    2c00        .,      CMP      r4,#0
        0x00000ac4:    f0214140    !.@A    BIC      r1,r1,#0xc0000000
        0x00000ac8:    bf14        ..      ITE      NE
        0x00000aca:    f04f4240    O.@B    MOVNE    r2,#0xc0000000
        0x00000ace:    f04f4200    O..B    MOVEQ    r2,#0x80000000
        0x00000ad2:    4311        .C      ORRS     r1,r1,r2
        0x00000ad4:    6001        .`      STR      r1,[r0,#0]
        0x00000ad6:    9800        ..      LDR      r0,[sp,#0]
        0x00000ad8:    e8bd4038    ..8@    POP      {r3-r5,lr}
        0x00000adc:    f7ffbb6e    ..n.    B        am_hal_interrupt_master_set ; 0x1bc
    $d
        0x00000ae0:    e000ef34    4...    DCD    3758157620
    $t
    i.am_hal_systick_count
    am_hal_systick_count
        0x00000ae4:    f04f20e0    O..     MOV      r0,#0xe000e000
        0x00000ae8:    6980        .i      LDR      r0,[r0,#0x18]
        0x00000aea:    4770        pG      BX       lr
    i.am_hal_systick_int_enable
    am_hal_systick_int_enable
        0x00000aec:    f04f20e0    O..     MOV      r0,#0xe000e000
        0x00000af0:    6901        .i      LDR      r1,[r0,#0x10]
        0x00000af2:    f0410102    A...    ORR      r1,r1,#2
        0x00000af6:    6101        .a      STR      r1,[r0,#0x10]
        0x00000af8:    4770        pG      BX       lr
    i.am_hal_systick_load
    am_hal_systick_load
        0x00000afa:    f04f21e0    O..!    MOV      r1,#0xe000e000
        0x00000afe:    6148        Ha      STR      r0,[r1,#0x14]
        0x00000b00:    2000        .       MOVS     r0,#0
        0x00000b02:    6188        .a      STR      r0,[r1,#0x18]
        0x00000b04:    4770        pG      BX       lr
    i.am_hal_systick_start
    am_hal_systick_start
        0x00000b06:    f04f20e0    O..     MOV      r0,#0xe000e000
        0x00000b0a:    6901        .i      LDR      r1,[r0,#0x10]
        0x00000b0c:    f0410101    A...    ORR      r1,r1,#1
        0x00000b10:    6101        .a      STR      r1,[r0,#0x10]
        0x00000b12:    4770        pG      BX       lr
    i.am_hal_systick_stop
    am_hal_systick_stop
        0x00000b14:    f04f20e0    O..     MOV      r0,#0xe000e000
        0x00000b18:    6901        .i      LDR      r1,[r0,#0x10]
        0x00000b1a:    f0210101    !...    BIC      r1,r1,#1
        0x00000b1e:    6101        .a      STR      r1,[r0,#0x10]
        0x00000b20:    4770        pG      BX       lr
    i.am_hal_uart_clock_disable
    am_hal_uart_clock_disable
        0x00000b22:    0301        ..      LSLS     r1,r0,#12
        0x00000b24:    f1014180    ...A    ADD      r1,r1,#0x40000000
        0x00000b28:    f50131e0    ...1    ADD      r1,r1,#0x1c000
        0x00000b2c:    6b0a        .k      LDR      r2,[r1,#0x30]
        0x00000b2e:    f0220208    "...    BIC      r2,r2,#8
        0x00000b32:    630a        .c      STR      r2,[r1,#0x30]
        0x00000b34:    2100        .!      MOVS     r1,#0
        0x00000b36:    f7ffbdbd    ....    B.W      am_hal_clkgen_uarten_set ; 0x6b4
    i.am_hal_uart_clock_enable
    am_hal_uart_clock_enable
        0x00000b3a:    b510        ..      PUSH     {r4,lr}
        0x00000b3c:    4604        .F      MOV      r4,r0
        0x00000b3e:    2101        .!      MOVS     r1,#1
        0x00000b40:    f7fffdb8    ....    BL       am_hal_clkgen_uarten_set ; 0x6b4
        0x00000b44:    0320         .      LSLS     r0,r4,#12
        0x00000b46:    f1004080    ...@    ADD      r0,r0,#0x40000000
        0x00000b4a:    f50030e0    ...0    ADD      r0,r0,#0x1c000
        0x00000b4e:    6b01        .k      LDR      r1,[r0,#0x30]
        0x00000b50:    f0410108    A...    ORR      r1,r1,#8
        0x00000b54:    6301        .c      STR      r1,[r0,#0x30]
        0x00000b56:    6b01        .k      LDR      r1,[r0,#0x30]
        0x00000b58:    f0410110    A...    ORR      r1,r1,#0x10
        0x00000b5c:    6301        .c      STR      r1,[r0,#0x30]
        0x00000b5e:    bd10        ..      POP      {r4,pc}
    i.am_hal_uart_config
    am_hal_uart_config
        0x00000b60:    b5f8        ..      PUSH     {r3-r7,lr}
        0x00000b62:    460d        .F      MOV      r5,r1
        0x00000b64:    4604        .F      MOV      r4,r0
        0x00000b66:    f7fffb25    ..%.    BL       am_hal_interrupt_master_disable ; 0x1b4
        0x00000b6a:    9000        ..      STR      r0,[sp,#0]
        0x00000b6c:    0320         .      LSLS     r0,r4,#12
        0x00000b6e:    f1004480    ...D    ADD      r4,r0,#0x40000000
        0x00000b72:    f50434e0    ...4    ADD      r4,r4,#0x1c000
        0x00000b76:    6b20         k      LDR      r0,[r4,#0x30]
        0x00000b78:    f0200001     ...    BIC      r0,r0,#1
        0x00000b7c:    f4207040     .@p    BIC      r0,r0,#0x300
        0x00000b80:    6320         c      STR      r0,[r4,#0x30]
        0x00000b82:    9800        ..      LDR      r0,[sp,#0]
        0x00000b84:    f7fffb1a    ....    BL       am_hal_interrupt_master_set ; 0x1bc
        0x00000b88:    6828        (h      LDR      r0,[r5,#0]
        0x00000b8a:    4918        .I      LDR      r1,[pc,#96] ; [0xbec] = 0x16e3600
        0x00000b8c:    0100        ..      LSLS     r0,r0,#4
        0x00000b8e:    fbb1f7f0    ....    UDIV     r7,r1,r0
        0x00000b92:    0189        ..      LSLS     r1,r1,#6
        0x00000b94:    fbb1f0f0    ....    UDIV     r0,r1,r0
        0x00000b98:    01b9        ..      LSLS     r1,r7,#6
        0x00000b9a:    1a46        F.      SUBS     r6,r0,r1
        0x00000b9c:    b927        '.      CBNZ     r7,0xba8 ; am_hal_uart_config + 72
        0x00000b9e:    a214        ..      ADR      r2,{pc}+0x52 ; 0xbf0
        0x00000ba0:    2165        e!      MOVS     r1,#0x65
        0x00000ba2:    a020         .      ADR      r0,{pc}+0x82 ; 0xc24
        0x00000ba4:    f7fffda7    ....    BL       am_hal_debug_error ; 0x6f6
        0x00000ba8:    6267        gb      STR      r7,[r4,#0x24]
        0x00000baa:    6267        gb      STR      r7,[r4,#0x24]
        0x00000bac:    62a6        .b      STR      r6,[r4,#0x28]
        0x00000bae:    f7fffb01    ....    BL       am_hal_interrupt_master_disable ; 0x1b4
        0x00000bb2:    9000        ..      STR      r0,[sp,#0]
        0x00000bb4:    6b20         k      LDR      r0,[r4,#0x30]
        0x00000bb6:    f2403101    @..1    MOV      r1,#0x301
        0x00000bba:    4308        .C      ORRS     r0,r0,r1
        0x00000bbc:    6320         c      STR      r0,[r4,#0x30]
        0x00000bbe:    9800        ..      LDR      r0,[sp,#0]
        0x00000bc0:    f7fffafc    ....    BL       am_hal_interrupt_master_set ; 0x1bc
        0x00000bc4:    7a29        )z      LDRB     r1,[r5,#8]
        0x00000bc6:    6868        hh      LDR      r0,[r5,#4]
        0x00000bc8:    2900        .)      CMP      r1,#0
        0x00000bca:    bf18        ..      IT       NE
        0x00000bcc:    2108        .!      MOVNE    r1,#8
        0x00000bce:    4308        .C      ORRS     r0,r0,r1
        0x00000bd0:    68e9        .h      LDR      r1,[r5,#0xc]
        0x00000bd2:    4308        .C      ORRS     r0,r0,r1
        0x00000bd4:    6ae1        .j      LDR      r1,[r4,#0x2c]
        0x00000bd6:    4308        .C      ORRS     r0,r0,r1
        0x00000bd8:    62e0        .b      STR      r0,[r4,#0x2c]
        0x00000bda:    6b20         k      LDR      r0,[r4,#0x30]
        0x00000bdc:    6929        )i      LDR      r1,[r5,#0x10]
        0x00000bde:    4308        .C      ORRS     r0,r0,r1
        0x00000be0:    6320         c      STR      r0,[r4,#0x30]
        0x00000be2:    6b20         k      LDR      r0,[r4,#0x30]
        0x00000be4:    f0400010    @...    ORR      r0,r0,#0x10
        0x00000be8:    6320         c      STR      r0,[r4,#0x30]
        0x00000bea:    bdf8        ..      POP      {r3-r7,pc}
    $d
        0x00000bec:    016e3600    .6n.    DCD    24000000
        0x00000bf0:    65746e49    Inte    DCD    1702129225
        0x00000bf4:    20726567    ger     DCD    544367975
        0x00000bf8:    69766964    divi    DCD    1769367908
        0x00000bfc:    20726f73    sor     DCD    544370547
        0x00000c00:    5453554d    MUST    DCD    1414747469
        0x00000c04:    20656220     be     DCD    543515168
        0x00000c08:    61657267    grea    DCD    1634038375
        0x00000c0c:    20726574    ter     DCD    544367988
        0x00000c10:    6e616874    than    DCD    1851877492
        0x00000c14:    20726f20     or     DCD    544370464
        0x00000c18:    61757165    equa    DCD    1635086693
        0x00000c1c:    6f74206c    l to    DCD    1869881452
        0x00000c20:    002e3120     1..    DCD    3027232
        0x00000c24:    685f6d61    am_h    DCD    1751084385
        0x00000c28:    755f6c61    al_u    DCD    1969187937
        0x00000c2c:    2e747261    art.    DCD    779383393
        0x00000c30:    00000063    c...    DCD    99
    $t
    i.am_hal_uart_disable
    am_hal_uart_disable
        0x00000c34:    b538        8.      PUSH     {r3-r5,lr}
        0x00000c36:    4604        .F      MOV      r4,r0
        0x00000c38:    f7fffabc    ....    BL       am_hal_interrupt_master_disable ; 0x1b4
        0x00000c3c:    9000        ..      STR      r0,[sp,#0]
        0x00000c3e:    0320         .      LSLS     r0,r4,#12
        0x00000c40:    f1004080    ...@    ADD      r0,r0,#0x40000000
        0x00000c44:    f50030e0    ...0    ADD      r0,r0,#0x1c000
        0x00000c48:    6b01        .k      LDR      r1,[r0,#0x30]
        0x00000c4a:    f0210101    !...    BIC      r1,r1,#1
        0x00000c4e:    f4217140    !.@q    BIC      r1,r1,#0x300
        0x00000c52:    6301        .c      STR      r1,[r0,#0x30]
        0x00000c54:    9800        ..      LDR      r0,[sp,#0]
        0x00000c56:    e8bd4038    ..8@    POP      {r3-r5,lr}
        0x00000c5a:    f7ffbaaf    ....    B        am_hal_interrupt_master_set ; 0x1bc
    i.am_hal_uart_enable
    am_hal_uart_enable
        0x00000c5e:    b538        8.      PUSH     {r3-r5,lr}
        0x00000c60:    4604        .F      MOV      r4,r0
        0x00000c62:    f7fffaa7    ....    BL       am_hal_interrupt_master_disable ; 0x1b4
        0x00000c66:    9000        ..      STR      r0,[sp,#0]
        0x00000c68:    0320         .      LSLS     r0,r4,#12
        0x00000c6a:    f1004080    ...@    ADD      r0,r0,#0x40000000
        0x00000c6e:    f50030e0    ...0    ADD      r0,r0,#0x1c000
        0x00000c72:    6b01        .k      LDR      r1,[r0,#0x30]
        0x00000c74:    f2403201    @..2    MOV      r2,#0x301
        0x00000c78:    4311        .C      ORRS     r1,r1,r2
        0x00000c7a:    6301        .c      STR      r1,[r0,#0x30]
        0x00000c7c:    9800        ..      LDR      r0,[sp,#0]
        0x00000c7e:    e8bd4038    ..8@    POP      {r3-r5,lr}
        0x00000c82:    f7ffba9b    ....    B        am_hal_interrupt_master_set ; 0x1bc
    i.am_hal_uart_fifo_config
    am_hal_uart_fifo_config
        0x00000c86:    0300        ..      LSLS     r0,r0,#12
        0x00000c88:    f1004080    ...@    ADD      r0,r0,#0x40000000
        0x00000c8c:    f50030e0    ...0    ADD      r0,r0,#0x1c000
        0x00000c90:    6ac2        .j      LDR      r2,[r0,#0x2c]
        0x00000c92:    f0420210    B...    ORR      r2,r2,#0x10
        0x00000c96:    62c2        .b      STR      r2,[r0,#0x2c]
        0x00000c98:    6341        Ac      STR      r1,[r0,#0x34]
        0x00000c9a:    4770        pG      BX       lr
    i.am_hal_uart_pwrctrl_disable
    am_hal_uart_pwrctrl_disable
        0x00000c9c:    b510        ..      PUSH     {r4,lr}
        0x00000c9e:    4604        .F      MOV      r4,r0
        0x00000ca0:    2802        .(      CMP      r0,#2
        0x00000ca2:    d305        ..      BCC      0xcb0 ; am_hal_uart_pwrctrl_disable + 20
        0x00000ca4:    a205        ..      ADR      r2,{pc}+0x18 ; 0xcbc
        0x00000ca6:    f24011c5    @...    MOV      r1,#0x1c5
        0x00000caa:    a011        ..      ADR      r0,{pc}+0x46 ; 0xcf0
        0x00000cac:    f7fffd23    ..#.    BL       am_hal_debug_error ; 0x6f6
        0x00000cb0:    2080        .       MOVS     r0,#0x80
        0x00000cb2:    40a0        .@      LSLS     r0,r0,r4
        0x00000cb4:    e8bd4010    ...@    POP      {r4,lr}
        0x00000cb8:    f7ffbe44    ..D.    B.W      am_hal_pwrctrl_periph_disable ; 0x944
    $d
        0x00000cbc:    69797254    Tryi    DCD    1769566804
        0x00000cc0:    7420676e    ng t    DCD    1948280686
        0x00000cc4:    6964206f    o di    DCD    1768169583
        0x00000cc8:    6c626173    sabl    DCD    1818386803
        0x00000ccc:    20612065    e a     DCD    543236197
        0x00000cd0:    54524155    UART    DCD    1414676821
        0x00000cd4:    646f6d20     mod    DCD    1685024032
        0x00000cd8:    20656c75    ule     DCD    543517813
        0x00000cdc:    74616874    that    DCD    1952540788
        0x00000ce0:    656f6420     doe    DCD    1701798944
        0x00000ce4:    74276e73    sn't    DCD    1948741235
        0x00000ce8:    69786520     exi    DCD    1769497888
        0x00000cec:    00007473    st..    DCD    29811
        0x00000cf0:    685f6d61    am_h    DCD    1751084385
        0x00000cf4:    755f6c61    al_u    DCD    1969187937
        0x00000cf8:    2e747261    art.    DCD    779383393
        0x00000cfc:    00000063    c...    DCD    99
    $t
    i.am_hal_uart_pwrctrl_enable
    am_hal_uart_pwrctrl_enable
        0x00000d00:    b510        ..      PUSH     {r4,lr}
        0x00000d02:    4604        .F      MOV      r4,r0
        0x00000d04:    2802        .(      CMP      r0,#2
        0x00000d06:    d305        ..      BCC      0xd14 ; am_hal_uart_pwrctrl_enable + 20
        0x00000d08:    a205        ..      ADR      r2,{pc}+0x18 ; 0xd20
        0x00000d0a:    f44f71d8    O..q    MOV      r1,#0x1b0
        0x00000d0e:    a011        ..      ADR      r0,{pc}+0x46 ; 0xd54
        0x00000d10:    f7fffcf1    ....    BL       am_hal_debug_error ; 0x6f6
        0x00000d14:    2080        .       MOVS     r0,#0x80
        0x00000d16:    40a0        .@      LSLS     r0,r0,r4
        0x00000d18:    e8bd4010    ...@    POP      {r4,lr}
        0x00000d1c:    f7ffbe52    ..R.    B.W      am_hal_pwrctrl_periph_enable ; 0x9c4
    $d
        0x00000d20:    69797254    Tryi    DCD    1769566804
        0x00000d24:    7420676e    ng t    DCD    1948280686
        0x00000d28:    6964206f    o di    DCD    1768169583
        0x00000d2c:    6c626173    sabl    DCD    1818386803
        0x00000d30:    20612065    e a     DCD    543236197
        0x00000d34:    54524155    UART    DCD    1414676821
        0x00000d38:    646f6d20     mod    DCD    1685024032
        0x00000d3c:    20656c75    ule     DCD    543517813
        0x00000d40:    74616874    that    DCD    1952540788
        0x00000d44:    656f6420     doe    DCD    1701798944
        0x00000d48:    74276e73    sn't    DCD    1948741235
        0x00000d4c:    69786520     exi    DCD    1769497888
        0x00000d50:    00007473    st..    DCD    29811
        0x00000d54:    685f6d61    am_h    DCD    1751084385
        0x00000d58:    755f6c61    al_u    DCD    1969187937
        0x00000d5c:    2e747261    art.    DCD    779383393
        0x00000d60:    00000063    c...    DCD    99
    $t
    i.am_hal_uart_string_transmit_polled
    am_hal_uart_string_transmit_polled
        0x00000d64:    780a        .x      LDRB     r2,[r1,#0]
        0x00000d66:    2a00        .*      CMP      r2,#0
        0x00000d68:    bf08        ..      IT       EQ
        0x00000d6a:    4770        pG      BXEQ     lr
        0x00000d6c:    0300        ..      LSLS     r0,r0,#12
        0x00000d6e:    f1004080    ...@    ADD      r0,r0,#0x40000000
        0x00000d72:    f50030e0    ...0    ADD      r0,r0,#0x1c000
        0x00000d76:    6982        .i      LDR      r2,[r0,#0x18]
        0x00000d78:    f0120f20    .. .    TST      r2,#0x20
        0x00000d7c:    d1fb        ..      BNE      0xd76 ; am_hal_uart_string_transmit_polled + 18
        0x00000d7e:    f8112b01    ...+    LDRB     r2,[r1],#1
        0x00000d82:    6002        .`      STR      r2,[r0,#0]
        0x00000d84:    780a        .x      LDRB     r2,[r1,#0]
        0x00000d86:    2a00        .*      CMP      r2,#0
        0x00000d88:    d1f5        ..      BNE      0xd76 ; am_hal_uart_string_transmit_polled + 18
        0x00000d8a:    4770        pG      BX       lr
    i.am_hal_vcomp_disable
    am_hal_vcomp_disable
        0x00000d8c:    4901        .I      LDR      r1,[pc,#4] ; [0xd94] = 0x4000c000
        0x00000d8e:    2037        7       MOVS     r0,#0x37
        0x00000d90:    6088        .`      STR      r0,[r1,#8]
        0x00000d92:    4770        pG      BX       lr
    $d
        0x00000d94:    4000c000    ...@    DCD    1073790976
    $t
    i.am_sprintf
    am_sprintf
        0x00000d98:    b40f        ..      PUSH     {r0-r3}
        0x00000d9a:    e92d41f0    -..A    PUSH     {r4-r8,lr}
        0x00000d9e:    4c18        .L      LDR      r4,[pc,#96] ; [0xe00] = 0x10000038
        0x00000da0:    2500        .%      MOVS     r5,#0
        0x00000da2:    6820         h      LDR      r0,[r4,#0]
        0x00000da4:    f5b06f80    ...o    CMP      r0,#0x400
        0x00000da8:    d224        $.      BCS      0xdf4 ; am_sprintf + 92
        0x00000daa:    aa07        ..      ADD      r2,sp,#0x1c
        0x00000dac:    9906        ..      LDR      r1,[sp,#0x18]
        0x00000dae:    6860        `h      LDR      r0,[r4,#4]
        0x00000db0:    f000f8f4    ....    BL       am_util_stdio_vsprintf ; 0xf9c
        0x00000db4:    6821        !h      LDR      r1,[r4,#0]
        0x00000db6:    2700        .'      MOVS     r7,#0
        0x00000db8:    4401        .D      ADD      r1,r1,r0
        0x00000dba:    f5b16f80    ...o    CMP      r1,#0x400
        0x00000dbe:    d30e        ..      BCC      0xdde ; am_sprintf + 70
        0x00000dc0:    4e1a        .N      LDR      r6,[pc,#104] ; [0xe2c] = 0x100000d4
        0x00000dc2:    a110        ..      ADR      r1,{pc}+0x42 ; 0xe04
        0x00000dc4:    f20630d7    ...0    ADD      r0,r6,#0x3d7
        0x00000dc8:    f000f8c0    ....    BL       am_util_stdio_sprintf ; 0xf4c
        0x00000dcc:    f88673ff    ...s    STRB     r7,[r6,#0x3ff]
        0x00000dd0:    f5066080    ...`    ADD      r0,r6,#0x400
        0x00000dd4:    6060        ``      STR      r0,[r4,#4]
        0x00000dd6:    f44f6080    O..`    MOV      r0,#0x400
        0x00000dda:    6020         `      STR      r0,[r4,#0]
        0x00000ddc:    e00a        ..      B        0xdf4 ; am_sprintf + 92
        0x00000dde:    6861        ah      LDR      r1,[r4,#4]
        0x00000de0:    4401        .D      ADD      r1,r1,r0
        0x00000de2:    1c49        I.      ADDS     r1,r1,#1
        0x00000de4:    6061        a`      STR      r1,[r4,#4]
        0x00000de6:    6821        !h      LDR      r1,[r4,#0]
        0x00000de8:    4401        .D      ADD      r1,r1,r0
        0x00000dea:    6021        !`      STR      r1,[r4,#0]
        0x00000dec:    6821        !h      LDR      r1,[r4,#0]
        0x00000dee:    1c49        I.      ADDS     r1,r1,#1
        0x00000df0:    6021        !`      STR      r1,[r4,#0]
        0x00000df2:    4605        .F      MOV      r5,r0
        0x00000df4:    4628        (F      MOV      r0,r5
        0x00000df6:    e8bd01f0    ....    POP      {r4-r8}
        0x00000dfa:    f85dfb14    ]...    LDR      pc,[sp],#0x14
    $d
        0x00000dfe:    0000        ..      DCW    0
        0x00000e00:    10000038    8...    DCD    268435512
        0x00000e04:    46465542    BUFF    DCD    1179014466
        0x00000e08:    4f205245    ER O    DCD    1327518277
        0x00000e0c:    46524556    VERF    DCD    1179796822
        0x00000e10:    45574f4c    LOWE    DCD    1163349836
        0x00000e14:    49202144    D! I    DCD    1226842436
        0x00000e18:    6572636e    ncre    DCD    1701995374
        0x00000e1c:    20657361    ase     DCD    543519585
        0x00000e20:    42545250    PRTB    DCD    1112822352
        0x00000e24:    49534655    UFSI    DCD    1230194261
        0x00000e28:    000a455a    ZE..    DCD    673114
        0x00000e2c:    100000d4    ....    DCD    268435668
    $t
    i.am_systick_isr
    am_systick_isr
        0x00000e30:    4802        .H      LDR      r0,[pc,#8] ; [0xe3c] = 0x10000000
        0x00000e32:    6801        .h      LDR      r1,[r0,#0]
        0x00000e34:    f1017180    ...q    ADD      r1,r1,#0x1000000
        0x00000e38:    6001        .`      STR      r1,[r0,#0]
        0x00000e3a:    4770        pG      BX       lr
    $d
        0x00000e3c:    10000000    ....    DCD    268435456
    $t
    i.am_util_delay_ms
    am_util_delay_ms
        0x00000e40:    b510        ..      PUSH     {r4,lr}
        0x00000e42:    4604        .F      MOV      r4,r0
        0x00000e44:    f7fffbf2    ....    BL       am_hal_clkgen_sysclk_get ; 0x62c
        0x00000e48:    f64031b8    @..1    MOV      r1,#0xbb8
        0x00000e4c:    fbb0f0f1    ....    UDIV     r0,r0,r1
        0x00000e50:    4360        `C      MULS     r0,r4,r0
        0x00000e52:    e8bd4010    ...@    POP      {r4,lr}
        0x00000e56:    f7ffbc4f    ..O.    B.W      am_hal_flash_delay ; 0x6f8
        0x00000e5a:    0000        ..      MOVS     r0,r0
    i.am_util_faultisr_collect_data
    am_util_faultisr_collect_data
        0x00000e5c:    b092        ..      SUB      sp,sp,#0x48
        0x00000e5e:    4604        .F      MOV      r4,r0
        0x00000e60:    2000        .       MOVS     r0,#0
        0x00000e62:    900c        ..      STR      r0,[sp,#0x30]
        0x00000e64:    900f        ..      STR      r0,[sp,#0x3c]
        0x00000e66:    900d        ..      STR      r0,[sp,#0x34]
        0x00000e68:    900e        ..      STR      r0,[sp,#0x38]
        0x00000e6a:    9010        ..      STR      r0,[sp,#0x40]
        0x00000e6c:    9011        ..      STR      r0,[sp,#0x44]
        0x00000e6e:    900a        ..      STR      r0,[sp,#0x28]
        0x00000e70:    4824        $H      LDR      r0,[pc,#144] ; [0xf04] = 0xe000ed28
        0x00000e72:    6800        .h      LDR      r0,[r0,#0]
        0x00000e74:    900a        ..      STR      r0,[sp,#0x28]
        0x00000e76:    980a        ..      LDR      r0,[sp,#0x28]
        0x00000e78:    f88d002c    ..,.    STRB     r0,[sp,#0x2c]
        0x00000e7c:    980a        ..      LDR      r0,[sp,#0x28]
        0x00000e7e:    0a00        ..      LSRS     r0,r0,#8
        0x00000e80:    f88d002d    ..-.    STRB     r0,[sp,#0x2d]
        0x00000e84:    980a        ..      LDR      r0,[sp,#0x28]
        0x00000e86:    0c00        ..      LSRS     r0,r0,#16
        0x00000e88:    f8ad002e    ....    STRH     r0,[sp,#0x2e]
        0x00000e8c:    481e        .H      LDR      r0,[pc,#120] ; [0xf08] = 0xe000ed38
        0x00000e8e:    6800        .h      LDR      r0,[r0,#0]
        0x00000e90:    9009        ..      STR      r0,[sp,#0x24]
        0x00000e92:    f89d002d    ..-.    LDRB     r0,[sp,#0x2d]
        0x00000e96:    f0100f02    ....    TST      r0,#2
        0x00000e9a:    bf08        ..      IT       EQ
        0x00000e9c:    f04f30ff    O..0    MOVEQ    r0,#0xffffffff
        0x00000ea0:    d003        ..      BEQ      0xeaa ; am_util_faultisr_collect_data + 78
        0x00000ea2:    4621        !F      MOV      r1,r4
        0x00000ea4:    2006        .       MOVS     r0,#6
        0x00000ea6:    f7fff97c    ..|.    BL       getStackedReg ; 0x1a2
        0x00000eaa:    9008        ..      STR      r0,[sp,#0x20]
        0x00000eac:    4621        !F      MOV      r1,r4
        0x00000eae:    2000        .       MOVS     r0,#0
        0x00000eb0:    f7fff977    ..w.    BL       getStackedReg ; 0x1a2
        0x00000eb4:    9000        ..      STR      r0,[sp,#0]
        0x00000eb6:    4621        !F      MOV      r1,r4
        0x00000eb8:    2001        .       MOVS     r0,#1
        0x00000eba:    f7fff972    ..r.    BL       getStackedReg ; 0x1a2
        0x00000ebe:    9001        ..      STR      r0,[sp,#4]
        0x00000ec0:    4621        !F      MOV      r1,r4
        0x00000ec2:    2002        .       MOVS     r0,#2
        0x00000ec4:    f7fff96d    ..m.    BL       getStackedReg ; 0x1a2
        0x00000ec8:    9002        ..      STR      r0,[sp,#8]
        0x00000eca:    4621        !F      MOV      r1,r4
        0x00000ecc:    2003        .       MOVS     r0,#3
        0x00000ece:    f7fff968    ..h.    BL       getStackedReg ; 0x1a2
        0x00000ed2:    9003        ..      STR      r0,[sp,#0xc]
        0x00000ed4:    4621        !F      MOV      r1,r4
        0x00000ed6:    2004        .       MOVS     r0,#4
        0x00000ed8:    f7fff963    ..c.    BL       getStackedReg ; 0x1a2
        0x00000edc:    9004        ..      STR      r0,[sp,#0x10]
        0x00000ede:    4621        !F      MOV      r1,r4
        0x00000ee0:    2005        .       MOVS     r0,#5
        0x00000ee2:    f7fff95e    ..^.    BL       getStackedReg ; 0x1a2
        0x00000ee6:    9005        ..      STR      r0,[sp,#0x14]
        0x00000ee8:    4621        !F      MOV      r1,r4
        0x00000eea:    2006        .       MOVS     r0,#6
        0x00000eec:    f7fff959    ..Y.    BL       getStackedReg ; 0x1a2
        0x00000ef0:    9006        ..      STR      r0,[sp,#0x18]
        0x00000ef2:    4621        !F      MOV      r1,r4
        0x00000ef4:    2007        .       MOVS     r0,#7
        0x00000ef6:    f7fff954    ..T.    BL       getStackedReg ; 0x1a2
        0x00000efa:    9007        ..      STR      r0,[sp,#0x1c]
        0x00000efc:    a80c        ..      ADD      r0,sp,#0x30
        0x00000efe:    f7fffbff    ....    BL       am_hal_mcuctrl_fault_status ; 0x700
        0x00000f02:    e7fe        ..      B        0xf02 ; am_util_faultisr_collect_data + 166
    $d
        0x00000f04:    e000ed28    (...    DCD    3758157096
        0x00000f08:    e000ed38    8...    DCD    3758157112
    $t
    i.am_util_stdio_printf
    am_util_stdio_printf
        0x00000f0c:    b40f        ..      PUSH     {r0-r3}
        0x00000f0e:    b570        p.      PUSH     {r4-r6,lr}
        0x00000f10:    4c09        .L      LDR      r4,[pc,#36] ; [0xf38] = 0x100000a0
        0x00000f12:    6860        `h      LDR      r0,[r4,#4]
        0x00000f14:    2800        .(      CMP      r0,#0
        0x00000f16:    bf04        ..      ITT      EQ
        0x00000f18:    bc70        p.      POPEQ    {r4-r6}
        0x00000f1a:    f85dfb14    ]...    LDREQ    pc,[sp],#0x14
        0x00000f1e:    aa05        ..      ADD      r2,sp,#0x14
        0x00000f20:    4806        .H      LDR      r0,[pc,#24] ; [0xf3c] = 0x100004d4
        0x00000f22:    9904        ..      LDR      r1,[sp,#0x10]
        0x00000f24:    f000f83a    ..:.    BL       am_util_stdio_vsprintf ; 0xf9c
        0x00000f28:    4605        .F      MOV      r5,r0
        0x00000f2a:    6861        ah      LDR      r1,[r4,#4]
        0x00000f2c:    4803        .H      LDR      r0,[pc,#12] ; [0xf3c] = 0x100004d4
        0x00000f2e:    4788        .G      BLX      r1
        0x00000f30:    4628        (F      MOV      r0,r5
        0x00000f32:    bc70        p.      POP      {r4-r6}
        0x00000f34:    f85dfb14    ]...    LDR      pc,[sp],#0x14
    $d
        0x00000f38:    100000a0    ....    DCD    268435616
        0x00000f3c:    100004d4    ....    DCD    268436692
    $t
    i.am_util_stdio_printf_init
    am_util_stdio_printf_init
        0x00000f40:    4901        .I      LDR      r1,[pc,#4] ; [0xf48] = 0x100000a0
        0x00000f42:    6048        H`      STR      r0,[r1,#4]
        0x00000f44:    4770        pG      BX       lr
    $d
        0x00000f46:    0000        ..      DCW    0
        0x00000f48:    100000a0    ....    DCD    268435616
    $t
    i.am_util_stdio_sprintf
    am_util_stdio_sprintf
        0x00000f4c:    b40f        ..      PUSH     {r0-r3}
        0x00000f4e:    b510        ..      PUSH     {r4,lr}
        0x00000f50:    aa04        ..      ADD      r2,sp,#0x10
        0x00000f52:    9903        ..      LDR      r1,[sp,#0xc]
        0x00000f54:    f000f822    ..".    BL       am_util_stdio_vsprintf ; 0xf9c
        0x00000f58:    bc10        ..      POP      {r4}
        0x00000f5a:    f85dfb14    ]...    LDR      pc,[sp],#0x14
        0x00000f5e:    0000        ..      MOVS     r0,r0
    i.am_util_stdio_terminal_clear
    am_util_stdio_terminal_clear
        0x00000f60:    b538        8.      PUSH     {r3-r5,lr}
        0x00000f62:    4c0c        .L      LDR      r4,[pc,#48] ; [0xf94] = 0x100000a0
        0x00000f64:    a106        ..      ADR      r1,{pc}+0x1c ; 0xf80
        0x00000f66:    9100        ..      STR      r1,[sp,#0]
        0x00000f68:    6860        `h      LDR      r0,[r4,#4]
        0x00000f6a:    2800        .(      CMP      r0,#0
        0x00000f6c:    bf08        ..      IT       EQ
        0x00000f6e:    bd38        8.      POPEQ    {r3-r5,pc}
        0x00000f70:    aa01        ..      ADD      r2,sp,#4
        0x00000f72:    4809        .H      LDR      r0,[pc,#36] ; [0xf98] = 0x100004d4
        0x00000f74:    f000f812    ....    BL       am_util_stdio_vsprintf ; 0xf9c
        0x00000f78:    6861        ah      LDR      r1,[r4,#4]
        0x00000f7a:    4807        .H      LDR      r0,[pc,#28] ; [0xf98] = 0x100004d4
        0x00000f7c:    4788        .G      BLX      r1
        0x00000f7e:    bd38        8.      POP      {r3-r5,pc}
    $d
        0x00000f80:    0a0a0a0a    ....    DCD    168430090
        0x00000f84:    0a0a0a0a    ....    DCD    168430090
        0x00000f88:    0a0a0a0a    ....    DCD    168430090
        0x00000f8c:    0a0a0a0a    ....    DCD    168430090
        0x00000f90:    00000a0a    ....    DCD    2570
        0x00000f94:    100000a0    ....    DCD    268435616
        0x00000f98:    100004d4    ....    DCD    268436692
    $t
    i.am_util_stdio_vsprintf
    am_util_stdio_vsprintf
        0x00000f9c:    e92d4ff7    -..O    PUSH     {r0-r2,r4-r11,lr}
        0x00000fa0:    4604        .F      MOV      r4,r0
        0x00000fa2:    7808        .x      LDRB     r0,[r1,#0]
        0x00000fa4:    2500        .%      MOVS     r5,#0
        0x00000fa6:    b088        ..      SUB      sp,sp,#0x20
        0x00000fa8:    2800        .(      CMP      r0,#0
        0x00000faa:    f0008385    ....    BEQ.W    0x16b8 ; am_util_stdio_vsprintf + 1820
        0x00000fae:    bf00        ..      NOP      
        0x00000fb0:    b2c0        ..      UXTB     r0,r0
        0x00000fb2:    f04f0906    O...    MOV      r9,#6
        0x00000fb6:    2825        %(      CMP      r0,#0x25
        0x00000fb8:    d010        ..      BEQ      0xfdc ; am_util_stdio_vsprintf + 64
        0x00000fba:    b15c        \.      CBZ      r4,0xfd4 ; am_util_stdio_vsprintf + 56
        0x00000fbc:    280a        .(      CMP      r0,#0xa
        0x00000fbe:    d106        ..      BNE      0xfce ; am_util_stdio_vsprintf + 50
        0x00000fc0:    48fe        .H      LDR      r0,[pc,#1016] ; [0x13bc] = 0x100000a0
        0x00000fc2:    7800        .x      LDRB     r0,[r0,#0]
        0x00000fc4:    b118        ..      CBZ      r0,0xfce ; am_util_stdio_vsprintf + 50
        0x00000fc6:    200d        .       MOVS     r0,#0xd
        0x00000fc8:    f8040b01    ....    STRB     r0,[r4],#1
        0x00000fcc:    1c6d        m.      ADDS     r5,r5,#1
        0x00000fce:    7808        .x      LDRB     r0,[r1,#0]
        0x00000fd0:    f8040b01    ....    STRB     r0,[r4],#1
        0x00000fd4:    1c49        I.      ADDS     r1,r1,#1
        0x00000fd6:    1c6d        m.      ADDS     r5,r5,#1
        0x00000fd8:    f000bb6a    ..j.    B.W      0x16b0 ; am_util_stdio_vsprintf + 1812
        0x00000fdc:    2020                MOVS     r0,#0x20
        0x00000fde:    9001        ..      STR      r0,[sp,#4]
        0x00000fe0:    2700        .'      MOVS     r7,#0
        0x00000fe2:    f8110f01    ....    LDRB     r0,[r1,#1]!
        0x00000fe6:    46bc        .F      MOV      r12,r7
        0x00000fe8:    2830        0(      CMP      r0,#0x30
        0x00000fea:    d101        ..      BNE      0xff0 ; am_util_stdio_vsprintf + 84
        0x00000fec:    1c49        I.      ADDS     r1,r1,#1
        0x00000fee:    9001        ..      STR      r0,[sp,#4]
        0x00000ff0:    2600        .&      MOVS     r6,#0
        0x00000ff2:    f891a000    ....    LDRB     r10,[r1,#0]
        0x00000ff6:    460a        .F      MOV      r2,r1
        0x00000ff8:    f10d0808    ....    ADD      r8,sp,#8
        0x00000ffc:    4630        0F      MOV      r0,r6
        0x00000ffe:    4633        3F      MOV      r3,r6
        0x00001000:    f1ba0f2d    ..-.    CMP      r10,#0x2d
        0x00001004:    d102        ..      BNE      0x100c ; am_util_stdio_vsprintf + 112
        0x00001006:    2601        .&      MOVS     r6,#1
        0x00001008:    1c4a        J.      ADDS     r2,r1,#1
        0x0000100a:    4633        3F      MOV      r3,r6
        0x0000100c:    f892a000    ....    LDRB     r10,[r2,#0]
        0x00001010:    f1aa0a30    ..0.    SUB      r10,r10,#0x30
        0x00001014:    f1ba0f09    ....    CMP      r10,#9
        0x00001018:    d80f        ..      BHI      0x103a ; am_util_stdio_vsprintf + 158
        0x0000101a:    bf00        ..      NOP      
        0x0000101c:    eb000080    ....    ADD      r0,r0,r0,LSL #2
        0x00001020:    0040        @.      LSLS     r0,r0,#1
        0x00001022:    f812ab01    ....    LDRB     r10,[r2],#1
        0x00001026:    3830        08      SUBS     r0,r0,#0x30
        0x00001028:    4450        PD      ADD      r0,r0,r10
        0x0000102a:    f892a000    ....    LDRB     r10,[r2,#0]
        0x0000102e:    1c5b        [.      ADDS     r3,r3,#1
        0x00001030:    f1aa0a30    ..0.    SUB      r10,r10,#0x30
        0x00001034:    f1ba0f09    ....    CMP      r10,#9
        0x00001038:    d9f0        ..      BLS      0x101c ; am_util_stdio_vsprintf + 128
        0x0000103a:    f1b80f00    ....    CMP      r8,#0
        0x0000103e:    bf18        ..      IT       NE
        0x00001040:    9302        ..      STRNE    r3,[sp,#8]
        0x00001042:    2e00        ..      CMP      r6,#0
        0x00001044:    bf18        ..      IT       NE
        0x00001046:    4240        @B      RSBNE    r0,r0,#0
        0x00001048:    9000        ..      STR      r0,[sp,#0]
        0x0000104a:    9802        ..      LDR      r0,[sp,#8]
        0x0000104c:    180e        ..      ADDS     r6,r1,r0
        0x0000104e:    7830        0x      LDRB     r0,[r6,#0]
        0x00001050:    2873        s(      CMP      r0,#0x73
        0x00001052:    d037        7.      BEQ      0x10c4 ; am_util_stdio_vsprintf + 296
        0x00001054:    9900        ..      LDR      r1,[sp,#0]
        0x00001056:    2900        .)      CMP      r1,#0
        0x00001058:    bfbc        ..      ITT      LT
        0x0000105a:    4249        IB      RSBLT    r1,r1,#0
        0x0000105c:    9100        ..      STRLT    r1,[sp,#0]
        0x0000105e:    282e        .(      CMP      r0,#0x2e
        0x00001060:    d003        ..      BEQ      0x106a ; am_util_stdio_vsprintf + 206
        0x00001062:    7830        0x      LDRB     r0,[r6,#0]
        0x00001064:    286c        l(      CMP      r0,#0x6c
        0x00001066:    d12d        -.      BNE      0x10c4 ; am_util_stdio_vsprintf + 296
        0x00001068:    e025        %.      B        0x10b6 ; am_util_stdio_vsprintf + 282
        0x0000106a:    1c72        r.      ADDS     r2,r6,#1
        0x0000106c:    2300        .#      MOVS     r3,#0
        0x0000106e:    7811        .x      LDRB     r1,[r2,#0]
        0x00001070:    4616        .F      MOV      r6,r2
        0x00001072:    4699        .F      MOV      r9,r3
        0x00001074:    4618        .F      MOV      r0,r3
        0x00001076:    292d        -)      CMP      r1,#0x2d
        0x00001078:    d102        ..      BNE      0x1080 ; am_util_stdio_vsprintf + 228
        0x0000107a:    2301        .#      MOVS     r3,#1
        0x0000107c:    1c56        V.      ADDS     r6,r2,#1
        0x0000107e:    4618        .F      MOV      r0,r3
        0x00001080:    7831        1x      LDRB     r1,[r6,#0]
        0x00001082:    3930        09      SUBS     r1,r1,#0x30
        0x00001084:    2909        .)      CMP      r1,#9
        0x00001086:    d80b        ..      BHI      0x10a0 ; am_util_stdio_vsprintf + 260
        0x00001088:    eb090189    ....    ADD      r1,r9,r9,LSL #2
        0x0000108c:    0049        I.      LSLS     r1,r1,#1
        0x0000108e:    f8169b01    ....    LDRB     r9,[r6],#1
        0x00001092:    3930        09      SUBS     r1,r1,#0x30
        0x00001094:    4489        .D      ADD      r9,r9,r1
        0x00001096:    7831        1x      LDRB     r1,[r6,#0]
        0x00001098:    1c40        @.      ADDS     r0,r0,#1
        0x0000109a:    3930        09      SUBS     r1,r1,#0x30
        0x0000109c:    2909        .)      CMP      r1,#9
        0x0000109e:    d9f3        ..      BLS      0x1088 ; am_util_stdio_vsprintf + 236
        0x000010a0:    f1b80f00    ....    CMP      r8,#0
        0x000010a4:    bf18        ..      IT       NE
        0x000010a6:    9002        ..      STRNE    r0,[sp,#8]
        0x000010a8:    2b00        .+      CMP      r3,#0
        0x000010aa:    bf18        ..      IT       NE
        0x000010ac:    f1c90900    ....    RSBNE    r9,r9,#0
        0x000010b0:    9802        ..      LDR      r0,[sp,#8]
        0x000010b2:    1816        ..      ADDS     r6,r2,r0
        0x000010b4:    e7d5        ..      B        0x1062 ; am_util_stdio_vsprintf + 198
        0x000010b6:    f8160f01    ....    LDRB     r0,[r6,#1]!
        0x000010ba:    286c        l(      CMP      r0,#0x6c
        0x000010bc:    bf04        ..      ITT      EQ
        0x000010be:    f04f0c01    O...    MOVEQ    r12,#1
        0x000010c2:    1c76        v.      ADDEQ    r6,r6,#1
        0x000010c4:    7830        0x      LDRB     r0,[r6,#0]
        0x000010c6:    2866        f(      CMP      r0,#0x66
        0x000010c8:    f000822a    ..*.    BEQ.W    0x1520 ; am_util_stdio_vsprintf + 1412
        0x000010cc:    dc0a        ..      BGT      0x10e4 ; am_util_stdio_vsprintf + 328
        0x000010ce:    2846        F(      CMP      r0,#0x46
        0x000010d0:    f0008226    ..&.    BEQ.W    0x1520 ; am_util_stdio_vsprintf + 1412
        0x000010d4:    2858        X(      CMP      r0,#0x58
        0x000010d6:    d07d        }.      BEQ      0x11d4 ; am_util_stdio_vsprintf + 568
        0x000010d8:    2863        c(      CMP      r0,#0x63
        0x000010da:    d014        ..      BEQ      0x1106 ; am_util_stdio_vsprintf + 362
        0x000010dc:    2864        d(      CMP      r0,#0x64
        0x000010de:    f00081b5    ....    BEQ.W    0x144c ; am_util_stdio_vsprintf + 1200
        0x000010e2:    e00b        ..      B        0x10fc ; am_util_stdio_vsprintf + 352
        0x000010e4:    2869        i(      CMP      r0,#0x69
        0x000010e6:    f00081b1    ....    BEQ.W    0x144c ; am_util_stdio_vsprintf + 1200
        0x000010ea:    2873        s(      CMP      r0,#0x73
        0x000010ec:    d016        ..      BEQ      0x111c ; am_util_stdio_vsprintf + 384
        0x000010ee:    2875        u(      CMP      r0,#0x75
        0x000010f0:    f000810c    ....    BEQ.W    0x130c ; am_util_stdio_vsprintf + 880
        0x000010f4:    2878        x(      CMP      r0,#0x78
        0x000010f6:    bf08        ..      IT       EQ
        0x000010f8:    2701        .'      MOVEQ    r7,#1
        0x000010fa:    d06e        n.      BEQ      0x11da ; am_util_stdio_vsprintf + 574
        0x000010fc:    2c00        .,      CMP      r4,#0
        0x000010fe:    bf18        ..      IT       NE
        0x00001100:    f8040b01    ....    STRBNE   r0,[r4],#1
        0x00001104:    e007        ..      B        0x1116 ; am_util_stdio_vsprintf + 378
        0x00001106:    980a        ..      LDR      r0,[sp,#0x28]
        0x00001108:    2c00        .,      CMP      r4,#0
        0x0000110a:    f8101b04    ....    LDRB     r1,[r0],#4
        0x0000110e:    900a        ..      STR      r0,[sp,#0x28]
        0x00001110:    bf18        ..      IT       NE
        0x00001112:    f8041b01    ....    STRBNE   r1,[r4],#1
        0x00001116:    1c6d        m.      ADDS     r5,r5,#1
        0x00001118:    f000bac9    ....    B.W      0x16ae ; am_util_stdio_vsprintf + 1810
        0x0000111c:    990a        ..      LDR      r1,[sp,#0x28]
        0x0000111e:    2200        ."      MOVS     r2,#0
        0x00001120:    f8510b04    Q...    LDR      r0,[r1],#4
        0x00001124:    910a        ..      STR      r1,[sp,#0x28]
        0x00001126:    b140        @.      CBZ      r0,0x113a ; am_util_stdio_vsprintf + 414
        0x00001128:    7803        .x      LDRB     r3,[r0,#0]
        0x0000112a:    1c41        A.      ADDS     r1,r0,#1
        0x0000112c:    b12b        +.      CBZ      r3,0x113a ; am_util_stdio_vsprintf + 414
        0x0000112e:    bf00        ..      NOP      
        0x00001130:    f8113b01    ...;    LDRB     r3,[r1],#1
        0x00001134:    1c52        R.      ADDS     r2,r2,#1
        0x00001136:    2b00        .+      CMP      r3,#0
        0x00001138:    d1fa        ..      BNE      0x1130 ; am_util_stdio_vsprintf + 404
        0x0000113a:    9900        ..      LDR      r1,[sp,#0]
        0x0000113c:    2900        .)      CMP      r1,#0
        0x0000113e:    dd1e        ..      BLE      0x117e ; am_util_stdio_vsprintf + 482
        0x00001140:    428a        .B      CMP      r2,r1
        0x00001142:    d21c        ..      BCS      0x117e ; am_util_stdio_vsprintf + 482
        0x00001144:    1a8b        ..      SUBS     r3,r1,r2
        0x00001146:    9f01        ..      LDR      r7,[sp,#4]
        0x00001148:    4621        !F      MOV      r1,r4
        0x0000114a:    f04f0c00    O...    MOV      r12,#0
        0x0000114e:    2b00        .+      CMP      r3,#0
        0x00001150:    bfc4        ..      ITT      GT
        0x00001152:    1e5b        [.      SUBGT    r3,r3,#1
        0x00001154:    f1b33fff    ...?    CMPGT    r3,#0xffffffff
        0x00001158:    dd09        ..      BLE      0x116e ; am_util_stdio_vsprintf + 466
        0x0000115a:    2900        .)      CMP      r1,#0
        0x0000115c:    bf18        ..      IT       NE
        0x0000115e:    f8017b01    ...{    STRBNE   r7,[r1],#1
        0x00001162:    1e5b        [.      SUBS     r3,r3,#1
        0x00001164:    f10c0c01    ....    ADD      r12,r12,#1
        0x00001168:    f1b33fff    ...?    CMP      r3,#0xffffffff
        0x0000116c:    dcf5        ..      BGT      0x115a ; am_util_stdio_vsprintf + 446
        0x0000116e:    2c00        .,      CMP      r4,#0
        0x00001170:    bf14        ..      ITE      NE
        0x00001172:    4661        aF      MOVNE    r1,r12
        0x00001174:    2100        .!      MOVEQ    r1,#0
        0x00001176:    440c        .D      ADD      r4,r4,r1
        0x00001178:    2100        .!      MOVS     r1,#0
        0x0000117a:    4465        eD      ADD      r5,r5,r12
        0x0000117c:    9100        ..      STR      r1,[sp,#0]
        0x0000117e:    7801        .x      LDRB     r1,[r0,#0]
        0x00001180:    b139        9.      CBZ      r1,0x1192 ; am_util_stdio_vsprintf + 502
        0x00001182:    b10c        ..      CBZ      r4,0x1188 ; am_util_stdio_vsprintf + 492
        0x00001184:    f8041b01    ....    STRB     r1,[r4],#1
        0x00001188:    f8101f01    ....    LDRB     r1,[r0,#1]!
        0x0000118c:    1c6d        m.      ADDS     r5,r5,#1
        0x0000118e:    2900        .)      CMP      r1,#0
        0x00001190:    d1f7        ..      BNE      0x1182 ; am_util_stdio_vsprintf + 486
        0x00001192:    9800        ..      LDR      r0,[sp,#0]
        0x00001194:    2800        .(      CMP      r0,#0
        0x00001196:    bf1c        ..      ITT      NE
        0x00001198:    4240        @B      RSBNE    r0,r0,#0
        0x0000119a:    4282        .B      CMPNE    r2,r0
        0x0000119c:    f0808287    ....    BCS.W    0x16ae ; am_util_stdio_vsprintf + 1810
        0x000011a0:    1a82        ..      SUBS     r2,r0,r2
        0x000011a2:    2000        .       MOVS     r0,#0
        0x000011a4:    9b01        ..      LDR      r3,[sp,#4]
        0x000011a6:    4621        !F      MOV      r1,r4
        0x000011a8:    2a00        .*      CMP      r2,#0
        0x000011aa:    bfc4        ..      ITT      GT
        0x000011ac:    1e52        R.      SUBGT    r2,r2,#1
        0x000011ae:    f1b23fff    ...?    CMPGT    r2,#0xffffffff
        0x000011b2:    dd08        ..      BLE      0x11c6 ; am_util_stdio_vsprintf + 554
        0x000011b4:    2900        .)      CMP      r1,#0
        0x000011b6:    bf18        ..      IT       NE
        0x000011b8:    f8013b01    ...;    STRBNE   r3,[r1],#1
        0x000011bc:    1c40        @.      ADDS     r0,r0,#1
        0x000011be:    1e52        R.      SUBS     r2,r2,#1
        0x000011c0:    f1b23fff    ...?    CMP      r2,#0xffffffff
        0x000011c4:    dcf6        ..      BGT      0x11b4 ; am_util_stdio_vsprintf + 536
        0x000011c6:    2c00        .,      CMP      r4,#0
        0x000011c8:    bf14        ..      ITE      NE
        0x000011ca:    4601        .F      MOVNE    r1,r0
        0x000011cc:    2100        .!      MOVEQ    r1,#0
        0x000011ce:    440c        .D      ADD      r4,r4,r1
        0x000011d0:    4405        .D      ADD      r5,r5,r0
        0x000011d2:    e000        ..      B        0x11d6 ; am_util_stdio_vsprintf + 570
        0x000011d4:    e001        ..      B        0x11da ; am_util_stdio_vsprintf + 574
        0x000011d6:    f000ba6a    ..j.    B.W      0x16ae ; am_util_stdio_vsprintf + 1810
        0x000011da:    f1bc0f00    ....    CMP      r12,#0
        0x000011de:    d007        ..      BEQ      0x11f0 ; am_util_stdio_vsprintf + 596
        0x000011e0:    980a        ..      LDR      r0,[sp,#0x28]
        0x000011e2:    1dc0        ..      ADDS     r0,r0,#7
        0x000011e4:    f0200207     ...    BIC      r2,r0,#7
        0x000011e8:    e8f20102    ....    LDRD     r0,r1,[r2],#8
        0x000011ec:    920a        ..      STR      r2,[sp,#0x28]
        0x000011ee:    e004        ..      B        0x11fa ; am_util_stdio_vsprintf + 606
        0x000011f0:    990a        ..      LDR      r1,[sp,#0x28]
        0x000011f2:    f8510b04    Q...    LDR      r0,[r1],#4
        0x000011f6:    910a        ..      STR      r1,[sp,#0x28]
        0x000011f8:    2100        .!      MOVS     r1,#0
        0x000011fa:    9a00        ..      LDR      r2,[sp,#0]
        0x000011fc:    b38a        ..      CBZ      r2,0x1262 ; am_util_stdio_vsprintf + 710
        0x000011fe:    460b        .F      MOV      r3,r1
        0x00001200:    4602        .F      MOV      r2,r0
        0x00001202:    ea500c03    P...    ORRS     r12,r0,r3
        0x00001206:    bf0c        ..      ITE      EQ
        0x00001208:    f04f0c01    O...    MOVEQ    r12,#1
        0x0000120c:    f04f0c00    O...    MOVNE    r12,#0
        0x00001210:    d008        ..      BEQ      0x1224 ; am_util_stdio_vsprintf + 648
        0x00001212:    0912        ..      LSRS     r2,r2,#4
        0x00001214:    ea427203    B..r    ORR      r2,r2,r3,LSL #28
        0x00001218:    091b        ..      LSRS     r3,r3,#4
        0x0000121a:    f10c0c01    ....    ADD      r12,r12,#1
        0x0000121e:    ea520803    R...    ORRS     r8,r2,r3
        0x00001222:    d1f6        ..      BNE      0x1212 ; am_util_stdio_vsprintf + 630
        0x00001224:    9a00        ..      LDR      r2,[sp,#0]
        0x00001226:    9b01        ..      LDR      r3,[sp,#4]
        0x00001228:    eba2020c    ....    SUB      r2,r2,r12
        0x0000122c:    46a4        .F      MOV      r12,r4
        0x0000122e:    f04f0800    O...    MOV      r8,#0
        0x00001232:    2a00        .*      CMP      r2,#0
        0x00001234:    bfc4        ..      ITT      GT
        0x00001236:    1e52        R.      SUBGT    r2,r2,#1
        0x00001238:    f1b23fff    ...?    CMPGT    r2,#0xffffffff
        0x0000123c:    dd0b        ..      BLE      0x1256 ; am_util_stdio_vsprintf + 698
        0x0000123e:    bf00        ..      NOP      
        0x00001240:    f1bc0f00    ....    CMP      r12,#0
        0x00001244:    bf18        ..      IT       NE
        0x00001246:    f80c3b01    ...;    STRBNE   r3,[r12],#1
        0x0000124a:    1e52        R.      SUBS     r2,r2,#1
        0x0000124c:    f1080801    ....    ADD      r8,r8,#1
        0x00001250:    f1b23fff    ...?    CMP      r2,#0xffffffff
        0x00001254:    dcf4        ..      BGT      0x1240 ; am_util_stdio_vsprintf + 676
        0x00001256:    2c00        .,      CMP      r4,#0
        0x00001258:    bf14        ..      ITE      NE
        0x0000125a:    4642        BF      MOVNE    r2,r8
        0x0000125c:    2200        ."      MOVEQ    r2,#0
        0x0000125e:    4414        .D      ADD      r4,r4,r2
        0x00001260:    4445        ED      ADD      r5,r5,r8
        0x00001262:    46a0        .F      MOV      r8,r4
        0x00001264:    f04f0c00    O...    MOV      r12,#0
        0x00001268:    ea500201    P...    ORRS     r2,r0,r1
        0x0000126c:    d106        ..      BNE      0x127c ; am_util_stdio_vsprintf + 736
        0x0000126e:    bf00        ..      NOP      
        0x00001270:    f04f0230    O.0.    MOV      r2,#0x30
        0x00001274:    f88d200c    ...     STRB     r2,[sp,#0xc]
        0x00001278:    f04f0c01    O...    MOV      r12,#1
        0x0000127c:    bf18        ..      IT       NE
        0x0000127e:    ab03        ..      ADDNE    r3,sp,#0xc
        0x00001280:    d017        ..      BEQ      0x12b2 ; am_util_stdio_vsprintf + 790
        0x00001282:    bf00        ..      NOP      
        0x00001284:    f000020f    ....    AND      r2,r0,#0xf
        0x00001288:    2a09        .*      CMP      r2,#9
        0x0000128a:    d906        ..      BLS      0x129a ; am_util_stdio_vsprintf + 766
        0x0000128c:    2f00        ./      CMP      r7,#0
        0x0000128e:    bf14        ..      ITE      NE
        0x00001290:    f04f0927    O.'.    MOVNE    r9,#0x27
        0x00001294:    f04f0907    O...    MOVEQ    r9,#7
        0x00001298:    444a        JD      ADD      r2,r2,r9
        0x0000129a:    3230        02      ADDS     r2,r2,#0x30
        0x0000129c:    0900        ..      LSRS     r0,r0,#4
        0x0000129e:    f803200c    ...     STRB     r2,[r3,r12]
        0x000012a2:    ea407001    @..p    ORR      r0,r0,r1,LSL #28
        0x000012a6:    0909        ..      LSRS     r1,r1,#4
        0x000012a8:    f10c0c01    ....    ADD      r12,r12,#1
        0x000012ac:    ea500201    P...    ORRS     r2,r0,r1
        0x000012b0:    d1e8        ..      BNE      0x1284 ; am_util_stdio_vsprintf + 744
        0x000012b2:    f1b80f00    ....    CMP      r8,#0
        0x000012b6:    d022        ".      BEQ      0x12fe ; am_util_stdio_vsprintf + 866
        0x000012b8:    f1ac0301    ....    SUB      r3,r12,#1
        0x000012bc:    f1bc0200    ....    SUBS     r2,r12,#0
        0x000012c0:    dd1a        ..      BLE      0x12f8 ; am_util_stdio_vsprintf + 860
        0x000012c2:    a803        ..      ADD      r0,sp,#0xc
        0x000012c4:    4418        .D      ADD      r0,r0,r3
        0x000012c6:    1c41        A.      ADDS     r1,r0,#1
        0x000012c8:    f1a80001    ....    SUB      r0,r8,#1
        0x000012cc:    f0130f01    ....    TST      r3,#1
        0x000012d0:    d103        ..      BNE      0x12da ; am_util_stdio_vsprintf + 830
        0x000012d2:    f8117d01    ...}    LDRB     r7,[r1,#-1]!
        0x000012d6:    f8007f01    ....    STRB     r7,[r0,#1]!
        0x000012da:    1052        R.      ASRS     r2,r2,#1
        0x000012dc:    d009        ..      BEQ      0x12f2 ; am_util_stdio_vsprintf + 854
        0x000012de:    bf00        ..      NOP      
        0x000012e0:    f8117c01    ...|    LDRB     r7,[r1,#-1]
        0x000012e4:    7047        Gp      STRB     r7,[r0,#1]
        0x000012e6:    f8117d02    ...}    LDRB     r7,[r1,#-2]!
        0x000012ea:    f8007f02    ....    STRB     r7,[r0,#2]!
        0x000012ee:    1e52        R.      SUBS     r2,r2,#1
        0x000012f0:    d1f6        ..      BNE      0x12e0 ; am_util_stdio_vsprintf + 836
        0x000012f2:    18e0        ..      ADDS     r0,r4,r3
        0x000012f4:    f1000801    ....    ADD      r8,r0,#1
        0x000012f8:    2000        .       MOVS     r0,#0
        0x000012fa:    f8880000    ....    STRB     r0,[r8,#0]
        0x000012fe:    2c00        .,      CMP      r4,#0
        0x00001300:    bf18        ..      IT       NE
        0x00001302:    4464        dD      ADDNE    r4,r4,r12
        0x00001304:    4465        eD      ADD      r5,r5,r12
        0x00001306:    f000b9d2    ....    B.W      0x16ae ; am_util_stdio_vsprintf + 1810
        0x0000130a:    bf00        ..      NOP      
        0x0000130c:    980a        ..      LDR      r0,[sp,#0x28]
        0x0000130e:    f1bc0f00    ....    CMP      r12,#0
        0x00001312:    d006        ..      BEQ      0x1322 ; am_util_stdio_vsprintf + 902
        0x00001314:    1dc0        ..      ADDS     r0,r0,#7
        0x00001316:    f0200107     ...    BIC      r1,r0,#7
        0x0000131a:    e8f1e002    ....    LDRD     lr,r0,[r1],#8
        0x0000131e:    910a        ..      STR      r1,[sp,#0x28]
        0x00001320:    e003        ..      B        0x132a ; am_util_stdio_vsprintf + 910
        0x00001322:    f850eb04    P...    LDR      lr,[r0],#4
        0x00001326:    900a        ..      STR      r0,[sp,#0x28]
        0x00001328:    2000        .       MOVS     r0,#0
        0x0000132a:    9003        ..      STR      r0,[sp,#0xc]
        0x0000132c:    9800        ..      LDR      r0,[sp,#0]
        0x0000132e:    2800        .(      CMP      r0,#0
        0x00001330:    d07e        ~.      BEQ      0x1430 ; am_util_stdio_vsprintf + 1172
        0x00001332:    9903        ..      LDR      r1,[sp,#0xc]
        0x00001334:    4670        pF      MOV      r0,lr
        0x00001336:    ea5e0201    ^...    ORRS     r2,lr,r1
        0x0000133a:    bf0e        ..      ITEE     EQ
        0x0000133c:    2301        .#      MOVEQ    r3,#1
        0x0000133e:    2300        .#      MOVNE    r3,#0
        0x00001340:    f04f0c00    O...    MOVNE    r12,#0
        0x00001344:    d05e        ^.      BEQ      0x1404 ; am_util_stdio_vsprintf + 1128
        0x00001346:    b3c1        ..      CBZ      r1,0x13ba ; am_util_stdio_vsprintf + 1054
        0x00001348:    084a        J.      LSRS     r2,r1,#1
        0x0000134a:    ea4f0990    O...    LSR      r9,r0,#2
        0x0000134e:    ea4f0730    O.0.    RRX      r7,r0
        0x00001352:    ea497881    I..x    ORR      r8,r9,r1,LSL #30
        0x00001356:    eb170708    ....    ADDS     r7,r7,r8
        0x0000135a:    eb420291    B...    ADC      r2,r2,r1,LSR #2
        0x0000135e:    ea4f1917    O...    LSR      r9,r7,#4
        0x00001362:    ea497802    I..x    ORR      r8,r9,r2,LSL #28
        0x00001366:    eb180707    ....    ADDS     r7,r8,r7
        0x0000136a:    eb421812    B...    ADC      r8,r2,r2,LSR #4
        0x0000136e:    ea4f2917    O..)    LSR      r9,r7,#8
        0x00001372:    ea496208    I..b    ORR      r2,r9,r8,LSL #24
        0x00001376:    19d2        ..      ADDS     r2,r2,r7
        0x00001378:    eb482718    H..'    ADC      r7,r8,r8,LSR #8
        0x0000137c:    ea4f4912    O..I    LSR      r9,r2,#16
        0x00001380:    ea494807    I..H    ORR      r8,r9,r7,LSL #16
        0x00001384:    eb180802    ....    ADDS     r8,r8,r2
        0x00001388:    eb474217    G..B    ADC      r2,r7,r7,LSR #16
        0x0000138c:    eb180702    ....    ADDS     r7,r8,r2
        0x00001390:    eb42020c    B...    ADC      r2,r2,r12
        0x00001394:    08ff        ..      LSRS     r7,r7,#3
        0x00001396:    ea477742    G.Bw    ORR      r7,r7,r2,LSL #29
        0x0000139a:    f04f080a    O...    MOV      r8,#0xa
        0x0000139e:    fba7ab08    ....    UMULL    r10,r11,r7,r8
        0x000013a2:    08d2        ..      LSRS     r2,r2,#3
        0x000013a4:    fb02b808    ....    MLA      r8,r2,r8,r11
        0x000013a8:    f04f0900    O...    MOV      r9,#0
        0x000013ac:    fb078909    ....    MLA      r9,r7,r9,r8
        0x000013b0:    ebb0080a    ....    SUBS     r8,r0,r10
        0x000013b4:    eb610009    a...    SBC      r0,r1,r9
        0x000013b8:    e002        ..      B        0x13c0 ; am_util_stdio_vsprintf + 1060
        0x000013ba:    e00c        ..      B        0x13d6 ; am_util_stdio_vsprintf + 1082
    $d
        0x000013bc:    100000a0    ....    DCD    268435616
    $t
        0x000013c0:    f1180106    ....    ADDS     r1,r8,#6
        0x000013c4:    f1400800    @...    ADC      r8,r0,#0
        0x000013c8:    0909        ..      LSRS     r1,r1,#4
        0x000013ca:    ea417008    A..p    ORR      r0,r1,r8,LSL #28
        0x000013ce:    19c0        ..      ADDS     r0,r0,r7
        0x000013d0:    eb421118    B...    ADC      r1,r2,r8,LSR #4
        0x000013d4:    e012        ..      B        0x13fc ; am_util_stdio_vsprintf + 1120
        0x000013d6:    0841        A.      LSRS     r1,r0,#1
        0x000013d8:    eb010190    ....    ADD      r1,r1,r0,LSR #2
        0x000013dc:    eb011111    ....    ADD      r1,r1,r1,LSR #4
        0x000013e0:    eb012111    ...!    ADD      r1,r1,r1,LSR #8
        0x000013e4:    eb014111    ...A    ADD      r1,r1,r1,LSR #16
        0x000013e8:    08c9        ..      LSRS     r1,r1,#3
        0x000013ea:    424a        JB      RSBS     r2,r1,#0
        0x000013ec:    eb020282    ....    ADD      r2,r2,r2,LSL #2
        0x000013f0:    eb000042    ..B.    ADD      r0,r0,r2,LSL #1
        0x000013f4:    1d80        ..      ADDS     r0,r0,#6
        0x000013f6:    eb011010    ....    ADD      r0,r1,r0,LSR #4
        0x000013fa:    4661        aF      MOV      r1,r12
        0x000013fc:    1c5b        [.      ADDS     r3,r3,#1
        0x000013fe:    ea500201    P...    ORRS     r2,r0,r1
        0x00001402:    d1a0        ..      BNE      0x1346 ; am_util_stdio_vsprintf + 938
        0x00001404:    9800        ..      LDR      r0,[sp,#0]
        0x00001406:    2100        .!      MOVS     r1,#0
        0x00001408:    1ac2        ..      SUBS     r2,r0,r3
        0x0000140a:    9b01        ..      LDR      r3,[sp,#4]
        0x0000140c:    4620         F      MOV      r0,r4
        0x0000140e:    2a00        .*      CMP      r2,#0
        0x00001410:    bfc4        ..      ITT      GT
        0x00001412:    1e52        R.      SUBGT    r2,r2,#1
        0x00001414:    f1b23fff    ...?    CMPGT    r2,#0xffffffff
        0x00001418:    dd08        ..      BLE      0x142c ; am_util_stdio_vsprintf + 1168
        0x0000141a:    2800        .(      CMP      r0,#0
        0x0000141c:    bf18        ..      IT       NE
        0x0000141e:    f8003b01    ...;    STRBNE   r3,[r0],#1
        0x00001422:    1c49        I.      ADDS     r1,r1,#1
        0x00001424:    1e52        R.      SUBS     r2,r2,#1
        0x00001426:    f1b23fff    ...?    CMP      r2,#0xffffffff
        0x0000142a:    dcf6        ..      BGT      0x141a ; am_util_stdio_vsprintf + 1150
        0x0000142c:    2c00        .,      CMP      r4,#0
        0x0000142e:    e000        ..      B        0x1432 ; am_util_stdio_vsprintf + 1174
        0x00001430:    e004        ..      B        0x143c ; am_util_stdio_vsprintf + 1184
        0x00001432:    bf14        ..      ITE      NE
        0x00001434:    4608        .F      MOVNE    r0,r1
        0x00001436:    2000        .       MOVEQ    r0,#0
        0x00001438:    4404        .D      ADD      r4,r4,r0
        0x0000143a:    440d        .D      ADD      r5,r5,r1
        0x0000143c:    4622        "F      MOV      r2,r4
        0x0000143e:    4670        pF      MOV      r0,lr
        0x00001440:    9903        ..      LDR      r1,[sp,#0xc]
        0x00001442:    f001fe59    ..Y.    BL       uint64_to_str ; 0x30f8
        0x00001446:    bbdc        ..      CBNZ     r4,0x14c0 ; am_util_stdio_vsprintf + 1316
        0x00001448:    4405        .D      ADD      r5,r5,r0
        0x0000144a:    e130        0.      B        0x16ae ; am_util_stdio_vsprintf + 1810
        0x0000144c:    980a        ..      LDR      r0,[sp,#0x28]
        0x0000144e:    f1bc0f00    ....    CMP      r12,#0
        0x00001452:    d006        ..      BEQ      0x1462 ; am_util_stdio_vsprintf + 1222
        0x00001454:    1dc0        ..      ADDS     r0,r0,#7
        0x00001456:    f0200007     ...    BIC      r0,r0,#7
        0x0000145a:    e8f08702    ....    LDRD     r8,r7,[r0],#8
        0x0000145e:    900a        ..      STR      r0,[sp,#0x28]
        0x00001460:    e004        ..      B        0x146c ; am_util_stdio_vsprintf + 1232
        0x00001462:    f8508b04    P...    LDR      r8,[r0],#4
        0x00001466:    900a        ..      STR      r0,[sp,#0x28]
        0x00001468:    ea4f77e8    O..w    ASR      r7,r8,#31
        0x0000146c:    2f00        ./      CMP      r7,#0
        0x0000146e:    bfa8        ..      IT       GE
        0x00001470:    f04f0900    O...    MOVGE    r9,#0
        0x00001474:    da06        ..      BGE      0x1484 ; am_util_stdio_vsprintf + 1256
        0x00001476:    2000        .       MOVS     r0,#0
        0x00001478:    f1d80800    ....    RSBS     r8,r8,#0
        0x0000147c:    eb600707    `...    SBC      r7,r0,r7
        0x00001480:    f04f0901    O...    MOV      r9,#1
        0x00001484:    9800        ..      LDR      r0,[sp,#0]
        0x00001486:    b3d8        ..      CBZ      r0,0x1500 ; am_util_stdio_vsprintf + 1380
        0x00001488:    4640        @F      MOV      r0,r8
        0x0000148a:    0039        9.      MOVS     r1,r7
        0x0000148c:    d503        ..      BPL      0x1496 ; am_util_stdio_vsprintf + 1274
        0x0000148e:    2200        ."      MOVS     r2,#0
        0x00001490:    4240        @B      RSBS     r0,r0,#0
        0x00001492:    eb620107    b...    SBC      r1,r2,r7
        0x00001496:    f001fc4e    ..N.    BL       ndigits_in_u64 ; 0x2d36
        0x0000149a:    9900        ..      LDR      r1,[sp,#0]
        0x0000149c:    1a0a        ..      SUBS     r2,r1,r0
        0x0000149e:    f1b90f00    ....    CMP      r9,#0
        0x000014a2:    d008        ..      BEQ      0x14b6 ; am_util_stdio_vsprintf + 1306
        0x000014a4:    9801        ..      LDR      r0,[sp,#4]
        0x000014a6:    1e52        R.      SUBS     r2,r2,#1
        0x000014a8:    2830        0(      CMP      r0,#0x30
        0x000014aa:    d104        ..      BNE      0x14b6 ; am_util_stdio_vsprintf + 1306
        0x000014ac:    b114        ..      CBZ      r4,0x14b4 ; am_util_stdio_vsprintf + 1304
        0x000014ae:    202d        -       MOVS     r0,#0x2d
        0x000014b0:    f8040b01    ....    STRB     r0,[r4],#1
        0x000014b4:    1c6d        m.      ADDS     r5,r5,#1
        0x000014b6:    2100        .!      MOVS     r1,#0
        0x000014b8:    4620         F      MOV      r0,r4
        0x000014ba:    9b01        ..      LDR      r3,[sp,#4]
        0x000014bc:    2a00        .*      CMP      r2,#0
        0x000014be:    e000        ..      B        0x14c2 ; am_util_stdio_vsprintf + 1318
        0x000014c0:    e02c        ,.      B        0x151c ; am_util_stdio_vsprintf + 1408
        0x000014c2:    bfc4        ..      ITT      GT
        0x000014c4:    1e52        R.      SUBGT    r2,r2,#1
        0x000014c6:    f1b23fff    ...?    CMPGT    r2,#0xffffffff
        0x000014ca:    dd08        ..      BLE      0x14de ; am_util_stdio_vsprintf + 1346
        0x000014cc:    2800        .(      CMP      r0,#0
        0x000014ce:    bf18        ..      IT       NE
        0x000014d0:    f8003b01    ...;    STRBNE   r3,[r0],#1
        0x000014d4:    1c49        I.      ADDS     r1,r1,#1
        0x000014d6:    1e52        R.      SUBS     r2,r2,#1
        0x000014d8:    f1b23fff    ...?    CMP      r2,#0xffffffff
        0x000014dc:    dcf6        ..      BGT      0x14cc ; am_util_stdio_vsprintf + 1328
        0x000014de:    2c00        .,      CMP      r4,#0
        0x000014e0:    bf14        ..      ITE      NE
        0x000014e2:    4608        .F      MOVNE    r0,r1
        0x000014e4:    2000        .       MOVEQ    r0,#0
        0x000014e6:    4404        .D      ADD      r4,r4,r0
        0x000014e8:    440d        .D      ADD      r5,r5,r1
        0x000014ea:    f1b90f00    ....    CMP      r9,#0
        0x000014ee:    d00e        ..      BEQ      0x150e ; am_util_stdio_vsprintf + 1394
        0x000014f0:    9801        ..      LDR      r0,[sp,#4]
        0x000014f2:    2820         (      CMP      r0,#0x20
        0x000014f4:    d10b        ..      BNE      0x150e ; am_util_stdio_vsprintf + 1394
        0x000014f6:    b14c        L.      CBZ      r4,0x150c ; am_util_stdio_vsprintf + 1392
        0x000014f8:    202d        -       MOVS     r0,#0x2d
        0x000014fa:    f8040b01    ....    STRB     r0,[r4],#1
        0x000014fe:    e005        ..      B        0x150c ; am_util_stdio_vsprintf + 1392
        0x00001500:    e7ff        ..      B        0x1502 ; am_util_stdio_vsprintf + 1382
        0x00001502:    f1b90f00    ....    CMP      r9,#0
        0x00001506:    d002        ..      BEQ      0x150e ; am_util_stdio_vsprintf + 1394
        0x00001508:    2c00        .,      CMP      r4,#0
        0x0000150a:    d1f5        ..      BNE      0x14f8 ; am_util_stdio_vsprintf + 1372
        0x0000150c:    1c6d        m.      ADDS     r5,r5,#1
        0x0000150e:    4622        "F      MOV      r2,r4
        0x00001510:    4640        @F      MOV      r0,r8
        0x00001512:    4639        9F      MOV      r1,r7
        0x00001514:    f001fdf0    ....    BL       uint64_to_str ; 0x30f8
        0x00001518:    2c00        .,      CMP      r4,#0
        0x0000151a:    d095        ..      BEQ      0x1448 ; am_util_stdio_vsprintf + 1196
        0x0000151c:    4404        .D      ADD      r4,r4,r0
        0x0000151e:    e793        ..      B        0x1448 ; am_util_stdio_vsprintf + 1196
        0x00001520:    2c00        .,      CMP      r4,#0
        0x00001522:    d07d        }.      BEQ      0x1620 ; am_util_stdio_vsprintf + 1668
        0x00001524:    980a        ..      LDR      r0,[sp,#0x28]
        0x00001526:    1dc0        ..      ADDS     r0,r0,#7
        0x00001528:    f0200007     ...    BIC      r0,r0,#7
        0x0000152c:    ecb00b02    ....    VLDM     r0!,{d0}
        0x00001530:    900a        ..      STR      r0,[sp,#0x28]
        0x00001532:    ec510b10    Q...    VMOV     r0,r1,d0
        0x00001536:    f001fe73    ..s.    BL       __aeabi_d2f ; 0x3220
        0x0000153a:    ee000a10    ....    VMOV     s0,r0
        0x0000153e:    f04f0a14    O...    MOV      r10,#0x14
        0x00001542:    4627        'F      MOV      r7,r4
        0x00001544:    eeb50ac0    ....    VCMPE.F32 s0,#0.0
        0x00001548:    f8c4a000    ....    STR      r10,[r4,#0]
        0x0000154c:    eef1fa10    ....    VMRS     APSR_nzcv,FPSCR
        0x00001550:    d103        ..      BNE      0x155a ; am_util_stdio_vsprintf + 1470
        0x00001552:    485f        _H      LDR      r0,[pc,#380] ; [0x16d0] = 0x302e30
        0x00001554:    6020         `      STR      r0,[r4,#0]
        0x00001556:    2003        .       MOVS     r0,#3
        0x00001558:    e0a7        ..      B        0x16aa ; am_util_stdio_vsprintf + 1806
        0x0000155a:    ee100a10    ....    VMOV     r0,s0
        0x0000155e:    f04f0800    O...    MOV      r8,#0
        0x00001562:    46a3        .F      MOV      r11,r4
        0x00001564:    f3c051c7    ...Q    UBFX     r1,r0,#23,#8
        0x00001568:    f020427f     ..B    BIC      r2,r0,#0xff000000
        0x0000156c:    397f        .9      SUBS     r1,r1,#0x7f
        0x0000156e:    f4420200    B...    ORR      r2,r2,#0x800000
        0x00001572:    4643        CF      MOV      r3,r8
        0x00001574:    291f        .)      CMP      r1,#0x1f
        0x00001576:    da7d        }.      BGE      0x1674 ; am_util_stdio_vsprintf + 1752
        0x00001578:    f1110f17    ....    CMN      r1,#0x17
        0x0000157c:    db7b        {.      BLT      0x1676 ; am_util_stdio_vsprintf + 1754
        0x0000157e:    2917        .)      CMP      r1,#0x17
        0x00001580:    bfa4        ..      ITT      GE
        0x00001582:    3917        .9      SUBGE    r1,r1,#0x17
        0x00001584:    fa02f301    ....    LSLGE    r3,r2,r1
        0x00001588:    da0e        ..      BGE      0x15a8 ; am_util_stdio_vsprintf + 1548
        0x0000158a:    2900        .)      CMP      r1,#0
        0x0000158c:    bfbc        ..      ITT      LT
        0x0000158e:    43c9        .C      MVNLT    r1,r1
        0x00001590:    fa22f801    "...    LSRLT    r8,r2,r1
        0x00001594:    db08        ..      BLT      0x15a8 ; am_util_stdio_vsprintf + 1548
        0x00001596:    f1c10317    ....    RSB      r3,r1,#0x17
        0x0000159a:    fa42f303    B...    ASR      r3,r2,r3
        0x0000159e:    1c49        I.      ADDS     r1,r1,#1
        0x000015a0:    fa02f101    ....    LSL      r1,r2,r1
        0x000015a4:    f021487f    !..H    BIC      r8,r1,#0xff000000
        0x000015a8:    2800        .(      CMP      r0,#0
        0x000015aa:    da03        ..      BGE      0x15b4 ; am_util_stdio_vsprintf + 1560
        0x000015ac:    202d        -       MOVS     r0,#0x2d
        0x000015ae:    7038        8p      STRB     r0,[r7,#0]
        0x000015b0:    f10b0701    ....    ADD      r7,r11,#1
        0x000015b4:    2b00        .+      CMP      r3,#0
        0x000015b6:    bf04        ..      ITT      EQ
        0x000015b8:    2030        0       MOVEQ    r0,#0x30
        0x000015ba:    f8070b01    ....    STRBEQ   r0,[r7],#1
        0x000015be:    d015        ..      BEQ      0x15ec ; am_util_stdio_vsprintf + 1616
        0x000015c0:    dd06        ..      BLE      0x15d0 ; am_util_stdio_vsprintf + 1588
        0x000015c2:    463a        :F      MOV      r2,r7
        0x000015c4:    4618        .F      MOV      r0,r3
        0x000015c6:    ea4f71e3    O..q    ASR      r1,r3,#31
        0x000015ca:    f001fd95    ....    BL       uint64_to_str ; 0x30f8
        0x000015ce:    e007        ..      B        0x15e0 ; am_util_stdio_vsprintf + 1604
        0x000015d0:    202d        -       MOVS     r0,#0x2d
        0x000015d2:    f8070b01    ....    STRB     r0,[r7],#1
        0x000015d6:    4258        XB      RSBS     r0,r3,#0
        0x000015d8:    463a        :F      MOV      r2,r7
        0x000015da:    17c1        ..      ASRS     r1,r0,#31
        0x000015dc:    f001fd8c    ....    BL       uint64_to_str ; 0x30f8
        0x000015e0:    7838        8x      LDRB     r0,[r7,#0]
        0x000015e2:    b118        ..      CBZ      r0,0x15ec ; am_util_stdio_vsprintf + 1616
        0x000015e4:    f8170f01    ....    LDRB     r0,[r7,#1]!
        0x000015e8:    2800        .(      CMP      r0,#0
        0x000015ea:    d1fb        ..      BNE      0x15e4 ; am_util_stdio_vsprintf + 1608
        0x000015ec:    202e        .       MOVS     r0,#0x2e
        0x000015ee:    1c7a        z.      ADDS     r2,r7,#1
        0x000015f0:    7038        8p      STRB     r0,[r7,#0]
        0x000015f2:    f1b80f00    ....    CMP      r8,#0
        0x000015f6:    d041        A.      BEQ      0x167c ; am_util_stdio_vsprintf + 1760
        0x000015f8:    eba2000b    ....    SUB      r0,r2,r11
        0x000015fc:    ebaa0000    ....    SUB      r0,r10,r0
        0x00001600:    f1a00c01    ....    SUB      r12,r0,#1
        0x00001604:    45cc        .E      CMP      r12,r9
        0x00001606:    bfc8        ..      IT       GT
        0x00001608:    46cc        .F      MOVGT    r12,r9
        0x0000160a:    f1bc0f00    ....    CMP      r12,#0
        0x0000160e:    dd11        ..      BLE      0x1634 ; am_util_stdio_vsprintf + 1688
        0x00001610:    4617        .F      MOV      r7,r2
        0x00001612:    4660        `F      MOV      r0,r12
        0x00001614:    f05f0330    _.0.    MOVS.W   r3,#0x30
        0x00001618:    eb080188    ....    ADD      r1,r8,r8,LSL #2
        0x0000161c:    0049        I.      LSLS     r1,r1,#1
        0x0000161e:    e000        ..      B        0x1622 ; am_util_stdio_vsprintf + 1670
        0x00001620:    e045        E.      B        0x16ae ; am_util_stdio_vsprintf + 1810
        0x00001622:    eb036821    ..!h    ADD      r8,r3,r1,ASR #24
        0x00001626:    f8078b01    ....    STRB     r8,[r7],#1
        0x0000162a:    f021487f    !..H    BIC      r8,r1,#0xff000000
        0x0000162e:    1e40        @.      SUBS     r0,r0,#1
        0x00001630:    d1f2        ..      BNE      0x1618 ; am_util_stdio_vsprintf + 1660
        0x00001632:    4462        bD      ADD      r2,r2,r12
        0x00001634:    eb080088    ....    ADD      r0,r8,r8,LSL #2
        0x00001638:    0041        A.      LSLS     r1,r0,#1
        0x0000163a:    2005        .       MOVS     r0,#5
        0x0000163c:    ebb06f21    ..!o    CMP      r0,r1,ASR #24
        0x00001640:    dc24        $.      BGT      0x168c ; am_util_stdio_vsprintf + 1776
        0x00001642:    1e50        P.      SUBS     r0,r2,#1
        0x00001644:    ebab0300    ....    SUB      r3,r11,r0
        0x00001648:    2101        .!      MOVS     r1,#1
        0x0000164a:    f1c30301    ....    RSB      r3,r3,#1
        0x0000164e:    2b01        .+      CMP      r3,#1
        0x00001650:    bfa8        ..      IT       GE
        0x00001652:    2730        0'      MOVGE    r7,#0x30
        0x00001654:    db1a        ..      BLT      0x168c ; am_util_stdio_vsprintf + 1776
        0x00001656:    bf00        ..      NOP      
        0x00001658:    f890c000    ....    LDRB     r12,[r0,#0]
        0x0000165c:    f1bc0f2e    ....    CMP      r12,#0x2e
        0x00001660:    d010        ..      BEQ      0x1684 ; am_util_stdio_vsprintf + 1768
        0x00001662:    f1bc0f39    ..9.    CMP      r12,#0x39
        0x00001666:    bf08        ..      IT       EQ
        0x00001668:    7007        .p      STRBEQ   r7,[r0,#0]
        0x0000166a:    d00b        ..      BEQ      0x1684 ; am_util_stdio_vsprintf + 1768
        0x0000166c:    f00c01ff    ....    AND      r1,r12,#0xff
        0x00001670:    1c49        I.      ADDS     r1,r1,#1
        0x00001672:    e001        ..      B        0x1678 ; am_util_stdio_vsprintf + 1756
        0x00001674:    e02a        *.      B        0x16cc ; am_util_stdio_vsprintf + 1840
        0x00001676:    e027        '.      B        0x16c8 ; am_util_stdio_vsprintf + 1836
        0x00001678:    7001        .p      STRB     r1,[r0,#0]
        0x0000167a:    e007        ..      B        0x168c ; am_util_stdio_vsprintf + 1776
        0x0000167c:    2030        0       MOVS     r0,#0x30
        0x0000167e:    f8020b01    ....    STRB     r0,[r2],#1
        0x00001682:    e003        ..      B        0x168c ; am_util_stdio_vsprintf + 1776
        0x00001684:    1e40        @.      SUBS     r0,r0,#1
        0x00001686:    1c49        I.      ADDS     r1,r1,#1
        0x00001688:    428b        .B      CMP      r3,r1
        0x0000168a:    dae5        ..      BGE      0x1658 ; am_util_stdio_vsprintf + 1724
        0x0000168c:    2000        .       MOVS     r0,#0
        0x0000168e:    7010        .p      STRB     r0,[r2,#0]
        0x00001690:    ebb2000b    ....    SUBS     r0,r2,r11
        0x00001694:    d509        ..      BPL      0x16aa ; am_util_stdio_vsprintf + 1806
        0x00001696:    f1b03fff    ...?    CMP      r0,#0xffffffff
        0x0000169a:    d015        ..      BEQ      0x16c8 ; am_util_stdio_vsprintf + 1836
        0x0000169c:    f1100f02    ....    CMN      r0,#2
        0x000016a0:    bf18        ..      IT       NE
        0x000016a2:    480c        .H      LDRNE    r0,[pc,#48] ; [0x16d4] = 0x3f2e3f
        0x000016a4:    d012        ..      BEQ      0x16cc ; am_util_stdio_vsprintf + 1840
        0x000016a6:    6020         `      STR      r0,[r4,#0]
        0x000016a8:    2003        .       MOVS     r0,#3
        0x000016aa:    4405        .D      ADD      r5,r5,r0
        0x000016ac:    4404        .D      ADD      r4,r4,r0
        0x000016ae:    1c71        q.      ADDS     r1,r6,#1
        0x000016b0:    7808        .x      LDRB     r0,[r1,#0]
        0x000016b2:    2800        .(      CMP      r0,#0
        0x000016b4:    f47fac7c    ..|.    BNE      0xfb0 ; am_util_stdio_vsprintf + 20
        0x000016b8:    2c00        .,      CMP      r4,#0
        0x000016ba:    bf1c        ..      ITT      NE
        0x000016bc:    2000        .       MOVNE    r0,#0
        0x000016be:    7020         p      STRBNE   r0,[r4,#0]
        0x000016c0:    4628        (F      MOV      r0,r5
        0x000016c2:    b00b        ..      ADD      sp,sp,#0x2c
        0x000016c4:    e8bd8ff0    ....    POP      {r4-r11,pc}
        0x000016c8:    4801        .H      LDR      r0,[pc,#4] ; [0x16d0] = 0x302e30
        0x000016ca:    e7ec        ..      B        0x16a6 ; am_util_stdio_vsprintf + 1802
        0x000016cc:    4802        .H      LDR      r0,[pc,#8] ; [0x16d8] = 0x232e23
        0x000016ce:    e7ea        ..      B        0x16a6 ; am_util_stdio_vsprintf + 1802
    $d
        0x000016d0:    00302e30    0.0.    DCD    3157552
        0x000016d4:    003f2e3f    ?.?.    DCD    4140607
        0x000016d8:    00232e23    #.#.    DCD    2305571
    $t
    i.calc_func
    calc_func
        0x000016dc:    b5f0        ..      PUSH     {r4-r7,lr}
        0x000016de:    f9b06000    ...`    LDRSH    r6,[r0,#0]
        0x000016e2:    4607        .F      MOV      r7,r0
        0x000016e4:    f3c610c0    ....    UBFX     r0,r6,#7,#1
        0x000016e8:    b083        ..      SUB      sp,sp,#0xc
        0x000016ea:    460c        .F      MOV      r4,r1
        0x000016ec:    2800        .(      CMP      r0,#0
        0x000016ee:    bf1e        ..      ITTT     NE
        0x000016f0:    f006007f    ....    ANDNE    r0,r6,#0x7f
        0x000016f4:    b003        ..      ADDNE    sp,sp,#0xc
        0x000016f6:    bdf0        ..      POPNE    {r4-r7,pc}
        0x000016f8:    f0160007    ....    ANDS     r0,r6,#7
        0x000016fc:    f3c601c3    ....    UBFX     r1,r6,#3,#4
        0x00001700:    ea411101    A...    ORR      r1,r1,r1,LSL #4
        0x00001704:    d012        ..      BEQ      0x172c ; calc_func + 80
        0x00001706:    2801        .(      CMP      r0,#1
        0x00001708:    bf18        ..      IT       NE
        0x0000170a:    4635        5F      MOVNE    r5,r6
        0x0000170c:    d022        ".      BEQ      0x1754 ; calc_func + 120
        0x0000170e:    8f21        !.      LDRH     r1,[r4,#0x38]
        0x00001710:    b2a8        ..      UXTH     r0,r5
        0x00001712:    f000fc51    ..Q.    BL       crcu16 ; 0x1fb8
        0x00001716:    8720         .      STRH     r0,[r4,#0x38]
        0x00001718:    f005007f    ....    AND      r0,r5,#0x7f
        0x0000171c:    f406417f    ...A    AND      r1,r6,#0xff00
        0x00001720:    4301        .C      ORRS     r1,r1,r0
        0x00001722:    f0410180    A...    ORR      r1,r1,#0x80
        0x00001726:    8039        9.      STRH     r1,[r7,#0]
        0x00001728:    b003        ..      ADD      sp,sp,#0xc
        0x0000172a:    bdf0        ..      POP      {r4-r7,pc}
        0x0000172c:    2922        ")      CMP      r1,#0x22
        0x0000172e:    bfb8        ..      IT       LT
        0x00001730:    2122        "!      MOVLT    r1,#0x22
        0x00001732:    8f20         .      LDRH     r0,[r4,#0x38]
        0x00001734:    e9cd1000    ....    STRD     r1,r0,[sp,#0]
        0x00001738:    e9d41005    ....    LDRD     r1,r0,[r4,#0x14]
        0x0000173c:    f9b43002    ...0    LDRSH    r3,[r4,#2]
        0x00001740:    f9b42000    ...     LDRSH    r2,[r4,#0]
        0x00001744:    f000f90f    ....    BL       core_bench_state ; 0x1966
        0x00001748:    b205        ..      SXTH     r5,r0
        0x0000174a:    8fe0        ..      LDRH     r0,[r4,#0x3e]
        0x0000174c:    2800        .(      CMP      r0,#0
        0x0000174e:    bf08        ..      IT       EQ
        0x00001750:    87e5        ..      STRHEQ   r5,[r4,#0x3e]
        0x00001752:    e7dc        ..      B        0x170e ; calc_func + 50
        0x00001754:    8f22        ".      LDRH     r2,[r4,#0x38]
        0x00001756:    f1040028    ..(.    ADD      r0,r4,#0x28
        0x0000175a:    f000f8f3    ....    BL       core_bench_matrix ; 0x1944
        0x0000175e:    b205        ..      SXTH     r5,r0
        0x00001760:    8fa0        ..      LDRH     r0,[r4,#0x3c]
        0x00001762:    2800        .(      CMP      r0,#0
        0x00001764:    bf08        ..      IT       EQ
        0x00001766:    87a5        ..      STRHEQ   r5,[r4,#0x3c]
        0x00001768:    e7d1        ..      B        0x170e ; calc_func + 50
    i.check_data_types
    check_data_types
        0x0000176a:    2000        .       MOVS     r0,#0
        0x0000176c:    4770        pG      BX       lr
    i.cmp_complex
    cmp_complex
        0x0000176e:    b570        p.      PUSH     {r4-r6,lr}
        0x00001770:    460e        .F      MOV      r6,r1
        0x00001772:    4615        .F      MOV      r5,r2
        0x00001774:    4611        .F      MOV      r1,r2
        0x00001776:    f7ffffb1    ....    BL       calc_func ; 0x16dc
        0x0000177a:    4604        .F      MOV      r4,r0
        0x0000177c:    4629        )F      MOV      r1,r5
        0x0000177e:    4630        0F      MOV      r0,r6
        0x00001780:    f7ffffac    ....    BL       calc_func ; 0x16dc
        0x00001784:    1a20         .      SUBS     r0,r4,r0
        0x00001786:    bd70        p.      POP      {r4-r6,pc}
    i.cmp_idx
    cmp_idx
        0x00001788:    b96a        j.      CBNZ     r2,0x17a6 ; cmp_idx + 30
        0x0000178a:    8802        ..      LDRH     r2,[r0,#0]
        0x0000178c:    f402437f    ...C    AND      r3,r2,#0xff00
        0x00001790:    f3c22207    ..."    UBFX     r2,r2,#8,#8
        0x00001794:    431a        .C      ORRS     r2,r2,r3
        0x00001796:    8002        ..      STRH     r2,[r0,#0]
        0x00001798:    880a        ..      LDRH     r2,[r1,#0]
        0x0000179a:    f402437f    ...C    AND      r3,r2,#0xff00
        0x0000179e:    f3c22207    ..."    UBFX     r2,r2,#8,#8
        0x000017a2:    431a        .C      ORRS     r2,r2,r3
        0x000017a4:    800a        ..      STRH     r2,[r1,#0]
        0x000017a6:    f9b00002    ....    LDRSH    r0,[r0,#2]
        0x000017aa:    f9b11002    ....    LDRSH    r1,[r1,#2]
        0x000017ae:    1a40        @.      SUBS     r0,r0,r1
        0x000017b0:    4770        pG      BX       lr
        0x000017b2:    0000        ..      MOVS     r0,r0
    i.core_bench_list
    core_bench_list
        0x000017b4:    e92d5ff0    -.._    PUSH     {r4-r12,lr}
        0x000017b8:    f04f0c00    O...    MOV      r12,#0
        0x000017bc:    468a        .F      MOV      r10,r1
        0x000017be:    f9b0b004    ....    LDRSH    r11,[r0,#4]
        0x000017c2:    4667        gF      MOV      r7,r12
        0x000017c4:    463e        >F      MOV      r6,r7
        0x000017c6:    6a45        Ej      LDR      r5,[r0,#0x24]
        0x000017c8:    4602        .F      MOV      r2,r0
        0x000017ca:    46e1        .F      MOV      r9,r12
        0x000017cc:    46e0        .F      MOV      r8,r12
        0x000017ce:    f36a461f    j..F    BFI      r6,r10,#16,#16
        0x000017d2:    4661        aF      MOV      r1,r12
        0x000017d4:    f1bb0f00    ....    CMP      r11,#0
        0x000017d8:    dd45        E.      BLE      0x1866 ; core_bench_list + 178
        0x000017da:    b2c8        ..      UXTB     r0,r1
        0x000017dc:    f360060f    `...    BFI      r6,r0,#0,#16
        0x000017e0:    462c        ,F      MOV      r4,r5
        0x000017e2:    1433        3.      ASRS     r3,r6,#16
        0x000017e4:    d408        ..      BMI      0x17f8 ; core_bench_list + 68
        0x000017e6:    b184        ..      CBZ      r4,0x180a ; core_bench_list + 86
        0x000017e8:    6860        `h      LDR      r0,[r4,#4]
        0x000017ea:    f9b00002    ....    LDRSH    r0,[r0,#2]
        0x000017ee:    4298        .B      CMP      r0,r3
        0x000017f0:    bf18        ..      IT       NE
        0x000017f2:    6824        $h      LDRNE    r4,[r4,#0]
        0x000017f4:    d1f7        ..      BNE      0x17e6 ; core_bench_list + 50
        0x000017f6:    e008        ..      B        0x180a ; core_bench_list + 86
        0x000017f8:    b13c        <.      CBZ      r4,0x180a ; core_bench_list + 86
        0x000017fa:    f8d4e004    ....    LDR      lr,[r4,#4]
        0x000017fe:    f89ee000    ....    LDRB     lr,[lr,#0]
        0x00001802:    4586        .E      CMP      lr,r0
        0x00001804:    bf18        ..      IT       NE
        0x00001806:    6824        $h      LDRNE    r4,[r4,#0]
        0x00001808:    d1f6        ..      BNE      0x17f8 ; core_bench_list + 68
        0x0000180a:    2000        .       MOVS     r0,#0
        0x0000180c:    b13d        =.      CBZ      r5,0x181e ; core_bench_list + 106
        0x0000180e:    bf00        ..      NOP      
        0x00001810:    f8d5e000    ....    LDR      lr,[r5,#0]
        0x00001814:    6028        (`      STR      r0,[r5,#0]
        0x00001816:    4628        (F      MOV      r0,r5
        0x00001818:    ea5f050e    _...    MOVS     r5,lr
        0x0000181c:    d1f8        ..      BNE      0x1810 ; core_bench_list + 92
        0x0000181e:    4605        .F      MOV      r5,r0
        0x00001820:    2c00        .,      CMP      r4,#0
        0x00001822:    d048        H.      BEQ      0x18b6 ; core_bench_list + 258
        0x00001824:    f1090001    ....    ADD      r0,r9,#1
        0x00001828:    fa1ff980    ....    UXTH     r9,r0
        0x0000182c:    6860        `h      LDR      r0,[r4,#4]
        0x0000182e:    f9b00000    ....    LDRSH    r0,[r0,#0]
        0x00001832:    f0100f01    ....    TST      r0,#1
        0x00001836:    d004        ..      BEQ      0x1842 ; core_bench_list + 142
        0x00001838:    f3c02040    ..@     UBFX     r0,r0,#9,#1
        0x0000183c:    4460        `D      ADD      r0,r0,r12
        0x0000183e:    fa1ffc80    ....    UXTH     r12,r0
        0x00001842:    6820         h      LDR      r0,[r4,#0]
        0x00001844:    b130        0.      CBZ      r0,0x1854 ; core_bench_list + 160
        0x00001846:    f8d0e000    ....    LDR      lr,[r0,#0]
        0x0000184a:    f8c4e000    ....    STR      lr,[r4,#0]
        0x0000184e:    682c        ,h      LDR      r4,[r5,#0]
        0x00001850:    6004        .`      STR      r4,[r0,#0]
        0x00001852:    6028        (`      STR      r0,[r5,#0]
        0x00001854:    2b00        .+      CMP      r3,#0
        0x00001856:    bfa4        ..      ITT      GE
        0x00001858:    1c58        X.      ADDGE    r0,r3,#1
        0x0000185a:    f360461f    `..F    BFIGE    r6,r0,#16,#16
        0x0000185e:    1c48        H.      ADDS     r0,r1,#1
        0x00001860:    b201        ..      SXTH     r1,r0
        0x00001862:    4559        YE      CMP      r1,r11
        0x00001864:    dbb9        ..      BLT      0x17da ; core_bench_list + 38
        0x00001866:    ebc80089    ....    RSB      r0,r8,r9,LSL #2
        0x0000186a:    4460        `D      ADD      r0,r0,r12
        0x0000186c:    fa1ff880    ....    UXTH     r8,r0
        0x00001870:    f1ba0f00    ....    CMP      r10,#0
        0x00001874:    dd04        ..      BLE      0x1880 ; core_bench_list + 204
        0x00001876:    4931        1I      LDR      r1,[pc,#196] ; [0x193c] = 0x176f
        0x00001878:    4628        (F      MOV      r0,r5
        0x0000187a:    f000fa4d    ..M.    BL       core_list_mergesort ; 0x1d18
        0x0000187e:    4605        .F      MOV      r5,r0
        0x00001880:    6828        (h      LDR      r0,[r5,#0]
        0x00001882:    e9d09100    ....    LDRD     r9,r1,[r0,#0]
        0x00001886:    f8d92004    ...     LDR      r2,[r9,#4]
        0x0000188a:    6042        B`      STR      r2,[r0,#4]
        0x0000188c:    f8c91004    ....    STR      r1,[r9,#4]
        0x00001890:    6801        .h      LDR      r1,[r0,#0]
        0x00001892:    6809        .h      LDR      r1,[r1,#0]
        0x00001894:    6001        .`      STR      r1,[r0,#0]
        0x00001896:    4628        (F      MOV      r0,r5
        0x00001898:    f8c97000    ...p    STR      r7,[r9,#0]
        0x0000189c:    1431        1.      ASRS     r1,r6,#16
        0x0000189e:    bf48        H.      IT       MI
        0x000018a0:    b231        1.      SXTHMI   r1,r6
        0x000018a2:    d415        ..      BMI      0x18d0 ; core_bench_list + 284
        0x000018a4:    b1e8        ..      CBZ      r0,0x18e2 ; core_bench_list + 302
        0x000018a6:    6842        Bh      LDR      r2,[r0,#4]
        0x000018a8:    f9b22002    ...     LDRSH    r2,[r2,#2]
        0x000018ac:    428a        .B      CMP      r2,r1
        0x000018ae:    bf18        ..      IT       NE
        0x000018b0:    6800        .h      LDRNE    r0,[r0,#0]
        0x000018b2:    d1f7        ..      BNE      0x18a4 ; core_bench_list + 240
        0x000018b4:    e013        ..      B        0x18de ; core_bench_list + 298
        0x000018b6:    f1080001    ....    ADD      r0,r8,#1
        0x000018ba:    fa1ff880    ....    UXTH     r8,r0
        0x000018be:    6828        (h      LDR      r0,[r5,#0]
        0x000018c0:    6840        @h      LDR      r0,[r0,#4]
        0x000018c2:    8800        ..      LDRH     r0,[r0,#0]
        0x000018c4:    f3c02000    ...     UBFX     r0,r0,#8,#1
        0x000018c8:    4460        `D      ADD      r0,r0,r12
        0x000018ca:    fa1ffc80    ....    UXTH     r12,r0
        0x000018ce:    e7c1        ..      B        0x1854 ; core_bench_list + 160
        0x000018d0:    b138        8.      CBZ      r0,0x18e2 ; core_bench_list + 302
        0x000018d2:    6842        Bh      LDR      r2,[r0,#4]
        0x000018d4:    7812        .x      LDRB     r2,[r2,#0]
        0x000018d6:    428a        .B      CMP      r2,r1
        0x000018d8:    bf18        ..      IT       NE
        0x000018da:    6800        .h      LDRNE    r0,[r0,#0]
        0x000018dc:    d1f8        ..      BNE      0x18d0 ; core_bench_list + 284
        0x000018de:    4604        .F      MOV      r4,r0
        0x000018e0:    e001        ..      B        0x18e6 ; core_bench_list + 306
        0x000018e2:    682c        ,h      LDR      r4,[r5,#0]
        0x000018e4:    b14c        L.      CBZ      r4,0x18fa ; core_bench_list + 326
        0x000018e6:    6868        hh      LDR      r0,[r5,#4]
        0x000018e8:    4641        AF      MOV      r1,r8
        0x000018ea:    f9b00000    ....    LDRSH    r0,[r0,#0]
        0x000018ee:    f000fb3b    ..;.    BL       crc16 ; 0x1f68
        0x000018f2:    6824        $h      LDR      r4,[r4,#0]
        0x000018f4:    4680        .F      MOV      r8,r0
        0x000018f6:    2c00        .,      CMP      r4,#0
        0x000018f8:    d1f5        ..      BNE      0x18e6 ; core_bench_list + 306
        0x000018fa:    6828        (h      LDR      r0,[r5,#0]
        0x000018fc:    f8d91004    ....    LDR      r1,[r9,#4]
        0x00001900:    6842        Bh      LDR      r2,[r0,#4]
        0x00001902:    f8c92004    ...     STR      r2,[r9,#4]
        0x00001906:    6041        A`      STR      r1,[r0,#4]
        0x00001908:    6801        .h      LDR      r1,[r0,#0]
        0x0000190a:    f8c91000    ....    STR      r1,[r9,#0]
        0x0000190e:    f8c09000    ....    STR      r9,[r0,#0]
        0x00001912:    2200        ."      MOVS     r2,#0
        0x00001914:    490a        .I      LDR      r1,[pc,#40] ; [0x1940] = 0x1789
        0x00001916:    4628        (F      MOV      r0,r5
        0x00001918:    f000f9fe    ....    BL       core_list_mergesort ; 0x1d18
        0x0000191c:    6804        .h      LDR      r4,[r0,#0]
        0x0000191e:    4605        .F      MOV      r5,r0
        0x00001920:    b14c        L.      CBZ      r4,0x1936 ; core_bench_list + 386
        0x00001922:    6868        hh      LDR      r0,[r5,#4]
        0x00001924:    4641        AF      MOV      r1,r8
        0x00001926:    f9b00000    ....    LDRSH    r0,[r0,#0]
        0x0000192a:    f000fb1d    ....    BL       crc16 ; 0x1f68
        0x0000192e:    6824        $h      LDR      r4,[r4,#0]
        0x00001930:    4680        .F      MOV      r8,r0
        0x00001932:    2c00        .,      CMP      r4,#0
        0x00001934:    d1f5        ..      BNE      0x1922 ; core_bench_list + 366
        0x00001936:    4640        @F      MOV      r0,r8
        0x00001938:    e8bd9ff0    ....    POP      {r4-r12,pc}
    $d
        0x0000193c:    0000176f    o...    DCD    5999
        0x00001940:    00001789    ....    DCD    6025
    $t
    i.core_bench_matrix
    core_bench_matrix
        0x00001944:    b538        8.      PUSH     {r3-r5,lr}
        0x00001946:    4615        .F      MOV      r5,r2
        0x00001948:    e9d02301    ...#    LDRD     r2,r3,[r0,#4]
        0x0000194c:    f8d0c000    ....    LDR      r12,[r0,#0]
        0x00001950:    68c4        .h      LDR      r4,[r0,#0xc]
        0x00001952:    9100        ..      STR      r1,[sp,#0]
        0x00001954:    4621        !F      MOV      r1,r4
        0x00001956:    4660        `F      MOV      r0,r12
        0x00001958:    f001f888    ....    BL       matrix_test ; 0x2a6c
        0x0000195c:    4629        )F      MOV      r1,r5
        0x0000195e:    e8bd4038    ..8@    POP      {r3-r5,lr}
        0x00001962:    f000bb01    ....    B.W      crc16 ; 0x1f68
    i.core_bench_state
    core_bench_state
        0x00001966:    e92d4ff0    -..O    PUSH     {r4-r11,lr}
        0x0000196a:    b095        ..      SUB      sp,sp,#0x54
        0x0000196c:    4680        .F      MOV      r8,r0
        0x0000196e:    2000        .       MOVS     r0,#0
        0x00001970:    e9dd6a1e    ...j    LDRD     r6,r10,[sp,#0x78]
        0x00001974:    900a        ..      STR      r0,[sp,#0x28]
        0x00001976:    900b        ..      STR      r0,[sp,#0x2c]
        0x00001978:    900c        ..      STR      r0,[sp,#0x30]
        0x0000197a:    900f        ..      STR      r0,[sp,#0x3c]
        0x0000197c:    9010        ..      STR      r0,[sp,#0x40]
        0x0000197e:    900d        ..      STR      r0,[sp,#0x34]
        0x00001980:    900e        ..      STR      r0,[sp,#0x38]
        0x00001982:    9011        ..      STR      r0,[sp,#0x44]
        0x00001984:    9000        ..      STR      r0,[sp,#0]
        0x00001986:    9001        ..      STR      r0,[sp,#4]
        0x00001988:    460d        .F      MOV      r5,r1
        0x0000198a:    9002        ..      STR      r0,[sp,#8]
        0x0000198c:    9003        ..      STR      r0,[sp,#0xc]
        0x0000198e:    9004        ..      STR      r0,[sp,#0x10]
        0x00001990:    9005        ..      STR      r0,[sp,#0x14]
        0x00001992:    9006        ..      STR      r0,[sp,#0x18]
        0x00001994:    e9cd0507    ....    STRD     r0,r5,[sp,#0x1c]
        0x00001998:    7828        (x      LDRB     r0,[r5,#0]
        0x0000199a:    4699        .F      MOV      r9,r3
        0x0000199c:    4693        .F      MOV      r11,r2
        0x0000199e:    466f        oF      MOV      r7,sp
        0x000019a0:    b160        `.      CBZ      r0,0x19bc ; core_bench_state + 86
        0x000019a2:    a90a        ..      ADD      r1,sp,#0x28
        0x000019a4:    a808        ..      ADD      r0,sp,#0x20
        0x000019a6:    f000fa0a    ....    BL       core_state_transition ; 0x1dbe
        0x000019aa:    f8571020    W. .    LDR      r1,[r7,r0,LSL #2]
        0x000019ae:    1c49        I.      ADDS     r1,r1,#1
        0x000019b0:    f8471020    G. .    STR      r1,[r7,r0,LSL #2]
        0x000019b4:    9808        ..      LDR      r0,[sp,#0x20]
        0x000019b6:    7800        .x      LDRB     r0,[r0,#0]
        0x000019b8:    2800        .(      CMP      r0,#0
        0x000019ba:    d1f2        ..      BNE      0x19a2 ; core_bench_state + 60
        0x000019bc:    eb050008    ....    ADD      r0,r5,r8
        0x000019c0:    1b40        @.      SUBS     r0,r0,r5
        0x000019c2:    4430        0D      ADD      r0,r0,r6
        0x000019c4:    f1a00801    ....    SUB      r8,r0,#1
        0x000019c8:    fb98f0f6    ....    SDIV     r0,r8,r6
        0x000019cc:    462c        ,F      MOV      r4,r5
        0x000019ce:    9508        ..      STR      r5,[sp,#0x20]
        0x000019d0:    2800        .(      CMP      r0,#0
        0x000019d2:    bfc8        ..      IT       GT
        0x000019d4:    f00b02ff    ....    ANDGT    r2,r11,#0xff
        0x000019d8:    dd07        ..      BLE      0x19ea ; core_bench_state + 132
        0x000019da:    7821        !x      LDRB     r1,[r4,#0]
        0x000019dc:    292c        ,)      CMP      r1,#0x2c
        0x000019de:    bf1c        ..      ITT      NE
        0x000019e0:    4051        Q@      EORNE    r1,r1,r2
        0x000019e2:    7021        !p      STRBNE   r1,[r4,#0]
        0x000019e4:    4434        4D      ADD      r4,r4,r6
        0x000019e6:    1e40        @.      SUBS     r0,r0,#1
        0x000019e8:    d1f7        ..      BNE      0x19da ; core_bench_state + 116
        0x000019ea:    9508        ..      STR      r5,[sp,#0x20]
        0x000019ec:    7828        (x      LDRB     r0,[r5,#0]
        0x000019ee:    b160        `.      CBZ      r0,0x1a0a ; core_bench_state + 164
        0x000019f0:    a90a        ..      ADD      r1,sp,#0x28
        0x000019f2:    a808        ..      ADD      r0,sp,#0x20
        0x000019f4:    f000f9e3    ....    BL       core_state_transition ; 0x1dbe
        0x000019f8:    f8571020    W. .    LDR      r1,[r7,r0,LSL #2]
        0x000019fc:    1c49        I.      ADDS     r1,r1,#1
        0x000019fe:    f8471020    G. .    STR      r1,[r7,r0,LSL #2]
        0x00001a02:    9808        ..      LDR      r0,[sp,#0x20]
        0x00001a04:    7800        .x      LDRB     r0,[r0,#0]
        0x00001a06:    2800        .(      CMP      r0,#0
        0x00001a08:    d1f2        ..      BNE      0x19f0 ; core_bench_state + 138
        0x00001a0a:    fb98f0f6    ....    SDIV     r0,r8,r6
        0x00001a0e:    9508        ..      STR      r5,[sp,#0x20]
        0x00001a10:    2800        .(      CMP      r0,#0
        0x00001a12:    bfc8        ..      IT       GT
        0x00001a14:    f00902ff    ....    ANDGT    r2,r9,#0xff
        0x00001a18:    dd07        ..      BLE      0x1a2a ; core_bench_state + 196
        0x00001a1a:    7829        )x      LDRB     r1,[r5,#0]
        0x00001a1c:    292c        ,)      CMP      r1,#0x2c
        0x00001a1e:    bf1c        ..      ITT      NE
        0x00001a20:    4051        Q@      EORNE    r1,r1,r2
        0x00001a22:    7029        )p      STRBNE   r1,[r5,#0]
        0x00001a24:    4435        5D      ADD      r5,r5,r6
        0x00001a26:    1e40        @.      SUBS     r0,r0,#1
        0x00001a28:    d1f7        ..      BNE      0x1a1a ; core_bench_state + 180
        0x00001a2a:    2400        .$      MOVS     r4,#0
        0x00001a2c:    ad0a        ..      ADD      r5,sp,#0x28
        0x00001a2e:    f8570024    W.$.    LDR      r0,[r7,r4,LSL #2]
        0x00001a32:    4651        QF      MOV      r1,r10
        0x00001a34:    f000fae5    ....    BL       crcu32 ; 0x2002
        0x00001a38:    f8552024    U.$     LDR      r2,[r5,r4,LSL #2]
        0x00001a3c:    4601        .F      MOV      r1,r0
        0x00001a3e:    4610        .F      MOV      r0,r2
        0x00001a40:    f000fadf    ....    BL       crcu32 ; 0x2002
        0x00001a44:    1c64        d.      ADDS     r4,r4,#1
        0x00001a46:    4682        .F      MOV      r10,r0
        0x00001a48:    2c08        .,      CMP      r4,#8
        0x00001a4a:    d3f0        ..      BCC      0x1a2e ; core_bench_state + 200
        0x00001a4c:    b015        ..      ADD      sp,sp,#0x54
        0x00001a4e:    e8bd8ff0    ....    POP      {r4-r11,pc}
        0x00001a52:    0000        ..      MOVS     r0,r0
    i.core_init_matrix
    core_init_matrix
        0x00001a54:    e92d4ff0    -..O    PUSH     {r4-r11,lr}
        0x00001a58:    2400        .$      MOVS     r4,#0
        0x00001a5a:    f04f0c01    O...    MOV      r12,#1
        0x00001a5e:    2a00        .*      CMP      r2,#0
        0x00001a60:    bf08        ..      IT       EQ
        0x00001a62:    2201        ."      MOVEQ    r2,#1
        0x00001a64:    2800        .(      CMP      r0,#0
        0x00001a66:    d905        ..      BLS      0x1a74 ; core_init_matrix + 32
        0x00001a68:    1c64        d.      ADDS     r4,r4,#1
        0x00001a6a:    fb04f504    ....    MUL      r5,r4,r4
        0x00001a6e:    00ed        ..      LSLS     r5,r5,#3
        0x00001a70:    42a8        .B      CMP      r0,r5
        0x00001a72:    d8f9        ..      BHI      0x1a68 ; core_init_matrix + 20
        0x00001a74:    1e49        I.      SUBS     r1,r1,#1
        0x00001a76:    1e60        `.      SUBS     r0,r4,#1
        0x00001a78:    f0210103    !...    BIC      r1,r1,#3
        0x00001a7c:    f1010b04    ....    ADD      r11,r1,#4
        0x00001a80:    fb00fe00    ....    MUL      lr,r0,r0
        0x00001a84:    eb0b0a4e    ..N.    ADD      r10,r11,lr,LSL #1
        0x00001a88:    2800        .(      CMP      r0,#0
        0x00001a8a:    bf18        ..      IT       NE
        0x00001a8c:    2100        .!      MOVNE    r1,#0
        0x00001a8e:    d928        (.      BLS      0x1ae2 ; core_init_matrix + 142
        0x00001a90:    e000        ..      B        0x1a94 ; core_init_matrix + 64
        0x00001a92:    b318        ..      CBZ      r0,0x1adc ; core_init_matrix + 136
        0x00001a94:    fb01f400    ....    MUL      r4,r1,r0
        0x00001a98:    eb0a0644    ..D.    ADD      r6,r10,r4,LSL #1
        0x00001a9c:    eb0b0544    ..D.    ADD      r5,r11,r4,LSL #1
        0x00001aa0:    f04f0400    O...    MOV      r4,#0
        0x00001aa4:    ea4f0700    O...    MOV.W    r7,r0
        0x00001aa8:    eb0c0904    ....    ADD      r9,r12,r4
        0x00001aac:    fb09f202    ....    MUL      r2,r9,r2
        0x00001ab0:    ea4f78e2    O..x    ASR      r8,r2,#31
        0x00001ab4:    eb024818    ...H    ADD      r8,r2,r8,LSR #16
        0x00001ab8:    f36f080f    o...    BFC      r8,#0,#16
        0x00001abc:    eba20208    ....    SUB      r2,r2,r8
        0x00001ac0:    eb090802    ....    ADD      r8,r9,r2
        0x00001ac4:    f8268b02    &...    STRH     r8,[r6],#2
        0x00001ac8:    44c8        .D      ADD      r8,r8,r9
        0x00001aca:    f00808ff    ....    AND      r8,r8,#0xff
        0x00001ace:    f8258b02    %...    STRH     r8,[r5],#2
        0x00001ad2:    f1040401    ....    ADD      r4,r4,#1
        0x00001ad6:    1e7f        ..      SUBS     r7,r7,#1
        0x00001ad8:    d1e6        ..      BNE      0x1aa8 ; core_init_matrix + 84
        0x00001ada:    4484        .D      ADD      r12,r12,r0
        0x00001adc:    1c49        I.      ADDS     r1,r1,#1
        0x00001ade:    4281        .B      CMP      r1,r0
        0x00001ae0:    d3d7        ..      BCC      0x1a92 ; core_init_matrix + 62
        0x00001ae2:    eb0a014e    ..N.    ADD      r1,r10,lr,LSL #1
        0x00001ae6:    e9c3ba01    ....    STRD     r11,r10,[r3,#4]
        0x00001aea:    1e49        I.      SUBS     r1,r1,#1
        0x00001aec:    f0210103    !...    BIC      r1,r1,#3
        0x00001af0:    1d09        ..      ADDS     r1,r1,#4
        0x00001af2:    60d9        .`      STR      r1,[r3,#0xc]
        0x00001af4:    6018        .`      STR      r0,[r3,#0]
        0x00001af6:    e8bd8ff0    ....    POP      {r4-r11,pc}
        0x00001afa:    0000        ..      MOVS     r0,r0
    i.core_init_state
    core_init_state
        0x00001afc:    e92d4ff8    -..O    PUSH     {r3-r11,lr}
        0x00001b00:    f04f0c00    O...    MOV      r12,#0
        0x00001b04:    f1a00801    ....    SUB      r8,r0,#1
        0x00001b08:    4665        eF      MOV      r5,r12
        0x00001b0a:    4666        fF      MOV      r6,r12
        0x00001b0c:    4667        gF      MOV      r7,r12
        0x00001b0e:    f1b80f01    ....    CMP      r8,#1
        0x00001b12:    d94d        M.      BLS      0x1bb0 ; core_init_state + 180
        0x00001b14:    f8dfa0e8    ....    LDR      r10,[pc,#232] ; [0x1c00] = 0x10000060
        0x00001b18:    f10a0b10    ....    ADD      r11,r10,#0x10
        0x00001b1c:    f10a0e20    .. .    ADD      lr,r10,#0x20
        0x00001b20:    e01d        ..      B        0x1b5e ; core_init_state + 98
        0x00001b22:    b1e5        ..      CBZ      r5,0x1b5e ; core_init_state + 98
        0x00001b24:    eb02000c    ....    ADD      r0,r2,r12
        0x00001b28:    1e73        s.      SUBS     r3,r6,#1
        0x00001b2a:    9000        ..      STR      r0,[sp,#0]
        0x00001b2c:    1e40        @.      SUBS     r0,r0,#1
        0x00001b2e:    f0150f01    ....    TST      r5,#1
        0x00001b32:    d003        ..      BEQ      0x1b3c ; core_init_state + 64
        0x00001b34:    f813cf01    ....    LDRB     r12,[r3,#1]!
        0x00001b38:    f800cf01    ....    STRB     r12,[r0,#1]!
        0x00001b3c:    ea5f0c55    _.U.    LSRS     r12,r5,#1
        0x00001b40:    d008        ..      BEQ      0x1b54 ; core_init_state + 88
        0x00001b42:    785c        \x      LDRB     r4,[r3,#1]
        0x00001b44:    7044        Dp      STRB     r4,[r0,#1]
        0x00001b46:    f8134f02    ...O    LDRB     r4,[r3,#2]!
        0x00001b4a:    f8004f02    ...O    STRB     r4,[r0,#2]!
        0x00001b4e:    f1bc0c01    ....    SUBS     r12,r12,#1
        0x00001b52:    d1f6        ..      BNE      0x1b42 ; core_init_state + 70
        0x00001b54:    9b00        ..      LDR      r3,[sp,#0]
        0x00001b56:    202c        ,       MOVS     r0,#0x2c
        0x00001b58:    f1090c01    ....    ADD      r12,r9,#1
        0x00001b5c:    5558        XU      STRB     r0,[r3,r5]
        0x00001b5e:    1c48        H.      ADDS     r0,r1,#1
        0x00001b60:    b201        ..      SXTH     r1,r0
        0x00001b62:    f0010007    ....    AND      r0,r1,#7
        0x00001b66:    2808        .(      CMP      r0,#8
        0x00001b68:    d21c        ..      BCS      0x1ba4 ; core_init_state + 168
        0x00001b6a:    e8dff000    ....    TBB      [pc,r0]
    $d
        0x00001b6e:    0404        ..      DCW    1028
        0x00001b70:    0f0a0a04    ....    DCD    252316164
        0x00001b74:    150f        ..      DCW    5391
    $t
        0x00001b76:    f3c100c1    ....    UBFX     r0,r1,#3,#2
        0x00001b7a:    2504        .%      MOVS     r5,#4
        0x00001b7c:    f85a6020    Z. `    LDR      r6,[r10,r0,LSL #2]
        0x00001b80:    e010        ..      B        0x1ba4 ; core_init_state + 168
        0x00001b82:    f3c100c1    ....    UBFX     r0,r1,#3,#2
        0x00001b86:    f85b6020    [. `    LDR      r6,[r11,r0,LSL #2]
        0x00001b8a:    e003        ..      B        0x1b94 ; core_init_state + 152
        0x00001b8c:    f3c100c1    ....    UBFX     r0,r1,#3,#2
        0x00001b90:    f85e6020    ^. `    LDR      r6,[lr,r0,LSL #2]
        0x00001b94:    2508        .%      MOVS     r5,#8
        0x00001b96:    e005        ..      B        0x1ba4 ; core_init_state + 168
        0x00001b98:    481a        .H      LDR      r0,[pc,#104] ; [0x1c04] = 0x10000090
        0x00001b9a:    f3c103c1    ....    UBFX     r3,r1,#3,#2
        0x00001b9e:    2508        .%      MOVS     r5,#8
        0x00001ba0:    f8506023    P.#`    LDR      r6,[r0,r3,LSL #2]
        0x00001ba4:    eb0c0905    ....    ADD      r9,r12,r5
        0x00001ba8:    f1090001    ....    ADD      r0,r9,#1
        0x00001bac:    4540        @E      CMP      r0,r8
        0x00001bae:    d3b8        ..      BCC      0x1b22 ; core_init_state + 38
        0x00001bb0:    f1080001    ....    ADD      r0,r8,#1
        0x00001bb4:    4584        .E      CMP      r12,r0
        0x00001bb6:    bf38        8.      IT       CC
        0x00001bb8:    f1b04f00    ...O    CMPCC    r0,#0x80000000
        0x00001bbc:    d214        ..      BCS      0x1be8 ; core_init_state + 236
        0x00001bbe:    eb02010c    ....    ADD      r1,r2,r12
        0x00001bc2:    eba0000c    ....    SUB      r0,r0,r12
        0x00001bc6:    1e49        I.      SUBS     r1,r1,#1
        0x00001bc8:    f0100f01    ....    TST      r0,#1
        0x00001bcc:    bf18        ..      IT       NE
        0x00001bce:    f8017f01    ....    STRBNE   r7,[r1,#1]!
        0x00001bd2:    0840        @.      LSRS     r0,r0,#1
        0x00001bd4:    bf08        ..      IT       EQ
        0x00001bd6:    e8bd8ff8    ....    POPEQ    {r3-r11,pc}
        0x00001bda:    704f        Op      STRB     r7,[r1,#1]
        0x00001bdc:    f8017f02    ....    STRB     r7,[r1,#2]!
        0x00001be0:    1e40        @.      SUBS     r0,r0,#1
        0x00001be2:    d1fa        ..      BNE      0x1bda ; core_init_state + 222
        0x00001be4:    e8bd8ff8    ....    POP      {r3-r11,pc}
        0x00001be8:    4560        `E      CMP      r0,r12
        0x00001bea:    bf98        ..      IT       LS
        0x00001bec:    e8bd8ff8    ....    POPLS    {r3-r11,pc}
        0x00001bf0:    f802700c    ...p    STRB     r7,[r2,r12]
        0x00001bf4:    f10c0c01    ....    ADD      r12,r12,#1
        0x00001bf8:    4584        .E      CMP      r12,r0
        0x00001bfa:    d3f9        ..      BCC      0x1bf0 ; core_init_state + 244
        0x00001bfc:    e8bd8ff8    ....    POP      {r3-r11,pc}
    $d
        0x00001c00:    10000060    `...    DCD    268435552
        0x00001c04:    10000090    ....    DCD    268435600
    $t
    i.core_list_init
    core_list_init
        0x00001c08:    e92d0ff0    -...    PUSH     {r4-r11}
        0x00001c0c:    2314        .#      MOVS     r3,#0x14
        0x00001c0e:    fbb0f0f3    ....    UDIV     r0,r0,r3
        0x00001c12:    1e87        ..      SUBS     r7,r0,#2
        0x00001c14:    eb0104c7    ....    ADD      r4,r1,r7,LSL #3
        0x00001c18:    2300        .#      MOVS     r3,#0
        0x00001c1a:    604c        L`      STR      r4,[r1,#4]
        0x00001c1c:    600b        .`      STR      r3,[r1,#0]
        0x00001c1e:    8063        c.      STRH     r3,[r4,#2]
        0x00001c20:    f8d1c004    ....    LDR      r12,[r1,#4]
        0x00001c24:    f2480380    H...    MOV      r3,#0x8080
        0x00001c28:    4608        .F      MOV      r0,r1
        0x00001c2a:    f8ac3000    ...0    STRH     r3,[r12,#0]
        0x00001c2e:    f1010c08    ....    ADD      r12,r1,#8
        0x00001c32:    1d23        #.      ADDS     r3,r4,#4
        0x00001c34:    3110        .1      ADDS     r1,r1,#0x10
        0x00001c36:    eb040587    ....    ADD      r5,r4,r7,LSL #2
        0x00001c3a:    f64779ff    G..y    MOV      r9,#0x7fff
        0x00001c3e:    f04f36ff    O..6    MOV      r6,#0xffffffff
        0x00001c42:    42a1        .B      CMP      r1,r4
        0x00001c44:    bf3c        <.      ITT      CC
        0x00001c46:    f1030804    ....    ADDCC    r8,r3,#4
        0x00001c4a:    45a8        .E      CMPCC    r8,r5
        0x00001c4c:    d20d        ..      BCS      0x1c6a ; core_list_init + 98
        0x00001c4e:    4661        aF      MOV      r1,r12
        0x00001c50:    f8d08000    ....    LDR      r8,[r0,#0]
        0x00001c54:    f8c18000    ....    STR      r8,[r1,#0]
        0x00001c58:    6001        .`      STR      r1,[r0,#0]
        0x00001c5a:    604b        K`      STR      r3,[r1,#4]
        0x00001c5c:    4619        .F      MOV      r1,r3
        0x00001c5e:    f10c0c08    ....    ADD      r12,r12,#8
        0x00001c62:    800e        ..      STRH     r6,[r1,#0]
        0x00001c64:    1d1b        ..      ADDS     r3,r3,#4
        0x00001c66:    f8a19002    ....    STRH     r9,[r1,#2]
        0x00001c6a:    2100        .!      MOVS     r1,#0
        0x00001c6c:    2f00        ./      CMP      r7,#0
        0x00001c6e:    d922        ".      BLS      0x1cb6 ; core_list_init + 174
        0x00001c70:    ea820601    ....    EOR      r6,r2,r1
        0x00001c74:    f006080f    ....    AND      r8,r6,#0xf
        0x00001c78:    460e        .F      MOV      r6,r1
        0x00001c7a:    f36806df    h...    BFI      r6,r8,#3,#29
        0x00001c7e:    ea462a06    F..*    ORR      r10,r6,r6,LSL #8
        0x00001c82:    f10c0608    ....    ADD      r6,r12,#8
        0x00001c86:    42a6        .B      CMP      r6,r4
        0x00001c88:    bf3c        <.      ITT      CC
        0x00001c8a:    f1030804    ....    ADDCC    r8,r3,#4
        0x00001c8e:    45a8        .E      CMPCC    r8,r5
        0x00001c90:    d20e        ..      BCS      0x1cb0 ; core_list_init + 168
        0x00001c92:    46e0        .F      MOV      r8,r12
        0x00001c94:    6806        .h      LDR      r6,[r0,#0]
        0x00001c96:    f8c86000    ...`    STR      r6,[r8,#0]
        0x00001c9a:    f8c08000    ....    STR      r8,[r0,#0]
        0x00001c9e:    f8c83004    ...0    STR      r3,[r8,#4]
        0x00001ca2:    f8a3a000    ....    STRH     r10,[r3,#0]
        0x00001ca6:    f8a39002    ....    STRH     r9,[r3,#2]
        0x00001caa:    f10c0c08    ....    ADD      r12,r12,#8
        0x00001cae:    1d1b        ..      ADDS     r3,r3,#4
        0x00001cb0:    1c49        I.      ADDS     r1,r1,#1
        0x00001cb2:    42b9        .B      CMP      r1,r7
        0x00001cb4:    d3dc        ..      BCC      0x1c70 ; core_list_init + 104
        0x00001cb6:    6803        .h      LDR      r3,[r0,#0]
        0x00001cb8:    2101        .!      MOVS     r1,#1
        0x00001cba:    f8d3c000    ....    LDR      r12,[r3,#0]
        0x00001cbe:    f1bc0f00    ....    CMP      r12,#0
        0x00001cc2:    d01f        ..      BEQ      0x1d04 ; core_list_init + 252
        0x00001cc4:    f8dfc048    ..H.    LDR      r12,[pc,#72] ; [0x1d10] = 0xcccccccd
        0x00001cc8:    fbac4c07    ...L    UMULL    r4,r12,r12,r7
        0x00001ccc:    ea4f049c    O...    LSR      r4,r12,#2
        0x00001cd0:    428c        .B      CMP      r4,r1
        0x00001cd2:    d905        ..      BLS      0x1ce0 ; core_list_init + 216
        0x00001cd4:    f8d3c004    ....    LDR      r12,[r3,#4]
        0x00001cd8:    f8ac1002    ....    STRH     r1,[r12,#2]
        0x00001cdc:    1c49        I.      ADDS     r1,r1,#1
        0x00001cde:    e00b        ..      B        0x1cf8 ; core_list_init + 240
        0x00001ce0:    ea810c02    ....    EOR      r12,r1,r2
        0x00001ce4:    1c49        I.      ADDS     r1,r1,#1
        0x00001ce6:    f0010507    ....    AND      r5,r1,#7
        0x00001cea:    ea4c2c05    L..,    ORR      r12,r12,r5,LSL #8
        0x00001cee:    685d        ]h      LDR      r5,[r3,#4]
        0x00001cf0:    f3cc0c0d    ....    UBFX     r12,r12,#0,#14
        0x00001cf4:    f8a5c002    ....    STRH     r12,[r5,#2]
        0x00001cf8:    681b        .h      LDR      r3,[r3,#0]
        0x00001cfa:    f8d3c000    ....    LDR      r12,[r3,#0]
        0x00001cfe:    f1bc0f00    ....    CMP      r12,#0
        0x00001d02:    d1e5        ..      BNE      0x1cd0 ; core_list_init + 200
        0x00001d04:    e8bd0ff0    ....    POP      {r4-r11}
        0x00001d08:    2200        ."      MOVS     r2,#0
        0x00001d0a:    4902        .I      LDR      r1,[pc,#8] ; [0x1d14] = 0x1789
        0x00001d0c:    f000b804    ....    B.W      core_list_mergesort ; 0x1d18
    $d
        0x00001d10:    cccccccd    ....    DCD    3435973837
        0x00001d14:    00001789    ....    DCD    6025
    $t
    i.core_list_mergesort
    core_list_mergesort
        0x00001d18:    e92d4ff7    -..O    PUSH     {r0-r2,r4-r11,lr}
        0x00001d1c:    4682        .F      MOV      r10,r0
        0x00001d1e:    f04f0901    O...    MOV      r9,#1
        0x00001d22:    bf00        ..      NOP      
        0x00001d24:    ea5f050a    _...    MOVS     r5,r10
        0x00001d28:    f04f0a00    O...    MOV      r10,#0
        0x00001d2c:    4657        WF      MOV      r7,r10
        0x00001d2e:    46d3        .F      MOV      r11,r10
        0x00001d30:    d03f        ?.      BEQ      0x1db2 ; core_list_mergesort + 154
        0x00001d32:    2600        .&      MOVS     r6,#0
        0x00001d34:    462c        ,F      MOV      r4,r5
        0x00001d36:    4630        0F      MOV      r0,r6
        0x00001d38:    f10b0b01    ....    ADD      r11,r11,#1
        0x00001d3c:    f1b90f00    ....    CMP      r9,#0
        0x00001d40:    bfd8        ..      IT       LE
        0x00001d42:    46c8        .F      MOVLE    r8,r9
        0x00001d44:    dd24        $.      BLE      0x1d90 ; core_list_mergesort + 120
        0x00001d46:    6824        $h      LDR      r4,[r4,#0]
        0x00001d48:    1c76        v.      ADDS     r6,r6,#1
        0x00001d4a:    2c00        .,      CMP      r4,#0
        0x00001d4c:    bf1c        ..      ITT      NE
        0x00001d4e:    1c40        @.      ADDNE    r0,r0,#1
        0x00001d50:    4548        HE      CMPNE    r0,r9
        0x00001d52:    dbf8        ..      BLT      0x1d46 ; core_list_mergesort + 46
        0x00001d54:    46c8        .F      MOV      r8,r9
        0x00001d56:    2e00        ..      CMP      r6,#0
        0x00001d58:    dd1a        ..      BLE      0x1d90 ; core_list_mergesort + 120
        0x00001d5a:    b17e        ~.      CBZ      r6,0x1d7c ; core_list_mergesort + 100
        0x00001d5c:    f1b80f00    ....    CMP      r8,#0
        0x00001d60:    bf18        ..      IT       NE
        0x00001d62:    2c00        .,      CMPNE    r4,#0
        0x00001d64:    d006        ..      BEQ      0x1d74 ; core_list_mergesort + 92
        0x00001d66:    e9dd3201    ...2    LDRD     r3,r2,[sp,#4]
        0x00001d6a:    6861        ah      LDR      r1,[r4,#4]
        0x00001d6c:    6868        hh      LDR      r0,[r5,#4]
        0x00001d6e:    4798        .G      BLX      r3
        0x00001d70:    2800        .(      CMP      r0,#0
        0x00001d72:    dc03        ..      BGT      0x1d7c ; core_list_mergesort + 100
        0x00001d74:    4628        (F      MOV      r0,r5
        0x00001d76:    682d        -h      LDR      r5,[r5,#0]
        0x00001d78:    1e76        v.      SUBS     r6,r6,#1
        0x00001d7a:    e003        ..      B        0x1d84 ; core_list_mergesort + 108
        0x00001d7c:    4620         F      MOV      r0,r4
        0x00001d7e:    6824        $h      LDR      r4,[r4,#0]
        0x00001d80:    f1a80801    ....    SUB      r8,r8,#1
        0x00001d84:    2f00        ./      CMP      r7,#0
        0x00001d86:    bf14        ..      ITE      NE
        0x00001d88:    6038        8`      STRNE    r0,[r7,#0]
        0x00001d8a:    4682        .F      MOVEQ    r10,r0
        0x00001d8c:    4607        .F      MOV      r7,r0
        0x00001d8e:    e7e2        ..      B        0x1d56 ; core_list_mergesort + 62
        0x00001d90:    f1b80f00    ....    CMP      r8,#0
        0x00001d94:    dd02        ..      BLE      0x1d9c ; core_list_mergesort + 132
        0x00001d96:    2c00        .,      CMP      r4,#0
        0x00001d98:    d1df        ..      BNE      0x1d5a ; core_list_mergesort + 66
        0x00001d9a:    e001        ..      B        0x1da0 ; core_list_mergesort + 136
        0x00001d9c:    0025        %.      MOVS     r5,r4
        0x00001d9e:    d1c8        ..      BNE      0x1d32 ; core_list_mergesort + 26
        0x00001da0:    2000        .       MOVS     r0,#0
        0x00001da2:    6038        8`      STR      r0,[r7,#0]
        0x00001da4:    f1bb0f01    ....    CMP      r11,#1
        0x00001da8:    bfc8        ..      IT       GT
        0x00001daa:    ea4f0949    O.I.    LSLGT    r9,r9,#1
        0x00001dae:    dcb9        ..      BGT      0x1d24 ; core_list_mergesort + 12
        0x00001db0:    e001        ..      B        0x1db6 ; core_list_mergesort + 158
        0x00001db2:    2000        .       MOVS     r0,#0
        0x00001db4:    6000        .`      STR      r0,[r0,#0]
        0x00001db6:    b003        ..      ADD      sp,sp,#0xc
        0x00001db8:    4650        PF      MOV      r0,r10
        0x00001dba:    e8bd8ff0    ....    POP      {r4-r11,pc}
    i.core_state_transition
    core_state_transition
        0x00001dbe:    6803        .h      LDR      r3,[r0,#0]
        0x00001dc0:    4684        .F      MOV      r12,r0
        0x00001dc2:    2000        .       MOVS     r0,#0
        0x00001dc4:    781a        .x      LDRB     r2,[r3,#0]
        0x00001dc6:    2a00        .*      CMP      r2,#0
        0x00001dc8:    f00080ca    ....    BEQ.W    0x1f60 ; core_state_transition + 418
        0x00001dcc:    2a2c        ,*      CMP      r2,#0x2c
        0x00001dce:    d05b        [.      BEQ      0x1e88 ; core_state_transition + 202
        0x00001dd0:    f1a20030    ..0.    SUB      r0,r2,#0x30
        0x00001dd4:    2809        .(      CMP      r0,#9
        0x00001dd6:    d833        3.      BHI      0x1e40 ; core_state_transition + 130
        0x00001dd8:    680a        .h      LDR      r2,[r1,#0]
        0x00001dda:    2004        .       MOVS     r0,#4
        0x00001ddc:    1c52        R.      ADDS     r2,r2,#1
        0x00001dde:    600a        .`      STR      r2,[r1,#0]
        0x00001de0:    f8132f01    .../    LDRB     r2,[r3,#1]!
        0x00001de4:    2a00        .*      CMP      r2,#0
        0x00001de6:    d076        v.      BEQ      0x1ed6 ; core_state_transition + 280
        0x00001de8:    2a2c        ,*      CMP      r2,#0x2c
        0x00001dea:    d07b        {.      BEQ      0x1ee4 ; core_state_transition + 294
        0x00001dec:    e05e        ^.      B        0x1eac ; core_state_transition + 238
        0x00001dee:    f1a20030    ..0.    SUB      r0,r2,#0x30
        0x00001df2:    2809        .(      CMP      r0,#9
        0x00001df4:    d870        p.      BHI      0x1ed8 ; core_state_transition + 282
        0x00001df6:    698a        .i      LDR      r2,[r1,#0x18]
        0x00001df8:    2007        .       MOVS     r0,#7
        0x00001dfa:    1c52        R.      ADDS     r2,r2,#1
        0x00001dfc:    618a        .a      STR      r2,[r1,#0x18]
        0x00001dfe:    f8132f01    .../    LDRB     r2,[r3,#1]!
        0x00001e02:    2a00        .*      CMP      r2,#0
        0x00001e04:    d067        g.      BEQ      0x1ed6 ; core_state_transition + 280
        0x00001e06:    2a2c        ,*      CMP      r2,#0x2c
        0x00001e08:    d167        g.      BNE      0x1eda ; core_state_transition + 284
        0x00001e0a:    e06b        k.      B        0x1ee4 ; core_state_transition + 294
        0x00001e0c:    2a2b        +*      CMP      r2,#0x2b
        0x00001e0e:    bf18        ..      IT       NE
        0x00001e10:    2a2d        -*      CMPNE    r2,#0x2d
        0x00001e12:    d077        w.      BEQ      0x1f04 ; core_state_transition + 326
        0x00001e14:    68ca        .h      LDR      r2,[r1,#0xc]
        0x00001e16:    f04f0001    O...    MOV      r0,#1
        0x00001e1a:    f1020201    ....    ADD      r2,r2,#1
        0x00001e1e:    60ca        .`      STR      r2,[r1,#0xc]
        0x00001e20:    e060        `.      B        0x1ee4 ; core_state_transition + 294
        0x00001e22:    f1a20030    ..0.    SUB      r0,r2,#0x30
        0x00001e26:    2809        .(      CMP      r0,#9
        0x00001e28:    d82f        /.      BHI      0x1e8a ; core_state_transition + 204
        0x00001e2a:    688a        .h      LDR      r2,[r1,#8]
        0x00001e2c:    2004        .       MOVS     r0,#4
        0x00001e2e:    1c52        R.      ADDS     r2,r2,#1
        0x00001e30:    608a        .`      STR      r2,[r1,#8]
        0x00001e32:    f8132f01    .../    LDRB     r2,[r3,#1]!
        0x00001e36:    2a00        .*      CMP      r2,#0
        0x00001e38:    d04d        M.      BEQ      0x1ed6 ; core_state_transition + 280
        0x00001e3a:    2a2c        ,*      CMP      r2,#0x2c
        0x00001e3c:    d052        R.      BEQ      0x1ee4 ; core_state_transition + 294
        0x00001e3e:    e035        5.      B        0x1eac ; core_state_transition + 238
        0x00001e40:    2a2b        +*      CMP      r2,#0x2b
        0x00001e42:    bf18        ..      IT       NE
        0x00001e44:    2a2d        -*      CMPNE    r2,#0x2d
        0x00001e46:    d00a        ..      BEQ      0x1e5e ; core_state_transition + 160
        0x00001e48:    2a2e        .*      CMP      r2,#0x2e
        0x00001e4a:    d013        ..      BEQ      0x1e74 ; core_state_transition + 182
        0x00001e4c:    684a        Jh      LDR      r2,[r1,#4]
        0x00001e4e:    2001        .       MOVS     r0,#1
        0x00001e50:    1c52        R.      ADDS     r2,r2,#1
        0x00001e52:    604a        J`      STR      r2,[r1,#4]
        0x00001e54:    680a        .h      LDR      r2,[r1,#0]
        0x00001e56:    1c52        R.      ADDS     r2,r2,#1
        0x00001e58:    1c5b        [.      ADDS     r3,r3,#1
        0x00001e5a:    600a        .`      STR      r2,[r1,#0]
        0x00001e5c:    e080        ..      B        0x1f60 ; core_state_transition + 418
        0x00001e5e:    680a        .h      LDR      r2,[r1,#0]
        0x00001e60:    2002        .       MOVS     r0,#2
        0x00001e62:    1c52        R.      ADDS     r2,r2,#1
        0x00001e64:    600a        .`      STR      r2,[r1,#0]
        0x00001e66:    f8132f01    .../    LDRB     r2,[r3,#1]!
        0x00001e6a:    2a00        .*      CMP      r2,#0
        0x00001e6c:    d078        x.      BEQ      0x1f60 ; core_state_transition + 418
        0x00001e6e:    2a2c        ,*      CMP      r2,#0x2c
        0x00001e70:    d038        8.      BEQ      0x1ee4 ; core_state_transition + 294
        0x00001e72:    e7d6        ..      B        0x1e22 ; core_state_transition + 100
        0x00001e74:    680a        .h      LDR      r2,[r1,#0]
        0x00001e76:    2005        .       MOVS     r0,#5
        0x00001e78:    1c52        R.      ADDS     r2,r2,#1
        0x00001e7a:    600a        .`      STR      r2,[r1,#0]
        0x00001e7c:    f8132f01    .../    LDRB     r2,[r3,#1]!
        0x00001e80:    2a00        .*      CMP      r2,#0
        0x00001e82:    d06d        m.      BEQ      0x1f60 ; core_state_transition + 418
        0x00001e84:    2a2c        ,*      CMP      r2,#0x2c
        0x00001e86:    d12f        /.      BNE      0x1ee8 ; core_state_transition + 298
        0x00001e88:    e02c        ,.      B        0x1ee4 ; core_state_transition + 294
        0x00001e8a:    2a2e        .*      CMP      r2,#0x2e
        0x00001e8c:    d004        ..      BEQ      0x1e98 ; core_state_transition + 218
        0x00001e8e:    688a        .h      LDR      r2,[r1,#8]
        0x00001e90:    2001        .       MOVS     r0,#1
        0x00001e92:    1c52        R.      ADDS     r2,r2,#1
        0x00001e94:    608a        .`      STR      r2,[r1,#8]
        0x00001e96:    e025        %.      B        0x1ee4 ; core_state_transition + 294
        0x00001e98:    688a        .h      LDR      r2,[r1,#8]
        0x00001e9a:    2005        .       MOVS     r0,#5
        0x00001e9c:    1c52        R.      ADDS     r2,r2,#1
        0x00001e9e:    608a        .`      STR      r2,[r1,#8]
        0x00001ea0:    f8132f01    .../    LDRB     r2,[r3,#1]!
        0x00001ea4:    b1ba        ..      CBZ      r2,0x1ed6 ; core_state_transition + 280
        0x00001ea6:    2a2c        ,*      CMP      r2,#0x2c
        0x00001ea8:    d11e        ..      BNE      0x1ee8 ; core_state_transition + 298
        0x00001eaa:    e01b        ..      B        0x1ee4 ; core_state_transition + 294
        0x00001eac:    2a2e        .*      CMP      r2,#0x2e
        0x00001eae:    d008        ..      BEQ      0x1ec2 ; core_state_transition + 260
        0x00001eb0:    3a30        0:      SUBS     r2,r2,#0x30
        0x00001eb2:    2a09        .*      CMP      r2,#9
        0x00001eb4:    d812        ..      BHI      0x1edc ; core_state_transition + 286
        0x00001eb6:    f8132f01    .../    LDRB     r2,[r3,#1]!
        0x00001eba:    b162        b.      CBZ      r2,0x1ed6 ; core_state_transition + 280
        0x00001ebc:    2a2c        ,*      CMP      r2,#0x2c
        0x00001ebe:    d1f5        ..      BNE      0x1eac ; core_state_transition + 238
        0x00001ec0:    e010        ..      B        0x1ee4 ; core_state_transition + 294
        0x00001ec2:    690a        .i      LDR      r2,[r1,#0x10]
        0x00001ec4:    2005        .       MOVS     r0,#5
        0x00001ec6:    1c52        R.      ADDS     r2,r2,#1
        0x00001ec8:    610a        .a      STR      r2,[r1,#0x10]
        0x00001eca:    f8132f01    .../    LDRB     r2,[r3,#1]!
        0x00001ece:    b112        ..      CBZ      r2,0x1ed6 ; core_state_transition + 280
        0x00001ed0:    2a2c        ,*      CMP      r2,#0x2c
        0x00001ed2:    d109        ..      BNE      0x1ee8 ; core_state_transition + 298
        0x00001ed4:    e006        ..      B        0x1ee4 ; core_state_transition + 294
        0x00001ed6:    e042        B.      B        0x1f5e ; core_state_transition + 416
        0x00001ed8:    e02e        ..      B        0x1f38 ; core_state_transition + 378
        0x00001eda:    e032        2.      B        0x1f42 ; core_state_transition + 388
        0x00001edc:    690a        .i      LDR      r2,[r1,#0x10]
        0x00001ede:    2001        .       MOVS     r0,#1
        0x00001ee0:    1c52        R.      ADDS     r2,r2,#1
        0x00001ee2:    610a        .a      STR      r2,[r1,#0x10]
        0x00001ee4:    1c5b        [.      ADDS     r3,r3,#1
        0x00001ee6:    e03b        ;.      B        0x1f60 ; core_state_transition + 418
        0x00001ee8:    2a45        E*      CMP      r2,#0x45
        0x00001eea:    bf18        ..      IT       NE
        0x00001eec:    2a65        e*      CMPNE    r2,#0x65
        0x00001eee:    d00a        ..      BEQ      0x1f06 ; core_state_transition + 328
        0x00001ef0:    f1a20230    ..0.    SUB      r2,r2,#0x30
        0x00001ef4:    2a09        .*      CMP      r2,#9
        0x00001ef6:    d810        ..      BHI      0x1f1a ; core_state_transition + 348
        0x00001ef8:    f8132f01    .../    LDRB     r2,[r3,#1]!
        0x00001efc:    b37a        z.      CBZ      r2,0x1f5e ; core_state_transition + 416
        0x00001efe:    2a2c        ,*      CMP      r2,#0x2c
        0x00001f00:    d1f2        ..      BNE      0x1ee8 ; core_state_transition + 298
        0x00001f02:    e7ef        ..      B        0x1ee4 ; core_state_transition + 294
        0x00001f04:    e00e        ..      B        0x1f24 ; core_state_transition + 358
        0x00001f06:    694a        Ji      LDR      r2,[r1,#0x14]
        0x00001f08:    2003        .       MOVS     r0,#3
        0x00001f0a:    1c52        R.      ADDS     r2,r2,#1
        0x00001f0c:    614a        Ja      STR      r2,[r1,#0x14]
        0x00001f0e:    f8132f01    .../    LDRB     r2,[r3,#1]!
        0x00001f12:    b322        ".      CBZ      r2,0x1f5e ; core_state_transition + 416
        0x00001f14:    2a2c        ,*      CMP      r2,#0x2c
        0x00001f16:    d0e5        ..      BEQ      0x1ee4 ; core_state_transition + 294
        0x00001f18:    e778        x.      B        0x1e0c ; core_state_transition + 78
        0x00001f1a:    694a        Ji      LDR      r2,[r1,#0x14]
        0x00001f1c:    2001        .       MOVS     r0,#1
        0x00001f1e:    1c52        R.      ADDS     r2,r2,#1
        0x00001f20:    614a        Ja      STR      r2,[r1,#0x14]
        0x00001f22:    e7df        ..      B        0x1ee4 ; core_state_transition + 294
        0x00001f24:    68ca        .h      LDR      r2,[r1,#0xc]
        0x00001f26:    2006        .       MOVS     r0,#6
        0x00001f28:    1c52        R.      ADDS     r2,r2,#1
        0x00001f2a:    60ca        .`      STR      r2,[r1,#0xc]
        0x00001f2c:    f8132f01    .../    LDRB     r2,[r3,#1]!
        0x00001f30:    b1aa        ..      CBZ      r2,0x1f5e ; core_state_transition + 416
        0x00001f32:    2a2c        ,*      CMP      r2,#0x2c
        0x00001f34:    d0d6        ..      BEQ      0x1ee4 ; core_state_transition + 294
        0x00001f36:    e75a        Z.      B        0x1dee ; core_state_transition + 48
        0x00001f38:    698a        .i      LDR      r2,[r1,#0x18]
        0x00001f3a:    2001        .       MOVS     r0,#1
        0x00001f3c:    1c52        R.      ADDS     r2,r2,#1
        0x00001f3e:    618a        .a      STR      r2,[r1,#0x18]
        0x00001f40:    e7d0        ..      B        0x1ee4 ; core_state_transition + 294
        0x00001f42:    3a30        0:      SUBS     r2,r2,#0x30
        0x00001f44:    2a09        .*      CMP      r2,#9
        0x00001f46:    d805        ..      BHI      0x1f54 ; core_state_transition + 406
        0x00001f48:    f8132f01    .../    LDRB     r2,[r3,#1]!
        0x00001f4c:    b13a        :.      CBZ      r2,0x1f5e ; core_state_transition + 416
        0x00001f4e:    2a2c        ,*      CMP      r2,#0x2c
        0x00001f50:    d1f7        ..      BNE      0x1f42 ; core_state_transition + 388
        0x00001f52:    e7c7        ..      B        0x1ee4 ; core_state_transition + 294
        0x00001f54:    684a        Jh      LDR      r2,[r1,#4]
        0x00001f56:    2001        .       MOVS     r0,#1
        0x00001f58:    1c52        R.      ADDS     r2,r2,#1
        0x00001f5a:    604a        J`      STR      r2,[r1,#4]
        0x00001f5c:    e7c2        ..      B        0x1ee4 ; core_state_transition + 294
        0x00001f5e:    e7ff        ..      B        0x1f60 ; core_state_transition + 418
        0x00001f60:    f8cc3000    ...0    STR      r3,[r12,#0]
        0x00001f64:    4770        pG      BX       lr
        0x00001f66:    0000        ..      MOVS     r0,r0
    i.crc16
    crc16
        0x00001f68:    fa1ffc80    ....    UXTH     r12,r0
        0x00001f6c:    f00c00ff    ....    AND      r0,r12,#0xff
        0x00001f70:    f05f0208    _...    MOVS.W   r2,#8
        0x00001f74:    ea800301    ....    EOR      r3,r0,r1
        0x00001f78:    f0130f01    ....    TST      r3,#1
        0x00001f7c:    ea4f0050    O.P.    LSR      r0,r0,#1
        0x00001f80:    bf1a        ..      ITTE     NE
        0x00001f82:    f24a0301    J...    MOVNE    r3,#0xa001
        0x00001f86:    ea830151    ..Q.    EORNE    r1,r3,r1,LSR #1
        0x00001f8a:    0849        I.      LSREQ    r1,r1,#1
        0x00001f8c:    1e52        R.      SUBS     r2,r2,#1
        0x00001f8e:    d1f1        ..      BNE      0x1f74 ; crc16 + 12
        0x00001f90:    4608        .F      MOV      r0,r1
        0x00001f92:    ea4f221c    O.."    LSR      r2,r12,#8
        0x00001f96:    2108        .!      MOVS     r1,#8
        0x00001f98:    f24a0c01    J...    MOV      r12,#0xa001
        0x00001f9c:    ea820300    ....    EOR      r3,r2,r0
        0x00001fa0:    f0130f01    ....    TST      r3,#1
        0x00001fa4:    ea4f0252    O.R.    LSR      r2,r2,#1
        0x00001fa8:    bf14        ..      ITE      NE
        0x00001faa:    ea8c0050    ..P.    EORNE    r0,r12,r0,LSR #1
        0x00001fae:    0840        @.      LSREQ    r0,r0,#1
        0x00001fb0:    1e49        I.      SUBS     r1,r1,#1
        0x00001fb2:    d1f3        ..      BNE      0x1f9c ; crc16 + 52
        0x00001fb4:    4770        pG      BX       lr
        0x00001fb6:    0000        ..      MOVS     r0,r0
    i.crcu16
    crcu16
        0x00001fb8:    4603        .F      MOV      r3,r0
        0x00001fba:    b2c0        ..      UXTB     r0,r0
        0x00001fbc:    f05f0208    _...    MOVS.W   r2,#8
        0x00001fc0:    ea800c01    ....    EOR      r12,r0,r1
        0x00001fc4:    f01c0f01    ....    TST      r12,#1
        0x00001fc8:    ea4f0050    O.P.    LSR      r0,r0,#1
        0x00001fcc:    bf1a        ..      ITTE     NE
        0x00001fce:    f24a0c01    J...    MOVNE    r12,#0xa001
        0x00001fd2:    ea8c0151    ..Q.    EORNE    r1,r12,r1,LSR #1
        0x00001fd6:    0849        I.      LSREQ    r1,r1,#1
        0x00001fd8:    1e52        R.      SUBS     r2,r2,#1
        0x00001fda:    d1f1        ..      BNE      0x1fc0 ; crcu16 + 8
        0x00001fdc:    4608        .F      MOV      r0,r1
        0x00001fde:    0a1a        ..      LSRS     r2,r3,#8
        0x00001fe0:    2108        .!      MOVS     r1,#8
        0x00001fe2:    f24a0c01    J...    MOV      r12,#0xa001
        0x00001fe6:    bf00        ..      NOP      
        0x00001fe8:    ea820300    ....    EOR      r3,r2,r0
        0x00001fec:    f0130f01    ....    TST      r3,#1
        0x00001ff0:    ea4f0252    O.R.    LSR      r2,r2,#1
        0x00001ff4:    bf14        ..      ITE      NE
        0x00001ff6:    ea8c0050    ..P.    EORNE    r0,r12,r0,LSR #1
        0x00001ffa:    0840        @.      LSREQ    r0,r0,#1
        0x00001ffc:    1e49        I.      SUBS     r1,r1,#1
        0x00001ffe:    d1f3        ..      BNE      0x1fe8 ; crcu16 + 48
        0x00002000:    4770        pG      BX       lr
    i.crcu32
    crcu32
        0x00002002:    b510        ..      PUSH     {r4,lr}
        0x00002004:    4604        .F      MOV      r4,r0
        0x00002006:    b200        ..      SXTH     r0,r0
        0x00002008:    f7ffffae    ....    BL       crc16 ; 0x1f68
        0x0000200c:    1422        ".      ASRS     r2,r4,#16
        0x0000200e:    4601        .F      MOV      r1,r0
        0x00002010:    e8bd4010    ...@    POP      {r4,lr}
        0x00002014:    4610        .F      MOV      r0,r2
        0x00002016:    f7ffbfa7    ....    B.W      crc16 ; 0x1f68
        0x0000201a:    0000        ..      MOVS     r0,r0
    i.get_seed_32
    get_seed_32
        0x0000201c:    2806        .(      CMP      r0,#6
        0x0000201e:    d210        ..      BCS      0x2042 ; get_seed_32 + 38
        0x00002020:    e8dff000    ....    TBB      [pc,r0]
    $d
        0x00002024:    0806030f    ....    DCD    134611727
        0x00002028:    0d0b        ..      DCW    3339
    $t
        0x0000202a:    4807        .H      LDR      r0,[pc,#28] ; [0x2048] = 0x10000024
        0x0000202c:    6800        .h      LDR      r0,[r0,#0]
        0x0000202e:    4770        pG      BX       lr
        0x00002030:    4806        .H      LDR      r0,[pc,#24] ; [0x204c] = 0x10000028
        0x00002032:    e000        ..      B        0x2036 ; get_seed_32 + 26
        0x00002034:    4806        .H      LDR      r0,[pc,#24] ; [0x2050] = 0x1000002c
        0x00002036:    6800        .h      LDR      r0,[r0,#0]
        0x00002038:    4770        pG      BX       lr
        0x0000203a:    4806        .H      LDR      r0,[pc,#24] ; [0x2054] = 0x10000030
        0x0000203c:    e7fb        ..      B        0x2036 ; get_seed_32 + 26
        0x0000203e:    4806        .H      LDR      r0,[pc,#24] ; [0x2058] = 0x10000034
        0x00002040:    e7f9        ..      B        0x2036 ; get_seed_32 + 26
        0x00002042:    2000        .       MOVS     r0,#0
        0x00002044:    4770        pG      BX       lr
    $d
        0x00002046:    0000        ..      DCW    0
        0x00002048:    10000024    $...    DCD    268435492
        0x0000204c:    10000028    (...    DCD    268435496
        0x00002050:    1000002c    ,...    DCD    268435500
        0x00002054:    10000030    0...    DCD    268435504
        0x00002058:    10000034    4...    DCD    268435508
    $t
    i.get_time
    get_time
        0x0000205c:    4802        .H      LDR      r0,[pc,#8] ; [0x2068] = 0x10000038
        0x0000205e:    68c1        .h      LDR      r1,[r0,#0xc]
        0x00002060:    6880        .h      LDR      r0,[r0,#8]
        0x00002062:    1a08        ..      SUBS     r0,r1,r0
        0x00002064:    4770        pG      BX       lr
    $d
        0x00002066:    0000        ..      DCW    0
        0x00002068:    10000038    8...    DCD    268435512
        0x0000206c:    00000000    ....    DCD    0
    $t
    i.main
    main
        0x00002070:    e92d4ff0    -..O    PUSH     {r4-r11,lr}
        0x00002074:    f04f0a00    O...    MOV      r10,#0
        0x00002078:    ed2d8b06    -...    VPUSH    {d8-d10}
        0x0000207c:    f6ad0d2c    ..,.    SUB      sp,sp,#0x82c
        0x00002080:    f60d0224    ..$.    ADD      r2,sp,#0x824
        0x00002084:    4654        TF      MOV      r4,r10
        0x00002086:    4655        UF      MOV      r5,r10
        0x00002088:    f04f38ff    O..8    MOV      r8,#0xffffffff
        0x0000208c:    46d1        .F      MOV      r9,r10
        0x0000208e:    1f11        ..      SUBS     r1,r2,#4
        0x00002090:    af02        ..      ADD      r7,sp,#8
        0x00002092:    f10d004a    ..J.    ADD      r0,sp,#0x4a
        0x00002096:    f8cda820    .. .    STR      r10,[sp,#0x820]
        0x0000209a:    f000ff01    ....    BL       portable_init ; 0x2ea0
        0x0000209e:    2001        .       MOVS     r0,#1
        0x000020a0:    f7ffffbc    ....    BL       get_seed_32 ; 0x201c
        0x000020a4:    f8ad0008    ....    STRH     r0,[sp,#8]
        0x000020a8:    2002        .       MOVS     r0,#2
        0x000020aa:    f7ffffb7    ....    BL       get_seed_32 ; 0x201c
        0x000020ae:    f8ad000a    ....    STRH     r0,[sp,#0xa]
        0x000020b2:    2003        .       MOVS     r0,#3
        0x000020b4:    f7ffffb2    ....    BL       get_seed_32 ; 0x201c
        0x000020b8:    f8ad000c    ....    STRH     r0,[sp,#0xc]
        0x000020bc:    2004        .       MOVS     r0,#4
        0x000020be:    f7ffffad    ....    BL       get_seed_32 ; 0x201c
        0x000020c2:    9009        ..      STR      r0,[sp,#0x24]
        0x000020c4:    2005        .       MOVS     r0,#5
        0x000020c6:    f7ffffa9    ....    BL       get_seed_32 ; 0x201c
        0x000020ca:    900a        ..      STR      r0,[sp,#0x28]
        0x000020cc:    2800        .(      CMP      r0,#0
        0x000020ce:    bf04        ..      ITT      EQ
        0x000020d0:    2007        .       MOVEQ    r0,#7
        0x000020d2:    900a        ..      STREQ    r0,[sp,#0x28]
        0x000020d4:    f8bd1008    ....    LDRH     r1,[sp,#8]
        0x000020d8:    2066        f       MOVS     r0,#0x66
        0x000020da:    2900        .)      CMP      r1,#0
        0x000020dc:    bf01        ..      ITTTT    EQ
        0x000020de:    f8bd100a    ....    LDRHEQ   r1,[sp,#0xa]
        0x000020e2:    2900        .)      CMPEQ    r1,#0
        0x000020e4:    f8bd100c    ....    LDRHEQ   r1,[sp,#0xc]
        0x000020e8:    2900        .)      CMPEQ    r1,#0
        0x000020ea:    d105        ..      BNE      0x20f8 ; main + 136
        0x000020ec:    f8ada008    ....    STRH     r10,[sp,#8]
        0x000020f0:    f8ada00a    ....    STRH     r10,[sp,#0xa]
        0x000020f4:    f8ad000c    ....    STRH     r0,[sp,#0xc]
        0x000020f8:    f8bd1008    ....    LDRH     r1,[sp,#8]
        0x000020fc:    2901        .)      CMP      r1,#1
        0x000020fe:    bf01        ..      ITTTT    EQ
        0x00002100:    f8bd100a    ....    LDRHEQ   r1,[sp,#0xa]
        0x00002104:    2900        .)      CMPEQ    r1,#0
        0x00002106:    f8bd100c    ....    LDRHEQ   r1,[sp,#0xc]
        0x0000210a:    2900        .)      CMPEQ    r1,#0
        0x0000210c:    d107        ..      BNE      0x211e ; main + 174
        0x0000210e:    f2434115    C..A    MOV      r1,#0x3415
        0x00002112:    f8ad1008    ....    STRH     r1,[sp,#8]
        0x00002116:    f8ad100a    ....    STRH     r1,[sp,#0xa]
        0x0000211a:    f8ad000c    ....    STRH     r0,[sp,#0xc]
        0x0000211e:    a814        ..      ADD      r0,sp,#0x50
        0x00002120:    9004        ..      STR      r0,[sp,#0x10]
        0x00002122:    f44f60fa    O..`    MOV      r0,#0x7d0
        0x00002126:    9008        ..      STR      r0,[sp,#0x20]
        0x00002128:    f8bd0008    ....    LDRH     r0,[sp,#8]
        0x0000212c:    f8ad0008    ....    STRH     r0,[sp,#8]
        0x00002130:    f8bd000a    ....    LDRH     r0,[sp,#0xa]
        0x00002134:    f8ad000a    ....    STRH     r0,[sp,#0xa]
        0x00002138:    f8bd000c    ....    LDRH     r0,[sp,#0xc]
        0x0000213c:    f8ad000c    ....    STRH     r0,[sp,#0xc]
        0x00002140:    980a        ..      LDR      r0,[sp,#0x28]
        0x00002142:    f8ada048    ..H.    STRH     r10,[sp,#0x48]
        0x00002146:    f0100f01    ....    TST      r0,#1
        0x0000214a:    f04f0b01    O...    MOV      r11,#1
        0x0000214e:    bf18        ..      IT       NE
        0x00002150:    2501        .%      MOVNE    r5,#1
        0x00002152:    980a        ..      LDR      r0,[sp,#0x28]
        0x00002154:    f0100f02    ....    TST      r0,#2
        0x00002158:    bf18        ..      IT       NE
        0x0000215a:    1c6d        m.      ADDNE    r5,r5,#1
        0x0000215c:    980a        ..      LDR      r0,[sp,#0x28]
        0x0000215e:    f0100f04    ....    TST      r0,#4
        0x00002162:    bf18        ..      IT       NE
        0x00002164:    1c6d        m.      ADDNE    r5,r5,#1
        0x00002166:    9808        ..      LDR      r0,[sp,#0x20]
        0x00002168:    fbb0f0f5    ....    UDIV     r0,r0,r5
        0x0000216c:    9008        ..      STR      r0,[sp,#0x20]
        0x0000216e:    980a        ..      LDR      r0,[sp,#0x28]
        0x00002170:    f0100f01    ....    TST      r0,#1
        0x00002174:    d006        ..      BEQ      0x2184 ; main + 276
        0x00002176:    9908        ..      LDR      r1,[sp,#0x20]
        0x00002178:    9804        ..      LDR      r0,[sp,#0x10]
        0x0000217a:    fb010004    ....    MLA      r0,r1,r4,r0
        0x0000217e:    f04f0401    O...    MOV      r4,#1
        0x00002182:    9005        ..      STR      r0,[sp,#0x14]
        0x00002184:    980a        ..      LDR      r0,[sp,#0x28]
        0x00002186:    f0100f02    ....    TST      r0,#2
        0x0000218a:    d006        ..      BEQ      0x219a ; main + 298
        0x0000218c:    9908        ..      LDR      r1,[sp,#0x20]
        0x0000218e:    9804        ..      LDR      r0,[sp,#0x10]
        0x00002190:    fb010004    ....    MLA      r0,r1,r4,r0
        0x00002194:    f1040401    ....    ADD      r4,r4,#1
        0x00002198:    9006        ..      STR      r0,[sp,#0x18]
        0x0000219a:    980a        ..      LDR      r0,[sp,#0x28]
        0x0000219c:    f0100f04    ....    TST      r0,#4
        0x000021a0:    d004        ..      BEQ      0x21ac ; main + 316
        0x000021a2:    9908        ..      LDR      r1,[sp,#0x20]
        0x000021a4:    9804        ..      LDR      r0,[sp,#0x10]
        0x000021a6:    fb010004    ....    MLA      r0,r1,r4,r0
        0x000021aa:    9007        ..      STR      r0,[sp,#0x1c]
        0x000021ac:    f04f0500    O...    MOV      r5,#0
        0x000021b0:    eb051605    ....    ADD      r6,r5,r5,LSL #4
        0x000021b4:    eb070486    ....    ADD      r4,r7,r6,LSL #2
        0x000021b8:    f8940020    .. .    LDRB     r0,[r4,#0x20]
        0x000021bc:    f0100f01    ....    TST      r0,#1
        0x000021c0:    d006        ..      BEQ      0x21d0 ; main + 352
        0x000021c2:    f9372026    7.&     LDRSH    r2,[r7,r6,LSL #2]
        0x000021c6:    68e1        .h      LDR      r1,[r4,#0xc]
        0x000021c8:    9808        ..      LDR      r0,[sp,#0x20]
        0x000021ca:    f7fffd1d    ....    BL       core_list_init ; 0x1c08
        0x000021ce:    6260        `b      STR      r0,[r4,#0x24]
        0x000021d0:    f8940020    .. .    LDRB     r0,[r4,#0x20]
        0x000021d4:    f0100f02    ....    TST      r0,#2
        0x000021d8:    d00a        ..      BEQ      0x21f0 ; main + 384
        0x000021da:    f9370026    7.&.    LDRSH    r0,[r7,r6,LSL #2]
        0x000021de:    8861        a.      LDRH     r1,[r4,#2]
        0x000021e0:    f1040328    ..(.    ADD      r3,r4,#0x28
        0x000021e4:    ea404201    @..B    ORR      r2,r0,r1,LSL #16
        0x000021e8:    6921        !i      LDR      r1,[r4,#0x10]
        0x000021ea:    9808        ..      LDR      r0,[sp,#0x20]
        0x000021ec:    f7fffc32    ..2.    BL       core_init_matrix ; 0x1a54
        0x000021f0:    f8940020    .. .    LDRB     r0,[r4,#0x20]
        0x000021f4:    f0100f04    ....    TST      r0,#4
        0x000021f8:    d005        ..      BEQ      0x2206 ; main + 406
        0x000021fa:    f9371026    7.&.    LDRSH    r1,[r7,r6,LSL #2]
        0x000021fe:    6962        bi      LDR      r2,[r4,#0x14]
        0x00002200:    9808        ..      LDR      r0,[sp,#0x20]
        0x00002202:    f7fffc7b    ..{.    BL       core_init_state ; 0x1afc
        0x00002206:    1c68        h.      ADDS     r0,r5,#1
        0x00002208:    0405        ..      LSLS     r5,r0,#16
        0x0000220a:    0c2d        -.      LSRS     r5,r5,#16
        0x0000220c:    d0d0        ..      BEQ      0x21b0 ; main + 320
        0x0000220e:    ed9fabfc    ....    VLDR     d10,[pc,#1008] ; [0x2600] = 0
        0x00002212:    9809        ..      LDR      r0,[sp,#0x24]
        0x00002214:    2800        .(      CMP      r0,#0
        0x00002216:    d152        R.      BNE      0x22be ; main + 590
        0x00002218:    eeb08a4a    ..J.    VMOV.F32 s16,s20
        0x0000221c:    eef08a6a    ..j.    VMOV.F32 s17,s21
        0x00002220:    ed9f9bf9    ....    VLDR     d9,[pc,#996] ; [0x2608] = 0
        0x00002224:    f8cdb024    ..$.    STR      r11,[sp,#0x24]
        0x00002228:    e034        4.      B        0x2294 ; main + 548
        0x0000222a:    9809        ..      LDR      r0,[sp,#0x24]
        0x0000222c:    eb000080    ....    ADD      r0,r0,r0,LSL #2
        0x00002230:    0040        @.      LSLS     r0,r0,#1
        0x00002232:    9009        ..      STR      r0,[sp,#0x24]
        0x00002234:    f000fe8c    ....    BL       start_time ; 0x2f50
        0x00002238:    9e09        ..      LDR      r6,[sp,#0x24]
        0x0000223a:    f8ada040    ..@.    STRH     r10,[sp,#0x40]
        0x0000223e:    f8ada044    ..D.    STRH     r10,[sp,#0x44]
        0x00002242:    2500        .%      MOVS     r5,#0
        0x00002244:    ac02        ..      ADD      r4,sp,#8
        0x00002246:    f8ada042    ..B.    STRH     r10,[sp,#0x42]
        0x0000224a:    f8ada046    ..F.    STRH     r10,[sp,#0x46]
        0x0000224e:    2e00        ..      CMP      r6,#0
        0x00002250:    d916        ..      BLS      0x2280 ; main + 528
        0x00002252:    2101        .!      MOVS     r1,#1
        0x00002254:    4620         F      MOV      r0,r4
        0x00002256:    f7fffaad    ....    BL       core_bench_list ; 0x17b4
        0x0000225a:    8f21        !.      LDRH     r1,[r4,#0x38]
        0x0000225c:    f7fffeac    ....    BL       crcu16 ; 0x1fb8
        0x00002260:    8720         .      STRH     r0,[r4,#0x38]
        0x00002262:    f04f31ff    O..1    MOV      r1,#0xffffffff
        0x00002266:    4620         F      MOV      r0,r4
        0x00002268:    f7fffaa4    ....    BL       core_bench_list ; 0x17b4
        0x0000226c:    8f21        !.      LDRH     r1,[r4,#0x38]
        0x0000226e:    f7fffea3    ....    BL       crcu16 ; 0x1fb8
        0x00002272:    8720         .      STRH     r0,[r4,#0x38]
        0x00002274:    2d00        .-      CMP      r5,#0
        0x00002276:    bf08        ..      IT       EQ
        0x00002278:    8760        `.      STRHEQ   r0,[r4,#0x3a]
        0x0000227a:    1c6d        m.      ADDS     r5,r5,#1
        0x0000227c:    42b5        .B      CMP      r5,r6
        0x0000227e:    d3e8        ..      BCC      0x2252 ; main + 482
        0x00002280:    f000fe80    ....    BL       stop_time ; 0x2f84
        0x00002284:    f7fffeea    ....    BL       get_time ; 0x205c
        0x00002288:    f000fe92    ....    BL       time_in_secs ; 0x2fb0
        0x0000228c:    eeb08a40    ..@.    VMOV.F32 s16,s0
        0x00002290:    eef08a60    ..`.    VMOV.F32 s17,s1
        0x00002294:    ec532b19    S..+    VMOV     r2,r3,d9
        0x00002298:    ec510b18    Q...    VMOV     r0,r1,d8
        0x0000229c:    f001f996    ....    BL       __aeabi_cdcmple ; 0x35cc
        0x000022a0:    d3c3        ..      BCC      0x222a ; main + 442
        0x000022a2:    ec510b18    Q...    VMOV     r0,r1,d8
        0x000022a6:    f001f951    ..Q.    BL       __aeabi_d2uiz ; 0x354c
        0x000022aa:    2800        .(      CMP      r0,#0
        0x000022ac:    bf08        ..      IT       EQ
        0x000022ae:    2001        .       MOVEQ    r0,#1
        0x000022b0:    210a        .!      MOVS     r1,#0xa
        0x000022b2:    fbb1f0f0    ....    UDIV     r0,r1,r0
        0x000022b6:    9909        ..      LDR      r1,[sp,#0x24]
        0x000022b8:    1c40        @.      ADDS     r0,r0,#1
        0x000022ba:    4348        HC      MULS     r0,r1,r0
        0x000022bc:    9009        ..      STR      r0,[sp,#0x24]
        0x000022be:    f000fe47    ..G.    BL       start_time ; 0x2f50
        0x000022c2:    9d09        ..      LDR      r5,[sp,#0x24]
        0x000022c4:    f8ada040    ..@.    STRH     r10,[sp,#0x40]
        0x000022c8:    f8ada044    ..D.    STRH     r10,[sp,#0x44]
        0x000022cc:    2600        .&      MOVS     r6,#0
        0x000022ce:    ac02        ..      ADD      r4,sp,#8
        0x000022d0:    f8ada042    ..B.    STRH     r10,[sp,#0x42]
        0x000022d4:    f8ada046    ..F.    STRH     r10,[sp,#0x46]
        0x000022d8:    2d00        .-      CMP      r5,#0
        0x000022da:    d916        ..      BLS      0x230a ; main + 666
        0x000022dc:    2101        .!      MOVS     r1,#1
        0x000022de:    4620         F      MOV      r0,r4
        0x000022e0:    f7fffa68    ..h.    BL       core_bench_list ; 0x17b4
        0x000022e4:    8f21        !.      LDRH     r1,[r4,#0x38]
        0x000022e6:    f7fffe67    ..g.    BL       crcu16 ; 0x1fb8
        0x000022ea:    8720         .      STRH     r0,[r4,#0x38]
        0x000022ec:    f04f31ff    O..1    MOV      r1,#0xffffffff
        0x000022f0:    4620         F      MOV      r0,r4
        0x000022f2:    f7fffa5f    .._.    BL       core_bench_list ; 0x17b4
        0x000022f6:    8f21        !.      LDRH     r1,[r4,#0x38]
        0x000022f8:    f7fffe5e    ..^.    BL       crcu16 ; 0x1fb8
        0x000022fc:    8720         .      STRH     r0,[r4,#0x38]
        0x000022fe:    2e00        ..      CMP      r6,#0
        0x00002300:    bf08        ..      IT       EQ
        0x00002302:    8760        `.      STRHEQ   r0,[r4,#0x3a]
        0x00002304:    1c76        v.      ADDS     r6,r6,#1
        0x00002306:    42ae        .B      CMP      r6,r5
        0x00002308:    d3e8        ..      BCC      0x22dc ; main + 620
        0x0000230a:    f000fe3b    ..;.    BL       stop_time ; 0x2f84
        0x0000230e:    f7fffea5    ....    BL       get_time ; 0x205c
        0x00002312:    9013        ..      STR      r0,[sp,#0x4c]
        0x00002314:    f9bd0008    ....    LDRSH    r0,[sp,#8]
        0x00002318:    2100        .!      MOVS     r1,#0
        0x0000231a:    f7fffe25    ..%.    BL       crc16 ; 0x1f68
        0x0000231e:    4601        .F      MOV      r1,r0
        0x00002320:    f9bd000a    ....    LDRSH    r0,[sp,#0xa]
        0x00002324:    f7fffe20    .. .    BL       crc16 ; 0x1f68
        0x00002328:    f9bd200c    ...     LDRSH    r2,[sp,#0xc]
        0x0000232c:    4601        .F      MOV      r1,r0
        0x0000232e:    4610        .F      MOV      r0,r2
        0x00002330:    f7fffe1a    ....    BL       crc16 ; 0x1f68
        0x00002334:    9a08        ..      LDR      r2,[sp,#0x20]
        0x00002336:    4601        .F      MOV      r1,r0
        0x00002338:    b212        ..      SXTH     r2,r2
        0x0000233a:    4610        .F      MOV      r0,r2
        0x0000233c:    f7fffe14    ....    BL       crc16 ; 0x1f68
        0x00002340:    f6473205    G..2    MOV      r2,#0x7b05
        0x00002344:    1a81        ..      SUBS     r1,r0,r2
        0x00002346:    4db2        .M      LDR      r5,[pc,#712] ; [0x2610] = 0x1000005c
        0x00002348:    9000        ..      STR      r0,[sp,#0]
        0x0000234a:    4290        .B      CMP      r0,r2
        0x0000234c:    bf04        ..      ITT      EQ
        0x0000234e:    f04f0801    O...    MOVEQ    r8,#1
        0x00002352:    a0b0        ..      ADREQ    r0,{pc}+0x2c2 ; 0x2614
        0x00002354:    d028        (.      BEQ      0x23a8 ; main + 824
        0x00002356:    dc12        ..      BGT      0x237e ; main + 782
        0x00002358:    f200700e    ...p    ADD      r0,r0,#0x70e
        0x0000235c:    f5b05000    ...P    SUBS     r0,r0,#0x2000
        0x00002360:    bf04        ..      ITT      EQ
        0x00002362:    f04f0804    O...    MOVEQ    r8,#4
        0x00002366:    a0b6        ..      ADREQ    r0,{pc}+0x2da ; 0x2640
        0x00002368:    d01e        ..      BEQ      0x23a8 ; main + 824
        0x0000236a:    f6002043    ..C     ADD      r0,r0,#0xa43
        0x0000236e:    f5b04f80    ...O    CMP      r0,#0x4000
        0x00002372:    bf04        ..      ITT      EQ
        0x00002374:    f04f0802    O...    MOVEQ    r8,#2
        0x00002378:    a0bc        ..      ADREQ    r0,{pc}+0x2f4 ; 0x266c
        0x0000237a:    d015        ..      BEQ      0x23a8 ; main + 824
        0x0000237c:    e00b        ..      B        0x2396 ; main + 806
        0x0000237e:    f5a16060    ..``    SUB      r0,r1,#0xe00
        0x00002382:    38fd        .8      SUBS     r0,r0,#0xfd
        0x00002384:    d00a        ..      BEQ      0x239c ; main + 812
        0x00002386:    300d        .0      ADDS     r0,r0,#0xd
        0x00002388:    f5b04fc0    ...O    CMP      r0,#0x6000
        0x0000238c:    bf04        ..      ITT      EQ
        0x0000238e:    f04f0803    O...    MOVEQ    r8,#3
        0x00002392:    a0c3        ..      ADREQ    r0,{pc}+0x30e ; 0x26a0
        0x00002394:    d008        ..      BEQ      0x23a8 ; main + 824
        0x00002396:    f04f39ff    O..9    MOV      r9,#0xffffffff
        0x0000239a:    e05a        Z.      B        0x2452 ; main + 994
        0x0000239c:    f04f0800    O...    MOV      r8,#0
        0x000023a0:    a0cb        ..      ADR      r0,{pc}+0x330 ; 0x26d0
        0x000023a2:    f7fefcf9    ....    BL       am_sprintf ; 0xd98
        0x000023a6:    e001        ..      B        0x23ac ; main + 828
        0x000023a8:    f7fefcf6    ....    BL       am_sprintf ; 0xd98
        0x000023ac:    6828        (h      LDR      r0,[r5,#0]
        0x000023ae:    2400        .$      MOVS     r4,#0
        0x000023b0:    2800        .(      CMP      r0,#0
        0x000023b2:    bf88        ..      IT       HI
        0x000023b4:    f8dfb348    ..H.    LDRHI    r11,[pc,#840] ; [0x2700] = 0x10000004
        0x000023b8:    d94b        K.      BLS      0x2452 ; main + 994
        0x000023ba:    bf00        ..      NOP      
        0x000023bc:    eb041004    ....    ADD      r0,r4,r4,LSL #4
        0x000023c0:    eb070680    ....    ADD      r6,r7,r0,LSL #2
        0x000023c4:    f8a6a040    ..@.    STRH     r10,[r6,#0x40]
        0x000023c8:    f8960020    .. .    LDRB     r0,[r6,#0x20]
        0x000023cc:    f0100f01    ....    TST      r0,#1
        0x000023d0:    d00d        ..      BEQ      0x23ee ; main + 894
        0x000023d2:    8f72        r.      LDRH     r2,[r6,#0x3a]
        0x000023d4:    f83b3018    ;..0    LDRH     r3,[r11,r8,LSL #1]
        0x000023d8:    429a        .B      CMP      r2,r3
        0x000023da:    d008        ..      BEQ      0x23ee ; main + 894
        0x000023dc:    4621        !F      MOV      r1,r4
        0x000023de:    a0c9        ..      ADR      r0,{pc}+0x326 ; 0x2704
        0x000023e0:    f7fefcda    ....    BL       am_sprintf ; 0xd98
        0x000023e4:    f8b60040    ..@.    LDRH     r0,[r6,#0x40]
        0x000023e8:    1c40        @.      ADDS     r0,r0,#1
        0x000023ea:    f8a60040    ..@.    STRH     r0,[r6,#0x40]
        0x000023ee:    f8960020    .. .    LDRB     r0,[r6,#0x20]
        0x000023f2:    f0100f02    ....    TST      r0,#2
        0x000023f6:    d00e        ..      BEQ      0x2416 ; main + 934
        0x000023f8:    48ce        .H      LDR      r0,[pc,#824] ; [0x2734] = 0x1000000e
        0x000023fa:    8fb2        ..      LDRH     r2,[r6,#0x3c]
        0x000023fc:    f8303018    0..0    LDRH     r3,[r0,r8,LSL #1]
        0x00002400:    429a        .B      CMP      r2,r3
        0x00002402:    d008        ..      BEQ      0x2416 ; main + 934
        0x00002404:    4621        !F      MOV      r1,r4
        0x00002406:    a0cc        ..      ADR      r0,{pc}+0x332 ; 0x2738
        0x00002408:    f7fefcc6    ....    BL       am_sprintf ; 0xd98
        0x0000240c:    f8b60040    ..@.    LDRH     r0,[r6,#0x40]
        0x00002410:    1c40        @.      ADDS     r0,r0,#1
        0x00002412:    f8a60040    ..@.    STRH     r0,[r6,#0x40]
        0x00002416:    f8960020    .. .    LDRB     r0,[r6,#0x20]
        0x0000241a:    f0100f04    ....    TST      r0,#4
        0x0000241e:    d00e        ..      BEQ      0x243e ; main + 974
        0x00002420:    48d2        .H      LDR      r0,[pc,#840] ; [0x276c] = 0x10000018
        0x00002422:    8ff2        ..      LDRH     r2,[r6,#0x3e]
        0x00002424:    f8303018    0..0    LDRH     r3,[r0,r8,LSL #1]
        0x00002428:    429a        .B      CMP      r2,r3
        0x0000242a:    d008        ..      BEQ      0x243e ; main + 974
        0x0000242c:    4621        !F      MOV      r1,r4
        0x0000242e:    a0d0        ..      ADR      r0,{pc}+0x342 ; 0x2770
        0x00002430:    f7fefcb2    ....    BL       am_sprintf ; 0xd98
        0x00002434:    f8b60040    ..@.    LDRH     r0,[r6,#0x40]
        0x00002438:    1c40        @.      ADDS     r0,r0,#1
        0x0000243a:    f8a60040    ..@.    STRH     r0,[r6,#0x40]
        0x0000243e:    f8b60040    ..@.    LDRH     r0,[r6,#0x40]
        0x00002442:    4448        HD      ADD      r0,r0,r9
        0x00002444:    fa0ff980    ....    SXTH     r9,r0
        0x00002448:    1c60        `.      ADDS     r0,r4,#1
        0x0000244a:    b284        ..      UXTH     r4,r0
        0x0000244c:    6828        (h      LDR      r0,[r5,#0]
        0x0000244e:    4284        .B      CMP      r4,r0
        0x00002450:    d3b4        ..      BCC      0x23bc ; main + 844
        0x00002452:    f7fff98a    ....    BL       check_data_types ; 0x176a
        0x00002456:    4448        HD      ADD      r0,r0,r9
        0x00002458:    b206        ..      SXTH     r6,r0
        0x0000245a:    a0d1        ..      ADR      r0,{pc}+0x346 ; 0x27a0
        0x0000245c:    9908        ..      LDR      r1,[sp,#0x20]
        0x0000245e:    f7fefc9b    ....    BL       am_sprintf ; 0xd98
        0x00002462:    a0d5        ..      ADR      r0,{pc}+0x356 ; 0x27b8
        0x00002464:    9913        ..      LDR      r1,[sp,#0x4c]
        0x00002466:    f7fefc97    ....    BL       am_sprintf ; 0xd98
        0x0000246a:    9813        ..      LDR      r0,[sp,#0x4c]
        0x0000246c:    f000fda0    ....    BL       time_in_secs ; 0x2fb0
        0x00002470:    ec532b10    S..+    VMOV     r2,r3,d0
        0x00002474:    a0d6        ..      ADR      r0,{pc}+0x35c ; 0x27d0
        0x00002476:    f7fefc8f    ....    BL       am_sprintf ; 0xd98
        0x0000247a:    9813        ..      LDR      r0,[sp,#0x4c]
        0x0000247c:    f000fd98    ....    BL       time_in_secs ; 0x2fb0
        0x00002480:    ec532b1a    S..+    VMOV     r2,r3,d10
        0x00002484:    ec510b10    Q...    VMOV     r0,r1,d0
        0x00002488:    f001f930    ..0.    BL       __aeabi_cdrcmple ; 0x36ec
        0x0000248c:    d216        ..      BCS      0x24bc ; main + 1100
        0x0000248e:    9813        ..      LDR      r0,[sp,#0x4c]
        0x00002490:    f000fd8e    ....    BL       time_in_secs ; 0x2fb0
        0x00002494:    9809        ..      LDR      r0,[sp,#0x24]
        0x00002496:    6829        )h      LDR      r1,[r5,#0]
        0x00002498:    eeb08a40    ..@.    VMOV.F32 s16,s0
        0x0000249c:    eef08a60    ..`.    VMOV.F32 s17,s1
        0x000024a0:    4348        HC      MULS     r0,r1,r0
        0x000024a2:    f001f880    ....    BL       __aeabi_ui2d ; 0x35a6
        0x000024a6:    ec532b18    S..+    VMOV     r2,r3,d8
        0x000024aa:    f000fef7    ....    BL       __aeabi_ddiv ; 0x329c
        0x000024ae:    ec410b10    A...    VMOV     d0,r0,r1
        0x000024b2:    a0cd        ..      ADR      r0,{pc}+0x336 ; 0x27e8
        0x000024b4:    ec532b10    S..+    VMOV     r2,r3,d0
        0x000024b8:    f7fefc6e    ..n.    BL       am_sprintf ; 0xd98
        0x000024bc:    9813        ..      LDR      r0,[sp,#0x4c]
        0x000024be:    f000fd77    ..w.    BL       time_in_secs ; 0x2fb0
        0x000024c2:    ed9f1bcf    ....    VLDR     d1,[pc,#828] ; [0x2800] = 0
        0x000024c6:    ec510b10    Q...    VMOV     r0,r1,d0
        0x000024ca:    ec532b11    S..+    VMOV     r2,r3,d1
        0x000024ce:    f001f87d    ..}.    BL       __aeabi_cdcmple ; 0x35cc
        0x000024d2:    d204        ..      BCS      0x24de ; main + 1134
        0x000024d4:    a0cc        ..      ADR      r0,{pc}+0x334 ; 0x2808
        0x000024d6:    f7fefc5f    .._.    BL       am_sprintf ; 0xd98
        0x000024da:    1c70        p.      ADDS     r0,r6,#1
        0x000024dc:    b206        ..      SXTH     r6,r0
        0x000024de:    9809        ..      LDR      r0,[sp,#0x24]
        0x000024e0:    6829        )h      LDR      r1,[r5,#0]
        0x000024e2:    4341        AC      MULS     r1,r0,r1
        0x000024e4:    a0d8        ..      ADR      r0,{pc}+0x364 ; 0x2848
        0x000024e6:    f7fefc57    ..W.    BL       am_sprintf ; 0xd98
        0x000024ea:    a1dd        ..      ADR      r1,{pc}+0x376 ; 0x2860
        0x000024ec:    a0e0        ..      ADR      r0,{pc}+0x384 ; 0x2870
        0x000024ee:    f7fefc53    ..S.    BL       am_sprintf ; 0xd98
        0x000024f2:    a1e5        ..      ADR      r1,{pc}+0x396 ; 0x2888
        0x000024f4:    a0e6        ..      ADR      r0,{pc}+0x39c ; 0x2890
        0x000024f6:    f7fefc4f    ..O.    BL       am_sprintf ; 0xd98
        0x000024fa:    a0eb        ..      ADR      r0,{pc}+0x3ae ; 0x28a8
        0x000024fc:    9900        ..      LDR      r1,[sp,#0]
        0x000024fe:    f7fefc4b    ..K.    BL       am_sprintf ; 0xd98
        0x00002502:    980a        ..      LDR      r0,[sp,#0x28]
        0x00002504:    f0100f01    ....    TST      r0,#1
        0x00002508:    d012        ..      BEQ      0x2530 ; main + 1216
        0x0000250a:    6828        (h      LDR      r0,[r5,#0]
        0x0000250c:    2400        .$      MOVS     r4,#0
        0x0000250e:    2800        .(      CMP      r0,#0
        0x00002510:    d90e        ..      BLS      0x2530 ; main + 1216
        0x00002512:    bf00        ..      NOP      
        0x00002514:    eb041004    ....    ADD      r0,r4,r4,LSL #4
        0x00002518:    eb070080    ....    ADD      r0,r7,r0,LSL #2
        0x0000251c:    4621        !F      MOV      r1,r4
        0x0000251e:    8f42        B.      LDRH     r2,[r0,#0x3a]
        0x00002520:    a0e8        ..      ADR      r0,{pc}+0x3a4 ; 0x28c4
        0x00002522:    f7fefc39    ..9.    BL       am_sprintf ; 0xd98
        0x00002526:    1c60        `.      ADDS     r0,r4,#1
        0x00002528:    b284        ..      UXTH     r4,r0
        0x0000252a:    6828        (h      LDR      r0,[r5,#0]
        0x0000252c:    42a0        .B      CMP      r0,r4
        0x0000252e:    d8f1        ..      BHI      0x2514 ; main + 1188
        0x00002530:    980a        ..      LDR      r0,[sp,#0x28]
        0x00002532:    f0100f02    ....    TST      r0,#2
        0x00002536:    d011        ..      BEQ      0x255c ; main + 1260
        0x00002538:    6828        (h      LDR      r0,[r5,#0]
        0x0000253a:    2400        .$      MOVS     r4,#0
        0x0000253c:    2800        .(      CMP      r0,#0
        0x0000253e:    d90d        ..      BLS      0x255c ; main + 1260
        0x00002540:    eb041004    ....    ADD      r0,r4,r4,LSL #4
        0x00002544:    eb070080    ....    ADD      r0,r7,r0,LSL #2
        0x00002548:    4621        !F      MOV      r1,r4
        0x0000254a:    8f82        ..      LDRH     r2,[r0,#0x3c]
        0x0000254c:    a0e4        ..      ADR      r0,{pc}+0x394 ; 0x28e0
        0x0000254e:    f7fefc23    ..#.    BL       am_sprintf ; 0xd98
        0x00002552:    1c60        `.      ADDS     r0,r4,#1
        0x00002554:    b284        ..      UXTH     r4,r0
        0x00002556:    6828        (h      LDR      r0,[r5,#0]
        0x00002558:    42a0        .B      CMP      r0,r4
        0x0000255a:    d8f1        ..      BHI      0x2540 ; main + 1232
        0x0000255c:    980a        ..      LDR      r0,[sp,#0x28]
        0x0000255e:    f0100f04    ....    TST      r0,#4
        0x00002562:    d011        ..      BEQ      0x2588 ; main + 1304
        0x00002564:    6828        (h      LDR      r0,[r5,#0]
        0x00002566:    2400        .$      MOVS     r4,#0
        0x00002568:    2800        .(      CMP      r0,#0
        0x0000256a:    d90d        ..      BLS      0x2588 ; main + 1304
        0x0000256c:    eb041004    ....    ADD      r0,r4,r4,LSL #4
        0x00002570:    eb070080    ....    ADD      r0,r7,r0,LSL #2
        0x00002574:    4621        !F      MOV      r1,r4
        0x00002576:    8fc2        ..      LDRH     r2,[r0,#0x3e]
        0x00002578:    a0e0        ..      ADR      r0,{pc}+0x384 ; 0x28fc
        0x0000257a:    f7fefc0d    ....    BL       am_sprintf ; 0xd98
        0x0000257e:    1c60        `.      ADDS     r0,r4,#1
        0x00002580:    b284        ..      UXTH     r4,r0
        0x00002582:    6828        (h      LDR      r0,[r5,#0]
        0x00002584:    42a0        .B      CMP      r0,r4
        0x00002586:    d8f1        ..      BHI      0x256c ; main + 1276
        0x00002588:    6828        (h      LDR      r0,[r5,#0]
        0x0000258a:    2400        .$      MOVS     r4,#0
        0x0000258c:    2800        .(      CMP      r0,#0
        0x0000258e:    d90d        ..      BLS      0x25ac ; main + 1340
        0x00002590:    eb041004    ....    ADD      r0,r4,r4,LSL #4
        0x00002594:    eb070080    ....    ADD      r0,r7,r0,LSL #2
        0x00002598:    4621        !F      MOV      r1,r4
        0x0000259a:    8f02        ..      LDRH     r2,[r0,#0x38]
        0x0000259c:    a0de        ..      ADR      r0,{pc}+0x37c ; 0x2918
        0x0000259e:    f7fefbfb    ....    BL       am_sprintf ; 0xd98
        0x000025a2:    1c60        `.      ADDS     r0,r4,#1
        0x000025a4:    b284        ..      UXTH     r4,r0
        0x000025a6:    6828        (h      LDR      r0,[r5,#0]
        0x000025a8:    42a0        .B      CMP      r0,r4
        0x000025aa:    d8f1        ..      BHI      0x2590 ; main + 1312
        0x000025ac:    2e00        ..      CMP      r6,#0
        0x000025ae:    bfc8        ..      IT       GT
        0x000025b0:    a0e0        ..      ADRGT    r0,{pc}+0x384 ; 0x2934
        0x000025b2:    d004        ..      BEQ      0x25be ; main + 1358
        0x000025b4:    dd22        ".      BLE      0x25fc ; main + 1420
        0x000025b6:    bf00        ..      NOP      
        0x000025b8:    f7fefbee    ....    BL       am_sprintf ; 0xd98
        0x000025bc:    e1da        ..      B        0x2974 ; main + 2308
        0x000025be:    48e2        .H      LDR      r0,[pc,#904] ; [0x2948] = 0x38c0
        0x000025c0:    f7fefbea    ....    BL       am_sprintf ; 0xd98
        0x000025c4:    f1b80f03    ....    CMP      r8,#3
        0x000025c8:    d119        ..      BNE      0x25fe ; main + 1422
        0x000025ca:    9813        ..      LDR      r0,[sp,#0x4c]
        0x000025cc:    f000fcf0    ....    BL       time_in_secs ; 0x2fb0
        0x000025d0:    9809        ..      LDR      r0,[sp,#0x24]
        0x000025d2:    6829        )h      LDR      r1,[r5,#0]
        0x000025d4:    eeb08a40    ..@.    VMOV.F32 s16,s0
        0x000025d8:    eef08a60    ..`.    VMOV.F32 s17,s1
        0x000025dc:    4348        HC      MULS     r0,r1,r0
        0x000025de:    f000ffe2    ....    BL       __aeabi_ui2d ; 0x35a6
        0x000025e2:    ec532b18    S..+    VMOV     r2,r3,d8
        0x000025e6:    f000fe59    ..Y.    BL       __aeabi_ddiv ; 0x329c
        0x000025ea:    ec410b10    A...    VMOV     d0,r0,r1
        0x000025ee:    a1d7        ..      ADR      r1,{pc}+0x35e ; 0x294c
        0x000025f0:    a09b        ..      ADR      r0,{pc}+0x270 ; 0x2860
        0x000025f2:    ec532b10    S..+    VMOV     r2,r3,d0
        0x000025f6:    e9cd0100    ....    STRD     r0,r1,[sp,#0]
        0x000025fa:    e1ad        ..      B        0x2958 ; main + 2280
        0x000025fc:    e1b7        ..      B        0x296e ; main + 2302
        0x000025fe:    e1b9        ..      B        0x2974 ; main + 2308
    $d
        0x00002600:    00000000    ....    DCD    0
        0x00002604:    00000000    ....    DCD    0
        0x00002608:    00000000    ....    DCD    0
        0x0000260c:    3ff00000    ...?    DCD    1072693248
        0x00002610:    1000005c    \...    DCD    268435548
        0x00002614:    76206b36    6k v    DCD    1981836086
        0x00002618:    64696c61    alid    DCD    1684630625
        0x0000261c:    6f697461    atio    DCD    1869182049
        0x00002620:    7572206e    n ru    DCD    1970413678
        0x00002624:    6170206e    n pa    DCD    1634738286
        0x00002628:    656d6172    rame    DCD    1701667186
        0x0000262c:    73726574    ters    DCD    1936876916
        0x00002630:    726f6620     for    DCD    1919903264
        0x00002634:    726f6320     cor    DCD    1919902496
        0x00002638:    72616d65    emar    DCD    1918987621
        0x0000263c:    000a2e6b    k...    DCD    667243
        0x00002640:    76204b32    2K v    DCD    1981827890
        0x00002644:    64696c61    alid    DCD    1684630625
        0x00002648:    6f697461    atio    DCD    1869182049
        0x0000264c:    7572206e    n ru    DCD    1970413678
        0x00002650:    6170206e    n pa    DCD    1634738286
        0x00002654:    656d6172    rame    DCD    1701667186
        0x00002658:    73726574    ters    DCD    1936876916
        0x0000265c:    726f6620     for    DCD    1919903264
        0x00002660:    726f6320     cor    DCD    1919902496
        0x00002664:    72616d65    emar    DCD    1918987621
        0x00002668:    000a2e6b    k...    DCD    667243
        0x0000266c:    666f7250    Prof    DCD    1718579792
        0x00002670:    20656c69    ile     DCD    543517801
        0x00002674:    656e6567    gene    DCD    1701733735
        0x00002678:    69746172    rati    DCD    1769234802
        0x0000267c:    72206e6f    on r    DCD    1914728047
        0x00002680:    70206e75    un p    DCD    1881173621
        0x00002684:    6d617261    aram    DCD    1835102817
        0x00002688:    72657465    eter    DCD    1919251557
        0x0000268c:    6f662073    s fo    DCD    1868963955
        0x00002690:    6f632072    r co    DCD    1868767346
        0x00002694:    616d6572    rema    DCD    1634559346
        0x00002698:    0a2e6b72    rk..    DCD    170814322
        0x0000269c:    00000000    ....    DCD    0
        0x000026a0:    70204b32    2K p    DCD    1881164594
        0x000026a4:    6f667265    erfo    DCD    1868984933
        0x000026a8:    6e616d72    rman    DCD    1851878770
        0x000026ac:    72206563    ce r    DCD    1914725731
        0x000026b0:    70206e75    un p    DCD    1881173621
        0x000026b4:    6d617261    aram    DCD    1835102817
        0x000026b8:    72657465    eter    DCD    1919251557
        0x000026bc:    6f662073    s fo    DCD    1868963955
        0x000026c0:    6f632072    r co    DCD    1868767346
        0x000026c4:    616d6572    rema    DCD    1634559346
        0x000026c8:    0a2e6b72    rk..    DCD    170814322
        0x000026cc:    00000000    ....    DCD    0
        0x000026d0:    70206b36    6k p    DCD    1881172790
        0x000026d4:    6f667265    erfo    DCD    1868984933
        0x000026d8:    6e616d72    rman    DCD    1851878770
        0x000026dc:    72206563    ce r    DCD    1914725731
        0x000026e0:    70206e75    un p    DCD    1881173621
        0x000026e4:    6d617261    aram    DCD    1835102817
        0x000026e8:    72657465    eter    DCD    1919251557
        0x000026ec:    6f662073    s fo    DCD    1868963955
        0x000026f0:    6f632072    r co    DCD    1868767346
        0x000026f4:    616d6572    rema    DCD    1634559346
        0x000026f8:    0a2e6b72    rk..    DCD    170814322
        0x000026fc:    00000000    ....    DCD    0
        0x00002700:    10000004    ....    DCD    268435460
        0x00002704:    5d75255b    [%u]    DCD    1567958363
        0x00002708:    4f525245    ERRO    DCD    1330795077
        0x0000270c:    6c202152    R! l    DCD    1814045010
        0x00002710:    20747369    ist     DCD    544502633
        0x00002714:    20637263    crc     DCD    543388259
        0x00002718:    30257830    0x%0    DCD    807761968
        0x0000271c:    2d207834    4x -    DCD    757102644
        0x00002720:    6f687320     sho    DCD    1869116192
        0x00002724:    20646c75    uld     DCD    543452277
        0x00002728:    30206562    be 0    DCD    807429474
        0x0000272c:    34302578    x%04    DCD    875570552
        0x00002730:    00000a78    x...    DCD    2680
        0x00002734:    1000000e    ....    DCD    268435470
        0x00002738:    5d75255b    [%u]    DCD    1567958363
        0x0000273c:    4f525245    ERRO    DCD    1330795077
        0x00002740:    6d202152    R! m    DCD    1830822226
        0x00002744:    69727461    atri    DCD    1769108577
        0x00002748:    72632078    x cr    DCD    1919099000
        0x0000274c:    78302063    c 0x    DCD    2016419939
        0x00002750:    78343025    %04x    DCD    2016686117
        0x00002754:    73202d20     - s    DCD    1931488544
        0x00002758:    6c756f68    houl    DCD    1819635560
        0x0000275c:    65622064    d be    DCD    1700929636
        0x00002760:    25783020     0x%    DCD    628633632
        0x00002764:    0a783430    04x.    DCD    175649840
        0x00002768:    00000000    ....    DCD    0
        0x0000276c:    10000018    ....    DCD    268435480
        0x00002770:    5d75255b    [%u]    DCD    1567958363
        0x00002774:    4f525245    ERRO    DCD    1330795077
        0x00002778:    73202152    R! s    DCD    1931485522
        0x0000277c:    65746174    tate    DCD    1702125940
        0x00002780:    63726320     crc    DCD    1668440864
        0x00002784:    25783020     0x%    DCD    628633632
        0x00002788:    20783430    04x     DCD    544748592
        0x0000278c:    6873202d    - sh    DCD    1752375341
        0x00002790:    646c756f    ould    DCD    1684829551
        0x00002794:    20656220     be     DCD    543515168
        0x00002798:    30257830    0x%0    DCD    807761968
        0x0000279c:    000a7834    4x..    DCD    686132
        0x000027a0:    65726f43    Core    DCD    1701998403
        0x000027a4:    6b72614d    Mark    DCD    1802658125
        0x000027a8:    7a695320     Siz    DCD    2053722912
        0x000027ac:    20202065    e       DCD    538976357
        0x000027b0:    25203a20     : %    DCD    622869024
        0x000027b4:    000a756c    lu..    DCD    685420
        0x000027b8:    61746f54    Tota    DCD    1635020628
        0x000027bc:    6974206c    l ti    DCD    1769218156
        0x000027c0:    20736b63    cks     DCD    544435043
        0x000027c4:    20202020            DCD    538976288
        0x000027c8:    25203a20     : %    DCD    622869024
        0x000027cc:    000a756c    lu..    DCD    685420
        0x000027d0:    61746f54    Tota    DCD    1635020628
        0x000027d4:    6974206c    l ti    DCD    1769218156
        0x000027d8:    2820656d    me (    DCD    673211757
        0x000027dc:    73636573    secs    DCD    1935893875
        0x000027e0:    25203a29    ): %    DCD    622869033
        0x000027e4:    00000a66    f...    DCD    2662
        0x000027e8:    72657449    Iter    DCD    1919251529
        0x000027ec:    6f697461    atio    DCD    1869182049
        0x000027f0:    532f736e    ns/S    DCD    1395618670
        0x000027f4:    20206365    ec      DCD    538993509
        0x000027f8:    25203a20     : %    DCD    622869024
        0x000027fc:    00000a66    f...    DCD    2662
        0x00002800:    00000000    ....    DCD    0
        0x00002804:    40240000    ..$@    DCD    1076101120
        0x00002808:    4f525245    ERRO    DCD    1330795077
        0x0000280c:    4d202152    R! M    DCD    1293951314
        0x00002810:    20747375    ust     DCD    544502645
        0x00002814:    63657865    exec    DCD    1667594341
        0x00002818:    20657475    ute     DCD    543519861
        0x0000281c:    20726f66    for     DCD    544370534
        0x00002820:    6c207461    at l    DCD    1814066273
        0x00002824:    74736165    east    DCD    1953718629
        0x00002828:    20303120     10     DCD    540029216
        0x0000282c:    73636573    secs    DCD    1935893875
        0x00002830:    726f6620     for    DCD    1919903264
        0x00002834:    76206120     a v    DCD    1981833504
        0x00002838:    64696c61    alid    DCD    1684630625
        0x0000283c:    73657220     res    DCD    1936028192
        0x00002840:    21746c75    ult!    DCD    561278069
        0x00002844:    0000000a    ....    DCD    10
        0x00002848:    72657449    Iter    DCD    1919251529
        0x0000284c:    6f697461    atio    DCD    1869182049
        0x00002850:    2020736e    ns      DCD    538997614
        0x00002854:    20202020            DCD    538976288
        0x00002858:    25203a20     : %    DCD    622869024
        0x0000285c:    000a756c    lu..    DCD    685420
        0x00002860:    434d5241    ARMC    DCD    1129140801
        0x00002864:    30352043    C 50    DCD    808788035
        0x00002868:    35373036    6075    DCD    892809270
        0x0000286c:    00000030    0...    DCD    48
        0x00002870:    706d6f43    Comp    DCD    1886220099
        0x00002874:    72656c69    iler    DCD    1919249513
        0x00002878:    72657620     ver    DCD    1919252000
        0x0000287c:    6e6f6973    sion    DCD    1852795251
        0x00002880:    25203a20     : %    DCD    622869024
        0x00002884:    00000a73    s...    DCD    2675
        0x00002888:    43415453    STAC    DCD    1128354899
        0x0000288c:    0000004b    K...    DCD    75
        0x00002890:    6f6d654d    Memo    DCD    1869440333
        0x00002894:    6c207972    ry l    DCD    1814067570
        0x00002898:    7461636f    ocat    DCD    1952539503
        0x0000289c:    206e6f69    ion     DCD    544108393
        0x000028a0:    25203a20     : %    DCD    622869024
        0x000028a4:    00000a73    s...    DCD    2675
        0x000028a8:    64656573    seed    DCD    1684366707
        0x000028ac:    20637263    crc     DCD    543388259
        0x000028b0:    20202020            DCD    538976288
        0x000028b4:    20202020            DCD    538976288
        0x000028b8:    30203a20     : 0    DCD    807418400
        0x000028bc:    34302578    x%04    DCD    875570552
        0x000028c0:    00000a78    x...    DCD    2680
        0x000028c4:    5d64255b    [%d]    DCD    1566844251
        0x000028c8:    6c637263    crcl    DCD    1818456675
        0x000028cc:    20747369    ist     DCD    544502633
        0x000028d0:    20202020            DCD    538976288
        0x000028d4:    203a2020      :     DCD    540680224
        0x000028d8:    30257830    0x%0    DCD    807761968
        0x000028dc:    000a7834    4x..    DCD    686132
        0x000028e0:    5d64255b    [%d]    DCD    1566844251
        0x000028e4:    6d637263    crcm    DCD    1835233891
        0x000028e8:    69727461    atri    DCD    1769108577
        0x000028ec:    20202078    x       DCD    538976376
        0x000028f0:    203a2020      :     DCD    540680224
        0x000028f4:    30257830    0x%0    DCD    807761968
        0x000028f8:    000a7834    4x..    DCD    686132
        0x000028fc:    5d64255b    [%d]    DCD    1566844251
        0x00002900:    73637263    crcs    DCD    1935897187
        0x00002904:    65746174    tate    DCD    1702125940
        0x00002908:    20202020            DCD    538976288
        0x0000290c:    203a2020      :     DCD    540680224
        0x00002910:    30257830    0x%0    DCD    807761968
        0x00002914:    000a7834    4x..    DCD    686132
        0x00002918:    5d64255b    [%d]    DCD    1566844251
        0x0000291c:    66637263    crcf    DCD    1717793379
        0x00002920:    6c616e69    inal    DCD    1818324585
        0x00002924:    20202020            DCD    538976288
        0x00002928:    203a2020      :     DCD    540680224
        0x0000292c:    30257830    0x%0    DCD    807761968
        0x00002930:    000a7834    4x..    DCD    686132
        0x00002934:    6f727245    Erro    DCD    1869771333
        0x00002938:    64207372    rs d    DCD    1679848306
        0x0000293c:    63657465    etec    DCD    1667593317
        0x00002940:    0a646574    ted.    DCD    174351732
        0x00002944:    00000000    ....    DCD    0
        0x00002948:    000038c0    .8..    DCD    14528
        0x0000294c:    67616c66    flag    DCD    1734437990
        0x00002950:    2d203a73    s: -    DCD    757086835
        0x00002954:    0000336f    o3..    DCD    13167
    $t
        0x00002958:    a01d        ..      ADR      r0,{pc}+0x78 ; 0x29d0
        0x0000295a:    f7fefa1d    ....    BL       am_sprintf ; 0xd98
        0x0000295e:    f2af01d8    ....    ADR      r1,{pc}-0xd6 ; 0x2888
        0x00002962:    a022        ".      ADR      r0,{pc}+0x8a ; 0x29ec
        0x00002964:    f7fefa18    ....    BL       am_sprintf ; 0xd98
        0x00002968:    f2af1028    ..(.    ADR      r0,{pc}-0x124 ; 0x2844
        0x0000296c:    e624        $.      B        0x25b8 ; main + 1352
        0x0000296e:    4821        !H      LDR      r0,[pc,#132] ; [0x29f4] = 0x385c
        0x00002970:    f7fefa12    ....    BL       am_sprintf ; 0xd98
        0x00002974:    9813        ..      LDR      r0,[sp,#0x4c]
        0x00002976:    f000fb1b    ....    BL       time_in_secs ; 0x2fb0
        0x0000297a:    9809        ..      LDR      r0,[sp,#0x24]
        0x0000297c:    6829        )h      LDR      r1,[r5,#0]
        0x0000297e:    eeb08a40    ..@.    VMOV.F32 s16,s0
        0x00002982:    eef08a60    ..`.    VMOV.F32 s17,s1
        0x00002986:    4348        HC      MULS     r0,r1,r0
        0x00002988:    f000fe0d    ....    BL       __aeabi_ui2d ; 0x35a6
        0x0000298c:    ec532b18    S..+    VMOV     r2,r3,d8
        0x00002990:    f000fc84    ....    BL       __aeabi_ddiv ; 0x329c
        0x00002994:    ed9f1b18    ....    VLDR     d1,[pc,#96] ; [0x29f8] = 0
        0x00002998:    ec532b11    S..+    VMOV     r2,r3,d1
        0x0000299c:    f000fc7e    ..~.    BL       __aeabi_ddiv ; 0x329c
        0x000029a0:    f000fc3e    ..>.    BL       __aeabi_d2f ; 0x3220
        0x000029a4:    f000fed8    ....    BL       __aeabi_f2d ; 0x3758
        0x000029a8:    ec410b10    A...    VMOV     d0,r0,r1
        0x000029ac:    a014        ..      ADR      r0,{pc}+0x54 ; 0x2a00
        0x000029ae:    ec532b10    S..+    VMOV     r2,r3,d0
        0x000029b2:    f7fef9f1    ....    BL       am_sprintf ; 0xd98
        0x000029b6:    f1070042    ..B.    ADD      r0,r7,#0x42
        0x000029ba:    f000fa1f    ....    BL       portable_fini ; 0x2dfc
        0x000029be:    f60d0d2c    ..,.    ADD      sp,sp,#0x82c
        0x000029c2:    2000        .       MOVS     r0,#0
        0x000029c4:    ecbd8b06    ....    VPOP     {d8-d10}
        0x000029c8:    e8bd8ff0    ....    POP      {r4-r11,pc}
    $d
        0x000029cc:    00000000    ....    DCD    0
        0x000029d0:    65726f43    Core    DCD    1701998403
        0x000029d4:    6b72614d    Mark    DCD    1802658125
        0x000029d8:    302e3120     1.0    DCD    808333600
        0x000029dc:    25203a20     : %    DCD    622869024
        0x000029e0:    202f2066    f /     DCD    539959398
        0x000029e4:    25207325    %s %    DCD    622883621
        0x000029e8:    00000073    s...    DCD    115
        0x000029ec:    25202f20     / %    DCD    622866208
        0x000029f0:    00000073    s...    DCD    115
        0x000029f4:    0000385c    \8..    DCD    14428
        0x000029f8:    00000000    ....    DCD    0
        0x000029fc:    40480000    ..H@    DCD    1078460416
        0x00002a00:    4d2f4d43    CM/M    DCD    1294945603
        0x00002a04:    253d7a48    Hz=%    DCD    624785992
        0x00002a08:    2e66332e    .3f.    DCD    778449710
        0x00002a0c:    0000000a    ....    DCD    10
    $t
    i.matrix_sum
    matrix_sum
        0x00002a10:    e92d01f0    -...    PUSH     {r4-r8}
        0x00002a14:    2400        .$      MOVS     r4,#0
        0x00002a16:    46a0        .F      MOV      r8,r4
        0x00002a18:    46a4        .F      MOV      r12,r4
        0x00002a1a:    2800        .(      CMP      r0,#0
        0x00002a1c:    bf18        ..      IT       NE
        0x00002a1e:    2500        .%      MOVNE    r5,#0
        0x00002a20:    d916        ..      BLS      0x2a50 ; matrix_sum + 64
        0x00002a22:    e000        ..      B        0x2a26 ; matrix_sum + 22
        0x00002a24:    b188        ..      CBZ      r0,0x2a4a ; matrix_sum + 58
        0x00002a26:    fb05f300    ....    MUL      r3,r5,r0
        0x00002a2a:    eb010683    ....    ADD      r6,r1,r3,LSL #2
        0x00002a2e:    4607        .F      MOV      r7,r0
        0x00002a30:    6833        3h      LDR      r3,[r6,#0]
        0x00002a32:    441c        .D      ADD      r4,r4,r3
        0x00002a34:    4294        .B      CMP      r4,r2
        0x00002a36:    dd0f        ..      BLE      0x2a58 ; matrix_sum + 72
        0x00002a38:    f10c0c0a    ....    ADD      r12,r12,#0xa
        0x00002a3c:    fa0ffc8c    ....    SXTH     r12,r12
        0x00002a40:    2400        .$      MOVS     r4,#0
        0x00002a42:    1d36        6.      ADDS     r6,r6,#4
        0x00002a44:    4698        .F      MOV      r8,r3
        0x00002a46:    1e7f        ..      SUBS     r7,r7,#1
        0x00002a48:    d1f2        ..      BNE      0x2a30 ; matrix_sum + 32
        0x00002a4a:    1c6d        m.      ADDS     r5,r5,#1
        0x00002a4c:    4285        .B      CMP      r5,r0
        0x00002a4e:    d3e9        ..      BCC      0x2a24 ; matrix_sum + 20
        0x00002a50:    e8bd01f0    ....    POP      {r4-r8}
        0x00002a54:    4660        `F      MOV      r0,r12
        0x00002a56:    4770        pG      BX       lr
        0x00002a58:    4543        CE      CMP      r3,r8
        0x00002a5a:    bfcc        ..      ITE      GT
        0x00002a5c:    f04f0801    O...    MOVGT    r8,#1
        0x00002a60:    f04f0800    O...    MOVLE    r8,#0
        0x00002a64:    44c4        .D      ADD      r12,r12,r8
        0x00002a66:    fa0ffc8c    ....    SXTH     r12,r12
        0x00002a6a:    e7ea        ..      B        0x2a42 ; matrix_sum + 50
    i.matrix_test
    matrix_test
        0x00002a6c:    e92d4fff    -..O    PUSH     {r0-r11,lr}
        0x00002a70:    b091        ..      SUB      sp,sp,#0x44
        0x00002a72:    2600        .&      MOVS     r6,#0
        0x00002a74:    981e        ..      LDR      r0,[sp,#0x78]
        0x00002a76:    9a13        ..      LDR      r2,[sp,#0x4c]
        0x00002a78:    f4404070    @.p@    ORR      r0,r0,#0xf000
        0x00002a7c:    b200        ..      SXTH     r0,r0
        0x00002a7e:    900c        ..      STR      r0,[sp,#0x30]
        0x00002a80:    9811        ..      LDR      r0,[sp,#0x44]
        0x00002a82:    991e        ..      LDR      r1,[sp,#0x78]
        0x00002a84:    fb00f300    ....    MUL      r3,r0,r0
        0x00002a88:    930b        ..      STR      r3,[sp,#0x2c]
        0x00002a8a:    2800        .(      CMP      r0,#0
        0x00002a8c:    bf18        ..      IT       NE
        0x00002a8e:    ea5f0c03    _...    MOVSNE   r12,r3
        0x00002a92:    d014        ..      BEQ      0x2abe ; matrix_test + 82
        0x00002a94:    f0100001    ....    ANDS     r0,r0,#1
        0x00002a98:    d002        ..      BEQ      0x2aa0 ; matrix_test + 52
        0x00002a9a:    8813        ..      LDRH     r3,[r2,#0]
        0x00002a9c:    440b        .D      ADD      r3,r3,r1
        0x00002a9e:    8013        ..      STRH     r3,[r2,#0]
        0x00002aa0:    4584        .E      CMP      r12,r0
        0x00002aa2:    d90c        ..      BLS      0x2abe ; matrix_test + 82
        0x00002aa4:    f8323010    2..0    LDRH     r3,[r2,r0,LSL #1]
        0x00002aa8:    440b        .D      ADD      r3,r3,r1
        0x00002aaa:    f8223010    "..0    STRH     r3,[r2,r0,LSL #1]
        0x00002aae:    eb020340    ..@.    ADD      r3,r2,r0,LSL #1
        0x00002ab2:    1c80        ..      ADDS     r0,r0,#2
        0x00002ab4:    885c        \.      LDRH     r4,[r3,#2]
        0x00002ab6:    4584        .E      CMP      r12,r0
        0x00002ab8:    440c        .D      ADD      r4,r4,r1
        0x00002aba:    805c        \.      STRH     r4,[r3,#2]
        0x00002abc:    d8f2        ..      BHI      0x2aa4 ; matrix_test + 56
        0x00002abe:    e9dd0911    ....    LDRD     r0,r9,[sp,#0x44]
        0x00002ac2:    f8dd804c    ..L.    LDR      r8,[sp,#0x4c]
        0x00002ac6:    9d1e        ..      LDR      r5,[sp,#0x78]
        0x00002ac8:    2800        .(      CMP      r0,#0
        0x00002aca:    bf18        ..      IT       NE
        0x00002acc:    2400        .$      MOVNE    r4,#0
        0x00002ace:    bf88        ..      IT       HI
        0x00002ad0:    0847        G.      LSRHI    r7,r0,#1
        0x00002ad2:    d926        &.      BLS      0x2b22 ; matrix_test + 182
        0x00002ad4:    fb04f100    ....    MUL      r1,r4,r0
        0x00002ad8:    eb080241    ..A.    ADD      r2,r8,r1,LSL #1
        0x00002adc:    eb090181    ....    ADD      r1,r9,r1,LSL #2
        0x00002ae0:    f1a20c02    ....    SUB      r12,r2,#2
        0x00002ae4:    f1a10304    ....    SUB      r3,r1,#4
        0x00002ae8:    f0100f01    ....    TST      r0,#1
        0x00002aec:    d005        ..      BEQ      0x2afa ; matrix_test + 142
        0x00002aee:    f93c1f02    <...    LDRSH    r1,[r12,#2]!
        0x00002af2:    fb01f105    ....    MUL      r1,r1,r5
        0x00002af6:    f8431f04    C...    STR      r1,[r3,#4]!
        0x00002afa:    003a        :.      MOVS     r2,r7
        0x00002afc:    d00b        ..      BEQ      0x2b16 ; matrix_test + 170
        0x00002afe:    bf00        ..      NOP      
        0x00002b00:    f9bc1002    ....    LDRSH    r1,[r12,#2]
        0x00002b04:    4369        iC      MULS     r1,r5,r1
        0x00002b06:    6059        Y`      STR      r1,[r3,#4]
        0x00002b08:    f93c1f04    <...    LDRSH    r1,[r12,#4]!
        0x00002b0c:    4369        iC      MULS     r1,r5,r1
        0x00002b0e:    f8431f08    C...    STR      r1,[r3,#8]!
        0x00002b12:    1e52        R.      SUBS     r2,r2,#1
        0x00002b14:    d1f4        ..      BNE      0x2b00 ; matrix_test + 148
        0x00002b16:    1c64        d.      ADDS     r4,r4,#1
        0x00002b18:    4284        .B      CMP      r4,r0
        0x00002b1a:    d202        ..      BCS      0x2b22 ; matrix_test + 182
        0x00002b1c:    2800        .(      CMP      r0,#0
        0x00002b1e:    d1d9        ..      BNE      0x2ad4 ; matrix_test + 104
        0x00002b20:    e7f9        ..      B        0x2b16 ; matrix_test + 170
        0x00002b22:    e9dd0111    ....    LDRD     r0,r1,[sp,#0x44]
        0x00002b26:    9a0c        ..      LDR      r2,[sp,#0x30]
        0x00002b28:    f7ffff72    ..r.    BL       matrix_sum ; 0x2a10
        0x00002b2c:    4631        1F      MOV      r1,r6
        0x00002b2e:    f7fffa1b    ....    BL       crc16 ; 0x1f68
        0x00002b32:    9001        ..      STR      r0,[sp,#4]
        0x00002b34:    e9ddc811    ....    LDRD     r12,r8,[sp,#0x44]
        0x00002b38:    e9ddba13    ....    LDRD     r11,r10,[sp,#0x4c]
        0x00002b3c:    f1bc0f00    ....    CMP      r12,#0
        0x00002b40:    bf18        ..      IT       NE
        0x00002b42:    2400        .$      MOVNE    r4,#0
        0x00002b44:    bf84        ..      ITT      HI
        0x00002b46:    ea4f095c    O.\.    LSRHI    r9,r12,#1
        0x00002b4a:    2700        .'      MOVHI    r7,#0
        0x00002b4c:    d92c        ,.      BLS      0x2ba8 ; matrix_test + 316
        0x00002b4e:    4638        8F      MOV      r0,r7
        0x00002b50:    f8487024    H.$p    STR      r7,[r8,r4,LSL #2]
        0x00002b54:    f1bc0f00    ....    CMP      r12,#0
        0x00002b58:    d023        #.      BEQ      0x2ba2 ; matrix_test + 310
        0x00002b5a:    fb04f10c    ....    MUL      r1,r4,r12
        0x00002b5e:    eb0b0141    ..A.    ADD      r1,r11,r1,LSL #1
        0x00002b62:    1e8a        ..      SUBS     r2,r1,#2
        0x00002b64:    f1aa0302    ....    SUB      r3,r10,#2
        0x00002b68:    f01c0f01    ....    TST      r12,#1
        0x00002b6c:    d005        ..      BEQ      0x2b7a ; matrix_test + 270
        0x00002b6e:    f8321f02    2...    LDRH     r1,[r2,#2]!
        0x00002b72:    f8335f02    3.._    LDRH     r5,[r3,#2]!
        0x00002b76:    fb110005    ....    SMLABB   r0,r1,r5,r0
        0x00002b7a:    2500        .%      MOVS     r5,#0
        0x00002b7c:    ea5f0109    _...    MOVS     r1,r9
        0x00002b80:    d00c        ..      BEQ      0x2b9c ; matrix_test + 304
        0x00002b82:    8856        V.      LDRH     r6,[r2,#2]
        0x00002b84:    f8b3e002    ....    LDRH     lr,[r3,#2]
        0x00002b88:    fb16000e    ....    SMLABB   r0,r6,lr,r0
        0x00002b8c:    f8326f04    2..o    LDRH     r6,[r2,#4]!
        0x00002b90:    f833ef04    3...    LDRH     lr,[r3,#4]!
        0x00002b94:    fb16550e    ...U    SMLABB   r5,r6,lr,r5
        0x00002b98:    1e49        I.      SUBS     r1,r1,#1
        0x00002b9a:    d1f2        ..      BNE      0x2b82 ; matrix_test + 278
        0x00002b9c:    4428        (D      ADD      r0,r0,r5
        0x00002b9e:    f8480024    H.$.    STR      r0,[r8,r4,LSL #2]
        0x00002ba2:    1c64        d.      ADDS     r4,r4,#1
        0x00002ba4:    4564        dE      CMP      r4,r12
        0x00002ba6:    d3d2        ..      BCC      0x2b4e ; matrix_test + 226
        0x00002ba8:    e9dd0111    ....    LDRD     r0,r1,[sp,#0x44]
        0x00002bac:    9a0c        ..      LDR      r2,[sp,#0x30]
        0x00002bae:    f7ffff2f    ../.    BL       matrix_sum ; 0x2a10
        0x00002bb2:    9901        ..      LDR      r1,[sp,#4]
        0x00002bb4:    f7fff9d8    ....    BL       crc16 ; 0x1f68
        0x00002bb8:    9001        ..      STR      r0,[sp,#4]
        0x00002bba:    e9dd0711    ....    LDRD     r0,r7,[sp,#0x44]
        0x00002bbe:    9913        ..      LDR      r1,[sp,#0x4c]
        0x00002bc0:    9109        ..      STR      r1,[sp,#0x24]
        0x00002bc2:    9914        ..      LDR      r1,[sp,#0x50]
        0x00002bc4:    910d        ..      STR      r1,[sp,#0x34]
        0x00002bc6:    2800        .(      CMP      r0,#0
        0x00002bc8:    bf18        ..      IT       NE
        0x00002bca:    2500        .%      MOVNE    r5,#0
        0x00002bcc:    bf88        ..      IT       HI
        0x00002bce:    ea4f0850    O.P.    LSRHI    r8,r0,#1
        0x00002bd2:    d93f        ?.      BLS      0x2c54 ; matrix_test + 488
        0x00002bd4:    f04f0600    O...    MOV      r6,#0
        0x00002bd8:    2800        .(      CMP      r0,#0
        0x00002bda:    d935        5.      BLS      0x2c48 ; matrix_test + 476
        0x00002bdc:    9a09        ..      LDR      r2,[sp,#0x24]
        0x00002bde:    fb05f100    ....    MUL      r1,r5,r0
        0x00002be2:    eb020a41    ..A.    ADD      r10,r2,r1,LSL #1
        0x00002be6:    fb056900    ...i    MLA      r9,r5,r0,r6
        0x00002bea:    2100        .!      MOVS     r1,#0
        0x00002bec:    f8471029    G.).    STR      r1,[r7,r9,LSL #2]
        0x00002bf0:    b338        8.      CBZ      r0,0x2c42 ; matrix_test + 470
        0x00002bf2:    1a33        3.      SUBS     r3,r6,r0
        0x00002bf4:    9a0d        ..      LDR      r2,[sp,#0x34]
        0x00002bf6:    f1aa0c02    ....    SUB      r12,r10,#2
        0x00002bfa:    eb020343    ..C.    ADD      r3,r2,r3,LSL #1
        0x00002bfe:    f0100f01    ....    TST      r0,#1
        0x00002c02:    d006        ..      BEQ      0x2c12 ; matrix_test + 422
        0x00002c04:    eb030340    ..@.    ADD      r3,r3,r0,LSL #1
        0x00002c08:    f83c2f02    <../    LDRH     r2,[r12,#2]!
        0x00002c0c:    881c        ..      LDRH     r4,[r3,#0]
        0x00002c0e:    fb121104    ....    SMLABB   r1,r2,r4,r1
        0x00002c12:    2400        .$      MOVS     r4,#0
        0x00002c14:    ea5f0208    _...    MOVS     r2,r8
        0x00002c18:    d010        ..      BEQ      0x2c3c ; matrix_test + 464
        0x00002c1a:    bf00        ..      NOP      
        0x00002c1c:    f8bcb002    ....    LDRH     r11,[r12,#2]
        0x00002c20:    f833e010    3...    LDRH     lr,[r3,r0,LSL #1]
        0x00002c24:    fb1b110e    ....    SMLABB   r1,r11,lr,r1
        0x00002c28:    eb030380    ....    ADD      r3,r3,r0,LSL #2
        0x00002c2c:    f83cbf04    <...    LDRH     r11,[r12,#4]!
        0x00002c30:    f8b3e000    ....    LDRH     lr,[r3,#0]
        0x00002c34:    fb1b440e    ...D    SMLABB   r4,r11,lr,r4
        0x00002c38:    1e52        R.      SUBS     r2,r2,#1
        0x00002c3a:    d1ef        ..      BNE      0x2c1c ; matrix_test + 432
        0x00002c3c:    4421        !D      ADD      r1,r1,r4
        0x00002c3e:    f8471029    G.).    STR      r1,[r7,r9,LSL #2]
        0x00002c42:    1c76        v.      ADDS     r6,r6,#1
        0x00002c44:    4286        .B      CMP      r6,r0
        0x00002c46:    d3ce        ..      BCC      0x2be6 ; matrix_test + 378
        0x00002c48:    1c6d        m.      ADDS     r5,r5,#1
        0x00002c4a:    4285        .B      CMP      r5,r0
        0x00002c4c:    d202        ..      BCS      0x2c54 ; matrix_test + 488
        0x00002c4e:    2800        .(      CMP      r0,#0
        0x00002c50:    d0fa        ..      BEQ      0x2c48 ; matrix_test + 476
        0x00002c52:    e7bf        ..      B        0x2bd4 ; matrix_test + 360
        0x00002c54:    e9dd0111    ....    LDRD     r0,r1,[sp,#0x44]
        0x00002c58:    9a0c        ..      LDR      r2,[sp,#0x30]
        0x00002c5a:    f7fffed9    ....    BL       matrix_sum ; 0x2a10
        0x00002c5e:    9901        ..      LDR      r1,[sp,#4]
        0x00002c60:    f7fff982    ....    BL       crc16 ; 0x1f68
        0x00002c64:    9001        ..      STR      r0,[sp,#4]
        0x00002c66:    e9dd0811    ....    LDRD     r0,r8,[sp,#0x44]
        0x00002c6a:    9913        ..      LDR      r1,[sp,#0x4c]
        0x00002c6c:    910a        ..      STR      r1,[sp,#0x28]
        0x00002c6e:    f8ddb050    ..P.    LDR      r11,[sp,#0x50]
        0x00002c72:    2800        .(      CMP      r0,#0
        0x00002c74:    bf18        ..      IT       NE
        0x00002c76:    2600        .&      MOVNE    r6,#0
        0x00002c78:    bf88        ..      IT       HI
        0x00002c7a:    f04f0900    O...    MOVHI    r9,#0
        0x00002c7e:    d92d        -.      BLS      0x2cdc ; matrix_test + 624
        0x00002c80:    f04f0400    O...    MOV      r4,#0
        0x00002c84:    2800        .(      CMP      r0,#0
        0x00002c86:    d923        #.      BLS      0x2cd0 ; matrix_test + 612
        0x00002c88:    9a0a        ..      LDR      r2,[sp,#0x28]
        0x00002c8a:    fb06f100    ....    MUL      r1,r6,r0
        0x00002c8e:    eb020a41    ..A.    ADD      r10,r2,r1,LSL #1
        0x00002c92:    fb064e00    ...N    MLA      lr,r6,r0,r4
        0x00002c96:    4649        IF      MOV      r1,r9
        0x00002c98:    f848902e    H...    STR      r9,[r8,lr,LSL #2]
        0x00002c9c:    b1a8        ..      CBZ      r0,0x2cca ; matrix_test + 606
        0x00002c9e:    4652        RF      MOV      r2,r10
        0x00002ca0:    eb0b0344    ..D.    ADD      r3,r11,r4,LSL #1
        0x00002ca4:    ea4f0500    O...    MOV.W    r5,r0
        0x00002ca8:    f832cb02    2...    LDRH     r12,[r2],#2
        0x00002cac:    881f        ..      LDRH     r7,[r3,#0]
        0x00002cae:    fb1cfc07    ....    SMULBB   r12,r12,r7
        0x00002cb2:    f3cc0783    ....    UBFX     r7,r12,#2,#4
        0x00002cb6:    f3cc1c46    ..F.    UBFX     r12,r12,#5,#7
        0x00002cba:    fb17110c    ....    SMLABB   r1,r7,r12,r1
        0x00002cbe:    eb030340    ..@.    ADD      r3,r3,r0,LSL #1
        0x00002cc2:    1e6d        m.      SUBS     r5,r5,#1
        0x00002cc4:    d1f0        ..      BNE      0x2ca8 ; matrix_test + 572
        0x00002cc6:    f848102e    H...    STR      r1,[r8,lr,LSL #2]
        0x00002cca:    1c64        d.      ADDS     r4,r4,#1
        0x00002ccc:    4284        .B      CMP      r4,r0
        0x00002cce:    d3e0        ..      BCC      0x2c92 ; matrix_test + 550
        0x00002cd0:    1c76        v.      ADDS     r6,r6,#1
        0x00002cd2:    4286        .B      CMP      r6,r0
        0x00002cd4:    d202        ..      BCS      0x2cdc ; matrix_test + 624
        0x00002cd6:    2800        .(      CMP      r0,#0
        0x00002cd8:    d0fa        ..      BEQ      0x2cd0 ; matrix_test + 612
        0x00002cda:    e7d1        ..      B        0x2c80 ; matrix_test + 532
        0x00002cdc:    e9dd0111    ....    LDRD     r0,r1,[sp,#0x44]
        0x00002ce0:    9a0c        ..      LDR      r2,[sp,#0x30]
        0x00002ce2:    f7fffe95    ....    BL       matrix_sum ; 0x2a10
        0x00002ce6:    9901        ..      LDR      r1,[sp,#4]
        0x00002ce8:    f7fff93e    ..>.    BL       crc16 ; 0x1f68
        0x00002cec:    9a1e        ..      LDR      r2,[sp,#0x78]
        0x00002cee:    9911        ..      LDR      r1,[sp,#0x44]
        0x00002cf0:    4252        RB      RSBS     r2,r2,#0
        0x00002cf2:    9b13        ..      LDR      r3,[sp,#0x4c]
        0x00002cf4:    fa0ffc82    ....    SXTH     r12,r2
        0x00002cf8:    2900        .)      CMP      r1,#0
        0x00002cfa:    bf1c        ..      ITT      NE
        0x00002cfc:    9c0b        ..      LDRNE    r4,[sp,#0x2c]
        0x00002cfe:    2c00        .,      CMPNE    r4,#0
        0x00002d00:    d015        ..      BEQ      0x2d2e ; matrix_test + 706
        0x00002d02:    f0110101    ....    ANDS     r1,r1,#1
        0x00002d06:    d002        ..      BEQ      0x2d0e ; matrix_test + 674
        0x00002d08:    881a        ..      LDRH     r2,[r3,#0]
        0x00002d0a:    4462        bD      ADD      r2,r2,r12
        0x00002d0c:    801a        ..      STRH     r2,[r3,#0]
        0x00002d0e:    428c        .B      CMP      r4,r1
        0x00002d10:    d90d        ..      BLS      0x2d2e ; matrix_test + 706
        0x00002d12:    bf00        ..      NOP      
        0x00002d14:    f8332011    3..     LDRH     r2,[r3,r1,LSL #1]
        0x00002d18:    4462        bD      ADD      r2,r2,r12
        0x00002d1a:    f8232011    #..     STRH     r2,[r3,r1,LSL #1]
        0x00002d1e:    eb030241    ..A.    ADD      r2,r3,r1,LSL #1
        0x00002d22:    1c89        ..      ADDS     r1,r1,#2
        0x00002d24:    8855        U.      LDRH     r5,[r2,#2]
        0x00002d26:    428c        .B      CMP      r4,r1
        0x00002d28:    4465        eD      ADD      r5,r5,r12
        0x00002d2a:    8055        U.      STRH     r5,[r2,#2]
        0x00002d2c:    d8f2        ..      BHI      0x2d14 ; matrix_test + 680
        0x00002d2e:    b015        ..      ADD      sp,sp,#0x54
        0x00002d30:    b200        ..      SXTH     r0,r0
        0x00002d32:    e8bd8ff0    ....    POP      {r4-r11,pc}
    i.ndigits_in_u64
    ndigits_in_u64
        0x00002d36:    e92d01f0    -...    PUSH     {r4-r8}
        0x00002d3a:    ea500201    P...    ORRS     r2,r0,r1
        0x00002d3e:    bf0e        ..      ITEE     EQ
        0x00002d40:    2301        .#      MOVEQ    r3,#1
        0x00002d42:    2300        .#      MOVNE    r3,#0
        0x00002d44:    f04f0c00    O...    MOVNE    r12,#0
        0x00002d48:    d054        T.      BEQ      0x2df4 ; ndigits_in_u64 + 190
        0x00002d4a:    2900        .)      CMP      r1,#0
        0x00002d4c:    d03b        ;.      BEQ      0x2dc6 ; ndigits_in_u64 + 144
        0x00002d4e:    084c        L.      LSRS     r4,r1,#1
        0x00002d50:    ea4f0690    O...    LSR      r6,r0,#2
        0x00002d54:    ea4f0230    O.0.    RRX      r2,r0
        0x00002d58:    ea467681    F..v    ORR      r6,r6,r1,LSL #30
        0x00002d5c:    1992        ..      ADDS     r2,r2,r6
        0x00002d5e:    eb440491    D...    ADC      r4,r4,r1,LSR #2
        0x00002d62:    ea4f1612    O...    LSR      r6,r2,#4
        0x00002d66:    ea467504    F..u    ORR      r5,r6,r4,LSL #28
        0x00002d6a:    18aa        ..      ADDS     r2,r5,r2
        0x00002d6c:    eb441414    D...    ADC      r4,r4,r4,LSR #4
        0x00002d70:    ea4f2612    O..&    LSR      r6,r2,#8
        0x00002d74:    ea466504    F..e    ORR      r5,r6,r4,LSL #24
        0x00002d78:    18aa        ..      ADDS     r2,r5,r2
        0x00002d7a:    eb442514    D..%    ADC      r5,r4,r4,LSR #8
        0x00002d7e:    ea4f4612    O..F    LSR      r6,r2,#16
        0x00002d82:    ea464405    F..D    ORR      r4,r6,r5,LSL #16
        0x00002d86:    18a4        ..      ADDS     r4,r4,r2
        0x00002d88:    eb454215    E..B    ADC      r2,r5,r5,LSR #16
        0x00002d8c:    18a4        ..      ADDS     r4,r4,r2
        0x00002d8e:    eb42020c    B...    ADC      r2,r2,r12
        0x00002d92:    08e4        ..      LSRS     r4,r4,#3
        0x00002d94:    ea447442    D.Bt    ORR      r4,r4,r2,LSL #29
        0x00002d98:    270a        .'      MOVS     r7,#0xa
        0x00002d9a:    fba45807    ...X    UMULL    r5,r8,r4,r7
        0x00002d9e:    08d2        ..      LSRS     r2,r2,#3
        0x00002da0:    fb028707    ....    MLA      r7,r2,r7,r8
        0x00002da4:    2600        .&      MOVS     r6,#0
        0x00002da6:    fb047606    ...v    MLA      r6,r4,r6,r7
        0x00002daa:    1b40        @.      SUBS     r0,r0,r5
        0x00002dac:    eb610106    a...    SBC      r1,r1,r6
        0x00002db0:    1d85        ..      ADDS     r5,r0,#6
        0x00002db2:    f1410000    A...    ADC      r0,r1,#0
        0x00002db6:    092d        -.      LSRS     r5,r5,#4
        0x00002db8:    ea457100    E..q    ORR      r1,r5,r0,LSL #28
        0x00002dbc:    0905        ..      LSRS     r5,r0,#4
        0x00002dbe:    1908        ..      ADDS     r0,r1,r4
        0x00002dc0:    eb450102    E...    ADC      r1,r5,r2
        0x00002dc4:    e012        ..      B        0x2dec ; ndigits_in_u64 + 182
        0x00002dc6:    0841        A.      LSRS     r1,r0,#1
        0x00002dc8:    eb010190    ....    ADD      r1,r1,r0,LSR #2
        0x00002dcc:    eb011111    ....    ADD      r1,r1,r1,LSR #4
        0x00002dd0:    eb012111    ...!    ADD      r1,r1,r1,LSR #8
        0x00002dd4:    eb014111    ...A    ADD      r1,r1,r1,LSR #16
        0x00002dd8:    08c9        ..      LSRS     r1,r1,#3
        0x00002dda:    424a        JB      RSBS     r2,r1,#0
        0x00002ddc:    eb020282    ....    ADD      r2,r2,r2,LSL #2
        0x00002de0:    eb000042    ..B.    ADD      r0,r0,r2,LSL #1
        0x00002de4:    1d80        ..      ADDS     r0,r0,#6
        0x00002de6:    eb011010    ....    ADD      r0,r1,r0,LSR #4
        0x00002dea:    4661        aF      MOV      r1,r12
        0x00002dec:    1c5b        [.      ADDS     r3,r3,#1
        0x00002dee:    ea500201    P...    ORRS     r2,r0,r1
        0x00002df2:    d1aa        ..      BNE      0x2d4a ; ndigits_in_u64 + 20
        0x00002df4:    e8bd01f0    ....    POP      {r4-r8}
        0x00002df8:    4618        .F      MOV      r0,r3
        0x00002dfa:    4770        pG      BX       lr
    i.portable_fini
    portable_fini
        0x00002dfc:    b570        p.      PUSH     {r4-r6,lr}
        0x00002dfe:    2400        .$      MOVS     r4,#0
        0x00002e00:    7004        .p      STRB     r4,[r0,#0]
        0x00002e02:    4626        &F      MOV      r6,r4
        0x00002e04:    4818        .H      LDR      r0,[pc,#96] ; [0x2e68] = 0x309
        0x00002e06:    f7fef89b    ....    BL       am_util_stdio_printf_init ; 0xf40
        0x00002e0a:    4620         F      MOV      r0,r4
        0x00002e0c:    f000f926    ..&.    BL       uart_init ; 0x305c
        0x00002e10:    f7fef8a6    ....    BL       am_util_stdio_terminal_clear ; 0xf60
        0x00002e14:    a015        ..      ADR      r0,{pc}+0x58 ; 0x2e6c
        0x00002e16:    f7fef879    ..y.    BL       am_util_stdio_printf ; 0xf0c
        0x00002e1a:    4c1e        .L      LDR      r4,[pc,#120] ; [0x2e94] = 0x100000d4
        0x00002e1c:    2500        .%      MOVS     r5,#0
        0x00002e1e:    e00c        ..      B        0x2e3a ; portable_fini + 62
        0x00002e20:    4620         F      MOV      r0,r4
        0x00002e22:    f7fef873    ..s.    BL       am_util_stdio_printf ; 0xf0c
        0x00002e26:    7820         x      LDRB     r0,[r4,#0]
        0x00002e28:    b128        (.      CBZ      r0,0x2e36 ; portable_fini + 58
        0x00002e2a:    bf00        ..      NOP      
        0x00002e2c:    f8140f01    ....    LDRB     r0,[r4,#1]!
        0x00002e30:    1c6d        m.      ADDS     r5,r5,#1
        0x00002e32:    2800        .(      CMP      r0,#0
        0x00002e34:    d1fa        ..      BNE      0x2e2c ; portable_fini + 48
        0x00002e36:    1c64        d.      ADDS     r4,r4,#1
        0x00002e38:    1c6d        m.      ADDS     r5,r5,#1
        0x00002e3a:    7820         x      LDRB     r0,[r4,#0]
        0x00002e3c:    2800        .(      CMP      r0,#0
        0x00002e3e:    bf18        ..      IT       NE
        0x00002e40:    f5b56f80    ...o    CMPNE    r5,#0x400
        0x00002e44:    dbec        ..      BLT      0x2e20 ; portable_fini + 36
        0x00002e46:    4630        0F      MOV      r0,r6
        0x00002e48:    f000f8c2    ....    BL       uart_disable ; 0x2fd0
        0x00002e4c:    2105        .!      MOVS     r1,#5
        0x00002e4e:    4812        .H      LDR      r0,[pc,#72] ; [0x2e98] = 0x100000ac
        0x00002e50:    f7fdfa5e    ..^.    BL       am_devices_led_array_init ; 0x310
        0x00002e54:    2100        .!      MOVS     r1,#0
        0x00002e56:    4810        .H      LDR      r0,[pc,#64] ; [0x2e98] = 0x100000ac
        0x00002e58:    f7fdfb46    ..F.    BL       am_devices_led_on ; 0x4e8
        0x00002e5c:    e8bd4070    ..p@    POP      {r4-r6,lr}
        0x00002e60:    480e        .H      LDR      r0,[pc,#56] ; [0x2e9c] = 0xa0001fff
        0x00002e62:    f7fdbcaf    ....    B        am_hal_pwrctrl_memory_enable ; 0x7c4
    $d
        0x00002e66:    0000        ..      DCW    0
        0x00002e68:    00000309    ....    DCD    777
        0x00002e6c:    626d410a    .Amb    DCD    1651327242
        0x00002e70:    4d207169    iq M    DCD    1293971817
        0x00002e74:    6f726369    icro    DCD    1869767529
        0x00002e78:    726f4320     Cor    DCD    1919894304
        0x00002e7c:    72616d65    emar    DCD    1918987621
        0x00002e80:    7572206b    k ru    DCD    1970413675
        0x00002e84:    6966206e    n fi    DCD    1768300654
        0x00002e88:    6873696e    nish    DCD    1752394094
        0x00002e8c:    0a216465    ed!.    DCD    169960549
        0x00002e90:    0000000a    ....    DCD    10
        0x00002e94:    100000d4    ....    DCD    268435668
        0x00002e98:    100000ac    ....    DCD    268435628
        0x00002e9c:    a0001fff    ....    DCD    2684362751
    $t
    i.portable_init
    portable_init
        0x00002ea0:    b510        ..      PUSH     {r4,lr}
        0x00002ea2:    2101        .!      MOVS     r1,#1
        0x00002ea4:    7001        .p      STRB     r1,[r0,#0]
        0x00002ea6:    0289        ..      LSLS     r1,r1,#10
        0x00002ea8:    481c        .H      LDR      r0,[pc,#112] ; [0x2f1c] = 0x100000d4
        0x00002eaa:    f7fdf997    ....    BL       __aeabi_memclr ; 0x1dc
        0x00002eae:    481c        .H      LDR      r0,[pc,#112] ; [0x2f20] = 0x10000038
        0x00002eb0:    491a        .I      LDR      r1,[pc,#104] ; [0x2f1c] = 0x100000d4
        0x00002eb2:    6041        A`      STR      r1,[r0,#4]
        0x00002eb4:    2100        .!      MOVS     r1,#0
        0x00002eb6:    6001        .`      STR      r1,[r0,#0]
        0x00002eb8:    4608        .F      MOV      r0,r1
        0x00002eba:    f7fdfbc7    ....    BL       am_hal_clkgen_sysclk_select ; 0x64c
        0x00002ebe:    4819        .H      LDR      r0,[pc,#100] ; [0x2f24] = 0x384e
        0x00002ec0:    f7fdfb42    ..B.    BL       am_hal_cachectrl_enable ; 0x548
        0x00002ec4:    f7fdfdee    ....    BL       am_hal_sysctrl_fpu_enable ; 0xaa4
        0x00002ec8:    2001        .       MOVS     r0,#1
        0x00002eca:    f7fdfdf3    ....    BL       am_hal_sysctrl_fpu_stacking_enable ; 0xab4
        0x00002ece:    f7fdfa0a    ....    BL       __semihosting_library_function ; 0x2e6
        0x00002ed2:    f7fdfc31    ..1.    BL       am_hal_pwrctrl_bucks_enable ; 0x738
        0x00002ed6:    f7fdfc69    ..i.    BL       am_hal_pwrctrl_low_power_init ; 0x7ac
        0x00002eda:    f44f6000    O..`    MOV      r0,#0x800
        0x00002ede:    f7fdfc71    ..q.    BL       am_hal_pwrctrl_memory_enable ; 0x7c4
        0x00002ee2:    2001        .       MOVS     r0,#1
        0x00002ee4:    f7fdfc6e    ..n.    BL       am_hal_pwrctrl_memory_enable ; 0x7c4
        0x00002ee8:    f04f2040    O.@     MOV      r0,#0x40004000
        0x00002eec:    68c1        .h      LDR      r1,[r0,#0xc]
        0x00002eee:    f0410180    A...    ORR      r1,r1,#0x80
        0x00002ef2:    60c1        .`      STR      r1,[r0,#0xc]
        0x00002ef4:    490c        .I      LDR      r1,[pc,#48] ; [0x2f28] = 0x4000c000
        0x00002ef6:    2037        7       MOVS     r0,#0x37
        0x00002ef8:    6088        .`      STR      r0,[r1,#8]
        0x00002efa:    480c        .H      LDR      r0,[pc,#48] ; [0x2f2c] = 0x309
        0x00002efc:    f7fef820    .. .    BL       am_util_stdio_printf_init ; 0xf40
        0x00002f00:    2000        .       MOVS     r0,#0
        0x00002f02:    f000f8ab    ....    BL       uart_init ; 0x305c
        0x00002f06:    f7fef82b    ..+.    BL       am_util_stdio_terminal_clear ; 0xf60
        0x00002f0a:    a009        ..      ADR      r0,{pc}+0x26 ; 0x2f30
        0x00002f0c:    f7fdfffe    ....    BL       am_util_stdio_printf ; 0xf0c
        0x00002f10:    e8bd4010    ...@    POP      {r4,lr}
        0x00002f14:    2000        .       MOVS     r0,#0
        0x00002f16:    f000b85b    ..[.    B.W      uart_disable ; 0x2fd0
    $d
        0x00002f1a:    0000        ..      DCW    0
        0x00002f1c:    100000d4    ....    DCD    268435668
        0x00002f20:    10000038    8...    DCD    268435512
        0x00002f24:    0000384e    N8..    DCD    14414
        0x00002f28:    4000c000    ...@    DCD    1073790976
        0x00002f2c:    00000309    ....    DCD    777
        0x00002f30:    69626d41    Ambi    DCD    1768058177
        0x00002f34:    694d2071    q Mi    DCD    1766662257
        0x00002f38:    206f7263    cro     DCD    544174691
        0x00002f3c:    65726f43    Core    DCD    1701998403
        0x00002f40:    6b72616d    mark    DCD    1802658157
        0x00002f44:    73657420     tes    DCD    1936028704
        0x00002f48:    2e2e2e74    t...    DCD    774778484
        0x00002f4c:    00000a0a    ....    DCD    2570
    $t
    i.start_time
    start_time
        0x00002f50:    b510        ..      PUSH     {r4,lr}
        0x00002f52:    f06f407f    o..@    MVN      r0,#0xff000000
        0x00002f56:    f7fdfdd0    ....    BL       am_hal_systick_load ; 0xafa
        0x00002f5a:    f7fdfdc7    ....    BL       am_hal_systick_int_enable ; 0xaec
        0x00002f5e:    f7fdfdd2    ....    BL       am_hal_systick_start ; 0xb06
        0x00002f62:    f7fdfdbf    ....    BL       am_hal_systick_count ; 0xae4
        0x00002f66:    4904        .I      LDR      r1,[pc,#16] ; [0x2f78] = 0x10000000
        0x00002f68:    6809        .h      LDR      r1,[r1,#0]
        0x00002f6a:    4408        .D      ADD      r0,r0,r1
        0x00002f6c:    4903        .I      LDR      r1,[pc,#12] ; [0x2f7c] = 0x10000038
        0x00002f6e:    6088        .`      STR      r0,[r1,#8]
        0x00002f70:    4903        .I      LDR      r1,[pc,#12] ; [0x2f80] = 0x4ffff000
        0x00002f72:    2001        .       MOVS     r0,#1
        0x00002f74:    6148        Ha      STR      r0,[r1,#0x14]
        0x00002f76:    bd10        ..      POP      {r4,pc}
    $d
        0x00002f78:    10000000    ....    DCD    268435456
        0x00002f7c:    10000038    8...    DCD    268435512
        0x00002f80:    4ffff000    ...O    DCD    1342173184
    $t
    i.stop_time
    stop_time
        0x00002f84:    b510        ..      PUSH     {r4,lr}
        0x00002f86:    f7fdfdc5    ....    BL       am_hal_systick_stop ; 0xb14
        0x00002f8a:    f7fdfdab    ....    BL       am_hal_systick_count ; 0xae4
        0x00002f8e:    4904        .I      LDR      r1,[pc,#16] ; [0x2fa0] = 0x10000000
        0x00002f90:    6809        .h      LDR      r1,[r1,#0]
        0x00002f92:    4408        .D      ADD      r0,r0,r1
        0x00002f94:    4903        .I      LDR      r1,[pc,#12] ; [0x2fa4] = 0x10000038
        0x00002f96:    60c8        .`      STR      r0,[r1,#0xc]
        0x00002f98:    4903        .I      LDR      r1,[pc,#12] ; [0x2fa8] = 0x4ffff000
        0x00002f9a:    2000        .       MOVS     r0,#0
        0x00002f9c:    6148        Ha      STR      r0,[r1,#0x14]
        0x00002f9e:    bd10        ..      POP      {r4,pc}
    $d
        0x00002fa0:    10000000    ....    DCD    268435456
        0x00002fa4:    10000038    8...    DCD    268435512
        0x00002fa8:    4ffff000    ...O    DCD    1342173184
        0x00002fac:    00000000    ....    DCD    0
    $t
    i.time_in_secs
    time_in_secs
        0x00002fb0:    b510        ..      PUSH     {r4,lr}
        0x00002fb2:    f000faf8    ....    BL       __aeabi_ui2d ; 0x35a6
        0x00002fb6:    ed9f1b04    ....    VLDR     d1,[pc,#16] ; [0x2fc8] = 0
        0x00002fba:    ec532b11    S..+    VMOV     r2,r3,d1
        0x00002fbe:    f000f96d    ..m.    BL       __aeabi_ddiv ; 0x329c
        0x00002fc2:    ec410b10    A...    VMOV     d0,r0,r1
        0x00002fc6:    bd10        ..      POP      {r4,pc}
    $d
        0x00002fc8:    00000000    ....    DCD    0
        0x00002fcc:    4186e360    `..A    DCD    1099359072
    $t
    i.uart_disable
    uart_disable
        0x00002fd0:    b5f8        ..      PUSH     {r3-r7,lr}
        0x00002fd2:    4604        .F      MOV      r4,r0
        0x00002fd4:    200a        .       MOVS     r0,#0xa
        0x00002fd6:    f7fdff33    ..3.    BL       am_util_delay_ms ; 0xe40
        0x00002fda:    4620         F      MOV      r0,r4
        0x00002fdc:    f7fdfe2a    ..*.    BL       am_hal_uart_disable ; 0xc34
        0x00002fe0:    4620         F      MOV      r0,r4
        0x00002fe2:    f7fdfe5b    ..[.    BL       am_hal_uart_pwrctrl_disable ; 0xc9c
        0x00002fe6:    4620         F      MOV      r0,r4
        0x00002fe8:    f7fdfd9b    ....    BL       am_hal_uart_clock_disable ; 0xb22
        0x00002fec:    f7fdf8e2    ....    BL       am_hal_interrupt_master_disable ; 0x1b4
        0x00002ff0:    4c19        .L      LDR      r4,[pc,#100] ; [0x3058] = 0x40010000
        0x00002ff2:    2573        s%      MOVS     r5,#0x73
        0x00002ff4:    9000        ..      STR      r0,[sp,#0]
        0x00002ff6:    6625        %f      STR      r5,[r4,#0x60]
        0x00002ff8:    6ca0        .l      LDR      r0,[r4,#0x48]
        0x00002ffa:    f02060e0     ..`    BIC      r0,r0,#0x7000000
        0x00002ffe:    64a0        .d      STR      r0,[r4,#0x48]
        0x00003000:    6960        `i      LDR      r0,[r4,#0x14]
        0x00003002:    f420007f     ...    BIC      r0,r0,#0xff0000
        0x00003006:    f44010c0    @...    ORR      r0,r0,#0x180000
        0x0000300a:    6160        `a      STR      r0,[r4,#0x14]
        0x0000300c:    f8d400f4    ....    LDR      r0,[r4,#0xf4]
        0x00003010:    f420007f     ...    BIC      r0,r0,#0xff0000
        0x00003014:    f8c400f4    ....    STR      r0,[r4,#0xf4]
        0x00003018:    2600        .&      MOVS     r6,#0
        0x0000301a:    6626        &f      STR      r6,[r4,#0x60]
        0x0000301c:    9800        ..      LDR      r0,[sp,#0]
        0x0000301e:    f7fdf8cd    ....    BL       am_hal_interrupt_master_set ; 0x1bc
        0x00003022:    f7fdf8c7    ....    BL       am_hal_interrupt_master_disable ; 0x1b4
        0x00003026:    9000        ..      STR      r0,[sp,#0]
        0x00003028:    6625        %f      STR      r5,[r4,#0x60]
        0x0000302a:    6ca0        .l      LDR      r0,[r4,#0x48]
        0x0000302c:    f02040e0     ..@    BIC      r0,r0,#0x70000000
        0x00003030:    64a0        .d      STR      r0,[r4,#0x48]
        0x00003032:    6960        `i      LDR      r0,[r4,#0x14]
        0x00003034:    f020407f     ..@    BIC      r0,r0,#0xff000000
        0x00003038:    f04050c0    @..P    ORR      r0,r0,#0x18000000
        0x0000303c:    6160        `a      STR      r0,[r4,#0x14]
        0x0000303e:    f8d400f4    ....    LDR      r0,[r4,#0xf4]
        0x00003042:    f020407f     ..@    BIC      r0,r0,#0xff000000
        0x00003046:    f8c400f4    ....    STR      r0,[r4,#0xf4]
        0x0000304a:    6626        &f      STR      r6,[r4,#0x60]
        0x0000304c:    9800        ..      LDR      r0,[sp,#0]
        0x0000304e:    e8bd40f8    ...@    POP      {r3-r7,lr}
        0x00003052:    f7fdb8b3    ....    B        am_hal_interrupt_master_set ; 0x1bc
    $d
        0x00003056:    0000        ..      DCW    0
        0x00003058:    40010000    ...@    DCD    1073807360
    $t
    i.uart_init
    uart_init
        0x0000305c:    b5f8        ..      PUSH     {r3-r7,lr}
        0x0000305e:    4607        .F      MOV      r7,r0
        0x00003060:    f7fdf8a8    ....    BL       am_hal_interrupt_master_disable ; 0x1b4
        0x00003064:    4c22        "L      LDR      r4,[pc,#136] ; [0x30f0] = 0x40010000
        0x00003066:    2573        s%      MOVS     r5,#0x73
        0x00003068:    9000        ..      STR      r0,[sp,#0]
        0x0000306a:    6625        %f      STR      r5,[r4,#0x60]
        0x0000306c:    6ca0        .l      LDR      r0,[r4,#0x48]
        0x0000306e:    f02060e0     ..`    BIC      r0,r0,#0x7000000
        0x00003072:    64a0        .d      STR      r0,[r4,#0x48]
        0x00003074:    6960        `i      LDR      r0,[r4,#0x14]
        0x00003076:    f420007f     ...    BIC      r0,r0,#0xff0000
        0x0000307a:    6160        `a      STR      r0,[r4,#0x14]
        0x0000307c:    f8d400f4    ....    LDR      r0,[r4,#0xf4]
        0x00003080:    f420007f     ...    BIC      r0,r0,#0xff0000
        0x00003084:    f8c400f4    ....    STR      r0,[r4,#0xf4]
        0x00003088:    2600        .&      MOVS     r6,#0
        0x0000308a:    6626        &f      STR      r6,[r4,#0x60]
        0x0000308c:    9800        ..      LDR      r0,[sp,#0]
        0x0000308e:    f7fdf895    ....    BL       am_hal_interrupt_master_set ; 0x1bc
        0x00003092:    f7fdf88f    ....    BL       am_hal_interrupt_master_disable ; 0x1b4
        0x00003096:    9000        ..      STR      r0,[sp,#0]
        0x00003098:    6625        %f      STR      r5,[r4,#0x60]
        0x0000309a:    6ca0        .l      LDR      r0,[r4,#0x48]
        0x0000309c:    f02040e0     ..@    BIC      r0,r0,#0x70000000
        0x000030a0:    64a0        .d      STR      r0,[r4,#0x48]
        0x000030a2:    6960        `i      LDR      r0,[r4,#0x14]
        0x000030a4:    f020407f     ..@    BIC      r0,r0,#0xff000000
        0x000030a8:    f0407000    @..p    ORR      r0,r0,#0x2000000
        0x000030ac:    6160        `a      STR      r0,[r4,#0x14]
        0x000030ae:    f8d400f4    ....    LDR      r0,[r4,#0xf4]
        0x000030b2:    f020407f     ..@    BIC      r0,r0,#0xff000000
        0x000030b6:    f8c400f4    ....    STR      r0,[r4,#0xf4]
        0x000030ba:    6626        &f      STR      r6,[r4,#0x60]
        0x000030bc:    9800        ..      LDR      r0,[sp,#0]
        0x000030be:    f7fdf87d    ..}.    BL       am_hal_interrupt_master_set ; 0x1bc
        0x000030c2:    4638        8F      MOV      r0,r7
        0x000030c4:    f7fdfe1c    ....    BL       am_hal_uart_pwrctrl_enable ; 0xd00
        0x000030c8:    4638        8F      MOV      r0,r7
        0x000030ca:    f7fdfd36    ..6.    BL       am_hal_uart_clock_enable ; 0xb3a
        0x000030ce:    4638        8F      MOV      r0,r7
        0x000030d0:    f7fdfdb0    ....    BL       am_hal_uart_disable ; 0xc34
        0x000030d4:    4907        .I      LDR      r1,[pc,#28] ; [0x30f4] = 0x10000048
        0x000030d6:    4638        8F      MOV      r0,r7
        0x000030d8:    f7fdfd42    ..B.    BL       am_hal_uart_config ; 0xb60
        0x000030dc:    2112        .!      MOVS     r1,#0x12
        0x000030de:    4638        8F      MOV      r0,r7
        0x000030e0:    f7fdfdd1    ....    BL       am_hal_uart_fifo_config ; 0xc86
        0x000030e4:    4638        8F      MOV      r0,r7
        0x000030e6:    e8bd40f8    ...@    POP      {r3-r7,lr}
        0x000030ea:    f7fdbdb8    ....    B        am_hal_uart_enable ; 0xc5e
    $d
        0x000030ee:    0000        ..      DCW    0
        0x000030f0:    40010000    ...@    DCD    1073807360
        0x000030f4:    10000048    H...    DCD    268435528
    $t
    i.uint64_to_str
    uint64_to_str
        0x000030f8:    e92d07f0    -...    PUSH     {r4-r10}
        0x000030fc:    b087        ..      SUB      sp,sp,#0x1c
        0x000030fe:    f04f0c00    O...    MOV      r12,#0
        0x00003102:    4666        fF      MOV      r6,r12
        0x00003104:    466d        mF      MOV      r5,sp
        0x00003106:    2900        .)      CMP      r1,#0
        0x00003108:    d03f        ?.      BEQ      0x318a ; uint64_to_str + 146
        0x0000310a:    084f        O.      LSRS     r7,r1,#1
        0x0000310c:    ea4f0390    O...    LSR      r3,r0,#2
        0x00003110:    ea4f0430    O.0.    RRX      r4,r0
        0x00003114:    ea437381    C..s    ORR      r3,r3,r1,LSL #30
        0x00003118:    18e4        ..      ADDS     r4,r4,r3
        0x0000311a:    eb470391    G...    ADC      r3,r7,r1,LSR #2
        0x0000311e:    ea4f1814    O...    LSR      r8,r4,#4
        0x00003122:    ea487803    H..x    ORR      r8,r8,r3,LSL #28
        0x00003126:    eb180404    ....    ADDS     r4,r8,r4
        0x0000312a:    eb431313    C...    ADC      r3,r3,r3,LSR #4
        0x0000312e:    ea4f2814    O..(    LSR      r8,r4,#8
        0x00003132:    ea486803    H..h    ORR      r8,r8,r3,LSL #24
        0x00003136:    eb180404    ....    ADDS     r4,r8,r4
        0x0000313a:    eb432313    C..#    ADC      r3,r3,r3,LSR #8
        0x0000313e:    ea4f4814    O..H    LSR      r8,r4,#16
        0x00003142:    ea484803    H..H    ORR      r8,r8,r3,LSL #16
        0x00003146:    eb180404    ....    ADDS     r4,r8,r4
        0x0000314a:    eb434313    C..C    ADC      r3,r3,r3,LSR #16
        0x0000314e:    18e7        ..      ADDS     r7,r4,r3
        0x00003150:    eb430406    C...    ADC      r4,r3,r6
        0x00003154:    08ff        ..      LSRS     r7,r7,#3
        0x00003156:    ea477344    G.Ds    ORR      r3,r7,r4,LSL #29
        0x0000315a:    270a        .'      MOVS     r7,#0xa
        0x0000315c:    fba39a07    ....    UMULL    r9,r10,r3,r7
        0x00003160:    08e4        ..      LSRS     r4,r4,#3
        0x00003162:    fb04a707    ....    MLA      r7,r4,r7,r10
        0x00003166:    f04f0800    O...    MOV      r8,#0
        0x0000316a:    fb037808    ...x    MLA      r8,r3,r8,r7
        0x0000316e:    ebb00709    ....    SUBS     r7,r0,r9
        0x00003172:    eb610108    a...    SBC      r1,r1,r8
        0x00003176:    1dbf        ..      ADDS     r7,r7,#6
        0x00003178:    f1410100    A...    ADC      r1,r1,#0
        0x0000317c:    093f        ?.      LSRS     r7,r7,#4
        0x0000317e:    ea477701    G..w    ORR      r7,r7,r1,LSL #28
        0x00003182:    18fb        ..      ADDS     r3,r7,r3
        0x00003184:    eb441411    D...    ADC      r4,r4,r1,LSR #4
        0x00003188:    e012        ..      B        0x31b0 ; uint64_to_str + 184
        0x0000318a:    0843        C.      LSRS     r3,r0,#1
        0x0000318c:    eb030390    ....    ADD      r3,r3,r0,LSR #2
        0x00003190:    eb031313    ....    ADD      r3,r3,r3,LSR #4
        0x00003194:    eb032313    ...#    ADD      r3,r3,r3,LSR #8
        0x00003198:    eb034313    ...C    ADD      r3,r3,r3,LSR #16
        0x0000319c:    08db        ..      LSRS     r3,r3,#3
        0x0000319e:    425c        \B      RSBS     r4,r3,#0
        0x000031a0:    eb040484    ....    ADD      r4,r4,r4,LSL #2
        0x000031a4:    eb000144    ..D.    ADD      r1,r0,r4,LSL #1
        0x000031a8:    1d89        ..      ADDS     r1,r1,#6
        0x000031aa:    eb031311    ....    ADD      r3,r3,r1,LSR #4
        0x000031ae:    4634        4F      MOV      r4,r6
        0x000031b0:    4621        !F      MOV      r1,r4
        0x000031b2:    240a        .$      MOVS     r4,#0xa
        0x000031b4:    fba34704    ...G    UMULL    r4,r7,r3,r4
        0x000031b8:    1b00        ..      SUBS     r0,r0,r4
        0x000031ba:    f1000030    ..0.    ADD      r0,r0,#0x30
        0x000031be:    f805000c    ....    STRB     r0,[r5,r12]
        0x000031c2:    4618        .F      MOV      r0,r3
        0x000031c4:    f10c0c01    ....    ADD      r12,r12,#1
        0x000031c8:    430b        .C      ORRS     r3,r3,r1
        0x000031ca:    d19c        ..      BNE      0x3106 ; uint64_to_str + 14
        0x000031cc:    4660        `F      MOV      r0,r12
        0x000031ce:    2a00        .*      CMP      r2,#0
        0x000031d0:    bf02        ..      ITTT     EQ
        0x000031d2:    b007        ..      ADDEQ    sp,sp,#0x1c
        0x000031d4:    e8bd07f0    ....    POPEQ    {r4-r10}
        0x000031d8:    4770        pG      BXEQ     lr
        0x000031da:    1e47        G.      SUBS     r7,r0,#1
        0x000031dc:    f1b00c00    ....    SUBS     r12,r0,#0
        0x000031e0:    dd18        ..      BLE      0x3214 ; uint64_to_str + 284
        0x000031e2:    19e9        ..      ADDS     r1,r5,r7
        0x000031e4:    1c4b        K.      ADDS     r3,r1,#1
        0x000031e6:    1e51        Q.      SUBS     r1,r2,#1
        0x000031e8:    f0170f01    ....    TST      r7,#1
        0x000031ec:    d103        ..      BNE      0x31f6 ; uint64_to_str + 254
        0x000031ee:    f8134d01    ...M    LDRB     r4,[r3,#-1]!
        0x000031f2:    f8014f01    ...O    STRB     r4,[r1,#1]!
        0x000031f6:    ea5f046c    _.l.    ASRS     r4,r12,#1
        0x000031fa:    d009        ..      BEQ      0x3210 ; uint64_to_str + 280
        0x000031fc:    f813cc01    ....    LDRB     r12,[r3,#-1]
        0x00003200:    f881c001    ....    STRB     r12,[r1,#1]
        0x00003204:    f813cd02    ....    LDRB     r12,[r3,#-2]!
        0x00003208:    f801cf02    ....    STRB     r12,[r1,#2]!
        0x0000320c:    1e64        d.      SUBS     r4,r4,#1
        0x0000320e:    d1f5        ..      BNE      0x31fc ; uint64_to_str + 260
        0x00003210:    19d1        ..      ADDS     r1,r2,r7
        0x00003212:    1c4a        J.      ADDS     r2,r1,#1
        0x00003214:    7016        .p      STRB     r6,[r2,#0]
        0x00003216:    b007        ..      ADD      sp,sp,#0x1c
        0x00003218:    e8bd07f0    ....    POP      {r4-r10}
        0x0000321c:    4770        pG      BX       lr
        0x0000321e:    0000        ..      MOVS     r0,r0
    x$fpl$d2f
    $v0
    __aeabi_d2f
    _d2f
        0x00003220:    f0214200    !..B    BIC      r2,r1,#0x80000000
        0x00003224:    f1a25260    ..`R    SUB      r2,r2,#0x38000000
        0x00003228:    f5b21f80    ....    CMP      r2,#0x100000
        0x0000322c:    f0014300    ...C    AND      r3,r1,#0x80000000
        0x00003230:    bf28        (.      IT       CS
        0x00003232:    f1d26c7f    ...l    RSBSCS   r12,r2,#0xff00000
        0x00003236:    d90b        ..      BLS      0x3250 ; __aeabi_d2f + 48
        0x00003238:    ea5f1c00    _...    LSLS     r12,r0,#4
        0x0000323c:    ea4302c2    C...    ORR      r2,r3,r2,LSL #3
        0x00003240:    eb427050    B.Pp    ADC      r0,r2,r0,LSR #29
        0x00003244:    bf18        ..      IT       NE
        0x00003246:    4770        pG      BXNE     lr
        0x00003248:    bf28        (.      IT       CS
        0x0000324a:    f0200001     ...    BICCS    r0,r0,#1
        0x0000324e:    4770        pG      BX       lr
        0x00003250:    f5b21f80    ....    CMP      r2,#0x100000
        0x00003254:    bfbc        ..      ITT      LT
        0x00003256:    4618        .F      MOVLT    r0,r3
        0x00003258:    4770        pG      BXLT     lr
        0x0000325a:    ea4f0c41    O.A.    LSL      r12,r1,#1
        0x0000325e:    f51c1f00    ....    CMN      r12,#0x200000
        0x00003262:    d202        ..      BCS      0x326a ; __aeabi_d2f + 74
        0x00003264:    4608        .F      MOV      r0,r1
        0x00003266:    f000baed    ....    B.W      __fpl_fretinf ; 0x3844
        0x0000326a:    b570        p.      PUSH     {r4-r6,lr}
        0x0000326c:    f000f9ea    ....    BL       __fpl_dnaninf ; 0x3644
    $d
        0x00003270:    89000000    ....    DCD    2298478592
    $t
        0x00003274:    f7ffbff6    ....    B.W      0x3264 ; __aeabi_d2f + 68
        0x00003278:    f04f4000    O..@    MOV      r0,#0x80000000
        0x0000327c:    f5a00080    ....    SUB      r0,r0,#0x400000
        0x00003280:    4770        pG      BX       lr
    x$fpl$dcmpinf
    $v0
    __fpl_dcmp_Inf
        0x00003282:    1049        I.      ASRS     r1,r1,#1
        0x00003284:    bf58        X.      IT       PL
        0x00003286:    f1c14140    ..@A    RSBPL    r1,r1,#0xc0000000
        0x0000328a:    105b        [.      ASRS     r3,r3,#1
        0x0000328c:    bf58        X.      IT       PL
        0x0000328e:    f1c34340    ..@C    RSBPL    r3,r3,#0xc0000000
        0x00003292:    428b        .B      CMP      r3,r1
        0x00003294:    f3ef8000    ....    MRS      r0,APSR ; formerly CPSR
        0x00003298:    4770        pG      BX       lr
        0x0000329a:    0000        ..      MOVS     r0,r0
    x$fpl$ddiv
    $v0
    __aeabi_ddiv
    _ddiv
        0x0000329c:    e92d41c0    -..A    PUSH     {r6-r8,lr}
        0x000032a0:    b430        0.      PUSH     {r4,r5}
    ddiv_entry
        0x000032a2:    f8dfc2a0    ....    LDR      r12,[pc,#672] ; [0x3544] = 0x7ff0000
        0x000032a6:    ea3c1411    <...    BICS     r4,r12,r1,LSR #4
        0x000032aa:    bf18        ..      IT       NE
        0x000032ac:    ea3c1413    <...    BICSNE   r4,r12,r3,LSR #4
        0x000032b0:    f00080ec    ....    BEQ.W    0x348c ; ddiv_entry + 490
        0x000032b4:    ea810503    ....    EOR      r5,r1,r3
        0x000032b8:    ea1c1411    ....    ANDS     r4,r12,r1,LSR #4
        0x000032bc:    ea4474d5    D..t    ORR      r4,r4,r5,LSR #31
        0x000032c0:    bf18        ..      IT       NE
        0x000032c2:    ea1c1513    ....    ANDSNE   r5,r12,r3,LSR #4
        0x000032c6:    f00080c7    ....    BEQ.W    0x3458 ; ddiv_entry + 438
        0x000032ca:    eba40405    ....    SUB      r4,r4,r5
        0x000032ce:    f04f4500    O..E    MOV      r5,#0x80000000
        0x000032d2:    ea4521c1    E..!    ORR      r1,r5,r1,LSL #11
        0x000032d6:    ea4523c3    E..#    ORR      r3,r5,r3,LSL #11
        0x000032da:    ea415150    A.PQ    ORR      r1,r1,r0,LSR #21
        0x000032de:    ea435352    C.RS    ORR      r3,r3,r2,LSR #21
        0x000032e2:    f104747f    ...t    ADD      r4,r4,#0x3fc0000
        0x000032e6:    4299        .B      CMP      r1,r3
        0x000032e8:    f5043400    ...4    ADD      r4,r4,#0x20000
        0x000032ec:    ea4f20c0    O..     LSL      r0,r0,#11
        0x000032f0:    ea4f22c2    O.."    LSL      r2,r2,#11
        0x000032f4:    bf08        ..      IT       EQ
        0x000032f6:    4290        .B      CMPEQ    r0,r2
        0x000032f8:    f000809c    ....    BEQ.W    0x3434 ; ddiv_entry + 402
        0x000032fc:    ea4f6513    O..e    LSR      r5,r3,#24
        0x00003300:    f20f1640    ..@.    ADR.W    r6,{pc}+0x144 ; 0x3444
        0x00003304:    5d76        v]      LDRB     r6,[r6,r5]
        0x00003306:    ea4f4513    O..E    LSR      r5,r3,#16
        0x0000330a:    fb06f705    ....    MUL      r7,r6,r5
        0x0000330e:    f1c77780    ...w    RSB      r7,r7,#0x1000000
        0x00003312:    fb06f707    ....    MUL      r7,r6,r7
        0x00003316:    ea4f37d7    O..7    LSR      r7,r7,#15
        0x0000331a:    fba76803    ...h    UMULL    r6,r8,r7,r3
        0x0000331e:    4276        vB      RSBS     r6,r6,#0
        0x00003320:    f5c83880    ...8    RSB      r8,r8,#0x10000
        0x00003324:    fba7ce06    ....    UMULL    r12,lr,r7,r6
        0x00003328:    bf38        8.      IT       CC
        0x0000332a:    f1a80801    ....    SUBCC    r8,r8,#1
        0x0000332e:    fb07e608    ....    MLA      r6,r7,r8,lr
        0x00003332:    f04f0e00    O...    MOV      lr,#0
        0x00003336:    fba68c02    ....    UMULL    r8,r12,r6,r2
        0x0000333a:    fbe6ce03    ....    UMLAL    r12,lr,r6,r3
        0x0000333e:    f1dc0c00    ....    RSBS     r12,r12,#0
        0x00003342:    f1ce4e00    ...N    RSB      lr,lr,#0x80000000
        0x00003346:    bf38        8.      IT       CC
        0x00003348:    f1ae0e01    ....    SUBCC    lr,lr,#1
        0x0000334c:    fba6580c    ...X    UMULL    r5,r8,r6,r12
        0x00003350:    f04f0700    O...    MOV      r7,#0
        0x00003354:    f04f0500    O...    MOV      r5,#0
        0x00003358:    fbe6870e    ....    UMLAL    r8,r7,r6,lr
        0x0000335c:    fba1c608    ....    UMULL    r12,r6,r1,r8
        0x00003360:    fba0ce07    ....    UMULL    r12,lr,r0,r7
        0x00003364:    eb16060e    ....    ADDS     r6,r6,lr
        0x00003368:    f1450500    E...    ADC      r5,r5,#0
        0x0000336c:    fbe16507    ...e    UMLAL    r6,r5,r1,r7
        0x00003370:    f1154ee0    ...N    ADDS     lr,r5,#0x70000000
        0x00003374:    bf7e        ~.      ITTT     VC
        0x00003376:    f5a43480    ...4    SUBVC    r4,r4,#0x10000
        0x0000337a:    ea5f0646    _.F.    LSLSVC   r6,r6,#1
        0x0000337e:    416d        mA      ADCVC    r5,r5,r5
        0x00003380:    f1160780    ....    ADDS     r7,r6,#0x80
        0x00003384:    f1450500    E...    ADC      r5,r5,#0
        0x00003388:    ea4f2717    O..'    LSR      r7,r7,#8
        0x0000338c:    ea4f6606    O..f    LSL      r6,r6,#24
        0x00003390:    ea476705    G..g    ORR      r7,r7,r5,LSL #24
        0x00003394:    f1a646de    ...F    SUB      r6,r6,#0x6f000000
        0x00003398:    f1b65f80    ..._    CMP      r6,#0x10000000
        0x0000339c:    ea4f2515    O..%    LSR      r5,r5,#8
        0x000033a0:    d91f        ..      BLS      0x33e2 ; ddiv_entry + 320
        0x000033a2:    4638        8F      MOV      r0,r7
        0x000033a4:    f0240c01    $...    BIC      r12,r4,#1
        0x000033a8:    eb0571c4    ...q    ADD      r1,r5,r4,LSL #31
        0x000033ac:    f1bc6ffe    ...o    CMP      r12,#0x7f00000
        0x000033b0:    eb01110c    ....    ADD      r1,r1,r12,LSL #4
        0x000033b4:    d802        ..      BHI      0x33bc ; ddiv_entry + 282
        0x000033b6:    bcf0        ..      POP      {r4-r7}
        0x000033b8:    e8bd8100    ....    POP      {r8,pc}
        0x000033bc:    4224        $B      TST      r4,r4
        0x000033be:    bf5c        \.      ITT      PL
        0x000033c0:    f5011e80    ....    ADDPL    lr,r1,#0x100000
        0x000033c4:    ea9e7fc4    ....    TEQPL    lr,r4,LSL #31
        0x000033c8:    d402        ..      BMI      0x33d0 ; ddiv_entry + 302
        0x000033ca:    bcf0        ..      POP      {r4-r7}
        0x000033cc:    e8bd8100    ....    POP      {r8,pc}
        0x000033d0:    4224        $B      TST      r4,r4
        0x000033d2:    d438        8.      BMI      0x3446 ; ddiv_entry + 420
        0x000033d4:    bcf0        ..      POP      {r4-r7}
        0x000033d6:    f1a141c0    ...A    SUB      r1,r1,#0x60000000
        0x000033da:    e8bd4100    ...A    POP      {r8,lr}
        0x000033de:    f000b97f    ....    B.W      __fpl_dretinf ; 0x36e0
        0x000033e2:    ea4f22d2    O.."    LSR      r2,r2,#11
        0x000033e6:    ea425243    B.CR    ORR      r2,r2,r3,LSL #21
        0x000033ea:    ea4f23d3    O..#    LSR      r3,r3,#11
        0x000033ee:    fba78602    ....    UMULL    r8,r6,r7,r2
        0x000033f2:    ea4f20d0    O..     LSR      r0,r0,#11
        0x000033f6:    ea405041    @.AP    ORR      r0,r0,r1,LSL #21
        0x000033fa:    fb076603    ...f    MLA      r6,r7,r3,r6
        0x000033fe:    ea1e0f0e    ....    TST      lr,lr
        0x00003402:    ea4f21d1    O..!    LSR      r1,r1,#11
        0x00003406:    fb056602    ...f    MLA      r6,r5,r2,r6
        0x0000340a:    bf58        X.      IT       PL
        0x0000340c:    eba65600    ...V    SUBPL    r6,r6,r0,LSL #20
        0x00003410:    ebb65600    ...V    SUBS     r6,r6,r0,LSL #20
        0x00003414:    ea4f0e52    O.R.    LSR      lr,r2,#1
        0x00003418:    ea4e7ec3    N..~    ORR      lr,lr,r3,LSL #31
        0x0000341c:    eb180e0e    ....    ADDS     lr,r8,lr
        0x00003420:    eb560e53    V.S.    ADCS     lr,r6,r3,LSR #1
        0x00003424:    d5bd        ..      BPL      0x33a2 ; ddiv_entry + 256
        0x00003426:    eb180802    ....    ADDS     r8,r8,r2
        0x0000342a:    415e        ^A      ADCS     r6,r6,r3
        0x0000342c:    1c7f        ..      ADDS     r7,r7,#1
        0x0000342e:    f1550500    U...    ADCS     r5,r5,#0
        0x00003432:    e7b6        ..      B        0x33a2 ; ddiv_entry + 256
        0x00003434:    f44f1580    O...    MOV      r5,#0x100000
        0x00003438:    f04f0700    O...    MOV      r7,#0
        0x0000343c:    f04f0600    O...    MOV      r6,#0
        0x00003440:    f04f0800    O...    MOV      r8,#0
        0x00003444:    e7ad        ..      B        0x33a2 ; ddiv_entry + 256
        0x00003446:    bcf0        ..      POP      {r4-r7}
        0x00003448:    f04f0000    O...    MOV      r0,#0
        0x0000344c:    f10141c0    ...A    ADD      r1,r1,#0x60000000
        0x00003450:    f0014100    ...A    AND      r1,r1,#0x80000000
        0x00003454:    e8bd8100    ....    POP      {r8,pc}
        0x00003458:    ea111f0c    ....    TST      r1,r12,LSL #4
        0x0000345c:    ea0c1513    ....    AND      r5,r12,r3,LSR #4
        0x00003460:    d000        ..      BEQ      0x3464 ; ddiv_entry + 450
        0x00003462:    e00c        ..      B        0x347e ; ddiv_entry + 476
        0x00003464:    ea131f0c    ....    TST      r3,r12,LSL #4
        0x00003468:    f0008025    ..%.    BEQ.W    0x34b6 ; ddiv_entry + 532
        0x0000346c:    f04f0000    O...    MOV      r0,#0
        0x00003470:    bcf0        ..      POP      {r4-r7}
        0x00003472:    ea810103    ....    EOR      r1,r1,r3
        0x00003476:    f0014100    ...A    AND      r1,r1,#0x80000000
        0x0000347a:    e8bd8100    ....    POP      {r8,pc}
        0x0000347e:    bcf0        ..      POP      {r4-r7}
        0x00003480:    e8bd4100    ...A    POP      {r8,lr}
        0x00003484:    ea810103    ....    EOR      r1,r1,r3
        0x00003488:    f000b92a    ..*.    B.W      __fpl_dretinf ; 0x36e0
        0x0000348c:    bcf0        ..      POP      {r4-r7}
        0x0000348e:    e8bd4100    ...A    POP      {r8,lr}
        0x00003492:    b570        p.      PUSH     {r4-r6,lr}
        0x00003494:    f000f8d6    ....    BL       __fpl_dnaninf ; 0x3644
    $d
        0x00003498:    3efc7e09    .~.>    DCD    1056734729
    $t
        0x0000349c:    f000b807    ....    B.W      0x34ae ; ddiv_entry + 524
        0x000034a0:    ea810103    ....    EOR      r1,r1,r3
        0x000034a4:    f04f0000    O...    MOV      r0,#0
        0x000034a8:    f0014100    ...A    AND      r1,r1,#0x80000000
        0x000034ac:    4770        pG      BX       lr
        0x000034ae:    ea810103    ....    EOR      r1,r1,r3
        0x000034b2:    f000b915    ....    B.W      __fpl_dretinf ; 0x36e0
        0x000034b6:    bcf0        ..      POP      {r4-r7}
        0x000034b8:    e8bd4100    ...A    POP      {r8,lr}
        0x000034bc:    f04f0000    O...    MOV      r0,#0
        0x000034c0:    4921        !I      LDR      r1,[pc,#132] ; [0x3548] = 0x7ff80000
        0x000034c2:    4770        pG      BX       lr
    $d
        0x000034c4:    f9fbfdff    ....    DCD    4194041343
        0x000034c8:    f2f4f5f7    ....    DCD    4076140023
        0x000034cc:    ebedeef0    ....    DCD    3958238960
        0x000034d0:    e4e6e8e9    ....    DCD    3840338153
        0x000034d4:    dee0e1e3    ....    DCD    3739279843
        0x000034d8:    d8dadbdd    ....    DCD    3638221789
        0x000034dc:    d3d4d5d7    ....    DCD    3553940951
        0x000034e0:    cdcfd0d1    ....    DCD    3452948689
        0x000034e4:    c8cacbcc    ....    DCD    3368733644
        0x000034e8:    c4c5c6c7    ....    DCD    3301295815
        0x000034ec:    bfc0c1c2    ....    DCD    3217080770
        0x000034f0:    bbbcbdbe    ....    DCD    3149708734
        0x000034f4:    b7b8b9ba    ....    DCD    3082336698
        0x000034f8:    b3b4b5b6    ....    DCD    3014964662
        0x000034fc:    afb0b1b2    ....    DCD    2947592626
        0x00003500:    abacadae    ....    DCD    2880220590
        0x00003504:    a8a8a9aa    ....    DCD    2829625770
        0x00003508:    a4a5a6a7    ....    DCD    2762319527
        0x0000350c:    a1a2a3a3    ....    DCD    2711790499
        0x00003510:    9e9f9fa0    ....    DCD    2661261216
        0x00003514:    9b9c9c9d    ....    DCD    2610732189
        0x00003518:    9899999a    ....    DCD    2560203162
        0x0000351c:    95969797    ....    DCD    2509674391
        0x00003520:    93939495    ....    DCD    2475922581
        0x00003524:    90919192    ....    DCD    2425459090
        0x00003528:    8e8e8f8f    ....    DCD    2391707535
        0x0000352c:    8b8c8c8d    ....    DCD    2341244045
        0x00003530:    89898a8b    ....    DCD    2307492491
        0x00003534:    87878888    ....    DCD    2273806472
        0x00003538:    84858586    ....    DCD    2223342982
        0x0000353c:    82838384    ....    DCD    2189656964
        0x00003540:    80818182    ....    DCD    2155970946
        0x00003544:    07ff0000    ....    DCD    134152192
        0x00003548:    7ff80000    ....    DCD    2146959360
    $t
    x$fpl$dfixu
    $v0
    __aeabi_d2uiz
    _dfixu
        0x0000354c:    ea4f5311    O..S    LSR      r3,r1,#20
        0x00003550:    f5a36380    ...c    SUB      r3,r3,#0x400
        0x00003554:    f1d3031e    ....    RSBS     r3,r3,#0x1e
        0x00003558:    bfa8        ..      IT       GE
        0x0000355a:    f1d30c20    .. .    RSBSGE   r12,r3,#0x20
        0x0000355e:    db08        ..      BLT      0x3572 ; __aeabi_d2uiz + 38
        0x00003560:    f04f4200    O..B    MOV      r2,#0x80000000
        0x00003564:    ea4222c1    B.."    ORR      r2,r2,r1,LSL #11
        0x00003568:    ea525250    R.PR    ORRS     r2,r2,r0,LSR #21
        0x0000356c:    fa32f003    2...    LSRS     r0,r2,r3
        0x00003570:    4770        pG      BX       lr
        0x00003572:    4209        .B      TST      r1,r1
        0x00003574:    d40b        ..      BMI      0x358e ; __aeabi_d2uiz + 66
        0x00003576:    2b10        .+      CMP      r3,#0x10
        0x00003578:    bfc4        ..      ITT      GT
        0x0000357a:    2000        .       MOVGT    r0,#0
        0x0000357c:    4770        pG      BXGT     lr
        0x0000357e:    f5037c78    ..x|    ADD      r12,r3,#0x3e0
        0x00003582:    f1bc3fff    ...?    CMP      r12,#0xffffffff
        0x00003586:    d005        ..      BEQ      0x3594 ; __aeabi_d2uiz + 72
        0x00003588:    f04f30ff    O..0    MOV      r0,#0xffffffff
        0x0000358c:    4770        pG      BX       lr
        0x0000358e:    f04f0000    O...    MOV      r0,#0
        0x00003592:    4770        pG      BX       lr
        0x00003594:    b570        p.      PUSH     {r4-r6,lr}
        0x00003596:    f000f855    ..U.    BL       __fpl_dnaninf ; 0x3644
        0x0000359a:    bf00        ..      NOP      
    $d
        0x0000359c:    80249249    I.$.    DCD    2149880393
    $t
        0x000035a0:    2000        .       MOVS     r0,#0
        0x000035a2:    4770        pG      BX       lr
        0x000035a4:    e7f0        ..      B        0x3588 ; __aeabi_d2uiz + 60
    x$fpl$dfltu
    $v0
    __aeabi_ui2d
    _dfltu
        0x000035a6:    fab0f380    ....    CLZ      r3,r0
        0x000035aa:    fa10f103    ....    LSLS     r1,r0,r3
        0x000035ae:    d00a        ..      BEQ      0x35c6 ; __aeabi_ui2d + 32
        0x000035b0:    f1c3031d    ....    RSB      r3,r3,#0x1d
        0x000035b4:    f5036380    ...c    ADD      r3,r3,#0x400
        0x000035b8:    ea4f5041    O.AP    LSL      r0,r1,#21
        0x000035bc:    ea4f5203    O..R    LSL      r2,r3,#20
        0x000035c0:    eb0221d1    ...!    ADD      r1,r2,r1,LSR #11
        0x000035c4:    4770        pG      BX       lr
        0x000035c6:    f04f0000    O...    MOV      r0,#0
        0x000035ca:    4770        pG      BX       lr
    x$fpl$dleqf
    $v0
    __aeabi_cdcmple
    _dcmple
        0x000035cc:    ea510c03    Q...    ORRS     r12,r1,r3
        0x000035d0:    d417        ..      BMI      0x3602 ; __aeabi_cdcmple + 54
        0x000035d2:    f51c1f80    ....    CMN      r12,#0x100000
        0x000035d6:    bf58        X.      IT       PL
        0x000035d8:    f5bc1f80    ....    CMPPL    r12,#0x100000
        0x000035dc:    f1008006    ....    BMI.W    0x35ec ; __aeabi_cdcmple + 32
        0x000035e0:    4299        .B      CMP      r1,r3
        0x000035e2:    bf18        ..      IT       NE
        0x000035e4:    4770        pG      BXNE     lr
        0x000035e6:    bf08        ..      IT       EQ
        0x000035e8:    4290        .B      CMPEQ    r0,r2
        0x000035ea:    4770        pG      BX       lr
        0x000035ec:    d707        ..      BVC      0x35fe ; __aeabi_cdcmple + 50
        0x000035ee:    f5111f80    ....    CMN      r1,#0x100000
        0x000035f2:    bf58        X.      IT       PL
        0x000035f4:    f5131f80    ....    CMNPL    r3,#0x100000
        0x000035f8:    d419        ..      BMI      __fpl_dcmple_InfNaN ; 0x362e
        0x000035fa:    4299        .B      CMP      r1,r3
        0x000035fc:    4770        pG      BX       lr
        0x000035fe:    4289        .B      CMP      r1,r1
        0x00003600:    4770        pG      BX       lr
        0x00003602:    f51c1f80    ....    CMN      r12,#0x100000
        0x00003606:    d508        ..      BPL      0x361a ; __aeabi_cdcmple + 78
        0x00003608:    f5bc1f80    ....    CMP      r12,#0x100000
        0x0000360c:    d5f7        ..      BPL      0x35fe ; __aeabi_cdcmple + 50
        0x0000360e:    428b        .B      CMP      r3,r1
        0x00003610:    bf18        ..      IT       NE
        0x00003612:    4770        pG      BXNE     lr
        0x00003614:    bf08        ..      IT       EQ
        0x00003616:    4282        .B      CMPEQ    r2,r0
        0x00003618:    4770        pG      BX       lr
        0x0000361a:    f44f1c00    O...    MOV      r12,#0x200000
        0x0000361e:    eb1c0f41    ..A.    CMN      r12,r1,LSL #1
        0x00003622:    bf38        8.      IT       CC
        0x00003624:    eb1c0f43    ..C.    CMNCC    r12,r3,LSL #1
        0x00003628:    d201        ..      BCS      __fpl_dcmple_InfNaN ; 0x362e
        0x0000362a:    428b        .B      CMP      r3,r1
        0x0000362c:    4770        pG      BX       lr
    __fpl_dcmple_InfNaN
        0x0000362e:    b570        p.      PUSH     {r4-r6,lr}
        0x00003630:    f000f808    ....    BL       __fpl_dnaninf ; 0x3644
    $d
        0x00003634:    00492492    .$I.    DCD    4793490
    $t
        0x00003638:    f04f5100    O..Q    MOV      r1,#0x20000000
        0x0000363c:    f04f5380    O..S    MOV      r3,#0x10000000
        0x00003640:    f7ffbe1f    ....    B.W      __fpl_dcmp_Inf ; 0x3282
    x$fpl$dnaninf
    $v0
    __fpl_dnaninf
        0x00003644:    f10e0e02    ....    ADD      lr,lr,#2
        0x00003648:    f02e0e03    ....    BIC      lr,lr,#3
        0x0000364c:    f85e6b04    ^..k    LDR      r6,[lr],#4
        0x00003650:    4236        6B      TST      r6,r6
        0x00003652:    d405        ..      BMI      0x3660 ; __fpl_dnaninf + 28
        0x00003654:    2a01        .*      CMP      r2,#1
        0x00003656:    eb430503    C...    ADC      r5,r3,r3
        0x0000365a:    f5151f00    ....    CMN      r5,#0x200000
        0x0000365e:    d812        ..      BHI      0x3686 ; __fpl_dnaninf + 66
        0x00003660:    2801        .(      CMP      r0,#1
        0x00003662:    eb410c01    A...    ADC      r12,r1,r1
        0x00003666:    f51c1f00    ....    CMN      r12,#0x200000
        0x0000366a:    d80c        ..      BHI      0x3686 ; __fpl_dnaninf + 66
        0x0000366c:    d10e        ..      BNE      0x368c ; __fpl_dnaninf + 72
        0x0000366e:    ea4f7cd1    O..|    LSR      r12,r1,#31
        0x00003672:    f5151f00    ....    CMN      r5,#0x200000
        0x00003676:    eb0c0c4c    ..L.    ADD      r12,r12,r12,LSL #1
        0x0000367a:    f10c0c02    ....    ADD      r12,r12,#2
        0x0000367e:    bf08        ..      IT       EQ
        0x00003680:    eb4c7cd3    L..|    ADCEQ    r12,r12,r3,LSR #31
        0x00003684:    e004        ..      B        0x3690 ; __fpl_dnaninf + 76
        0x00003686:    f04f0c08    O...    MOV      r12,#8
        0x0000368a:    e001        ..      B        0x3690 ; __fpl_dnaninf + 76
        0x0000368c:    ea4f7cd3    O..|    LSR      r12,r3,#31
        0x00003690:    eb0c054c    ..L.    ADD      r5,r12,r12,LSL #1
        0x00003694:    fa26f605    &...    LSR      r6,r6,r5
        0x00003698:    f0060607    ....    AND      r6,r6,#7
        0x0000369c:    f1b60c04    ....    SUBS     r12,r6,#4
        0x000036a0:    d206        ..      BCS      0x36b0 ; __fpl_dnaninf + 108
        0x000036a2:    eb0e0c86    ....    ADD      r12,lr,r6,LSL #2
        0x000036a6:    e8bd4070    ..p@    POP      {r4-r6,lr}
        0x000036aa:    f04c0c01    L...    ORR      r12,r12,#1
        0x000036ae:    4760        `G      BX       r12
        0x000036b0:    e8dff00c    ....    TBB      [pc,r12]
    $d
        0x000036b4:    02020b09    ....    DCD    33688329
    $t
        0x000036b8:    f04f4100    O..A    MOV      r1,#0x80000000
        0x000036bc:    f04f0000    O...    MOV      r0,#0
        0x000036c0:    f5a12100    ...!    SUB      r1,r1,#0x80000
        0x000036c4:    bd70        p.      POP      {r4-r6,pc}
        0x000036c6:    4619        .F      MOV      r1,r3
        0x000036c8:    4610        .F      MOV      r0,r2
        0x000036ca:    2801        .(      CMP      r0,#1
        0x000036cc:    eb510401    Q...    ADCS     r4,r1,r1
        0x000036d0:    bf18        ..      IT       NE
        0x000036d2:    f5d41400    ....    RSBSNE   r4,r4,#0x200000
        0x000036d6:    bf84        ..      ITT      HI
        0x000036d8:    2000        .       MOVHI    r0,#0
        0x000036da:    f0014100    ...A    ANDHI    r1,r1,#0x80000000
        0x000036de:    bd70        p.      POP      {r4-r6,pc}
    x$fpl$dretinf
    $v0
    __fpl_dretinf
        0x000036e0:    0808        ..      LSRS     r0,r1,#32
        0x000036e2:    f5a01100    ....    SUB      r1,r0,#0x200000
        0x000036e6:    ea4f0131    O.1.    RRX      r1,r1
        0x000036ea:    4770        pG      BX       lr
    x$fpl$drleqf
    $v0
    __aeabi_cdrcmple
    _drcmple
        0x000036ec:    ea530c01    S...    ORRS     r12,r3,r1
        0x000036f0:    d417        ..      BMI      0x3722 ; __aeabi_cdrcmple + 54
        0x000036f2:    f51c1f80    ....    CMN      r12,#0x100000
        0x000036f6:    bf58        X.      IT       PL
        0x000036f8:    f5bc1f80    ....    CMPPL    r12,#0x100000
        0x000036fc:    f1008006    ....    BMI.W    0x370c ; __aeabi_cdrcmple + 32
        0x00003700:    428b        .B      CMP      r3,r1
        0x00003702:    bf18        ..      IT       NE
        0x00003704:    4770        pG      BXNE     lr
        0x00003706:    bf08        ..      IT       EQ
        0x00003708:    4282        .B      CMPEQ    r2,r0
        0x0000370a:    4770        pG      BX       lr
        0x0000370c:    d707        ..      BVC      0x371e ; __aeabi_cdrcmple + 50
        0x0000370e:    f5131f80    ....    CMN      r3,#0x100000
        0x00003712:    bf58        X.      IT       PL
        0x00003714:    f5111f80    ....    CMNPL    r1,#0x100000
        0x00003718:    d419        ..      BMI      0x374e ; __aeabi_cdrcmple + 98
        0x0000371a:    428b        .B      CMP      r3,r1
        0x0000371c:    4770        pG      BX       lr
        0x0000371e:    429b        .B      CMP      r3,r3
        0x00003720:    4770        pG      BX       lr
        0x00003722:    f51c1f80    ....    CMN      r12,#0x100000
        0x00003726:    d508        ..      BPL      0x373a ; __aeabi_cdrcmple + 78
        0x00003728:    f5bc1f80    ....    CMP      r12,#0x100000
        0x0000372c:    d5f7        ..      BPL      0x371e ; __aeabi_cdrcmple + 50
        0x0000372e:    4299        .B      CMP      r1,r3
        0x00003730:    bf18        ..      IT       NE
        0x00003732:    4770        pG      BXNE     lr
        0x00003734:    bf08        ..      IT       EQ
        0x00003736:    4290        .B      CMPEQ    r0,r2
        0x00003738:    4770        pG      BX       lr
        0x0000373a:    f44f1c00    O...    MOV      r12,#0x200000
        0x0000373e:    eb1c0f43    ..C.    CMN      r12,r3,LSL #1
        0x00003742:    bf38        8.      IT       CC
        0x00003744:    eb1c0f41    ..A.    CMNCC    r12,r1,LSL #1
        0x00003748:    d201        ..      BCS      0x374e ; __aeabi_cdrcmple + 98
        0x0000374a:    4299        .B      CMP      r1,r3
        0x0000374c:    4770        pG      BX       lr
        0x0000374e:    b40f        ..      PUSH     {r0-r3}
        0x00003750:    bc0c        ..      POP      {r2,r3}
        0x00003752:    bc03        ..      POP      {r0,r1}
        0x00003754:    f7ffbf6b    ..k.    B.W      __fpl_dcmple_InfNaN ; 0x362e
    x$fpl$f2d
    $v0
    __aeabi_f2d
    _f2d
        0x00003758:    0043        C.      LSLS     r3,r0,#1
        0x0000375a:    ea4f0cd3    O...    LSR      r12,r3,#3
        0x0000375e:    ea4f0c3c    O.<.    RRX      r12,r12
        0x00003762:    4043        C@      EORS     r3,r3,r0
        0x00003764:    bf1f        ..      ITTTT    NE
        0x00003766:    0740        @.      LSLNE    r0,r0,#29
        0x00003768:    f10c5160    ..`Q    ADDNE    r1,r12,#0x38000000
        0x0000376c:    f0134ffe    ...O    TSTNE    r3,#0x7f000000
        0x00003770:    4770        pG      BXNE     lr
        0x00003772:    f01c6f00    ...o    TST      r12,#0x8000000
        0x00003776:    d103        ..      BNE      0x3780 ; __aeabi_f2d + 40
        0x00003778:    2000        .       MOVS     r0,#0
        0x0000377a:    f00c4100    ...A    AND      r1,r12,#0x80000000
        0x0000377e:    4770        pG      BX       lr
        0x00003780:    f00c4300    ...C    AND      r3,r12,#0x80000000
        0x00003784:    ea437050    C.Pp    ORR      r0,r3,r0,LSR #29
        0x00003788:    b510        ..      PUSH     {r4,lr}
        0x0000378a:    ea4000cc    @...    ORR      r0,r0,r12,LSL #3
        0x0000378e:    f000f80e    ....    BL       __fpl_fnaninf ; 0x37ae
        0x00003792:    bf00        ..      NOP      
    $d
        0x00003794:    92000000    ....    DCD    2449473536
    $t
        0x00003798:    ea4f0100    O...    MOV.W    r1,r0
        0x0000379c:    f7ffbfa0    ....    B.W      __fpl_dretinf ; 0x36e0
        0x000037a0:    f04f4100    O..A    MOV      r1,#0x80000000
        0x000037a4:    f04f0000    O...    MOV      r0,#0
        0x000037a8:    f5a12100    ...!    SUB      r1,r1,#0x80000
        0x000037ac:    4770        pG      BX       lr
    x$fpl$fnaninf
    $v0
    __fpl_fnaninf
        0x000037ae:    f10e0e02    ....    ADD      lr,lr,#2
        0x000037b2:    f02e0e03    ....    BIC      lr,lr,#3
        0x000037b6:    f85e4b04    ^..K    LDR      r4,[lr],#4
        0x000037ba:    4224        $B      TST      r4,r4
        0x000037bc:    d404        ..      BMI      0x37c8 ; __fpl_fnaninf + 26
        0x000037be:    ea4f0241    O.A.    LSL      r2,r1,#1
        0x000037c2:    f1b24f7f    ...O    CMP      r2,#0xff000000
        0x000037c6:    d811        ..      BHI      0x37ec ; __fpl_fnaninf + 62
        0x000037c8:    ea4f0340    O.@.    LSL      r3,r0,#1
        0x000037cc:    f1b34f7f    ...O    CMP      r3,#0xff000000
        0x000037d0:    d80c        ..      BHI      0x37ec ; __fpl_fnaninf + 62
        0x000037d2:    d10e        ..      BNE      0x37f2 ; __fpl_fnaninf + 68
        0x000037d4:    ea4f7cd0    O..|    LSR      r12,r0,#31
        0x000037d8:    f1b24f7f    ...O    CMP      r2,#0xff000000
        0x000037dc:    eb0c0c4c    ..L.    ADD      r12,r12,r12,LSL #1
        0x000037e0:    f10c0c02    ....    ADD      r12,r12,#2
        0x000037e4:    bf08        ..      IT       EQ
        0x000037e6:    eb4c7cd1    L..|    ADCEQ    r12,r12,r1,LSR #31
        0x000037ea:    e004        ..      B        0x37f6 ; __fpl_fnaninf + 72
        0x000037ec:    f04f0c08    O...    MOV      r12,#8
        0x000037f0:    e001        ..      B        0x37f6 ; __fpl_fnaninf + 72
        0x000037f2:    ea4f7cd1    O..|    LSR      r12,r1,#31
        0x000037f6:    eb0c034c    ..L.    ADD      r3,r12,r12,LSL #1
        0x000037fa:    fa24f403    $...    LSR      r4,r4,r3
        0x000037fe:    f0040407    ....    AND      r4,r4,#7
        0x00003802:    f1b40c04    ....    SUBS     r12,r4,#4
        0x00003806:    d206        ..      BCS      0x3816 ; __fpl_fnaninf + 104
        0x00003808:    eb0e0c84    ....    ADD      r12,lr,r4,LSL #2
        0x0000380c:    e8bd4010    ...@    POP      {r4,lr}
        0x00003810:    f04c0c01    L...    ORR      r12,r12,#1
        0x00003814:    4760        `G      BX       r12
        0x00003816:    e8dff00c    ....    TBB      [pc,r12]
    $d
        0x0000381a:    0807        ..      DCW    2055
        0x0000381c:    0202        ..      DCW    514
    $t
        0x0000381e:    f04f4000    O..@    MOV      r0,#0x80000000
        0x00003822:    f5a00080    ....    SUB      r0,r0,#0x400000
        0x00003826:    bd10        ..      POP      {r4,pc}
        0x00003828:    4608        .F      MOV      r0,r1
        0x0000382a:    0042        B.      LSLS     r2,r0,#1
        0x0000382c:    bf18        ..      IT       NE
        0x0000382e:    f1d27280    ...r    RSBSNE   r2,r2,#0x1000000
        0x00003832:    bf88        ..      IT       HI
        0x00003834:    f0004000    ...@    ANDHI    r0,r0,#0x80000000
        0x00003838:    bd10        ..      POP      {r4,pc}
    x$fpl$fpinit
    $v0
    _fp_init
        0x0000383a:    f04f7040    O.@p    MOV      r0,#0x3000000
        0x0000383e:    eee10a10    ....    VMSR     FPSCR,r0
    __fplib_config_fpu_vfp
    __fplib_config_pureend_doubles
        0x00003842:    4770        pG      BX       lr
    x$fpl$fretinf
    $v0
    __fpl_fretinf
        0x00003844:    21ff        .!      MOVS     r1,#0xff
        0x00003846:    ea4150d0    A..P    ORR      r0,r1,r0,LSR #23
        0x0000384a:    05c0        ..      LSLS     r0,r0,#23
        0x0000384c:    4770        pG      BX       lr
    $d.realdata
    .constdata
    x$fpl$usenofp
    __I$use$fp
    am_hal_cachectrl_defaults
        0x0000384e:    0001        ..      DCW    1
        0x00003850:    03005000    .P..    DCD    50352128
        0x00003854:    01010001    ....    DCD    16842753
        0x00003858:    00000001    ....    DCD    1
    .conststring
        0x0000385c:    6e6e6143    Cann    DCD    1852727619
        0x00003860:    7620746f    ot v    DCD    1981838447
        0x00003864:    64696c61    alid    DCD    1684630625
        0x00003868:    20657461    ate     DCD    543519841
        0x0000386c:    7265706f    oper    DCD    1919250543
        0x00003870:    6f697461    atio    DCD    1869182049
        0x00003874:    6f66206e    n fo    DCD    1868963950
        0x00003878:    68742072    r th    DCD    1752440946
        0x0000387c:    20657365    ese     DCD    543519589
        0x00003880:    64656573    seed    DCD    1684366707
        0x00003884:    6c617620     val    DCD    1818326560
        0x00003888:    2c736575    ues,    DCD    745760117
        0x0000388c:    656c7020     ple    DCD    1701605408
        0x00003890:    20657361    ase     DCD    543519585
        0x00003894:    706d6f63    comp    DCD    1886220131
        0x00003898:    20657261    are     DCD    543519329
        0x0000389c:    68746977    with    DCD    1752459639
        0x000038a0:    73657220     res    DCD    1936028192
        0x000038a4:    73746c75    ults    DCD    1937009781
        0x000038a8:    206e6f20     on     DCD    544108320
        0x000038ac:    6e6b2061    a kn    DCD    1852514401
        0x000038b0:    206e776f    own     DCD    544110447
        0x000038b4:    74616c70    plat    DCD    1952541808
        0x000038b8:    6d726f66    form    DCD    1836216166
        0x000038bc:    00000a2e    ....    DCD    2606
        0x000038c0:    72726f43    Corr    DCD    1920102211
        0x000038c4:    20746365    ect     DCD    544498533
        0x000038c8:    7265706f    oper    DCD    1919250543
        0x000038cc:    6f697461    atio    DCD    1869182049
        0x000038d0:    6176206e    n va    DCD    1635131502
        0x000038d4:    6164696c    lida    DCD    1633970540
        0x000038d8:    2e646574    ted.    DCD    778331508
        0x000038dc:    65655320     See    DCD    1701139232
        0x000038e0:    61657220     rea    DCD    1634038304
        0x000038e4:    2e656d64    dme.    DCD    778399076
        0x000038e8:    20747874    txt     DCD    544503924
        0x000038ec:    20726f66    for     DCD    544370534
        0x000038f0:    206e7572    run     DCD    544109938
        0x000038f4:    20646e61    and     DCD    543452769
        0x000038f8:    6f706572    repo    DCD    1869636978
        0x000038fc:    6e697472    rtin    DCD    1852404850
        0x00003900:    75722067    g ru    DCD    1970413671
        0x00003904:    2e73656c    les.    DCD    779314540
        0x00003908:    0000000a    ....    DCD    10
    .conststring
        0x0000390c:    352e3533    35.5    DCD    892220723
        0x00003910:    30303434    4400    DCD    808465460
        0x00003914:    00000000    ....    DCD    0
        0x00003918:    362e302b    +0.6    DCD    908996651
        0x0000391c:    30303434    4400    DCD    808465460
        0x00003920:    00000000    ....    DCD    0
        0x00003924:    3332312e    .123    DCD    858927406
        0x00003928:    30303534    4500    DCD    808465716
        0x0000392c:    00000000    ....    DCD    0
        0x00003930:    3031312d    -110    DCD    808530221
        0x00003934:    3030372e    .700    DCD    808466222
        0x00003938:    00000000    ....    DCD    0
        0x0000393c:    32312e2d    -.12    DCD    842083885
        0x00003940:    322d6533    3e-2    DCD    841835827
        0x00003944:    00000000    ....    DCD    0
        0x00003948:    362e302b    +0.6    DCD    908996651
        0x0000394c:    32312d65    e-12    DCD    842083685
        0x00003950:    00000000    ....    DCD    0
        0x00003954:    32313035    5012    DCD    842084405
        0x00003958:    00000000    ....    DCD    0
        0x0000395c:    3232312b    +122    DCD    842150187
        0x00003960:    00000000    ....    DCD    0
        0x00003964:    6537382d    -87e    DCD    1698117677
        0x00003968:    3233382b    +832    DCD    842217515
        0x0000396c:    00000000    ....    DCD    0
        0x00003970:    30352e35    5.50    DCD    808791605
        0x00003974:    332b6530    0e+3    DCD    858481968
        0x00003978:    00000000    ....    DCD    0
        0x0000397c:    34333231    1234    DCD    875770417
        0x00003980:    00000000    ....    DCD    0
        0x00003984:    3437382d    -874    DCD    876034093
        0x00003988:    00000000    ....    DCD    0
        0x0000398c:    332e3054    T0.3    DCD    858665044
        0x00003990:    46312d65    e-1F    DCD    1177628005
        0x00003994:    00000000    ....    DCD    0
        0x00003998:    302e3433    34.0    DCD    808334387
        0x0000399c:    5e542d65    e-T^    DCD    1582574949
        0x000039a0:    00000000    ....    DCD    0
        0x000039a4:    542e542d    -T.T    DCD    1412322349
        0x000039a8:    71542b2b    ++Tq    DCD    1901341483
        0x000039ac:    00000000    ....    DCD    0
        0x000039b0:    2e335431    1T3.    DCD    775115825
        0x000039b4:    7a346534    4e4z    DCD    2050254132
        0x000039b8:    00000000    ....    DCD    0
    Region$$Table$$Base
        0x000039bc:    000039dc    .9..    DCD    14812
        0x000039c0:    10000000    ....    DCD    268435456
        0x000039c4:    000000d4    ....    DCD    212
        0x000039c8:    00000124    $...    DCD    292
        0x000039cc:    00003ab0    .:..    DCD    15024
        0x000039d0:    100000d4    ....    DCD    268435668
        0x000039d4:    00001564    d...    DCD    5476
        0x000039d8:    00000140    @...    DCD    320
    Region$$Table$$Limit

** Section #2 'SRAM' (SHT_PROGBITS) [SHF_ALLOC + SHF_WRITE]
    Size   : 212 bytes (alignment 4)
    Address: 0x10000000

    0x10000000:   00 00 00 00 b0 d4 40 33 79 6a 14 e7 c1 e3 52 be    ......@3yj....R.
    0x10000010:   99 11 08 56 d7 1f 47 07 47 5e bf 39 a4 e5 3a 8e    ...V..G.G^.9..:.
    0x10000020:   84 8d 00 00 00 00 00 00 00 00 00 00 66 00 00 00    ............f...
    0x10000030:   d0 07 00 00 00 00 00 00 00 00 00 00 00 00 00 00    ................
    0x10000040:   00 00 00 00 00 00 00 00 00 c2 01 00 60 00 00 00    ............`...
    0x10000050:   00 00 00 00 00 00 00 00 00 00 00 00 01 00 00 00    ................
    0x10000060:   54 39 00 00 7c 39 00 00 84 39 00 00 5c 39 00 00    T9..|9...9..\9..
    0x10000070:   0c 39 00 00 24 39 00 00 30 39 00 00 18 39 00 00    .9..$9..09...9..
    0x10000080:   70 39 00 00 3c 39 00 00 64 39 00 00 48 39 00 00    p9..<9..d9..H9..
    0x10000090:   8c 39 00 00 a4 39 00 00 b0 39 00 00 98 39 00 00    .9...9...9...9..
    0x100000a0:   00 00 00 00 00 00 00 00 00 00 00 00 11 00 00 00    ................
    0x100000b0:   03 00 00 00 0e 00 00 00 03 00 00 00 0f 00 00 00    ................
    0x100000c0:   03 00 00 00 1e 00 00 00 03 00 00 00 0a 00 00 00    ................
    0x100000d0:   03 00 00 00                                        ....


** Section #3 'SRAM' (SHT_NOBITS) [SHF_ALLOC + SHF_WRITE]
    Size   : 5476 bytes (alignment 8)
    Address: 0x100000d4


** Section #4 '.debug_abbrev' (SHT_PROGBITS)
    Size   : 1476 bytes


** Section #5 '.debug_frame' (SHT_PROGBITS)
    Size   : 4044 bytes


** Section #6 '.debug_info' (SHT_PROGBITS)
    Size   : 33512 bytes


** Section #7 '.debug_line' (SHT_PROGBITS)
    Size   : 13712 bytes


** Section #8 '.debug_loc' (SHT_PROGBITS)
    Size   : 9248 bytes


** Section #9 '.debug_macinfo' (SHT_PROGBITS)
    Size   : 10064 bytes


** Section #10 '.debug_pubnames' (SHT_PROGBITS)
    Size   : 2521 bytes


** Section #11 '.symtab' (SHT_SYMTAB)
    Size   : 10416 bytes (alignment 4)
    String table #12 '.strtab'
    Last local symbol no. 418

    Symbol table .symtab (650 symbols, 418 local)

      #  Symbol Name                Value      Bind  Sec  Type  Vis  Size
    ========================================================================

      1  $d                         0x00000000   Lc    1   --   De 
      2  $t                         0x000000c0   Lc    1   --   De 
      3  $d                         0x000000e4   Lc    1   --   De 
      4  $t                         0x000000e8   Lc    1   --   De 
      5  $d                         0x0000011c   Lc    1   --   De 
      6  $t                         0x00000124   Lc    1   --   De 
      7  $d                         0x000001ce   Lc    1   --   De 
      8  $t                         0x000001dc   Lc    1   --   De 
      9  $d                         0x000002d4   Lc    1   --   De 
     10  $t                         0x000002d8   Lc    1   --   De 
     11  $d                         0x000002e0   Lc    1   --   De 
     12  $t                         0x000002e4   Lc    1   --   De 
     13  $d                         0x000004e2   Lc    1   --   De 
     14  $t                         0x000004e8   Lc    1   --   De 
     15  $d                         0x00000614   Lc    1   --   De 
     16  $t                         0x00000618   Lc    1   --   De 
     17  $d                         0x00000644   Lc    1   --   De 
     18  $t                         0x0000064c   Lc    1   --   De 
     19  $d                         0x0000066c   Lc    1   --   De 
     20  $t                         0x000006b4   Lc    1   --   De 
     21  $d                         0x000006fc   Lc    1   --   De 
     22  $t                         0x00000700   Lc    1   --   De 
     23  $d                         0x00000734   Lc    1   --   De 
     24  $t                         0x00000738   Lc    1   --   De 
     25  $d                         0x00000766   Lc    1   --   De 
     26  $t                         0x0000076c   Lc    1   --   De 
     27  $d                         0x000007a8   Lc    1   --   De 
     28  $t                         0x000007ac   Lc    1   --   De 
     29  $d                         0x000007c0   Lc    1   --   De 
     30  $t                         0x000007c4   Lc    1   --   De 
     31  $d                         0x00000938   Lc    1   --   De 
     32  $t                         0x00000944   Lc    1   --   De 
     33  $d                         0x00000978   Lc    1   --   De 
     34  $t                         0x000009c4   Lc    1   --   De 
     35  $d                         0x00000a34   Lc    1   --   De 
     36  $t                         0x00000a80   Lc    1   --   De 
     37  $d                         0x00000aae   Lc    1   --   De 
     38  $t                         0x00000ab4   Lc    1   --   De 
     39  $d                         0x00000ae0   Lc    1   --   De 
     40  $t                         0x00000ae4   Lc    1   --   De 
     41  $d                         0x00000bec   Lc    1   --   De 
     42  $t                         0x00000c34   Lc    1   --   De 
     43  $d                         0x00000cbc   Lc    1   --   De 
     44  $t                         0x00000d00   Lc    1   --   De 
     45  $d                         0x00000d20   Lc    1   --   De 
     46  $t                         0x00000d64   Lc    1   --   De 
     47  $d                         0x00000d94   Lc    1   --   De 
     48  $t                         0x00000d98   Lc    1   --   De 
     49  $d                         0x00000dfe   Lc    1   --   De 
     50  $t                         0x00000e30   Lc    1   --   De 
     51  $d                         0x00000e3c   Lc    1   --   De 
     52  $t                         0x00000e40   Lc    1   --   De 
     53  $d                         0x00000f04   Lc    1   --   De 
     54  $t                         0x00000f0c   Lc    1   --   De 
     55  $d                         0x00000f38   Lc    1   --   De 
     56  $t                         0x00000f40   Lc    1   --   De 
     57  $d                         0x00000f46   Lc    1   --   De 
     58  $t                         0x00000f4c   Lc    1   --   De 
     59  $d                         0x00000f80   Lc    1   --   De 
     60  $t                         0x00000f9c   Lc    1   --   De 
     61  $d                         0x000013bc   Lc    1   --   De 
     62  $t                         0x000013c0   Lc    1   --   De 
     63  $d                         0x000016d0   Lc    1   --   De 
     64  $t                         0x000016dc   Lc    1   --   De 
     65  $d                         0x0000193c   Lc    1   --   De 
     66  $t                         0x00001944   Lc    1   --   De 
     67  $d                         0x00001b6e   Lc    1   --   De 
     68  $t                         0x00001b76   Lc    1   --   De 
     69  $d                         0x00001c00   Lc    1   --   De 
     70  $t                         0x00001c08   Lc    1   --   De 
     71  $d                         0x00001d10   Lc    1   --   De 
     72  $t                         0x00001d18   Lc    1   --   De 
     73  $d                         0x00002024   Lc    1   --   De 
     74  $t                         0x0000202a   Lc    1   --   De 
     75  $d                         0x00002046   Lc    1   --   De 
     76  $t                         0x0000205c   Lc    1   --   De 
     77  $d                         0x00002066   Lc    1   --   De 
     78  $t                         0x00002070   Lc    1   --   De 
     79  $d                         0x00002600   Lc    1   --   De 
     80  $t                         0x00002958   Lc    1   --   De 
     81  $d                         0x000029cc   Lc    1   --   De 
     82  $t                         0x00002a10   Lc    1   --   De 
     83  $d                         0x00002e66   Lc    1   --   De 
     84  $t                         0x00002ea0   Lc    1   --   De 
     85  $d                         0x00002f1a   Lc    1   --   De 
     86  $t                         0x00002f50   Lc    1   --   De 
     87  $d                         0x00002f78   Lc    1   --   De 
     88  $t                         0x00002f84   Lc    1   --   De 
     89  $d                         0x00002fa0   Lc    1   --   De 
     90  $t                         0x00002fb0   Lc    1   --   De 
     91  $d                         0x00002fc8   Lc    1   --   De 
     92  $t                         0x00002fd0   Lc    1   --   De 
     93  $d                         0x00003056   Lc    1   --   De 
     94  $t                         0x0000305c   Lc    1   --   De 
     95  $d                         0x000030ee   Lc    1   --   De 
     96  $t                         0x000030f8   Lc    1   --   De 
     97  $d                         0x00003270   Lc    1   --   De 
     98  $t                         0x00003274   Lc    1   --   De 
     99  $d                         0x00003498   Lc    1   --   De 
    100  $t                         0x0000349c   Lc    1   --   De 
    101  $d                         0x000034c4   Lc    1   --   De 
    102  $t                         0x0000354c   Lc    1   --   De 
    103  $d                         0x0000359c   Lc    1   --   De 
    104  $t                         0x000035a0   Lc    1   --   De 
    105  $d                         0x00003634   Lc    1   --   De 
    106  $t                         0x00003638   Lc    1   --   De 
    107  $d                         0x000036b4   Lc    1   --   De 
    108  $t                         0x000036b8   Lc    1   --   De 
    109  $d                         0x00003794   Lc    1   --   De 
    110  $t                         0x00003798   Lc    1   --   De 
    111  $d                         0x0000381a   Lc    1   --   De 
    112  $t                         0x0000381e   Lc    1   --   De 
    113  $d.realdata                0x0000384e   Lc    1   --   De 
    114  $d.realdata                0x10000000   Lc    2   --   De 
    115  ../src/am_time.c           0x00000000   Lc  Abs  File  De 
    116  i.am_systick_isr           0x00000e30   Lc    1  Sect  De 
    117  .data                      0x10000000   Lc    2  Sect  De   0x4
    118  ../src/core_list_join.c    0x00000000   Lc  Abs  File  De 
    119  i.calc_func                0x000016dc   Lc    1  Sect  De 
    120  i.cmp_complex              0x0000176e   Lc    1  Sect  De 
    121  i.cmp_idx                  0x00001788   Lc    1  Sect  De 
    122  i.core_bench_list          0x000017b4   Lc    1  Sect  De 
    123  i.core_list_init           0x00001c08   Lc    1  Sect  De 
    124  i.core_list_mergesort      0x00001d18   Lc    1  Sect  De 
    125  ../src/core_main.c         0x00000000   Lc  Abs  File  De 
    126  i.main                     0x00002070   Lc    1  Sect  De 
    127  .conststring               0x0000385c   Lc    1  Sect  De   0xae
    128  .data                      0x10000004   Lc    2  Sect  De   0x1e
    129  list_known_crc             0x10000004   Lc    2  Data  De   0xa
    130  matrix_known_crc           0x1000000e   Lc    2  Data  De   0xa
    131  state_known_crc            0x10000018   Lc    2  Data  De   0xa
    132  ../src/core_matrix.c       0x00000000   Lc  Abs  File  De 
    133  i.core_bench_matrix        0x00001944   Lc    1  Sect  De 
    134  i.core_init_matrix         0x00001a54   Lc    1  Sect  De 
    135  i.matrix_sum               0x00002a10   Lc    1  Sect  De 
    136  i.matrix_test              0x00002a6c   Lc    1  Sect  De 
    137  ../src/core_portme.c       0x00000000   Lc  Abs  File  De 
    138  i.am_sprintf               0x00000d98   Lc    1  Sect  De 
    139  i.get_time                 0x0000205c   Lc    1  Sect  De 
    140  i.portable_fini            0x00002dfc   Lc    1  Sect  De 
    141  i.portable_init            0x00002ea0   Lc    1  Sect  De 
    142  i.start_time               0x00002f50   Lc    1  Sect  De 
    143  i.stop_time                0x00002f84   Lc    1  Sect  De 
    144  i.time_in_secs             0x00002fb0   Lc    1  Sect  De 
    145  i.uart_disable             0x00002fd0   Lc    1  Sect  De 
    146  i.uart_init                0x0000305c   Lc    1  Sect  De 
    147  .bss                       0x100000d4   Lc    3  Sect  De   0x400
    148  .data                      0x10000024   Lc    2  Sect  De   0x4
    149  .data                      0x10000028   Lc    2  Sect  De   0x4
    150  .data                      0x1000002c   Lc    2  Sect  De   0x4
    151  .data                      0x10000030   Lc    2  Sect  De   0x4
    152  .data                      0x10000034   Lc    2  Sect  De   0x4
    153  .data                      0x10000038   Lc    2  Sect  De   0x24
    154  start_time_val             0x10000040   Lc    2  Data  De   0x4
    155  stop_time_val              0x10000044   Lc    2  Data  De   0x4
    156  .data                      0x1000005c   Lc    2  Sect  De   0x4
    157  ../src/core_state.c        0x00000000   Lc  Abs  File  De 
    158  i.core_bench_state         0x00001966   Lc    1  Sect  De 
    159  i.core_init_state          0x00001afc   Lc    1  Sect  De 
    160  i.core_state_transition    0x00001dbe   Lc    1  Sect  De 
    161  .conststring               0x0000390c   Lc    1  Sect  De   0xad
    162  .data                      0x10000060   Lc    2  Sect  De   0x40
    163  intpat                     0x10000060   Lc    2  Data  De   0x10
    164  floatpat                   0x10000070   Lc    2  Data  De   0x10
    165  scipat                     0x10000080   Lc    2  Data  De   0x10
    166  errpat                     0x10000090   Lc    2  Data  De   0x10
    167  ../src/core_util.c         0x00000000   Lc  Abs  File  De 
    168  i.check_data_types         0x0000176a   Lc    1  Sect  De 
    169  i.crc16                    0x00001f68   Lc    1  Sect  De 
    170  i.crcu16                   0x00001fb8   Lc    1  Sect  De 
    171  i.crcu32                   0x00002002   Lc    1  Sect  De 
    172  i.get_seed_32              0x0000201c   Lc    1  Sect  De 
    173  ../../../../../utils/am_util_delay.c
                                    0x00000000   Lc  Abs  File  De 
    174  i.am_util_delay_ms         0x00000e40   Lc    1  Sect  De 
    175  ..\..\..\..\..\utils\am_util_faultisr.c
                                    0x00000000   Lc  Abs  File  De 
    176  .emb_text                  0x00000188   Lc    1  Sect  De   0x22
    177  $v0                        0x00000188   Lc    1   --   De 
    178  ../../../../../utils/am_util_faultisr.c
                                    0x00000000   Lc  Abs  File  De 
    179  i.am_util_faultisr_collect_data
                                    0x00000e5c   Lc    1  Sect  De 
    180  ../../../../../utils/am_util_stdio.c
                                    0x00000000   Lc  Abs  File  De 
    181  i.am_util_stdio_printf     0x00000f0c   Lc    1  Sect  De 
    182  i.am_util_stdio_printf_init
                                    0x00000f40   Lc    1  Sect  De 
    183  i.am_util_stdio_sprintf    0x00000f4c   Lc    1  Sect  De 
    184  i.am_util_stdio_terminal_clear
                                    0x00000f60   Lc    1  Sect  De 
    185  i.am_util_stdio_vsprintf   0x00000f9c   Lc    1  Sect  De 
    186  i.ndigits_in_u64           0x00002d36   Lc    1  Sect  De 
    187  ndigits_in_u64             0x00002d37   Lc    1  Code  De   0xc6
    188  i.uint64_to_str            0x000030f8   Lc    1  Sect  De 
    189  uint64_to_str              0x000030f9   Lc    1  Code  De   0x126
    190  .bss                       0x100004d4   Lc    3  Sect  De   0x100
    191  g_prfbuf                   0x100004d4   Lc    3  Data  De   0x100
    192  .data                      0x100000a0   Lc    2  Sect  De   0x8
    193  g_bTxtXlate                0x100000a0   Lc    2  Data  De   0x1
    194  ../../../../../devices/am_devices_led.c
                                    0x00000000   Lc  Abs  File  De 
    195  i.am_devices_led_array_init
                                    0x00000310   Lc    1  Sect  De 
    196  i.am_devices_led_init      0x0000033c   Lc    1  Sect  De 
    197  i.am_devices_led_on        0x000004e8   Lc    1  Sect  De 
    198  ../keil/startup_keil.s     0x00000000   Lc  Abs  File  De 
    199  STACK                      0x10000638   Lc    3  Sect  De   0x1000
    200  StackMem                   0x10000638   Lc    3  Data  De 
    201  HEAP                       0x10000638   Lc    3  Sect  De 
    202  HeapMem                    0x10000638   Lc    3  Data  De 
    203  RESET                      0x00000000   Lc    1  Sect  De   0xe8
    204  $v0                        0x000000c0   Lc    1   --   De 
    205  .text                      0x000001c4   Lc    1  Sect  De   0x18
    206  $v0                        0x000001c4   Lc    1   --   De 
    207  ..\am_hal_global.c         0x00000000   Lc  Abs  File  De 
    208  ../am_hal_global.c         0x00000000   Lc  Abs  File  De 
    209  .data                      0x100000a8   Lc    2  Sect  De   0x4
    210  ../am_hal_cachectrl.c      0x00000000   Lc  Abs  File  De 
    211  i.am_hal_cachectrl_enable  0x00000548   Lc    1  Sect  De 
    212  .constdata                 0x0000384e   Lc    1  Sect  De   0xc
    213  ../am_hal_clkgen.c         0x00000000   Lc  Abs  File  De 
    214  i.am_hal_clkgen_osc_stop   0x00000618   Lc    1  Sect  De 
    215  i.am_hal_clkgen_sysclk_get 0x0000062c   Lc    1  Sect  De 
    216  i.am_hal_clkgen_sysclk_select
                                    0x0000064c   Lc    1  Sect  De 
    217  i.am_hal_clkgen_uarten_set 0x000006b4   Lc    1  Sect  De 
    218  ../am_hal_flash.c          0x00000000   Lc  Abs  File  De 
    219  i.am_hal_flash_delay       0x000006f8   Lc    1  Sect  De 
    220  ../am_hal_gpio.c           0x00000000   Lc  Abs  File  De 
    221  ..\am_hal_interrupt.c      0x00000000   Lc  Abs  File  De 
    222  .emb_text                  0x000001ac   Lc    1  Sect  De   0x16
    223  $v0                        0x000001ac   Lc    1   --   De 
    224  ../am_hal_interrupt.c      0x00000000   Lc  Abs  File  De 
    225  ../am_hal_mcuctrl.c        0x00000000   Lc  Abs  File  De 
    226  i.am_hal_mcuctrl_fault_status
                                    0x00000700   Lc    1  Sect  De 
    227  ../am_hal_pwrctrl.c        0x00000000   Lc  Abs  File  De 
    228  i.am_hal_pwrctrl_bucks_enable
                                    0x00000738   Lc    1  Sect  De 
    229  i.am_hal_pwrctrl_bucks_init
                                    0x0000076c   Lc    1  Sect  De 
    230  i.am_hal_pwrctrl_low_power_init
                                    0x000007ac   Lc    1  Sect  De 
    231  i.am_hal_pwrctrl_memory_enable
                                    0x000007c4   Lc    1  Sect  De 
    232  i.am_hal_pwrctrl_periph_disable
                                    0x00000944   Lc    1  Sect  De 
    233  i.am_hal_pwrctrl_periph_enable
                                    0x000009c4   Lc    1  Sect  De 
    234  ../am_hal_sysctrl.c        0x00000000   Lc  Abs  File  De 
    235  i.am_hal_sysctrl_fpu_enable
                                    0x00000aa4   Lc    1  Sect  De 
    236  i.am_hal_sysctrl_fpu_stacking_enable
                                    0x00000ab4   Lc    1  Sect  De 
    237  ../am_hal_systick.c        0x00000000   Lc  Abs  File  De 
    238  i.am_hal_systick_count     0x00000ae4   Lc    1  Sect  De 
    239  i.am_hal_systick_int_enable
                                    0x00000aec   Lc    1  Sect  De 
    240  i.am_hal_systick_load      0x00000afa   Lc    1  Sect  De 
    241  i.am_hal_systick_start     0x00000b06   Lc    1  Sect  De 
    242  i.am_hal_systick_stop      0x00000b14   Lc    1  Sect  De 
    243  ../am_hal_uart.c           0x00000000   Lc  Abs  File  De 
    244  i.am_hal_uart_clock_disable
                                    0x00000b22   Lc    1  Sect  De 
    245  i.am_hal_uart_clock_enable 0x00000b3a   Lc    1  Sect  De 
    246  i.am_hal_uart_config       0x00000b60   Lc    1  Sect  De 
    247  i.am_hal_uart_disable      0x00000c34   Lc    1  Sect  De 
    248  i.am_hal_uart_enable       0x00000c5e   Lc    1  Sect  De 
    249  i.am_hal_uart_fifo_config  0x00000c86   Lc    1  Sect  De 
    250  i.am_hal_uart_pwrctrl_disable
                                    0x00000c9c   Lc    1  Sect  De 
    251  i.am_hal_uart_pwrctrl_enable
                                    0x00000d00   Lc    1  Sect  De 
    252  i.am_hal_uart_string_transmit_polled
                                    0x00000d64   Lc    1  Sect  De 
    253  ../am_bsp.c                0x00000000   Lc  Abs  File  De 
    254  i.am_bsp_low_power_init    0x000002e6   Lc    1  Sect  De 
    255  i.am_bsp_uart_string_print 0x00000308   Lc    1  Sect  De 
    256  .data                      0x100000ac   Lc    2  Sect  De   0x28
    257  ../am_hal_ctimer.c         0x00000000   Lc  Abs  File  De 
    258  ../am_hal_debug.c          0x00000000   Lc  Abs  File  De 
    259  i.am_hal_debug_error       0x000006f6   Lc    1  Sect  De 
    260  ..\am_hal_iom.c            0x00000000   Lc  Abs  File  De 
    261  ../am_hal_iom.c            0x00000000   Lc  Abs  File  De 
    262  ../am_hal_itm.c            0x00000000   Lc  Abs  File  De 
    263  ../am_hal_queue.c          0x00000000   Lc  Abs  File  De 
    264  ../am_hal_rtc.c            0x00000000   Lc  Abs  File  De 
    265  i.am_hal_rtc_osc_disable   0x00000a80   Lc    1  Sect  De 
    266  i.am_hal_rtc_osc_select    0x00000a8e   Lc    1  Sect  De 
    267  ../am_hal_tpiu.c           0x00000000   Lc  Abs  File  De 
    268  ../am_hal_vcomp.c          0x00000000   Lc  Abs  File  De 
    269  i.am_hal_vcomp_disable     0x00000d8c   Lc    1  Sect  De 
    270  ../am_hal_i2c_bit_bang.c   0x00000000   Lc  Abs  File  De 
    271  dc.s                       0x00000000   Lc  Abs  File  De 
    272  ../clib/longlong.s         0x00000000   Lc  Abs  File  De 
    273  ../clib/memcpset.s         0x00000000   Lc  Abs  File  De 
    274  .text                      0x000001dc   Lc    1  Sect  De   0x44
    275  ../clib/heapaux.c          0x00000000   Lc  Abs  File  De 
    276  .text                      0x00000220   Lc    1  Sect  De 
    277  ../clib/angel/startup.s    0x00000000   Lc  Abs  File  De 
    278  !!!main                    0x000000e8   Lc    1  Sect  De   0x8
    279  ../fplib/d2f.s             0x00000000   Lc  Abs  File  De 
    280  x$fpl$d2f                  0x00003220   Lc    1  Sect  De   0x62
    281  $v0                        0x00003220   Lc    1   --   De 
    282  ../fplib/ddiv.s            0x00000000   Lc  Abs  File  De 
    283  x$fpl$ddiv                 0x0000329c   Lc    1  Sect  De   0x2b0
    284  $v0                        0x0000329c   Lc    1   --   De 
    285  ddiv_entry                 0x000032a3   Lc    1  Code  De 
    286  ../fplib/dfixu.s           0x00000000   Lc  Abs  File  De 
    287  x$fpl$dfixu                0x0000354c   Lc    1  Sect  De   0x5a
    288  $v0                        0x0000354c   Lc    1   --   De 
    289  ../fplib/dflt.s            0x00000000   Lc  Abs  File  De 
    290  x$fpl$dfltu                0x000035a6   Lc    1  Sect  De   0x26
    291  $v0                        0x000035a6   Lc    1   --   De 
    292  ../fplib/dleqf.s           0x00000000   Lc  Abs  File  De 
    293  x$fpl$dleqf                0x000035cc   Lc    1  Sect  De   0x78
    294  $v0                        0x000035cc   Lc    1   --   De 
    295  ../fplib/drleqf.s          0x00000000   Lc  Abs  File  De 
    296  x$fpl$drleqf               0x000036ec   Lc    1  Sect  De   0x6c
    297  $v0                        0x000036ec   Lc    1   --   De 
    298  ../fplib/f2d.s             0x00000000   Lc  Abs  File  De 
    299  x$fpl$f2d                  0x00003758   Lc    1  Sect  De   0x56
    300  $v0                        0x00003758   Lc    1   --   De 
    301  ../clib/angel/kernel.s     0x00000000   Lc  Abs  File  De 
    302  .ARM.Collect$$rtentry$$00000000
                                    0x00000168   Lc    1  Sect  De 
    303  ../clib/memcpset.s         0x00000000   Lc  Abs  File  De 
    304  .text                      0x00000226   Lc    1  Sect  De   0x4e
    305  ../fplib/dcmpi.s           0x00000000   Lc  Abs  File  De 
    306  x$fpl$dcmpinf              0x00003282   Lc    1  Sect  De   0x18
    307  $v0                        0x00003282   Lc    1   --   De 
    308  ../fplib/dnaninf.s         0x00000000   Lc  Abs  File  De 
    309  x$fpl$dnaninf              0x00003644   Lc    1  Sect  De   0x9c
    310  $v0                        0x00003644   Lc    1   --   De 
    311  ../fplib/dretinf.s         0x00000000   Lc  Abs  File  De 
    312  x$fpl$dretinf              0x000036e0   Lc    1  Sect  De   0xc
    313  $v0                        0x000036e0   Lc    1   --   De 
    314  ../fplib/fnaninf.s         0x00000000   Lc  Abs  File  De 
    315  x$fpl$fnaninf              0x000037ae   Lc    1  Sect  De   0x8c
    316  $v0                        0x000037ae   Lc    1   --   De 
    317  ../fplib/fretinf.s         0x00000000   Lc  Abs  File  De 
    318  x$fpl$fretinf              0x00003844   Lc    1  Sect  De   0xa
    319  $v0                        0x00003844   Lc    1   --   De 
    320  ../fplib/usenofp.s         0x00000000   Lc  Abs  File  De 
    321  x$fpl$usenofp              0x0000384e   Lc    1  Sect  De 
    322  ../clib/angel/kernel.s     0x00000000   Lc  Abs  File  De 
    323  .ARM.Collect$$rtentry$$00000002
                                    0x00000168   Lc    1  Sect  De 
    324  .ARM.Collect$$rtentry$$00000009
                                    0x0000016e   Lc    1  Sect  De 
    325  .ARM.Collect$$rtentry$$0000000A
                                    0x0000016e   Lc    1  Sect  De   0x4
    326  .ARM.Collect$$rtentry$$0000000C
                                    0x00000172   Lc    1  Sect  De 
    327  .ARM.Collect$$rtentry$$0000000D
                                    0x00000172   Lc    1  Sect  De   0x8
    328  ../clib/angel/kernel.s     0x00000000   Lc  Abs  File  De 
    329  .ARM.Collect$$rtentry$$00000004
                                    0x00000168   Lc    1  Sect  De   0x6
    330  ../clib/angel/sys.s        0x00000000   Lc  Abs  File  De 
    331  .text                      0x00000274   Lc    1  Sect  De   0x4a
    332  ../clib/stdlib.c           0x00000000   Lc  Abs  File  De 
    333  .text                      0x000002be   Lc    1  Sect  De 
    334  ../clib/angel/boardlib.s   0x00000000   Lc  Abs  File  De 
    335  ../clib/angel/boardlib.s   0x00000000   Lc  Abs  File  De 
    336  ../clib/angel/boardlib.s   0x00000000   Lc  Abs  File  De 
    337  ../clib/libinit.s          0x00000000   Lc  Abs  File  De 
    338  .ARM.Collect$$libinit$$00000000
                                    0x0000015c   Lc    1  Sect  De   0x2
    339  ../clib/angel/sys.s        0x00000000   Lc  Abs  File  De 
    340  .text                      0x000002d0   Lc    1  Sect  De   0x8
    341  .bss                       0x100005d4   Lc    3  Sect  De   0x60
    342  ../clib/angel/kernel.s     0x00000000   Lc  Abs  File  De 
    343  .ARM.Collect$$rtexit$$00000000
                                    0x0000017a   Lc    1  Sect  De   0x2
    344  ../clib/libinit.s          0x00000000   Lc  Abs  File  De 
    345  .ARM.Collect$$libinit$$00000001
                                    0x0000015e   Lc    1  Sect  De   0x4
    346  .ARM.Collect$$libinit$$00000004
                                    0x00000162   Lc    1  Sect  De 
    347  .ARM.Collect$$libinit$$0000000A
                                    0x00000162   Lc    1  Sect  De 
    348  .ARM.Collect$$libinit$$0000000C
                                    0x00000162   Lc    1  Sect  De 
    349  .ARM.Collect$$libinit$$0000000E
                                    0x00000162   Lc    1  Sect  De 
    350  .ARM.Collect$$libinit$$00000011
                                    0x00000162   Lc    1  Sect  De 
    351  .ARM.Collect$$libinit$$00000013
                                    0x00000162   Lc    1  Sect  De 
    352  .ARM.Collect$$libinit$$00000015
                                    0x00000162   Lc    1  Sect  De 
    353  .ARM.Collect$$libinit$$00000017
                                    0x00000162   Lc    1  Sect  De 
    354  .ARM.Collect$$libinit$$00000019
                                    0x00000162   Lc    1  Sect  De 
    355  .ARM.Collect$$libinit$$0000001B
                                    0x00000162   Lc    1  Sect  De 
    356  .ARM.Collect$$libinit$$0000001D
                                    0x00000162   Lc    1  Sect  De 
    357  .ARM.Collect$$libinit$$0000001F
                                    0x00000162   Lc    1  Sect  De 
    358  .ARM.Collect$$libinit$$00000021
                                    0x00000162   Lc    1  Sect  De 
    359  .ARM.Collect$$libinit$$00000023
                                    0x00000162   Lc    1  Sect  De 
    360  .ARM.Collect$$libinit$$00000025
                                    0x00000162   Lc    1  Sect  De 
    361  .ARM.Collect$$libinit$$0000002C
                                    0x00000162   Lc    1  Sect  De 
    362  .ARM.Collect$$libinit$$0000002E
                                    0x00000162   Lc    1  Sect  De 
    363  .ARM.Collect$$libinit$$00000030
                                    0x00000162   Lc    1  Sect  De 
    364  .ARM.Collect$$libinit$$00000032
                                    0x00000162   Lc    1  Sect  De 
    365  .ARM.Collect$$libinit$$00000033
                                    0x00000162   Lc    1  Sect  De   0x2
    366  ../clib/angel/kernel.s     0x00000000   Lc  Abs  File  De 
    367  .ARM.Collect$$rtexit$$00000002
                                    0x0000017c   Lc    1  Sect  De 
    368  .ARM.Collect$$rtexit$$00000003
                                    0x0000017c   Lc    1  Sect  De   0x4
    369  .ARM.Collect$$rtexit$$00000004
                                    0x00000180   Lc    1  Sect  De   0x6
    370  ../clib/armsys.c           0x00000000   Lc  Abs  File  De 
    371  ../clib/armsys.c           0x00000000   Lc  Abs  File  De 
    372  ../fplib/fpinit.s          0x00000000   Lc  Abs  File  De 
    373  x$fpl$fpinit               0x0000383a   Lc    1  Sect  De   0xa
    374  $v0                        0x0000383a   Lc    1   --   De 
    375  ../clib/angel/sysapp.c     0x00000000   Lc  Abs  File  De 
    376  .text                      0x000002d8   Lc    1  Sect  De 
    377  ../clib/angel/boardlib.s   0x00000000   Lc  Abs  File  De 
    378  ../clib/armsys.c           0x00000000   Lc  Abs  File  De 
    379  ../clib/armsys.c           0x00000000   Lc  Abs  File  De 
    380  ../clib/libinit.s          0x00000000   Lc  Abs  File  De 
    381  .ARM.Collect$$libshutdown$$00000000
                                    0x00000164   Lc    1  Sect  De   0x2
    382  ../clib/angel/sysapp.c     0x00000000   Lc  Abs  File  De 
    383  ../clib/angel/sys.s        0x00000000   Lc  Abs  File  De 
    384  .text                      0x000002e4   Lc    1  Sect  De   0x2
    385  ../clib/angel/sys.s        0x00000000   Lc  Abs  File  De 
    386  .text                      0x000002e6   Lc    1  Sect  De 
    387  ../clib/heapalloc.c        0x00000000   Lc  Abs  File  De 
    388  ../clib/signal.c           0x00000000   Lc  Abs  File  De 
    389  ../clib/signal.c           0x00000000   Lc  Abs  File  De 
    390  ../clib/libinit.s          0x00000000   Lc  Abs  File  De 
    391  .ARM.Collect$$libshutdown$$00000002
                                    0x00000166   Lc    1  Sect  De 
    392  .ARM.Collect$$libshutdown$$00000004
                                    0x00000166   Lc    1  Sect  De 
    393  .ARM.Collect$$libshutdown$$00000007
                                    0x00000166   Lc    1  Sect  De 
    394  .ARM.Collect$$libshutdown$$0000000A
                                    0x00000166   Lc    1  Sect  De 
    395  .ARM.Collect$$libshutdown$$0000000C
                                    0x00000166   Lc    1  Sect  De 
    396  .ARM.Collect$$libshutdown$$0000000F
                                    0x00000166   Lc    1  Sect  De 
    397  .ARM.Collect$$libshutdown$$00000010
                                    0x00000166   Lc    1  Sect  De   0x2
    398  ../clib/angel/rt.s         0x00000000   Lc  Abs  File  De 
    399  ../clib/signal.c           0x00000000   Lc  Abs  File  De 
    400  ../clib/signal.c           0x00000000   Lc  Abs  File  De 
    401  ../clib/signal.c           0x00000000   Lc  Abs  File  De 
    402  ../clib/signal.c           0x00000000   Lc  Abs  File  De 
    403  ../clib/angel/sysapp.c     0x00000000   Lc  Abs  File  De 
    404  ../clib/signal.s           0x00000000   Lc  Abs  File  De 
    405  ../clib/signal.c           0x00000000   Lc  Abs  File  De 
    406  ../clib/signal.c           0x00000000   Lc  Abs  File  De 
    407  ../clib/signal.c           0x00000000   Lc  Abs  File  De 
    408  ../clib/signal.c           0x00000000   Lc  Abs  File  De 
    409  ../clib/signal.c           0x00000000   Lc  Abs  File  De 
    410  ../clib/signal.c           0x00000000   Lc  Abs  File  De 
    411  ../clib/signal.c           0x00000000   Lc  Abs  File  De 
    412  ../clib/signal.c           0x00000000   Lc  Abs  File  De 
    413  ../clib/angel/scatter.s    0x00000000   Lc  Abs  File  De 
    414  !!!scatter                 0x000000f0   Lc    1  Sect  De   0x34
    415  ../clib/angel/handlers.s   0x00000000   Lc  Abs  File  De 
    416  !!handler_copy             0x00000124   Lc    1  Sect  De   0x1a
    417  ../clib/angel/handlers.s   0x00000000   Lc  Abs  File  De 
    418  !!handler_zi               0x00000140   Lc    1  Sect  De   0x1c
    419  BuildAttributes$$THM_ISAv4$E$P$D$K$B$S$7EM$VFPi3$EXTD16$VFPS$VFMA$PE$A:L22UL41UL21$X:L11$S22US41US21$IEEE1$IW$USESV6$~STKCKD$USESV7$~SHL$OTIME$ROPI$EBA8$UX$STANDARDLIB$REQ8$PRES8$EABIv2
                                    0x00000000   Gb  Abs   --   Hi 
    420  __ARM_use_no_argv          0x00000000   Gb  Abs   --   Hi 
    421  __Vectors                  0x00000000   Gb    1  Data  Hi 
    422  Reset_Handler              0x000000c1   Wk    1  Code  Hi   0x1c
    423  am_nmi_isr                 0x000000dd   Wk    1  Code  Hi   0x2
    424  am_memmanage_isr           0x000000e1   Wk    1  Code  Hi   0x2
    425  am_adc_isr                 0x000000e3   Wk    1  Code  Hi 
    426  am_brownout_isr            0x000000e3   Wk    1  Code  Hi 
    427  am_clkgen_isr              0x000000e3   Wk    1  Code  Hi 
    428  am_ctimer_isr              0x000000e3   Wk    1  Code  Hi 
    429  am_debugmon_isr            0x000000e3   Wk    1  Code  Hi 
    430  am_flash_isr               0x000000e3   Wk    1  Code  Hi 
    431  am_gpio_isr                0x000000e3   Wk    1  Code  Hi 
    432  am_iomaster0_isr           0x000000e3   Wk    1  Code  Hi 
    433  am_iomaster1_isr           0x000000e3   Wk    1  Code  Hi 
    434  am_iomaster2_isr           0x000000e3   Wk    1  Code  Hi 
    435  am_iomaster3_isr           0x000000e3   Wk    1  Code  Hi 
    436  am_iomaster4_isr           0x000000e3   Wk    1  Code  Hi 
    437  am_iomaster5_isr           0x000000e3   Wk    1  Code  Hi 
    438  am_ioslave_acc_isr         0x000000e3   Wk    1  Code  Hi 
    439  am_ioslave_ios_isr         0x000000e3   Wk    1  Code  Hi 
    440  am_pdm0_isr                0x000000e3   Wk    1  Code  Hi 
    441  am_pendsv_isr              0x000000e3   Wk    1  Code  Hi 
    442  am_software0_isr           0x000000e3   Wk    1  Code  Hi 
    443  am_software1_isr           0x000000e3   Wk    1  Code  Hi 
    444  am_software2_isr           0x000000e3   Wk    1  Code  Hi 
    445  am_software3_isr           0x000000e3   Wk    1  Code  Hi 
    446  am_stimer_cmpr0_isr        0x000000e3   Wk    1  Code  Hi 
    447  am_stimer_cmpr1_isr        0x000000e3   Wk    1  Code  Hi 
    448  am_stimer_cmpr2_isr        0x000000e3   Wk    1  Code  Hi 
    449  am_stimer_cmpr3_isr        0x000000e3   Wk    1  Code  Hi 
    450  am_stimer_cmpr4_isr        0x000000e3   Wk    1  Code  Hi 
    451  am_stimer_cmpr5_isr        0x000000e3   Wk    1  Code  Hi 
    452  am_stimer_cmpr6_isr        0x000000e3   Wk    1  Code  Hi 
    453  am_stimer_cmpr7_isr        0x000000e3   Wk    1  Code  Hi 
    454  am_stimer_isr              0x000000e3   Wk    1  Code  Hi 
    455  am_svcall_isr              0x000000e3   Wk    1  Code  Hi 
    456  am_uart0_isr               0x000000e3   Wk    1  Code  Hi 
    457  am_uart1_isr               0x000000e3   Wk    1  Code  Hi 
    458  am_uart_isr                0x000000e3   Wk    1  Code  Hi 
    459  am_vcomp_isr               0x000000e3   Wk    1  Code  Hi 
    460  am_watchdog_isr            0x000000e3   Wk    1  Code  Hi 
    461  __main                     0x000000e9   Gb    1  Code  Hi   0x8
    462  __scatterload              0x000000f1   Gb    1  Code  Hi 
    463  __scatterload_rt2          0x000000f1   Gb    1  Code  Hi   0x2c
    464  __scatterload_rt2_thumb_only
                                    0x000000f1   Gb    1  Code  Hi 
    465  __scatterload_null         0x000000ff   Gb    1  Code  Hi 
    466  __scatterload_copy         0x00000125   Gb    1  Code  Hi   0x1a
    467  __scatterload_zeroinit     0x00000141   Gb    1  Code  Hi   0x1c
    468  __rt_lib_init              0x0000015d   Gb    1  Code  De 
    469  __rt_lib_init_fp_1         0x0000015f   Gb    1  Code  Hi 
    470  __rt_lib_init_alloca_1     0x00000163   Gb    1  Code  Hi 
    471  __rt_lib_init_argv_1       0x00000163   Gb    1  Code  Hi 
    472  __rt_lib_init_atexit_1     0x00000163   Gb    1  Code  Hi 
    473  __rt_lib_init_clock_1      0x00000163   Gb    1  Code  Hi 
    474  __rt_lib_init_cpp_1        0x00000163   Gb    1  Code  Hi 
    475  __rt_lib_init_exceptions_1 0x00000163   Gb    1  Code  Hi 
    476  __rt_lib_init_fp_trap_1    0x00000163   Gb    1  Code  Hi 
    477  __rt_lib_init_getenv_1     0x00000163   Gb    1  Code  Hi 
    478  __rt_lib_init_heap_1       0x00000163   Gb    1  Code  Hi 
    479  __rt_lib_init_lc_collate_1 0x00000163   Gb    1  Code  Hi 
    480  __rt_lib_init_lc_ctype_1   0x00000163   Gb    1  Code  Hi 
    481  __rt_lib_init_lc_monetary_1
                                    0x00000163   Gb    1  Code  Hi 
    482  __rt_lib_init_lc_numeric_1 0x00000163   Gb    1  Code  Hi 
    483  __rt_lib_init_lc_time_1    0x00000163   Gb    1  Code  Hi 
    484  __rt_lib_init_preinit_1    0x00000163   Gb    1  Code  Hi 
    485  __rt_lib_init_rand_1       0x00000163   Gb    1  Code  Hi 
    486  __rt_lib_init_return       0x00000163   Gb    1  Code  Hi 
    487  __rt_lib_init_signal_1     0x00000163   Gb    1  Code  Hi 
    488  __rt_lib_init_stdio_1      0x00000163   Gb    1  Code  Hi 
    489  __rt_lib_init_user_alloc_1 0x00000163   Gb    1  Code  Hi 
    490  __rt_lib_shutdown          0x00000165   Gb    1  Code  De 
    491  __rt_lib_shutdown_cpp_1    0x00000167   Gb    1  Code  Hi 
    492  __rt_lib_shutdown_fp_trap_1
                                    0x00000167   Gb    1  Code  Hi 
    493  __rt_lib_shutdown_heap_1   0x00000167   Gb    1  Code  Hi 
    494  __rt_lib_shutdown_return   0x00000167   Gb    1  Code  Hi 
    495  __rt_lib_shutdown_signal_1 0x00000167   Gb    1  Code  Hi 
    496  __rt_lib_shutdown_stdio_1  0x00000167   Gb    1  Code  Hi 
    497  __rt_lib_shutdown_user_alloc_1
                                    0x00000167   Gb    1  Code  Hi 
    498  __rt_entry                 0x00000169   Gb    1  Code  Hi 
    499  __rt_entry_presh_1         0x00000169   Gb    1  Code  Hi 
    500  __rt_entry_sh              0x00000169   Gb    1  Code  Hi 
    501  __rt_entry_li              0x0000016f   Gb    1  Code  Hi 
    502  __rt_entry_postsh_1        0x0000016f   Gb    1  Code  Hi 
    503  __rt_entry_main            0x00000173   Gb    1  Code  Hi 
    504  __rt_entry_postli_1        0x00000173   Gb    1  Code  Hi 
    505  __rt_exit                  0x0000017b   Gb    1  Code  De 
    506  __rt_exit_ls               0x0000017d   Gb    1  Code  Hi 
    507  __rt_exit_prels_1          0x0000017d   Gb    1  Code  Hi 
    508  __rt_exit_exit             0x00000181   Gb    1  Code  Hi 
    509  am_fault_isr               0x00000189   Gb    1  Code  Hi   0x1a
    510  getStackedReg              0x000001a3   Gb    1  Code  Hi   0x8
    511  am_hal_interrupt_master_enable
                                    0x000001ad   Gb    1  Code  Hi   0x8
    512  am_hal_interrupt_master_disable
                                    0x000001b5   Gb    1  Code  Hi   0x8
    513  am_hal_interrupt_master_set
                                    0x000001bd   Gb    1  Code  Hi   0x6
    514  __user_initial_stackheap   0x000001c5   Gb    1  Code  Hi   0xa
    515  __aeabi_memclr             0x000001dd   Gb    1  Code  Hi 
    516  __rt_memclr                0x000001dd   Gb    1  Code  De   0x44
    517  _memset                    0x000001e1   Gb    1  Code  De 
    518  __use_two_region_memory    0x00000221   Gb    1  Code  Hi   0x2
    519  __rt_heap_escrow$2region   0x00000223   Gb    1  Code  De   0x2
    520  __rt_heap_expand$2region   0x00000225   Gb    1  Code  De   0x2
    521  __aeabi_memclr4            0x00000227   Gb    1  Code  De 
    522  __aeabi_memclr8            0x00000227   Gb    1  Code  De 
    523  __rt_memclr_w              0x00000227   Gb    1  Code  De   0x4e
    524  _memset_w                  0x0000022b   Gb    1  Code  De 
    525  __user_setup_stackheap     0x00000275   Gb    1  Code  De   0x4a
    526  exit                       0x000002bf   Gb    1  Code  De   0x12
    527  __user_libspace            0x000002d1   Wk    1  Code  De   0x8
    528  __user_perproc_libspace    0x000002d1   Wk    1  Code  De 
    529  __user_perthread_libspace  0x000002d1   Wk    1  Code  De 
    530  _sys_exit                  0x000002d9   Gb    1  Code  De   0x8
    531  __I$use$semihosting        0x000002e5   Gb    1  Code  Hi 
    532  __use_no_semihosting_swi   0x000002e5   Gb    1  Code  Hi   0x2
    533  __semihosting_library_function
                                    0x000002e7   Gb    1  Code  Hi 
    534  am_bsp_low_power_init      0x000002e7   Gb    1  Code  Hi   0x22
    535  am_bsp_uart_string_print   0x00000309   Gb    1  Code  Hi   0x8
    536  am_devices_led_array_init  0x00000311   Gb    1  Code  Hi   0x2c
    537  am_devices_led_init        0x0000033d   Gb    1  Code  Hi   0x1a6
    538  am_devices_led_on          0x000004e9   Gb    1  Code  Hi   0x60
    539  am_hal_cachectrl_enable    0x00000549   Gb    1  Code  Hi   0xcc
    540  am_hal_clkgen_osc_stop     0x00000619   Gb    1  Code  Hi   0x14
    541  am_hal_clkgen_sysclk_get   0x0000062d   Gb    1  Code  Hi   0x18
    542  am_hal_clkgen_sysclk_select
                                    0x0000064d   Gb    1  Code  Hi   0x20
    543  am_hal_clkgen_uarten_set   0x000006b5   Gb    1  Code  Hi   0x42
    544  am_hal_debug_error         0x000006f7   Wk    1  Code  Hi   0x2
    545  am_hal_flash_delay         0x000006f9   Gb    1  Code  Hi   0x4
    546  am_hal_mcuctrl_fault_status
                                    0x00000701   Gb    1  Code  Hi   0x34
    547  am_hal_pwrctrl_bucks_enable
                                    0x00000739   Gb    1  Code  Hi   0x2e
    548  am_hal_pwrctrl_bucks_init  0x0000076d   Gb    1  Code  Hi   0x3c
    549  am_hal_pwrctrl_low_power_init
                                    0x000007ad   Gb    1  Code  Hi   0x14
    550  am_hal_pwrctrl_memory_enable
                                    0x000007c5   Gb    1  Code  Hi   0x174
    551  am_hal_pwrctrl_periph_disable
                                    0x00000945   Gb    1  Code  Hi   0x34
    552  am_hal_pwrctrl_periph_enable
                                    0x000009c5   Gb    1  Code  Hi   0x70
    553  am_hal_rtc_osc_disable     0x00000a81   Gb    1  Code  Hi   0xe
    554  am_hal_rtc_osc_select      0x00000a8f   Gb    1  Code  Hi   0x16
    555  am_hal_sysctrl_fpu_enable  0x00000aa5   Gb    1  Code  Hi   0xa
    556  am_hal_sysctrl_fpu_stacking_enable
                                    0x00000ab5   Gb    1  Code  Hi   0x2c
    557  am_hal_systick_count       0x00000ae5   Gb    1  Code  Hi   0x8
    558  am_hal_systick_int_enable  0x00000aed   Gb    1  Code  Hi   0xe
    559  am_hal_systick_load        0x00000afb   Gb    1  Code  Hi   0xc
    560  am_hal_systick_start       0x00000b07   Gb    1  Code  Hi   0xe
    561  am_hal_systick_stop        0x00000b15   Gb    1  Code  Hi   0xe
    562  am_hal_uart_clock_disable  0x00000b23   Gb    1  Code  Hi   0x18
    563  am_hal_uart_clock_enable   0x00000b3b   Gb    1  Code  Hi   0x26
    564  am_hal_uart_config         0x00000b61   Gb    1  Code  Hi   0x8c
    565  am_hal_uart_disable        0x00000c35   Gb    1  Code  Hi   0x2a
    566  am_hal_uart_enable         0x00000c5f   Gb    1  Code  Hi   0x28
    567  am_hal_uart_fifo_config    0x00000c87   Gb    1  Code  Hi   0x16
    568  am_hal_uart_pwrctrl_disable
                                    0x00000c9d   Gb    1  Code  Hi   0x20
    569  am_hal_uart_pwrctrl_enable 0x00000d01   Gb    1  Code  Hi   0x20
    570  am_hal_uart_string_transmit_polled
                                    0x00000d65   Gb    1  Code  Hi   0x28
    571  am_hal_vcomp_disable       0x00000d8d   Gb    1  Code  Hi   0x8
    572  am_sprintf                 0x00000d99   Gb    1  Code  Hi   0x66
    573  am_systick_isr             0x00000e31   Gb    1  Code  Hi   0xc
    574  am_util_delay_ms           0x00000e41   Gb    1  Code  Hi   0x1a
    575  am_util_faultisr_collect_data
                                    0x00000e5d   Gb    1  Code  Hi   0xa8
    576  am_util_stdio_printf       0x00000f0d   Gb    1  Code  Hi   0x2c
    577  am_util_stdio_printf_init  0x00000f41   Gb    1  Code  Hi   0x6
    578  am_util_stdio_sprintf      0x00000f4d   Gb    1  Code  Hi   0x12
    579  am_util_stdio_terminal_clear
                                    0x00000f61   Gb    1  Code  Hi   0x20
    580  am_util_stdio_vsprintf     0x00000f9d   Gb    1  Code  Hi   0x734
    581  calc_func                  0x000016dd   Gb    1  Code  Hi   0x8e
    582  check_data_types           0x0000176b   Gb    1  Code  Hi   0x4
    583  cmp_complex                0x0000176f   Gb    1  Code  Hi   0x1a
    584  cmp_idx                    0x00001789   Gb    1  Code  Hi   0x2a
    585  core_bench_list            0x000017b5   Gb    1  Code  Hi   0x188
    586  core_bench_matrix          0x00001945   Gb    1  Code  Hi   0x22
    587  core_bench_state           0x00001967   Gb    1  Code  Hi   0xec
    588  core_init_matrix           0x00001a55   Gb    1  Code  Hi   0xa6
    589  core_init_state            0x00001afd   Gb    1  Code  Hi   0x104
    590  core_list_init             0x00001c09   Gb    1  Code  Hi   0x108
    591  core_list_mergesort        0x00001d19   Gb    1  Code  Hi   0xa6
    592  core_state_transition      0x00001dbf   Gb    1  Code  Hi   0x1a8
    593  crc16                      0x00001f69   Gb    1  Code  Hi   0x4e
    594  crcu16                     0x00001fb9   Gb    1  Code  Hi   0x4a
    595  crcu32                     0x00002003   Gb    1  Code  Hi   0x18
    596  get_seed_32                0x0000201d   Gb    1  Code  Hi   0x2a
    597  get_time                   0x0000205d   Gb    1  Code  Hi   0xa
    598  main                       0x00002071   Gb    1  Code  Hi   0x95c
    599  matrix_sum                 0x00002a11   Gb    1  Code  Hi   0x5c
    600  matrix_test                0x00002a6d   Gb    1  Code  Hi   0x2ca
    601  portable_fini              0x00002dfd   Gb    1  Code  Hi   0x6a
    602  portable_init              0x00002ea1   Gb    1  Code  Hi   0x7a
    603  start_time                 0x00002f51   Gb    1  Code  Hi   0x28
    604  stop_time                  0x00002f85   Gb    1  Code  Hi   0x1c
    605  time_in_secs               0x00002fb1   Gb    1  Code  Hi   0x18
    606  uart_disable               0x00002fd1   Gb    1  Code  Hi   0x86
    607  uart_init                  0x0000305d   Gb    1  Code  Hi   0x92
    608  __aeabi_d2f                0x00003221   Gb    1  Code  Hi 
    609  _d2f                       0x00003221   Gb    1  Code  De   0x62
    610  __fpl_dcmp_Inf             0x00003283   Gb    1  Code  De   0x18
    611  __aeabi_ddiv               0x0000329d   Gb    1  Code  Hi 
    612  _ddiv                      0x0000329d   Gb    1  Code  De   0x228
    613  __aeabi_d2uiz              0x0000354d   Gb    1  Code  Hi 
    614  _dfixu                     0x0000354d   Gb    1  Code  De   0x5a
    615  __aeabi_ui2d               0x000035a7   Gb    1  Code  Hi 
    616  _dfltu                     0x000035a7   Gb    1  Code  De   0x26
    617  __aeabi_cdcmple            0x000035cd   Gb    1  Code  Hi 
    618  _dcmple                    0x000035cd   Gb    1  Code  De   0x78
    619  __fpl_dcmple_InfNaN        0x0000362f   Gb    1  Code  Pr 
    620  __fpl_dnaninf              0x00003645   Gb    1  Code  De   0x9c
    621  __fpl_dretinf              0x000036e1   Gb    1  Code  De   0xc
    622  __aeabi_cdrcmple           0x000036ed   Gb    1  Code  Hi 
    623  _drcmple                   0x000036ed   Gb    1  Code  De   0x6c
    624  __aeabi_f2d                0x00003759   Gb    1  Code  Hi 
    625  _f2d                       0x00003759   Gb    1  Code  De   0x56
    626  __fpl_fnaninf              0x000037af   Gb    1  Code  De   0x8c
    627  _fp_init                   0x0000383b   Gb    1  Code  De   0xa
    628  __fplib_config_fpu_vfp     0x00003843   Gb    1  Code  De 
    629  __fplib_config_pureend_doubles
                                    0x00003843   Gb    1  Code  De 
    630  __fpl_fretinf              0x00003845   Gb    1  Code  De   0xa
    631  __I$use$fp                 0x0000384e   Gb    1   --   De 
    632  am_hal_cachectrl_defaults  0x0000384e   Gb    1  Data  Hi   0xc
    633  Region$$Table$$Base        0x000039bc   Gb    1   --   Hi 
    634  Region$$Table$$Limit       0x000039dc   Gb    1   --   Hi 
    635  g_ui32SysTickWrappedTime   0x10000000   Gb    2  Data  Hi   0x4
    636  seed1_volatile             0x10000024   Gb    2  Data  Hi   0x4
    637  seed2_volatile             0x10000028   Gb    2  Data  Hi   0x4
    638  seed3_volatile             0x1000002c   Gb    2  Data  Hi   0x4
    639  seed4_volatile             0x10000030   Gb    2  Data  Hi   0x4
    640  seed5_volatile             0x10000034   Gb    2  Data  Hi   0x4
    641  am_bufcnt                  0x10000038   Gb    2  Data  Hi   0x4
    642  am_pcBuf                   0x1000003c   Gb    2  Data  Hi   0x4
    643  g_sUartConfig              0x10000048   Gb    2  Data  Hi   0x14
    644  default_num_contexts       0x1000005c   Gb    2  Data  Hi   0x4
    645  g_pfnCharPrint             0x100000a4   Gb    2  Data  Hi   0x4
    646  g_ui32HALflags             0x100000a8   Gb    2  Data  Hi   0x4
    647  am_bsp_psLEDs              0x100000ac   Gb    2  Data  Hi   0x28
    648  am_prtbuf                  0x100000d4   Gb    3  Data  Hi   0x400
    649  __libspace_start           0x100005d4   Gb    3  Data  De   0x60
    650  __temporary_stack_top$libspace
                                    0x10000634   Gb    3  Data  De 


** Section #12 '.strtab' (SHT_STRTAB)
    Size   : 9328 bytes

            #  Offset String
        ====================================

            1      1: $d
            2      4: $t
            3      7: $d.realdata
            4     19: ../src/am_time.c
            5     36: i.am_systick_isr
            6     53: .data
            7     59: ../src/core_list_join.c
            8     83: i.calc_func
            9     95: i.cmp_complex
           10    109: i.cmp_idx
           11    119: i.core_bench_list
           12    137: i.core_list_init
           13    154: i.core_list_mergesort
           14    176: ../src/core_main.c
           15    195: i.main
           16    202: .conststring
           17    215: list_known_crc
           18    230: matrix_known_crc
           19    247: state_known_crc
           20    263: ../src/core_matrix.c
           21    284: i.core_bench_matrix
           22    304: i.core_init_matrix
           23    323: i.matrix_sum
           24    336: i.matrix_test
           25    350: ../src/core_portme.c
           26    371: i.am_sprintf
           27    384: i.get_time
           28    395: i.portable_fini
           29    411: i.portable_init
           30    427: i.start_time
           31    440: i.stop_time
           32    452: i.time_in_secs
           33    467: i.uart_disable
           34    482: i.uart_init
           35    494: .bss
           36    499: start_time_val
           37    514: stop_time_val
           38    528: ../src/core_state.c
           39    548: i.core_bench_state
           40    567: i.core_init_state
           41    585: i.core_state_transition
           42    609: intpat
           43    616: floatpat
           44    625: scipat
           45    632: errpat
           46    639: ../src/core_util.c
           47    658: i.check_data_types
           48    677: i.crc16
           49    685: i.crcu16
           50    694: i.crcu32
           51    703: i.get_seed_32
           52    717: ../../../../../utils/am_util_delay.c
           53    754: i.am_util_delay_ms
           54    773: ..\..\..\..\..\utils\am_util_faultisr.c
           55    813: .emb_text
           56    823: $v0
           57    827: ../../../../../utils/am_util_faultisr.c
           58    867: i.am_util_faultisr_collect_data
           59    899: ../../../../../utils/am_util_stdio.c
           60    936: i.am_util_stdio_printf
           61    959: i.am_util_stdio_printf_init
           62    987: i.am_util_stdio_sprintf
           63   1011: i.am_util_stdio_terminal_clear
           64   1042: i.am_util_stdio_vsprintf
           65   1067: i.ndigits_in_u64
           66   1084: ndigits_in_u64
           67   1099: i.uint64_to_str
           68   1115: uint64_to_str
           69   1129: g_prfbuf
           70   1138: g_bTxtXlate
           71   1150: ../../../../../devices/am_devices_led.c
           72   1190: i.am_devices_led_array_init
           73   1218: i.am_devices_led_init
           74   1240: i.am_devices_led_on
           75   1260: ../keil/startup_keil.s
           76   1283: STACK
           77   1289: StackMem
           78   1298: HEAP
           79   1303: HeapMem
           80   1311: RESET
           81   1317: .text
           82   1323: ..\am_hal_global.c
           83   1342: ../am_hal_global.c
           84   1361: ../am_hal_cachectrl.c
           85   1383: i.am_hal_cachectrl_enable
           86   1409: .constdata
           87   1420: ../am_hal_clkgen.c
           88   1439: i.am_hal_clkgen_osc_stop
           89   1464: i.am_hal_clkgen_sysclk_get
           90   1491: i.am_hal_clkgen_sysclk_select
           91   1521: i.am_hal_clkgen_uarten_set
           92   1548: ../am_hal_flash.c
           93   1566: i.am_hal_flash_delay
           94   1587: ../am_hal_gpio.c
           95   1604: ..\am_hal_interrupt.c
           96   1626: ../am_hal_interrupt.c
           97   1648: ../am_hal_mcuctrl.c
           98   1668: i.am_hal_mcuctrl_fault_status
           99   1698: ../am_hal_pwrctrl.c
          100   1718: i.am_hal_pwrctrl_bucks_enable
          101   1748: i.am_hal_pwrctrl_bucks_init
          102   1776: i.am_hal_pwrctrl_low_power_init
          103   1808: i.am_hal_pwrctrl_memory_enable
          104   1839: i.am_hal_pwrctrl_periph_disable
          105   1871: i.am_hal_pwrctrl_periph_enable
          106   1902: ../am_hal_sysctrl.c
          107   1922: i.am_hal_sysctrl_fpu_enable
          108   1950: i.am_hal_sysctrl_fpu_stacking_enable
          109   1987: ../am_hal_systick.c
          110   2007: i.am_hal_systick_count
          111   2030: i.am_hal_systick_int_enable
          112   2058: i.am_hal_systick_load
          113   2080: i.am_hal_systick_start
          114   2103: i.am_hal_systick_stop
          115   2125: ../am_hal_uart.c
          116   2142: i.am_hal_uart_clock_disable
          117   2170: i.am_hal_uart_clock_enable
          118   2197: i.am_hal_uart_config
          119   2218: i.am_hal_uart_disable
          120   2240: i.am_hal_uart_enable
          121   2261: i.am_hal_uart_fifo_config
          122   2287: i.am_hal_uart_pwrctrl_disable
          123   2317: i.am_hal_uart_pwrctrl_enable
          124   2346: i.am_hal_uart_string_transmit_polled
          125   2383: ../am_bsp.c
          126   2395: i.am_bsp_low_power_init
          127   2419: i.am_bsp_uart_string_print
          128   2446: ../am_hal_ctimer.c
          129   2465: ../am_hal_debug.c
          130   2483: i.am_hal_debug_error
          131   2504: ..\am_hal_iom.c
          132   2520: ../am_hal_iom.c
          133   2536: ../am_hal_itm.c
          134   2552: ../am_hal_queue.c
          135   2570: ../am_hal_rtc.c
          136   2586: i.am_hal_rtc_osc_disable
          137   2611: i.am_hal_rtc_osc_select
          138   2635: ../am_hal_tpiu.c
          139   2652: ../am_hal_vcomp.c
          140   2670: i.am_hal_vcomp_disable
          141   2693: ../am_hal_i2c_bit_bang.c
          142   2718: dc.s
          143   2723: ../clib/longlong.s
          144   2742: ../clib/memcpset.s
          145   2761: ../clib/heapaux.c
          146   2779: ../clib/angel/startup.s
          147   2803: !!!main
          148   2811: ../fplib/d2f.s
          149   2826: x$fpl$d2f
          150   2836: ../fplib/ddiv.s
          151   2852: x$fpl$ddiv
          152   2863: ddiv_entry
          153   2874: ../fplib/dfixu.s
          154   2891: x$fpl$dfixu
          155   2903: ../fplib/dflt.s
          156   2919: x$fpl$dfltu
          157   2931: ../fplib/dleqf.s
          158   2948: x$fpl$dleqf
          159   2960: ../fplib/drleqf.s
          160   2978: x$fpl$drleqf
          161   2991: ../fplib/f2d.s
          162   3006: x$fpl$f2d
          163   3016: ../clib/angel/kernel.s
          164   3039: .ARM.Collect$$rtentry$$00000000
          165   3071: ../fplib/dcmpi.s
          166   3088: x$fpl$dcmpinf
          167   3102: ../fplib/dnaninf.s
          168   3121: x$fpl$dnaninf
          169   3135: ../fplib/dretinf.s
          170   3154: x$fpl$dretinf
          171   3168: ../fplib/fnaninf.s
          172   3187: x$fpl$fnaninf
          173   3201: ../fplib/fretinf.s
          174   3220: x$fpl$fretinf
          175   3234: ../fplib/usenofp.s
          176   3253: x$fpl$usenofp
          177   3267: .ARM.Collect$$rtentry$$00000002
          178   3299: .ARM.Collect$$rtentry$$00000009
          179   3331: .ARM.Collect$$rtentry$$0000000A
          180   3363: .ARM.Collect$$rtentry$$0000000C
          181   3395: .ARM.Collect$$rtentry$$0000000D
          182   3427: .ARM.Collect$$rtentry$$00000004
          183   3459: ../clib/angel/sys.s
          184   3479: ../clib/stdlib.c
          185   3496: ../clib/angel/boardlib.s
          186   3521: ../clib/libinit.s
          187   3539: .ARM.Collect$$libinit$$00000000
          188   3571: .ARM.Collect$$rtexit$$00000000
          189   3602: .ARM.Collect$$libinit$$00000001
          190   3634: .ARM.Collect$$libinit$$00000004
          191   3666: .ARM.Collect$$libinit$$0000000A
          192   3698: .ARM.Collect$$libinit$$0000000C
          193   3730: .ARM.Collect$$libinit$$0000000E
          194   3762: .ARM.Collect$$libinit$$00000011
          195   3794: .ARM.Collect$$libinit$$00000013
          196   3826: .ARM.Collect$$libinit$$00000015
          197   3858: .ARM.Collect$$libinit$$00000017
          198   3890: .ARM.Collect$$libinit$$00000019
          199   3922: .ARM.Collect$$libinit$$0000001B
          200   3954: .ARM.Collect$$libinit$$0000001D
          201   3986: .ARM.Collect$$libinit$$0000001F
          202   4018: .ARM.Collect$$libinit$$00000021
          203   4050: .ARM.Collect$$libinit$$00000023
          204   4082: .ARM.Collect$$libinit$$00000025
          205   4114: .ARM.Collect$$libinit$$0000002C
          206   4146: .ARM.Collect$$libinit$$0000002E
          207   4178: .ARM.Collect$$libinit$$00000030
          208   4210: .ARM.Collect$$libinit$$00000032
          209   4242: .ARM.Collect$$libinit$$00000033
          210   4274: .ARM.Collect$$rtexit$$00000002
          211   4305: .ARM.Collect$$rtexit$$00000003
          212   4336: .ARM.Collect$$rtexit$$00000004
          213   4367: ../clib/armsys.c
          214   4384: ../fplib/fpinit.s
          215   4402: x$fpl$fpinit
          216   4415: ../clib/angel/sysapp.c
          217   4438: .ARM.Collect$$libshutdown$$00000000
          218   4474: ../clib/heapalloc.c
          219   4494: ../clib/signal.c
          220   4511: .ARM.Collect$$libshutdown$$00000002
          221   4547: .ARM.Collect$$libshutdown$$00000004
          222   4583: .ARM.Collect$$libshutdown$$00000007
          223   4619: .ARM.Collect$$libshutdown$$0000000A
          224   4655: .ARM.Collect$$libshutdown$$0000000C
          225   4691: .ARM.Collect$$libshutdown$$0000000F
          226   4727: .ARM.Collect$$libshutdown$$00000010
          227   4763: ../clib/angel/rt.s
          228   4782: ../clib/signal.s
          229   4799: ../clib/angel/scatter.s
          230   4823: !!!scatter
          231   4834: ../clib/angel/handlers.s
          232   4859: !!handler_copy
          233   4874: !!handler_zi
          234   4887: BuildAttributes$$THM_ISAv4$E$P$D$K$B$S$7EM$VFPi3$EXTD16$VFPS$VFMA$PE$A:L22UL41UL21$X:L11$S22US41US21$IEEE1$IW$USESV6$~STKCKD$USESV7$~SHL$OTIME$ROPI$EBA8$UX$STANDARDLIB$REQ8$PRES8$EABIv2
          235   5073: __ARM_use_no_argv
          236   5091: __Vectors
          237   5101: Reset_Handler
          238   5115: am_nmi_isr
          239   5126: am_memmanage_isr
          240   5143: am_adc_isr
          241   5154: am_brownout_isr
          242   5170: am_clkgen_isr
          243   5184: am_ctimer_isr
          244   5198: am_debugmon_isr
          245   5214: am_flash_isr
          246   5227: am_gpio_isr
          247   5239: am_iomaster0_isr
          248   5256: am_iomaster1_isr
          249   5273: am_iomaster2_isr
          250   5290: am_iomaster3_isr
          251   5307: am_iomaster4_isr
          252   5324: am_iomaster5_isr
          253   5341: am_ioslave_acc_isr
          254   5360: am_ioslave_ios_isr
          255   5379: am_pdm0_isr
          256   5391: am_pendsv_isr
          257   5405: am_software0_isr
          258   5422: am_software1_isr
          259   5439: am_software2_isr
          260   5456: am_software3_isr
          261   5473: am_stimer_cmpr0_isr
          262   5493: am_stimer_cmpr1_isr
          263   5513: am_stimer_cmpr2_isr
          264   5533: am_stimer_cmpr3_isr
          265   5553: am_stimer_cmpr4_isr
          266   5573: am_stimer_cmpr5_isr
          267   5593: am_stimer_cmpr6_isr
          268   5613: am_stimer_cmpr7_isr
          269   5633: am_stimer_isr
          270   5647: am_svcall_isr
          271   5661: am_uart0_isr
          272   5674: am_uart1_isr
          273   5687: am_uart_isr
          274   5699: am_vcomp_isr
          275   5712: am_watchdog_isr
          276   5728: __main
          277   5735: __scatterload
          278   5749: __scatterload_rt2
          279   5767: __scatterload_rt2_thumb_only
          280   5796: __scatterload_null
          281   5815: __scatterload_copy
          282   5834: __scatterload_zeroinit
          283   5857: __rt_lib_init
          284   5871: __rt_lib_init_fp_1
          285   5890: __rt_lib_init_alloca_1
          286   5913: __rt_lib_init_argv_1
          287   5934: __rt_lib_init_atexit_1
          288   5957: __rt_lib_init_clock_1
          289   5979: __rt_lib_init_cpp_1
          290   5999: __rt_lib_init_exceptions_1
          291   6026: __rt_lib_init_fp_trap_1
          292   6050: __rt_lib_init_getenv_1
          293   6073: __rt_lib_init_heap_1
          294   6094: __rt_lib_init_lc_collate_1
          295   6121: __rt_lib_init_lc_ctype_1
          296   6146: __rt_lib_init_lc_monetary_1
          297   6174: __rt_lib_init_lc_numeric_1
          298   6201: __rt_lib_init_lc_time_1
          299   6225: __rt_lib_init_preinit_1
          300   6249: __rt_lib_init_rand_1
          301   6270: __rt_lib_init_return
          302   6291: __rt_lib_init_signal_1
          303   6314: __rt_lib_init_stdio_1
          304   6336: __rt_lib_init_user_alloc_1
          305   6363: __rt_lib_shutdown
          306   6381: __rt_lib_shutdown_cpp_1
          307   6405: __rt_lib_shutdown_fp_trap_1
          308   6433: __rt_lib_shutdown_heap_1
          309   6458: __rt_lib_shutdown_return
          310   6483: __rt_lib_shutdown_signal_1
          311   6510: __rt_lib_shutdown_stdio_1
          312   6536: __rt_lib_shutdown_user_alloc_1
          313   6567: __rt_entry
          314   6578: __rt_entry_presh_1
          315   6597: __rt_entry_sh
          316   6611: __rt_entry_li
          317   6625: __rt_entry_postsh_1
          318   6645: __rt_entry_main
          319   6661: __rt_entry_postli_1
          320   6681: __rt_exit
          321   6691: __rt_exit_ls
          322   6704: __rt_exit_prels_1
          323   6722: __rt_exit_exit
          324   6737: am_fault_isr
          325   6750: getStackedReg
          326   6764: am_hal_interrupt_master_enable
          327   6795: am_hal_interrupt_master_disable
          328   6827: am_hal_interrupt_master_set
          329   6855: __user_initial_stackheap
          330   6880: __aeabi_memclr
          331   6895: __rt_memclr
          332   6907: _memset
          333   6915: __use_two_region_memory
          334   6939: __rt_heap_escrow$2region
          335   6964: __rt_heap_expand$2region
          336   6989: __aeabi_memclr4
          337   7005: __aeabi_memclr8
          338   7021: __rt_memclr_w
          339   7035: _memset_w
          340   7045: __user_setup_stackheap
          341   7068: exit
          342   7073: __user_libspace
          343   7089: __user_perproc_libspace
          344   7113: __user_perthread_libspace
          345   7139: _sys_exit
          346   7149: __I$use$semihosting
          347   7169: __use_no_semihosting_swi
          348   7194: __semihosting_library_function
          349   7225: am_bsp_low_power_init
          350   7247: am_bsp_uart_string_print
          351   7272: am_devices_led_array_init
          352   7298: am_devices_led_init
          353   7318: am_devices_led_on
          354   7336: am_hal_cachectrl_enable
          355   7360: am_hal_clkgen_osc_stop
          356   7383: am_hal_clkgen_sysclk_get
          357   7408: am_hal_clkgen_sysclk_select
          358   7436: am_hal_clkgen_uarten_set
          359   7461: am_hal_debug_error
          360   7480: am_hal_flash_delay
          361   7499: am_hal_mcuctrl_fault_status
          362   7527: am_hal_pwrctrl_bucks_enable
          363   7555: am_hal_pwrctrl_bucks_init
          364   7581: am_hal_pwrctrl_low_power_init
          365   7611: am_hal_pwrctrl_memory_enable
          366   7640: am_hal_pwrctrl_periph_disable
          367   7670: am_hal_pwrctrl_periph_enable
          368   7699: am_hal_rtc_osc_disable
          369   7722: am_hal_rtc_osc_select
          370   7744: am_hal_sysctrl_fpu_enable
          371   7770: am_hal_sysctrl_fpu_stacking_enable
          372   7805: am_hal_systick_count
          373   7826: am_hal_systick_int_enable
          374   7852: am_hal_systick_load
          375   7872: am_hal_systick_start
          376   7893: am_hal_systick_stop
          377   7913: am_hal_uart_clock_disable
          378   7939: am_hal_uart_clock_enable
          379   7964: am_hal_uart_config
          380   7983: am_hal_uart_disable
          381   8003: am_hal_uart_enable
          382   8022: am_hal_uart_fifo_config
          383   8046: am_hal_uart_pwrctrl_disable
          384   8074: am_hal_uart_pwrctrl_enable
          385   8101: am_hal_uart_string_transmit_polled
          386   8136: am_hal_vcomp_disable
          387   8157: am_sprintf
          388   8168: am_systick_isr
          389   8183: am_util_delay_ms
          390   8200: am_util_faultisr_collect_data
          391   8230: am_util_stdio_printf
          392   8251: am_util_stdio_printf_init
          393   8277: am_util_stdio_sprintf
          394   8299: am_util_stdio_terminal_clear
          395   8328: am_util_stdio_vsprintf
          396   8351: calc_func
          397   8361: check_data_types
          398   8378: cmp_complex
          399   8390: cmp_idx
          400   8398: core_bench_list
          401   8414: core_bench_matrix
          402   8432: core_bench_state
          403   8449: core_init_matrix
          404   8466: core_init_state
          405   8482: core_list_init
          406   8497: core_list_mergesort
          407   8517: core_state_transition
          408   8539: crc16
          409   8545: crcu16
          410   8552: crcu32
          411   8559: get_seed_32
          412   8571: get_time
          413   8580: main
          414   8585: matrix_sum
          415   8596: matrix_test
          416   8608: portable_fini
          417   8622: portable_init
          418   8636: start_time
          419   8647: stop_time
          420   8657: time_in_secs
          421   8670: uart_disable
          422   8683: uart_init
          423   8693: __aeabi_d2f
          424   8705: _d2f
          425   8710: __fpl_dcmp_Inf
          426   8725: __aeabi_ddiv
          427   8738: _ddiv
          428   8744: __aeabi_d2uiz
          429   8758: _dfixu
          430   8765: __aeabi_ui2d
          431   8778: _dfltu
          432   8785: __aeabi_cdcmple
          433   8801: _dcmple
          434   8809: __fpl_dcmple_InfNaN
          435   8829: __fpl_dnaninf
          436   8843: __fpl_dretinf
          437   8857: __aeabi_cdrcmple
          438   8874: _drcmple
          439   8883: __aeabi_f2d
          440   8895: _f2d
          441   8900: __fpl_fnaninf
          442   8914: _fp_init
          443   8923: __fplib_config_fpu_vfp
          444   8946: __fplib_config_pureend_doubles
          445   8977: __fpl_fretinf
          446   8991: __I$use$fp
          447   9002: am_hal_cachectrl_defaults
          448   9028: Region$$Table$$Base
          449   9048: Region$$Table$$Limit
          450   9069: g_ui32SysTickWrappedTime
          451   9094: seed1_volatile
          452   9109: seed2_volatile
          453   9124: seed3_volatile
          454   9139: seed4_volatile
          455   9154: seed5_volatile
          456   9169: am_bufcnt
          457   9179: am_pcBuf
          458   9188: g_sUartConfig
          459   9202: default_num_contexts
          460   9223: g_pfnCharPrint
          461   9238: g_ui32HALflags
          462   9253: am_bsp_psLEDs
          463   9267: am_prtbuf
          464   9277: __libspace_start
          465   9294: __temporary_stack_top$libspace
          466   9325: 
          467   9326: 
          468   9327: 


** Section #13 '.note' (SHT_NOTE)
    Size   : 28 bytes (alignment 4)


** Section #14 '.comment' (SHT_PROGBITS)
    Size   : 22308 bytes


** Section #15 '.shstrtab' (SHT_STRTAB)
    Size   : 148 bytes

            #  Offset String
        ====================================

            1      1: FLASH
            2      7: SRAM
            3     12: .debug_abbrev
            4     26: .debug_frame
            5     39: .debug_info
            6     51: .debug_line
            7     63: .debug_loc
            8     74: .debug_macinfo
            9     89: .debug_pubnames
           10    105: .symtab
           11    113: .strtab
           12    121: .note
           13    127: .comment
           14    136: .shstrtab
           15    146: 
           16    147: 


