
========================================================================

** ELF Header Information

    File Name: bin\rtc_print.axf

    Machine class: ELFCLASS32 (32-bit)
    Data encoding: ELFDATA2LSB (Little endian)
    Header version: EV_CURRENT (Current version)
    Operating System ABI: none
    ABI Version: 0
    File Type: ET_EXEC (Executable) (2)
    Machine: EM_ARM (ARM)

    Image Entry point: 0x00000099
    Flags: EF_ARM_HASENTRY + EF_ARM_ABI_FLOAT_HARD (0x05000402)

    ARM ELF revision: 5 (ABI version 2)

    Conforms to Hard float procedure-call standard

    Built with
    Component: ARM Compiler 5.06 update 6 (build 750) Tool: armasm [4d35ec]
    Component: ARM Compiler 5.06 update 6 (build 750) Tool: armlink [4d35ed]

    Header size: 52 bytes (0x34)
    Program header entry size: 32 bytes (0x20)
    Section header entry size: 40 bytes (0x28)

    Program header entries: 1
    Section header entries: 16

    Program header offset: 73356 (0x00011e8c)
    Section header offset: 73388 (0x00011eac)

    Section header string table index: 15

========================================================================

** Program header #0 (PT_LOAD) [PF_X + PF_W + PF_R + PF_ARM_ENTRY]
    Size : 11372 bytes (6880 bytes in file)
    Virtual address: 0x00000000 (Alignment 8)


========================================================================

** Section #1 'FLASH' (SHT_PROGBITS) [SHF_ALLOC + SHF_EXECINSTR]
    Size   : 6764 bytes (alignment 4)
    Address: 0x00000000

    $d
    RESET
    __Vectors
        0x00000000:    10001200    ....    DCD    268440064
        0x00000004:    00000071    q...    DCD    113
        0x00000008:    0000008d    ....    DCD    141
        0x0000000c:    00000139    9...    DCD    313
        0x00000010:    00000139    9...    DCD    313
        0x00000014:    00000139    9...    DCD    313
        0x00000018:    00000139    9...    DCD    313
        0x0000001c:    00000000    ....    DCD    0
        0x00000020:    00000000    ....    DCD    0
        0x00000024:    00000000    ....    DCD    0
        0x00000028:    00000000    ....    DCD    0
        0x0000002c:    00000093    ....    DCD    147
        0x00000030:    00000093    ....    DCD    147
        0x00000034:    00000000    ....    DCD    0
        0x00000038:    00000093    ....    DCD    147
        0x0000003c:    00000093    ....    DCD    147
        0x00000040:    00000093    ....    DCD    147
        0x00000044:    00000093    ....    DCD    147
        0x00000048:    00000093    ....    DCD    147
        0x0000004c:    00000093    ....    DCD    147
        0x00000050:    00000093    ....    DCD    147
        0x00000054:    00000093    ....    DCD    147
        0x00000058:    00000093    ....    DCD    147
        0x0000005c:    00000093    ....    DCD    147
        0x00000060:    00000093    ....    DCD    147
        0x00000064:    00000093    ....    DCD    147
        0x00000068:    00000311    ....    DCD    785
        0x0000006c:    00000093    ....    DCD    147
    $t
    $v0
    Reset_Handler
        0x00000070:    f64e5088    N..P    MOV      r0,#0xed88
        0x00000074:    f2ce0000    ....    MOVT     r0,#0xe000
        0x00000078:    6801        .h      LDR      r1,[r0,#0]
        0x0000007a:    f4410170    A.p.    ORR      r1,r1,#0xf00000
        0x0000007e:    6001        .`      STR      r1,[r0,#0]
        0x00000080:    f3bf8f4f    ..O.    DSB      
        0x00000084:    f3bf8f6f    ..o.    ISB      
        0x00000088:    4802        .H      LDR      r0,[pc,#8] ; [0x94] = 0x99
        0x0000008a:    4700        .G      BX       r0
    am_nmi_isr
        0x0000008c:    e7fe        ..      B        am_nmi_isr ; 0x8c
        0x0000008e:    e7fe        ..      B        0x8e ; am_nmi_isr + 2
    am_memmanage_isr
        0x00000090:    e7fe        ..      B        am_memmanage_isr ; 0x90
    am_adc_isr
    am_brownout_isr
    am_clkgen_isr
    am_debugmon_isr
    am_gpio_isr
    am_iomaster0_isr
    am_iomaster1_isr
    am_ioslave_acc_isr
    am_ioslave_ios_isr
    am_pendsv_isr
    am_svcall_isr
    am_systick_isr
    am_uart_isr
    am_vcomp_isr
    am_watchdog_isr
        0x00000092:    e7fe        ..      B        am_adc_isr ; 0x92
    $d
        0x00000094:    00000099    ....    DCD    153
    $t
    !!!main
    __main
        0x00000098:    f000f802    ....    BL       __scatterload ; 0xa0
        0x0000009c:    f000f83c    ..<.    BL       __rt_entry ; 0x118
    !!!scatter
    __scatterload
    __scatterload_rt2
    __scatterload_rt2_thumb_only
        0x000000a0:    a00a        ..      ADR      r0,{pc}+0x2c ; 0xcc
        0x000000a2:    e8900c00    ....    LDM      r0,{r10,r11}
        0x000000a6:    4482        .D      ADD      r10,r10,r0
        0x000000a8:    4483        .D      ADD      r11,r11,r0
        0x000000aa:    f1aa0701    ....    SUB      r7,r10,#1
    __scatterload_null
        0x000000ae:    45da        .E      CMP      r10,r11
        0x000000b0:    d101        ..      BNE      0xb6 ; __scatterload_null + 8
        0x000000b2:    f000f831    ..1.    BL       __rt_entry ; 0x118
        0x000000b6:    f2af0e09    ....    ADR      lr,{pc}-7 ; 0xaf
        0x000000ba:    e8ba000f    ....    LDM      r10!,{r0-r3}
        0x000000be:    f0130f01    ....    TST      r3,#1
        0x000000c2:    bf18        ..      IT       NE
        0x000000c4:    1afb        ..      SUBNE    r3,r7,r3
        0x000000c6:    f0430301    C...    ORR      r3,r3,#1
        0x000000ca:    4718        .G      BX       r3
    $d
        0x000000cc:    00001980    ....    DCD    6528
        0x000000d0:    000019a0    ....    DCD    6560
    $t
    !!handler_copy
    __scatterload_copy
        0x000000d4:    3a10        .:      SUBS     r2,r2,#0x10
        0x000000d6:    bf24        $.      ITT      CS
        0x000000d8:    c878        x.      LDMCS    r0!,{r3-r6}
        0x000000da:    c178        x.      STMCS    r1!,{r3-r6}
        0x000000dc:    d8fa        ..      BHI      __scatterload_copy ; 0xd4
        0x000000de:    0752        R.      LSLS     r2,r2,#29
        0x000000e0:    bf24        $.      ITT      CS
        0x000000e2:    c830        0.      LDMCS    r0!,{r4,r5}
        0x000000e4:    c130        0.      STMCS    r1!,{r4,r5}
        0x000000e6:    bf44        D.      ITT      MI
        0x000000e8:    6804        .h      LDRMI    r4,[r0,#0]
        0x000000ea:    600c        .`      STRMI    r4,[r1,#0]
        0x000000ec:    4770        pG      BX       lr
        0x000000ee:    0000        ..      MOVS     r0,r0
    !!handler_zi
    __scatterload_zeroinit
        0x000000f0:    2300        .#      MOVS     r3,#0
        0x000000f2:    2400        .$      MOVS     r4,#0
        0x000000f4:    2500        .%      MOVS     r5,#0
        0x000000f6:    2600        .&      MOVS     r6,#0
        0x000000f8:    3a10        .:      SUBS     r2,r2,#0x10
        0x000000fa:    bf28        (.      IT       CS
        0x000000fc:    c178        x.      STMCS    r1!,{r3-r6}
        0x000000fe:    d8fb        ..      BHI      0xf8 ; __scatterload_zeroinit + 8
        0x00000100:    0752        R.      LSLS     r2,r2,#29
        0x00000102:    bf28        (.      IT       CS
        0x00000104:    c130        0.      STMCS    r1!,{r4,r5}
        0x00000106:    bf48        H.      IT       MI
        0x00000108:    600b        .`      STRMI    r3,[r1,#0]
        0x0000010a:    4770        pG      BX       lr
    .ARM.Collect$$libinit$$00000000
    __rt_lib_init
        0x0000010c:    b51f        ..      PUSH     {r0-r4,lr}
    .ARM.Collect$$libinit$$00000001
    __rt_lib_init_fp_1
        0x0000010e:    f001fb7c    ..|.    BL       _fp_init ; 0x180a
    .ARM.Collect$$libinit$$00000004
    .ARM.Collect$$libinit$$0000000A
    .ARM.Collect$$libinit$$0000000C
    .ARM.Collect$$libinit$$0000000E
    .ARM.Collect$$libinit$$00000011
    .ARM.Collect$$libinit$$00000013
    .ARM.Collect$$libinit$$00000015
    .ARM.Collect$$libinit$$00000017
    .ARM.Collect$$libinit$$00000019
    .ARM.Collect$$libinit$$0000001B
    .ARM.Collect$$libinit$$0000001D
    .ARM.Collect$$libinit$$0000001F
    .ARM.Collect$$libinit$$00000021
    .ARM.Collect$$libinit$$00000023
    .ARM.Collect$$libinit$$00000025
    .ARM.Collect$$libinit$$0000002C
    .ARM.Collect$$libinit$$0000002E
    .ARM.Collect$$libinit$$00000030
    .ARM.Collect$$libinit$$00000032
    .ARM.Collect$$libinit$$00000033
    __rt_lib_init_alloca_1
    __rt_lib_init_argv_1
    __rt_lib_init_atexit_1
    __rt_lib_init_clock_1
    __rt_lib_init_cpp_1
    __rt_lib_init_exceptions_1
    __rt_lib_init_fp_trap_1
    __rt_lib_init_getenv_1
    __rt_lib_init_heap_1
    __rt_lib_init_lc_collate_1
    __rt_lib_init_lc_ctype_1
    __rt_lib_init_lc_monetary_1
    __rt_lib_init_lc_numeric_1
    __rt_lib_init_lc_time_1
    __rt_lib_init_preinit_1
    __rt_lib_init_rand_1
    __rt_lib_init_return
    __rt_lib_init_signal_1
    __rt_lib_init_stdio_1
    __rt_lib_init_user_alloc_1
        0x00000112:    bd1f        ..      POP      {r0-r4,pc}
    .ARM.Collect$$libshutdown$$00000000
    __rt_lib_shutdown
        0x00000114:    b510        ..      PUSH     {r4,lr}
    .ARM.Collect$$libshutdown$$00000002
    .ARM.Collect$$libshutdown$$00000004
    .ARM.Collect$$libshutdown$$00000007
    .ARM.Collect$$libshutdown$$0000000A
    .ARM.Collect$$libshutdown$$0000000C
    .ARM.Collect$$libshutdown$$0000000F
    .ARM.Collect$$libshutdown$$00000010
    __rt_lib_shutdown_cpp_1
    __rt_lib_shutdown_fp_trap_1
    __rt_lib_shutdown_heap_1
    __rt_lib_shutdown_return
    __rt_lib_shutdown_signal_1
    __rt_lib_shutdown_stdio_1
    __rt_lib_shutdown_user_alloc_1
        0x00000116:    bd10        ..      POP      {r4,pc}
    .ARM.Collect$$rtentry$$00000000
    .ARM.Collect$$rtentry$$00000002
    .ARM.Collect$$rtentry$$00000004
    __rt_entry
    __rt_entry_presh_1
    __rt_entry_sh
        0x00000118:    f000f866    ..f.    BL       __user_setup_stackheap ; 0x1e8
        0x0000011c:    4611        .F      MOV      r1,r2
    .ARM.Collect$$rtentry$$00000009
    .ARM.Collect$$rtentry$$0000000A
    __rt_entry_li
    __rt_entry_postsh_1
        0x0000011e:    f7fffff5    ....    BL       __rt_lib_init ; 0x10c
    .ARM.Collect$$rtentry$$0000000C
    .ARM.Collect$$rtentry$$0000000D
    __rt_entry_main
    __rt_entry_postli_1
        0x00000122:    f001f8bb    ....    BL       main ; 0x129c
        0x00000126:    f000f884    ....    BL       exit ; 0x232
    .ARM.Collect$$rtexit$$00000000
    __rt_exit
        0x0000012a:    b403        ..      PUSH     {r0,r1}
    .ARM.Collect$$rtexit$$00000002
    .ARM.Collect$$rtexit$$00000003
    __rt_exit_ls
    __rt_exit_prels_1
        0x0000012c:    f7fffff2    ....    BL       __rt_lib_shutdown ; 0x114
    .ARM.Collect$$rtexit$$00000004
    __rt_exit_exit
        0x00000130:    bc03        ..      POP      {r0,r1}
        0x00000132:    f000f88b    ....    BL       _sys_exit ; 0x24c
        0x00000136:    0000        ..      MOVS     r0,r0
    .emb_text
    $v0
    am_fault_isr
        0x00000138:    b501        ..      PUSH     {r0,lr}
        0x0000013a:    f01e0f04    ....    TST      lr,#4
        0x0000013e:    bf0a        ..      ITET     EQ
        0x00000140:    f3ef8008    ....    MRSEQ    r0,MSP
        0x00000144:    f3ef8009    ....    MRSNE    r0,PSP
        0x00000148:    f1100008    ....    ADDSEQ   r0,r0,#8
        0x0000014c:    f000fc44    ..D.    BL       am_util_faultisr_collect_data ; 0x9d8
        0x00000150:    bd01        ..      POP      {r0,pc}
    getStackedReg
        0x00000152:    0080        ..      LSLS     r0,r0,#2
        0x00000154:    1840        @.      ADDS     r0,r0,r1
        0x00000156:    6800        .h      LDR      r0,[r0,#0]
        0x00000158:    4770        pG      BX       lr
        0x0000015a:    0000        ..      MOVS     r0,r0
    .emb_text
    $v0
    am_hal_flash_delay
        0x0000015c:    3801        .8      SUBS     r0,#1
        0x0000015e:    d1fd        ..      BNE      am_hal_flash_delay ; 0x15c
        0x00000160:    4770        pG      BX       lr
        0x00000162:    0000        ..      MOVS     r0,r0
    .emb_text
    $v0
    am_hal_interrupt_master_enable
        0x00000164:    f3ef8010    ....    MRS      r0,PRIMASK
        0x00000168:    b662        b.      CPSIE    i
        0x0000016a:    4770        pG      BX       lr
    am_hal_interrupt_master_disable
        0x0000016c:    f3ef8010    ....    MRS      r0,PRIMASK
        0x00000170:    b672        r.      CPSID    i
        0x00000172:    4770        pG      BX       lr
    am_hal_interrupt_master_set
        0x00000174:    f3808810    ....    MSR      PRIMASK,r0
        0x00000178:    4770        pG      BX       lr
        0x0000017a:    0000        ..      MOVS     r0,r0
    .text
    $v0
    __user_initial_stackheap
        0x0000017c:    4802        .H      LDR      r0,[pc,#8] ; [0x188] = 0x10000200
        0x0000017e:    4903        .I      LDR      r1,[pc,#12] ; [0x18c] = 0x10001200
        0x00000180:    4a01        .J      LDR      r2,[pc,#4] ; [0x188] = 0x10000200
        0x00000182:    4b03        .K      LDR      r3,[pc,#12] ; [0x190] = 0x10000200
        0x00000184:    4770        pG      BX       lr
    $d
        0x00000186:    0000        ..      DCW    0
        0x00000188:    10000200    ....    DCD    268435968
        0x0000018c:    10001200    ....    DCD    268440064
        0x00000190:    10000200    ....    DCD    268435968
    $t
    .text
    __aeabi_memclr4
    __aeabi_memclr8
    __rt_memclr_w
        0x00000194:    f04f0200    O...    MOV      r2,#0
    _memset_w
        0x00000198:    b500        ..      PUSH     {lr}
        0x0000019a:    4613        .F      MOV      r3,r2
        0x0000019c:    4694        .F      MOV      r12,r2
        0x0000019e:    4696        .F      MOV      lr,r2
        0x000001a0:    3920         9      SUBS     r1,r1,#0x20
        0x000001a2:    bf22        ".      ITTT     CS
        0x000001a4:    e8a0500c    ...P    STMCS    r0!,{r2,r3,r12,lr}
        0x000001a8:    e8a0500c    ...P    STMCS    r0!,{r2,r3,r12,lr}
        0x000001ac:    f1b10120    .. .    SUBSCS   r1,r1,#0x20
        0x000001b0:    f4bfaff7    ....    BCS.W    0x1a2 ; _memset_w + 10
        0x000001b4:    0709        ..      LSLS     r1,r1,#28
        0x000001b6:    bf28        (.      IT       CS
        0x000001b8:    e8a0500c    ...P    STMCS    r0!,{r2,r3,r12,lr}
        0x000001bc:    bf48        H.      IT       MI
        0x000001be:    c00c        ..      STMMI    r0!,{r2,r3}
        0x000001c0:    f85deb04    ]...    POP      {lr}
        0x000001c4:    0089        ..      LSLS     r1,r1,#2
        0x000001c6:    bf28        (.      IT       CS
        0x000001c8:    f8402b04    @..+    STRCS    r2,[r0],#4
        0x000001cc:    bf08        ..      IT       EQ
        0x000001ce:    4770        pG      BXEQ     lr
        0x000001d0:    bf48        H.      IT       MI
        0x000001d2:    f8202b02     ..+    STRHMI   r2,[r0],#2
        0x000001d6:    f0114f80    ...O    TST      r1,#0x40000000
        0x000001da:    bf18        ..      IT       NE
        0x000001dc:    f8002b01    ...+    STRBNE   r2,[r0],#1
        0x000001e0:    4770        pG      BX       lr
    .text
    __use_two_region_memory
        0x000001e2:    4770        pG      BX       lr
    __rt_heap_escrow$2region
        0x000001e4:    4770        pG      BX       lr
    __rt_heap_expand$2region
        0x000001e6:    4770        pG      BX       lr
    .text
    __user_setup_stackheap
        0x000001e8:    4675        uF      MOV      r5,lr
        0x000001ea:    f000f82b    ..+.    BL       __user_libspace ; 0x244
        0x000001ee:    46ae        .F      MOV      lr,r5
        0x000001f0:    0005        ..      MOVS     r5,r0
        0x000001f2:    4669        iF      MOV      r1,sp
        0x000001f4:    4653        SF      MOV      r3,r10
        0x000001f6:    f0200007     ...    BIC      r0,r0,#7
        0x000001fa:    4685        .F      MOV      sp,r0
        0x000001fc:    b018        ..      ADD      sp,sp,#0x60
        0x000001fe:    b520         .      PUSH     {r5,lr}
        0x00000200:    f7ffffbc    ....    BL       __user_initial_stackheap ; 0x17c
        0x00000204:    e8bd4020    .. @    POP      {r5,lr}
        0x00000208:    f04f0600    O...    MOV      r6,#0
        0x0000020c:    f04f0700    O...    MOV      r7,#0
        0x00000210:    f04f0800    O...    MOV      r8,#0
        0x00000214:    f04f0b00    O...    MOV      r11,#0
        0x00000218:    f0210107    !...    BIC      r1,r1,#7
        0x0000021c:    46ac        .F      MOV      r12,r5
        0x0000021e:    e8ac09c0    ....    STM      r12!,{r6-r8,r11}
        0x00000222:    e8ac09c0    ....    STM      r12!,{r6-r8,r11}
        0x00000226:    e8ac09c0    ....    STM      r12!,{r6-r8,r11}
        0x0000022a:    e8ac09c0    ....    STM      r12!,{r6-r8,r11}
        0x0000022e:    468d        .F      MOV      sp,r1
        0x00000230:    4770        pG      BX       lr
    .text
    exit
        0x00000232:    b510        ..      PUSH     {r4,lr}
        0x00000234:    4604        .F      MOV      r4,r0
        0x00000236:    f3af8000    ....    NOP.W    
        0x0000023a:    4620         F      MOV      r0,r4
        0x0000023c:    e8bd4010    ...@    POP      {r4,lr}
        0x00000240:    f7ffbf73    ..s.    B.W      __rt_exit ; 0x12a
    .text
    __user_libspace
    __user_perproc_libspace
    __user_perthread_libspace
        0x00000244:    4800        .H      LDR      r0,[pc,#0] ; [0x248] = 0x100001a0
        0x00000246:    4770        pG      BX       lr
    $d
        0x00000248:    100001a0    ....    DCD    268435872
    $t
    .text
    _sys_exit
        0x0000024c:    4901        .I      LDR      r1,[pc,#4] ; [0x254] = 0x20026
        0x0000024e:    2018        .       MOVS     r0,#0x18
        0x00000250:    beab        ..      BKPT     #0xab
        0x00000252:    e7fe        ..      B        0x252 ; _sys_exit + 6
    $d
        0x00000254:    00020026    &...    DCD    131110
    $t
    .text
    __I$use$semihosting
    __use_no_semihosting_swi
        0x00000258:    4770        pG      BX       lr
    .text
    __semihosting_library_function
        0x0000025a:    0000        ..      MOVS     r0,r0
    i.am_bsp_debug_printf_disable
    am_bsp_debug_printf_disable
        0x0000025c:    480e        .H      LDR      r0,[pc,#56] ; [0x298] = 0x10000070
        0x0000025e:    6800        .h      LDR      r0,[r0,#0]
        0x00000260:    f0100f01    ....    TST      r0,#1
        0x00000264:    bf18        ..      IT       NE
        0x00000266:    4770        pG      BXNE     lr
        0x00000268:    b510        ..      PUSH     {r4,lr}
        0x0000026a:    f000f9a7    ....    BL       am_hal_itm_not_busy ; 0x5bc
        0x0000026e:    480b        .H      LDR      r0,[pc,#44] ; [0x29c] = 0x40010000
        0x00000270:    2173        s!      MOVS     r1,#0x73
        0x00000272:    6601        .f      STR      r1,[r0,#0x60]
        0x00000274:    6d41        Am      LDR      r1,[r0,#0x54]
        0x00000276:    f0210170    !.p.    BIC      r1,r1,#0x70
        0x0000027a:    f0410120    A. .    ORR      r1,r1,#0x20
        0x0000027e:    6541        Ae      STR      r1,[r0,#0x54]
        0x00000280:    6a81        .j      LDR      r1,[r0,#0x28]
        0x00000282:    f421417f    !..A    BIC      r1,r1,#0xff00
        0x00000286:    f44151c0    A..Q    ORR      r1,r1,#0x1800
        0x0000028a:    6281        .b      STR      r1,[r0,#0x28]
        0x0000028c:    2100        .!      MOVS     r1,#0
        0x0000028e:    6601        .f      STR      r1,[r0,#0x60]
        0x00000290:    e8bd4010    ...@    POP      {r4,lr}
        0x00000294:    f000bb46    ..F.    B.W      am_hal_tpiu_disable ; 0x924
    $d
        0x00000298:    10000070    p...    DCD    268435568
        0x0000029c:    40010000    ...@    DCD    1073807360
    $t
    i.am_bsp_debug_printf_enable
    am_bsp_debug_printf_enable
        0x000002a0:    480e        .H      LDR      r0,[pc,#56] ; [0x2dc] = 0x10000070
        0x000002a2:    6800        .h      LDR      r0,[r0,#0]
        0x000002a4:    f0100f01    ....    TST      r0,#1
        0x000002a8:    bf18        ..      IT       NE
        0x000002aa:    4770        pG      BXNE     lr
        0x000002ac:    b500        ..      PUSH     {lr}
        0x000002ae:    b085        ..      SUB      sp,sp,#0x14
        0x000002b0:    480b        .H      LDR      r0,[pc,#44] ; [0x2e0] = 0xf4240
        0x000002b2:    9000        ..      STR      r0,[sp,#0]
        0x000002b4:    4668        hF      MOV      r0,sp
        0x000002b6:    f000fb3d    ..=.    BL       am_hal_tpiu_enable ; 0x934
        0x000002ba:    480a        .H      LDR      r0,[pc,#40] ; [0x2e4] = 0x40010000
        0x000002bc:    2173        s!      MOVS     r1,#0x73
        0x000002be:    6601        .f      STR      r1,[r0,#0x60]
        0x000002c0:    6d41        Am      LDR      r1,[r0,#0x54]
        0x000002c2:    f0210170    !.p.    BIC      r1,r1,#0x70
        0x000002c6:    6541        Ae      STR      r1,[r0,#0x54]
        0x000002c8:    6a81        .j      LDR      r1,[r0,#0x28]
        0x000002ca:    f421417f    !..A    BIC      r1,r1,#0xff00
        0x000002ce:    f4415180    A..Q    ORR      r1,r1,#0x1000
        0x000002d2:    6281        .b      STR      r1,[r0,#0x28]
        0x000002d4:    2100        .!      MOVS     r1,#0
        0x000002d6:    6601        .f      STR      r1,[r0,#0x60]
        0x000002d8:    b005        ..      ADD      sp,sp,#0x14
        0x000002da:    bd00        ..      POP      {pc}
    $d
        0x000002dc:    10000070    p...    DCD    268435568
        0x000002e0:    000f4240    @B..    DCD    1000000
        0x000002e4:    40010000    ...@    DCD    1073807360
    $t
    i.am_bsp_itm_string_print
    am_bsp_itm_string_print
        0x000002e8:    f000b97e    ..~.    B.W      am_hal_itm_print ; 0x5e8
    i.am_bsp_low_power_init
    am_bsp_low_power_init
        0x000002ec:    b510        ..      PUSH     {r4,lr}
        0x000002ee:    f000f99b    ....    BL       am_hal_mcuctrl_bucks_enable ; 0x628
        0x000002f2:    f000fb6b    ..k.    BL       am_hal_vcomp_disable ; 0x9cc
        0x000002f6:    2001        .       MOVS     r0,#1
        0x000002f8:    f000f9d4    ....    BL       am_hal_rtc_osc_select ; 0x6a4
        0x000002fc:    2001        .       MOVS     r0,#1
        0x000002fe:    f000f81c    ....    BL       am_hal_clkgen_osc_stop ; 0x33a
        0x00000302:    f000f9c1    ....    BL       am_hal_rtc_osc_disable ; 0x688
        0x00000306:    e8bd4010    ...@    POP      {r4,lr}
        0x0000030a:    f000b985    ....    B.W      am_hal_mcuctrl_bandgap_disable ; 0x618
        0x0000030e:    0000        ..      MOVS     r0,r0
    i.am_ctimer_isr
    am_ctimer_isr
        0x00000310:    b510        ..      PUSH     {r4,lr}
        0x00000312:    2001        .       MOVS     r0,#1
        0x00000314:    f000f88e    ....    BL       am_hal_ctimer_int_clear ; 0x434
        0x00000318:    4801        .H      LDR      r0,[pc,#4] ; [0x320] = 0x10000074
        0x0000031a:    f000f9ce    ....    BL       am_hal_rtc_time_get ; 0x6ba
        0x0000031e:    bd10        ..      POP      {r4,pc}
    $d
        0x00000320:    10000074    t...    DCD    268435572
    $t
    i.am_hal_clkgen_osc_start
    am_hal_clkgen_osc_start
        0x00000324:    f0100f03    ....    TST      r0,#3
        0x00000328:    bf08        ..      IT       EQ
        0x0000032a:    4770        pG      BXEQ     lr
        0x0000032c:    f04f2140    O.@!    MOV      r1,#0x40004000
        0x00000330:    68ca        .h      LDR      r2,[r1,#0xc]
        0x00000332:    ea220000    "...    BIC      r0,r2,r0
        0x00000336:    60c8        .`      STR      r0,[r1,#0xc]
        0x00000338:    4770        pG      BX       lr
    i.am_hal_clkgen_osc_stop
    am_hal_clkgen_osc_stop
        0x0000033a:    f0100f03    ....    TST      r0,#3
        0x0000033e:    bf08        ..      IT       EQ
        0x00000340:    4770        pG      BXEQ     lr
        0x00000342:    f04f2140    O.@!    MOV      r1,#0x40004000
        0x00000346:    68ca        .h      LDR      r2,[r1,#0xc]
        0x00000348:    4310        .C      ORRS     r0,r0,r2
        0x0000034a:    60c8        .`      STR      r0,[r1,#0xc]
        0x0000034c:    4770        pG      BX       lr
        0x0000034e:    0000        ..      MOVS     r0,r0
    i.am_hal_clkgen_sysclk_get
    am_hal_clkgen_sysclk_get
        0x00000350:    f04f2040    O.@     MOV      r0,#0x40004000
        0x00000354:    6980        .i      LDR      r0,[r0,#0x18]
        0x00000356:    f0000007    ....    AND      r0,r0,#7
        0x0000035a:    2808        .(      CMP      r0,#8
        0x0000035c:    d215        ..      BCS      0x38a ; am_hal_clkgen_sysclk_get + 58
        0x0000035e:    e8dff000    ....    TBB      [pc,r0]
    $d
        0x00000362:    0604        ..      DCW    1540
        0x00000364:    0e0c0a08    ....    DCD    235670024
        0x00000368:    1210        ..      DCW    4624
    $t
        0x0000036a:    4809        .H      LDR      r0,[pc,#36] ; [0x390] = 0x16e3600
        0x0000036c:    4770        pG      BX       lr
        0x0000036e:    4809        .H      LDR      r0,[pc,#36] ; [0x394] = 0xb71b00
        0x00000370:    4770        pG      BX       lr
        0x00000372:    4809        .H      LDR      r0,[pc,#36] ; [0x398] = 0x7a1200
        0x00000374:    4770        pG      BX       lr
        0x00000376:    4809        .H      LDR      r0,[pc,#36] ; [0x39c] = 0x5b8d80
        0x00000378:    4770        pG      BX       lr
        0x0000037a:    4809        .H      LDR      r0,[pc,#36] ; [0x3a0] = 0x493e00
        0x0000037c:    4770        pG      BX       lr
        0x0000037e:    4809        .H      LDR      r0,[pc,#36] ; [0x3a4] = 0x3d0900
        0x00000380:    4770        pG      BX       lr
        0x00000382:    4809        .H      LDR      r0,[pc,#36] ; [0x3a8] = 0x3450db
        0x00000384:    4770        pG      BX       lr
        0x00000386:    4809        .H      LDR      r0,[pc,#36] ; [0x3ac] = 0x2dc6c0
        0x00000388:    4770        pG      BX       lr
        0x0000038a:    f04f30ff    O..0    MOV      r0,#0xffffffff
        0x0000038e:    4770        pG      BX       lr
    $d
        0x00000390:    016e3600    .6n.    DCD    24000000
        0x00000394:    00b71b00    ....    DCD    12000000
        0x00000398:    007a1200    ..z.    DCD    8000000
        0x0000039c:    005b8d80    ..[.    DCD    6000000
        0x000003a0:    00493e00    .>I.    DCD    4800000
        0x000003a4:    003d0900    ..=.    DCD    4000000
        0x000003a8:    003450db    .P4.    DCD    3428571
        0x000003ac:    002dc6c0    ..-.    DCD    3000000
    $t
    i.am_hal_clkgen_sysclk_select
    am_hal_clkgen_sysclk_select
        0x000003b0:    f04f2140    O.@!    MOV      r1,#0x40004000
        0x000003b4:    2247        G"      MOVS     r2,#0x47
        0x000003b6:    614a        Ja      STR      r2,[r1,#0x14]
        0x000003b8:    6188        .a      STR      r0,[r1,#0x18]
        0x000003ba:    2000        .       MOVS     r0,#0
        0x000003bc:    6148        Ha      STR      r0,[r1,#0x14]
        0x000003be:    4770        pG      BX       lr
    i.am_hal_ctimer_clear
    am_hal_ctimer_clear
        0x000003c0:    b538        8.      PUSH     {r3-r5,lr}
        0x000003c2:    460d        .F      MOV      r5,r1
        0x000003c4:    4907        .I      LDR      r1,[pc,#28] ; [0x3e4] = 0x4000800c
        0x000003c6:    eb011400    ....    ADD      r4,r1,r0,LSL #4
        0x000003ca:    f7fffecf    ....    BL       am_hal_interrupt_master_disable ; 0x16c
        0x000003ce:    9000        ..      STR      r0,[sp,#0]
        0x000003d0:    6820         h      LDR      r0,[r4,#0]
        0x000003d2:    f0052108    ...!    AND      r1,r5,#0x8000800
        0x000003d6:    4308        .C      ORRS     r0,r0,r1
        0x000003d8:    6020         `      STR      r0,[r4,#0]
        0x000003da:    9800        ..      LDR      r0,[sp,#0]
        0x000003dc:    e8bd4038    ..8@    POP      {r3-r5,lr}
        0x000003e0:    f7ffbec8    ....    B.W      am_hal_interrupt_master_set ; 0x174
    $d
        0x000003e4:    4000800c    ...@    DCD    1073774604
    $t
    i.am_hal_ctimer_config
    am_hal_ctimer_config
        0x000003e8:    b538        8.      PUSH     {r3-r5,lr}
        0x000003ea:    460d        .F      MOV      r5,r1
        0x000003ec:    4910        .I      LDR      r1,[pc,#64] ; [0x430] = 0x4000800c
        0x000003ee:    eb011400    ....    ADD      r4,r1,r0,LSL #4
        0x000003f2:    f7fffebb    ....    BL       am_hal_interrupt_master_disable ; 0x16c
        0x000003f6:    9000        ..      STR      r0,[sp,#0]
        0x000003f8:    6820         h      LDR      r0,[r4,#0]
        0x000003fa:    f0402008    @..     ORR      r0,r0,#0x8000800
        0x000003fe:    6020         `      STR      r0,[r4,#0]
        0x00000400:    9800        ..      LDR      r0,[sp,#0]
        0x00000402:    f7fffeb7    ....    BL       am_hal_interrupt_master_set ; 0x174
        0x00000406:    8929        ).      LDRH     r1,[r5,#8]
        0x00000408:    6868        hh      LDR      r0,[r5,#4]
        0x0000040a:    ea404001    @..@    ORR      r0,r0,r1,LSL #16
        0x0000040e:    6829        )h      LDR      r1,[r5,#0]
        0x00000410:    2900        .)      CMP      r1,#0
        0x00000412:    bf18        ..      IT       NE
        0x00000414:    f04f4100    O..A    MOVNE    r1,#0x80000000
        0x00000418:    ea410500    A...    ORR      r5,r1,r0
        0x0000041c:    f7fffea6    ....    BL       am_hal_interrupt_master_disable ; 0x16c
        0x00000420:    9000        ..      STR      r0,[sp,#0]
        0x00000422:    6025        %`      STR      r5,[r4,#0]
        0x00000424:    9800        ..      LDR      r0,[sp,#0]
        0x00000426:    e8bd4038    ..8@    POP      {r3-r5,lr}
        0x0000042a:    f7ffbea3    ....    B.W      am_hal_interrupt_master_set ; 0x174
    $d
        0x0000042e:    0000        ..      DCW    0
        0x00000430:    4000800c    ...@    DCD    1073774604
    $t
    i.am_hal_ctimer_int_clear
    am_hal_ctimer_int_clear
        0x00000434:    4901        .I      LDR      r1,[pc,#4] ; [0x43c] = 0x40008000
        0x00000436:    f8c10208    ....    STR      r0,[r1,#0x208]
        0x0000043a:    4770        pG      BX       lr
    $d
        0x0000043c:    40008000    ...@    DCD    1073774592
    $t
    i.am_hal_ctimer_int_enable
    am_hal_ctimer_int_enable
        0x00000440:    b538        8.      PUSH     {r3-r5,lr}
        0x00000442:    4604        .F      MOV      r4,r0
        0x00000444:    f7fffe92    ....    BL       am_hal_interrupt_master_disable ; 0x16c
        0x00000448:    9000        ..      STR      r0,[sp,#0]
        0x0000044a:    4805        .H      LDR      r0,[pc,#20] ; [0x460] = 0x40008000
        0x0000044c:    f8d01200    ....    LDR      r1,[r0,#0x200]
        0x00000450:    4321        !C      ORRS     r1,r1,r4
        0x00000452:    f8c01200    ....    STR      r1,[r0,#0x200]
        0x00000456:    9800        ..      LDR      r0,[sp,#0]
        0x00000458:    e8bd4038    ..8@    POP      {r3-r5,lr}
        0x0000045c:    f7ffbe8a    ....    B.W      am_hal_interrupt_master_set ; 0x174
    $d
        0x00000460:    40008000    ...@    DCD    1073774592
    $t
    i.am_hal_ctimer_period_set
    am_hal_ctimer_period_set
        0x00000464:    e92d43f8    -..C    PUSH     {r3-r9,lr}
        0x00000468:    4607        .F      MOV      r7,r0
        0x0000046a:    481c        .H      LDR      r0,[pc,#112] ; [0x4dc] = 0x4000800c
        0x0000046c:    461d        .F      MOV      r5,r3
        0x0000046e:    4614        .F      MOV      r4,r2
        0x00000470:    460e        .F      MOV      r6,r1
        0x00000472:    eb001807    ....    ADD      r8,r0,r7,LSL #4
        0x00000476:    f7fffe79    ..y.    BL       am_hal_interrupt_master_disable ; 0x16c
        0x0000047a:    9000        ..      STR      r0,[sp,#0]
        0x0000047c:    f8d80000    ....    LDR      r0,[r8,#0]
        0x00000480:    f5163f80    ...?    CMN      r6,#0x10000
        0x00000484:    bf08        ..      IT       EQ
        0x00000486:    0c00        ..      LSREQ    r0,r0,#16
        0x00000488:    f40070e0    ...p    AND      r0,r0,#0x1c0
        0x0000048c:    2880        .(      CMP      r0,#0x80
        0x0000048e:    bf17        ..      ITETT    NE
        0x00000490:    28c0        .(      CMPNE    r0,#0xc0
        0x00000492:    1b65        e.      SUBEQ    r5,r4,r5
        0x00000494:    4625        %F      MOVNE    r5,r4
        0x00000496:    2400        .$      MOVNE    r4,#0
        0x00000498:    4811        .H      LDR      r0,[pc,#68] ; [0x4e0] = 0x40008004
        0x0000049a:    4912        .I      LDR      r1,[pc,#72] ; [0x4e4] = 0x40008008
        0x0000049c:    f5a6427f    ...B    SUB      r2,r6,#0xff00
        0x000004a0:    eb001007    ....    ADD      r0,r0,r7,LSL #4
        0x000004a4:    eb011107    ....    ADD      r1,r1,r7,LSL #4
        0x000004a8:    3aff        .:      SUBS     r2,r2,#0xff
        0x000004aa:    bf04        ..      ITT      EQ
        0x000004ac:    eac54104    ...A    PKHBTEQ  r1,r5,r4,LSL #16
        0x000004b0:    6001        .`      STREQ    r1,[r0,#0]
        0x000004b2:    d00e        ..      BEQ      0x4d2 ; am_hal_ctimer_period_set + 110
        0x000004b4:    f5163f80    ...?    CMN      r6,#0x10000
        0x000004b8:    bf08        ..      IT       EQ
        0x000004ba:    eac54004    ...@    PKHBTEQ  r0,r5,r4,LSL #16
        0x000004be:    d007        ..      BEQ      0x4d0 ; am_hal_ctimer_period_set + 108
        0x000004c0:    eac54204    ...B    PKHBT    r2,r5,r4,LSL #16
        0x000004c4:    6002        .`      STR      r2,[r0,#0]
        0x000004c6:    0c28        (.      LSRS     r0,r5,#16
        0x000004c8:    f36f040f    o...    BFC      r4,#0,#16
        0x000004cc:    eac00004    ....    PKHBT    r0,r0,r4
        0x000004d0:    6008        .`      STR      r0,[r1,#0]
        0x000004d2:    9800        ..      LDR      r0,[sp,#0]
        0x000004d4:    e8bd43f8    ...C    POP      {r3-r9,lr}
        0x000004d8:    f7ffbe4c    ..L.    B.W      am_hal_interrupt_master_set ; 0x174
    $d
        0x000004dc:    4000800c    ...@    DCD    1073774604
        0x000004e0:    40008004    ...@    DCD    1073774596
        0x000004e4:    40008008    ...@    DCD    1073774600
    $t
    i.am_hal_ctimer_start
    am_hal_ctimer_start
        0x000004e8:    b538        8.      PUSH     {r3-r5,lr}
        0x000004ea:    460c        .F      MOV      r4,r1
        0x000004ec:    4909        .I      LDR      r1,[pc,#36] ; [0x514] = 0x4000800c
        0x000004ee:    eb011500    ....    ADD      r5,r1,r0,LSL #4
        0x000004f2:    f7fffe3b    ..;.    BL       am_hal_interrupt_master_disable ; 0x16c
        0x000004f6:    9000        ..      STR      r0,[sp,#0]
        0x000004f8:    6828        (h      LDR      r0,[r5,#0]
        0x000004fa:    f0042108    ...!    AND      r1,r4,#0x8000800
        0x000004fe:    4388        .C      BICS     r0,r0,r1
        0x00000500:    f0041101    ....    AND      r1,r4,#0x10001
        0x00000504:    4308        .C      ORRS     r0,r0,r1
        0x00000506:    6028        (`      STR      r0,[r5,#0]
        0x00000508:    9800        ..      LDR      r0,[sp,#0]
        0x0000050a:    e8bd4038    ..8@    POP      {r3-r5,lr}
        0x0000050e:    f7ffbe31    ..1.    B.W      am_hal_interrupt_master_set ; 0x174
    $d
        0x00000512:    0000        ..      DCW    0
        0x00000514:    4000800c    ...@    DCD    1073774604
    $t
    i.am_hal_interrupt_enable
    am_hal_interrupt_enable
        0x00000518:    280f        .(      CMP      r0,#0xf
        0x0000051a:    d90a        ..      BLS      0x532 ; am_hal_interrupt_enable + 26
        0x0000051c:    3810        .8      SUBS     r0,r0,#0x10
        0x0000051e:    f000001f    ....    AND      r0,r0,#0x1f
        0x00000522:    2101        .!      MOVS     r1,#1
        0x00000524:    fa01f000    ....    LSL      r0,r1,r0
        0x00000528:    f04f21e0    O..!    MOV      r1,#0xe000e000
        0x0000052c:    f8c10100    ....    STR      r0,[r1,#0x100]
        0x00000530:    4770        pG      BX       lr
        0x00000532:    490b        .I      LDR      r1,[pc,#44] ; [0x560] = 0xe000ed24
        0x00000534:    2804        .(      CMP      r0,#4
        0x00000536:    d00d        ..      BEQ      0x554 ; am_hal_interrupt_enable + 60
        0x00000538:    2805        .(      CMP      r0,#5
        0x0000053a:    bf04        ..      ITT      EQ
        0x0000053c:    6808        .h      LDREQ    r0,[r1,#0]
        0x0000053e:    f4403000    @..0    ORREQ    r0,r0,#0x20000
        0x00000542:    d005        ..      BEQ      0x550 ; am_hal_interrupt_enable + 56
        0x00000544:    2806        .(      CMP      r0,#6
        0x00000546:    bf06        ..      ITTE     EQ
        0x00000548:    6808        .h      LDREQ    r0,[r1,#0]
        0x0000054a:    f4402080    @..     ORREQ    r0,r0,#0x40000
        0x0000054e:    4770        pG      BXNE     lr
        0x00000550:    6008        .`      STR      r0,[r1,#0]
        0x00000552:    4770        pG      BX       lr
        0x00000554:    6808        .h      LDR      r0,[r1,#0]
        0x00000556:    f4403080    @..0    ORR      r0,r0,#0x10000
        0x0000055a:    6008        .`      STR      r0,[r1,#0]
        0x0000055c:    4770        pG      BX       lr
    $d
        0x0000055e:    0000        ..      DCW    0
        0x00000560:    e000ed24    $...    DCD    3758157092
    $t
    i.am_hal_itm_enable
    am_hal_itm_enable
        0x00000564:    480d        .H      LDR      r0,[pc,#52] ; [0x59c] = 0x10000070
        0x00000566:    6800        .h      LDR      r0,[r0,#0]
        0x00000568:    f0100f01    ....    TST      r0,#1
        0x0000056c:    bf18        ..      IT       NE
        0x0000056e:    4770        pG      BXNE     lr
        0x00000570:    480b        .H      LDR      r0,[pc,#44] ; [0x5a0] = 0xe000edfc
        0x00000572:    6801        .h      LDR      r1,[r0,#0]
        0x00000574:    f0417180    A..q    ORR      r1,r1,#0x1000000
        0x00000578:    6001        .`      STR      r1,[r0,#0]
        0x0000057a:    6801        .h      LDR      r1,[r0,#0]
        0x0000057c:    f0117f80    ....    TST      r1,#0x1000000
        0x00000580:    d0fb        ..      BEQ      0x57a ; am_hal_itm_enable + 22
        0x00000582:    4909        .I      LDR      r1,[pc,#36] ; [0x5a8] = 0xe0000fb0
        0x00000584:    4807        .H      LDR      r0,[pc,#28] ; [0x5a4] = 0xc5acce55
        0x00000586:    6008        .`      STR      r0,[r1,#0]
        0x00000588:    4908        .I      LDR      r1,[pc,#32] ; [0x5ac] = 0xe0000e40
        0x0000058a:    200f        .       MOVS     r0,#0xf
        0x0000058c:    6008        .`      STR      r0,[r1,#0]
        0x0000058e:    1748        H.      ASRS     r0,r1,#29
        0x00000590:    4907        .I      LDR      r1,[pc,#28] ; [0x5b0] = 0xe0000e00
        0x00000592:    6008        .`      STR      r0,[r1,#0]
        0x00000594:    4908        .I      LDR      r1,[pc,#32] ; [0x5b8] = 0xe0000e80
        0x00000596:    4807        .H      LDR      r0,[pc,#28] ; [0x5b4] = 0x150511
        0x00000598:    6008        .`      STR      r0,[r1,#0]
        0x0000059a:    4770        pG      BX       lr
    $d
        0x0000059c:    10000070    p...    DCD    268435568
        0x000005a0:    e000edfc    ....    DCD    3758157308
        0x000005a4:    c5acce55    U...    DCD    3316436565
        0x000005a8:    e0000fb0    ....    DCD    3758100400
        0x000005ac:    e0000e40    @...    DCD    3758100032
        0x000005b0:    e0000e00    ....    DCD    3758099968
        0x000005b4:    00150511    ....    DCD    1377553
        0x000005b8:    e0000e80    ....    DCD    3758100096
    $t
    i.am_hal_itm_not_busy
    am_hal_itm_not_busy
        0x000005bc:    b510        ..      PUSH     {r4,lr}
        0x000005be:    4808        .H      LDR      r0,[pc,#32] ; [0x5e0] = 0xe0000e80
        0x000005c0:    6801        .h      LDR      r1,[r0,#0]
        0x000005c2:    f4110f00    ....    TST      r1,#0x800000
        0x000005c6:    d1fb        ..      BNE      0x5c0 ; am_hal_itm_not_busy + 4
        0x000005c8:    f7fffec2    ....    BL       am_hal_clkgen_sysclk_get ; 0x350
        0x000005cc:    4905        .I      LDR      r1,[pc,#20] ; [0x5e4] = 0x2dc6c0
        0x000005ce:    e8bd4010    ...@    POP      {r4,lr}
        0x000005d2:    fbb0f0f1    ....    UDIV     r0,r0,r1
        0x000005d6:    2132        2!      MOVS     r1,#0x32
        0x000005d8:    4348        HC      MULS     r0,r1,r0
        0x000005da:    f7ffbdbf    ....    B.W      am_hal_flash_delay ; 0x15c
    $d
        0x000005de:    0000        ..      DCW    0
        0x000005e0:    e0000e80    ....    DCD    3758100096
        0x000005e4:    002dc6c0    ..-.    DCD    3000000
    $t
    i.am_hal_itm_print
    am_hal_itm_print
        0x000005e8:    7802        .x      LDRB     r2,[r0,#0]
        0x000005ea:    2100        .!      MOVS     r1,#0
        0x000005ec:    2a00        .*      CMP      r2,#0
        0x000005ee:    bf08        ..      IT       EQ
        0x000005f0:    4770        pG      BXEQ     lr
        0x000005f2:    1c49        I.      ADDS     r1,r1,#1
        0x000005f4:    5c42        B\      LDRB     r2,[r0,r1]
        0x000005f6:    2a00        .*      CMP      r2,#0
        0x000005f8:    d1fb        ..      BNE      0x5f2 ; am_hal_itm_print + 10
        0x000005fa:    2900        .)      CMP      r1,#0
        0x000005fc:    bf08        ..      IT       EQ
        0x000005fe:    4770        pG      BXEQ     lr
        0x00000600:    f810cb01    ....    LDRB     r12,[r0],#1
        0x00000604:    f04f4260    O.`B    MOV      r2,#0xe0000000
        0x00000608:    6813        .h      LDR      r3,[r2,#0]
        0x0000060a:    2b00        .+      CMP      r3,#0
        0x0000060c:    d0fc        ..      BEQ      0x608 ; am_hal_itm_print + 32
        0x0000060e:    f882c000    ....    STRB     r12,[r2,#0]
        0x00000612:    1e49        I.      SUBS     r1,r1,#1
        0x00000614:    d1f4        ..      BNE      0x600 ; am_hal_itm_print + 24
        0x00000616:    4770        pG      BX       lr
    i.am_hal_mcuctrl_bandgap_disable
    am_hal_mcuctrl_bandgap_disable
        0x00000618:    4902        .I      LDR      r1,[pc,#8] ; [0x624] = 0x40020000
        0x0000061a:    f06f0001    o...    MVN      r0,#1
        0x0000061e:    f8c100fc    ....    STR      r0,[r1,#0xfc]
        0x00000622:    4770        pG      BX       lr
    $d
        0x00000624:    40020000    ...@    DCD    1073872896
    $t
    i.am_hal_mcuctrl_bucks_enable
    am_hal_mcuctrl_bucks_enable
        0x00000628:    4808        .H      LDR      r0,[pc,#32] ; [0x64c] = 0x40020000
        0x0000062a:    6901        .i      LDR      r1,[r0,#0x10]
        0x0000062c:    f0410102    A...    ORR      r1,r1,#2
        0x00000630:    6101        .a      STR      r1,[r0,#0x10]
        0x00000632:    6901        .i      LDR      r1,[r0,#0x10]
        0x00000634:    f0410101    A...    ORR      r1,r1,#1
        0x00000638:    6101        .a      STR      r1,[r0,#0x10]
        0x0000063a:    6941        Ai      LDR      r1,[r0,#0x14]
        0x0000063c:    f0110f02    ....    TST      r1,#2
        0x00000640:    d0fb        ..      BEQ      0x63a ; am_hal_mcuctrl_bucks_enable + 18
        0x00000642:    6941        Ai      LDR      r1,[r0,#0x14]
        0x00000644:    f0110f01    ....    TST      r1,#1
        0x00000648:    d0fb        ..      BEQ      0x642 ; am_hal_mcuctrl_bucks_enable + 26
        0x0000064a:    4770        pG      BX       lr
    $d
        0x0000064c:    40020000    ...@    DCD    1073872896
    $t
    i.am_hal_mcuctrl_fault_status
    am_hal_mcuctrl_fault_status
        0x00000650:    490c        .I      LDR      r1,[pc,#48] ; [0x684] = 0x40020000
        0x00000652:    f8d121cc    ...!    LDR      r2,[r1,#0x1cc]
        0x00000656:    f0020301    ....    AND      r3,r2,#1
        0x0000065a:    7003        .p      STRB     r3,[r0,#0]
        0x0000065c:    f3c20340    ..@.    UBFX     r3,r2,#1,#1
        0x00000660:    7203        .r      STRB     r3,[r0,#8]
        0x00000662:    f3c20280    ....    UBFX     r2,r2,#2,#1
        0x00000666:    7402        .t      STRB     r2,[r0,#0x10]
        0x00000668:    f8d121c4    ...!    LDR      r2,[r1,#0x1c4]
        0x0000066c:    60c2        .`      STR      r2,[r0,#0xc]
        0x0000066e:    6842        Bh      LDR      r2,[r0,#4]
        0x00000670:    f8d131c0    ...1    LDR      r3,[r1,#0x1c0]
        0x00000674:    431a        .C      ORRS     r2,r2,r3
        0x00000676:    6042        B`      STR      r2,[r0,#4]
        0x00000678:    6942        Bi      LDR      r2,[r0,#0x14]
        0x0000067a:    f8d111c8    ....    LDR      r1,[r1,#0x1c8]
        0x0000067e:    4311        .C      ORRS     r1,r1,r2
        0x00000680:    6141        Aa      STR      r1,[r0,#0x14]
        0x00000682:    4770        pG      BX       lr
    $d
        0x00000684:    40020000    ...@    DCD    1073872896
    $t
    i.am_hal_rtc_osc_disable
    am_hal_rtc_osc_disable
        0x00000688:    f04f2040    O.@     MOV      r0,#0x40004000
        0x0000068c:    6d01        .m      LDR      r1,[r0,#0x50]
        0x0000068e:    f0410110    A...    ORR      r1,r1,#0x10
        0x00000692:    6501        .e      STR      r1,[r0,#0x50]
        0x00000694:    4770        pG      BX       lr
    i.am_hal_rtc_osc_enable
    am_hal_rtc_osc_enable
        0x00000696:    f04f2040    O.@     MOV      r0,#0x40004000
        0x0000069a:    6d01        .m      LDR      r1,[r0,#0x50]
        0x0000069c:    f0210110    !...    BIC      r1,r1,#0x10
        0x000006a0:    6501        .e      STR      r1,[r0,#0x50]
        0x000006a2:    4770        pG      BX       lr
    i.am_hal_rtc_osc_select
    am_hal_rtc_osc_select
        0x000006a4:    f04f2140    O.@!    MOV      r1,#0x40004000
        0x000006a8:    2800        .(      CMP      r0,#0
        0x000006aa:    68c8        .h      LDR      r0,[r1,#0xc]
        0x000006ac:    bf14        ..      ITE      NE
        0x000006ae:    f0400080    @...    ORRNE    r0,r0,#0x80
        0x000006b2:    f0200080     ...    BICEQ    r0,r0,#0x80
        0x000006b6:    60c8        .`      STR      r0,[r1,#0xc]
        0x000006b8:    4770        pG      BX       lr
    i.am_hal_rtc_time_get
    am_hal_rtc_time_get
        0x000006ba:    f04f2140    O.@!    MOV      r1,#0x40004000
        0x000006be:    6c0b        .l      LDR      r3,[r1,#0x40]
        0x000006c0:    6c49        Il      LDR      r1,[r1,#0x44]
        0x000006c2:    f3c36205    ...b    UBFX     r2,r3,#24,#6
        0x000006c6:    f0020c0f    ....    AND      r12,r2,#0xf
        0x000006ca:    0912        ..      LSRS     r2,r2,#4
        0x000006cc:    eb020282    ....    ADD      r2,r2,r2,LSL #2
        0x000006d0:    eb0c0242    ..B.    ADD      r2,r12,r2,LSL #1
        0x000006d4:    61c2        .a      STR      r2,[r0,#0x1c]
        0x000006d6:    f3c34206    ...B    UBFX     r2,r3,#16,#7
        0x000006da:    f0020c0f    ....    AND      r12,r2,#0xf
        0x000006de:    0912        ..      LSRS     r2,r2,#4
        0x000006e0:    eb020282    ....    ADD      r2,r2,r2,LSL #2
        0x000006e4:    eb0c0242    ..B.    ADD      r2,r12,r2,LSL #1
        0x000006e8:    6202        .b      STR      r2,[r0,#0x20]
        0x000006ea:    f3c32206    ..."    UBFX     r2,r3,#8,#7
        0x000006ee:    f0020c0f    ....    AND      r12,r2,#0xf
        0x000006f2:    0912        ..      LSRS     r2,r2,#4
        0x000006f4:    eb020282    ....    ADD      r2,r2,r2,LSL #2
        0x000006f8:    eb0c0242    ..B.    ADD      r2,r12,r2,LSL #1
        0x000006fc:    6242        Bb      STR      r2,[r0,#0x24]
        0x000006fe:    b2da        ..      UXTB     r2,r3
        0x00000700:    f002030f    ....    AND      r3,r2,#0xf
        0x00000704:    0912        ..      LSRS     r2,r2,#4
        0x00000706:    eb020282    ....    ADD      r2,r2,r2,LSL #2
        0x0000070a:    eb030242    ..B.    ADD      r2,r3,r2,LSL #1
        0x0000070e:    b2d2        ..      UXTB     r2,r2
        0x00000710:    6282        .b      STR      r2,[r0,#0x28]
        0x00000712:    0fcb        ..      LSRS     r3,r1,#31
        0x00000714:    f3c17200    ...r    UBFX     r2,r1,#28,#1
        0x00000718:    e9c03200    ...2    STRD     r3,r2,[r0,#0]
        0x0000071c:    f3c162c0    ...b    UBFX     r2,r1,#27,#1
        0x00000720:    60c2        .`      STR      r2,[r0,#0xc]
        0x00000722:    f3c16202    ...b    UBFX     r2,r1,#24,#3
        0x00000726:    ea4f1c12    O...    LSR      r12,r2,#4
        0x0000072a:    eb0c0c8c    ....    ADD      r12,r12,r12,LSL #2
        0x0000072e:    eb02024c    ..L.    ADD      r2,r2,r12,LSL #1
        0x00000732:    6082        .`      STR      r2,[r0,#8]
        0x00000734:    f3c14207    ...B    UBFX     r2,r1,#16,#8
        0x00000738:    f0020c0f    ....    AND      r12,r2,#0xf
        0x0000073c:    ea4f1212    O...    LSR      r2,r2,#4
        0x00000740:    eb020282    ....    ADD      r2,r2,r2,LSL #2
        0x00000744:    eb0c0242    ..B.    ADD      r2,r12,r2,LSL #1
        0x00000748:    b2d2        ..      UXTB     r2,r2
        0x0000074a:    6102        .a      STR      r2,[r0,#0x10]
        0x0000074c:    f3c12204    ..."    UBFX     r2,r1,#8,#5
        0x00000750:    f0020c0f    ....    AND      r12,r2,#0xf
        0x00000754:    ea4f1212    O...    LSR      r2,r2,#4
        0x00000758:    eb020282    ....    ADD      r2,r2,r2,LSL #2
        0x0000075c:    eb0c0242    ..B.    ADD      r2,r12,r2,LSL #1
        0x00000760:    f001013f    ..?.    AND      r1,r1,#0x3f
        0x00000764:    6142        Ba      STR      r2,[r0,#0x14]
        0x00000766:    f001020f    ....    AND      r2,r1,#0xf
        0x0000076a:    ea4f1111    O...    LSR      r1,r1,#4
        0x0000076e:    eb010181    ....    ADD      r1,r1,r1,LSL #2
        0x00000772:    eb020141    ..A.    ADD      r1,r2,r1,LSL #1
        0x00000776:    6181        .a      STR      r1,[r0,#0x18]
        0x00000778:    bf14        ..      ITE      NE
        0x0000077a:    2001        .       MOVNE    r0,#1
        0x0000077c:    2000        .       MOVEQ    r0,#0
        0x0000077e:    4770        pG      BX       lr
    i.am_hal_rtc_time_set
    am_hal_rtc_time_set
        0x00000780:    b430        0.      PUSH     {r4,r5}
        0x00000782:    f04f2240    O.@"    MOV      r2,#0x40004000
        0x00000786:    6d11        .m      LDR      r1,[r2,#0x50]
        0x00000788:    f0410101    A...    ORR      r1,r1,#1
        0x0000078c:    6511        .e      STR      r1,[r2,#0x50]
        0x0000078e:    7f03        ..      LDRB     r3,[r0,#0x1c]
        0x00000790:    4956        VI      LDR      r1,[pc,#344] ; [0x8ec] = 0xcccccccd
        0x00000792:    fba14c03    ...L    UMULL    r4,r12,r1,r3
        0x00000796:    ea4f0cdc    O...    LSR      r12,r12,#3
        0x0000079a:    f1cc0c00    ....    RSB      r12,r12,#0
        0x0000079e:    eb0c0c8c    ....    ADD      r12,r12,r12,LSL #2
        0x000007a2:    eb030c4c    ..L.    ADD      r12,r3,r12,LSL #1
        0x000007a6:    24cd        .$      MOVS     r4,#0xcd
        0x000007a8:    fb13f304    ....    SMULBB   r3,r3,r4
        0x000007ac:    0adb        ..      LSRS     r3,r3,#11
        0x000007ae:    ea4c1303    L...    ORR      r3,r12,r3,LSL #4
        0x000007b2:    f04f5c7c    O.|\    MOV      r12,#0x3f000000
        0x000007b6:    ea0c6403    ...d    AND      r4,r12,r3,LSL #24
        0x000007ba:    f8903020    .. 0    LDRB     r3,[r0,#0x20]
        0x000007be:    fba15c03    ...\    UMULL    r5,r12,r1,r3
        0x000007c2:    ea4f0cdc    O...    LSR      r12,r12,#3
        0x000007c6:    f1cc0c00    ....    RSB      r12,r12,#0
        0x000007ca:    eb0c0c8c    ....    ADD      r12,r12,r12,LSL #2
        0x000007ce:    eb030c4c    ..L.    ADD      r12,r3,r12,LSL #1
        0x000007d2:    25cd        .%      MOVS     r5,#0xcd
        0x000007d4:    fb13f305    ....    SMULBB   r3,r3,r5
        0x000007d8:    0adb        ..      LSRS     r3,r3,#11
        0x000007da:    ea4c1303    L...    ORR      r3,r12,r3,LSL #4
        0x000007de:    b2db        ..      UXTB     r3,r3
        0x000007e0:    f44f0cfe    O...    MOV      r12,#0x7f0000
        0x000007e4:    ea0c4303    ...C    AND      r3,r12,r3,LSL #16
        0x000007e8:    431c        .C      ORRS     r4,r4,r3
        0x000007ea:    f8903024    ..$0    LDRB     r3,[r0,#0x24]
        0x000007ee:    fba15c03    ...\    UMULL    r5,r12,r1,r3
        0x000007f2:    ea4f0cdc    O...    LSR      r12,r12,#3
        0x000007f6:    f1cc0c00    ....    RSB      r12,r12,#0
        0x000007fa:    eb0c0c8c    ....    ADD      r12,r12,r12,LSL #2
        0x000007fe:    eb030c4c    ..L.    ADD      r12,r3,r12,LSL #1
        0x00000802:    25cd        .%      MOVS     r5,#0xcd
        0x00000804:    fb13f305    ....    SMULBB   r3,r3,r5
        0x00000808:    0adb        ..      LSRS     r3,r3,#11
        0x0000080a:    ea4c1303    L...    ORR      r3,r12,r3,LSL #4
        0x0000080e:    b2db        ..      UXTB     r3,r3
        0x00000810:    f44f4cfe    O..L    MOV      r12,#0x7f00
        0x00000814:    ea0c2303    ...#    AND      r3,r12,r3,LSL #8
        0x00000818:    431c        .C      ORRS     r4,r4,r3
        0x0000081a:    f8903028    ..(0    LDRB     r3,[r0,#0x28]
        0x0000081e:    fba15c03    ...\    UMULL    r5,r12,r1,r3
        0x00000822:    ea4f0cdc    O...    LSR      r12,r12,#3
        0x00000826:    f1cc0c00    ....    RSB      r12,r12,#0
        0x0000082a:    eb0c0c8c    ....    ADD      r12,r12,r12,LSL #2
        0x0000082e:    eb030c4c    ..L.    ADD      r12,r3,r12,LSL #1
        0x00000832:    25cd        .%      MOVS     r5,#0xcd
        0x00000834:    fb13f305    ....    SMULBB   r3,r3,r5
        0x00000838:    0adb        ..      LSRS     r3,r3,#11
        0x0000083a:    ea4c1303    L...    ORR      r3,r12,r3,LSL #4
        0x0000083e:    b2db        ..      UXTB     r3,r3
        0x00000840:    4323        #C      ORRS     r3,r3,r4
        0x00000842:    6413        .d      STR      r3,[r2,#0x40]
        0x00000844:    7c03        .|      LDRB     r3,[r0,#0x10]
        0x00000846:    fba14c03    ...L    UMULL    r4,r12,r1,r3
        0x0000084a:    ea4f0cdc    O...    LSR      r12,r12,#3
        0x0000084e:    f1cc0c00    ....    RSB      r12,r12,#0
        0x00000852:    eb0c0c8c    ....    ADD      r12,r12,r12,LSL #2
        0x00000856:    eb030c4c    ..L.    ADD      r12,r3,r12,LSL #1
        0x0000085a:    fb13f305    ....    SMULBB   r3,r3,r5
        0x0000085e:    0adb        ..      LSRS     r3,r3,#11
        0x00000860:    ea4c1303    L...    ORR      r3,r12,r3,LSL #4
        0x00000864:    f890c004    ....    LDRB     r12,[r0,#4]
        0x00000868:    0394        ..      LSLS     r4,r2,#14
        0x0000086a:    ea047c0c    ...|    AND      r12,r4,r12,LSL #28
        0x0000086e:    7b04        .{      LDRB     r4,[r0,#0xc]
        0x00000870:    0355        U.      LSLS     r5,r2,#13
        0x00000872:    ea0564c4    ...d    AND      r4,r5,r4,LSL #27
        0x00000876:    ea4c0c04    L...    ORR      r12,r12,r4
        0x0000087a:    7a04        .z      LDRB     r4,[r0,#8]
        0x0000087c:    f04f65e0    O..e    MOV      r5,#0x7000000
        0x00000880:    ea056404    ...d    AND      r4,r5,r4,LSL #24
        0x00000884:    b2db        ..      UXTB     r3,r3
        0x00000886:    ea4c0c04    L...    ORR      r12,r12,r4
        0x0000088a:    ea4c4403    L..D    ORR      r4,r12,r3,LSL #16
        0x0000088e:    7d03        .}      LDRB     r3,[r0,#0x14]
        0x00000890:    fba15c03    ...\    UMULL    r5,r12,r1,r3
        0x00000894:    ea4f0cdc    O...    LSR      r12,r12,#3
        0x00000898:    f1cc0c00    ....    RSB      r12,r12,#0
        0x0000089c:    eb0c0c8c    ....    ADD      r12,r12,r12,LSL #2
        0x000008a0:    eb030c4c    ..L.    ADD      r12,r3,r12,LSL #1
        0x000008a4:    25cd        .%      MOVS     r5,#0xcd
        0x000008a6:    fb13f305    ....    SMULBB   r3,r3,r5
        0x000008aa:    0adb        ..      LSRS     r3,r3,#11
        0x000008ac:    ea4c1303    L...    ORR      r3,r12,r3,LSL #4
        0x000008b0:    b2db        ..      UXTB     r3,r3
        0x000008b2:    f44f5cf8    O..\    MOV      r12,#0x1f00
        0x000008b6:    ea0c2303    ...#    AND      r3,r12,r3,LSL #8
        0x000008ba:    7e00        .~      LDRB     r0,[r0,#0x18]
        0x000008bc:    4323        #C      ORRS     r3,r3,r4
        0x000008be:    fba1c100    ....    UMULL    r12,r1,r1,r0
        0x000008c2:    08c9        ..      LSRS     r1,r1,#3
        0x000008c4:    4249        IB      RSBS     r1,r1,#0
        0x000008c6:    eb010181    ....    ADD      r1,r1,r1,LSL #2
        0x000008ca:    eb000141    ..A.    ADD      r1,r0,r1,LSL #1
        0x000008ce:    fb10f005    ....    SMULBB   r0,r0,r5
        0x000008d2:    0ac0        ..      LSRS     r0,r0,#11
        0x000008d4:    ea411000    A...    ORR      r0,r1,r0,LSL #4
        0x000008d8:    f000003f    ..?.    AND      r0,r0,#0x3f
        0x000008dc:    4318        .C      ORRS     r0,r0,r3
        0x000008de:    6450        Pd      STR      r0,[r2,#0x44]
        0x000008e0:    6d10        .m      LDR      r0,[r2,#0x50]
        0x000008e2:    f0200001     ...    BIC      r0,r0,#1
        0x000008e6:    6510        .e      STR      r0,[r2,#0x50]
        0x000008e8:    bc30        0.      POP      {r4,r5}
        0x000008ea:    4770        pG      BX       lr
    $d
        0x000008ec:    cccccccd    ....    DCD    3435973837
    $t
    i.am_hal_sysctrl_sleep
    am_hal_sysctrl_sleep
        0x000008f0:    490a        .I      LDR      r1,[pc,#40] ; [0x91c] = 0xe000ed10
        0x000008f2:    b148        H.      CBZ      r0,0x908 ; am_hal_sysctrl_sleep + 24
        0x000008f4:    480a        .H      LDR      r0,[pc,#40] ; [0x920] = 0x40020000
        0x000008f6:    f8d00250    ..P.    LDR      r0,[r0,#0x250]
        0x000008fa:    f0100f01    ....    TST      r0,#1
        0x000008fe:    bf04        ..      ITT      EQ
        0x00000900:    6808        .h      LDREQ    r0,[r1,#0]
        0x00000902:    f0400004    @...    ORREQ    r0,r0,#4
        0x00000906:    d002        ..      BEQ      0x90e ; am_hal_sysctrl_sleep + 30
        0x00000908:    6808        .h      LDR      r0,[r1,#0]
        0x0000090a:    f0200004     ...    BIC      r0,r0,#4
        0x0000090e:    6008        .`      STR      r0,[r1,#0]
        0x00000910:    f3bf8f4f    ..O.    DSB      
        0x00000914:    bf30        0.      WFI      
        0x00000916:    f3bf8f6f    ..o.    ISB      
        0x0000091a:    4770        pG      BX       lr
    $d
        0x0000091c:    e000ed10    ....    DCD    3758157072
        0x00000920:    40020000    ...@    DCD    1073872896
    $t
    i.am_hal_tpiu_disable
    am_hal_tpiu_disable
        0x00000924:    4902        .I      LDR      r1,[pc,#8] ; [0x930] = 0x40020000
        0x00000926:    2000        .       MOVS     r0,#0
        0x00000928:    f8c10250    ..P.    STR      r0,[r1,#0x250]
        0x0000092c:    4770        pG      BX       lr
    $d
        0x0000092e:    0000        ..      DCW    0
        0x00000930:    40020000    ...@    DCD    1073872896
    $t
    i.am_hal_tpiu_enable
    am_hal_tpiu_enable
        0x00000934:    e92d41f0    -..A    PUSH     {r4-r8,lr}
        0x00000938:    4c1e        .L      LDR      r4,[pc,#120] ; [0x9b4] = 0xe0040000
        0x0000093a:    2600        .&      MOVS     r6,#0
        0x0000093c:    6805        .h      LDR      r5,[r0,#0]
        0x0000093e:    f8c46304    ...c    STR      r6,[r4,#0x304]
        0x00000942:    4f1d        .O      LDR      r7,[pc,#116] ; [0x9b8] = 0xe0040f00
        0x00000944:    f8df8074    ..t.    LDR      r8,[pc,#116] ; [0x9bc] = 0x40020000
        0x00000948:    2101        .!      MOVS     r1,#1
        0x0000094a:    b335        5.      CBZ      r5,0x99a ; am_hal_tpiu_enable + 102
        0x0000094c:    6061        a`      STR      r1,[r4,#4]
        0x0000094e:    491c        .I      LDR      r1,[pc,#112] ; [0x9c0] = 0x1da381
        0x00000950:    f5a54061    ..a@    SUB      r0,r5,#0xe100
        0x00000954:    4288        .B      CMP      r0,r1
        0x00000956:    bf28        (.      IT       CS
        0x00000958:    4d1a        .M      LDRCS    r5,[pc,#104] ; [0x9c4] = 0xf4240
        0x0000095a:    f7fffcf9    ....    BL       am_hal_clkgen_sysclk_get ; 0x350
        0x0000095e:    f1b03fff    ...?    CMP      r0,#0xffffffff
        0x00000962:    bf1d        ..      ITTTE    NE
        0x00000964:    08c0        ..      LSRNE    r0,r0,#3
        0x00000966:    fbb0f0f5    ....    UDIVNE   r0,r0,r5
        0x0000096a:    1e40        @.      SUBNE    r0,r0,#1
        0x0000096c:    2002        .       MOVEQ    r0,#2
        0x0000096e:    b280        ..      UXTH     r0,r0
        0x00000970:    6120         a      STR      r0,[r4,#0x10]
        0x00000972:    2002        .       MOVS     r0,#2
        0x00000974:    f8c400f0    ....    STR      r0,[r4,#0xf0]
        0x00000978:    603e        >`      STR      r6,[r7,#0]
        0x0000097a:    f2402001    @..     MOV      r0,#0x201
        0x0000097e:    bf00        ..      NOP      
        0x00000980:    f8c80250    ..P.    STR      r0,[r8,#0x250]
        0x00000984:    f7fffce4    ....    BL       am_hal_clkgen_sysclk_get ; 0x350
        0x00000988:    490f        .I      LDR      r1,[pc,#60] ; [0x9c8] = 0x2dc6c0
        0x0000098a:    e8bd41f0    ...A    POP      {r4-r8,lr}
        0x0000098e:    fbb0f0f1    ....    UDIV     r0,r0,r1
        0x00000992:    2132        2!      MOVS     r1,#0x32
        0x00000994:    4348        HC      MULS     r0,r1,r0
        0x00000996:    f7ffbbe1    ....    B        am_hal_flash_delay ; 0x15c
        0x0000099a:    6902        .i      LDR      r2,[r0,#0x10]
        0x0000099c:    6122        "a      STR      r2,[r4,#0x10]
        0x0000099e:    6882        .h      LDR      r2,[r0,#8]
        0x000009a0:    f8c420f0    ...     STR      r2,[r4,#0xf0]
        0x000009a4:    7b02        .{      LDRB     r2,[r0,#0xc]
        0x000009a6:    1e52        R.      SUBS     r2,r2,#1
        0x000009a8:    4091        .@      LSLS     r1,r1,r2
        0x000009aa:    6061        a`      STR      r1,[r4,#4]
        0x000009ac:    603e        >`      STR      r6,[r7,#0]
        0x000009ae:    6840        @h      LDR      r0,[r0,#4]
        0x000009b0:    e7e6        ..      B        0x980 ; am_hal_tpiu_enable + 76
    $d
        0x000009b2:    0000        ..      DCW    0
        0x000009b4:    e0040000    ....    DCD    3758358528
        0x000009b8:    e0040f00    ....    DCD    3758362368
        0x000009bc:    40020000    ...@    DCD    1073872896
        0x000009c0:    001da381    ....    DCD    1942401
        0x000009c4:    000f4240    @B..    DCD    1000000
        0x000009c8:    002dc6c0    ..-.    DCD    3000000
    $t
    i.am_hal_vcomp_disable
    am_hal_vcomp_disable
        0x000009cc:    4901        .I      LDR      r1,[pc,#4] ; [0x9d4] = 0x4000c000
        0x000009ce:    2037        7       MOVS     r0,#0x37
        0x000009d0:    6088        .`      STR      r0,[r1,#8]
        0x000009d2:    4770        pG      BX       lr
    $d
        0x000009d4:    4000c000    ...@    DCD    1073790976
    $t
    i.am_util_faultisr_collect_data
    am_util_faultisr_collect_data
        0x000009d8:    b092        ..      SUB      sp,sp,#0x48
        0x000009da:    4604        .F      MOV      r4,r0
        0x000009dc:    2118        .!      MOVS     r1,#0x18
        0x000009de:    4668        hF      MOV      r0,sp
        0x000009e0:    f7fffbd8    ....    BL       __aeabi_memclr4 ; 0x194
        0x000009e4:    2500        .%      MOVS     r5,#0
        0x000009e6:    9510        ..      STR      r5,[sp,#0x40]
        0x000009e8:    4828        (H      LDR      r0,[pc,#160] ; [0xa8c] = 0xe000ed28
        0x000009ea:    6800        .h      LDR      r0,[r0,#0]
        0x000009ec:    9010        ..      STR      r0,[sp,#0x40]
        0x000009ee:    9810        ..      LDR      r0,[sp,#0x40]
        0x000009f0:    b2c0        ..      UXTB     r0,r0
        0x000009f2:    f88d0044    ..D.    STRB     r0,[sp,#0x44]
        0x000009f6:    9810        ..      LDR      r0,[sp,#0x40]
        0x000009f8:    0a00        ..      LSRS     r0,r0,#8
        0x000009fa:    f88d0045    ..E.    STRB     r0,[sp,#0x45]
        0x000009fe:    9810        ..      LDR      r0,[sp,#0x40]
        0x00000a00:    f64f71ff    O..q    MOV      r1,#0xffff
        0x00000a04:    ea014010    ...@    AND      r0,r1,r0,LSR #16
        0x00000a08:    f8ad0046    ..F.    STRH     r0,[sp,#0x46]
        0x00000a0c:    481f        .H      LDR      r0,[pc,#124] ; [0xa8c] = 0xe000ed28
        0x00000a0e:    3010        .0      ADDS     r0,r0,#0x10
        0x00000a10:    6800        .h      LDR      r0,[r0,#0]
        0x00000a12:    900f        ..      STR      r0,[sp,#0x3c]
        0x00000a14:    f89d0045    ..E.    LDRB     r0,[sp,#0x45]
        0x00000a18:    f0000002    ....    AND      r0,r0,#2
        0x00000a1c:    b120         .      CBZ      r0,0xa28 ; am_util_faultisr_collect_data + 80
        0x00000a1e:    4621        !F      MOV      r1,r4
        0x00000a20:    2006        .       MOVS     r0,#6
        0x00000a22:    f7fffb96    ....    BL       getStackedReg ; 0x152
        0x00000a26:    e001        ..      B        0xa2c ; am_util_faultisr_collect_data + 84
        0x00000a28:    f04f30ff    O..0    MOV      r0,#0xffffffff
        0x00000a2c:    900e        ..      STR      r0,[sp,#0x38]
        0x00000a2e:    4621        !F      MOV      r1,r4
        0x00000a30:    2000        .       MOVS     r0,#0
        0x00000a32:    f7fffb8e    ....    BL       getStackedReg ; 0x152
        0x00000a36:    9006        ..      STR      r0,[sp,#0x18]
        0x00000a38:    4621        !F      MOV      r1,r4
        0x00000a3a:    2001        .       MOVS     r0,#1
        0x00000a3c:    f7fffb89    ....    BL       getStackedReg ; 0x152
        0x00000a40:    9007        ..      STR      r0,[sp,#0x1c]
        0x00000a42:    4621        !F      MOV      r1,r4
        0x00000a44:    2002        .       MOVS     r0,#2
        0x00000a46:    f7fffb84    ....    BL       getStackedReg ; 0x152
        0x00000a4a:    9008        ..      STR      r0,[sp,#0x20]
        0x00000a4c:    4621        !F      MOV      r1,r4
        0x00000a4e:    2003        .       MOVS     r0,#3
        0x00000a50:    f7fffb7f    ....    BL       getStackedReg ; 0x152
        0x00000a54:    9009        ..      STR      r0,[sp,#0x24]
        0x00000a56:    4621        !F      MOV      r1,r4
        0x00000a58:    2004        .       MOVS     r0,#4
        0x00000a5a:    f7fffb7a    ..z.    BL       getStackedReg ; 0x152
        0x00000a5e:    900a        ..      STR      r0,[sp,#0x28]
        0x00000a60:    4621        !F      MOV      r1,r4
        0x00000a62:    2005        .       MOVS     r0,#5
        0x00000a64:    f7fffb75    ..u.    BL       getStackedReg ; 0x152
        0x00000a68:    900b        ..      STR      r0,[sp,#0x2c]
        0x00000a6a:    4621        !F      MOV      r1,r4
        0x00000a6c:    2006        .       MOVS     r0,#6
        0x00000a6e:    f7fffb70    ..p.    BL       getStackedReg ; 0x152
        0x00000a72:    900c        ..      STR      r0,[sp,#0x30]
        0x00000a74:    4621        !F      MOV      r1,r4
        0x00000a76:    2007        .       MOVS     r0,#7
        0x00000a78:    f7fffb6b    ..k.    BL       getStackedReg ; 0x152
        0x00000a7c:    900d        ..      STR      r0,[sp,#0x34]
        0x00000a7e:    4668        hF      MOV      r0,sp
        0x00000a80:    f7fffde6    ....    BL       am_hal_mcuctrl_fault_status ; 0x650
        0x00000a84:    bf00        ..      NOP      
        0x00000a86:    bf00        ..      NOP      
        0x00000a88:    e7fe        ..      B        0xa88 ; am_util_faultisr_collect_data + 176
    $d
        0x00000a8a:    0000        ..      DCW    0
        0x00000a8c:    e000ed28    (...    DCD    3758157096
    $t
    i.am_util_stdio_printf
    am_util_stdio_printf
        0x00000a90:    b40f        ..      PUSH     {r0-r3}
        0x00000a92:    b538        8.      PUSH     {r3-r5,lr}
        0x00000a94:    480b        .H      LDR      r0,[pc,#44] ; [0xac4] = 0x10000068
        0x00000a96:    6800        .h      LDR      r0,[r0,#0]
        0x00000a98:    b918        ..      CBNZ     r0,0xaa2 ; am_util_stdio_printf + 18
        0x00000a9a:    2000        .       MOVS     r0,#0
        0x00000a9c:    bc38        8.      POP      {r3-r5}
        0x00000a9e:    f85dfb14    ]...    LDR      pc,[sp],#0x14
        0x00000aa2:    a805        ..      ADD      r0,sp,#0x14
        0x00000aa4:    9000        ..      STR      r0,[sp,#0]
        0x00000aa6:    4808        .H      LDR      r0,[pc,#32] ; [0xac8] = 0x100000a0
        0x00000aa8:    9a00        ..      LDR      r2,[sp,#0]
        0x00000aaa:    9904        ..      LDR      r1,[sp,#0x10]
        0x00000aac:    f000f824    ..$.    BL       am_util_stdio_vsprintf ; 0xaf8
        0x00000ab0:    4604        .F      MOV      r4,r0
        0x00000ab2:    2000        .       MOVS     r0,#0
        0x00000ab4:    9000        ..      STR      r0,[sp,#0]
        0x00000ab6:    4804        .H      LDR      r0,[pc,#16] ; [0xac8] = 0x100000a0
        0x00000ab8:    4902        .I      LDR      r1,[pc,#8] ; [0xac4] = 0x10000068
        0x00000aba:    6809        .h      LDR      r1,[r1,#0]
        0x00000abc:    4788        .G      BLX      r1
        0x00000abe:    4620         F      MOV      r0,r4
        0x00000ac0:    e7ec        ..      B        0xa9c ; am_util_stdio_printf + 12
    $d
        0x00000ac2:    0000        ..      DCW    0
        0x00000ac4:    10000068    h...    DCD    268435560
        0x00000ac8:    100000a0    ....    DCD    268435616
    $t
    i.am_util_stdio_printf_init
    am_util_stdio_printf_init
        0x00000acc:    4901        .I      LDR      r1,[pc,#4] ; [0xad4] = 0x10000068
        0x00000ace:    6008        .`      STR      r0,[r1,#0]
        0x00000ad0:    4770        pG      BX       lr
    $d
        0x00000ad2:    0000        ..      DCW    0
        0x00000ad4:    10000068    h...    DCD    268435560
    $t
    i.am_util_stdio_terminal_clear
    am_util_stdio_terminal_clear
        0x00000ad8:    b510        ..      PUSH     {r4,lr}
        0x00000ada:    a002        ..      ADR      r0,{pc}+0xa ; 0xae4
        0x00000adc:    f7ffffd8    ....    BL       am_util_stdio_printf ; 0xa90
        0x00000ae0:    bd10        ..      POP      {r4,pc}
    $d
        0x00000ae2:    0000        ..      DCW    0
        0x00000ae4:    0a0a0a0a    ....    DCD    168430090
        0x00000ae8:    0a0a0a0a    ....    DCD    168430090
        0x00000aec:    0a0a0a0a    ....    DCD    168430090
        0x00000af0:    0a0a0a0a    ....    DCD    168430090
        0x00000af4:    00000a0a    ....    DCD    2570
    $t
    i.am_util_stdio_vsprintf
    am_util_stdio_vsprintf
        0x00000af8:    e92d4ff7    -..O    PUSH     {r0-r2,r4-r11,lr}
        0x00000afc:    ed2d8b02    -...    VPUSH    {d8}
        0x00000b00:    b08a        ..      SUB      sp,sp,#0x28
        0x00000b02:    4604        .F      MOV      r4,r0
        0x00000b04:    460d        .F      MOV      r5,r1
        0x00000b06:    f04f0900    O...    MOV      r9,#0
        0x00000b0a:    2000        .       MOVS     r0,#0
        0x00000b0c:    9000        ..      STR      r0,[sp,#0]
        0x00000b0e:    e1b9        ..      B        0xe84 ; am_util_stdio_vsprintf + 908
        0x00000b10:    2006        .       MOVS     r0,#6
        0x00000b12:    9006        ..      STR      r0,[sp,#0x18]
        0x00000b14:    7828        (x      LDRB     r0,[r5,#0]
        0x00000b16:    2825        %(      CMP      r0,#0x25
        0x00000b18:    d012        ..      BEQ      0xb40 ; am_util_stdio_vsprintf + 72
        0x00000b1a:    b16c        l.      CBZ      r4,0xb38 ; am_util_stdio_vsprintf + 64
        0x00000b1c:    7828        (x      LDRB     r0,[r5,#0]
        0x00000b1e:    280a        .(      CMP      r0,#0xa
        0x00000b20:    d107        ..      BNE      0xb32 ; am_util_stdio_vsprintf + 58
        0x00000b22:    48de        .H      LDR      r0,[pc,#888] ; [0xe9c] = 0x1000006c
        0x00000b24:    7800        .x      LDRB     r0,[r0,#0]
        0x00000b26:    b120         .      CBZ      r0,0xb32 ; am_util_stdio_vsprintf + 58
        0x00000b28:    200d        .       MOVS     r0,#0xd
        0x00000b2a:    f8040b01    ....    STRB     r0,[r4],#1
        0x00000b2e:    f1090901    ....    ADD      r9,r9,#1
        0x00000b32:    7828        (x      LDRB     r0,[r5,#0]
        0x00000b34:    f8040b01    ....    STRB     r0,[r4],#1
        0x00000b38:    1c6d        m.      ADDS     r5,r5,#1
        0x00000b3a:    f1090901    ....    ADD      r9,r9,#1
        0x00000b3e:    e1a1        ..      B        0xe84 ; am_util_stdio_vsprintf + 908
        0x00000b40:    1c6d        m.      ADDS     r5,r5,#1
        0x00000b42:    2000        .       MOVS     r0,#0
        0x00000b44:    9002        ..      STR      r0,[sp,#8]
        0x00000b46:    9003        ..      STR      r0,[sp,#0xc]
        0x00000b48:    2020                MOVS     r0,#0x20
        0x00000b4a:    9004        ..      STR      r0,[sp,#0x10]
        0x00000b4c:    7828        (x      LDRB     r0,[r5,#0]
        0x00000b4e:    2830        0(      CMP      r0,#0x30
        0x00000b50:    d101        ..      BNE      0xb56 ; am_util_stdio_vsprintf + 94
        0x00000b52:    9004        ..      STR      r0,[sp,#0x10]
        0x00000b54:    1c6d        m.      ADDS     r5,r5,#1
        0x00000b56:    a907        ..      ADD      r1,sp,#0x1c
        0x00000b58:    4628        (F      MOV      r0,r5
        0x00000b5a:    f000fa5b    ..[.    BL       decstr_to_int ; 0x1014
        0x00000b5e:    4606        .F      MOV      r6,r0
        0x00000b60:    9807        ..      LDR      r0,[sp,#0x1c]
        0x00000b62:    4405        .D      ADD      r5,r5,r0
        0x00000b64:    7828        (x      LDRB     r0,[r5,#0]
        0x00000b66:    2873        s(      CMP      r0,#0x73
        0x00000b68:    d002        ..      BEQ      0xb70 ; am_util_stdio_vsprintf + 120
        0x00000b6a:    2e00        ..      CMP      r6,#0
        0x00000b6c:    da00        ..      BGE      0xb70 ; am_util_stdio_vsprintf + 120
        0x00000b6e:    4276        vB      RSBS     r6,r6,#0
        0x00000b70:    7828        (x      LDRB     r0,[r5,#0]
        0x00000b72:    282e        .(      CMP      r0,#0x2e
        0x00000b74:    d107        ..      BNE      0xb86 ; am_util_stdio_vsprintf + 142
        0x00000b76:    1c6d        m.      ADDS     r5,r5,#1
        0x00000b78:    a907        ..      ADD      r1,sp,#0x1c
        0x00000b7a:    4628        (F      MOV      r0,r5
        0x00000b7c:    f000fa4a    ..J.    BL       decstr_to_int ; 0x1014
        0x00000b80:    9006        ..      STR      r0,[sp,#0x18]
        0x00000b82:    9807        ..      LDR      r0,[sp,#0x1c]
        0x00000b84:    4405        .D      ADD      r5,r5,r0
        0x00000b86:    7828        (x      LDRB     r0,[r5,#0]
        0x00000b88:    286c        l(      CMP      r0,#0x6c
        0x00000b8a:    d106        ..      BNE      0xb9a ; am_util_stdio_vsprintf + 162
        0x00000b8c:    1c6d        m.      ADDS     r5,r5,#1
        0x00000b8e:    7828        (x      LDRB     r0,[r5,#0]
        0x00000b90:    286c        l(      CMP      r0,#0x6c
        0x00000b92:    d102        ..      BNE      0xb9a ; am_util_stdio_vsprintf + 162
        0x00000b94:    1c6d        m.      ADDS     r5,r5,#1
        0x00000b96:    2001        .       MOVS     r0,#1
        0x00000b98:    9002        ..      STR      r0,[sp,#8]
        0x00000b9a:    7828        (x      LDRB     r0,[r5,#0]
        0x00000b9c:    2866        f(      CMP      r0,#0x66
        0x00000b9e:    d06f        o.      BEQ      0xc80 ; am_util_stdio_vsprintf + 392
        0x00000ba0:    dc08        ..      BGT      0xbb4 ; am_util_stdio_vsprintf + 188
        0x00000ba2:    2846        F(      CMP      r0,#0x46
        0x00000ba4:    d06d        m.      BEQ      0xc82 ; am_util_stdio_vsprintf + 394
        0x00000ba6:    2858        X(      CMP      r0,#0x58
        0x00000ba8:    d05c        \.      BEQ      0xc64 ; am_util_stdio_vsprintf + 364
        0x00000baa:    2863        c(      CMP      r0,#0x63
        0x00000bac:    d00b        ..      BEQ      0xbc6 ; am_util_stdio_vsprintf + 206
        0x00000bae:    2864        d(      CMP      r0,#0x64
        0x00000bb0:    d168        h.      BNE      0xc84 ; am_util_stdio_vsprintf + 396
        0x00000bb2:    e0c3        ..      B        0xd3c ; am_util_stdio_vsprintf + 580
        0x00000bb4:    2869        i(      CMP      r0,#0x69
        0x00000bb6:    d07d        }.      BEQ      0xcb4 ; am_util_stdio_vsprintf + 444
        0x00000bb8:    2873        s(      CMP      r0,#0x73
        0x00000bba:    d011        ..      BEQ      0xbe0 ; am_util_stdio_vsprintf + 232
        0x00000bbc:    2875        u(      CMP      r0,#0x75
        0x00000bbe:    d07a        z.      BEQ      0xcb6 ; am_util_stdio_vsprintf + 446
        0x00000bc0:    2878        x(      CMP      r0,#0x78
        0x00000bc2:    d1f5        ..      BNE      0xbb0 ; am_util_stdio_vsprintf + 184
        0x00000bc4:    e04b        K.      B        0xc5e ; am_util_stdio_vsprintf + 358
        0x00000bc6:    980e        ..      LDR      r0,[sp,#0x38]
        0x00000bc8:    f8101b04    ....    LDRB     r1,[r0],#4
        0x00000bcc:    900e        ..      STR      r0,[sp,#0x38]
        0x00000bce:    b2c8        ..      UXTB     r0,r1
        0x00000bd0:    9005        ..      STR      r0,[sp,#0x14]
        0x00000bd2:    b114        ..      CBZ      r4,0xbda ; am_util_stdio_vsprintf + 226
        0x00000bd4:    9805        ..      LDR      r0,[sp,#0x14]
        0x00000bd6:    f8040b01    ....    STRB     r0,[r4],#1
        0x00000bda:    f1090901    ....    ADD      r9,r9,#1
        0x00000bde:    e14e        N.      B        0xe7e ; am_util_stdio_vsprintf + 902
        0x00000be0:    980e        ..      LDR      r0,[sp,#0x38]
        0x00000be2:    f850bb04    P...    LDR      r11,[r0],#4
        0x00000be6:    900e        ..      STR      r0,[sp,#0x38]
        0x00000be8:    4658        XF      MOV      r0,r11
        0x00000bea:    f000fcdb    ....    BL       simple_strlen ; 0x15a4
        0x00000bee:    9000        ..      STR      r0,[sp,#0]
        0x00000bf0:    2e00        ..      CMP      r6,#0
        0x00000bf2:    dd11        ..      BLE      0xc18 ; am_util_stdio_vsprintf + 288
        0x00000bf4:    9800        ..      LDR      r0,[sp,#0]
        0x00000bf6:    42b0        .B      CMP      r0,r6
        0x00000bf8:    d20e        ..      BCS      0xc18 ; am_util_stdio_vsprintf + 288
        0x00000bfa:    9800        ..      LDR      r0,[sp,#0]
        0x00000bfc:    1a36        6.      SUBS     r6,r6,r0
        0x00000bfe:    4632        2F      MOV      r2,r6
        0x00000c00:    4620         F      MOV      r0,r4
        0x00000c02:    9904        ..      LDR      r1,[sp,#0x10]
        0x00000c04:    f000fcbd    ....    BL       padbuffer ; 0x1582
        0x00000c08:    4606        .F      MOV      r6,r0
        0x00000c0a:    b10c        ..      CBZ      r4,0xc10 ; am_util_stdio_vsprintf + 280
        0x00000c0c:    4630        0F      MOV      r0,r6
        0x00000c0e:    e000        ..      B        0xc12 ; am_util_stdio_vsprintf + 282
        0x00000c10:    2000        .       MOVS     r0,#0
        0x00000c12:    4404        .D      ADD      r4,r4,r0
        0x00000c14:    44b1        .D      ADD      r9,r9,r6
        0x00000c16:    2600        .&      MOVS     r6,#0
        0x00000c18:    e008        ..      B        0xc2c ; am_util_stdio_vsprintf + 308
        0x00000c1a:    b11c        ..      CBZ      r4,0xc24 ; am_util_stdio_vsprintf + 300
        0x00000c1c:    f89b0000    ....    LDRB     r0,[r11,#0]
        0x00000c20:    f8040b01    ....    STRB     r0,[r4],#1
        0x00000c24:    f10b0b01    ....    ADD      r11,r11,#1
        0x00000c28:    f1090901    ....    ADD      r9,r9,#1
        0x00000c2c:    f89b0000    ....    LDRB     r0,[r11,#0]
        0x00000c30:    2800        .(      CMP      r0,#0
        0x00000c32:    d1f2        ..      BNE      0xc1a ; am_util_stdio_vsprintf + 290
        0x00000c34:    b196        ..      CBZ      r6,0xc5c ; am_util_stdio_vsprintf + 356
        0x00000c36:    4276        vB      RSBS     r6,r6,#0
        0x00000c38:    9800        ..      LDR      r0,[sp,#0]
        0x00000c3a:    42b0        .B      CMP      r0,r6
        0x00000c3c:    d20e        ..      BCS      0xc5c ; am_util_stdio_vsprintf + 356
        0x00000c3e:    9800        ..      LDR      r0,[sp,#0]
        0x00000c40:    1a36        6.      SUBS     r6,r6,r0
        0x00000c42:    4632        2F      MOV      r2,r6
        0x00000c44:    4620         F      MOV      r0,r4
        0x00000c46:    9904        ..      LDR      r1,[sp,#0x10]
        0x00000c48:    f000fc9b    ....    BL       padbuffer ; 0x1582
        0x00000c4c:    4606        .F      MOV      r6,r0
        0x00000c4e:    b10c        ..      CBZ      r4,0xc54 ; am_util_stdio_vsprintf + 348
        0x00000c50:    4630        0F      MOV      r0,r6
        0x00000c52:    e000        ..      B        0xc56 ; am_util_stdio_vsprintf + 350
        0x00000c54:    2000        .       MOVS     r0,#0
        0x00000c56:    4404        .D      ADD      r4,r4,r0
        0x00000c58:    44b1        .D      ADD      r9,r9,r6
        0x00000c5a:    2600        .&      MOVS     r6,#0
        0x00000c5c:    e10f        ..      B        0xe7e ; am_util_stdio_vsprintf + 902
        0x00000c5e:    2001        .       MOVS     r0,#1
        0x00000c60:    9003        ..      STR      r0,[sp,#0xc]
        0x00000c62:    bf00        ..      NOP      
        0x00000c64:    9802        ..      LDR      r0,[sp,#8]
        0x00000c66:    b170        p.      CBZ      r0,0xc86 ; am_util_stdio_vsprintf + 398
        0x00000c68:    980e        ..      LDR      r0,[sp,#0x38]
        0x00000c6a:    1dc0        ..      ADDS     r0,r0,#7
        0x00000c6c:    f0200007     ...    BIC      r0,r0,#7
        0x00000c70:    4601        .F      MOV      r1,r0
        0x00000c72:    900e        ..      STR      r0,[sp,#0x38]
        0x00000c74:    6800        .h      LDR      r0,[r0,#0]
        0x00000c76:    6849        Ih      LDR      r1,[r1,#4]
        0x00000c78:    9a0e        ..      LDR      r2,[sp,#0x38]
        0x00000c7a:    3208        .2      ADDS     r2,r2,#8
        0x00000c7c:    920e        ..      STR      r2,[sp,#0x38]
        0x00000c7e:    e008        ..      B        0xc92 ; am_util_stdio_vsprintf + 410
        0x00000c80:    e0c3        ..      B        0xe0a ; am_util_stdio_vsprintf + 786
        0x00000c82:    e0c3        ..      B        0xe0c ; am_util_stdio_vsprintf + 788
        0x00000c84:    e0f4        ..      B        0xe70 ; am_util_stdio_vsprintf + 888
        0x00000c86:    980e        ..      LDR      r0,[sp,#0x38]
        0x00000c88:    6800        .h      LDR      r0,[r0,#0]
        0x00000c8a:    990e        ..      LDR      r1,[sp,#0x38]
        0x00000c8c:    1d09        ..      ADDS     r1,r1,#4
        0x00000c8e:    910e        ..      STR      r1,[sp,#0x38]
        0x00000c90:    2100        .!      MOVS     r1,#0
        0x00000c92:    4607        .F      MOV      r7,r0
        0x00000c94:    4688        .F      MOV      r8,r1
        0x00000c96:    b19e        ..      CBZ      r6,0xcc0 ; am_util_stdio_vsprintf + 456
        0x00000c98:    4638        8F      MOV      r0,r7
        0x00000c9a:    4641        AF      MOV      r1,r8
        0x00000c9c:    f000fc28    ..(.    BL       ndigits_in_hex ; 0x14f0
        0x00000ca0:    1a36        6.      SUBS     r6,r6,r0
        0x00000ca2:    4632        2F      MOV      r2,r6
        0x00000ca4:    4620         F      MOV      r0,r4
        0x00000ca6:    9904        ..      LDR      r1,[sp,#0x10]
        0x00000ca8:    f000fc6b    ..k.    BL       padbuffer ; 0x1582
        0x00000cac:    4606        .F      MOV      r6,r0
        0x00000cae:    b11c        ..      CBZ      r4,0xcb8 ; am_util_stdio_vsprintf + 448
        0x00000cb0:    4630        0F      MOV      r0,r6
        0x00000cb2:    e002        ..      B        0xcba ; am_util_stdio_vsprintf + 450
        0x00000cb4:    e043        C.      B        0xd3e ; am_util_stdio_vsprintf + 582
        0x00000cb6:    e00e        ..      B        0xcd6 ; am_util_stdio_vsprintf + 478
        0x00000cb8:    2000        .       MOVS     r0,#0
        0x00000cba:    4404        .D      ADD      r4,r4,r0
        0x00000cbc:    44b1        .D      ADD      r9,r9,r6
        0x00000cbe:    2600        .&      MOVS     r6,#0
        0x00000cc0:    4622        "F      MOV      r2,r4
        0x00000cc2:    4638        8F      MOV      r0,r7
        0x00000cc4:    4641        AF      MOV      r1,r8
        0x00000cc6:    9b03        ..      LDR      r3,[sp,#0xc]
        0x00000cc8:    f000fca3    ....    BL       uint64_to_hexstr ; 0x1612
        0x00000ccc:    4682        .F      MOV      r10,r0
        0x00000cce:    b104        ..      CBZ      r4,0xcd2 ; am_util_stdio_vsprintf + 474
        0x00000cd0:    4454        TD      ADD      r4,r4,r10
        0x00000cd2:    44d1        .D      ADD      r9,r9,r10
        0x00000cd4:    e0d3        ..      B        0xe7e ; am_util_stdio_vsprintf + 902
        0x00000cd6:    9802        ..      LDR      r0,[sp,#8]
        0x00000cd8:    b158        X.      CBZ      r0,0xcf2 ; am_util_stdio_vsprintf + 506
        0x00000cda:    980e        ..      LDR      r0,[sp,#0x38]
        0x00000cdc:    1dc0        ..      ADDS     r0,r0,#7
        0x00000cde:    f0200007     ...    BIC      r0,r0,#7
        0x00000ce2:    4601        .F      MOV      r1,r0
        0x00000ce4:    900e        ..      STR      r0,[sp,#0x38]
        0x00000ce6:    6800        .h      LDR      r0,[r0,#0]
        0x00000ce8:    6849        Ih      LDR      r1,[r1,#4]
        0x00000cea:    9a0e        ..      LDR      r2,[sp,#0x38]
        0x00000cec:    3208        .2      ADDS     r2,r2,#8
        0x00000cee:    920e        ..      STR      r2,[sp,#0x38]
        0x00000cf0:    e005        ..      B        0xcfe ; am_util_stdio_vsprintf + 518
        0x00000cf2:    980e        ..      LDR      r0,[sp,#0x38]
        0x00000cf4:    6800        .h      LDR      r0,[r0,#0]
        0x00000cf6:    990e        ..      LDR      r1,[sp,#0x38]
        0x00000cf8:    1d09        ..      ADDS     r1,r1,#4
        0x00000cfa:    910e        ..      STR      r1,[sp,#0x38]
        0x00000cfc:    2100        .!      MOVS     r1,#0
        0x00000cfe:    4607        .F      MOV      r7,r0
        0x00000d00:    4688        .F      MOV      r8,r1
        0x00000d02:    b18e        ..      CBZ      r6,0xd28 ; am_util_stdio_vsprintf + 560
        0x00000d04:    4638        8F      MOV      r0,r7
        0x00000d06:    4641        AF      MOV      r1,r8
        0x00000d08:    f000fc1e    ....    BL       ndigits_in_u64 ; 0x1548
        0x00000d0c:    1a36        6.      SUBS     r6,r6,r0
        0x00000d0e:    4632        2F      MOV      r2,r6
        0x00000d10:    4620         F      MOV      r0,r4
        0x00000d12:    9904        ..      LDR      r1,[sp,#0x10]
        0x00000d14:    f000fc35    ..5.    BL       padbuffer ; 0x1582
        0x00000d18:    4606        .F      MOV      r6,r0
        0x00000d1a:    b10c        ..      CBZ      r4,0xd20 ; am_util_stdio_vsprintf + 552
        0x00000d1c:    4630        0F      MOV      r0,r6
        0x00000d1e:    e000        ..      B        0xd22 ; am_util_stdio_vsprintf + 554
        0x00000d20:    2000        .       MOVS     r0,#0
        0x00000d22:    4404        .D      ADD      r4,r4,r0
        0x00000d24:    44b1        .D      ADD      r9,r9,r6
        0x00000d26:    2600        .&      MOVS     r6,#0
        0x00000d28:    4622        "F      MOV      r2,r4
        0x00000d2a:    4638        8F      MOV      r0,r7
        0x00000d2c:    4641        AF      MOV      r1,r8
        0x00000d2e:    f000fcb5    ....    BL       uint64_to_str ; 0x169c
        0x00000d32:    4682        .F      MOV      r10,r0
        0x00000d34:    b104        ..      CBZ      r4,0xd38 ; am_util_stdio_vsprintf + 576
        0x00000d36:    4454        TD      ADD      r4,r4,r10
        0x00000d38:    44d1        .D      ADD      r9,r9,r10
        0x00000d3a:    e0a0        ..      B        0xe7e ; am_util_stdio_vsprintf + 902
        0x00000d3c:    bf00        ..      NOP      
        0x00000d3e:    9802        ..      LDR      r0,[sp,#8]
        0x00000d40:    b158        X.      CBZ      r0,0xd5a ; am_util_stdio_vsprintf + 610
        0x00000d42:    980e        ..      LDR      r0,[sp,#0x38]
        0x00000d44:    1dc0        ..      ADDS     r0,r0,#7
        0x00000d46:    f0200007     ...    BIC      r0,r0,#7
        0x00000d4a:    4601        .F      MOV      r1,r0
        0x00000d4c:    900e        ..      STR      r0,[sp,#0x38]
        0x00000d4e:    6800        .h      LDR      r0,[r0,#0]
        0x00000d50:    6849        Ih      LDR      r1,[r1,#4]
        0x00000d52:    9a0e        ..      LDR      r2,[sp,#0x38]
        0x00000d54:    3208        .2      ADDS     r2,r2,#8
        0x00000d56:    920e        ..      STR      r2,[sp,#0x38]
        0x00000d58:    e005        ..      B        0xd66 ; am_util_stdio_vsprintf + 622
        0x00000d5a:    980e        ..      LDR      r0,[sp,#0x38]
        0x00000d5c:    6800        .h      LDR      r0,[r0,#0]
        0x00000d5e:    990e        ..      LDR      r1,[sp,#0x38]
        0x00000d60:    1d09        ..      ADDS     r1,r1,#4
        0x00000d62:    910e        ..      STR      r1,[sp,#0x38]
        0x00000d64:    17c1        ..      ASRS     r1,r0,#31
        0x00000d66:    e9cd0108    ....    STRD     r0,r1,[sp,#0x20]
        0x00000d6a:    2300        .#      MOVS     r3,#0
        0x00000d6c:    e9dd0108    ....    LDRD     r0,r1,[sp,#0x20]
        0x00000d70:    1ac0        ..      SUBS     r0,r0,r3
        0x00000d72:    4199        .A      SBCS     r1,r1,r3
        0x00000d74:    da08        ..      BGE      0xd88 ; am_util_stdio_vsprintf + 656
        0x00000d76:    2200        ."      MOVS     r2,#0
        0x00000d78:    e9dd1008    ....    LDRD     r1,r0,[sp,#0x20]
        0x00000d7c:    424f        OB      RSBS     r7,r1,#0
        0x00000d7e:    eb620800    b...    SBC      r8,r2,r0
        0x00000d82:    2001        .       MOVS     r0,#1
        0x00000d84:    9001        ..      STR      r0,[sp,#4]
        0x00000d86:    e003        ..      B        0xd90 ; am_util_stdio_vsprintf + 664
        0x00000d88:    e9dd7808    ...x    LDRD     r7,r8,[sp,#0x20]
        0x00000d8c:    2000        .       MOVS     r0,#0
        0x00000d8e:    9001        ..      STR      r0,[sp,#4]
        0x00000d90:    b34e        N.      CBZ      r6,0xde6 ; am_util_stdio_vsprintf + 750
        0x00000d92:    4638        8F      MOV      r0,r7
        0x00000d94:    4641        AF      MOV      r1,r8
        0x00000d96:    f000fbc5    ....    BL       ndigits_in_i64 ; 0x1524
        0x00000d9a:    1a36        6.      SUBS     r6,r6,r0
        0x00000d9c:    9801        ..      LDR      r0,[sp,#4]
        0x00000d9e:    b148        H.      CBZ      r0,0xdb4 ; am_util_stdio_vsprintf + 700
        0x00000da0:    1e76        v.      SUBS     r6,r6,#1
        0x00000da2:    9804        ..      LDR      r0,[sp,#0x10]
        0x00000da4:    2830        0(      CMP      r0,#0x30
        0x00000da6:    d105        ..      BNE      0xdb4 ; am_util_stdio_vsprintf + 700
        0x00000da8:    b114        ..      CBZ      r4,0xdb0 ; am_util_stdio_vsprintf + 696
        0x00000daa:    202d        -       MOVS     r0,#0x2d
        0x00000dac:    f8040b01    ....    STRB     r0,[r4],#1
        0x00000db0:    f1090901    ....    ADD      r9,r9,#1
        0x00000db4:    4632        2F      MOV      r2,r6
        0x00000db6:    4620         F      MOV      r0,r4
        0x00000db8:    9904        ..      LDR      r1,[sp,#0x10]
        0x00000dba:    f000fbe2    ....    BL       padbuffer ; 0x1582
        0x00000dbe:    4606        .F      MOV      r6,r0
        0x00000dc0:    b10c        ..      CBZ      r4,0xdc6 ; am_util_stdio_vsprintf + 718
        0x00000dc2:    4630        0F      MOV      r0,r6
        0x00000dc4:    e000        ..      B        0xdc8 ; am_util_stdio_vsprintf + 720
        0x00000dc6:    2000        .       MOVS     r0,#0
        0x00000dc8:    4404        .D      ADD      r4,r4,r0
        0x00000dca:    44b1        .D      ADD      r9,r9,r6
        0x00000dcc:    2600        .&      MOVS     r6,#0
        0x00000dce:    9801        ..      LDR      r0,[sp,#4]
        0x00000dd0:    b188        ..      CBZ      r0,0xdf6 ; am_util_stdio_vsprintf + 766
        0x00000dd2:    9804        ..      LDR      r0,[sp,#0x10]
        0x00000dd4:    2820         (      CMP      r0,#0x20
        0x00000dd6:    d10e        ..      BNE      0xdf6 ; am_util_stdio_vsprintf + 766
        0x00000dd8:    b114        ..      CBZ      r4,0xde0 ; am_util_stdio_vsprintf + 744
        0x00000dda:    202d        -       MOVS     r0,#0x2d
        0x00000ddc:    f8040b01    ....    STRB     r0,[r4],#1
        0x00000de0:    f1090901    ....    ADD      r9,r9,#1
        0x00000de4:    e007        ..      B        0xdf6 ; am_util_stdio_vsprintf + 766
        0x00000de6:    9801        ..      LDR      r0,[sp,#4]
        0x00000de8:    b128        (.      CBZ      r0,0xdf6 ; am_util_stdio_vsprintf + 766
        0x00000dea:    b114        ..      CBZ      r4,0xdf2 ; am_util_stdio_vsprintf + 762
        0x00000dec:    202d        -       MOVS     r0,#0x2d
        0x00000dee:    f8040b01    ....    STRB     r0,[r4],#1
        0x00000df2:    f1090901    ....    ADD      r9,r9,#1
        0x00000df6:    4622        "F      MOV      r2,r4
        0x00000df8:    4638        8F      MOV      r0,r7
        0x00000dfa:    4641        AF      MOV      r1,r8
        0x00000dfc:    f000fc4e    ..N.    BL       uint64_to_str ; 0x169c
        0x00000e00:    4682        .F      MOV      r10,r0
        0x00000e02:    b104        ..      CBZ      r4,0xe06 ; am_util_stdio_vsprintf + 782
        0x00000e04:    4454        TD      ADD      r4,r4,r10
        0x00000e06:    44d1        .D      ADD      r9,r9,r10
        0x00000e08:    e039        9.      B        0xe7e ; am_util_stdio_vsprintf + 902
        0x00000e0a:    bf00        ..      NOP      
        0x00000e0c:    b37c        |.      CBZ      r4,0xe6e ; am_util_stdio_vsprintf + 886
        0x00000e0e:    980e        ..      LDR      r0,[sp,#0x38]
        0x00000e10:    1dc0        ..      ADDS     r0,r0,#7
        0x00000e12:    f0200007     ...    BIC      r0,r0,#7
        0x00000e16:    900e        ..      STR      r0,[sp,#0x38]
        0x00000e18:    ecb01b02    ....    VLDM     r0!,{d1}
        0x00000e1c:    eeb00a41    ..A.    VMOV.F32 s0,s2
        0x00000e20:    eef00a61    ..a.    VMOV.F32 s1,s3
        0x00000e24:    900e        ..      STR      r0,[sp,#0x38]
        0x00000e26:    ec510b10    Q...    VMOV     r0,r1,d0
        0x00000e2a:    f000fc6f    ..o.    BL       __aeabi_d2f ; 0x170c
        0x00000e2e:    ee080a10    ....    VMOV     s16,r0
        0x00000e32:    2014        .       MOVS     r0,#0x14
        0x00000e34:    6020         `      STR      r0,[r4,#0]
        0x00000e36:    4620         F      MOV      r0,r4
        0x00000e38:    eeb00a48    ..H.    VMOV.F32 s0,s16
        0x00000e3c:    9906        ..      LDR      r1,[sp,#0x18]
        0x00000e3e:    f000f971    ..q.    BL       ftoa ; 0x1124
        0x00000e42:    4682        .F      MOV      r10,r0
        0x00000e44:    f1ba0f00    ....    CMP      r10,#0
        0x00000e48:    da0e        ..      BGE      0xe68 ; am_util_stdio_vsprintf + 880
        0x00000e4a:    f10a0101    ....    ADD      r1,r10,#1
        0x00000e4e:    b909        ..      CBNZ     r1,0xe54 ; am_util_stdio_vsprintf + 860
        0x00000e50:    4813        .H      LDR      r0,[pc,#76] ; [0xea0] = 0x302e30
        0x00000e52:    e005        ..      B        0xe60 ; am_util_stdio_vsprintf + 872
        0x00000e54:    f10a0102    ....    ADD      r1,r10,#2
        0x00000e58:    b909        ..      CBNZ     r1,0xe5e ; am_util_stdio_vsprintf + 870
        0x00000e5a:    4812        .H      LDR      r0,[pc,#72] ; [0xea4] = 0x232e23
        0x00000e5c:    e000        ..      B        0xe60 ; am_util_stdio_vsprintf + 872
        0x00000e5e:    4812        .H      LDR      r0,[pc,#72] ; [0xea8] = 0x3f2e3f
        0x00000e60:    6020         `      STR      r0,[r4,#0]
        0x00000e62:    f04f0a03    O...    MOV      r10,#3
        0x00000e66:    bf00        ..      NOP      
        0x00000e68:    44d1        .D      ADD      r9,r9,r10
        0x00000e6a:    4454        TD      ADD      r4,r4,r10
        0x00000e6c:    bf00        ..      NOP      
        0x00000e6e:    e006        ..      B        0xe7e ; am_util_stdio_vsprintf + 902
        0x00000e70:    b114        ..      CBZ      r4,0xe78 ; am_util_stdio_vsprintf + 896
        0x00000e72:    7828        (x      LDRB     r0,[r5,#0]
        0x00000e74:    f8040b01    ....    STRB     r0,[r4],#1
        0x00000e78:    f1090901    ....    ADD      r9,r9,#1
        0x00000e7c:    bf00        ..      NOP      
        0x00000e7e:    bf00        ..      NOP      
        0x00000e80:    1c6d        m.      ADDS     r5,r5,#1
        0x00000e82:    bf00        ..      NOP      
        0x00000e84:    7828        (x      LDRB     r0,[r5,#0]
        0x00000e86:    2800        .(      CMP      r0,#0
        0x00000e88:    f47fae42    ..B.    BNE      0xb10 ; am_util_stdio_vsprintf + 24
        0x00000e8c:    b104        ..      CBZ      r4,0xe90 ; am_util_stdio_vsprintf + 920
        0x00000e8e:    7020         p      STRB     r0,[r4,#0]
        0x00000e90:    4648        HF      MOV      r0,r9
        0x00000e92:    b00a        ..      ADD      sp,sp,#0x28
        0x00000e94:    ecbd8b02    ....    VPOP     {d8}
        0x00000e98:    e8bd8ffe    ....    POP      {r1-r11,pc}
    $d
        0x00000e9c:    1000006c    l...    DCD    268435564
        0x00000ea0:    00302e30    0.0.    DCD    3157552
        0x00000ea4:    00232e23    #.#.    DCD    2305571
        0x00000ea8:    003f2e3f    ?.?.    DCD    4140607
    $t
    i.am_util_string_strnicmp
    am_util_string_strnicmp
        0x00000eac:    b530        0.      PUSH     {r4,r5,lr}
        0x00000eae:    4603        .F      MOV      r3,r0
        0x00000eb0:    4615        .F      MOV      r5,r2
        0x00000eb2:    e01a        ..      B        0xeea ; am_util_string_strnicmp + 62
        0x00000eb4:    781a        .x      LDRB     r2,[r3,#0]
        0x00000eb6:    780c        .x      LDRB     r4,[r1,#0]
        0x00000eb8:    4810        .H      LDR      r0,[pc,#64] ; [0xefc] = 0x181e
        0x00000eba:    5c80        .\      LDRB     r0,[r0,r2]
        0x00000ebc:    f0000004    ....    AND      r0,r0,#4
        0x00000ec0:    b108        ..      CBZ      r0,0xec6 ; am_util_string_strnicmp + 26
        0x00000ec2:    2020                MOVS     r0,#0x20
        0x00000ec4:    e000        ..      B        0xec8 ; am_util_string_strnicmp + 28
        0x00000ec6:    2000        .       MOVS     r0,#0
        0x00000ec8:    4302        .C      ORRS     r2,r2,r0
        0x00000eca:    480c        .H      LDR      r0,[pc,#48] ; [0xefc] = 0x181e
        0x00000ecc:    5d00        .]      LDRB     r0,[r0,r4]
        0x00000ece:    f0000004    ....    AND      r0,r0,#4
        0x00000ed2:    b108        ..      CBZ      r0,0xed8 ; am_util_string_strnicmp + 44
        0x00000ed4:    2020                MOVS     r0,#0x20
        0x00000ed6:    e000        ..      B        0xeda ; am_util_string_strnicmp + 46
        0x00000ed8:    2000        .       MOVS     r0,#0
        0x00000eda:    4304        .C      ORRS     r4,r4,r0
        0x00000edc:    42a2        .B      CMP      r2,r4
        0x00000ede:    d001        ..      BEQ      0xee4 ; am_util_string_strnicmp + 56
        0x00000ee0:    1b10        ..      SUBS     r0,r2,r4
        0x00000ee2:    bd30        0.      POP      {r4,r5,pc}
        0x00000ee4:    1c5b        [.      ADDS     r3,r3,#1
        0x00000ee6:    1c49        I.      ADDS     r1,r1,#1
        0x00000ee8:    1e6d        m.      SUBS     r5,r5,#1
        0x00000eea:    7818        .x      LDRB     r0,[r3,#0]
        0x00000eec:    b118        ..      CBZ      r0,0xef6 ; am_util_string_strnicmp + 74
        0x00000eee:    7808        .x      LDRB     r0,[r1,#0]
        0x00000ef0:    b108        ..      CBZ      r0,0xef6 ; am_util_string_strnicmp + 74
        0x00000ef2:    2d00        .-      CMP      r5,#0
        0x00000ef4:    d1de        ..      BNE      0xeb4 ; am_util_string_strnicmp + 8
        0x00000ef6:    2000        .       MOVS     r0,#0
        0x00000ef8:    e7f3        ..      B        0xee2 ; am_util_string_strnicmp + 54
    $d
        0x00000efa:    0000        ..      DCW    0
        0x00000efc:    0000181e    ....    DCD    6174
    $t
    i.am_util_time_computeDayofWeek
    am_util_time_computeDayofWeek
        0x00000f00:    e92d47f0    -..G    PUSH     {r4-r10,lr}
        0x00000f04:    4603        .F      MOV      r3,r0
        0x00000f06:    f04f0c00    O...    MOV      r12,#0
        0x00000f0a:    2901        .)      CMP      r1,#1
        0x00000f0c:    db05        ..      BLT      0xf1a ; am_util_time_computeDayofWeek + 26
        0x00000f0e:    290c        .)      CMP      r1,#0xc
        0x00000f10:    dc03        ..      BGT      0xf1a ; am_util_time_computeDayofWeek + 26
        0x00000f12:    2b00        .+      CMP      r3,#0
        0x00000f14:    db01        ..      BLT      0xf1a ; am_util_time_computeDayofWeek + 26
        0x00000f16:    2a01        .*      CMP      r2,#1
        0x00000f18:    da02        ..      BGE      0xf20 ; am_util_time_computeDayofWeek + 32
        0x00000f1a:    2007        .       MOVS     r0,#7
        0x00000f1c:    e8bd87f0    ....    POP      {r4-r10,pc}
        0x00000f20:    1e48        H.      SUBS     r0,r1,#1
        0x00000f22:    f8df80e8    ....    LDR      r8,[pc,#232] ; [0x100c] = 0x1920
        0x00000f26:    f8580020    X. .    LDR      r0,[r8,r0,LSL #2]
        0x00000f2a:    4290        .B      CMP      r0,r2
        0x00000f2c:    d224        $.      BCS      0xf78 ; am_util_time_computeDayofWeek + 120
        0x00000f2e:    2902        .)      CMP      r1,#2
        0x00000f30:    d120         .      BNE      0xf74 ; am_util_time_computeDayofWeek + 116
        0x00000f32:    ea4f78e3    O..x    ASR      r8,r3,#31
        0x00000f36:    eb037898    ...x    ADD      r8,r3,r8,LSR #30
        0x00000f3a:    ea4f08a8    O...    ASR      r8,r8,#2
        0x00000f3e:    eba30888    ....    SUB      r8,r3,r8,LSL #2
        0x00000f42:    f1b80f00    ....    CMP      r8,#0
        0x00000f46:    d115        ..      BNE      0xf74 ; am_util_time_computeDayofWeek + 116
        0x00000f48:    f04f0864    O.d.    MOV      r8,#0x64
        0x00000f4c:    fb93f9f8    ....    SDIV     r9,r3,r8
        0x00000f50:    fb083819    ...8    MLS      r8,r8,r9,r3
        0x00000f54:    f1b80f00    ....    CMP      r8,#0
        0x00000f58:    d108        ..      BNE      0xf6c ; am_util_time_computeDayofWeek + 108
        0x00000f5a:    f44f78c8    O..x    MOV      r8,#0x190
        0x00000f5e:    fb93f9f8    ....    SDIV     r9,r3,r8
        0x00000f62:    fb083819    ...8    MLS      r8,r8,r9,r3
        0x00000f66:    f1b80f00    ....    CMP      r8,#0
        0x00000f6a:    d003        ..      BEQ      0xf74 ; am_util_time_computeDayofWeek + 116
        0x00000f6c:    2a1d        .*      CMP      r2,#0x1d
        0x00000f6e:    d101        ..      BNE      0xf74 ; am_util_time_computeDayofWeek + 116
        0x00000f70:    2400        .$      MOVS     r4,#0
        0x00000f72:    e002        ..      B        0xf7a ; am_util_time_computeDayofWeek + 122
        0x00000f74:    2401        .$      MOVS     r4,#1
        0x00000f76:    e000        ..      B        0xf7a ; am_util_time_computeDayofWeek + 122
        0x00000f78:    2400        .$      MOVS     r4,#0
        0x00000f7a:    b10c        ..      CBZ      r4,0xf80 ; am_util_time_computeDayofWeek + 128
        0x00000f7c:    2007        .       MOVS     r0,#7
        0x00000f7e:    e7cd        ..      B        0xf1c ; am_util_time_computeDayofWeek + 28
        0x00000f80:    f04f0864    O.d.    MOV      r8,#0x64
        0x00000f84:    fb93f9f8    ....    SDIV     r9,r3,r8
        0x00000f88:    4618        .F      MOV      r0,r3
        0x00000f8a:    ea4f78e3    O..x    ASR      r8,r3,#31
        0x00000f8e:    eb037898    ...x    ADD      r8,r3,r8,LSR #30
        0x00000f92:    ea4f0aa8    O...    ASR      r10,r8,#2
        0x00000f96:    f1030802    ....    ADD      r8,r3,#2
        0x00000f9a:    44d0        .D      ADD      r8,r8,r10
        0x00000f9c:    eba80809    ....    SUB      r8,r8,r9
        0x00000fa0:    f44f79c8    O..y    MOV      r9,#0x190
        0x00000fa4:    fb93f9f9    ....    SDIV     r9,r3,r9
        0x00000fa8:    eb080509    ....    ADD      r5,r8,r9
        0x00000fac:    1e48        H.      SUBS     r0,r1,#1
        0x00000fae:    f8df8060    ..`.    LDR      r8,[pc,#96] ; [0x1010] = 0x1950
        0x00000fb2:    f8586020    X. `    LDR      r6,[r8,r0,LSL #2]
        0x00000fb6:    ea4f78e3    O..x    ASR      r8,r3,#31
        0x00000fba:    eb037898    ...x    ADD      r8,r3,r8,LSR #30
        0x00000fbe:    ea4f08a8    O...    ASR      r8,r8,#2
        0x00000fc2:    eba30888    ....    SUB      r8,r3,r8,LSL #2
        0x00000fc6:    f1b80f00    ....    CMP      r8,#0
        0x00000fca:    d115        ..      BNE      0xff8 ; am_util_time_computeDayofWeek + 248
        0x00000fcc:    f04f0864    O.d.    MOV      r8,#0x64
        0x00000fd0:    fb93f9f8    ....    SDIV     r9,r3,r8
        0x00000fd4:    fb083819    ...8    MLS      r8,r8,r9,r3
        0x00000fd8:    f1b80f00    ....    CMP      r8,#0
        0x00000fdc:    d108        ..      BNE      0xff0 ; am_util_time_computeDayofWeek + 240
        0x00000fde:    f44f78c8    O..x    MOV      r8,#0x190
        0x00000fe2:    fb93f9f8    ....    SDIV     r9,r3,r8
        0x00000fe6:    fb083819    ...8    MLS      r8,r8,r9,r3
        0x00000fea:    f1b80f00    ....    CMP      r8,#0
        0x00000fee:    d003        ..      BEQ      0xff8 ; am_util_time_computeDayofWeek + 248
        0x00000ff0:    2903        .)      CMP      r1,#3
        0x00000ff2:    da01        ..      BGE      0xff8 ; am_util_time_computeDayofWeek + 248
        0x00000ff4:    f04f3cff    O..<    MOV      r12,#0xffffffff
        0x00000ff8:    1950        P.      ADDS     r0,r2,r5
        0x00000ffa:    4430        0D      ADD      r0,r0,r6
        0x00000ffc:    eb00070c    ....    ADD      r7,r0,r12
        0x00001000:    2007        .       MOVS     r0,#7
        0x00001002:    fb97f8f0    ....    SDIV     r8,r7,r0
        0x00001006:    fb007018    ...p    MLS      r0,r0,r8,r7
        0x0000100a:    e787        ..      B        0xf1c ; am_util_time_computeDayofWeek + 28
    $d
        0x0000100c:    00001920     ...    DCD    6432
        0x00001010:    00001950    P...    DCD    6480
    $t
    i.decstr_to_int
    decstr_to_int
        0x00001014:    b530        0.      PUSH     {r4,r5,lr}
        0x00001016:    4602        .F      MOV      r2,r0
        0x00001018:    2500        .%      MOVS     r5,#0
        0x0000101a:    2300        .#      MOVS     r3,#0
        0x0000101c:    2400        .$      MOVS     r4,#0
        0x0000101e:    7810        .x      LDRB     r0,[r2,#0]
        0x00001020:    282d        -(      CMP      r0,#0x2d
        0x00001022:    d102        ..      BNE      0x102a ; decstr_to_int + 22
        0x00001024:    2501        .%      MOVS     r5,#1
        0x00001026:    1c52        R.      ADDS     r2,r2,#1
        0x00001028:    1c64        d.      ADDS     r4,r4,#1
        0x0000102a:    e007        ..      B        0x103c ; decstr_to_int + 40
        0x0000102c:    1c64        d.      ADDS     r4,r4,#1
        0x0000102e:    eb030083    ....    ADD      r0,r3,r3,LSL #2
        0x00001032:    0043        C.      LSLS     r3,r0,#1
        0x00001034:    7810        .x      LDRB     r0,[r2,#0]
        0x00001036:    3830        08      SUBS     r0,r0,#0x30
        0x00001038:    4403        .D      ADD      r3,r3,r0
        0x0000103a:    1c52        R.      ADDS     r2,r2,#1
        0x0000103c:    7810        .x      LDRB     r0,[r2,#0]
        0x0000103e:    2830        0(      CMP      r0,#0x30
        0x00001040:    db02        ..      BLT      0x1048 ; decstr_to_int + 52
        0x00001042:    7810        .x      LDRB     r0,[r2,#0]
        0x00001044:    2839        9(      CMP      r0,#0x39
        0x00001046:    ddf1        ..      BLE      0x102c ; decstr_to_int + 24
        0x00001048:    b101        ..      CBZ      r1,0x104c ; decstr_to_int + 56
        0x0000104a:    600c        .`      STR      r4,[r1,#0]
        0x0000104c:    b10d        ..      CBZ      r5,0x1052 ; decstr_to_int + 62
        0x0000104e:    4258        XB      RSBS     r0,r3,#0
        0x00001050:    bd30        0.      POP      {r4,r5,pc}
        0x00001052:    4618        .F      MOV      r0,r3
        0x00001054:    e7fc        ..      B        0x1050 ; decstr_to_int + 60
    i.divu64_10
    divu64_10
        0x00001056:    e92d4ff0    -..O    PUSH     {r4-r11,lr}
        0x0000105a:    4604        .F      MOV      r4,r0
        0x0000105c:    460d        .F      MOV      r5,r1
        0x0000105e:    2000        .       MOVS     r0,#0
        0x00001060:    ea850100    ....    EOR      r1,r5,r0
        0x00001064:    4040        @@      EORS     r0,r0,r0
        0x00001066:    4301        .C      ORRS     r1,r1,r0
        0x00001068:    d044        D.      BEQ      0x10f4 ; divu64_10 + 158
        0x0000106a:    ea5f0a55    _.U.    LSRS     r10,r5,#1
        0x0000106e:    ea4f0134    O.4.    RRX      r1,r4
        0x00001072:    ea4f0b94    O...    LSR      r11,r4,#2
        0x00001076:    ea4b7085    K..p    ORR      r0,r11,r5,LSL #30
        0x0000107a:    180a        ..      ADDS     r2,r1,r0
        0x0000107c:    eb4a0395    J...    ADC      r3,r10,r5,LSR #2
        0x00001080:    ea4f1012    O...    LSR      r0,r2,#4
        0x00001084:    ea407a03    @..z    ORR      r10,r0,r3,LSL #28
        0x00001088:    eb1a0202    ....    ADDS     r2,r10,r2
        0x0000108c:    eb431313    C...    ADC      r3,r3,r3,LSR #4
        0x00001090:    ea4f2012    O..     LSR      r0,r2,#8
        0x00001094:    ea406a03    @..j    ORR      r10,r0,r3,LSL #24
        0x00001098:    eb1a0202    ....    ADDS     r2,r10,r2
        0x0000109c:    eb432313    C..#    ADC      r3,r3,r3,LSR #8
        0x000010a0:    ea4f4012    O..@    LSR      r0,r2,#16
        0x000010a4:    ea404a03    @..J    ORR      r10,r0,r3,LSL #16
        0x000010a8:    eb1a0202    ....    ADDS     r2,r10,r2
        0x000010ac:    eb434313    C..C    ADC      r3,r3,r3,LSR #16
        0x000010b0:    189a        ..      ADDS     r2,r3,r2
        0x000010b2:    f1430300    C...    ADC      r3,r3,#0
        0x000010b6:    08d0        ..      LSRS     r0,r2,#3
        0x000010b8:    ea407243    @.Cr    ORR      r2,r0,r3,LSL #29
        0x000010bc:    08db        ..      LSRS     r3,r3,#3
        0x000010be:    210a        .!      MOVS     r1,#0xa
        0x000010c0:    f04f0a00    O...    MOV      r10,#0
        0x000010c4:    fba20b01    ....    UMULL    r0,r11,r2,r1
        0x000010c8:    fb03b101    ....    MLA      r1,r3,r1,r11
        0x000010cc:    fb02110a    ....    MLA      r1,r2,r10,r1
        0x000010d0:    1a26        &.      SUBS     r6,r4,r0
        0x000010d2:    eb650701    e...    SBC      r7,r5,r1
        0x000010d6:    2106        .!      MOVS     r1,#6
        0x000010d8:    eb160a01    ....    ADDS     r10,r6,r1
        0x000010dc:    f1470100    G...    ADC      r1,r7,#0
        0x000010e0:    ea4f101a    O...    LSR      r0,r10,#4
        0x000010e4:    ea407a01    @..z    ORR      r10,r0,r1,LSL #28
        0x000010e8:    eb1a0002    ....    ADDS     r0,r10,r2
        0x000010ec:    eb431111    C...    ADC      r1,r3,r1,LSR #4
        0x000010f0:    e8bd8ff0    ....    POP      {r4-r11,pc}
        0x000010f4:    46a0        .F      MOV      r8,r4
        0x000010f6:    ea4f0058    O.X.    LSR      r0,r8,#1
        0x000010fa:    eb000c98    ....    ADD      r12,r0,r8,LSR #2
        0x000010fe:    eb0c1c1c    ....    ADD      r12,r12,r12,LSR #4
        0x00001102:    eb0c2c1c    ...,    ADD      r12,r12,r12,LSR #8
        0x00001106:    eb0c4c1c    ...L    ADD      r12,r12,r12,LSR #16
        0x0000110a:    ea4f0cdc    O...    LSR      r12,r12,#3
        0x0000110e:    eb0c008c    ....    ADD      r0,r12,r12,LSL #2
        0x00001112:    eba80940    ..@.    SUB      r9,r8,r0,LSL #1
        0x00001116:    f1090006    ....    ADD      r0,r9,#6
        0x0000111a:    eb0c1010    ....    ADD      r0,r12,r0,LSR #4
        0x0000111e:    2100        .!      MOVS     r1,#0
        0x00001120:    e7e6        ..      B        0x10f0 ; divu64_10 + 154
        0x00001122:    0000        ..      MOVS     r0,r0
    i.ftoa
    ftoa
        0x00001124:    e92d4ff3    -..O    PUSH     {r0,r1,r4-r11,lr}
        0x00001128:    ed2d0b02    -...    VPUSH    {d0}
        0x0000112c:    ed2d8b02    -...    VPUSH    {d8}
        0x00001130:    b081        ..      SUB      sp,sp,#4
        0x00001132:    eeb08a40    ..@.    VMOV.F32 s16,s0
        0x00001136:    4604        .F      MOV      r4,r0
        0x00001138:    f8d4b000    ....    LDR      r11,[r4,#0]
        0x0000113c:    f1bb0f04    ....    CMP      r11,#4
        0x00001140:    da07        ..      BGE      0x1152 ; ftoa + 46
        0x00001142:    f06f0002    o...    MVN      r0,#2
        0x00001146:    b001        ..      ADD      sp,sp,#4
        0x00001148:    ecbd8b02    ....    VPOP     {d8}
        0x0000114c:    b004        ..      ADD      sp,sp,#0x10
        0x0000114e:    e8bd8ff0    ....    POP      {r4-r11,pc}
        0x00001152:    eeb58ac0    ....    VCMPE.F32 s16,#0.0
        0x00001156:    eef1fa10    ....    VMRS     APSR_nzcv,FPSCR
        0x0000115a:    d103        ..      BNE      0x1164 ; ftoa + 64
        0x0000115c:    484e        NH      LDR      r0,[pc,#312] ; [0x1298] = 0x302e30
        0x0000115e:    6020         `      STR      r0,[r4,#0]
        0x00001160:    2003        .       MOVS     r0,#3
        0x00001162:    e7f0        ..      B        0x1146 ; ftoa + 34
        0x00001164:    46a2        .F      MOV      r10,r4
        0x00001166:    ed8d8a00    ....    VSTR     s16,[sp,#0]
        0x0000116a:    9800        ..      LDR      r0,[sp,#0]
        0x0000116c:    f3c050c7    ...P    UBFX     r0,r0,#23,#8
        0x00001170:    f1a0057f    ....    SUB      r5,r0,#0x7f
        0x00001174:    9800        ..      LDR      r0,[sp,#0]
        0x00001176:    f020407f     ..@    BIC      r0,r0,#0xff000000
        0x0000117a:    f4400900    @...    ORR      r9,r0,#0x800000
        0x0000117e:    f04f0800    O...    MOV      r8,#0
        0x00001182:    2700        .'      MOVS     r7,#0
        0x00001184:    2d1f        .-      CMP      r5,#0x1f
        0x00001186:    db01        ..      BLT      0x118c ; ftoa + 104
        0x00001188:    1eb8        ..      SUBS     r0,r7,#2
        0x0000118a:    e7dc        ..      B        0x1146 ; ftoa + 34
        0x0000118c:    f1150f17    ....    CMN      r5,#0x17
        0x00001190:    da02        ..      BGE      0x1198 ; ftoa + 116
        0x00001192:    f04f30ff    O..0    MOV      r0,#0xffffffff
        0x00001196:    e7d6        ..      B        0x1146 ; ftoa + 34
        0x00001198:    2d17        .-      CMP      r5,#0x17
        0x0000119a:    db04        ..      BLT      0x11a6 ; ftoa + 130
        0x0000119c:    f1a50017    ....    SUB      r0,r5,#0x17
        0x000011a0:    fa09f700    ....    LSL      r7,r9,r0
        0x000011a4:    e011        ..      B        0x11ca ; ftoa + 166
        0x000011a6:    2d00        .-      CMP      r5,#0
        0x000011a8:    db09        ..      BLT      0x11be ; ftoa + 154
        0x000011aa:    f1c50017    ....    RSB      r0,r5,#0x17
        0x000011ae:    fa49f700    I...    ASR      r7,r9,r0
        0x000011b2:    1c68        h.      ADDS     r0,r5,#1
        0x000011b4:    fa09f000    ....    LSL      r0,r9,r0
        0x000011b8:    f020487f     ..H    BIC      r8,r0,#0xff000000
        0x000011bc:    e005        ..      B        0x11ca ; ftoa + 166
        0x000011be:    f029407f    )..@    BIC      r0,r9,#0xff000000
        0x000011c2:    1c69        i.      ADDS     r1,r5,#1
        0x000011c4:    4249        IB      RSBS     r1,r1,#0
        0x000011c6:    fa40f801    @...    ASR      r8,r0,r1
        0x000011ca:    9800        ..      LDR      r0,[sp,#0]
        0x000011cc:    2800        .(      CMP      r0,#0
        0x000011ce:    da02        ..      BGE      0x11d6 ; ftoa + 178
        0x000011d0:    202d        -       MOVS     r0,#0x2d
        0x000011d2:    f8040b01    ....    STRB     r0,[r4],#1
        0x000011d6:    b91f        ..      CBNZ     r7,0x11e0 ; ftoa + 188
        0x000011d8:    2030        0       MOVS     r0,#0x30
        0x000011da:    f8040b01    ....    STRB     r0,[r4],#1
        0x000011de:    e014        ..      B        0x120a ; ftoa + 230
        0x000011e0:    2f00        ./      CMP      r7,#0
        0x000011e2:    dd05        ..      BLE      0x11f0 ; ftoa + 204
        0x000011e4:    4622        "F      MOV      r2,r4
        0x000011e6:    4638        8F      MOV      r0,r7
        0x000011e8:    17f9        ..      ASRS     r1,r7,#31
        0x000011ea:    f000fa57    ..W.    BL       uint64_to_str ; 0x169c
        0x000011ee:    e007        ..      B        0x1200 ; ftoa + 220
        0x000011f0:    202d        -       MOVS     r0,#0x2d
        0x000011f2:    f8040b01    ....    STRB     r0,[r4],#1
        0x000011f6:    4622        "F      MOV      r2,r4
        0x000011f8:    4278        xB      RSBS     r0,r7,#0
        0x000011fa:    17c1        ..      ASRS     r1,r0,#31
        0x000011fc:    f000fa4e    ..N.    BL       uint64_to_str ; 0x169c
        0x00001200:    e000        ..      B        0x1204 ; ftoa + 224
        0x00001202:    1c64        d.      ADDS     r4,r4,#1
        0x00001204:    7820         x      LDRB     r0,[r4,#0]
        0x00001206:    2800        .(      CMP      r0,#0
        0x00001208:    d1fb        ..      BNE      0x1202 ; ftoa + 222
        0x0000120a:    202e        .       MOVS     r0,#0x2e
        0x0000120c:    f8040b01    ....    STRB     r0,[r4],#1
        0x00001210:    f1b80f00    ....    CMP      r8,#0
        0x00001214:    d103        ..      BNE      0x121e ; ftoa + 250
        0x00001216:    2030        0       MOVS     r0,#0x30
        0x00001218:    f8040b01    ....    STRB     r0,[r4],#1
        0x0000121c:    e036        6.      B        0x128c ; ftoa + 360
        0x0000121e:    eba4020a    ....    SUB      r2,r4,r10
        0x00001222:    ebab0202    ....    SUB      r2,r11,r2
        0x00001226:    1e51        Q.      SUBS     r1,r2,#1
        0x00001228:    9a06        ..      LDR      r2,[sp,#0x18]
        0x0000122a:    4291        .B      CMP      r1,r2
        0x0000122c:    dd01        ..      BLE      0x1232 ; ftoa + 270
        0x0000122e:    9a06        ..      LDR      r2,[sp,#0x18]
        0x00001230:    e000        ..      B        0x1234 ; ftoa + 272
        0x00001232:    460a        .F      MOV      r2,r1
        0x00001234:    4611        .F      MOV      r1,r2
        0x00001236:    2000        .       MOVS     r0,#0
        0x00001238:    e00b        ..      B        0x1252 ; ftoa + 302
        0x0000123a:    eb080288    ....    ADD      r2,r8,r8,LSL #2
        0x0000123e:    ea4f0842    O.B.    LSL      r8,r2,#1
        0x00001242:    2230        0"      MOVS     r2,#0x30
        0x00001244:    eb026228    ..(b    ADD      r2,r2,r8,ASR #24
        0x00001248:    f8042b01    ...+    STRB     r2,[r4],#1
        0x0000124c:    f028487f    (..H    BIC      r8,r8,#0xff000000
        0x00001250:    1c40        @.      ADDS     r0,r0,#1
        0x00001252:    4288        .B      CMP      r0,r1
        0x00001254:    dbf1        ..      BLT      0x123a ; ftoa + 278
        0x00001256:    eb080288    ....    ADD      r2,r8,r8,LSL #2
        0x0000125a:    0052        R.      LSLS     r2,r2,#1
        0x0000125c:    2305        .#      MOVS     r3,#5
        0x0000125e:    ebb36f22    .."o    CMP      r3,r2,ASR #24
        0x00001262:    dc12        ..      BGT      0x128a ; ftoa + 358
        0x00001264:    1e66        f.      SUBS     r6,r4,#1
        0x00001266:    e00d        ..      B        0x1284 ; ftoa + 352
        0x00001268:    7832        2x      LDRB     r2,[r6,#0]
        0x0000126a:    2a2e        .*      CMP      r2,#0x2e
        0x0000126c:    d009        ..      BEQ      0x1282 ; ftoa + 350
        0x0000126e:    7832        2x      LDRB     r2,[r6,#0]
        0x00001270:    2a39        9*      CMP      r2,#0x39
        0x00001272:    d102        ..      BNE      0x127a ; ftoa + 342
        0x00001274:    2230        0"      MOVS     r2,#0x30
        0x00001276:    7032        2p      STRB     r2,[r6,#0]
        0x00001278:    e003        ..      B        0x1282 ; ftoa + 350
        0x0000127a:    7832        2x      LDRB     r2,[r6,#0]
        0x0000127c:    1c52        R.      ADDS     r2,r2,#1
        0x0000127e:    7032        2p      STRB     r2,[r6,#0]
        0x00001280:    e002        ..      B        0x1288 ; ftoa + 356
        0x00001282:    1e76        v.      SUBS     r6,r6,#1
        0x00001284:    4556        VE      CMP      r6,r10
        0x00001286:    d2ef        ..      BCS      0x1268 ; ftoa + 324
        0x00001288:    bf00        ..      NOP      
        0x0000128a:    bf00        ..      NOP      
        0x0000128c:    2000        .       MOVS     r0,#0
        0x0000128e:    7020         p      STRB     r0,[r4,#0]
        0x00001290:    eba4000a    ....    SUB      r0,r4,r10
        0x00001294:    e757        W.      B        0x1146 ; ftoa + 34
    $d
        0x00001296:    0000        ..      DCW    0
        0x00001298:    00302e30    0.0.    DCD    3157552
    $t
    i.main
    main
        0x0000129c:    2000        .       MOVS     r0,#0
        0x0000129e:    f7fff887    ....    BL       am_hal_clkgen_sysclk_select ; 0x3b0
        0x000012a2:    f7fff823    ..#.    BL       am_bsp_low_power_init ; 0x2ec
        0x000012a6:    2001        .       MOVS     r0,#1
        0x000012a8:    f7fff83c    ..<.    BL       am_hal_clkgen_osc_start ; 0x324
        0x000012ac:    2000        .       MOVS     r0,#0
        0x000012ae:    f7fff9f9    ....    BL       am_hal_rtc_osc_select ; 0x6a4
        0x000012b2:    f7fff9f0    ....    BL       am_hal_rtc_osc_enable ; 0x696
        0x000012b6:    485a        ZH      LDR      r0,[pc,#360] ; [0x1420] = 0x2e9
        0x000012b8:    f7fffc08    ....    BL       am_util_stdio_printf_init ; 0xacc
        0x000012bc:    bf00        ..      NOP      
        0x000012be:    2073        s       MOVS     r0,#0x73
        0x000012c0:    4958        XI      LDR      r1,[pc,#352] ; [0x1424] = 0x40010000
        0x000012c2:    6608        .f      STR      r0,[r1,#0x60]
        0x000012c4:    4608        .F      MOV      r0,r1
        0x000012c6:    6d40        @m      LDR      r0,[r0,#0x54]
        0x000012c8:    f0200070     .p.    BIC      r0,r0,#0x70
        0x000012cc:    6548        He      STR      r0,[r1,#0x54]
        0x000012ce:    4608        .F      MOV      r0,r1
        0x000012d0:    6a80        .j      LDR      r0,[r0,#0x28]
        0x000012d2:    f420407f     ..@    BIC      r0,r0,#0xff00
        0x000012d6:    f4405080    @..P    ORR      r0,r0,#0x1000
        0x000012da:    6288        .b      STR      r0,[r1,#0x28]
        0x000012dc:    2000        .       MOVS     r0,#0
        0x000012de:    6608        .f      STR      r0,[r1,#0x60]
        0x000012e0:    bf00        ..      NOP      
        0x000012e2:    f7fff93f    ..?.    BL       am_hal_itm_enable ; 0x564
        0x000012e6:    f7feffdb    ....    BL       am_bsp_debug_printf_enable ; 0x2a0
        0x000012ea:    a04f        O.      ADR      r0,{pc}+0x13e ; 0x1428
        0x000012ec:    f000f980    ....    BL       toVal ; 0x15f0
        0x000012f0:    4950        PI      LDR      r1,[pc,#320] ; [0x1434] = 0x10000074
        0x000012f2:    61c8        .a      STR      r0,[r1,#0x1c]
        0x000012f4:    a14c        L.      ADR      r1,{pc}+0x134 ; 0x1428
        0x000012f6:    1cc8        ..      ADDS     r0,r1,#3
        0x000012f8:    f000f97a    ..z.    BL       toVal ; 0x15f0
        0x000012fc:    494d        MI      LDR      r1,[pc,#308] ; [0x1434] = 0x10000074
        0x000012fe:    6208        .b      STR      r0,[r1,#0x20]
        0x00001300:    a149        I.      ADR      r1,{pc}+0x128 ; 0x1428
        0x00001302:    1d88        ..      ADDS     r0,r1,#6
        0x00001304:    f000f974    ..t.    BL       toVal ; 0x15f0
        0x00001308:    494a        JI      LDR      r1,[pc,#296] ; [0x1434] = 0x10000074
        0x0000130a:    6248        Hb      STR      r0,[r1,#0x24]
        0x0000130c:    2000        .       MOVS     r0,#0
        0x0000130e:    6288        .b      STR      r0,[r1,#0x28]
        0x00001310:    a149        I.      ADR      r1,{pc}+0x128 ; 0x1438
        0x00001312:    1d08        ..      ADDS     r0,r1,#4
        0x00001314:    f000f96c    ..l.    BL       toVal ; 0x15f0
        0x00001318:    4606        .F      MOV      r6,r0
        0x0000131a:    a047        G.      ADR      r0,{pc}+0x11e ; 0x1438
        0x0000131c:    f000f8d2    ....    BL       mthToIndex ; 0x14c4
        0x00001320:    1c44        D.      ADDS     r4,r0,#1
        0x00001322:    a145        E.      ADR      r1,{pc}+0x116 ; 0x1438
        0x00001324:    f1010009    ....    ADD      r0,r1,#9
        0x00001328:    f000f962    ..b.    BL       toVal ; 0x15f0
        0x0000132c:    f50065fa    ...e    ADD      r5,r0,#0x7d0
        0x00001330:    4632        2F      MOV      r2,r6
        0x00001332:    4621        !F      MOV      r1,r4
        0x00001334:    4628        (F      MOV      r0,r5
        0x00001336:    f7fffde3    ....    BL       am_util_time_computeDayofWeek ; 0xf00
        0x0000133a:    493e        >I      LDR      r1,[pc,#248] ; [0x1434] = 0x10000074
        0x0000133c:    6088        .`      STR      r0,[r1,#8]
        0x0000133e:    a13e        >.      ADR      r1,{pc}+0xfa ; 0x1438
        0x00001340:    1d08        ..      ADDS     r0,r1,#4
        0x00001342:    f000f955    ..U.    BL       toVal ; 0x15f0
        0x00001346:    493b        ;I      LDR      r1,[pc,#236] ; [0x1434] = 0x10000074
        0x00001348:    6188        .a      STR      r0,[r1,#0x18]
        0x0000134a:    a03b        ;.      ADR      r0,{pc}+0xee ; 0x1438
        0x0000134c:    f000f8ba    ....    BL       mthToIndex ; 0x14c4
        0x00001350:    4938        8I      LDR      r1,[pc,#224] ; [0x1434] = 0x10000074
        0x00001352:    6148        Ha      STR      r0,[r1,#0x14]
        0x00001354:    a138        8.      ADR      r1,{pc}+0xe4 ; 0x1438
        0x00001356:    f1010009    ....    ADD      r0,r1,#9
        0x0000135a:    f000f949    ..I.    BL       toVal ; 0x15f0
        0x0000135e:    4935        5I      LDR      r1,[pc,#212] ; [0x1434] = 0x10000074
        0x00001360:    6108        .a      STR      r0,[r1,#0x10]
        0x00001362:    2000        .       MOVS     r0,#0
        0x00001364:    60c8        .`      STR      r0,[r1,#0xc]
        0x00001366:    4608        .F      MOV      r0,r1
        0x00001368:    f7fffa0a    ....    BL       am_hal_rtc_time_set ; 0x780
        0x0000136c:    f000f926    ..&.    BL       timerA0_init ; 0x15bc
        0x00001370:    2001        .       MOVS     r0,#1
        0x00001372:    f7fff865    ..e.    BL       am_hal_ctimer_int_enable ; 0x440
        0x00001376:    201a        .       MOVS     r0,#0x1a
        0x00001378:    f7fff8ce    ....    BL       am_hal_interrupt_enable ; 0x518
        0x0000137c:    f7fefef2    ....    BL       am_hal_interrupt_master_enable ; 0x164
        0x00001380:    f64f71ff    O..q    MOV      r1,#0xffff
        0x00001384:    2000        .       MOVS     r0,#0
        0x00001386:    f7fff8af    ....    BL       am_hal_ctimer_start ; 0x4e8
        0x0000138a:    e048        H.      B        0x141e ; main + 386
        0x0000138c:    f7feff88    ....    BL       am_bsp_debug_printf_enable ; 0x2a0
        0x00001390:    f7fffba2    ....    BL       am_util_stdio_terminal_clear ; 0xad8
        0x00001394:    a02b        +.      ADR      r0,{pc}+0xb0 ; 0x1444
        0x00001396:    f7fffb7b    ..{.    BL       am_util_stdio_printf ; 0xa90
        0x0000139a:    a223        #.      ADR      r2,{pc}+0x8e ; 0x1428
        0x0000139c:    a126        &.      ADR      r1,{pc}+0x9c ; 0x1438
        0x0000139e:    a02e        ..      ADR      r0,{pc}+0xba ; 0x1458
        0x000013a0:    f7fffb76    ..v.    BL       am_util_stdio_printf ; 0xa90
        0x000013a4:    4823        #H      LDR      r0,[pc,#140] ; [0x1434] = 0x10000074
        0x000013a6:    f7fff988    ....    BL       am_hal_rtc_time_get ; 0x6ba
        0x000013aa:    a035        5.      ADR      r0,{pc}+0xd6 ; 0x1480
        0x000013ac:    f7fffb70    ..p.    BL       am_util_stdio_printf ; 0xa90
        0x000013b0:    4820         H      LDR      r0,[pc,#128] ; [0x1434] = 0x10000074
        0x000013b2:    69c1        .i      LDR      r1,[r0,#0x1c]
        0x000013b4:    a035        5.      ADR      r0,{pc}+0xd8 ; 0x148c
        0x000013b6:    f7fffb6b    ..k.    BL       am_util_stdio_printf ; 0xa90
        0x000013ba:    481e        .H      LDR      r0,[pc,#120] ; [0x1434] = 0x10000074
        0x000013bc:    6a01        .j      LDR      r1,[r0,#0x20]
        0x000013be:    a035        5.      ADR      r0,{pc}+0xd6 ; 0x1494
        0x000013c0:    f7fffb66    ..f.    BL       am_util_stdio_printf ; 0xa90
        0x000013c4:    481b        .H      LDR      r0,[pc,#108] ; [0x1434] = 0x10000074
        0x000013c6:    6a41        Aj      LDR      r1,[r0,#0x24]
        0x000013c8:    a034        4.      ADR      r0,{pc}+0xd4 ; 0x149c
        0x000013ca:    f7fffb61    ..a.    BL       am_util_stdio_printf ; 0xa90
        0x000013ce:    4819        .H      LDR      r0,[pc,#100] ; [0x1434] = 0x10000074
        0x000013d0:    6a81        .j      LDR      r1,[r0,#0x28]
        0x000013d2:    a034        4.      ADR      r0,{pc}+0xd2 ; 0x14a4
        0x000013d4:    f7fffb5c    ..\.    BL       am_util_stdio_printf ; 0xa90
        0x000013d8:    4916        .I      LDR      r1,[pc,#88] ; [0x1434] = 0x10000074
        0x000013da:    6889        .h      LDR      r1,[r1,#8]
        0x000013dc:    4a33        3J      LDR      r2,[pc,#204] ; [0x14ac] = 0x10000000
        0x000013de:    f8520021    R.!.    LDR      r0,[r2,r1,LSL #2]
        0x000013e2:    f7fffb55    ..U.    BL       am_util_stdio_printf ; 0xa90
        0x000013e6:    a02a        *.      ADR      r0,{pc}+0xaa ; 0x1490
        0x000013e8:    f7fffb52    ..R.    BL       am_util_stdio_printf ; 0xa90
        0x000013ec:    4911        .I      LDR      r1,[pc,#68] ; [0x1434] = 0x10000074
        0x000013ee:    6949        Ii      LDR      r1,[r1,#0x14]
        0x000013f0:    4a2f        /J      LDR      r2,[pc,#188] ; [0x14b0] = 0x10000020
        0x000013f2:    f8520021    R.!.    LDR      r0,[r2,r1,LSL #2]
        0x000013f6:    f7fffb4b    ..K.    BL       am_util_stdio_printf ; 0xa90
        0x000013fa:    a025        %.      ADR      r0,{pc}+0x96 ; 0x1490
        0x000013fc:    f7fffb48    ..H.    BL       am_util_stdio_printf ; 0xa90
        0x00001400:    480c        .H      LDR      r0,[pc,#48] ; [0x1434] = 0x10000074
        0x00001402:    6981        .i      LDR      r1,[r0,#0x18]
        0x00001404:    a02b        +.      ADR      r0,{pc}+0xb0 ; 0x14b4
        0x00001406:    f7fffb43    ..C.    BL       am_util_stdio_printf ; 0xa90
        0x0000140a:    480a        .H      LDR      r0,[pc,#40] ; [0x1434] = 0x10000074
        0x0000140c:    6901        .i      LDR      r1,[r0,#0x10]
        0x0000140e:    a02b        +.      ADR      r0,{pc}+0xae ; 0x14bc
        0x00001410:    f7fffb3e    ..>.    BL       am_util_stdio_printf ; 0xa90
        0x00001414:    f7feff22    ..".    BL       am_bsp_debug_printf_disable ; 0x25c
        0x00001418:    2001        .       MOVS     r0,#1
        0x0000141a:    f7fffa69    ..i.    BL       am_hal_sysctrl_sleep ; 0x8f0
        0x0000141e:    e7b5        ..      B        0x138c ; main + 240
    $d
        0x00001420:    000002e9    ....    DCD    745
        0x00001424:    40010000    ...@    DCD    1073807360
        0x00001428:    333a3731    17:3    DCD    859453233
        0x0000142c:    31313a37    7:11    DCD    825309751
        0x00001430:    00000000    ....    DCD    0
        0x00001434:    10000074    t...    DCD    268435572
        0x00001438:    20626546    Feb     DCD    543319366
        0x0000143c:    32203720     7 2    DCD    840972064
        0x00001440:    00303230    020.    DCD    3158576
        0x00001444:    20435452    RTC     DCD    541283410
        0x00001448:    6e697250    Prin    DCD    1852404304
        0x0000144c:    78452074    t Ex    DCD    2017796212
        0x00001450:    6c706d61    ampl    DCD    1819307361
        0x00001454:    00000a65    e...    DCD    2661
        0x00001458:    73696854    This    DCD    1936287828
        0x0000145c:    61786520     exa    DCD    1635280160
        0x00001460:    656c706d    mple    DCD    1701605485
        0x00001464:    73617720     was    DCD    1935767328
        0x00001468:    69756220     bui    DCD    1769300512
        0x0000146c:    6f20746c    lt o    DCD    1864397932
        0x00001470:    7325206e    n %s    DCD    1931812974
        0x00001474:    20746120     at     DCD    544497952
        0x00001478:    0a2e7325    %s..    DCD    170816293
        0x0000147c:    0000000a    ....    DCD    10
        0x00001480:    20744909    .It     DCD    544491785
        0x00001484:    6e207369    is n    DCD    1847620457
        0x00001488:    0020776f    ow .    DCD    2127727
        0x0000148c:    3a206425    %d :    DCD    975201317
        0x00001490:    00000020     ...    DCD    32
        0x00001494:    64323025    %02d    DCD    1681010725
        0x00001498:    00203a20     : .    DCD    2112032
        0x0000149c:    64323025    %02d    DCD    1681010725
        0x000014a0:    0000002e    ....    DCD    46
        0x000014a4:    64323025    %02d    DCD    1681010725
        0x000014a8:    00000020     ...    DCD    32
        0x000014ac:    10000000    ....    DCD    268435456
        0x000014b0:    10000020     ...    DCD    268435488
        0x000014b4:    202c6425    %d,     DCD    539780133
        0x000014b8:    00000000    ....    DCD    0
        0x000014bc:    30253032    20%0    DCD    807743538
        0x000014c0:    00006432    2d..    DCD    25650
    $t
    i.mthToIndex
    mthToIndex
        0x000014c4:    b570        p.      PUSH     {r4-r6,lr}
        0x000014c6:    4605        .F      MOV      r5,r0
        0x000014c8:    2400        .$      MOVS     r4,#0
        0x000014ca:    e00a        ..      B        0x14e2 ; mthToIndex + 30
        0x000014cc:    4907        .I      LDR      r1,[pc,#28] ; [0x14ec] = 0x10000020
        0x000014ce:    f8510024    Q.$.    LDR      r0,[r1,r4,LSL #2]
        0x000014d2:    2203        ."      MOVS     r2,#3
        0x000014d4:    4629        )F      MOV      r1,r5
        0x000014d6:    f7fffce9    ....    BL       am_util_string_strnicmp ; 0xeac
        0x000014da:    b908        ..      CBNZ     r0,0x14e0 ; mthToIndex + 28
        0x000014dc:    4620         F      MOV      r0,r4
        0x000014de:    bd70        p.      POP      {r4-r6,pc}
        0x000014e0:    1c64        d.      ADDS     r4,r4,#1
        0x000014e2:    2c0c        .,      CMP      r4,#0xc
        0x000014e4:    dbf2        ..      BLT      0x14cc ; mthToIndex + 8
        0x000014e6:    200c        .       MOVS     r0,#0xc
        0x000014e8:    e7f9        ..      B        0x14de ; mthToIndex + 26
    $d
        0x000014ea:    0000        ..      DCW    0
        0x000014ec:    10000020     ...    DCD    268435488
    $t
    i.ndigits_in_hex
    ndigits_in_hex
        0x000014f0:    b530        0.      PUSH     {r4,r5,lr}
        0x000014f2:    4602        .F      MOV      r2,r0
        0x000014f4:    460b        .F      MOV      r3,r1
        0x000014f6:    2400        .$      MOVS     r4,#0
        0x000014f8:    ea820104    ....    EOR      r1,r2,r4
        0x000014fc:    405c        \@      EORS     r4,r4,r3
        0x000014fe:    4321        !C      ORRS     r1,r1,r4
        0x00001500:    d101        ..      BNE      0x1506 ; ndigits_in_hex + 22
        0x00001502:    2101        .!      MOVS     r1,#1
        0x00001504:    e000        ..      B        0x1508 ; ndigits_in_hex + 24
        0x00001506:    2100        .!      MOVS     r1,#0
        0x00001508:    4608        .F      MOV      r0,r1
        0x0000150a:    e004        ..      B        0x1516 ; ndigits_in_hex + 38
        0x0000150c:    0911        ..      LSRS     r1,r2,#4
        0x0000150e:    ea417203    A..r    ORR      r2,r1,r3,LSL #28
        0x00001512:    091b        ..      LSRS     r3,r3,#4
        0x00001514:    1c40        @.      ADDS     r0,r0,#1
        0x00001516:    2400        .$      MOVS     r4,#0
        0x00001518:    ea820104    ....    EOR      r1,r2,r4
        0x0000151c:    405c        \@      EORS     r4,r4,r3
        0x0000151e:    4321        !C      ORRS     r1,r1,r4
        0x00001520:    d1f4        ..      BNE      0x150c ; ndigits_in_hex + 28
        0x00001522:    bd30        0.      POP      {r4,r5,pc}
    i.ndigits_in_i64
    ndigits_in_i64
        0x00001524:    b570        p.      PUSH     {r4-r6,lr}
        0x00001526:    4604        .F      MOV      r4,r0
        0x00001528:    460d        .F      MOV      r5,r1
        0x0000152a:    2100        .!      MOVS     r1,#0
        0x0000152c:    4608        .F      MOV      r0,r1
        0x0000152e:    1a61        a.      SUBS     r1,r4,r1
        0x00001530:    eb750000    u...    SBCS     r0,r5,r0
        0x00001534:    da03        ..      BGE      0x153e ; ndigits_in_i64 + 26
        0x00001536:    2200        ."      MOVS     r2,#0
        0x00001538:    4264        dB      RSBS     r4,r4,#0
        0x0000153a:    eb620505    b...    SBC      r5,r2,r5
        0x0000153e:    4620         F      MOV      r0,r4
        0x00001540:    4629        )F      MOV      r1,r5
        0x00001542:    f000f801    ....    BL       ndigits_in_u64 ; 0x1548
        0x00001546:    bd70        p.      POP      {r4-r6,pc}
    i.ndigits_in_u64
    ndigits_in_u64
        0x00001548:    b570        p.      PUSH     {r4-r6,lr}
        0x0000154a:    4604        .F      MOV      r4,r0
        0x0000154c:    460d        .F      MOV      r5,r1
        0x0000154e:    2100        .!      MOVS     r1,#0
        0x00001550:    ea840001    ....    EOR      r0,r4,r1
        0x00001554:    4069        i@      EORS     r1,r1,r5
        0x00001556:    4308        .C      ORRS     r0,r0,r1
        0x00001558:    d101        ..      BNE      0x155e ; ndigits_in_u64 + 22
        0x0000155a:    2001        .       MOVS     r0,#1
        0x0000155c:    e000        ..      B        0x1560 ; ndigits_in_u64 + 24
        0x0000155e:    2000        .       MOVS     r0,#0
        0x00001560:    4606        .F      MOV      r6,r0
        0x00001562:    e006        ..      B        0x1572 ; ndigits_in_u64 + 42
        0x00001564:    4620         F      MOV      r0,r4
        0x00001566:    4629        )F      MOV      r1,r5
        0x00001568:    f7fffd75    ..u.    BL       divu64_10 ; 0x1056
        0x0000156c:    4604        .F      MOV      r4,r0
        0x0000156e:    460d        .F      MOV      r5,r1
        0x00001570:    1c76        v.      ADDS     r6,r6,#1
        0x00001572:    2100        .!      MOVS     r1,#0
        0x00001574:    ea840001    ....    EOR      r0,r4,r1
        0x00001578:    4069        i@      EORS     r1,r1,r5
        0x0000157a:    4308        .C      ORRS     r0,r0,r1
        0x0000157c:    d1f2        ..      BNE      0x1564 ; ndigits_in_u64 + 28
        0x0000157e:    4630        0F      MOV      r0,r6
        0x00001580:    bd70        p.      POP      {r4-r6,pc}
    i.padbuffer
    padbuffer
        0x00001582:    b530        0.      PUSH     {r4,r5,lr}
        0x00001584:    4603        .F      MOV      r3,r0
        0x00001586:    2000        .       MOVS     r0,#0
        0x00001588:    2a00        .*      CMP      r2,#0
        0x0000158a:    dc00        ..      BGT      0x158e ; padbuffer + 12
        0x0000158c:    bd30        0.      POP      {r4,r5,pc}
        0x0000158e:    e003        ..      B        0x1598 ; padbuffer + 22
        0x00001590:    b10b        ..      CBZ      r3,0x1596 ; padbuffer + 20
        0x00001592:    f8031b01    ....    STRB     r1,[r3],#1
        0x00001596:    1c40        @.      ADDS     r0,r0,#1
        0x00001598:    1e14        ..      SUBS     r4,r2,#0
        0x0000159a:    f1a20201    ....    SUB      r2,r2,#1
        0x0000159e:    d1f7        ..      BNE      0x1590 ; padbuffer + 14
        0x000015a0:    bf00        ..      NOP      
        0x000015a2:    e7f3        ..      B        0x158c ; padbuffer + 10
    i.simple_strlen
    simple_strlen
        0x000015a4:    4601        .F      MOV      r1,r0
        0x000015a6:    2000        .       MOVS     r0,#0
        0x000015a8:    b901        ..      CBNZ     r1,0x15ac ; simple_strlen + 8
        0x000015aa:    4770        pG      BX       lr
        0x000015ac:    e000        ..      B        0x15b0 ; simple_strlen + 12
        0x000015ae:    1c40        @.      ADDS     r0,r0,#1
        0x000015b0:    f8113b01    ...;    LDRB     r3,[r1],#1
        0x000015b4:    2b00        .+      CMP      r3,#0
        0x000015b6:    d1fa        ..      BNE      0x15ae ; simple_strlen + 10
        0x000015b8:    bf00        ..      NOP      
        0x000015ba:    e7f6        ..      B        0x15aa ; simple_strlen + 6
    i.timerA0_init
    timerA0_init
        0x000015bc:    b510        ..      PUSH     {r4,lr}
        0x000015be:    2002        .       MOVS     r0,#2
        0x000015c0:    f7fefeb0    ....    BL       am_hal_clkgen_osc_start ; 0x324
        0x000015c4:    f64f71ff    O..q    MOV      r1,#0xffff
        0x000015c8:    2000        .       MOVS     r0,#0
        0x000015ca:    f7fefef9    ....    BL       am_hal_ctimer_clear ; 0x3c0
        0x000015ce:    4907        .I      LDR      r1,[pc,#28] ; [0x15ec] = 0x10000054
        0x000015d0:    2000        .       MOVS     r0,#0
        0x000015d2:    f7feff09    ....    BL       am_hal_ctimer_config ; 0x3e8
        0x000015d6:    2300        .#      MOVS     r3,#0
        0x000015d8:    221f        ."      MOVS     r2,#0x1f
        0x000015da:    f64f71ff    O..q    MOV      r1,#0xffff
        0x000015de:    4618        .F      MOV      r0,r3
        0x000015e0:    f7feff40    ..@.    BL       am_hal_ctimer_period_set ; 0x464
        0x000015e4:    2001        .       MOVS     r0,#1
        0x000015e6:    f7feff25    ..%.    BL       am_hal_ctimer_int_clear ; 0x434
        0x000015ea:    bd10        ..      POP      {r4,pc}
    $d
        0x000015ec:    10000054    T...    DCD    268435540
    $t
    i.toVal
    toVal
        0x000015f0:    4601        .F      MOV      r1,r0
        0x000015f2:    2000        .       MOVS     r0,#0
        0x000015f4:    784a        Jx      LDRB     r2,[r1,#1]
        0x000015f6:    3a30        0:      SUBS     r2,r2,#0x30
        0x000015f8:    4410        .D      ADD      r0,r0,r2
        0x000015fa:    780a        .x      LDRB     r2,[r1,#0]
        0x000015fc:    2a20         *      CMP      r2,#0x20
        0x000015fe:    d101        ..      BNE      0x1604 ; toVal + 20
        0x00001600:    2200        ."      MOVS     r2,#0
        0x00001602:    e004        ..      B        0x160e ; toVal + 30
        0x00001604:    780a        .x      LDRB     r2,[r1,#0]
        0x00001606:    3a30        0:      SUBS     r2,r2,#0x30
        0x00001608:    eb020282    ....    ADD      r2,r2,r2,LSL #2
        0x0000160c:    0052        R.      LSLS     r2,r2,#1
        0x0000160e:    4410        .D      ADD      r0,r0,r2
        0x00001610:    4770        pG      BX       lr
    i.uint64_to_hexstr
    uint64_to_hexstr
        0x00001612:    e92d41f0    -..A    PUSH     {r4-r8,lr}
        0x00001616:    b085        ..      SUB      sp,sp,#0x14
        0x00001618:    4604        .F      MOV      r4,r0
        0x0000161a:    460d        .F      MOV      r5,r1
        0x0000161c:    461e        .F      MOV      r6,r3
        0x0000161e:    2100        .!      MOVS     r1,#0
        0x00001620:    468c        .F      MOV      r12,r1
        0x00001622:    ea84070c    ....    EOR      r7,r4,r12
        0x00001626:    ea850c0c    ....    EOR      r12,r5,r12
        0x0000162a:    ea57070c    W...    ORRS     r7,r7,r12
        0x0000162e:    d105        ..      BNE      0x163c ; uint64_to_hexstr + 42
        0x00001630:    f04f0830    O.0.    MOV      r8,#0x30
        0x00001634:    460f        .F      MOV      r7,r1
        0x00001636:    1c49        I.      ADDS     r1,r1,#1
        0x00001638:    f80d8007    ....    STRB     r8,[sp,r7]
        0x0000163c:    e016        ..      B        0x166c ; uint64_to_hexstr + 90
        0x0000163e:    270f        .'      MOVS     r7,#0xf
        0x00001640:    4027        '@      ANDS     r7,r7,r4
        0x00001642:    b2fb        ..      UXTB     r3,r7
        0x00001644:    2b09        .+      CMP      r3,#9
        0x00001646:    dd05        ..      BLE      0x1654 ; uint64_to_hexstr + 66
        0x00001648:    b10e        ..      CBZ      r6,0x164e ; uint64_to_hexstr + 60
        0x0000164a:    2727        ''      MOVS     r7,#0x27
        0x0000164c:    e000        ..      B        0x1650 ; uint64_to_hexstr + 62
        0x0000164e:    2707        .'      MOVS     r7,#7
        0x00001650:    441f        .D      ADD      r7,r7,r3
        0x00001652:    b2fb        ..      UXTB     r3,r7
        0x00001654:    f1030730    ..0.    ADD      r7,r3,#0x30
        0x00001658:    f00708ff    ....    AND      r8,r7,#0xff
        0x0000165c:    460f        .F      MOV      r7,r1
        0x0000165e:    1c49        I.      ADDS     r1,r1,#1
        0x00001660:    f80d8007    ....    STRB     r8,[sp,r7]
        0x00001664:    0927        '.      LSRS     r7,r4,#4
        0x00001666:    ea477405    G..t    ORR      r4,r7,r5,LSL #28
        0x0000166a:    092d        -.      LSRS     r5,r5,#4
        0x0000166c:    f04f0c00    O...    MOV      r12,#0
        0x00001670:    ea84070c    ....    EOR      r7,r4,r12
        0x00001674:    ea850c0c    ....    EOR      r12,r5,r12
        0x00001678:    ea57070c    W...    ORRS     r7,r7,r12
        0x0000167c:    d1df        ..      BNE      0x163e ; uint64_to_hexstr + 44
        0x0000167e:    4608        .F      MOV      r0,r1
        0x00001680:    b14a        J.      CBZ      r2,0x1696 ; uint64_to_hexstr + 132
        0x00001682:    e003        ..      B        0x168c ; uint64_to_hexstr + 122
        0x00001684:    f81d7001    ...p    LDRB     r7,[sp,r1]
        0x00001688:    f8027b01    ...{    STRB     r7,[r2],#1
        0x0000168c:    1e0f        ..      SUBS     r7,r1,#0
        0x0000168e:    f1a10101    ....    SUB      r1,r1,#1
        0x00001692:    d1f7        ..      BNE      0x1684 ; uint64_to_hexstr + 114
        0x00001694:    7017        .p      STRB     r7,[r2,#0]
        0x00001696:    b005        ..      ADD      sp,sp,#0x14
        0x00001698:    e8bd81f0    ....    POP      {r4-r8,pc}
    i.uint64_to_str
    uint64_to_str
        0x0000169c:    e92d4ff0    -..O    PUSH     {r4-r11,lr}
        0x000016a0:    b087        ..      SUB      sp,sp,#0x1c
        0x000016a2:    4607        .F      MOV      r7,r0
        0x000016a4:    4688        .F      MOV      r8,r1
        0x000016a6:    4616        .F      MOV      r6,r2
        0x000016a8:    f04f0900    O...    MOV      r9,#0
        0x000016ac:    46cb        .F      MOV      r11,r9
        0x000016ae:    bf00        ..      NOP      
        0x000016b0:    4638        8F      MOV      r0,r7
        0x000016b2:    4641        AF      MOV      r1,r8
        0x000016b4:    f7fffccf    ....    BL       divu64_10 ; 0x1056
        0x000016b8:    4604        .F      MOV      r4,r0
        0x000016ba:    460d        .F      MOV      r5,r1
        0x000016bc:    210a        .!      MOVS     r1,#0xa
        0x000016be:    fba40101    ....    UMULL    r0,r1,r4,r1
        0x000016c2:    ebb70a00    ....    SUBS     r10,r7,r0
        0x000016c6:    f10a0030    ..0.    ADD      r0,r10,#0x30
        0x000016ca:    b2c2        ..      UXTB     r2,r0
        0x000016cc:    4648        HF      MOV      r0,r9
        0x000016ce:    f1090901    ....    ADD      r9,r9,#1
        0x000016d2:    f80d2000    ...     STRB     r2,[sp,r0]
        0x000016d6:    4627        'F      MOV      r7,r4
        0x000016d8:    46a8        .F      MOV      r8,r5
        0x000016da:    f04f0200    O...    MOV      r2,#0
        0x000016de:    ea870002    ....    EOR      r0,r7,r2
        0x000016e2:    ea880102    ....    EOR      r1,r8,r2
        0x000016e6:    4308        .C      ORRS     r0,r0,r1
        0x000016e8:    d1e2        ..      BNE      0x16b0 ; uint64_to_str + 20
        0x000016ea:    46cb        .F      MOV      r11,r9
        0x000016ec:    b156        V.      CBZ      r6,0x1704 ; uint64_to_str + 104
        0x000016ee:    e003        ..      B        0x16f8 ; uint64_to_str + 92
        0x000016f0:    f81d0009    ....    LDRB     r0,[sp,r9]
        0x000016f4:    f8060b01    ....    STRB     r0,[r6],#1
        0x000016f8:    f1b90000    ....    SUBS     r0,r9,#0
        0x000016fc:    f1a90901    ....    SUB      r9,r9,#1
        0x00001700:    d1f6        ..      BNE      0x16f0 ; uint64_to_str + 84
        0x00001702:    7030        0p      STRB     r0,[r6,#0]
        0x00001704:    4658        XF      MOV      r0,r11
        0x00001706:    b007        ..      ADD      sp,sp,#0x1c
        0x00001708:    e8bd8ff0    ....    POP      {r4-r11,pc}
    x$fpl$d2f
    $v0
    __aeabi_d2f
    _d2f
        0x0000170c:    f0214200    !..B    BIC      r2,r1,#0x80000000
        0x00001710:    f1a25260    ..`R    SUB      r2,r2,#0x38000000
        0x00001714:    f5b21f80    ....    CMP      r2,#0x100000
        0x00001718:    f0014300    ...C    AND      r3,r1,#0x80000000
        0x0000171c:    bf28        (.      IT       CS
        0x0000171e:    f1d26c7f    ...l    RSBSCS   r12,r2,#0xff00000
        0x00001722:    d90b        ..      BLS      0x173c ; __aeabi_d2f + 48
        0x00001724:    ea5f1c00    _...    LSLS     r12,r0,#4
        0x00001728:    ea4302c2    C...    ORR      r2,r3,r2,LSL #3
        0x0000172c:    eb427050    B.Pp    ADC      r0,r2,r0,LSR #29
        0x00001730:    bf18        ..      IT       NE
        0x00001732:    4770        pG      BXNE     lr
        0x00001734:    bf28        (.      IT       CS
        0x00001736:    f0200001     ...    BICCS    r0,r0,#1
        0x0000173a:    4770        pG      BX       lr
        0x0000173c:    f5b21f80    ....    CMP      r2,#0x100000
        0x00001740:    bfbc        ..      ITT      LT
        0x00001742:    4618        .F      MOVLT    r0,r3
        0x00001744:    4770        pG      BXLT     lr
        0x00001746:    ea4f0c41    O.A.    LSL      r12,r1,#1
        0x0000174a:    f51c1f00    ....    CMN      r12,#0x200000
        0x0000174e:    d202        ..      BCS      0x1756 ; __aeabi_d2f + 74
        0x00001750:    4608        .F      MOV      r0,r1
        0x00001752:    f000b85f    .._.    B.W      __fpl_fretinf ; 0x1814
        0x00001756:    b570        p.      PUSH     {r4-r6,lr}
        0x00001758:    f000f809    ....    BL       __fpl_dnaninf ; 0x176e
    $d
        0x0000175c:    89000000    ....    DCD    2298478592
    $t
        0x00001760:    f7ffbff6    ....    B.W      0x1750 ; __aeabi_d2f + 68
        0x00001764:    f04f4000    O..@    MOV      r0,#0x80000000
        0x00001768:    f5a00080    ....    SUB      r0,r0,#0x400000
        0x0000176c:    4770        pG      BX       lr
    x$fpl$dnaninf
    $v0
    __fpl_dnaninf
        0x0000176e:    f10e0e02    ....    ADD      lr,lr,#2
        0x00001772:    f02e0e03    ....    BIC      lr,lr,#3
        0x00001776:    f85e6b04    ^..k    LDR      r6,[lr],#4
        0x0000177a:    4236        6B      TST      r6,r6
        0x0000177c:    d405        ..      BMI      0x178a ; __fpl_dnaninf + 28
        0x0000177e:    2a01        .*      CMP      r2,#1
        0x00001780:    eb430503    C...    ADC      r5,r3,r3
        0x00001784:    f5151f00    ....    CMN      r5,#0x200000
        0x00001788:    d812        ..      BHI      0x17b0 ; __fpl_dnaninf + 66
        0x0000178a:    2801        .(      CMP      r0,#1
        0x0000178c:    eb410c01    A...    ADC      r12,r1,r1
        0x00001790:    f51c1f00    ....    CMN      r12,#0x200000
        0x00001794:    d80c        ..      BHI      0x17b0 ; __fpl_dnaninf + 66
        0x00001796:    d10e        ..      BNE      0x17b6 ; __fpl_dnaninf + 72
        0x00001798:    ea4f7cd1    O..|    LSR      r12,r1,#31
        0x0000179c:    f5151f00    ....    CMN      r5,#0x200000
        0x000017a0:    eb0c0c4c    ..L.    ADD      r12,r12,r12,LSL #1
        0x000017a4:    f10c0c02    ....    ADD      r12,r12,#2
        0x000017a8:    bf08        ..      IT       EQ
        0x000017aa:    eb4c7cd3    L..|    ADCEQ    r12,r12,r3,LSR #31
        0x000017ae:    e004        ..      B        0x17ba ; __fpl_dnaninf + 76
        0x000017b0:    f04f0c08    O...    MOV      r12,#8
        0x000017b4:    e001        ..      B        0x17ba ; __fpl_dnaninf + 76
        0x000017b6:    ea4f7cd3    O..|    LSR      r12,r3,#31
        0x000017ba:    eb0c054c    ..L.    ADD      r5,r12,r12,LSL #1
        0x000017be:    fa26f605    &...    LSR      r6,r6,r5
        0x000017c2:    f0060607    ....    AND      r6,r6,#7
        0x000017c6:    f1b60c04    ....    SUBS     r12,r6,#4
        0x000017ca:    d206        ..      BCS      0x17da ; __fpl_dnaninf + 108
        0x000017cc:    eb0e0c86    ....    ADD      r12,lr,r6,LSL #2
        0x000017d0:    e8bd4070    ..p@    POP      {r4-r6,lr}
        0x000017d4:    f04c0c01    L...    ORR      r12,r12,#1
        0x000017d8:    4760        `G      BX       r12
        0x000017da:    e8dff00c    ....    TBB      [pc,r12]
    $d
        0x000017de:    0b09        ..      DCW    2825
        0x000017e0:    0202        ..      DCW    514
    $t
        0x000017e2:    f04f4100    O..A    MOV      r1,#0x80000000
        0x000017e6:    f04f0000    O...    MOV      r0,#0
        0x000017ea:    f5a12100    ...!    SUB      r1,r1,#0x80000
        0x000017ee:    bd70        p.      POP      {r4-r6,pc}
        0x000017f0:    4619        .F      MOV      r1,r3
        0x000017f2:    4610        .F      MOV      r0,r2
        0x000017f4:    2801        .(      CMP      r0,#1
        0x000017f6:    eb510401    Q...    ADCS     r4,r1,r1
        0x000017fa:    bf18        ..      IT       NE
        0x000017fc:    f5d41400    ....    RSBSNE   r4,r4,#0x200000
        0x00001800:    bf84        ..      ITT      HI
        0x00001802:    2000        .       MOVHI    r0,#0
        0x00001804:    f0014100    ...A    ANDHI    r1,r1,#0x80000000
        0x00001808:    bd70        p.      POP      {r4-r6,pc}
    x$fpl$fpinit
    $v0
    _fp_init
        0x0000180a:    f04f7040    O.@p    MOV      r0,#0x3000000
        0x0000180e:    eee10a10    ....    VMSR     FPSCR,r0
    __fplib_config_fpu_vfp
    __fplib_config_pureend_doubles
        0x00001812:    4770        pG      BX       lr
    x$fpl$fretinf
    $v0
    __fpl_fretinf
        0x00001814:    21ff        .!      MOVS     r1,#0xff
        0x00001816:    ea4150d0    A..P    ORR      r0,r1,r0,LSR #23
        0x0000181a:    05c0        ..      LSLS     r0,r0,#23
        0x0000181c:    4770        pG      BX       lr
    $d.realdata
    .constdata
    x$fpl$usenofp
    __I$use$fp
    am_cattr
        0x0000181e:    0000        ..      DCW    0
        0x00001820:    00000000    ....    DCD    0
        0x00001824:    20000000    ...     DCD    536870912
        0x00001828:    20202020            DCD    538976288
        0x0000182c:    00000000    ....    DCD    0
        0x00001830:    00000000    ....    DCD    0
        0x00001834:    00000000    ....    DCD    0
        0x00001838:    00000000    ....    DCD    0
        0x0000183c:    80200000    .. .    DCD    2149580800
        0x00001840:    80808000    ....    DCD    2155905024
        0x00001844:    80808080    ....    DCD    2155905152
        0x00001848:    80000000    ....    DCD    2147483648
        0x0000184c:    98980080    ....    DCD    2560098432
        0x00001850:    98989898    ....    DCD    2560137368
        0x00001854:    98989898    ....    DCD    2560137368
        0x00001858:    00000000    ....    DCD    0
        0x0000185c:    95800000    ....    DCD    2508193792
        0x00001860:    95959595    ....    DCD    2509608341
        0x00001864:    85858595    ....    DCD    2240120213
        0x00001868:    85858585    ....    DCD    2240120197
        0x0000186c:    85858585    ....    DCD    2240120197
        0x00001870:    85858585    ....    DCD    2240120197
        0x00001874:    85858585    ....    DCD    2240120197
        0x00001878:    00000085    ....    DCD    133
        0x0000187c:    93808080    ....    DCD    2474672256
        0x00001880:    93939393    ....    DCD    2475922323
        0x00001884:    83838393    ....    DCD    2206434195
        0x00001888:    83838383    ....    DCD    2206434179
        0x0000188c:    83838383    ....    DCD    2206434179
        0x00001890:    83838383    ....    DCD    2206434179
        0x00001894:    83838383    ....    DCD    2206434179
        0x00001898:    80008083    ....    DCD    2147516547
        0x0000189c:    00000080    ....    DCD    128
        0x000018a0:    00000000    ....    DCD    0
        0x000018a4:    00000000    ....    DCD    0
        0x000018a8:    00000000    ....    DCD    0
        0x000018ac:    00000000    ....    DCD    0
        0x000018b0:    00000000    ....    DCD    0
        0x000018b4:    00000000    ....    DCD    0
        0x000018b8:    00000000    ....    DCD    0
        0x000018bc:    00000000    ....    DCD    0
        0x000018c0:    00000000    ....    DCD    0
        0x000018c4:    00000000    ....    DCD    0
        0x000018c8:    00000000    ....    DCD    0
        0x000018cc:    00000000    ....    DCD    0
        0x000018d0:    00000000    ....    DCD    0
        0x000018d4:    00000000    ....    DCD    0
        0x000018d8:    00000000    ....    DCD    0
        0x000018dc:    00000000    ....    DCD    0
        0x000018e0:    00000000    ....    DCD    0
        0x000018e4:    00000000    ....    DCD    0
        0x000018e8:    00000000    ....    DCD    0
        0x000018ec:    00000000    ....    DCD    0
        0x000018f0:    00000000    ....    DCD    0
        0x000018f4:    00000000    ....    DCD    0
        0x000018f8:    00000000    ....    DCD    0
        0x000018fc:    00000000    ....    DCD    0
        0x00001900:    00000000    ....    DCD    0
        0x00001904:    00000000    ....    DCD    0
        0x00001908:    00000000    ....    DCD    0
        0x0000190c:    00000000    ....    DCD    0
        0x00001910:    00000000    ....    DCD    0
        0x00001914:    00000000    ....    DCD    0
        0x00001918:    00000000    ....    DCD    0
        0x0000191c:    00000000    ....    DCD    0
    .constdata
    g_iDaysPerMonth
        0x00001920:    0000001f    ....    DCD    31
        0x00001924:    0000001c    ....    DCD    28
        0x00001928:    0000001f    ....    DCD    31
        0x0000192c:    0000001e    ....    DCD    30
        0x00001930:    0000001f    ....    DCD    31
        0x00001934:    0000001e    ....    DCD    30
        0x00001938:    0000001f    ....    DCD    31
        0x0000193c:    0000001f    ....    DCD    31
        0x00001940:    0000001e    ....    DCD    30
        0x00001944:    0000001f    ....    DCD    31
        0x00001948:    0000001e    ....    DCD    30
        0x0000194c:    0000001f    ....    DCD    31
    g_iMonthOffsets
        0x00001950:    00000004    ....    DCD    4
        0x00001954:    00000000    ....    DCD    0
        0x00001958:    00000000    ....    DCD    0
        0x0000195c:    00000003    ....    DCD    3
        0x00001960:    00000005    ....    DCD    5
        0x00001964:    00000001    ....    DCD    1
        0x00001968:    00000003    ....    DCD    3
        0x0000196c:    00000006    ....    DCD    6
        0x00001970:    00000002    ....    DCD    2
        0x00001974:    00000004    ....    DCD    4
        0x00001978:    00000000    ....    DCD    0
        0x0000197c:    00000002    ....    DCD    2
    .conststring
        0x00001980:    656e754a    June    DCD    1701737802
        0x00001984:    00000000    ....    DCD    0
        0x00001988:    6372614d    Marc    DCD    1668440397
        0x0000198c:    00000068    h...    DCD    104
        0x00001990:    61766e49    Inva    DCD    1635151433
        0x00001994:    2064696c    lid     DCD    543451500
        0x00001998:    746e6f6d    mont    DCD    1953394541
        0x0000199c:    00000068    h...    DCD    104
        0x000019a0:    69727041    Apri    DCD    1769107521
        0x000019a4:    0000006c    l...    DCD    108
        0x000019a8:    65636544    Dece    DCD    1701012804
        0x000019ac:    7265626d    mber    DCD    1919246957
        0x000019b0:    00000000    ....    DCD    0
        0x000019b4:    74706553    Sept    DCD    1953523027
        0x000019b8:    65626d65    embe    DCD    1700949349
        0x000019bc:    00000072    r...    DCD    114
        0x000019c0:    65766f4e    Nove    DCD    1702260558
        0x000019c4:    7265626d    mber    DCD    1919246957
        0x000019c8:    00000000    ....    DCD    0
        0x000019cc:    6f74634f    Octo    DCD    1869898575
        0x000019d0:    00726562    ber.    DCD    7497058
        0x000019d4:    75677541    Augu    DCD    1969714497
        0x000019d8:    00007473    st..    DCD    29811
        0x000019dc:    0079614d    May.    DCD    7954765
        0x000019e0:    61766e49    Inva    DCD    1635151433
        0x000019e4:    2064696c    lid     DCD    543451500
        0x000019e8:    00796164    day.    DCD    7954788
        0x000019ec:    64697246    Frid    DCD    1684632134
        0x000019f0:    00007961    ay..    DCD    31073
        0x000019f4:    646e6f4d    Mond    DCD    1684959053
        0x000019f8:    00007961    ay..    DCD    31073
        0x000019fc:    646e7553    Sund    DCD    1684960595
        0x00001a00:    00007961    ay..    DCD    31073
        0x00001a04:    75746153    Satu    DCD    1970561363
        0x00001a08:    79616472    rday    DCD    2036425842
        0x00001a0c:    00000000    ....    DCD    0
        0x00001a10:    6e646557    Wedn    DCD    1852073303
        0x00001a14:    61647365    esda    DCD    1633973093
        0x00001a18:    00000079    y...    DCD    121
        0x00001a1c:    73657554    Tues    DCD    1936029012
        0x00001a20:    00796164    day.    DCD    7954788
        0x00001a24:    72756854    Thur    DCD    1920297044
        0x00001a28:    79616473    sday    DCD    2036425843
        0x00001a2c:    00000000    ....    DCD    0
        0x00001a30:    796c754a    July    DCD    2037151050
        0x00001a34:    00000000    ....    DCD    0
        0x00001a38:    756e614a    Janu    DCD    1970168138
        0x00001a3c:    00797261    ary.    DCD    7959137
        0x00001a40:    72626546    Febr    DCD    1919051078
        0x00001a44:    79726175    uary    DCD    2037539189
        0x00001a48:    00000000    ....    DCD    0
    Region$$Table$$Base
        0x00001a4c:    00001a6c    l...    DCD    6764
        0x00001a50:    10000000    ....    DCD    268435456
        0x00001a54:    00000074    t...    DCD    116
        0x00001a58:    000000d4    ....    DCD    212
        0x00001a5c:    00001ae0    ....    DCD    6880
        0x00001a60:    10000074    t...    DCD    268435572
        0x00001a64:    0000118c    ....    DCD    4492
        0x00001a68:    000000f0    ....    DCD    240
    Region$$Table$$Limit

** Section #2 'SRAM' (SHT_PROGBITS) [SHF_ALLOC + SHF_WRITE]
    Size   : 116 bytes (alignment 4)
    Address: 0x10000000

    0x10000000:   fc 19 00 00 f4 19 00 00 1c 1a 00 00 10 1a 00 00    ................
    0x10000010:   24 1a 00 00 ec 19 00 00 04 1a 00 00 e0 19 00 00    $...............
    0x10000020:   38 1a 00 00 40 1a 00 00 88 19 00 00 a0 19 00 00    8...@...........
    0x10000030:   dc 19 00 00 80 19 00 00 30 1a 00 00 d4 19 00 00    ........0.......
    0x10000040:   b4 19 00 00 cc 19 00 00 c0 19 00 00 a8 19 00 00    ................
    0x10000050:   90 19 00 00 00 00 00 00 56 02 00 00 00 00 00 00    ........V.......
    0x10000060:   00 00 00 00 00 00 00 00 00 00 00 00 00 00 00 00    ................
    0x10000070:   00 00 00 00                                        ....


** Section #3 'SRAM' (SHT_NOBITS) [SHF_ALLOC + SHF_WRITE]
    Size   : 4492 bytes (alignment 8)
    Address: 0x10000074


** Section #4 '.debug_abbrev' (SHT_PROGBITS)
    Size   : 1476 bytes


** Section #5 '.debug_frame' (SHT_PROGBITS)
    Size   : 3012 bytes


** Section #6 '.debug_info' (SHT_PROGBITS)
    Size   : 15088 bytes


** Section #7 '.debug_line' (SHT_PROGBITS)
    Size   : 5832 bytes


** Section #8 '.debug_loc' (SHT_PROGBITS)
    Size   : 2544 bytes


** Section #9 '.debug_macinfo' (SHT_PROGBITS)
    Size   : 6860 bytes


** Section #10 '.debug_pubnames' (SHT_PROGBITS)
    Size   : 745 bytes


** Section #11 '.symtab' (SHT_SYMTAB)
    Size   : 7584 bytes (alignment 4)
    String table #12 '.strtab'
    Last local symbol no. 318

    Symbol table .symtab (473 symbols, 318 local)

      #  Symbol Name                Value      Bind  Sec  Type  Vis  Size
    ========================================================================

      1  $d                         0x00000000   Lc    1   --   De 
      2  $t                         0x00000070   Lc    1   --   De 
      3  $d                         0x00000094   Lc    1   --   De 
      4  $t                         0x00000098   Lc    1   --   De 
      5  $d                         0x000000cc   Lc    1   --   De 
      6  $t                         0x000000d4   Lc    1   --   De 
      7  $d                         0x00000186   Lc    1   --   De 
      8  $t                         0x00000194   Lc    1   --   De 
      9  $d                         0x00000248   Lc    1   --   De 
     10  $t                         0x0000024c   Lc    1   --   De 
     11  $d                         0x00000254   Lc    1   --   De 
     12  $t                         0x00000258   Lc    1   --   De 
     13  $d                         0x00000298   Lc    1   --   De 
     14  $t                         0x000002a0   Lc    1   --   De 
     15  $d                         0x000002dc   Lc    1   --   De 
     16  $t                         0x000002e8   Lc    1   --   De 
     17  $d                         0x00000320   Lc    1   --   De 
     18  $t                         0x00000324   Lc    1   --   De 
     19  $d                         0x00000362   Lc    1   --   De 
     20  $t                         0x0000036a   Lc    1   --   De 
     21  $d                         0x00000390   Lc    1   --   De 
     22  $t                         0x000003b0   Lc    1   --   De 
     23  $d                         0x000003e4   Lc    1   --   De 
     24  $t                         0x000003e8   Lc    1   --   De 
     25  $d                         0x0000042e   Lc    1   --   De 
     26  $t                         0x00000434   Lc    1   --   De 
     27  $d                         0x0000043c   Lc    1   --   De 
     28  $t                         0x00000440   Lc    1   --   De 
     29  $d                         0x00000460   Lc    1   --   De 
     30  $t                         0x00000464   Lc    1   --   De 
     31  $d                         0x000004dc   Lc    1   --   De 
     32  $t                         0x000004e8   Lc    1   --   De 
     33  $d                         0x00000512   Lc    1   --   De 
     34  $t                         0x00000518   Lc    1   --   De 
     35  $d                         0x0000055e   Lc    1   --   De 
     36  $t                         0x00000564   Lc    1   --   De 
     37  $d                         0x0000059c   Lc    1   --   De 
     38  $t                         0x000005bc   Lc    1   --   De 
     39  $d                         0x000005de   Lc    1   --   De 
     40  $t                         0x000005e8   Lc    1   --   De 
     41  $d                         0x00000624   Lc    1   --   De 
     42  $t                         0x00000628   Lc    1   --   De 
     43  $d                         0x0000064c   Lc    1   --   De 
     44  $t                         0x00000650   Lc    1   --   De 
     45  $d                         0x00000684   Lc    1   --   De 
     46  $t                         0x00000688   Lc    1   --   De 
     47  $d                         0x000008ec   Lc    1   --   De 
     48  $t                         0x000008f0   Lc    1   --   De 
     49  $d                         0x0000091c   Lc    1   --   De 
     50  $t                         0x00000924   Lc    1   --   De 
     51  $d                         0x0000092e   Lc    1   --   De 
     52  $t                         0x00000934   Lc    1   --   De 
     53  $d                         0x000009b2   Lc    1   --   De 
     54  $t                         0x000009cc   Lc    1   --   De 
     55  $d                         0x000009d4   Lc    1   --   De 
     56  $t                         0x000009d8   Lc    1   --   De 
     57  $d                         0x00000a8a   Lc    1   --   De 
     58  $t                         0x00000a90   Lc    1   --   De 
     59  $d                         0x00000ac2   Lc    1   --   De 
     60  $t                         0x00000acc   Lc    1   --   De 
     61  $d                         0x00000ad2   Lc    1   --   De 
     62  $t                         0x00000ad8   Lc    1   --   De 
     63  $d                         0x00000ae2   Lc    1   --   De 
     64  $t                         0x00000af8   Lc    1   --   De 
     65  $d                         0x00000e9c   Lc    1   --   De 
     66  $t                         0x00000eac   Lc    1   --   De 
     67  $d                         0x00000efa   Lc    1   --   De 
     68  $t                         0x00000f00   Lc    1   --   De 
     69  $d                         0x0000100c   Lc    1   --   De 
     70  $t                         0x00001014   Lc    1   --   De 
     71  $d                         0x00001296   Lc    1   --   De 
     72  $t                         0x0000129c   Lc    1   --   De 
     73  $d                         0x00001420   Lc    1   --   De 
     74  $t                         0x000014c4   Lc    1   --   De 
     75  $d                         0x000014ea   Lc    1   --   De 
     76  $t                         0x000014f0   Lc    1   --   De 
     77  $d                         0x000015ec   Lc    1   --   De 
     78  $t                         0x000015f0   Lc    1   --   De 
     79  $d                         0x0000175c   Lc    1   --   De 
     80  $t                         0x00001760   Lc    1   --   De 
     81  $d                         0x000017de   Lc    1   --   De 
     82  $t                         0x000017e2   Lc    1   --   De 
     83  $d.realdata                0x0000181e   Lc    1   --   De 
     84  $d.realdata                0x10000000   Lc    2   --   De 
     85  ../src/rtc_print.c         0x00000000   Lc  Abs  File  De 
     86  i.am_ctimer_isr            0x00000310   Lc    1  Sect  De 
     87  i.main                     0x0000129c   Lc    1  Sect  De 
     88  i.mthToIndex               0x000014c4   Lc    1  Sect  De 
     89  i.timerA0_init             0x000015bc   Lc    1  Sect  De 
     90  i.toVal                    0x000015f0   Lc    1  Sect  De 
     91  .bss                       0x10000074   Lc    3  Sect  De   0x2c
     92  .conststring               0x00001980   Lc    1  Sect  De   0xc9
     93  .data                      0x10000000   Lc    2  Sect  De   0x68
     94  ../../../../../utils/am_util_delay.c
                                    0x00000000   Lc  Abs  File  De 
     95  ..\..\..\..\..\utils\am_util_faultisr.c
                                    0x00000000   Lc  Abs  File  De 
     96  .emb_text                  0x00000138   Lc    1  Sect  De   0x22
     97  $v0                        0x00000138   Lc    1   --   De 
     98  ../../../../../utils/am_util_faultisr.c
                                    0x00000000   Lc  Abs  File  De 
     99  i.am_util_faultisr_collect_data
                                    0x000009d8   Lc    1  Sect  De 
    100  ../../../../../utils/am_util_stdio.c
                                    0x00000000   Lc  Abs  File  De 
    101  i.am_util_stdio_printf     0x00000a90   Lc    1  Sect  De 
    102  i.am_util_stdio_printf_init
                                    0x00000acc   Lc    1  Sect  De 
    103  i.am_util_stdio_terminal_clear
                                    0x00000ad8   Lc    1  Sect  De 
    104  i.am_util_stdio_vsprintf   0x00000af8   Lc    1  Sect  De 
    105  i.decstr_to_int            0x00001014   Lc    1  Sect  De 
    106  decstr_to_int              0x00001015   Lc    1  Code  De   0x42
    107  i.divu64_10                0x00001056   Lc    1  Sect  De 
    108  divu64_10                  0x00001057   Lc    1  Code  De   0xcc
    109  i.ftoa                     0x00001124   Lc    1  Sect  De 
    110  ftoa                       0x00001125   Lc    1  Code  De   0x172
    111  i.ndigits_in_hex           0x000014f0   Lc    1  Sect  De 
    112  ndigits_in_hex             0x000014f1   Lc    1  Code  De   0x34
    113  i.ndigits_in_i64           0x00001524   Lc    1  Sect  De 
    114  ndigits_in_i64             0x00001525   Lc    1  Code  De   0x24
    115  i.ndigits_in_u64           0x00001548   Lc    1  Sect  De 
    116  ndigits_in_u64             0x00001549   Lc    1  Code  De   0x3a
    117  i.padbuffer                0x00001582   Lc    1  Sect  De 
    118  padbuffer                  0x00001583   Lc    1  Code  De   0x22
    119  i.simple_strlen            0x000015a4   Lc    1  Sect  De 
    120  simple_strlen              0x000015a5   Lc    1  Code  De   0x18
    121  i.uint64_to_hexstr         0x00001612   Lc    1  Sect  De 
    122  uint64_to_hexstr           0x00001613   Lc    1  Code  De   0x8a
    123  i.uint64_to_str            0x0000169c   Lc    1  Sect  De 
    124  uint64_to_str              0x0000169d   Lc    1  Code  De   0x70
    125  .bss                       0x100000a0   Lc    3  Sect  De   0x100
    126  g_prfbuf                   0x100000a0   Lc    3  Data  De   0x100
    127  .data                      0x10000068   Lc    2  Sect  De   0x5
    128  g_bTxtXlate                0x1000006c   Lc    2  Data  De   0x1
    129  ../../../../../utils/am_util_string.c
                                    0x00000000   Lc  Abs  File  De 
    130  i.am_util_string_strnicmp  0x00000eac   Lc    1  Sect  De 
    131  .constdata                 0x0000181e   Lc    1  Sect  De   0x100
    132  ../../../../../utils/am_util_time.c
                                    0x00000000   Lc  Abs  File  De 
    133  i.am_util_time_computeDayofWeek
                                    0x00000f00   Lc    1  Sect  De 
    134  .constdata                 0x00001920   Lc    1  Sect  De   0x60
    135  g_iDaysPerMonth            0x00001920   Lc    1  Data  De   0x30
    136  g_iMonthOffsets            0x00001950   Lc    1  Data  De   0x30
    137  ../keil/startup_keil.s     0x00000000   Lc  Abs  File  De 
    138  STACK                      0x10000200   Lc    3  Sect  De   0x1000
    139  StackMem                   0x10000200   Lc    3  Data  De 
    140  HEAP                       0x10000200   Lc    3  Sect  De 
    141  HeapMem                    0x10000200   Lc    3  Data  De 
    142  RESET                      0x00000000   Lc    1  Sect  De   0x98
    143  $v0                        0x00000070   Lc    1   --   De 
    144  .text                      0x0000017c   Lc    1  Sect  De   0x18
    145  $v0                        0x0000017c   Lc    1   --   De 
    146  ../am_hal_global.c         0x00000000   Lc  Abs  File  De 
    147  .data                      0x10000070   Lc    2  Sect  De   0x4
    148  ../am_bsp.c                0x00000000   Lc  Abs  File  De 
    149  i.am_bsp_debug_printf_disable
                                    0x0000025c   Lc    1  Sect  De 
    150  i.am_bsp_debug_printf_enable
                                    0x000002a0   Lc    1  Sect  De 
    151  i.am_bsp_itm_string_print  0x000002e8   Lc    1  Sect  De 
    152  i.am_bsp_low_power_init    0x000002ec   Lc    1  Sect  De 
    153  ../am_hal_clkgen.c         0x00000000   Lc  Abs  File  De 
    154  i.am_hal_clkgen_osc_start  0x00000324   Lc    1  Sect  De 
    155  i.am_hal_clkgen_osc_stop   0x0000033a   Lc    1  Sect  De 
    156  i.am_hal_clkgen_sysclk_get 0x00000350   Lc    1  Sect  De 
    157  i.am_hal_clkgen_sysclk_select
                                    0x000003b0   Lc    1  Sect  De 
    158  ..\am_hal_ctimer.c         0x00000000   Lc  Abs  File  De 
    159  ../am_hal_ctimer.c         0x00000000   Lc  Abs  File  De 
    160  i.am_hal_ctimer_clear      0x000003c0   Lc    1  Sect  De 
    161  i.am_hal_ctimer_config     0x000003e8   Lc    1  Sect  De 
    162  i.am_hal_ctimer_int_clear  0x00000434   Lc    1  Sect  De 
    163  i.am_hal_ctimer_int_enable 0x00000440   Lc    1  Sect  De 
    164  i.am_hal_ctimer_period_set 0x00000464   Lc    1  Sect  De 
    165  i.am_hal_ctimer_start      0x000004e8   Lc    1  Sect  De 
    166  ..\am_hal_flash.c          0x00000000   Lc  Abs  File  De 
    167  .emb_text                  0x0000015c   Lc    1  Sect  De   0x6
    168  $v0                        0x0000015c   Lc    1   --   De 
    169  ../am_hal_flash.c          0x00000000   Lc  Abs  File  De 
    170  ..\am_hal_interrupt.c      0x00000000   Lc  Abs  File  De 
    171  .emb_text                  0x00000164   Lc    1  Sect  De   0x16
    172  $v0                        0x00000164   Lc    1   --   De 
    173  ../am_hal_interrupt.c      0x00000000   Lc  Abs  File  De 
    174  i.am_hal_interrupt_enable  0x00000518   Lc    1  Sect  De 
    175  ../am_hal_itm.c            0x00000000   Lc  Abs  File  De 
    176  i.am_hal_itm_enable        0x00000564   Lc    1  Sect  De 
    177  i.am_hal_itm_not_busy      0x000005bc   Lc    1  Sect  De 
    178  i.am_hal_itm_print         0x000005e8   Lc    1  Sect  De 
    179  ../am_hal_mcuctrl.c        0x00000000   Lc  Abs  File  De 
    180  i.am_hal_mcuctrl_bandgap_disable
                                    0x00000618   Lc    1  Sect  De 
    181  i.am_hal_mcuctrl_bucks_enable
                                    0x00000628   Lc    1  Sect  De 
    182  i.am_hal_mcuctrl_fault_status
                                    0x00000650   Lc    1  Sect  De 
    183  ../am_hal_rtc.c            0x00000000   Lc  Abs  File  De 
    184  i.am_hal_rtc_osc_disable   0x00000688   Lc    1  Sect  De 
    185  i.am_hal_rtc_osc_enable    0x00000696   Lc    1  Sect  De 
    186  i.am_hal_rtc_osc_select    0x000006a4   Lc    1  Sect  De 
    187  i.am_hal_rtc_time_get      0x000006ba   Lc    1  Sect  De 
    188  i.am_hal_rtc_time_set      0x00000780   Lc    1  Sect  De 
    189  ../am_hal_sysctrl.c        0x00000000   Lc  Abs  File  De 
    190  i.am_hal_sysctrl_sleep     0x000008f0   Lc    1  Sect  De 
    191  ../am_hal_debug.c          0x00000000   Lc  Abs  File  De 
    192  ../am_hal_gpio.c           0x00000000   Lc  Abs  File  De 
    193  ../am_hal_iom.c            0x00000000   Lc  Abs  File  De 
    194  ../am_hal_tpiu.c           0x00000000   Lc  Abs  File  De 
    195  i.am_hal_tpiu_disable      0x00000924   Lc    1  Sect  De 
    196  i.am_hal_tpiu_enable       0x00000934   Lc    1  Sect  De 
    197  ../am_hal_uart.c           0x00000000   Lc  Abs  File  De 
    198  ../am_hal_vcomp.c          0x00000000   Lc  Abs  File  De 
    199  i.am_hal_vcomp_disable     0x000009cc   Lc    1  Sect  De 
    200  ../am_hal_i2c_bit_bang.c   0x00000000   Lc  Abs  File  De 
    201  ../am_hal_queue.c          0x00000000   Lc  Abs  File  De 
    202  dc.s                       0x00000000   Lc  Abs  File  De 
    203  ../clib/memcpset.s         0x00000000   Lc  Abs  File  De 
    204  .text                      0x00000194   Lc    1  Sect  De   0x4e
    205  ../clib/heapaux.c          0x00000000   Lc  Abs  File  De 
    206  .text                      0x000001e2   Lc    1  Sect  De 
    207  ../clib/angel/startup.s    0x00000000   Lc  Abs  File  De 
    208  !!!main                    0x00000098   Lc    1  Sect  De   0x8
    209  ../fplib/d2f.s             0x00000000   Lc  Abs  File  De 
    210  x$fpl$d2f                  0x0000170c   Lc    1  Sect  De   0x62
    211  $v0                        0x0000170c   Lc    1   --   De 
    212  ../clib/angel/kernel.s     0x00000000   Lc  Abs  File  De 
    213  .ARM.Collect$$rtentry$$00000000
                                    0x00000118   Lc    1  Sect  De 
    214  ../fplib/dnaninf.s         0x00000000   Lc  Abs  File  De 
    215  x$fpl$dnaninf              0x0000176e   Lc    1  Sect  De   0x9c
    216  $v0                        0x0000176e   Lc    1   --   De 
    217  ../fplib/fretinf.s         0x00000000   Lc  Abs  File  De 
    218  x$fpl$fretinf              0x00001814   Lc    1  Sect  De   0xa
    219  $v0                        0x00001814   Lc    1   --   De 
    220  ../fplib/usenofp.s         0x00000000   Lc  Abs  File  De 
    221  x$fpl$usenofp              0x0000181e   Lc    1  Sect  De 
    222  ../clib/angel/kernel.s     0x00000000   Lc  Abs  File  De 
    223  .ARM.Collect$$rtentry$$00000002
                                    0x00000118   Lc    1  Sect  De 
    224  .ARM.Collect$$rtentry$$00000009
                                    0x0000011e   Lc    1  Sect  De 
    225  .ARM.Collect$$rtentry$$0000000A
                                    0x0000011e   Lc    1  Sect  De   0x4
    226  .ARM.Collect$$rtentry$$0000000C
                                    0x00000122   Lc    1  Sect  De 
    227  .ARM.Collect$$rtentry$$0000000D
                                    0x00000122   Lc    1  Sect  De   0x8
    228  ../clib/angel/kernel.s     0x00000000   Lc  Abs  File  De 
    229  .ARM.Collect$$rtentry$$00000004
                                    0x00000118   Lc    1  Sect  De   0x6
    230  ../clib/angel/sys.s        0x00000000   Lc  Abs  File  De 
    231  .text                      0x000001e8   Lc    1  Sect  De   0x4a
    232  ../clib/stdlib.c           0x00000000   Lc  Abs  File  De 
    233  .text                      0x00000232   Lc    1  Sect  De 
    234  ../clib/angel/boardlib.s   0x00000000   Lc  Abs  File  De 
    235  ../clib/angel/boardlib.s   0x00000000   Lc  Abs  File  De 
    236  ../clib/angel/boardlib.s   0x00000000   Lc  Abs  File  De 
    237  ../clib/libinit.s          0x00000000   Lc  Abs  File  De 
    238  .ARM.Collect$$libinit$$00000000
                                    0x0000010c   Lc    1  Sect  De   0x2
    239  ../clib/angel/sys.s        0x00000000   Lc  Abs  File  De 
    240  .text                      0x00000244   Lc    1  Sect  De   0x8
    241  .bss                       0x100001a0   Lc    3  Sect  De   0x60
    242  ../clib/angel/kernel.s     0x00000000   Lc  Abs  File  De 
    243  .ARM.Collect$$rtexit$$00000000
                                    0x0000012a   Lc    1  Sect  De   0x2
    244  ../clib/libinit.s          0x00000000   Lc  Abs  File  De 
    245  .ARM.Collect$$libinit$$00000001
                                    0x0000010e   Lc    1  Sect  De   0x4
    246  .ARM.Collect$$libinit$$00000004
                                    0x00000112   Lc    1  Sect  De 
    247  .ARM.Collect$$libinit$$0000000A
                                    0x00000112   Lc    1  Sect  De 
    248  .ARM.Collect$$libinit$$0000000C
                                    0x00000112   Lc    1  Sect  De 
    249  .ARM.Collect$$libinit$$0000000E
                                    0x00000112   Lc    1  Sect  De 
    250  .ARM.Collect$$libinit$$00000011
                                    0x00000112   Lc    1  Sect  De 
    251  .ARM.Collect$$libinit$$00000013
                                    0x00000112   Lc    1  Sect  De 
    252  .ARM.Collect$$libinit$$00000015
                                    0x00000112   Lc    1  Sect  De 
    253  .ARM.Collect$$libinit$$00000017
                                    0x00000112   Lc    1  Sect  De 
    254  .ARM.Collect$$libinit$$00000019
                                    0x00000112   Lc    1  Sect  De 
    255  .ARM.Collect$$libinit$$0000001B
                                    0x00000112   Lc    1  Sect  De 
    256  .ARM.Collect$$libinit$$0000001D
                                    0x00000112   Lc    1  Sect  De 
    257  .ARM.Collect$$libinit$$0000001F
                                    0x00000112   Lc    1  Sect  De 
    258  .ARM.Collect$$libinit$$00000021
                                    0x00000112   Lc    1  Sect  De 
    259  .ARM.Collect$$libinit$$00000023
                                    0x00000112   Lc    1  Sect  De 
    260  .ARM.Collect$$libinit$$00000025
                                    0x00000112   Lc    1  Sect  De 
    261  .ARM.Collect$$libinit$$0000002C
                                    0x00000112   Lc    1  Sect  De 
    262  .ARM.Collect$$libinit$$0000002E
                                    0x00000112   Lc    1  Sect  De 
    263  .ARM.Collect$$libinit$$00000030
                                    0x00000112   Lc    1  Sect  De 
    264  .ARM.Collect$$libinit$$00000032
                                    0x00000112   Lc    1  Sect  De 
    265  .ARM.Collect$$libinit$$00000033
                                    0x00000112   Lc    1  Sect  De   0x2
    266  ../clib/angel/kernel.s     0x00000000   Lc  Abs  File  De 
    267  .ARM.Collect$$rtexit$$00000002
                                    0x0000012c   Lc    1  Sect  De 
    268  .ARM.Collect$$rtexit$$00000003
                                    0x0000012c   Lc    1  Sect  De   0x4
    269  .ARM.Collect$$rtexit$$00000004
                                    0x00000130   Lc    1  Sect  De   0x6
    270  ../clib/armsys.c           0x00000000   Lc  Abs  File  De 
    271  ../clib/armsys.c           0x00000000   Lc  Abs  File  De 
    272  ../fplib/fpinit.s          0x00000000   Lc  Abs  File  De 
    273  x$fpl$fpinit               0x0000180a   Lc    1  Sect  De   0xa
    274  $v0                        0x0000180a   Lc    1   --   De 
    275  ../clib/angel/sysapp.c     0x00000000   Lc  Abs  File  De 
    276  .text                      0x0000024c   Lc    1  Sect  De 
    277  ../clib/angel/boardlib.s   0x00000000   Lc  Abs  File  De 
    278  ../clib/armsys.c           0x00000000   Lc  Abs  File  De 
    279  ../clib/armsys.c           0x00000000   Lc  Abs  File  De 
    280  ../clib/libinit.s          0x00000000   Lc  Abs  File  De 
    281  .ARM.Collect$$libshutdown$$00000000
                                    0x00000114   Lc    1  Sect  De   0x2
    282  ../clib/angel/sysapp.c     0x00000000   Lc  Abs  File  De 
    283  ../clib/angel/sys.s        0x00000000   Lc  Abs  File  De 
    284  .text                      0x00000258   Lc    1  Sect  De   0x2
    285  ../clib/angel/sys.s        0x00000000   Lc  Abs  File  De 
    286  .text                      0x0000025a   Lc    1  Sect  De 
    287  ../clib/heapalloc.c        0x00000000   Lc  Abs  File  De 
    288  ../clib/signal.c           0x00000000   Lc  Abs  File  De 
    289  ../clib/signal.c           0x00000000   Lc  Abs  File  De 
    290  ../clib/libinit.s          0x00000000   Lc  Abs  File  De 
    291  .ARM.Collect$$libshutdown$$00000002
                                    0x00000116   Lc    1  Sect  De 
    292  .ARM.Collect$$libshutdown$$00000004
                                    0x00000116   Lc    1  Sect  De 
    293  .ARM.Collect$$libshutdown$$00000007
                                    0x00000116   Lc    1  Sect  De 
    294  .ARM.Collect$$libshutdown$$0000000A
                                    0x00000116   Lc    1  Sect  De 
    295  .ARM.Collect$$libshutdown$$0000000C
                                    0x00000116   Lc    1  Sect  De 
    296  .ARM.Collect$$libshutdown$$0000000F
                                    0x00000116   Lc    1  Sect  De 
    297  .ARM.Collect$$libshutdown$$00000010
                                    0x00000116   Lc    1  Sect  De   0x2
    298  ../clib/angel/rt.s         0x00000000   Lc  Abs  File  De 
    299  ../clib/signal.c           0x00000000   Lc  Abs  File  De 
    300  ../clib/signal.c           0x00000000   Lc  Abs  File  De 
    301  ../clib/signal.c           0x00000000   Lc  Abs  File  De 
    302  ../clib/signal.c           0x00000000   Lc  Abs  File  De 
    303  ../clib/angel/sysapp.c     0x00000000   Lc  Abs  File  De 
    304  ../clib/signal.s           0x00000000   Lc  Abs  File  De 
    305  ../clib/signal.c           0x00000000   Lc  Abs  File  De 
    306  ../clib/signal.c           0x00000000   Lc  Abs  File  De 
    307  ../clib/signal.c           0x00000000   Lc  Abs  File  De 
    308  ../clib/signal.c           0x00000000   Lc  Abs  File  De 
    309  ../clib/signal.c           0x00000000   Lc  Abs  File  De 
    310  ../clib/signal.c           0x00000000   Lc  Abs  File  De 
    311  ../clib/signal.c           0x00000000   Lc  Abs  File  De 
    312  ../clib/signal.c           0x00000000   Lc  Abs  File  De 
    313  ../clib/angel/scatter.s    0x00000000   Lc  Abs  File  De 
    314  !!!scatter                 0x000000a0   Lc    1  Sect  De   0x34
    315  ../clib/angel/handlers.s   0x00000000   Lc  Abs  File  De 
    316  !!handler_copy             0x000000d4   Lc    1  Sect  De   0x1a
    317  ../clib/angel/handlers.s   0x00000000   Lc  Abs  File  De 
    318  !!handler_zi               0x000000f0   Lc    1  Sect  De   0x1c
    319  BuildAttributes$$THM_ISAv4$E$P$D$K$B$S$7EM$VFPi3$EXTD16$VFPS$VFMA$PE$A:L22UL41UL21$X:L11$S22US41US21$IEEE1$IW$USESV6$~STKCKD$USESV7$~SHL$OTIME$ROPI$EBA8$UX$STANDARDLIB$REQ8$EABIv2
                                    0x00000000   Gb  Abs   --   Hi 
    320  __ARM_use_no_argv          0x00000000   Gb  Abs   --   Hi 
    321  __Vectors                  0x00000000   Gb    1  Data  Hi 
    322  Reset_Handler              0x00000071   Wk    1  Code  Hi   0x1c
    323  am_nmi_isr                 0x0000008d   Wk    1  Code  Hi   0x2
    324  am_memmanage_isr           0x00000091   Wk    1  Code  Hi   0x2
    325  am_adc_isr                 0x00000093   Wk    1  Code  Hi 
    326  am_brownout_isr            0x00000093   Wk    1  Code  Hi 
    327  am_clkgen_isr              0x00000093   Wk    1  Code  Hi 
    328  am_debugmon_isr            0x00000093   Wk    1  Code  Hi 
    329  am_gpio_isr                0x00000093   Wk    1  Code  Hi 
    330  am_iomaster0_isr           0x00000093   Wk    1  Code  Hi 
    331  am_iomaster1_isr           0x00000093   Wk    1  Code  Hi 
    332  am_ioslave_acc_isr         0x00000093   Wk    1  Code  Hi 
    333  am_ioslave_ios_isr         0x00000093   Wk    1  Code  Hi 
    334  am_pendsv_isr              0x00000093   Wk    1  Code  Hi 
    335  am_svcall_isr              0x00000093   Wk    1  Code  Hi 
    336  am_systick_isr             0x00000093   Wk    1  Code  Hi 
    337  am_uart_isr                0x00000093   Wk    1  Code  Hi 
    338  am_vcomp_isr               0x00000093   Wk    1  Code  Hi 
    339  am_watchdog_isr            0x00000093   Wk    1  Code  Hi 
    340  __main                     0x00000099   Gb    1  Code  Hi   0x8
    341  __scatterload              0x000000a1   Gb    1  Code  Hi 
    342  __scatterload_rt2          0x000000a1   Gb    1  Code  Hi   0x2c
    343  __scatterload_rt2_thumb_only
                                    0x000000a1   Gb    1  Code  Hi 
    344  __scatterload_null         0x000000af   Gb    1  Code  Hi 
    345  __scatterload_copy         0x000000d5   Gb    1  Code  Hi   0x1a
    346  __scatterload_zeroinit     0x000000f1   Gb    1  Code  Hi   0x1c
    347  __rt_lib_init              0x0000010d   Gb    1  Code  De 
    348  __rt_lib_init_fp_1         0x0000010f   Gb    1  Code  Hi 
    349  __rt_lib_init_alloca_1     0x00000113   Gb    1  Code  Hi 
    350  __rt_lib_init_argv_1       0x00000113   Gb    1  Code  Hi 
    351  __rt_lib_init_atexit_1     0x00000113   Gb    1  Code  Hi 
    352  __rt_lib_init_clock_1      0x00000113   Gb    1  Code  Hi 
    353  __rt_lib_init_cpp_1        0x00000113   Gb    1  Code  Hi 
    354  __rt_lib_init_exceptions_1 0x00000113   Gb    1  Code  Hi 
    355  __rt_lib_init_fp_trap_1    0x00000113   Gb    1  Code  Hi 
    356  __rt_lib_init_getenv_1     0x00000113   Gb    1  Code  Hi 
    357  __rt_lib_init_heap_1       0x00000113   Gb    1  Code  Hi 
    358  __rt_lib_init_lc_collate_1 0x00000113   Gb    1  Code  Hi 
    359  __rt_lib_init_lc_ctype_1   0x00000113   Gb    1  Code  Hi 
    360  __rt_lib_init_lc_monetary_1
                                    0x00000113   Gb    1  Code  Hi 
    361  __rt_lib_init_lc_numeric_1 0x00000113   Gb    1  Code  Hi 
    362  __rt_lib_init_lc_time_1    0x00000113   Gb    1  Code  Hi 
    363  __rt_lib_init_preinit_1    0x00000113   Gb    1  Code  Hi 
    364  __rt_lib_init_rand_1       0x00000113   Gb    1  Code  Hi 
    365  __rt_lib_init_return       0x00000113   Gb    1  Code  Hi 
    366  __rt_lib_init_signal_1     0x00000113   Gb    1  Code  Hi 
    367  __rt_lib_init_stdio_1      0x00000113   Gb    1  Code  Hi 
    368  __rt_lib_init_user_alloc_1 0x00000113   Gb    1  Code  Hi 
    369  __rt_lib_shutdown          0x00000115   Gb    1  Code  De 
    370  __rt_lib_shutdown_cpp_1    0x00000117   Gb    1  Code  Hi 
    371  __rt_lib_shutdown_fp_trap_1
                                    0x00000117   Gb    1  Code  Hi 
    372  __rt_lib_shutdown_heap_1   0x00000117   Gb    1  Code  Hi 
    373  __rt_lib_shutdown_return   0x00000117   Gb    1  Code  Hi 
    374  __rt_lib_shutdown_signal_1 0x00000117   Gb    1  Code  Hi 
    375  __rt_lib_shutdown_stdio_1  0x00000117   Gb    1  Code  Hi 
    376  __rt_lib_shutdown_user_alloc_1
                                    0x00000117   Gb    1  Code  Hi 
    377  __rt_entry                 0x00000119   Gb    1  Code  Hi 
    378  __rt_entry_presh_1         0x00000119   Gb    1  Code  Hi 
    379  __rt_entry_sh              0x00000119   Gb    1  Code  Hi 
    380  __rt_entry_li              0x0000011f   Gb    1  Code  Hi 
    381  __rt_entry_postsh_1        0x0000011f   Gb    1  Code  Hi 
    382  __rt_entry_main            0x00000123   Gb    1  Code  Hi 
    383  __rt_entry_postli_1        0x00000123   Gb    1  Code  Hi 
    384  __rt_exit                  0x0000012b   Gb    1  Code  De 
    385  __rt_exit_ls               0x0000012d   Gb    1  Code  Hi 
    386  __rt_exit_prels_1          0x0000012d   Gb    1  Code  Hi 
    387  __rt_exit_exit             0x00000131   Gb    1  Code  Hi 
    388  am_fault_isr               0x00000139   Gb    1  Code  Hi   0x1a
    389  getStackedReg              0x00000153   Gb    1  Code  Hi   0x8
    390  am_hal_flash_delay         0x0000015d   Gb    1  Code  Hi   0x6
    391  am_hal_interrupt_master_enable
                                    0x00000165   Gb    1  Code  Hi   0x8
    392  am_hal_interrupt_master_disable
                                    0x0000016d   Gb    1  Code  Hi   0x8
    393  am_hal_interrupt_master_set
                                    0x00000175   Gb    1  Code  Hi   0x6
    394  __user_initial_stackheap   0x0000017d   Gb    1  Code  Hi   0xa
    395  __aeabi_memclr4            0x00000195   Gb    1  Code  Hi 
    396  __aeabi_memclr8            0x00000195   Gb    1  Code  De 
    397  __rt_memclr_w              0x00000195   Gb    1  Code  De   0x4e
    398  _memset_w                  0x00000199   Gb    1  Code  De 
    399  __use_two_region_memory    0x000001e3   Gb    1  Code  Hi   0x2
    400  __rt_heap_escrow$2region   0x000001e5   Gb    1  Code  De   0x2
    401  __rt_heap_expand$2region   0x000001e7   Gb    1  Code  De   0x2
    402  __user_setup_stackheap     0x000001e9   Gb    1  Code  De   0x4a
    403  exit                       0x00000233   Gb    1  Code  De   0x12
    404  __user_libspace            0x00000245   Wk    1  Code  De   0x8
    405  __user_perproc_libspace    0x00000245   Wk    1  Code  De 
    406  __user_perthread_libspace  0x00000245   Wk    1  Code  De 
    407  _sys_exit                  0x0000024d   Gb    1  Code  De   0x8
    408  __I$use$semihosting        0x00000259   Gb    1  Code  Hi 
    409  __use_no_semihosting_swi   0x00000259   Gb    1  Code  Hi   0x2
    410  __semihosting_library_function
                                    0x0000025b   Gb    1  Code  Hi 
    411  am_bsp_debug_printf_disable
                                    0x0000025d   Gb    1  Code  Hi   0x3c
    412  am_bsp_debug_printf_enable 0x000002a1   Gb    1  Code  Hi   0x3c
    413  am_bsp_itm_string_print    0x000002e9   Gb    1  Code  Hi   0x4
    414  am_bsp_low_power_init      0x000002ed   Gb    1  Code  Hi   0x22
    415  am_ctimer_isr              0x00000311   Gb    1  Code  Hi   0x10
    416  am_hal_clkgen_osc_start    0x00000325   Gb    1  Code  Hi   0x16
    417  am_hal_clkgen_osc_stop     0x0000033b   Gb    1  Code  Hi   0x14
    418  am_hal_clkgen_sysclk_get   0x00000351   Gb    1  Code  Hi   0x40
    419  am_hal_clkgen_sysclk_select
                                    0x000003b1   Gb    1  Code  Hi   0x10
    420  am_hal_ctimer_clear        0x000003c1   Gb    1  Code  Hi   0x24
    421  am_hal_ctimer_config       0x000003e9   Gb    1  Code  Hi   0x46
    422  am_hal_ctimer_int_clear    0x00000435   Gb    1  Code  Hi   0x8
    423  am_hal_ctimer_int_enable   0x00000441   Gb    1  Code  Hi   0x20
    424  am_hal_ctimer_period_set   0x00000465   Gb    1  Code  Hi   0x78
    425  am_hal_ctimer_start        0x000004e9   Gb    1  Code  Hi   0x2a
    426  am_hal_interrupt_enable    0x00000519   Gb    1  Code  Hi   0x46
    427  am_hal_itm_enable          0x00000565   Gb    1  Code  Hi   0x38
    428  am_hal_itm_not_busy        0x000005bd   Gb    1  Code  Hi   0x22
    429  am_hal_itm_print           0x000005e9   Gb    1  Code  Hi   0x30
    430  am_hal_mcuctrl_bandgap_disable
                                    0x00000619   Gb    1  Code  Hi   0xc
    431  am_hal_mcuctrl_bucks_enable
                                    0x00000629   Gb    1  Code  Hi   0x24
    432  am_hal_mcuctrl_fault_status
                                    0x00000651   Gb    1  Code  Hi   0x34
    433  am_hal_rtc_osc_disable     0x00000689   Gb    1  Code  Hi   0xe
    434  am_hal_rtc_osc_enable      0x00000697   Gb    1  Code  Hi   0xe
    435  am_hal_rtc_osc_select      0x000006a5   Gb    1  Code  Hi   0x16
    436  am_hal_rtc_time_get        0x000006bb   Gb    1  Code  Hi   0xc6
    437  am_hal_rtc_time_set        0x00000781   Gb    1  Code  Hi   0x16c
    438  am_hal_sysctrl_sleep       0x000008f1   Gb    1  Code  Hi   0x2c
    439  am_hal_tpiu_disable        0x00000925   Gb    1  Code  Hi   0xa
    440  am_hal_tpiu_enable         0x00000935   Gb    1  Code  Hi   0x7e
    441  am_hal_vcomp_disable       0x000009cd   Gb    1  Code  Hi   0x8
    442  am_util_faultisr_collect_data
                                    0x000009d9   Gb    1  Code  Hi   0xb2
    443  am_util_stdio_printf       0x00000a91   Gb    1  Code  Hi   0x32
    444  am_util_stdio_printf_init  0x00000acd   Gb    1  Code  Hi   0x6
    445  am_util_stdio_terminal_clear
                                    0x00000ad9   Gb    1  Code  Hi   0xa
    446  am_util_stdio_vsprintf     0x00000af9   Gb    1  Code  Hi   0x3a4
    447  am_util_string_strnicmp    0x00000ead   Gb    1  Code  Hi   0x4e
    448  am_util_time_computeDayofWeek
                                    0x00000f01   Gb    1  Code  Hi   0x10c
    449  main                       0x0000129d   Gb    1  Code  Hi   0x184
    450  mthToIndex                 0x000014c5   Gb    1  Code  Hi   0x26
    451  timerA0_init               0x000015bd   Gb    1  Code  Hi   0x30
    452  toVal                      0x000015f1   Gb    1  Code  Hi   0x22
    453  __aeabi_d2f                0x0000170d   Gb    1  Code  Hi 
    454  _d2f                       0x0000170d   Gb    1  Code  De   0x62
    455  __fpl_dnaninf              0x0000176f   Gb    1  Code  De   0x9c
    456  _fp_init                   0x0000180b   Gb    1  Code  De   0xa
    457  __fplib_config_fpu_vfp     0x00001813   Gb    1  Code  De 
    458  __fplib_config_pureend_doubles
                                    0x00001813   Gb    1  Code  De 
    459  __fpl_fretinf              0x00001815   Gb    1  Code  De   0xa
    460  __I$use$fp                 0x0000181e   Gb    1   --   De 
    461  am_cattr                   0x0000181e   Gb    1  Data  Hi   0x100
    462  Region$$Table$$Base        0x00001a4c   Gb    1   --   Hi 
    463  Region$$Table$$Limit       0x00001a6c   Gb    1   --   Hi 
    464  pcWeekday                  0x10000000   Gb    2  Data  Hi   0x20
    465  pcMonth                    0x10000020   Gb    2  Data  Hi   0x34
    466  g_sTimer0                  0x10000054   Gb    2  Data  Hi   0xc
    467  g_LastSecond               0x10000060   Gb    2  Data  Hi   0x4
    468  g_TestCount                0x10000064   Gb    2  Data  Hi   0x4
    469  g_pfnCharPrint             0x10000068   Gb    2  Data  Hi   0x4
    470  g_ui32HALflags             0x10000070   Gb    2  Data  Hi   0x4
    471  hal_time                   0x10000074   Gb    3  Data  Hi   0x2c
    472  __libspace_start           0x100001a0   Gb    3  Data  De   0x60
    473  __temporary_stack_top$libspace
                                    0x10000200   Gb    3  Data  De 


** Section #12 '.strtab' (SHT_STRTAB)
    Size   : 7164 bytes

            #  Offset String
        ====================================

            1      1: $d
            2      4: $t
            3      7: $d.realdata
            4     19: ../src/rtc_print.c
            5     38: i.am_ctimer_isr
            6     54: i.main
            7     61: i.mthToIndex
            8     74: i.timerA0_init
            9     89: i.toVal
           10     97: .bss
           11    102: .conststring
           12    115: .data
           13    121: ../../../../../utils/am_util_delay.c
           14    158: ..\..\..\..\..\utils\am_util_faultisr.c
           15    198: .emb_text
           16    208: $v0
           17    212: ../../../../../utils/am_util_faultisr.c
           18    252: i.am_util_faultisr_collect_data
           19    284: ../../../../../utils/am_util_stdio.c
           20    321: i.am_util_stdio_printf
           21    344: i.am_util_stdio_printf_init
           22    372: i.am_util_stdio_terminal_clear
           23    403: i.am_util_stdio_vsprintf
           24    428: i.decstr_to_int
           25    444: decstr_to_int
           26    458: i.divu64_10
           27    470: divu64_10
           28    480: i.ftoa
           29    487: ftoa
           30    492: i.ndigits_in_hex
           31    509: ndigits_in_hex
           32    524: i.ndigits_in_i64
           33    541: ndigits_in_i64
           34    556: i.ndigits_in_u64
           35    573: ndigits_in_u64
           36    588: i.padbuffer
           37    600: padbuffer
           38    610: i.simple_strlen
           39    626: simple_strlen
           40    640: i.uint64_to_hexstr
           41    659: uint64_to_hexstr
           42    676: i.uint64_to_str
           43    692: uint64_to_str
           44    706: g_prfbuf
           45    715: g_bTxtXlate
           46    727: ../../../../../utils/am_util_string.c
           47    765: i.am_util_string_strnicmp
           48    791: .constdata
           49    802: ../../../../../utils/am_util_time.c
           50    838: i.am_util_time_computeDayofWeek
           51    870: g_iDaysPerMonth
           52    886: g_iMonthOffsets
           53    902: ../keil/startup_keil.s
           54    925: STACK
           55    931: StackMem
           56    940: HEAP
           57    945: HeapMem
           58    953: RESET
           59    959: .text
           60    965: ../am_hal_global.c
           61    984: ../am_bsp.c
           62    996: i.am_bsp_debug_printf_disable
           63   1026: i.am_bsp_debug_printf_enable
           64   1055: i.am_bsp_itm_string_print
           65   1081: i.am_bsp_low_power_init
           66   1105: ../am_hal_clkgen.c
           67   1124: i.am_hal_clkgen_osc_start
           68   1150: i.am_hal_clkgen_osc_stop
           69   1175: i.am_hal_clkgen_sysclk_get
           70   1202: i.am_hal_clkgen_sysclk_select
           71   1232: ..\am_hal_ctimer.c
           72   1251: ../am_hal_ctimer.c
           73   1270: i.am_hal_ctimer_clear
           74   1292: i.am_hal_ctimer_config
           75   1315: i.am_hal_ctimer_int_clear
           76   1341: i.am_hal_ctimer_int_enable
           77   1368: i.am_hal_ctimer_period_set
           78   1395: i.am_hal_ctimer_start
           79   1417: ..\am_hal_flash.c
           80   1435: ../am_hal_flash.c
           81   1453: ..\am_hal_interrupt.c
           82   1475: ../am_hal_interrupt.c
           83   1497: i.am_hal_interrupt_enable
           84   1523: ../am_hal_itm.c
           85   1539: i.am_hal_itm_enable
           86   1559: i.am_hal_itm_not_busy
           87   1581: i.am_hal_itm_print
           88   1600: ../am_hal_mcuctrl.c
           89   1620: i.am_hal_mcuctrl_bandgap_disable
           90   1653: i.am_hal_mcuctrl_bucks_enable
           91   1683: i.am_hal_mcuctrl_fault_status
           92   1713: ../am_hal_rtc.c
           93   1729: i.am_hal_rtc_osc_disable
           94   1754: i.am_hal_rtc_osc_enable
           95   1778: i.am_hal_rtc_osc_select
           96   1802: i.am_hal_rtc_time_get
           97   1824: i.am_hal_rtc_time_set
           98   1846: ../am_hal_sysctrl.c
           99   1866: i.am_hal_sysctrl_sleep
          100   1889: ../am_hal_debug.c
          101   1907: ../am_hal_gpio.c
          102   1924: ../am_hal_iom.c
          103   1940: ../am_hal_tpiu.c
          104   1957: i.am_hal_tpiu_disable
          105   1979: i.am_hal_tpiu_enable
          106   2000: ../am_hal_uart.c
          107   2017: ../am_hal_vcomp.c
          108   2035: i.am_hal_vcomp_disable
          109   2058: ../am_hal_i2c_bit_bang.c
          110   2083: ../am_hal_queue.c
          111   2101: dc.s
          112   2106: ../clib/memcpset.s
          113   2125: ../clib/heapaux.c
          114   2143: ../clib/angel/startup.s
          115   2167: !!!main
          116   2175: ../fplib/d2f.s
          117   2190: x$fpl$d2f
          118   2200: ../clib/angel/kernel.s
          119   2223: .ARM.Collect$$rtentry$$00000000
          120   2255: ../fplib/dnaninf.s
          121   2274: x$fpl$dnaninf
          122   2288: ../fplib/fretinf.s
          123   2307: x$fpl$fretinf
          124   2321: ../fplib/usenofp.s
          125   2340: x$fpl$usenofp
          126   2354: .ARM.Collect$$rtentry$$00000002
          127   2386: .ARM.Collect$$rtentry$$00000009
          128   2418: .ARM.Collect$$rtentry$$0000000A
          129   2450: .ARM.Collect$$rtentry$$0000000C
          130   2482: .ARM.Collect$$rtentry$$0000000D
          131   2514: .ARM.Collect$$rtentry$$00000004
          132   2546: ../clib/angel/sys.s
          133   2566: ../clib/stdlib.c
          134   2583: ../clib/angel/boardlib.s
          135   2608: ../clib/libinit.s
          136   2626: .ARM.Collect$$libinit$$00000000
          137   2658: .ARM.Collect$$rtexit$$00000000
          138   2689: .ARM.Collect$$libinit$$00000001
          139   2721: .ARM.Collect$$libinit$$00000004
          140   2753: .ARM.Collect$$libinit$$0000000A
          141   2785: .ARM.Collect$$libinit$$0000000C
          142   2817: .ARM.Collect$$libinit$$0000000E
          143   2849: .ARM.Collect$$libinit$$00000011
          144   2881: .ARM.Collect$$libinit$$00000013
          145   2913: .ARM.Collect$$libinit$$00000015
          146   2945: .ARM.Collect$$libinit$$00000017
          147   2977: .ARM.Collect$$libinit$$00000019
          148   3009: .ARM.Collect$$libinit$$0000001B
          149   3041: .ARM.Collect$$libinit$$0000001D
          150   3073: .ARM.Collect$$libinit$$0000001F
          151   3105: .ARM.Collect$$libinit$$00000021
          152   3137: .ARM.Collect$$libinit$$00000023
          153   3169: .ARM.Collect$$libinit$$00000025
          154   3201: .ARM.Collect$$libinit$$0000002C
          155   3233: .ARM.Collect$$libinit$$0000002E
          156   3265: .ARM.Collect$$libinit$$00000030
          157   3297: .ARM.Collect$$libinit$$00000032
          158   3329: .ARM.Collect$$libinit$$00000033
          159   3361: .ARM.Collect$$rtexit$$00000002
          160   3392: .ARM.Collect$$rtexit$$00000003
          161   3423: .ARM.Collect$$rtexit$$00000004
          162   3454: ../clib/armsys.c
          163   3471: ../fplib/fpinit.s
          164   3489: x$fpl$fpinit
          165   3502: ../clib/angel/sysapp.c
          166   3525: .ARM.Collect$$libshutdown$$00000000
          167   3561: ../clib/heapalloc.c
          168   3581: ../clib/signal.c
          169   3598: .ARM.Collect$$libshutdown$$00000002
          170   3634: .ARM.Collect$$libshutdown$$00000004
          171   3670: .ARM.Collect$$libshutdown$$00000007
          172   3706: .ARM.Collect$$libshutdown$$0000000A
          173   3742: .ARM.Collect$$libshutdown$$0000000C
          174   3778: .ARM.Collect$$libshutdown$$0000000F
          175   3814: .ARM.Collect$$libshutdown$$00000010
          176   3850: ../clib/angel/rt.s
          177   3869: ../clib/signal.s
          178   3886: ../clib/angel/scatter.s
          179   3910: !!!scatter
          180   3921: ../clib/angel/handlers.s
          181   3946: !!handler_copy
          182   3961: !!handler_zi
          183   3974: BuildAttributes$$THM_ISAv4$E$P$D$K$B$S$7EM$VFPi3$EXTD16$VFPS$VFMA$PE$A:L22UL41UL21$X:L11$S22US41US21$IEEE1$IW$USESV6$~STKCKD$USESV7$~SHL$OTIME$ROPI$EBA8$UX$STANDARDLIB$REQ8$EABIv2
          184   4154: __ARM_use_no_argv
          185   4172: __Vectors
          186   4182: Reset_Handler
          187   4196: am_nmi_isr
          188   4207: am_memmanage_isr
          189   4224: am_adc_isr
          190   4235: am_brownout_isr
          191   4251: am_clkgen_isr
          192   4265: am_debugmon_isr
          193   4281: am_gpio_isr
          194   4293: am_iomaster0_isr
          195   4310: am_iomaster1_isr
          196   4327: am_ioslave_acc_isr
          197   4346: am_ioslave_ios_isr
          198   4365: am_pendsv_isr
          199   4379: am_svcall_isr
          200   4393: am_systick_isr
          201   4408: am_uart_isr
          202   4420: am_vcomp_isr
          203   4433: am_watchdog_isr
          204   4449: __main
          205   4456: __scatterload
          206   4470: __scatterload_rt2
          207   4488: __scatterload_rt2_thumb_only
          208   4517: __scatterload_null
          209   4536: __scatterload_copy
          210   4555: __scatterload_zeroinit
          211   4578: __rt_lib_init
          212   4592: __rt_lib_init_fp_1
          213   4611: __rt_lib_init_alloca_1
          214   4634: __rt_lib_init_argv_1
          215   4655: __rt_lib_init_atexit_1
          216   4678: __rt_lib_init_clock_1
          217   4700: __rt_lib_init_cpp_1
          218   4720: __rt_lib_init_exceptions_1
          219   4747: __rt_lib_init_fp_trap_1
          220   4771: __rt_lib_init_getenv_1
          221   4794: __rt_lib_init_heap_1
          222   4815: __rt_lib_init_lc_collate_1
          223   4842: __rt_lib_init_lc_ctype_1
          224   4867: __rt_lib_init_lc_monetary_1
          225   4895: __rt_lib_init_lc_numeric_1
          226   4922: __rt_lib_init_lc_time_1
          227   4946: __rt_lib_init_preinit_1
          228   4970: __rt_lib_init_rand_1
          229   4991: __rt_lib_init_return
          230   5012: __rt_lib_init_signal_1
          231   5035: __rt_lib_init_stdio_1
          232   5057: __rt_lib_init_user_alloc_1
          233   5084: __rt_lib_shutdown
          234   5102: __rt_lib_shutdown_cpp_1
          235   5126: __rt_lib_shutdown_fp_trap_1
          236   5154: __rt_lib_shutdown_heap_1
          237   5179: __rt_lib_shutdown_return
          238   5204: __rt_lib_shutdown_signal_1
          239   5231: __rt_lib_shutdown_stdio_1
          240   5257: __rt_lib_shutdown_user_alloc_1
          241   5288: __rt_entry
          242   5299: __rt_entry_presh_1
          243   5318: __rt_entry_sh
          244   5332: __rt_entry_li
          245   5346: __rt_entry_postsh_1
          246   5366: __rt_entry_main
          247   5382: __rt_entry_postli_1
          248   5402: __rt_exit
          249   5412: __rt_exit_ls
          250   5425: __rt_exit_prels_1
          251   5443: __rt_exit_exit
          252   5458: am_fault_isr
          253   5471: getStackedReg
          254   5485: am_hal_flash_delay
          255   5504: am_hal_interrupt_master_enable
          256   5535: am_hal_interrupt_master_disable
          257   5567: am_hal_interrupt_master_set
          258   5595: __user_initial_stackheap
          259   5620: __aeabi_memclr4
          260   5636: __aeabi_memclr8
          261   5652: __rt_memclr_w
          262   5666: _memset_w
          263   5676: __use_two_region_memory
          264   5700: __rt_heap_escrow$2region
          265   5725: __rt_heap_expand$2region
          266   5750: __user_setup_stackheap
          267   5773: exit
          268   5778: __user_libspace
          269   5794: __user_perproc_libspace
          270   5818: __user_perthread_libspace
          271   5844: _sys_exit
          272   5854: __I$use$semihosting
          273   5874: __use_no_semihosting_swi
          274   5899: __semihosting_library_function
          275   5930: am_bsp_debug_printf_disable
          276   5958: am_bsp_debug_printf_enable
          277   5985: am_bsp_itm_string_print
          278   6009: am_bsp_low_power_init
          279   6031: am_ctimer_isr
          280   6045: am_hal_clkgen_osc_start
          281   6069: am_hal_clkgen_osc_stop
          282   6092: am_hal_clkgen_sysclk_get
          283   6117: am_hal_clkgen_sysclk_select
          284   6145: am_hal_ctimer_clear
          285   6165: am_hal_ctimer_config
          286   6186: am_hal_ctimer_int_clear
          287   6210: am_hal_ctimer_int_enable
          288   6235: am_hal_ctimer_period_set
          289   6260: am_hal_ctimer_start
          290   6280: am_hal_interrupt_enable
          291   6304: am_hal_itm_enable
          292   6322: am_hal_itm_not_busy
          293   6342: am_hal_itm_print
          294   6359: am_hal_mcuctrl_bandgap_disable
          295   6390: am_hal_mcuctrl_bucks_enable
          296   6418: am_hal_mcuctrl_fault_status
          297   6446: am_hal_rtc_osc_disable
          298   6469: am_hal_rtc_osc_enable
          299   6491: am_hal_rtc_osc_select
          300   6513: am_hal_rtc_time_get
          301   6533: am_hal_rtc_time_set
          302   6553: am_hal_sysctrl_sleep
          303   6574: am_hal_tpiu_disable
          304   6594: am_hal_tpiu_enable
          305   6613: am_hal_vcomp_disable
          306   6634: am_util_faultisr_collect_data
          307   6664: am_util_stdio_printf
          308   6685: am_util_stdio_printf_init
          309   6711: am_util_stdio_terminal_clear
          310   6740: am_util_stdio_vsprintf
          311   6763: am_util_string_strnicmp
          312   6787: am_util_time_computeDayofWeek
          313   6817: main
          314   6822: mthToIndex
          315   6833: timerA0_init
          316   6846: toVal
          317   6852: __aeabi_d2f
          318   6864: _d2f
          319   6869: __fpl_dnaninf
          320   6883: _fp_init
          321   6892: __fplib_config_fpu_vfp
          322   6915: __fplib_config_pureend_doubles
          323   6946: __fpl_fretinf
          324   6960: __I$use$fp
          325   6971: am_cattr
          326   6980: Region$$Table$$Base
          327   7000: Region$$Table$$Limit
          328   7021: pcWeekday
          329   7031: pcMonth
          330   7039: g_sTimer0
          331   7049: g_LastSecond
          332   7062: g_TestCount
          333   7074: g_pfnCharPrint
          334   7089: g_ui32HALflags
          335   7104: hal_time
          336   7113: __libspace_start
          337   7130: __temporary_stack_top$libspace
          338   7161: 
          339   7162: 
          340   7163: 


** Section #13 '.note' (SHT_NOTE)
    Size   : 28 bytes (alignment 4)


** Section #14 '.comment' (SHT_PROGBITS)
    Size   : 15940 bytes


** Section #15 '.shstrtab' (SHT_STRTAB)
    Size   : 148 bytes

            #  Offset String
        ====================================

            1      1: FLASH
            2      7: SRAM
            3     12: .debug_abbrev
            4     26: .debug_frame
            5     39: .debug_info
            6     51: .debug_line
            7     63: .debug_loc
            8     74: .debug_macinfo
            9     89: .debug_pubnames
           10    105: .symtab
           11    113: .strtab
           12    121: .note
           13    127: .comment
           14    136: .shstrtab
           15    146: 
           16    147: 


