
========================================================================

** ELF Header Information

    File Name: bin\ble_freertos_fcc_test.axf

    Machine class: ELFCLASS32 (32-bit)
    Data encoding: ELFDATA2LSB (Little endian)
    Header version: EV_CURRENT (Current version)
    Operating System ABI: none
    ABI Version: 0
    File Type: ET_EXEC (Executable) (2)
    Machine: EM_ARM (ARM)

    Image Entry point: 0x0000c139
    Flags: EF_ARM_HASENTRY + EF_ARM_ABI_FLOAT_HARD (0x05000402)

    ARM ELF revision: 5 (ABI version 2)

    Conforms to Hard float procedure-call standard

    Built with
    Component: ARM Compiler 5.06 update 6 (build 750) Tool: armasm [4d35ec]
    Component: ARM Compiler 5.06 update 6 (build 750) Tool: armlink [4d35ed]

    Header size: 52 bytes (0x34)
    Program header entry size: 32 bytes (0x20)
    Section header entry size: 40 bytes (0x28)

    Program header entries: 1
    Section header entries: 17

    Program header offset: 1319836 (0x0014239c)
    Section header offset: 1319868 (0x001423bc)

    Section header string table index: 16

========================================================================

** Program header #0 (PT_LOAD) [PF_X + PF_W + PF_R + PF_ARM_ENTRY]
    Size : 62460 bytes (28016 bytes in file)
    Virtual address: 0x0000c000 (Alignment 8)


========================================================================

** Section #1 'ROMEM' (SHT_PROGBITS) [SHF_ALLOC + SHF_EXECINSTR]
    Size   : 26276 bytes (alignment 4)
    Address: 0x0000c000

    $d
    RESET
    __Vectors
        0x0000c000:    10013000    .0..    DCD    268513280
        0x0000c004:    0000c101    ....    DCD    49409
        0x0000c008:    0000c11f    ....    DCD    49439
        0x0000c00c:    0000c2d9    ....    DCD    49881
        0x0000c010:    0000c121    !...    DCD    49441
        0x0000c014:    0000c123    #...    DCD    49443
        0x0000c018:    0000c125    %...    DCD    49445
        0x0000c01c:    0000c127    '...    DCD    49447
        0x0000c020:    00000000    ....    DCD    0
        0x0000c024:    00000000    ....    DCD    0
        0x0000c028:    00000000    ....    DCD    0
        0x0000c02c:    0000c219    ....    DCD    49689
        0x0000c030:    0000c12b    +...    DCD    49451
        0x0000c034:    00000000    ....    DCD    0
        0x0000c038:    0000c275    u...    DCD    49781
        0x0000c03c:    0000c925    %...    DCD    51493
        0x0000c040:    0000c131    1...    DCD    49457
        0x0000c044:    0000c131    1...    DCD    49457
        0x0000c048:    0000c131    1...    DCD    49457
        0x0000c04c:    0000c131    1...    DCD    49457
        0x0000c050:    0000c131    1...    DCD    49457
        0x0000c054:    0000c131    1...    DCD    49457
        0x0000c058:    0000c131    1...    DCD    49457
        0x0000c05c:    0000c131    1...    DCD    49457
        0x0000c060:    0000c131    1...    DCD    49457
        0x0000c064:    0000c131    1...    DCD    49457
        0x0000c068:    0000c131    1...    DCD    49457
        0x0000c06c:    0000c131    1...    DCD    49457
        0x0000c070:    0000cad9    ....    DCD    51929
        0x0000c074:    0000c131    1...    DCD    49457
        0x0000c078:    0000c131    1...    DCD    49457
        0x0000c07c:    0000c131    1...    DCD    49457
        0x0000c080:    0000c131    1...    DCD    49457
        0x0000c084:    0000c131    1...    DCD    49457
        0x0000c088:    0000c131    1...    DCD    49457
        0x0000c08c:    0000c131    1...    DCD    49457
        0x0000c090:    0000c131    1...    DCD    49457
        0x0000c094:    0000c131    1...    DCD    49457
        0x0000c098:    0000c131    1...    DCD    49457
        0x0000c09c:    0000f0b9    ....    DCD    61625
        0x0000c0a0:    0000f0d9    ....    DCD    61657
        0x0000c0a4:    0000c131    1...    DCD    49457
        0x0000c0a8:    0000c131    1...    DCD    49457
        0x0000c0ac:    0000c131    1...    DCD    49457
        0x0000c0b0:    0000c131    1...    DCD    49457
        0x0000c0b4:    0000c131    1...    DCD    49457
        0x0000c0b8:    0000c131    1...    DCD    49457
        0x0000c0bc:    0000c131    1...    DCD    49457
        0x0000c0c0:    0000c131    1...    DCD    49457
        0x0000c0c4:    0000c131    1...    DCD    49457
    __Patchable
        0x0000c0c8:    00000000    ....    DCD    0
        0x0000c0cc:    00000000    ....    DCD    0
        0x0000c0d0:    00000000    ....    DCD    0
        0x0000c0d4:    00000000    ....    DCD    0
        0x0000c0d8:    00000000    ....    DCD    0
        0x0000c0dc:    00000000    ....    DCD    0
        0x0000c0e0:    00000000    ....    DCD    0
        0x0000c0e4:    00000000    ....    DCD    0
        0x0000c0e8:    00000000    ....    DCD    0
        0x0000c0ec:    00000000    ....    DCD    0
        0x0000c0f0:    00000000    ....    DCD    0
        0x0000c0f4:    00000000    ....    DCD    0
        0x0000c0f8:    00000000    ....    DCD    0
        0x0000c0fc:    00000000    ....    DCD    0
    $t
    $v0
    Reset_Handler
        0x0000c100:    f64e5088    N..P    MOV      r0,#0xed88
        0x0000c104:    f2ce0000    ....    MOVT     r0,#0xe000
        0x0000c108:    6801        .h      LDR      r1,[r0,#0]
        0x0000c10a:    f4410170    A.p.    ORR      r1,r1,#0xf00000
        0x0000c10e:    6001        .`      STR      r1,[r0,#0]
        0x0000c110:    f3bf8f4f    ..O.    DSB      
        0x0000c114:    f3bf8f6f    ..o.    ISB      
        0x0000c118:    4806        .H      LDR      r0,[pc,#24] ; [0xc134] = 0xc139
        0x0000c11a:    4700        .G      BX       r0
        0x0000c11c:    e7fe        ..      B        0xc11c ; Reset_Handler + 28
    NMI_Handler
        0x0000c11e:    e7fe        ..      B        NMI_Handler ; 0xc11e
    MemManage_Handler
        0x0000c120:    e7fe        ..      B        MemManage_Handler ; 0xc120
    BusFault_Handler
        0x0000c122:    e7fe        ..      B        BusFault_Handler ; 0xc122
    UsageFault_Handler
        0x0000c124:    e7fe        ..      B        UsageFault_Handler ; 0xc124
    SecureFault_Handler
        0x0000c126:    e7fe        ..      B        SecureFault_Handler ; 0xc126
        0x0000c128:    e7fe        ..      B        0xc128 ; SecureFault_Handler + 2
    DebugMon_Handler
        0x0000c12a:    e7fe        ..      B        DebugMon_Handler ; 0xc12a
        0x0000c12c:    e7fe        ..      B        0xc12c ; DebugMon_Handler + 2
        0x0000c12e:    e7fe        ..      B        0xc12e ; DebugMon_Handler + 4
    am_adc_isr
    am_brownout_isr
    am_clkgen_isr
    am_ctimer_isr
    am_gpio_isr
    am_iomaster0_isr
    am_iomaster1_isr
    am_iomaster2_isr
    am_iomaster3_isr
    am_iomaster4_isr
    am_iomaster5_isr
    am_ioslave_acc_isr
    am_ioslave_ios_isr
    am_mspi0_isr
    am_mspi1_isr
    am_mspi2_isr
    am_pdm0_isr
    am_rtc_isr
    am_scard_isr
    am_software0_isr
    am_stimer_cmpr2_isr
    am_stimer_cmpr3_isr
    am_stimer_cmpr4_isr
    am_stimer_cmpr5_isr
    am_stimer_cmpr6_isr
    am_stimer_cmpr7_isr
    am_stimer_isr
    am_uart0_isr
    am_uart1_isr
    am_uart_isr
    am_vcomp_isr
    am_watchdog_isr
        0x0000c130:    e7fe        ..      B        am_adc_isr ; 0xc130
    $d
        0x0000c132:    0000        ..      DCW    0
        0x0000c134:    0000c139    9...    DCD    49465
    $t
    !!!main
    __main
        0x0000c138:    f000f802    ....    BL       __scatterload ; 0xc140
        0x0000c13c:    f000f85c    ..\.    BL       __rt_entry ; 0xc1f8
    !!!scatter
    __scatterload
    __scatterload_rt2
    __scatterload_rt2_thumb_only
        0x0000c140:    a00a        ..      ADR      r0,{pc}+0x2c ; 0xc16c
        0x0000c142:    e8900c00    ....    LDM      r0,{r10,r11}
        0x0000c146:    4482        .D      ADD      r10,r10,r0
        0x0000c148:    4483        .D      ADD      r11,r11,r0
        0x0000c14a:    f1aa0701    ....    SUB      r7,r10,#1
    __scatterload_null
        0x0000c14e:    45da        .E      CMP      r10,r11
        0x0000c150:    d101        ..      BNE      0xc156 ; __scatterload_null + 8
        0x0000c152:    f000f851    ..Q.    BL       __rt_entry ; 0xc1f8
        0x0000c156:    f2af0e09    ....    ADR      lr,{pc}-7 ; 0xc14f
        0x0000c15a:    e8ba000f    ....    LDM      r10!,{r0-r3}
        0x0000c15e:    f0130f01    ....    TST      r3,#1
        0x0000c162:    bf18        ..      IT       NE
        0x0000c164:    1afb        ..      SUBNE    r3,r7,r3
        0x0000c166:    f0430301    C...    ORR      r3,r3,#1
        0x0000c16a:    4718        .G      BX       r3
    $d
        0x0000c16c:    00006508    .e..    DCD    25864
        0x0000c170:    00006538    8e..    DCD    25912
    $t
    !!dczerorl2
    __decompress
    __decompress1
        0x0000c174:    440a        .D      ADD      r2,r2,r1
        0x0000c176:    f04f0c00    O...    MOV      r12,#0
        0x0000c17a:    f8103b01    ...;    LDRB     r3,[r0],#1
        0x0000c17e:    f0130407    ....    ANDS     r4,r3,#7
        0x0000c182:    bf08        ..      IT       EQ
        0x0000c184:    f8104b01    ...K    LDRBEQ   r4,[r0],#1
        0x0000c188:    111d        ..      ASRS     r5,r3,#4
        0x0000c18a:    bf08        ..      IT       EQ
        0x0000c18c:    f8105b01    ...[    LDRBEQ   r5,[r0],#1
        0x0000c190:    1e64        d.      SUBS     r4,r4,#1
        0x0000c192:    d005        ..      BEQ      0xc1a0 ; __decompress + 44
        0x0000c194:    f8106b01    ...k    LDRB     r6,[r0],#1
        0x0000c198:    1e64        d.      SUBS     r4,r4,#1
        0x0000c19a:    f8016b01    ...k    STRB     r6,[r1],#1
        0x0000c19e:    d1f9        ..      BNE      0xc194 ; __decompress + 32
        0x0000c1a0:    f0130f08    ....    TST      r3,#8
        0x0000c1a4:    bf1e        ..      ITTT     NE
        0x0000c1a6:    f8104b01    ...K    LDRBNE   r4,[r0],#1
        0x0000c1aa:    1cad        ..      ADDNE    r5,r5,#2
        0x0000c1ac:    1b0c        ..      SUBNE    r4,r1,r4
        0x0000c1ae:    d109        ..      BNE      0xc1c4 ; __decompress + 80
        0x0000c1b0:    1e6d        m.      SUBS     r5,r5,#1
        0x0000c1b2:    bf58        X.      IT       PL
        0x0000c1b4:    f801cb01    ....    STRBPL   r12,[r1],#1
        0x0000c1b8:    d5fa        ..      BPL      0xc1b0 ; __decompress + 60
        0x0000c1ba:    e005        ..      B        0xc1c8 ; __decompress + 84
        0x0000c1bc:    f8146b01    ...k    LDRB     r6,[r4],#1
        0x0000c1c0:    f8016b01    ...k    STRB     r6,[r1],#1
        0x0000c1c4:    1e6d        m.      SUBS     r5,r5,#1
        0x0000c1c6:    d5f9        ..      BPL      0xc1bc ; __decompress + 72
        0x0000c1c8:    4291        .B      CMP      r1,r2
        0x0000c1ca:    d3d6        ..      BCC      0xc17a ; __decompress + 6
        0x0000c1cc:    4770        pG      BX       lr
        0x0000c1ce:    0000        ..      MOVS     r0,r0
    !!handler_zi
    __scatterload_zeroinit
        0x0000c1d0:    2300        .#      MOVS     r3,#0
        0x0000c1d2:    2400        .$      MOVS     r4,#0
        0x0000c1d4:    2500        .%      MOVS     r5,#0
        0x0000c1d6:    2600        .&      MOVS     r6,#0
        0x0000c1d8:    3a10        .:      SUBS     r2,r2,#0x10
        0x0000c1da:    bf28        (.      IT       CS
        0x0000c1dc:    c178        x.      STMCS    r1!,{r3-r6}
        0x0000c1de:    d8fb        ..      BHI      0xc1d8 ; __scatterload_zeroinit + 8
        0x0000c1e0:    0752        R.      LSLS     r2,r2,#29
        0x0000c1e2:    bf28        (.      IT       CS
        0x0000c1e4:    c130        0.      STMCS    r1!,{r4,r5}
        0x0000c1e6:    bf48        H.      IT       MI
        0x0000c1e8:    600b        .`      STRMI    r3,[r1,#0]
        0x0000c1ea:    4770        pG      BX       lr
    .ARM.Collect$$libinit$$00000000
    __rt_lib_init
        0x0000c1ec:    b51f        ..      PUSH     {r0-r4,lr}
    .ARM.Collect$$libinit$$00000001
    __rt_lib_init_fp_1
        0x0000c1ee:    f005fd06    ....    BL       _fp_init ; 0x11bfe
    .ARM.Collect$$libinit$$00000004
    .ARM.Collect$$libinit$$0000000A
    .ARM.Collect$$libinit$$0000000C
    .ARM.Collect$$libinit$$0000000E
    .ARM.Collect$$libinit$$00000011
    .ARM.Collect$$libinit$$00000013
    .ARM.Collect$$libinit$$00000015
    .ARM.Collect$$libinit$$00000017
    .ARM.Collect$$libinit$$00000019
    .ARM.Collect$$libinit$$0000001B
    .ARM.Collect$$libinit$$0000001D
    .ARM.Collect$$libinit$$0000001F
    .ARM.Collect$$libinit$$00000021
    .ARM.Collect$$libinit$$00000023
    .ARM.Collect$$libinit$$00000025
    .ARM.Collect$$libinit$$0000002C
    .ARM.Collect$$libinit$$0000002E
    .ARM.Collect$$libinit$$00000030
    .ARM.Collect$$libinit$$00000032
    .ARM.Collect$$libinit$$00000033
    __rt_lib_init_alloca_1
    __rt_lib_init_argv_1
    __rt_lib_init_atexit_1
    __rt_lib_init_clock_1
    __rt_lib_init_cpp_1
    __rt_lib_init_exceptions_1
    __rt_lib_init_fp_trap_1
    __rt_lib_init_getenv_1
    __rt_lib_init_heap_1
    __rt_lib_init_lc_collate_1
    __rt_lib_init_lc_ctype_1
    __rt_lib_init_lc_monetary_1
    __rt_lib_init_lc_numeric_1
    __rt_lib_init_lc_time_1
    __rt_lib_init_preinit_1
    __rt_lib_init_rand_1
    __rt_lib_init_return
    __rt_lib_init_signal_1
    __rt_lib_init_stdio_1
    __rt_lib_init_user_alloc_1
        0x0000c1f2:    bd1f        ..      POP      {r0-r4,pc}
    .ARM.Collect$$libshutdown$$00000000
    __rt_lib_shutdown
        0x0000c1f4:    b510        ..      PUSH     {r4,lr}
    .ARM.Collect$$libshutdown$$00000002
    .ARM.Collect$$libshutdown$$00000004
    .ARM.Collect$$libshutdown$$00000007
    .ARM.Collect$$libshutdown$$0000000A
    .ARM.Collect$$libshutdown$$0000000C
    .ARM.Collect$$libshutdown$$0000000F
    .ARM.Collect$$libshutdown$$00000010
    __rt_lib_shutdown_cpp_1
    __rt_lib_shutdown_fp_trap_1
    __rt_lib_shutdown_heap_1
    __rt_lib_shutdown_return
    __rt_lib_shutdown_signal_1
    __rt_lib_shutdown_stdio_1
    __rt_lib_shutdown_user_alloc_1
        0x0000c1f6:    bd10        ..      POP      {r4,pc}
    .ARM.Collect$$rtentry$$00000000
    .ARM.Collect$$rtentry$$00000002
    .ARM.Collect$$rtentry$$00000004
    __rt_entry
    __rt_entry_presh_1
    __rt_entry_sh
        0x0000c1f8:    f000f968    ..h.    BL       __user_setup_stackheap ; 0xc4cc
        0x0000c1fc:    4611        .F      MOV      r1,r2
    .ARM.Collect$$rtentry$$00000009
    .ARM.Collect$$rtentry$$0000000A
    __rt_entry_li
    __rt_entry_postsh_1
        0x0000c1fe:    f7fffff5    ....    BL       __rt_lib_init ; 0xc1ec
    .ARM.Collect$$rtentry$$0000000C
    .ARM.Collect$$rtentry$$0000000D
    __rt_entry_main
    __rt_entry_postli_1
        0x0000c202:    f003fda1    ....    BL       main ; 0xfd48
        0x0000c206:    f000f986    ....    BL       exit ; 0xc516
    .ARM.Collect$$rtexit$$00000000
    __rt_exit
        0x0000c20a:    b403        ..      PUSH     {r0,r1}
    .ARM.Collect$$rtexit$$00000002
    .ARM.Collect$$rtexit$$00000003
    __rt_exit_ls
    __rt_exit_prels_1
        0x0000c20c:    f7fffff2    ....    BL       __rt_lib_shutdown ; 0xc1f4
    .ARM.Collect$$rtexit$$00000004
    __rt_exit_exit
        0x0000c210:    bc03        ..      POP      {r0,r1}
        0x0000c212:    f000f989    ....    BL       _sys_exit ; 0xc528
        0x0000c216:    0000        ..      MOVS     r0,r0
    .emb_text
    $v0
    SVC_Handler
        0x0000c218:    4b2c        ,K      LDR      r3,[pc,#176] ; [0xc2cc] = 0x10013084
        0x0000c21a:    6819        .h      LDR      r1,[r3,#0]
        0x0000c21c:    6808        .h      LDR      r0,[r1,#0]
        0x0000c21e:    e8b04ff0    ...O    LDM      r0!,{r4-r11,lr}
        0x0000c222:    f3808809    ....    MSR      PSP,r0
        0x0000c226:    f3bf8f6f    ..o.    ISB      
        0x0000c22a:    f04f0000    O...    MOV      r0,#0
        0x0000c22e:    f3808811    ....    MSR      BASEPRI,r0
        0x0000c232:    4770        pG      BX       lr
    $d
        0x0000c234:    00000000    ....    DCD    0
    $t
    __asm___6_port_c_39a90d8d__prvStartFirstTask
        0x0000c238:    4808        .H      LDR      r0,[pc,#32] ; [0xc25c] = 0xe000ed08
        0x0000c23a:    6800        .h      LDR      r0,[r0,#0]
        0x0000c23c:    6800        .h      LDR      r0,[r0,#0]
        0x0000c23e:    f3808808    ....    MSR      MSP,r0
        0x0000c242:    f04f0000    O...    MOV      r0,#0
        0x0000c246:    f3808814    ....    MSR      CONTROL,r0
        0x0000c24a:    b662        b.      CPSIE    i
        0x0000c24c:    b661        a.      CPSIE    f
        0x0000c24e:    f3bf8f4f    ..O.    DSB      
        0x0000c252:    f3bf8f6f    ..o.    ISB      
        0x0000c256:    df00        ..      SVC      #0x0 ; formerly SWI
        0x0000c258:    bf00        ..      NOP      
        0x0000c25a:    bf00        ..      NOP      
    $d
        0x0000c25c:    e000ed08    ....    DCD    3758157064
    $t
    __asm___6_port_c_39a90d8d__prvEnableVFP
        0x0000c260:    f8df000c    ....    LDR.W    r0,[pc,#12] ; [0xc270] = 0xe000ed88
        0x0000c264:    6801        .h      LDR      r1,[r0,#0]
        0x0000c266:    f4410170    A.p.    ORR      r1,r1,#0xf00000
        0x0000c26a:    6001        .`      STR      r1,[r0,#0]
        0x0000c26c:    4770        pG      BX       lr
        0x0000c26e:    bf00        ..      NOP      
    $d
        0x0000c270:    e000ed88    ....    DCD    3758157192
    $t
    PendSV_Handler
        0x0000c274:    f3ef8009    ....    MRS      r0,PSP
        0x0000c278:    f3bf8f6f    ..o.    ISB      
        0x0000c27c:    4b13        .K      LDR      r3,[pc,#76] ; [0xc2cc] = 0x10013084
        0x0000c27e:    681a        .h      LDR      r2,[r3,#0]
        0x0000c280:    f01e0f10    ....    TST      lr,#0x10
        0x0000c284:    bf08        ..      IT       EQ
        0x0000c286:    ed208a10     ...    VSTMDBEQ r0!,{s16-s31}
        0x0000c28a:    e9204ff0     ..O    STMDB    r0!,{r4-r11,lr}
        0x0000c28e:    6010        .`      STR      r0,[r2,#0]
        0x0000c290:    b409        ..      PUSH     {r0,r3}
        0x0000c292:    f04f0080    O...    MOV      r0,#0x80
        0x0000c296:    f3808811    ....    MSR      BASEPRI,r0
        0x0000c29a:    f3bf8f4f    ..O.    DSB      
        0x0000c29e:    f3bf8f6f    ..o.    ISB      
        0x0000c2a2:    f004fe21    ..!.    BL       vTaskSwitchContext ; 0x10ee8
        0x0000c2a6:    f04f0000    O...    MOV      r0,#0
        0x0000c2aa:    f3808811    ....    MSR      BASEPRI,r0
        0x0000c2ae:    bc09        ..      POP      {r0,r3}
        0x0000c2b0:    6819        .h      LDR      r1,[r3,#0]
        0x0000c2b2:    6808        .h      LDR      r0,[r1,#0]
        0x0000c2b4:    e8b04ff0    ...O    LDM      r0!,{r4-r11,lr}
        0x0000c2b8:    f01e0f10    ....    TST      lr,#0x10
        0x0000c2bc:    bf08        ..      IT       EQ
        0x0000c2be:    ecb08a10    ....    VLDMEQ   r0!,{s16-s31}
        0x0000c2c2:    f3808809    ....    MSR      PSP,r0
        0x0000c2c6:    f3bf8f6f    ..o.    ISB      
        0x0000c2ca:    4770        pG      BX       lr
    $d
        0x0000c2cc:    10013084    .0..    DCD    268513412
    $t
    vPortGetIPSR
        0x0000c2d0:    f3ef8005    ....    MRS      r0,IPSR
        0x0000c2d4:    4770        pG      BX       lr
        0x0000c2d6:    0000        ..      MOVS     r0,r0
    .emb_text
    $v0
    HardFault_Handler
        0x0000c2d8:    b501        ..      PUSH     {r0,lr}
        0x0000c2da:    f01e0f04    ....    TST      lr,#4
        0x0000c2de:    bf0a        ..      ITET     EQ
        0x0000c2e0:    f3ef8008    ....    MRSEQ    r0,MSP
        0x0000c2e4:    f3ef8009    ....    MRSNE    r0,PSP
        0x0000c2e8:    f1100008    ....    ADDSEQ   r0,r0,#8
        0x0000c2ec:    f003f832    ..2.    BL       am_util_faultisr_collect_data ; 0xf354
        0x0000c2f0:    bd01        ..      POP      {r0,pc}
    getStackedReg
        0x0000c2f2:    0080        ..      LSLS     r0,r0,#2
        0x0000c2f4:    1840        @.      ADDS     r0,r0,r1
        0x0000c2f6:    6800        .h      LDR      r0,[r0,#0]
        0x0000c2f8:    4770        pG      BX       lr
        0x0000c2fa:    0000        ..      MOVS     r0,r0
    .emb_text
    $v0
    am_hal_interrupt_master_enable
        0x0000c2fc:    f3ef8010    ....    MRS      r0,PRIMASK
        0x0000c300:    b662        b.      CPSIE    i
        0x0000c302:    4770        pG      BX       lr
    am_hal_interrupt_master_disable
        0x0000c304:    f3ef8010    ....    MRS      r0,PRIMASK
        0x0000c308:    b672        r.      CPSID    i
        0x0000c30a:    4770        pG      BX       lr
    am_hal_interrupt_master_set
        0x0000c30c:    f3808810    ....    MSR      PRIMASK,r0
        0x0000c310:    4770        pG      BX       lr
        0x0000c312:    0000        ..      MOVS     r0,r0
    .text
    $v0
    __user_initial_stackheap
        0x0000c314:    4802        .H      LDR      r0,[pc,#8] ; [0xc320] = 0x10018d58
        0x0000c316:    4903        .I      LDR      r1,[pc,#12] ; [0xc324] = 0x10013000
        0x0000c318:    4a01        .J      LDR      r2,[pc,#4] ; [0xc320] = 0x10018d58
        0x0000c31a:    4b03        .K      LDR      r3,[pc,#12] ; [0xc328] = 0x10010000
        0x0000c31c:    4770        pG      BX       lr
    $d
        0x0000c31e:    0000        ..      DCW    0
        0x0000c320:    10018d58    X...    DCD    268537176
        0x0000c324:    10013000    .0..    DCD    268513280
        0x0000c328:    10010000    ....    DCD    268500992
    $t
    .text
    __aeabi_memcpy
    __rt_memcpy
        0x0000c32c:    2a03        .*      CMP      r2,#3
        0x0000c32e:    f2408030    @.0.    BLS.W    _memcpy_lastbytes ; 0xc392
        0x0000c332:    f0100c03    ....    ANDS     r12,r0,#3
        0x0000c336:    f0008015    ....    BEQ.W    0xc364 ; __aeabi_memcpy + 56
        0x0000c33a:    f8113b01    ...;    LDRB     r3,[r1],#1
        0x0000c33e:    f1bc0f02    ....    CMP      r12,#2
        0x0000c342:    4462        bD      ADD      r2,r2,r12
        0x0000c344:    bf98        ..      IT       LS
        0x0000c346:    f811cb01    ....    LDRBLS   r12,[r1],#1
        0x0000c34a:    f8003b01    ...;    STRB     r3,[r0],#1
        0x0000c34e:    bf38        8.      IT       CC
        0x0000c350:    f8113b01    ...;    LDRBCC   r3,[r1],#1
        0x0000c354:    f1a20204    ....    SUB      r2,r2,#4
        0x0000c358:    bf98        ..      IT       LS
        0x0000c35a:    f800cb01    ....    STRBLS   r12,[r0],#1
        0x0000c35e:    bf38        8.      IT       CC
        0x0000c360:    f8003b01    ...;    STRBCC   r3,[r0],#1
        0x0000c364:    f0110303    ....    ANDS     r3,r1,#3
        0x0000c368:    f0008025    ..%.    BEQ.W    __aeabi_memcpy4 ; 0xc3b6
        0x0000c36c:    3a08        .:      SUBS     r2,r2,#8
        0x0000c36e:    f0c08008    ....    BCC.W    0xc382 ; __aeabi_memcpy + 86
        0x0000c372:    f8513b04    Q..;    LDR      r3,[r1],#4
        0x0000c376:    3a08        .:      SUBS     r2,r2,#8
        0x0000c378:    f851cb04    Q...    LDR      r12,[r1],#4
        0x0000c37c:    e8a01008    ....    STM      r0!,{r3,r12}
        0x0000c380:    e7f5        ..      B        0xc36e ; __aeabi_memcpy + 66
        0x0000c382:    1d12        ..      ADDS     r2,r2,#4
        0x0000c384:    bf5c        \.      ITT      PL
        0x0000c386:    f8513b04    Q..;    LDRPL    r3,[r1],#4
        0x0000c38a:    f8403b04    @..;    STRPL    r3,[r0],#4
        0x0000c38e:    f3af8000    ....    NOP.W    
    _memcpy_lastbytes
        0x0000c392:    07d2        ..      LSLS     r2,r2,#31
        0x0000c394:    bf24        $.      ITT      CS
        0x0000c396:    f8113b01    ...;    LDRBCS   r3,[r1],#1
        0x0000c39a:    f811cb01    ....    LDRBCS   r12,[r1],#1
        0x0000c39e:    bf48        H.      IT       MI
        0x0000c3a0:    f8112b01    ...+    LDRBMI   r2,[r1],#1
        0x0000c3a4:    bf24        $.      ITT      CS
        0x0000c3a6:    f8003b01    ...;    STRBCS   r3,[r0],#1
        0x0000c3aa:    f800cb01    ....    STRBCS   r12,[r0],#1
        0x0000c3ae:    bf48        H.      IT       MI
        0x0000c3b0:    f8002b01    ...+    STRBMI   r2,[r0],#1
        0x0000c3b4:    4770        pG      BX       lr
    .text
    __aeabi_memcpy4
    __aeabi_memcpy8
    __rt_memcpy_w
        0x0000c3b6:    b510        ..      PUSH     {r4,lr}
        0x0000c3b8:    3a20         :      SUBS     r2,r2,#0x20
        0x0000c3ba:    f0c0800b    ....    BCC.W    0xc3d4 ; __aeabi_memcpy4 + 30
        0x0000c3be:    e8b15018    ...P    LDM      r1!,{r3,r4,r12,lr}
        0x0000c3c2:    3a20         :      SUBS     r2,r2,#0x20
        0x0000c3c4:    e8a05018    ...P    STM      r0!,{r3,r4,r12,lr}
        0x0000c3c8:    e8b15018    ...P    LDM      r1!,{r3,r4,r12,lr}
        0x0000c3cc:    e8a05018    ...P    STM      r0!,{r3,r4,r12,lr}
        0x0000c3d0:    f4bfaff5    ....    BCS.W    0xc3be ; __aeabi_memcpy4 + 8
        0x0000c3d4:    ea5f7c02    _..|    LSLS     r12,r2,#28
        0x0000c3d8:    bf24        $.      ITT      CS
        0x0000c3da:    e8b15018    ...P    LDMCS    r1!,{r3,r4,r12,lr}
        0x0000c3de:    e8a05018    ...P    STMCS    r0!,{r3,r4,r12,lr}
        0x0000c3e2:    bf44        D.      ITT      MI
        0x0000c3e4:    c918        ..      LDMMI    r1!,{r3,r4}
        0x0000c3e6:    c018        ..      STMMI    r0!,{r3,r4}
        0x0000c3e8:    e8bd4010    ...@    POP      {r4,lr}
        0x0000c3ec:    ea5f7c82    _..|    LSLS     r12,r2,#30
        0x0000c3f0:    bf24        $.      ITT      CS
        0x0000c3f2:    f8513b04    Q..;    LDRCS    r3,[r1],#4
        0x0000c3f6:    f8403b04    @..;    STRCS    r3,[r0],#4
        0x0000c3fa:    bf08        ..      IT       EQ
        0x0000c3fc:    4770        pG      BXEQ     lr
    _memcpy_lastbytes_aligned
        0x0000c3fe:    07d2        ..      LSLS     r2,r2,#31
        0x0000c400:    bf28        (.      IT       CS
        0x0000c402:    f8313b02    1..;    LDRHCS   r3,[r1],#2
        0x0000c406:    bf48        H.      IT       MI
        0x0000c408:    f8112b01    ...+    LDRBMI   r2,[r1],#1
        0x0000c40c:    bf28        (.      IT       CS
        0x0000c40e:    f8203b02     ..;    STRHCS   r3,[r0],#2
        0x0000c412:    bf48        H.      IT       MI
        0x0000c414:    f8002b01    ...+    STRBMI   r2,[r0],#1
        0x0000c418:    4770        pG      BX       lr
    .text
    __aeabi_memset
        0x0000c41a:    f00203ff    ....    AND      r3,r2,#0xff
        0x0000c41e:    ea432203    C.."    ORR      r2,r3,r3,LSL #8
        0x0000c422:    ea424202    B..B    ORR      r2,r2,r2,LSL #16
        0x0000c426:    f000b802    ....    B.W      _memset ; 0xc42e
    .text
    __aeabi_memclr
    __rt_memclr
        0x0000c42a:    f04f0200    O...    MOV      r2,#0
    _memset
        0x0000c42e:    2904        .)      CMP      r1,#4
        0x0000c430:    f0c08012    ....    BCC.W    0xc458 ; _memset + 42
        0x0000c434:    f0100c03    ....    ANDS     r12,r0,#3
        0x0000c438:    f000801b    ....    BEQ.W    _memset_w ; 0xc472
        0x0000c43c:    f1cc0c04    ....    RSB      r12,r12,#4
        0x0000c440:    f1bc0f02    ....    CMP      r12,#2
        0x0000c444:    bf18        ..      IT       NE
        0x0000c446:    f8002b01    ...+    STRBNE   r2,[r0],#1
        0x0000c44a:    bfa8        ..      IT       GE
        0x0000c44c:    f8202b02     ..+    STRHGE   r2,[r0],#2
        0x0000c450:    eba1010c    ....    SUB      r1,r1,r12
        0x0000c454:    f000b80d    ....    B.W      _memset_w ; 0xc472
        0x0000c458:    ea5f7cc1    _..|    LSLS     r12,r1,#31
        0x0000c45c:    bf24        $.      ITT      CS
        0x0000c45e:    f8002b01    ...+    STRBCS   r2,[r0],#1
        0x0000c462:    f8002b01    ...+    STRBCS   r2,[r0],#1
        0x0000c466:    bf48        H.      IT       MI
        0x0000c468:    f8002b01    ...+    STRBMI   r2,[r0],#1
        0x0000c46c:    4770        pG      BX       lr
    .text
    __aeabi_memclr4
    __aeabi_memclr8
    __rt_memclr_w
        0x0000c46e:    f04f0200    O...    MOV      r2,#0
    _memset_w
        0x0000c472:    b500        ..      PUSH     {lr}
        0x0000c474:    4613        .F      MOV      r3,r2
        0x0000c476:    4694        .F      MOV      r12,r2
        0x0000c478:    4696        .F      MOV      lr,r2
        0x0000c47a:    3920         9      SUBS     r1,r1,#0x20
        0x0000c47c:    bf22        ".      ITTT     CS
        0x0000c47e:    e8a0500c    ...P    STMCS    r0!,{r2,r3,r12,lr}
        0x0000c482:    e8a0500c    ...P    STMCS    r0!,{r2,r3,r12,lr}
        0x0000c486:    f1b10120    .. .    SUBSCS   r1,r1,#0x20
        0x0000c48a:    f4bfaff7    ....    BCS.W    0xc47c ; _memset_w + 10
        0x0000c48e:    0709        ..      LSLS     r1,r1,#28
        0x0000c490:    bf28        (.      IT       CS
        0x0000c492:    e8a0500c    ...P    STMCS    r0!,{r2,r3,r12,lr}
        0x0000c496:    bf48        H.      IT       MI
        0x0000c498:    c00c        ..      STMMI    r0!,{r2,r3}
        0x0000c49a:    f85deb04    ]...    POP      {lr}
        0x0000c49e:    0089        ..      LSLS     r1,r1,#2
        0x0000c4a0:    bf28        (.      IT       CS
        0x0000c4a2:    f8402b04    @..+    STRCS    r2,[r0],#4
        0x0000c4a6:    bf08        ..      IT       EQ
        0x0000c4a8:    4770        pG      BXEQ     lr
        0x0000c4aa:    bf48        H.      IT       MI
        0x0000c4ac:    f8202b02     ..+    STRHMI   r2,[r0],#2
        0x0000c4b0:    f0114f80    ...O    TST      r1,#0x40000000
        0x0000c4b4:    bf18        ..      IT       NE
        0x0000c4b6:    f8002b01    ...+    STRBNE   r2,[r0],#1
        0x0000c4ba:    4770        pG      BX       lr
    .text
    __use_two_region_memory
        0x0000c4bc:    4770        pG      BX       lr
    __rt_heap_escrow$2region
        0x0000c4be:    4770        pG      BX       lr
    __rt_heap_expand$2region
        0x0000c4c0:    4770        pG      BX       lr
        0x0000c4c2:    0000        ..      MOVS     r0,r0
    .text
    __user_libspace
    __user_perproc_libspace
    __user_perthread_libspace
        0x0000c4c4:    4800        .H      LDR      r0,[pc,#0] ; [0xc4c8] = 0x10018cf4
        0x0000c4c6:    4770        pG      BX       lr
    $d
        0x0000c4c8:    10018cf4    ....    DCD    268537076
    $t
    .text
    __user_setup_stackheap
        0x0000c4cc:    4675        uF      MOV      r5,lr
        0x0000c4ce:    f7fffff9    ....    BL       __user_libspace ; 0xc4c4
        0x0000c4d2:    46ae        .F      MOV      lr,r5
        0x0000c4d4:    0005        ..      MOVS     r5,r0
        0x0000c4d6:    4669        iF      MOV      r1,sp
        0x0000c4d8:    4653        SF      MOV      r3,r10
        0x0000c4da:    f0200007     ...    BIC      r0,r0,#7
        0x0000c4de:    4685        .F      MOV      sp,r0
        0x0000c4e0:    b018        ..      ADD      sp,sp,#0x60
        0x0000c4e2:    b520         .      PUSH     {r5,lr}
        0x0000c4e4:    f7ffff16    ....    BL       __user_initial_stackheap ; 0xc314
        0x0000c4e8:    e8bd4020    .. @    POP      {r5,lr}
        0x0000c4ec:    f04f0600    O...    MOV      r6,#0
        0x0000c4f0:    f04f0700    O...    MOV      r7,#0
        0x0000c4f4:    f04f0800    O...    MOV      r8,#0
        0x0000c4f8:    f04f0b00    O...    MOV      r11,#0
        0x0000c4fc:    f0210107    !...    BIC      r1,r1,#7
        0x0000c500:    46ac        .F      MOV      r12,r5
        0x0000c502:    e8ac09c0    ....    STM      r12!,{r6-r8,r11}
        0x0000c506:    e8ac09c0    ....    STM      r12!,{r6-r8,r11}
        0x0000c50a:    e8ac09c0    ....    STM      r12!,{r6-r8,r11}
        0x0000c50e:    e8ac09c0    ....    STM      r12!,{r6-r8,r11}
        0x0000c512:    468d        .F      MOV      sp,r1
        0x0000c514:    4770        pG      BX       lr
    .text
    exit
        0x0000c516:    b510        ..      PUSH     {r4,lr}
        0x0000c518:    4604        .F      MOV      r4,r0
        0x0000c51a:    f3af8000    ....    NOP.W    
        0x0000c51e:    4620         F      MOV      r0,r4
        0x0000c520:    e8bd4010    ...@    POP      {r4,lr}
        0x0000c524:    f7ffbe71    ..q.    B.W      __rt_exit ; 0xc20a
    .text
    _sys_exit
        0x0000c528:    4901        .I      LDR      r1,[pc,#4] ; [0xc530] = 0x20026
        0x0000c52a:    2018        .       MOVS     r0,#0x18
        0x0000c52c:    beab        ..      BKPT     #0xab
        0x0000c52e:    e7fe        ..      B        0xc52e ; _sys_exit + 6
    $d
        0x0000c530:    00020026    &...    DCD    131110
    $t
    .text
    __I$use$semihosting
    __use_no_semihosting_swi
        0x0000c534:    4770        pG      BX       lr
    .text
    __semihosting_library_function
        0x0000c536:    0000        ..      MOVS     r0,r0
    i.AppUiBtnTest
    AppUiBtnTest
        0x0000c538:    b510        ..      PUSH     {r4,lr}
        0x0000c53a:    4604        .F      MOV      r4,r0
        0x0000c53c:    4803        .H      LDR      r0,[pc,#12] ; [0xc54c] = 0x100138fc
        0x0000c53e:    6800        .h      LDR      r0,[r0,#0]
        0x0000c540:    b118        ..      CBZ      r0,0xc54a ; AppUiBtnTest + 18
        0x0000c542:    4802        .H      LDR      r0,[pc,#8] ; [0xc54c] = 0x100138fc
        0x0000c544:    6801        .h      LDR      r1,[r0,#0]
        0x0000c546:    4620         F      MOV      r0,r4
        0x0000c548:    4788        .G      BLX      r1
        0x0000c54a:    bd10        ..      POP      {r4,pc}
    $d
        0x0000c54c:    100138fc    .8..    DCD    268515580
    $t
    i.HciDrvIntService
    HciDrvIntService
        0x0000c550:    b510        ..      PUSH     {r4,lr}
        0x0000c552:    2101        .!      MOVS     r1,#1
        0x0000c554:    480a        .H      LDR      r0,[pc,#40] ; [0xc580] = 0x10013034
        0x0000c556:    6800        .h      LDR      r0,[r0,#0]
        0x0000c558:    f001f810    ....    BL       am_hal_ble_int_status ; 0xd57c
        0x0000c55c:    4604        .F      MOV      r4,r0
        0x0000c55e:    4621        !F      MOV      r1,r4
        0x0000c560:    4807        .H      LDR      r0,[pc,#28] ; [0xc580] = 0x10013034
        0x0000c562:    6800        .h      LDR      r0,[r0,#0]
        0x0000c564:    f000ffd2    ....    BL       am_hal_ble_int_clear ; 0xd50c
        0x0000c568:    4806        .H      LDR      r0,[pc,#24] ; [0xc584] = 0x10013050
        0x0000c56a:    6800        .h      LDR      r0,[r0,#0]
        0x0000c56c:    1c40        @.      ADDS     r0,r0,#1
        0x0000c56e:    4905        .I      LDR      r1,[pc,#20] ; [0xc584] = 0x10013050
        0x0000c570:    6008        .`      STR      r0,[r1,#0]
        0x0000c572:    2101        .!      MOVS     r1,#1
        0x0000c574:    4804        .H      LDR      r0,[pc,#16] ; [0xc588] = 0x1001303e
        0x0000c576:    7800        .x      LDRB     r0,[r0,#0]
        0x0000c578:    f000fa1c    ....    BL       WsfSetEvent ; 0xc9b4
        0x0000c57c:    bd10        ..      POP      {r4,pc}
    $d
        0x0000c57e:    0000        ..      DCW    0
        0x0000c580:    10013034    40..    DCD    268513332
        0x0000c584:    10013050    P0..    DCD    268513360
        0x0000c588:    1001303e    >0..    DCD    268513342
    $t
    i.HciDrvRadioBoot
    HciDrvRadioBoot
        0x0000c58c:    b5f0        ..      PUSH     {r4-r7,lr}
        0x0000c58e:    b085        ..      SUB      sp,sp,#0x14
        0x0000c590:    4605        .F      MOV      r5,r0
        0x0000c592:    2600        .&      MOVS     r6,#0
        0x0000c594:    2000        .       MOVS     r0,#0
        0x0000c596:    495e        ^I      LDR      r1,[pc,#376] ; [0xc710] = 0x10013048
        0x0000c598:    6008        .`      STR      r0,[r1,#0]
        0x0000c59a:    495e        ^I      LDR      r1,[pc,#376] ; [0xc714] = 0x1001304c
        0x0000c59c:    6008        .`      STR      r0,[r1,#0]
        0x0000c59e:    2401        .$      MOVS     r4,#1
        0x0000c5a0:    e082        ..      B        0xc6a8 ; HciDrvRadioBoot + 284
        0x0000c5a2:    495d        ]I      LDR      r1,[pc,#372] ; [0xc718] = 0x10013034
        0x0000c5a4:    2000        .       MOVS     r0,#0
        0x0000c5a6:    f000ff75    ..u.    BL       am_hal_ble_initialize ; 0xd494
        0x0000c5aa:    1e07        ..      SUBS     r7,r0,#0
        0x0000c5ac:    d007        ..      BEQ      0xc5be ; HciDrvRadioBoot + 50
        0x0000c5ae:    a05b        [.      ADR      r0,{pc}+0x16e ; 0xc71c
        0x0000c5b0:    f002ff2c    ..,.    BL       am_util_stdio_printf ; 0xf40c
        0x0000c5b4:    4638        8F      MOV      r0,r7
        0x0000c5b6:    f003faf9    ....    BL       error_check ; 0xfbac
        0x0000c5ba:    b005        ..      ADD      sp,sp,#0x14
        0x0000c5bc:    bdf0        ..      POP      {r4-r7,pc}
        0x0000c5be:    2100        .!      MOVS     r1,#0
        0x0000c5c0:    4855        UH      LDR      r0,[pc,#340] ; [0xc718] = 0x10013034
        0x0000c5c2:    6800        .h      LDR      r0,[r0,#0]
        0x0000c5c4:    f001fbc8    ....    BL       am_hal_ble_power_control ; 0xdd58
        0x0000c5c8:    1e07        ..      SUBS     r7,r0,#0
        0x0000c5ca:    d006        ..      BEQ      0xc5da ; HciDrvRadioBoot + 78
        0x0000c5cc:    4860        `H      LDR      r0,[pc,#384] ; [0xc750] = 0x125e0
        0x0000c5ce:    f002ff1d    ....    BL       am_util_stdio_printf ; 0xf40c
        0x0000c5d2:    4638        8F      MOV      r0,r7
        0x0000c5d4:    f003faea    ....    BL       error_check ; 0xfbac
        0x0000c5d8:    e7ef        ..      B        0xc5ba ; HciDrvRadioBoot + 46
        0x0000c5da:    2214        ."      MOVS     r2,#0x14
        0x0000c5dc:    495d        ]I      LDR      r1,[pc,#372] ; [0xc754] = 0x11c14
        0x0000c5de:    4668        hF      MOV      r0,sp
        0x0000c5e0:    f7fffee9    ....    BL       __aeabi_memcpy4 ; 0xc3b6
        0x0000c5e4:    4669        iF      MOV      r1,sp
        0x0000c5e6:    484c        LH      LDR      r0,[pc,#304] ; [0xc718] = 0x10013034
        0x0000c5e8:    6800        .h      LDR      r0,[r0,#0]
        0x0000c5ea:    f000fecd    ....    BL       am_hal_ble_config ; 0xd388
        0x0000c5ee:    1e07        ..      SUBS     r7,r0,#0
        0x0000c5f0:    d006        ..      BEQ      0xc600 ; HciDrvRadioBoot + 116
        0x0000c5f2:    a059        Y.      ADR      r0,{pc}+0x166 ; 0xc758
        0x0000c5f4:    f002ff0a    ....    BL       am_util_stdio_printf ; 0xf40c
        0x0000c5f8:    4638        8F      MOV      r0,r7
        0x0000c5fa:    f003fad7    ....    BL       error_check ; 0xfbac
        0x0000c5fe:    e7dc        ..      B        0xc5ba ; HciDrvRadioBoot + 46
        0x0000c600:    b11d        ..      CBZ      r5,0xc60a ; HciDrvRadioBoot + 126
        0x0000c602:    f44f707a    O.zp    MOV      r0,#0x3e8
        0x0000c606:    f002fe95    ....    BL       am_util_delay_ms ; 0xf334
        0x0000c60a:    4843        CH      LDR      r0,[pc,#268] ; [0xc718] = 0x10013034
        0x0000c60c:    6800        .h      LDR      r0,[r0,#0]
        0x0000c60e:    f000fdab    ....    BL       am_hal_ble_boot ; 0xd168
        0x0000c612:    4604        .F      MOV      r4,r0
        0x0000c614:    b904        ..      CBNZ     r4,0xc618 ; HciDrvRadioBoot + 140
        0x0000c616:    e04a        J.      B        0xc6ae ; HciDrvRadioBoot + 290
        0x0000c618:    485d        ]H      LDR      r0,[pc,#372] ; [0xc790] = 0x800000b
        0x0000c61a:    4284        .B      CMP      r4,r0
        0x0000c61c:    d124        $.      BNE      0xc668 ; HciDrvRadioBoot + 220
        0x0000c61e:    2101        .!      MOVS     r1,#1
        0x0000c620:    483d        =H      LDR      r0,[pc,#244] ; [0xc718] = 0x10013034
        0x0000c622:    6800        .h      LDR      r0,[r0,#0]
        0x0000c624:    f001fb98    ....    BL       am_hal_ble_power_control ; 0xdd58
        0x0000c628:    1e07        ..      SUBS     r7,r0,#0
        0x0000c62a:    d006        ..      BEQ      0xc63a ; HciDrvRadioBoot + 174
        0x0000c62c:    4859        YH      LDR      r0,[pc,#356] ; [0xc794] = 0x1262c
        0x0000c62e:    f002feed    ....    BL       am_util_stdio_printf ; 0xf40c
        0x0000c632:    4638        8F      MOV      r0,r7
        0x0000c634:    f003faba    ....    BL       error_check ; 0xfbac
        0x0000c638:    e7bf        ..      B        0xc5ba ; HciDrvRadioBoot + 46
        0x0000c63a:    4837        7H      LDR      r0,[pc,#220] ; [0xc718] = 0x10013034
        0x0000c63c:    6800        .h      LDR      r0,[r0,#0]
        0x0000c63e:    f000fefd    ....    BL       am_hal_ble_deinitialize ; 0xd43c
        0x0000c642:    1e07        ..      SUBS     r7,r0,#0
        0x0000c644:    d006        ..      BEQ      0xc654 ; HciDrvRadioBoot + 200
        0x0000c646:    a054        T.      ADR      r0,{pc}+0x152 ; 0xc798
        0x0000c648:    f002fee0    ....    BL       am_util_stdio_printf ; 0xf40c
        0x0000c64c:    4638        8F      MOV      r0,r7
        0x0000c64e:    f003faad    ....    BL       error_check ; 0xfbac
        0x0000c652:    e7b2        ..      B        0xc5ba ; HciDrvRadioBoot + 46
        0x0000c654:    4630        0F      MOV      r0,r6
        0x0000c656:    1c76        v.      ADDS     r6,r6,#1
        0x0000c658:    280a        .(      CMP      r0,#0xa
        0x0000c65a:    d204        ..      BCS      0xc666 ; HciDrvRadioBoot + 218
        0x0000c65c:    f44f707a    O.zp    MOV      r0,#0x3e8
        0x0000c660:    f002fe68    ..h.    BL       am_util_delay_ms ; 0xf334
        0x0000c664:    e01f        ..      B        0xc6a6 ; HciDrvRadioBoot + 282
        0x0000c666:    e7a8        ..      B        0xc5ba ; HciDrvRadioBoot + 46
        0x0000c668:    2101        .!      MOVS     r1,#1
        0x0000c66a:    482b        +H      LDR      r0,[pc,#172] ; [0xc718] = 0x10013034
        0x0000c66c:    6800        .h      LDR      r0,[r0,#0]
        0x0000c66e:    f001fb73    ..s.    BL       am_hal_ble_power_control ; 0xdd58
        0x0000c672:    1e07        ..      SUBS     r7,r0,#0
        0x0000c674:    d006        ..      BEQ      0xc684 ; HciDrvRadioBoot + 248
        0x0000c676:    4847        GH      LDR      r0,[pc,#284] ; [0xc794] = 0x1262c
        0x0000c678:    f002fec8    ....    BL       am_util_stdio_printf ; 0xf40c
        0x0000c67c:    4638        8F      MOV      r0,r7
        0x0000c67e:    f003fa95    ....    BL       error_check ; 0xfbac
        0x0000c682:    e79a        ..      B        0xc5ba ; HciDrvRadioBoot + 46
        0x0000c684:    4824        $H      LDR      r0,[pc,#144] ; [0xc718] = 0x10013034
        0x0000c686:    6800        .h      LDR      r0,[r0,#0]
        0x0000c688:    f000fed8    ....    BL       am_hal_ble_deinitialize ; 0xd43c
        0x0000c68c:    1e07        ..      SUBS     r7,r0,#0
        0x0000c68e:    d006        ..      BEQ      0xc69e ; HciDrvRadioBoot + 274
        0x0000c690:    a041        A.      ADR      r0,{pc}+0x108 ; 0xc798
        0x0000c692:    f002febb    ....    BL       am_util_stdio_printf ; 0xf40c
        0x0000c696:    4638        8F      MOV      r0,r7
        0x0000c698:    f003fa88    ....    BL       error_check ; 0xfbac
        0x0000c69c:    e78d        ..      B        0xc5ba ; HciDrvRadioBoot + 46
        0x0000c69e:    4620         F      MOV      r0,r4
        0x0000c6a0:    f003fa84    ....    BL       error_check ; 0xfbac
        0x0000c6a4:    e789        ..      B        0xc5ba ; HciDrvRadioBoot + 46
        0x0000c6a6:    bf00        ..      NOP      
        0x0000c6a8:    2c00        .,      CMP      r4,#0
        0x0000c6aa:    f47faf7a    ..z.    BNE      0xc5a2 ; HciDrvRadioBoot + 22
        0x0000c6ae:    bf00        ..      NOP      
        0x0000c6b0:    2108        .!      MOVS     r1,#8
        0x0000c6b2:    4819        .H      LDR      r0,[pc,#100] ; [0xc718] = 0x10013034
        0x0000c6b4:    6800        .h      LDR      r0,[r0,#0]
        0x0000c6b6:    f001fc3d    ..=.    BL       am_hal_ble_tx_power_set ; 0xdf34
        0x0000c6ba:    f2402181    @..!    MOV      r1,#0x281
        0x0000c6be:    4816        .H      LDR      r0,[pc,#88] ; [0xc718] = 0x10013034
        0x0000c6c0:    6800        .h      LDR      r0,[r0,#0]
        0x0000c6c2:    f000ff23    ..#.    BL       am_hal_ble_int_clear ; 0xd50c
        0x0000c6c6:    f2402181    @..!    MOV      r1,#0x281
        0x0000c6ca:    4813        .H      LDR      r0,[pc,#76] ; [0xc718] = 0x10013034
        0x0000c6cc:    6800        .h      LDR      r0,[r0,#0]
        0x0000c6ce:    f000ff33    ..3.    BL       am_hal_ble_int_enable ; 0xd538
        0x0000c6d2:    200c        .       MOVS     r0,#0xc
        0x0000c6d4:    2800        .(      CMP      r0,#0
        0x0000c6d6:    db0d        ..      BLT      0xc6f4 ; HciDrvRadioBoot + 360
        0x0000c6d8:    bf00        ..      NOP      
        0x0000c6da:    bf00        ..      NOP      
        0x0000c6dc:    f000021f    ....    AND      r2,r0,#0x1f
        0x0000c6e0:    2101        .!      MOVS     r1,#1
        0x0000c6e2:    4091        .@      LSLS     r1,r1,r2
        0x0000c6e4:    0942        B.      LSRS     r2,r0,#5
        0x0000c6e6:    0092        ..      LSLS     r2,r2,#2
        0x0000c6e8:    f10222e0    ..."    ADD      r2,r2,#0xe000e000
        0x0000c6ec:    f8c21100    ....    STR      r1,[r2,#0x100]
        0x0000c6f0:    bf00        ..      NOP      
        0x0000c6f2:    bf00        ..      NOP      
        0x0000c6f4:    bf00        ..      NOP      
        0x0000c6f6:    f44f6302    O..c    MOV      r3,#0x820
        0x0000c6fa:    10da        ..      ASRS     r2,r3,#3
        0x0000c6fc:    4932        2I      LDR      r1,[pc,#200] ; [0xc7c8] = 0x10013928
        0x0000c6fe:    4833        3H      LDR      r0,[pc,#204] ; [0xc7cc] = 0x10014148
        0x0000c700:    f002fb8e    ....    BL       am_hal_queue_init ; 0xee20
        0x0000c704:    2000        .       MOVS     r0,#0
        0x0000c706:    4932        2I      LDR      r1,[pc,#200] ; [0xc7d0] = 0x10013050
        0x0000c708:    6008        .`      STR      r0,[r1,#0]
        0x0000c70a:    bf00        ..      NOP      
        0x0000c70c:    e755        U.      B        0xc5ba ; HciDrvRadioBoot + 46
    $d
        0x0000c70e:    0000        ..      DCW    0
        0x0000c710:    10013048    H0..    DCD    268513352
        0x0000c714:    1001304c    L0..    DCD    268513356
        0x0000c718:    10013034    40..    DCD    268513332
        0x0000c71c:    4f525245    ERRO    DCD    1330795077
        0x0000c720:    48435f52    R_CH    DCD    1212374866
        0x0000c724:    5f4b4345    ECK_    DCD    1598767941
        0x0000c728:    44494f56    VOID    DCD    1145655126
        0x0000c72c:    5f6d6120     am_    DCD    1601003808
        0x0000c730:    5f6c6168    hal_    DCD    1600938344
        0x0000c734:    5f656c62    ble_    DCD    1600482402
        0x0000c738:    74696e69    init    DCD    1953066601
        0x0000c73c:    696c6169    iali    DCD    1768710505
        0x0000c740:    3028657a    ze(0    DCD    807953786
        0x0000c744:    4226202c    , &B    DCD    1109794860
        0x0000c748:    0a29454c    LE).    DCD    170476876
        0x0000c74c:    00000000    ....    DCD    0
        0x0000c750:    000125e0    .%..    DCD    75232
        0x0000c754:    00011c14    ....    DCD    72724
        0x0000c758:    4f525245    ERRO    DCD    1330795077
        0x0000c75c:    48435f52    R_CH    DCD    1212374866
        0x0000c760:    5f4b4345    ECK_    DCD    1598767941
        0x0000c764:    44494f56    VOID    DCD    1145655126
        0x0000c768:    5f6d6120     am_    DCD    1601003808
        0x0000c76c:    5f6c6168    hal_    DCD    1600938344
        0x0000c770:    5f656c62    ble_    DCD    1600482402
        0x0000c774:    666e6f63    conf    DCD    1718513507
        0x0000c778:    42286769    ig(B    DCD    1109944169
        0x0000c77c:    202c454c    LE,     DCD    539772236
        0x0000c780:    6c427326    &sBl    DCD    1816294182
        0x0000c784:    6e6f4365    eCon    DCD    1852785509
        0x0000c788:    29676966    fig)    DCD    694643046
        0x0000c78c:    0000000a    ....    DCD    10
        0x0000c790:    0800000b    ....    DCD    134217739
        0x0000c794:    0001262c    ,&..    DCD    75308
        0x0000c798:    4f525245    ERRO    DCD    1330795077
        0x0000c79c:    48435f52    R_CH    DCD    1212374866
        0x0000c7a0:    5f4b4345    ECK_    DCD    1598767941
        0x0000c7a4:    44494f56    VOID    DCD    1145655126
        0x0000c7a8:    5f6d6120     am_    DCD    1601003808
        0x0000c7ac:    5f6c6168    hal_    DCD    1600938344
        0x0000c7b0:    5f656c62    ble_    DCD    1600482402
        0x0000c7b4:    6e696564    dein    DCD    1852400996
        0x0000c7b8:    61697469    itia    DCD    1634301033
        0x0000c7bc:    657a696c    lize    DCD    1702521196
        0x0000c7c0:    454c4228    (BLE    DCD    1162625576
        0x0000c7c4:    00000a29    )...    DCD    2601
        0x0000c7c8:    10013928    (9..    DCD    268515624
        0x0000c7cc:    10014148    HA..    DCD    268517704
        0x0000c7d0:    10013050    P0..    DCD    268513360
    $t
    i.HciDrvRadioShutdown
    HciDrvRadioShutdown
        0x0000c7d4:    b510        ..      PUSH     {r4,lr}
        0x0000c7d6:    bf00        ..      NOP      
        0x0000c7d8:    4824        $H      LDR      r0,[pc,#144] ; [0xc86c] = 0x10013908
        0x0000c7da:    f000f94d    ..M.    BL       WsfTimerStop ; 0xca78
        0x0000c7de:    bf00        ..      NOP      
        0x0000c7e0:    200c        .       MOVS     r0,#0xc
        0x0000c7e2:    2800        .(      CMP      r0,#0
        0x0000c7e4:    db17        ..      BLT      0xc816 ; HciDrvRadioShutdown + 66
        0x0000c7e6:    f000021f    ....    AND      r2,r0,#0x1f
        0x0000c7ea:    2101        .!      MOVS     r1,#1
        0x0000c7ec:    4091        .@      LSLS     r1,r1,r2
        0x0000c7ee:    4a20         J      LDR      r2,[pc,#128] ; [0xc870] = 0xe000e180
        0x0000c7f0:    0943        C.      LSRS     r3,r0,#5
        0x0000c7f2:    f8421023    B.#.    STR      r1,[r2,r3,LSL #2]
        0x0000c7f6:    bf00        ..      NOP      
        0x0000c7f8:    bf00        ..      NOP      
        0x0000c7fa:    bf00        ..      NOP      
        0x0000c7fc:    f3bf8f4f    ..O.    DSB      
        0x0000c800:    bf00        ..      NOP      
        0x0000c802:    bf00        ..      NOP      
        0x0000c804:    bf00        ..      NOP      
        0x0000c806:    bf00        ..      NOP      
        0x0000c808:    bf00        ..      NOP      
        0x0000c80a:    bf00        ..      NOP      
        0x0000c80c:    f3bf8f6f    ..o.    ISB      
        0x0000c810:    bf00        ..      NOP      
        0x0000c812:    bf00        ..      NOP      
        0x0000c814:    bf00        ..      NOP      
        0x0000c816:    bf00        ..      NOP      
        0x0000c818:    2101        .!      MOVS     r1,#1
        0x0000c81a:    4816        .H      LDR      r0,[pc,#88] ; [0xc874] = 0x10013034
        0x0000c81c:    6800        .h      LDR      r0,[r0,#0]
        0x0000c81e:    f001fa9b    ....    BL       am_hal_ble_power_control ; 0xdd58
        0x0000c822:    1e04        ..      SUBS     r4,r0,#0
        0x0000c824:    d006        ..      BEQ      0xc834 ; HciDrvRadioShutdown + 96
        0x0000c826:    4814        .H      LDR      r0,[pc,#80] ; [0xc878] = 0x1262c
        0x0000c828:    f002fdf0    ....    BL       am_util_stdio_printf ; 0xf40c
        0x0000c82c:    4620         F      MOV      r0,r4
        0x0000c82e:    f003f9bd    ....    BL       error_check ; 0xfbac
        0x0000c832:    bd10        ..      POP      {r4,pc}
        0x0000c834:    bf00        ..      NOP      
        0x0000c836:    4811        .H      LDR      r0,[pc,#68] ; [0xc87c] = 0x40021000
        0x0000c838:    6880        .h      LDR      r0,[r0,#8]
        0x0000c83a:    f3c030c0    ...0    UBFX     r0,r0,#15,#1
        0x0000c83e:    2800        .(      CMP      r0,#0
        0x0000c840:    d1f9        ..      BNE      0xc836 ; HciDrvRadioShutdown + 98
        0x0000c842:    480c        .H      LDR      r0,[pc,#48] ; [0xc874] = 0x10013034
        0x0000c844:    6800        .h      LDR      r0,[r0,#0]
        0x0000c846:    f000fdf9    ....    BL       am_hal_ble_deinitialize ; 0xd43c
        0x0000c84a:    1e04        ..      SUBS     r4,r0,#0
        0x0000c84c:    d006        ..      BEQ      0xc85c ; HciDrvRadioShutdown + 136
        0x0000c84e:    a00c        ..      ADR      r0,{pc}+0x32 ; 0xc880
        0x0000c850:    f002fddc    ....    BL       am_util_stdio_printf ; 0xf40c
        0x0000c854:    4620         F      MOV      r0,r4
        0x0000c856:    f003f9a9    ....    BL       error_check ; 0xfbac
        0x0000c85a:    e7ea        ..      B        0xc832 ; HciDrvRadioShutdown + 94
        0x0000c85c:    2000        .       MOVS     r0,#0
        0x0000c85e:    4914        .I      LDR      r1,[pc,#80] ; [0xc8b0] = 0x10013048
        0x0000c860:    6008        .`      STR      r0,[r1,#0]
        0x0000c862:    4914        .I      LDR      r1,[pc,#80] ; [0xc8b4] = 0x1001304c
        0x0000c864:    6008        .`      STR      r0,[r1,#0]
        0x0000c866:    bf00        ..      NOP      
        0x0000c868:    e7e3        ..      B        0xc832 ; HciDrvRadioShutdown + 94
    $d
        0x0000c86a:    0000        ..      DCW    0
        0x0000c86c:    10013908    .9..    DCD    268515592
        0x0000c870:    e000e180    ....    DCD    3758154112
        0x0000c874:    10013034    40..    DCD    268513332
        0x0000c878:    0001262c    ,&..    DCD    75308
        0x0000c87c:    40021000    ...@    DCD    1073876992
        0x0000c880:    4f525245    ERRO    DCD    1330795077
        0x0000c884:    48435f52    R_CH    DCD    1212374866
        0x0000c888:    5f4b4345    ECK_    DCD    1598767941
        0x0000c88c:    44494f56    VOID    DCD    1145655126
        0x0000c890:    5f6d6120     am_    DCD    1601003808
        0x0000c894:    5f6c6168    hal_    DCD    1600938344
        0x0000c898:    5f656c62    ble_    DCD    1600482402
        0x0000c89c:    6e696564    dein    DCD    1852400996
        0x0000c8a0:    61697469    itia    DCD    1634301033
        0x0000c8a4:    657a696c    lize    DCD    1702521196
        0x0000c8a8:    454c4228    (BLE    DCD    1162625576
        0x0000c8ac:    00000a29    )...    DCD    2601
        0x0000c8b0:    10013048    H0..    DCD    268513352
        0x0000c8b4:    1001304c    L0..    DCD    268513356
    $t
    i.HciVsA3_CarrierWaveMode
    HciVsA3_CarrierWaveMode
        0x0000c8b8:    b510        ..      PUSH     {r4,lr}
        0x0000c8ba:    4604        .F      MOV      r4,r0
        0x0000c8bc:    4621        !F      MOV      r1,r4
        0x0000c8be:    4802        .H      LDR      r0,[pc,#8] ; [0xc8c8] = 0x10013034
        0x0000c8c0:    6800        .h      LDR      r0,[r0,#0]
        0x0000c8c2:    f002fd2f    ../.    BL       am_util_ble_transmitter_control_ex ; 0xf324
        0x0000c8c6:    bd10        ..      POP      {r4,pc}
    $d
        0x0000c8c8:    10013034    40..    DCD    268513332
    $t
    i.HciVsA3_ConstantTransmission
    HciVsA3_ConstantTransmission
        0x0000c8cc:    b510        ..      PUSH     {r4,lr}
        0x0000c8ce:    4604        .F      MOV      r4,r0
        0x0000c8d0:    4621        !F      MOV      r1,r4
        0x0000c8d2:    4802        .H      LDR      r0,[pc,#8] ; [0xc8dc] = 0x10013034
        0x0000c8d4:    6800        .h      LDR      r0,[r0,#0]
        0x0000c8d6:    f002fc9f    ....    BL       am_util_ble_set_constant_transmission_ex ; 0xf218
        0x0000c8da:    bd10        ..      POP      {r4,pc}
    $d
        0x0000c8dc:    10013034    40..    DCD    268513332
    $t
    i.HciVsA3_SetRfPowerLevelEx
    HciVsA3_SetRfPowerLevelEx
        0x0000c8e0:    b510        ..      PUSH     {r4,lr}
        0x0000c8e2:    4604        .F      MOV      r4,r0
        0x0000c8e4:    2c03        .,      CMP      r4,#3
        0x0000c8e6:    d004        ..      BEQ      0xc8f2 ; HciVsA3_SetRfPowerLevelEx + 18
        0x0000c8e8:    2c08        .,      CMP      r4,#8
        0x0000c8ea:    d009        ..      BEQ      0xc900 ; HciVsA3_SetRfPowerLevelEx + 32
        0x0000c8ec:    2c0f        .,      CMP      r4,#0xf
        0x0000c8ee:    d115        ..      BNE      0xc91c ; HciVsA3_SetRfPowerLevelEx + 60
        0x0000c8f0:    e00d        ..      B        0xc90e ; HciVsA3_SetRfPowerLevelEx + 46
        0x0000c8f2:    2104        .!      MOVS     r1,#4
        0x0000c8f4:    480a        .H      LDR      r0,[pc,#40] ; [0xc920] = 0x10013034
        0x0000c8f6:    6800        .h      LDR      r0,[r0,#0]
        0x0000c8f8:    f001fb1c    ....    BL       am_hal_ble_tx_power_set ; 0xdf34
        0x0000c8fc:    2001        .       MOVS     r0,#1
        0x0000c8fe:    bd10        ..      POP      {r4,pc}
        0x0000c900:    2108        .!      MOVS     r1,#8
        0x0000c902:    4807        .H      LDR      r0,[pc,#28] ; [0xc920] = 0x10013034
        0x0000c904:    6800        .h      LDR      r0,[r0,#0]
        0x0000c906:    f001fb15    ....    BL       am_hal_ble_tx_power_set ; 0xdf34
        0x0000c90a:    2001        .       MOVS     r0,#1
        0x0000c90c:    e7f7        ..      B        0xc8fe ; HciVsA3_SetRfPowerLevelEx + 30
        0x0000c90e:    210f        .!      MOVS     r1,#0xf
        0x0000c910:    4803        .H      LDR      r0,[pc,#12] ; [0xc920] = 0x10013034
        0x0000c912:    6800        .h      LDR      r0,[r0,#0]
        0x0000c914:    f001fb0e    ....    BL       am_hal_ble_tx_power_set ; 0xdf34
        0x0000c918:    2001        .       MOVS     r0,#1
        0x0000c91a:    e7f0        ..      B        0xc8fe ; HciVsA3_SetRfPowerLevelEx + 30
        0x0000c91c:    2000        .       MOVS     r0,#0
        0x0000c91e:    e7ee        ..      B        0xc8fe ; HciVsA3_SetRfPowerLevelEx + 30
    $d
        0x0000c920:    10013034    40..    DCD    268513332
    $t
    i.SysTick_Handler
    SysTick_Handler
        0x0000c924:    b510        ..      PUSH     {r4,lr}
        0x0000c926:    bf00        ..      NOP      
        0x0000c928:    2080        .       MOVS     r0,#0x80
        0x0000c92a:    f3808811    ....    MSR      BASEPRI,r0
        0x0000c92e:    f3bf8f4f    ..O.    DSB      
        0x0000c932:    f3bf8f6f    ..o.    ISB      
        0x0000c936:    bf00        ..      NOP      
        0x0000c938:    f004ff0c    ....    BL       xTaskIncrementTick ; 0x11754
        0x0000c93c:    b118        ..      CBZ      r0,0xc946 ; SysTick_Handler + 34
        0x0000c93e:    f04f5080    O..P    MOV      r0,#0x10000000
        0x0000c942:    4904        .I      LDR      r1,[pc,#16] ; [0xc954] = 0xe000ed04
        0x0000c944:    6008        .`      STR      r0,[r1,#0]
        0x0000c946:    bf00        ..      NOP      
        0x0000c948:    2000        .       MOVS     r0,#0
        0x0000c94a:    f3808811    ....    MSR      BASEPRI,r0
        0x0000c94e:    bf00        ..      NOP      
        0x0000c950:    bd10        ..      POP      {r4,pc}
    $d
        0x0000c952:    0000        ..      DCW    0
        0x0000c954:    e000ed04    ....    DCD    3758157060
    $t
    i.WsfCsEnter
    WsfCsEnter
        0x0000c958:    4804        .H      LDR      r0,[pc,#16] ; [0xc96c] = 0x10013000
        0x0000c95a:    7800        .x      LDRB     r0,[r0,#0]
        0x0000c95c:    b900        ..      CBNZ     r0,0xc960 ; WsfCsEnter + 8
        0x0000c95e:    b672        r.      CPSID    i
        0x0000c960:    4802        .H      LDR      r0,[pc,#8] ; [0xc96c] = 0x10013000
        0x0000c962:    7800        .x      LDRB     r0,[r0,#0]
        0x0000c964:    1c40        @.      ADDS     r0,r0,#1
        0x0000c966:    4901        .I      LDR      r1,[pc,#4] ; [0xc96c] = 0x10013000
        0x0000c968:    7008        .p      STRB     r0,[r1,#0]
        0x0000c96a:    4770        pG      BX       lr
    $d
        0x0000c96c:    10013000    .0..    DCD    268513280
    $t
    i.WsfCsExit
    WsfCsExit
        0x0000c970:    4804        .H      LDR      r0,[pc,#16] ; [0xc984] = 0x10013000
        0x0000c972:    7800        .x      LDRB     r0,[r0,#0]
        0x0000c974:    1e40        @.      SUBS     r0,r0,#1
        0x0000c976:    4903        .I      LDR      r1,[pc,#12] ; [0xc984] = 0x10013000
        0x0000c978:    7008        .p      STRB     r0,[r1,#0]
        0x0000c97a:    4608        .F      MOV      r0,r1
        0x0000c97c:    7800        .x      LDRB     r0,[r0,#0]
        0x0000c97e:    b900        ..      CBNZ     r0,0xc982 ; WsfCsExit + 18
        0x0000c980:    b662        b.      CPSIE    i
        0x0000c982:    4770        pG      BX       lr
    $d
        0x0000c984:    10013000    .0..    DCD    268513280
    $t
    i.WsfQueueRemove
    WsfQueueRemove
        0x0000c988:    b570        p.      PUSH     {r4-r6,lr}
        0x0000c98a:    4604        .F      MOV      r4,r0
        0x0000c98c:    460d        .F      MOV      r5,r1
        0x0000c98e:    4616        .F      MOV      r6,r2
        0x0000c990:    f7ffffe2    ....    BL       WsfCsEnter ; 0xc958
        0x0000c994:    6820         h      LDR      r0,[r4,#0]
        0x0000c996:    42a8        .B      CMP      r0,r5
        0x0000c998:    d102        ..      BNE      0xc9a0 ; WsfQueueRemove + 24
        0x0000c99a:    6828        (h      LDR      r0,[r5,#0]
        0x0000c99c:    6020         `      STR      r0,[r4,#0]
        0x0000c99e:    e002        ..      B        0xc9a6 ; WsfQueueRemove + 30
        0x0000c9a0:    b10e        ..      CBZ      r6,0xc9a6 ; WsfQueueRemove + 30
        0x0000c9a2:    6828        (h      LDR      r0,[r5,#0]
        0x0000c9a4:    6030        0`      STR      r0,[r6,#0]
        0x0000c9a6:    6860        `h      LDR      r0,[r4,#4]
        0x0000c9a8:    42a8        .B      CMP      r0,r5
        0x0000c9aa:    d100        ..      BNE      0xc9ae ; WsfQueueRemove + 38
        0x0000c9ac:    6066        f`      STR      r6,[r4,#4]
        0x0000c9ae:    f7ffffdf    ....    BL       WsfCsExit ; 0xc970
        0x0000c9b2:    bd70        p.      POP      {r4-r6,pc}
    i.WsfSetEvent
    WsfSetEvent
        0x0000c9b4:    b570        p.      PUSH     {r4-r6,lr}
        0x0000c9b6:    4604        .F      MOV      r4,r0
        0x0000c9b8:    460d        .F      MOV      r5,r1
        0x0000c9ba:    f7ffffcd    ....    BL       WsfCsEnter ; 0xc958
        0x0000c9be:    f004010f    ....    AND      r1,r4,#0xf
        0x0000c9c2:    480a        .H      LDR      r0,[pc,#40] ; [0xc9ec] = 0x100138e4
        0x0000c9c4:    5c40        @\      LDRB     r0,[r0,r1]
        0x0000c9c6:    4328        (C      ORRS     r0,r0,r5
        0x0000c9c8:    f004020f    ....    AND      r2,r4,#0xf
        0x0000c9cc:    4907        .I      LDR      r1,[pc,#28] ; [0xc9ec] = 0x100138e4
        0x0000c9ce:    5488        .T      STRB     r0,[r1,r2]
        0x0000c9d0:    f1a10024    ..$.    SUB      r0,r1,#0x24
        0x0000c9d4:    f8900038    ..8.    LDRB     r0,[r0,#0x38]
        0x0000c9d8:    f0400004    @...    ORR      r0,r0,#4
        0x0000c9dc:    3924        $9      SUBS     r1,r1,#0x24
        0x0000c9de:    f8810038    ..8.    STRB     r0,[r1,#0x38]
        0x0000c9e2:    f7ffffc5    ....    BL       WsfCsExit ; 0xc970
        0x0000c9e6:    f000f803    ....    BL       WsfSetOsSpecificEvent ; 0xc9f0
        0x0000c9ea:    bd70        p.      POP      {r4-r6,pc}
    $d
        0x0000c9ec:    100138e4    .8..    DCD    268515556
    $t
    i.WsfSetOsSpecificEvent
    WsfSetOsSpecificEvent
        0x0000c9f0:    b538        8.      PUSH     {r3-r5,lr}
        0x0000c9f2:    481a        .H      LDR      r0,[pc,#104] ; [0xca5c] = 0x10013004
        0x0000c9f4:    6800        .h      LDR      r0,[r0,#0]
        0x0000c9f6:    2800        .(      CMP      r0,#0
        0x0000c9f8:    d02f        /.      BEQ      0xca5a ; WsfSetOsSpecificEvent + 106
        0x0000c9fa:    bf00        ..      NOP      
        0x0000c9fc:    f3ef8105    ....    MRS      r1,IPSR
        0x0000ca00:    b909        ..      CBNZ     r1,0xca06 ; WsfSetOsSpecificEvent + 22
        0x0000ca02:    2000        .       MOVS     r0,#0
        0x0000ca04:    e000        ..      B        0xca08 ; WsfSetOsSpecificEvent + 24
        0x0000ca06:    2001        .       MOVS     r0,#1
        0x0000ca08:    bf00        ..      NOP      
        0x0000ca0a:    2801        .(      CMP      r0,#1
        0x0000ca0c:    d115        ..      BNE      0xca3a ; WsfSetOsSpecificEvent + 74
        0x0000ca0e:    2000        .       MOVS     r0,#0
        0x0000ca10:    9000        ..      STR      r0,[sp,#0]
        0x0000ca12:    466b        kF      MOV      r3,sp
        0x0000ca14:    2201        ."      MOVS     r2,#1
        0x0000ca16:    4811        .H      LDR      r0,[pc,#68] ; [0xca5c] = 0x10013004
        0x0000ca18:    6801        .h      LDR      r1,[r0,#0]
        0x0000ca1a:    4811        .H      LDR      r0,[pc,#68] ; [0xca60] = 0x10a01
        0x0000ca1c:    f005f856    ..V.    BL       xTimerPendFunctionCallFromISR ; 0x11acc
        0x0000ca20:    4604        .F      MOV      r4,r0
        0x0000ca22:    b1cc        ..      CBZ      r4,0xca58 ; WsfSetOsSpecificEvent + 104
        0x0000ca24:    9800        ..      LDR      r0,[sp,#0]
        0x0000ca26:    b1b8        ..      CBZ      r0,0xca58 ; WsfSetOsSpecificEvent + 104
        0x0000ca28:    f04f5080    O..P    MOV      r0,#0x10000000
        0x0000ca2c:    490d        .I      LDR      r1,[pc,#52] ; [0xca64] = 0xe000ed04
        0x0000ca2e:    6008        .`      STR      r0,[r1,#0]
        0x0000ca30:    f3bf8f4f    ..O.    DSB      
        0x0000ca34:    f3bf8f6f    ..o.    ISB      
        0x0000ca38:    e00e        ..      B        0xca58 ; WsfSetOsSpecificEvent + 104
        0x0000ca3a:    2101        .!      MOVS     r1,#1
        0x0000ca3c:    4807        .H      LDR      r0,[pc,#28] ; [0xca5c] = 0x10013004
        0x0000ca3e:    6800        .h      LDR      r0,[r0,#0]
        0x0000ca40:    f004fac6    ....    BL       xEventGroupSetBits ; 0x10fd0
        0x0000ca44:    4604        .F      MOV      r4,r0
        0x0000ca46:    b13c        <.      CBZ      r4,0xca58 ; WsfSetOsSpecificEvent + 104
        0x0000ca48:    f04f5080    O..P    MOV      r0,#0x10000000
        0x0000ca4c:    4905        .I      LDR      r1,[pc,#20] ; [0xca64] = 0xe000ed04
        0x0000ca4e:    6008        .`      STR      r0,[r1,#0]
        0x0000ca50:    f3bf8f4f    ..O.    DSB      
        0x0000ca54:    f3bf8f6f    ..o.    ISB      
        0x0000ca58:    bf00        ..      NOP      
        0x0000ca5a:    bd38        8.      POP      {r3-r5,pc}
    $d
        0x0000ca5c:    10013004    .0..    DCD    268513284
        0x0000ca60:    00010a01    ....    DCD    68097
        0x0000ca64:    e000ed04    ....    DCD    3758157060
    $t
    i.WsfTaskLock
    WsfTaskLock
        0x0000ca68:    b500        ..      PUSH     {lr}
        0x0000ca6a:    f7ffff75    ..u.    BL       WsfCsEnter ; 0xc958
        0x0000ca6e:    bd00        ..      POP      {pc}
    i.WsfTaskUnlock
    WsfTaskUnlock
        0x0000ca70:    b500        ..      PUSH     {lr}
        0x0000ca72:    f7ffff7d    ..}.    BL       WsfCsExit ; 0xc970
        0x0000ca76:    bd00        ..      POP      {pc}
    i.WsfTimerStop
    WsfTimerStop
        0x0000ca78:    b510        ..      PUSH     {r4,lr}
        0x0000ca7a:    4604        .F      MOV      r4,r0
        0x0000ca7c:    f7fffff4    ....    BL       WsfTaskLock ; 0xca68
        0x0000ca80:    4620         F      MOV      r0,r4
        0x0000ca82:    f004fa8b    ....    BL       wsfTimerRemove ; 0x10f9c
        0x0000ca86:    f7fffff3    ....    BL       WsfTaskUnlock ; 0xca70
        0x0000ca8a:    bd10        ..      POP      {r4,pc}
    i.__NVIC_EnableIRQ
    __NVIC_EnableIRQ
        0x0000ca8c:    2800        .(      CMP      r0,#0
        0x0000ca8e:    db0d        ..      BLT      0xcaac ; __NVIC_EnableIRQ + 32
        0x0000ca90:    bf00        ..      NOP      
        0x0000ca92:    bf00        ..      NOP      
        0x0000ca94:    f000021f    ....    AND      r2,r0,#0x1f
        0x0000ca98:    2101        .!      MOVS     r1,#1
        0x0000ca9a:    4091        .@      LSLS     r1,r1,r2
        0x0000ca9c:    0942        B.      LSRS     r2,r0,#5
        0x0000ca9e:    0092        ..      LSLS     r2,r2,#2
        0x0000caa0:    f10222e0    ..."    ADD      r2,r2,#0xe000e000
        0x0000caa4:    f8c21100    ....    STR      r1,[r2,#0x100]
        0x0000caa8:    bf00        ..      NOP      
        0x0000caaa:    bf00        ..      NOP      
        0x0000caac:    4770        pG      BX       lr
        0x0000caae:    0000        ..      MOVS     r0,r0
    i.__NVIC_SetPriority
    __NVIC_SetPriority
        0x0000cab0:    b510        ..      PUSH     {r4,lr}
        0x0000cab2:    2800        .(      CMP      r0,#0
        0x0000cab4:    db04        ..      BLT      0xcac0 ; __NVIC_SetPriority + 16
        0x0000cab6:    074a        J.      LSLS     r2,r1,#29
        0x0000cab8:    0e13        ..      LSRS     r3,r2,#24
        0x0000caba:    4a05        .J      LDR      r2,[pc,#20] ; [0xcad0] = 0xe000e400
        0x0000cabc:    5413        .T      STRB     r3,[r2,r0]
        0x0000cabe:    e006        ..      B        0xcace ; __NVIC_SetPriority + 30
        0x0000cac0:    074a        J.      LSLS     r2,r1,#29
        0x0000cac2:    0e14        ..      LSRS     r4,r2,#24
        0x0000cac4:    4a03        .J      LDR      r2,[pc,#12] ; [0xcad4] = 0xe000ed18
        0x0000cac6:    f000030f    ....    AND      r3,r0,#0xf
        0x0000caca:    1f1b        ..      SUBS     r3,r3,#4
        0x0000cacc:    54d4        .T      STRB     r4,[r2,r3]
        0x0000cace:    bd10        ..      POP      {r4,pc}
    $d
        0x0000cad0:    e000e400    ....    DCD    3758154752
        0x0000cad4:    e000ed18    ....    DCD    3758157080
    $t
    i.am_ble_isr
    am_ble_isr
        0x0000cad8:    b510        ..      PUSH     {r4,lr}
        0x0000cada:    f7fffd39    ..9.    BL       HciDrvIntService ; 0xc550
        0x0000cade:    bd10        ..      POP      {r4,pc}
    i.am_bsp_itm_printf_enable
    am_bsp_itm_printf_enable
        0x0000cae0:    b500        ..      PUSH     {lr}
        0x0000cae2:    490a        .I      LDR      r1,[pc,#40] ; [0xcb0c] = 0x100130d4
        0x0000cae4:    b085        ..      SUB      sp,sp,#0x14
        0x0000cae6:    2001        .       MOVS     r0,#1
        0x0000cae8:    6008        .`      STR      r0,[r1,#0]
        0x0000caea:    f001ff93    ....    BL       am_hal_itm_enable ; 0xea14
        0x0000caee:    4808        .H      LDR      r0,[pc,#32] ; [0xcb10] = 0xf4240
        0x0000caf0:    9000        ..      STR      r0,[sp,#0]
        0x0000caf2:    4668        hF      MOV      r0,sp
        0x0000caf4:    f002fa98    ....    BL       am_hal_tpiu_enable ; 0xf028
        0x0000caf8:    4806        .H      LDR      r0,[pc,#24] ; [0xcb14] = 0x123a8
        0x0000cafa:    6801        .h      LDR      r1,[r0,#0]
        0x0000cafc:    2029        )       MOVS     r0,#0x29
        0x0000cafe:    f001fddb    ....    BL       am_hal_gpio_pinconfig ; 0xe6b8
        0x0000cb02:    4805        .H      LDR      r0,[pc,#20] ; [0xcb18] = 0xea5d
        0x0000cb04:    f002fca0    ....    BL       am_util_stdio_printf_init ; 0xf448
        0x0000cb08:    b005        ..      ADD      sp,sp,#0x14
        0x0000cb0a:    bd00        ..      POP      {pc}
    $d
        0x0000cb0c:    100130d4    .0..    DCD    268513492
        0x0000cb10:    000f4240    @B..    DCD    1000000
        0x0000cb14:    000123a8    .#..    DCD    74664
        0x0000cb18:    0000ea5d    ]...    DCD    59997
    $t
    i.am_bsp_low_power_init
    am_bsp_low_power_init
        0x0000cb1c:    e92d41f0    -..A    PUSH     {r4-r8,lr}
        0x0000cb20:    f002f876    ..v.    BL       am_hal_pwrctrl_low_power_init ; 0xec10
        0x0000cb24:    f002f987    ....    BL       am_hal_rtc_osc_disable ; 0xee36
        0x0000cb28:    4f0b        .O      LDR      r7,[pc,#44] ; [0xcb58] = 0x100130dc
        0x0000cb2a:    4e0c        .N      LDR      r6,[pc,#48] ; [0xcb5c] = 0x120a8
        0x0000cb2c:    2400        .$      MOVS     r4,#0
        0x0000cb2e:    bf00        ..      NOP      
        0x0000cb30:    f8575034    W.4P    LDR      r5,[r7,r4,LSL #3]
        0x0000cb34:    6831        1h      LDR      r1,[r6,#0]
        0x0000cb36:    4628        (F      MOV      r0,r5
        0x0000cb38:    f001fdbe    ....    BL       am_hal_gpio_pinconfig ; 0xe6b8
        0x0000cb3c:    2103        .!      MOVS     r1,#3
        0x0000cb3e:    4628        (F      MOV      r0,r5
        0x0000cb40:    f001ff27    ..'.    BL       am_hal_gpio_state_write ; 0xe992
        0x0000cb44:    2100        .!      MOVS     r1,#0
        0x0000cb46:    4628        (F      MOV      r0,r5
        0x0000cb48:    f001ff23    ..#.    BL       am_hal_gpio_state_write ; 0xe992
        0x0000cb4c:    1c64        d.      ADDS     r4,r4,#1
        0x0000cb4e:    2c05        .,      CMP      r4,#5
        0x0000cb50:    d3ee        ..      BCC      0xcb30 ; am_bsp_low_power_init + 20
        0x0000cb52:    e8bd81f0    ....    POP      {r4-r8,pc}
    $d
        0x0000cb56:    0000        ..      DCW    0
        0x0000cb58:    100130dc    .0..    DCD    268513500
        0x0000cb5c:    000120a8    . ..    DCD    73896
    $t
    i.am_devices_button_array_init
    am_devices_button_array_init
        0x0000cb60:    b570        p.      PUSH     {r4-r6,lr}
        0x0000cb62:    4605        .F      MOV      r5,r0
        0x0000cb64:    460e        .F      MOV      r6,r1
        0x0000cb66:    2400        .$      MOVS     r4,#0
        0x0000cb68:    e004        ..      B        0xcb74 ; am_devices_button_array_init + 20
        0x0000cb6a:    eb051004    ....    ADD      r0,r5,r4,LSL #4
        0x0000cb6e:    f000f811    ....    BL       am_devices_button_init ; 0xcb94
        0x0000cb72:    1c64        d.      ADDS     r4,r4,#1
        0x0000cb74:    42b4        .B      CMP      r4,r6
        0x0000cb76:    d3f8        ..      BCC      0xcb6a ; am_devices_button_array_init + 10
        0x0000cb78:    bd70        p.      POP      {r4-r6,pc}
    i.am_devices_button_array_tick
    am_devices_button_array_tick
        0x0000cb7a:    b570        p.      PUSH     {r4-r6,lr}
        0x0000cb7c:    4605        .F      MOV      r5,r0
        0x0000cb7e:    460e        .F      MOV      r6,r1
        0x0000cb80:    2400        .$      MOVS     r4,#0
        0x0000cb82:    e004        ..      B        0xcb8e ; am_devices_button_array_tick + 20
        0x0000cb84:    eb051004    ....    ADD      r0,r5,r4,LSL #4
        0x0000cb88:    f000f812    ....    BL       am_devices_button_tick ; 0xcbb0
        0x0000cb8c:    1c64        d.      ADDS     r4,r4,#1
        0x0000cb8e:    42b4        .B      CMP      r4,r6
        0x0000cb90:    d3f8        ..      BCC      0xcb84 ; am_devices_button_array_tick + 10
        0x0000cb92:    bd70        p.      POP      {r4-r6,pc}
    i.am_devices_button_init
    am_devices_button_init
        0x0000cb94:    b510        ..      PUSH     {r4,lr}
        0x0000cb96:    4604        .F      MOV      r4,r0
        0x0000cb98:    4904        .I      LDR      r1,[pc,#16] ; [0xcbac] = 0x11e98
        0x0000cb9a:    6820         h      LDR      r0,[r4,#0]
        0x0000cb9c:    6809        .h      LDR      r1,[r1,#0]
        0x0000cb9e:    f001fd8b    ....    BL       am_hal_gpio_pinconfig ; 0xe6b8
        0x0000cba2:    2000        .       MOVS     r0,#0
        0x0000cba4:    60a0        .`      STR      r0,[r4,#8]
        0x0000cba6:    7320         s      STRB     r0,[r4,#0xc]
        0x0000cba8:    7360        `s      STRB     r0,[r4,#0xd]
        0x0000cbaa:    bd10        ..      POP      {r4,pc}
    $d
        0x0000cbac:    00011e98    ....    DCD    73368
    $t
    i.am_devices_button_tick
    am_devices_button_tick
        0x0000cbb0:    b538        8.      PUSH     {r3-r5,lr}
        0x0000cbb2:    4604        .F      MOV      r4,r0
        0x0000cbb4:    4915        .I      LDR      r1,[pc,#84] ; [0xcc0c] = 0x120a4
        0x0000cbb6:    6820         h      LDR      r0,[r4,#0]
        0x0000cbb8:    6809        .h      LDR      r1,[r1,#0]
        0x0000cbba:    f001fd7d    ..}.    BL       am_hal_gpio_pinconfig ; 0xe6b8
        0x0000cbbe:    466a        jF      MOV      r2,sp
        0x0000cbc0:    2100        .!      MOVS     r1,#0
        0x0000cbc2:    6820         h      LDR      r0,[r4,#0]
        0x0000cbc4:    f001feb8    ....    BL       am_hal_gpio_state_read ; 0xe938
        0x0000cbc8:    6860        `h      LDR      r0,[r4,#4]
        0x0000cbca:    9900        ..      LDR      r1,[sp,#0]
        0x0000cbcc:    4288        .B      CMP      r0,r1
        0x0000cbce:    d001        ..      BEQ      0xcbd4 ; am_devices_button_tick + 36
        0x0000cbd0:    2001        .       MOVS     r0,#1
        0x0000cbd2:    e000        ..      B        0xcbd6 ; am_devices_button_tick + 38
        0x0000cbd4:    2000        .       MOVS     r0,#0
        0x0000cbd6:    4605        .F      MOV      r5,r0
        0x0000cbd8:    7b20         {      LDRB     r0,[r4,#0xc]
        0x0000cbda:    42a8        .B      CMP      r0,r5
        0x0000cbdc:    d003        ..      BEQ      0xcbe6 ; am_devices_button_tick + 54
        0x0000cbde:    68a0        .h      LDR      r0,[r4,#8]
        0x0000cbe0:    1c40        @.      ADDS     r0,r0,#1
        0x0000cbe2:    60a0        .`      STR      r0,[r4,#8]
        0x0000cbe4:    e001        ..      B        0xcbea ; am_devices_button_tick + 58
        0x0000cbe6:    2000        .       MOVS     r0,#0
        0x0000cbe8:    60a0        .`      STR      r0,[r4,#8]
        0x0000cbea:    68a0        .h      LDR      r0,[r4,#8]
        0x0000cbec:    2804        .(      CMP      r0,#4
        0x0000cbee:    d305        ..      BCC      0xcbfc ; am_devices_button_tick + 76
        0x0000cbf0:    7325        %s      STRB     r5,[r4,#0xc]
        0x0000cbf2:    2001        .       MOVS     r0,#1
        0x0000cbf4:    7360        `s      STRB     r0,[r4,#0xd]
        0x0000cbf6:    2000        .       MOVS     r0,#0
        0x0000cbf8:    60a0        .`      STR      r0,[r4,#8]
        0x0000cbfa:    e001        ..      B        0xcc00 ; am_devices_button_tick + 80
        0x0000cbfc:    2000        .       MOVS     r0,#0
        0x0000cbfe:    7360        `s      STRB     r0,[r4,#0xd]
        0x0000cc00:    4903        .I      LDR      r1,[pc,#12] ; [0xcc10] = 0x11e98
        0x0000cc02:    6820         h      LDR      r0,[r4,#0]
        0x0000cc04:    6809        .h      LDR      r1,[r1,#0]
        0x0000cc06:    f001fd57    ..W.    BL       am_hal_gpio_pinconfig ; 0xe6b8
        0x0000cc0a:    bd38        8.      POP      {r3-r5,pc}
    $d
        0x0000cc0c:    000120a4    . ..    DCD    73892
        0x0000cc10:    00011e98    ....    DCD    73368
    $t
    i.am_freertos_sleep
    am_freertos_sleep
        0x0000cc14:    b510        ..      PUSH     {r4,lr}
        0x0000cc16:    4604        .F      MOV      r4,r0
        0x0000cc18:    2001        .       MOVS     r0,#1
        0x0000cc1a:    f002f9b7    ....    BL       am_hal_sysctrl_sleep ; 0xef8c
        0x0000cc1e:    2000        .       MOVS     r0,#0
        0x0000cc20:    bd10        ..      POP      {r4,pc}
    i.am_freertos_wakeup
    am_freertos_wakeup
        0x0000cc22:    4770        pG      BX       lr
    i.am_hal_ble_blocking_hci_read
    am_hal_ble_blocking_hci_read
        0x0000cc24:    b570        p.      PUSH     {r4-r6,lr}
        0x0000cc26:    f8dfc08c    ....    LDR      r12,[pc,#140] ; [0xccb4] = 0x11e44
        0x0000cc2a:    4614        .F      MOV      r4,r2
        0x0000cc2c:    460e        .F      MOV      r6,r1
        0x0000cc2e:    0005        ..      MOVS     r5,r0
        0x0000cc30:    e89c100f    ....    LDM      r12,{r0-r3,r12}
        0x0000cc34:    b088        ..      SUB      sp,sp,#0x20
        0x0000cc36:    f10d0e04    ....    ADD      lr,sp,#4
        0x0000cc3a:    e88e100f    ....    STM      lr,{r0-r3,r12}
        0x0000cc3e:    a806        ..      ADD      r0,sp,#0x18
        0x0000cc40:    9000        ..      STR      r0,[sp,#0]
        0x0000cc42:    bf1c        ..      ITT      NE
        0x0000cc44:    6828        (h      LDRNE    r0,[r5,#0]
        0x0000cc46:    f0107f80    ....    TSTNE    r0,#0x1000000
        0x0000cc4a:    d02f        /.      BEQ      0xccac ; am_hal_ble_blocking_hci_read + 136
        0x0000cc4c:    491a        .I      LDR      r1,[pc,#104] ; [0xccb8] = 0x775230
        0x0000cc4e:    f020407f     ..@    BIC      r0,r0,#0xff000000
        0x0000cc52:    4288        .B      CMP      r0,r1
        0x0000cc54:    d12a        *.      BNE      0xccac ; am_hal_ble_blocking_hci_read + 136
        0x0000cc56:    4819        .H      LDR      r0,[pc,#100] ; [0xccbc] = 0x5000c000
        0x0000cc58:    f8d0030c    ....    LDR      r0,[r0,#0x30c]
        0x0000cc5c:    f0100080    ....    ANDS     r0,r0,#0x80
        0x0000cc60:    d021        !.      BEQ      0xcca6 ; am_hal_ble_blocking_hci_read + 130
        0x0000cc62:    4669        iF      MOV      r1,sp
        0x0000cc64:    4628        (F      MOV      r0,r5
        0x0000cc66:    f000f853    ..S.    BL       am_hal_ble_blocking_transfer ; 0xcd10
        0x0000cc6a:    2800        .(      CMP      r0,#0
        0x0000cc6c:    bf1c        ..      ITT      NE
        0x0000cc6e:    b008        ..      ADDNE    sp,sp,#0x20
        0x0000cc70:    bd70        p.      POPNE    {r4-r6,pc}
        0x0000cc72:    9600        ..      STR      r6,[sp,#0]
        0x0000cc74:    f89d0018    ....    LDRB     r0,[sp,#0x18]
        0x0000cc78:    f89d1019    ....    LDRB     r1,[sp,#0x19]
        0x0000cc7c:    eb002001    ...     ADD      r0,r0,r1,LSL #8
        0x0000cc80:    b280        ..      UXTH     r0,r0
        0x0000cc82:    f8ad0008    ....    STRH     r0,[sp,#8]
        0x0000cc86:    f5b07f80    ....    CMP      r0,#0x100
        0x0000cc8a:    bf82        ..      ITTT     HI
        0x0000cc8c:    2005        .       MOVHI    r0,#5
        0x0000cc8e:    b008        ..      ADDHI    sp,sp,#0x20
        0x0000cc90:    bd70        p.      POPHI    {r4-r6,pc}
        0x0000cc92:    4669        iF      MOV      r1,sp
        0x0000cc94:    4628        (F      MOV      r0,r5
        0x0000cc96:    f000f83b    ..;.    BL       am_hal_ble_blocking_transfer ; 0xcd10
        0x0000cc9a:    2800        .(      CMP      r0,#0
        0x0000cc9c:    bf0e        ..      ITEE     EQ
        0x0000cc9e:    f8bd0008    ....    LDRHEQ   r0,[sp,#8]
        0x0000cca2:    b008        ..      ADDNE    sp,sp,#0x20
        0x0000cca4:    bd70        p.      POPNE    {r4-r6,pc}
        0x0000cca6:    2c00        .,      CMP      r4,#0
        0x0000cca8:    bf18        ..      IT       NE
        0x0000ccaa:    6020         `      STRNE    r0,[r4,#0]
        0x0000ccac:    2000        .       MOVS     r0,#0
        0x0000ccae:    b008        ..      ADD      sp,sp,#0x20
        0x0000ccb0:    bd70        p.      POP      {r4-r6,pc}
    $d
        0x0000ccb2:    0000        ..      DCW    0
        0x0000ccb4:    00011e44    D...    DCD    73284
        0x0000ccb8:    00775230    0Rw.    DCD    7819824
        0x0000ccbc:    5000c000    ...P    DCD    1342226432
    $t
    i.am_hal_ble_blocking_hci_write
    am_hal_ble_blocking_hci_write
        0x0000ccc0:    b5f0        ..      PUSH     {r4-r7,lr}
        0x0000ccc2:    4f11        .O      LDR      r7,[pc,#68] ; [0xcd08] = 0x11e2c
        0x0000ccc4:    b087        ..      SUB      sp,sp,#0x1c
        0x0000ccc6:    2800        .(      CMP      r0,#0
        0x0000ccc8:    e89710f0    ....    LDM      r7,{r4-r7,r12}
        0x0000cccc:    e88d10f4    ....    STM      sp,{r2,r4-r7,r12}
        0x0000ccd0:    f88d1004    ....    STRB     r1,[sp,#4]
        0x0000ccd4:    f8ad3008    ...0    STRH     r3,[sp,#8]
        0x0000ccd8:    bf1c        ..      ITT      NE
        0x0000ccda:    6802        .h      LDRNE    r2,[r0,#0]
        0x0000ccdc:    f0127f80    ....    TSTNE    r2,#0x1000000
        0x0000cce0:    d004        ..      BEQ      0xccec ; am_hal_ble_blocking_hci_write + 44
        0x0000cce2:    4b0a        .K      LDR      r3,[pc,#40] ; [0xcd0c] = 0x775230
        0x0000cce4:    f022427f    "..B    BIC      r2,r2,#0xff000000
        0x0000cce8:    429a        .B      CMP      r2,r3
        0x0000ccea:    d002        ..      BEQ      0xccf2 ; am_hal_ble_blocking_hci_write + 50
        0x0000ccec:    b007        ..      ADD      sp,sp,#0x1c
        0x0000ccee:    2000        .       MOVS     r0,#0
        0x0000ccf0:    bdf0        ..      POP      {r4-r7,pc}
        0x0000ccf2:    2900        .)      CMP      r1,#0
        0x0000ccf4:    bf1c        ..      ITT      NE
        0x0000ccf6:    2101        .!      MOVNE    r1,#1
        0x0000ccf8:    f88d1007    ....    STRBNE   r1,[sp,#7]
        0x0000ccfc:    4669        iF      MOV      r1,sp
        0x0000ccfe:    f000f807    ....    BL       am_hal_ble_blocking_transfer ; 0xcd10
        0x0000cd02:    b007        ..      ADD      sp,sp,#0x1c
        0x0000cd04:    bdf0        ..      POP      {r4-r7,pc}
    $d
        0x0000cd06:    0000        ..      DCW    0
        0x0000cd08:    00011e2c    ,...    DCD    73260
        0x0000cd0c:    00775230    0Rw.    DCD    7819824
    $t
    i.am_hal_ble_blocking_transfer
    am_hal_ble_blocking_transfer
        0x0000cd10:    e92d4ff8    -..O    PUSH     {r3-r11,lr}
        0x0000cd14:    4689        .F      MOV      r9,r1
        0x0000cd16:    0005        ..      MOVS     r5,r0
        0x0000cd18:    bf1c        ..      ITT      NE
        0x0000cd1a:    6828        (h      LDRNE    r0,[r5,#0]
        0x0000cd1c:    f0107f80    ....    TSTNE    r0,#0x1000000
        0x0000cd20:    d005        ..      BEQ      0xcd2e ; am_hal_ble_blocking_transfer + 30
        0x0000cd22:    f8dfb408    ....    LDR      r11,[pc,#1032] ; [0xd12c] = 0x775230
        0x0000cd26:    f020407f     ..@    BIC      r0,r0,#0xff000000
        0x0000cd2a:    4558        XE      CMP      r0,r11
        0x0000cd2c:    d002        ..      BEQ      0xcd34 ; am_hal_ble_blocking_transfer + 36
        0x0000cd2e:    2002        .       MOVS     r0,#2
        0x0000cd30:    e8bd8ff8    ....    POP      {r3-r11,pc}
        0x0000cd34:    f8b90008    ....    LDRH     r0,[r9,#8]
        0x0000cd38:    2800        .(      CMP      r0,#0
        0x0000cd3a:    bf08        ..      IT       EQ
        0x0000cd3c:    e8bd8ff8    ....    POPEQ    {r3-r11,pc}
        0x0000cd40:    4cfb        .L      LDR      r4,[pc,#1004] ; [0xd130] = 0x5000c000
        0x0000cd42:    f8d4a220    .. .    LDR      r10,[r4,#0x220]
        0x0000cd46:    f8d40220    .. .    LDR      r0,[r4,#0x220]
        0x0000cd4a:    f0200080     ...    BIC      r0,r0,#0x80
        0x0000cd4e:    f8c40220    .. .    STR      r0,[r4,#0x220]
        0x0000cd52:    f8d40220    .. .    LDR      r0,[r4,#0x220]
        0x0000cd56:    f4207080     ..p    BIC      r0,r0,#0x100
        0x0000cd5a:    f8c40220    .. .    STR      r0,[r4,#0x220]
        0x0000cd5e:    f8d40220    .. .    LDR      r0,[r4,#0x220]
        0x0000cd62:    f0200001     ...    BIC      r0,r0,#1
        0x0000cd66:    f8c40220    .. .    STR      r0,[r4,#0x220]
        0x0000cd6a:    f8d40220    .. .    LDR      r0,[r4,#0x220]
        0x0000cd6e:    f0200002     ...    BIC      r0,r0,#2
        0x0000cd72:    f8c40220    .. .    STR      r0,[r4,#0x220]
        0x0000cd76:    f8d40228    ..(.    LDR      r0,[r4,#0x228]
        0x0000cd7a:    f0400001    @...    ORR      r0,r0,#1
        0x0000cd7e:    f8c40228    ..(.    STR      r0,[r4,#0x228]
        0x0000cd82:    f8d40228    ..(.    LDR      r0,[r4,#0x228]
        0x0000cd86:    f4407080    @..p    ORR      r0,r0,#0x100
        0x0000cd8a:    f8c40228    ..(.    STR      r0,[r4,#0x228]
        0x0000cd8e:    f899000a    ....    LDRB     r0,[r9,#0xa]
        0x0000cd92:    2801        .(      CMP      r0,#1
        0x0000cd94:    d019        ..      BEQ      0xcdca ; am_hal_ble_blocking_transfer + 186
        0x0000cd96:    f8d4030c    ....    LDR      r0,[r4,#0x30c]
        0x0000cd9a:    f0100f80    ....    TST      r0,#0x80
        0x0000cd9e:    bf02        ..      ITTT     EQ
        0x0000cda0:    f8c4a220    .. .    STREQ    r10,[r4,#0x220]
        0x0000cda4:    48e3        .H      LDREQ    r0,[pc,#908] ; [0xd134] = 0x8000001
        0x0000cda6:    e8bd8ff8    ....    POPEQ    {r3-r11,pc}
        0x0000cdaa:    f7fffaab    ....    BL       am_hal_interrupt_master_disable ; 0xc304
        0x0000cdae:    9000        ..      STR      r0,[sp,#0]
        0x0000cdb0:    f8950044    ..D.    LDRB     r0,[r5,#0x44]
        0x0000cdb4:    2800        .(      CMP      r0,#0
        0x0000cdb6:    d07c        |.      BEQ      0xceb2 ; am_hal_ble_blocking_transfer + 418
        0x0000cdb8:    9800        ..      LDR      r0,[sp,#0]
        0x0000cdba:    f7fffaa7    ....    BL       am_hal_interrupt_master_set ; 0xc30c
        0x0000cdbe:    f8c4a220    .. .    STR      r10,[r4,#0x220]
        0x0000cdc2:    f04f6000    O..`    MOV      r0,#0x8000000
        0x0000cdc6:    e8bd8ff8    ....    POP      {r3-r11,pc}
        0x0000cdca:    f8950042    ..B.    LDRB     r0,[r5,#0x42]
        0x0000cdce:    2801        .(      CMP      r0,#1
        0x0000cdd0:    d040        @.      BEQ      0xce54 ; am_hal_ble_blocking_transfer + 324
        0x0000cdd2:    bf00        ..      NOP      
        0x0000cdd4:    f8950040    ..@.    LDRB     r0,[r5,#0x40]
        0x0000cdd8:    b310        ..      CBZ      r0,0xce20 ; am_hal_ble_blocking_transfer + 272
        0x0000cdda:    f8950041    ..A.    LDRB     r0,[r5,#0x41]
        0x0000cdde:    2600        .&      MOVS     r6,#0
        0x0000cde0:    2800        .(      CMP      r0,#0
        0x0000cde2:    bf0d        ..      ITEET    EQ
        0x0000cde4:    f8d4030c    ....    LDREQ    r0,[r4,#0x30c]
        0x0000cde8:    2000        .       MOVNE    r0,#0
        0x0000cdea:    f8850041    ..A.    STRBNE   r0,[r5,#0x41]
        0x0000cdee:    f0100f08    ....    TSTEQ    r0,#8
        0x0000cdf2:    bf18        ..      IT       NE
        0x0000cdf4:    2700        .'      MOVNE    r7,#0
        0x0000cdf6:    d013        ..      BEQ      0xce20 ; am_hal_ble_blocking_transfer + 272
        0x0000cdf8:    f04f00a0    O...    MOV      r0,#0xa0
        0x0000cdfc:    f1060601    ....    ADD      r6,r6,#1
        0x0000ce00:    f001fc02    ....    BL       am_hal_flash_delay ; 0xe608
        0x0000ce04:    f5b67f96    ....    CMP      r6,#0x12c
        0x0000ce08:    d80a        ..      BHI      0xce20 ; am_hal_ble_blocking_transfer + 272
        0x0000ce0a:    f8950041    ..A.    LDRB     r0,[r5,#0x41]
        0x0000ce0e:    2800        .(      CMP      r0,#0
        0x0000ce10:    bf0a        ..      ITET     EQ
        0x0000ce12:    f8d4030c    ....    LDREQ    r0,[r4,#0x30c]
        0x0000ce16:    f8857041    ..Ap    STRBNE   r7,[r5,#0x41]
        0x0000ce1a:    f0100f08    ....    TSTEQ    r0,#8
        0x0000ce1e:    d1eb        ..      BNE      0xcdf8 ; am_hal_ble_blocking_transfer + 232
        0x0000ce20:    48c5        .H      LDR      r0,[pc,#788] ; [0xd138] = 0x5000c410
        0x0000ce22:    6801        .h      LDR      r1,[r0,#0]
        0x0000ce24:    f0410102    A...    ORR      r1,r1,#2
        0x0000ce28:    6001        .`      STR      r1,[r0,#0]
        0x0000ce2a:    f04f0050    O.P.    MOV      r0,#0x50
        0x0000ce2e:    f001fbeb    ....    BL       am_hal_flash_delay ; 0xe608
        0x0000ce32:    2101        .!      MOVS     r1,#1
        0x0000ce34:    4628        (F      MOV      r0,r5
        0x0000ce36:    f001f8cb    ....    BL       am_hal_ble_wakeup_set ; 0xdfd0
        0x0000ce3a:    2700        .'      MOVS     r7,#0
        0x0000ce3c:    f44f7896    O..x    MOV      r8,#0x12c
        0x0000ce40:    ea4f0607    O...    MOV.W    r6,r7
        0x0000ce44:    f8950041    ..A.    LDRB     r0,[r5,#0x41]
        0x0000ce48:    2800        .(      CMP      r0,#0
        0x0000ce4a:    bf18        ..      IT       NE
        0x0000ce4c:    f8856041    ..A`    STRBNE   r6,[r5,#0x41]
        0x0000ce50:    d114        ..      BNE      0xce7c ; am_hal_ble_blocking_transfer + 364
        0x0000ce52:    e00b        ..      B        0xce6c ; am_hal_ble_blocking_transfer + 348
        0x0000ce54:    f8950040    ..@.    LDRB     r0,[r5,#0x40]
        0x0000ce58:    2800        .(      CMP      r0,#0
        0x0000ce5a:    bf04        ..      ITT      EQ
        0x0000ce5c:    f64b3080    K..0    MOVEQ    r0,#0xbb80
        0x0000ce60:    f001fbd2    ....    BLEQ     am_hal_flash_delay ; 0xe608
        0x0000ce64:    2000        .       MOVS     r0,#0
        0x0000ce66:    f8850042    ..B.    STRB     r0,[r5,#0x42]
        0x0000ce6a:    e7b3        ..      B        0xcdd4 ; am_hal_ble_blocking_transfer + 196
        0x0000ce6c:    f8950040    ..@.    LDRB     r0,[r5,#0x40]
        0x0000ce70:    b170        p.      CBZ      r0,0xce90 ; am_hal_ble_blocking_transfer + 384
        0x0000ce72:    f8d40224    ..$.    LDR      r0,[r4,#0x224]
        0x0000ce76:    f4107f80    ....    TST      r0,#0x100
        0x0000ce7a:    d00e        ..      BEQ      0xce9a ; am_hal_ble_blocking_transfer + 394
        0x0000ce7c:    f7fffa42    ..B.    BL       am_hal_interrupt_master_disable ; 0xc304
        0x0000ce80:    9000        ..      STR      r0,[sp,#0]
        0x0000ce82:    f8950044    ..D.    LDRB     r0,[r5,#0x44]
        0x0000ce86:    b328        (.      CBZ      r0,0xced4 ; am_hal_ble_blocking_transfer + 452
        0x0000ce88:    9800        ..      LDR      r0,[sp,#0]
        0x0000ce8a:    f7fffa3f    ..?.    BL       am_hal_interrupt_master_set ; 0xc30c
        0x0000ce8e:    e03d        =.      B        0xcf0c ; am_hal_ble_blocking_transfer + 508
        0x0000ce90:    f8d4030c    ....    LDR      r0,[r4,#0x30c]
        0x0000ce94:    f0100f08    ....    TST      r0,#8
        0x0000ce98:    d1f0        ..      BNE      0xce7c ; am_hal_ble_blocking_transfer + 364
        0x0000ce9a:    4547        GE      CMP      r7,r8
        0x0000ce9c:    d004        ..      BEQ      0xcea8 ; am_hal_ble_blocking_transfer + 408
        0x0000ce9e:    f8d4030c    ....    LDR      r0,[r4,#0x30c]
        0x0000cea2:    f0100f80    ....    TST      r0,#0x80
        0x0000cea6:    d031        1.      BEQ      0xcf0c ; am_hal_ble_blocking_transfer + 508
        0x0000cea8:    4ba4        .K      LDR      r3,[pc,#656] ; [0xd13c] = 0x8000002
        0x0000ceaa:    0028        (.      MOVS     r0,r5
        0x0000ceac:    bf18        ..      IT       NE
        0x0000ceae:    6828        (h      LDRNE    r0,[r5,#0]
        0x0000ceb0:    e000        ..      B        0xceb4 ; am_hal_ble_blocking_transfer + 420
        0x0000ceb2:    e030        0.      B        0xcf16 ; am_hal_ble_blocking_transfer + 518
        0x0000ceb4:    bf18        ..      IT       NE
        0x0000ceb6:    f0107f80    ....    TSTNE    r0,#0x1000000
        0x0000ceba:    d018        ..      BEQ      0xceee ; am_hal_ble_blocking_transfer + 478
        0x0000cebc:    f020407f     ..@    BIC      r0,r0,#0xff000000
        0x0000cec0:    4558        XE      CMP      r0,r11
        0x0000cec2:    d114        ..      BNE      0xceee ; am_hal_ble_blocking_transfer + 478
        0x0000cec4:    f8d40304    ....    LDR      r0,[r4,#0x304]
        0x0000cec8:    f020000c     ...    BIC      r0,r0,#0xc
        0x0000cecc:    3008        .0      ADDS     r0,r0,#8
        0x0000cece:    f8c40304    ....    STR      r0,[r4,#0x304]
        0x0000ced2:    e00c        ..      B        0xceee ; am_hal_ble_blocking_transfer + 478
        0x0000ced4:    2001        .       MOVS     r0,#1
        0x0000ced6:    f8850044    ..D.    STRB     r0,[r5,#0x44]
        0x0000ceda:    f8856045    ..E`    STRB     r6,[r5,#0x45]
        0x0000cede:    f8856046    ..F`    STRB     r6,[r5,#0x46]
        0x0000cee2:    f8856047    ..G`    STRB     r6,[r5,#0x47]
        0x0000cee6:    9800        ..      LDR      r0,[sp,#0]
        0x0000cee8:    f7fffa10    ....    BL       am_hal_interrupt_master_set ; 0xc30c
        0x0000ceec:    2300        .#      MOVS     r3,#0
        0x0000ceee:    4892        .H      LDR      r0,[pc,#584] ; [0xd138] = 0x5000c410
        0x0000cef0:    6801        .h      LDR      r1,[r0,#0]
        0x0000cef2:    f0210102    !...    BIC      r1,r1,#2
        0x0000cef6:    6001        .`      STR      r1,[r0,#0]
        0x0000cef8:    b1d3        ..      CBZ      r3,0xcf30 ; am_hal_ble_blocking_transfer + 544
        0x0000cefa:    f8c4a220    .. .    STR      r10,[r4,#0x220]
        0x0000cefe:    2100        .!      MOVS     r1,#0
        0x0000cf00:    4628        (F      MOV      r0,r5
        0x0000cf02:    f001f865    ..e.    BL       am_hal_ble_wakeup_set ; 0xdfd0
        0x0000cf06:    4618        .F      MOV      r0,r3
        0x0000cf08:    e8bd8ff8    ....    POP      {r3-r11,pc}
        0x0000cf0c:    20a0        .       MOVS     r0,#0xa0
        0x0000cf0e:    1c7f        ..      ADDS     r7,r7,#1
        0x0000cf10:    f001fb7a    ..z.    BL       am_hal_flash_delay ; 0xe608
        0x0000cf14:    e796        ..      B        0xce44 ; am_hal_ble_blocking_transfer + 308
        0x0000cf16:    2001        .       MOVS     r0,#1
        0x0000cf18:    f8850044    ..D.    STRB     r0,[r5,#0x44]
        0x0000cf1c:    2000        .       MOVS     r0,#0
        0x0000cf1e:    f8850045    ..E.    STRB     r0,[r5,#0x45]
        0x0000cf22:    f8850046    ..F.    STRB     r0,[r5,#0x46]
        0x0000cf26:    f8850047    ..G.    STRB     r0,[r5,#0x47]
        0x0000cf2a:    9800        ..      LDR      r0,[sp,#0]
        0x0000cf2c:    f7fff9ee    ....    BL       am_hal_interrupt_master_set ; 0xc30c
        0x0000cf30:    f899000c    ....    LDRB     r0,[r9,#0xc]
        0x0000cf34:    2800        .(      CMP      r0,#0
        0x0000cf36:    bf1c        ..      ITT      NE
        0x0000cf38:    2001        .       MOVNE    r0,#1
        0x0000cf3a:    f8850041    ..A.    STRBNE   r0,[r5,#0x41]
        0x0000cf3e:    e89910ce    ....    LDM      r9,{r1-r3,r6,r7,r12}
        0x0000cf42:    f105000c    ....    ADD      r0,r5,#0xc
        0x0000cf46:    e88000ce    ....    STM      r0,{r1-r3,r6,r7}
        0x0000cf4a:    f8c5c020    .. .    STR      r12,[r5,#0x20]
        0x0000cf4e:    f7fff9d9    ....    BL       am_hal_interrupt_master_disable ; 0xc304
        0x0000cf52:    9000        ..      STR      r0,[sp,#0]
        0x0000cf54:    4649        IF      MOV      r1,r9
        0x0000cf56:    4628        (F      MOV      r0,r5
        0x0000cf58:    f000f9ca    ....    BL       am_hal_ble_cmd_write ; 0xd2f0
        0x0000cf5c:    f899000a    ....    LDRB     r0,[r9,#0xa]
        0x0000cf60:    2801        .(      CMP      r0,#1
        0x0000cf62:    d033        3.      BEQ      0xcfcc ; am_hal_ble_blocking_transfer + 700
        0x0000cf64:    8aa8        ..      LDRH     r0,[r5,#0x14]
        0x0000cf66:    6be9        .k      LDR      r1,[r5,#0x3c]
        0x0000cf68:    4281        .B      CMP      r1,r0
        0x0000cf6a:    bf38        8.      IT       CC
        0x0000cf6c:    2700        .'      MOVCC    r7,#0
        0x0000cf6e:    d27b        {.      BCS      0xd068 ; am_hal_ble_blocking_transfer + 856
        0x0000cf70:    002e        ..      MOVS     r6,r5
        0x0000cf72:    bf1c        ..      ITT      NE
        0x0000cf74:    6830        0h      LDRNE    r0,[r6,#0]
        0x0000cf76:    f0107f80    ....    TSTNE    r0,#0x1000000
        0x0000cf7a:    d076        v.      BEQ      0xd06a ; am_hal_ble_blocking_transfer + 858
        0x0000cf7c:    f020407f     ..@    BIC      r0,r0,#0xff000000
        0x0000cf80:    4558        XE      CMP      r0,r11
        0x0000cf82:    d172        r.      BNE      0xd06a ; am_hal_ble_blocking_transfer + 858
        0x0000cf84:    f8d40100    ....    LDR      r0,[r4,#0x100]
        0x0000cf88:    f106010c    ....    ADD      r1,r6,#0xc
        0x0000cf8c:    8ab3        ..      LDRH     r3,[r6,#0x14]
        0x0000cf8e:    6bf2        .k      LDR      r2,[r6,#0x3c]
        0x0000cf90:    f3c04007    ...@    UBFX     r0,r0,#16,#8
        0x0000cf94:    eba30802    ....    SUB      r8,r3,r2
        0x0000cf98:    2804        .(      CMP      r0,#4
        0x0000cf9a:    d375        u.      BCC      0xd088 ; am_hal_ble_blocking_transfer + 888
        0x0000cf9c:    4283        .B      CMP      r3,r0
        0x0000cf9e:    bf88        ..      IT       HI
        0x0000cfa0:    f0200803     ...    BICHI    r8,r0,#3
        0x0000cfa4:    6808        .h      LDR      r0,[r1,#0]
        0x0000cfa6:    f0220103    "...    BIC      r1,r2,#3
        0x0000cfaa:    4401        .D      ADD      r1,r1,r0
        0x0000cfac:    2000        .       MOVS     r0,#0
        0x0000cfae:    f1080203    ....    ADD      r2,r8,#3
        0x0000cfb2:    2a03        .*      CMP      r2,#3
        0x0000cfb4:    d97a        z.      BLS      0xd0ac ; am_hal_ble_blocking_transfer + 924
        0x0000cfb6:    f1b84f00    ...O    CMP      r8,#0x80000000
        0x0000cfba:    d277        w.      BCS      0xd0ac ; am_hal_ble_blocking_transfer + 924
        0x0000cfbc:    f1080c03    ....    ADD      r12,r8,#3
        0x0000cfc0:    ea4f73ec    O..s    ASR      r3,r12,#31
        0x0000cfc4:    2201        ."      MOVS     r2,#1
        0x0000cfc6:    eb0c7393    ...s    ADD      r3,r12,r3,LSR #30
        0x0000cfca:    e057        W.      B        0xd07c ; am_hal_ble_blocking_transfer + 876
        0x0000cfcc:    4628        (F      MOV      r0,r5
        0x0000cfce:    8aae        ..      LDRH     r6,[r5,#0x14]
        0x0000cfd0:    4649        IF      MOV      r1,r9
        0x0000cfd2:    f8d5800c    ....    LDR      r8,[r5,#0xc]
        0x0000cfd6:    f000f98b    ....    BL       am_hal_ble_cmd_write ; 0xd2f0
        0x0000cfda:    2e00        ..      CMP      r6,#0
        0x0000cfdc:    bf18        ..      IT       NE
        0x0000cfde:    f8dfb160    ..`.    LDRNE    r11,[pc,#352] ; [0xd140] = 0x7a120
        0x0000cfe2:    d02a        *.      BEQ      0xd03a ; am_hal_ble_blocking_transfer + 810
        0x0000cfe4:    f8d40100    ....    LDR      r0,[r4,#0x100]
        0x0000cfe8:    2700        .'      MOVS     r7,#0
        0x0000cfea:    f3c02007    ...     UBFX     r0,r0,#8,#8
        0x0000cfee:    2804        .(      CMP      r0,#4
        0x0000cff0:    d215        ..      BCS      0xd01e ; am_hal_ble_blocking_transfer + 782
        0x0000cff2:    bf00        ..      NOP      
        0x0000cff4:    f8d41224    ..$.    LDR      r1,[r4,#0x224]
        0x0000cff8:    f0110f01    ....    TST      r1,#1
        0x0000cffc:    d11d        ..      BNE      0xd03a ; am_hal_ble_blocking_transfer + 810
        0x0000cffe:    4639        9F      MOV      r1,r7
        0x0000d000:    1c7f        ..      ADDS     r7,r7,#1
        0x0000d002:    4559        YE      CMP      r1,r11
        0x0000d004:    d209        ..      BCS      0xd01a ; am_hal_ble_blocking_transfer + 778
        0x0000d006:    2010        .       MOVS     r0,#0x10
        0x0000d008:    f001fafe    ....    BL       am_hal_flash_delay ; 0xe608
        0x0000d00c:    f8d40100    ....    LDR      r0,[r4,#0x100]
        0x0000d010:    f3c02007    ...     UBFX     r0,r0,#8,#8
        0x0000d014:    2804        .(      CMP      r0,#4
        0x0000d016:    d3ed        ..      BCC      0xcff4 ; am_hal_ble_blocking_transfer + 740
        0x0000d018:    e001        ..      B        0xd01e ; am_hal_ble_blocking_transfer + 782
        0x0000d01a:    2804        .(      CMP      r0,#4
        0x0000d01c:    d30d        ..      BCC      0xd03a ; am_hal_ble_blocking_transfer + 810
        0x0000d01e:    b166        f.      CBZ      r6,0xd03a ; am_hal_ble_blocking_transfer + 810
        0x0000d020:    f8581b04    X...    LDR      r1,[r8],#4
        0x0000d024:    f8c4110c    ....    STR      r1,[r4,#0x10c]
        0x0000d028:    1f00        ..      SUBS     r0,r0,#4
        0x0000d02a:    2e04        ..      CMP      r6,#4
        0x0000d02c:    bf2c        ,.      ITE      CS
        0x0000d02e:    1f36        6.      SUBCS    r6,r6,#4
        0x0000d030:    2600        .&      MOVCC    r6,#0
        0x0000d032:    2804        .(      CMP      r0,#4
        0x0000d034:    d2f3        ..      BCS      0xd01e ; am_hal_ble_blocking_transfer + 782
        0x0000d036:    2e00        ..      CMP      r6,#0
        0x0000d038:    d1d4        ..      BNE      0xcfe4 ; am_hal_ble_blocking_transfer + 724
        0x0000d03a:    f8d40224    ..$.    LDR      r0,[r4,#0x224]
        0x0000d03e:    2600        .&      MOVS     r6,#0
        0x0000d040:    f0100f01    ....    TST      r0,#1
        0x0000d044:    d10c        ..      BNE      0xd060 ; am_hal_ble_blocking_transfer + 848
        0x0000d046:    e002        ..      B        0xd04e ; am_hal_ble_blocking_transfer + 830
        0x0000d048:    f5b66ffa    ...o    CMP      r6,#0x7d0
        0x0000d04c:    d008        ..      BEQ      0xd060 ; am_hal_ble_blocking_transfer + 848
        0x0000d04e:    2010        .       MOVS     r0,#0x10
        0x0000d050:    f001fada    ....    BL       am_hal_flash_delay ; 0xe608
        0x0000d054:    f8d40224    ..$.    LDR      r0,[r4,#0x224]
        0x0000d058:    1c76        v.      ADDS     r6,r6,#1
        0x0000d05a:    f0100f01    ....    TST      r0,#1
        0x0000d05e:    d0f3        ..      BEQ      0xd048 ; am_hal_ble_blocking_transfer + 824
        0x0000d060:    2100        .!      MOVS     r1,#0
        0x0000d062:    4628        (F      MOV      r0,r5
        0x0000d064:    f000ffb4    ....    BL       am_hal_ble_wakeup_set ; 0xdfd0
        0x0000d068:    e013        ..      B        0xd092 ; am_hal_ble_blocking_transfer + 898
        0x0000d06a:    e00d        ..      B        0xd088 ; am_hal_ble_blocking_transfer + 888
        0x0000d06c:    f8d4c108    ....    LDR      r12,[r4,#0x108]
        0x0000d070:    f841c020    A. .    STR      r12,[r1,r0,LSL #2]
        0x0000d074:    f8c47108    ...q    STR      r7,[r4,#0x108]
        0x0000d078:    1c40        @.      ADDS     r0,r0,#1
        0x0000d07a:    1c52        R.      ADDS     r2,r2,#1
        0x0000d07c:    ebb20fa3    ....    CMP      r2,r3,ASR #2
        0x0000d080:    ddf4        ..      BLE      0xd06c ; am_hal_ble_blocking_transfer + 860
        0x0000d082:    6bf0        .k      LDR      r0,[r6,#0x3c]
        0x0000d084:    4440        @D      ADD      r0,r0,r8
        0x0000d086:    63e8        .c      STR      r0,[r5,#0x3c]
        0x0000d088:    8aa8        ..      LDRH     r0,[r5,#0x14]
        0x0000d08a:    6be9        .k      LDR      r1,[r5,#0x3c]
        0x0000d08c:    4281        .B      CMP      r1,r0
        0x0000d08e:    f4ffaf6f    ..o.    BCC      0xcf70 ; am_hal_ble_blocking_transfer + 608
        0x0000d092:    9800        ..      LDR      r0,[sp,#0]
        0x0000d094:    f7fff93a    ..:.    BL       am_hal_interrupt_master_set ; 0xc30c
        0x0000d098:    f8d40224    ..$.    LDR      r0,[r4,#0x224]
        0x0000d09c:    2600        .&      MOVS     r6,#0
        0x0000d09e:    f0100f01    ....    TST      r0,#1
        0x0000d0a2:    bf08        ..      IT       EQ
        0x0000d0a4:    f2427710    B..w    MOVEQ    r7,#0x2710
        0x0000d0a8:    d10f        ..      BNE      0xd0ca ; am_hal_ble_blocking_transfer + 954
        0x0000d0aa:    e005        ..      B        0xd0b8 ; am_hal_ble_blocking_transfer + 936
        0x0000d0ac:    e04c        L.      B        0xd148 ; am_hal_ble_blocking_transfer + 1080
        0x0000d0ae:    42be        .B      CMP      r6,r7
        0x0000d0b0:    d102        ..      BNE      0xd0b8 ; am_hal_ble_blocking_transfer + 936
        0x0000d0b2:    4824        $H      LDR      r0,[pc,#144] ; [0xd144] = 0x8000009
        0x0000d0b4:    e8bd8ff8    ....    POP      {r3-r11,pc}
        0x0000d0b8:    2010        .       MOVS     r0,#0x10
        0x0000d0ba:    f001faa5    ....    BL       am_hal_flash_delay ; 0xe608
        0x0000d0be:    f8d40224    ..$.    LDR      r0,[r4,#0x224]
        0x0000d0c2:    1c76        v.      ADDS     r6,r6,#1
        0x0000d0c4:    f0100f01    ....    TST      r0,#1
        0x0000d0c8:    d0f1        ..      BEQ      0xd0ae ; am_hal_ble_blocking_transfer + 926
        0x0000d0ca:    f8d40228    ..(.    LDR      r0,[r4,#0x228]
        0x0000d0ce:    f0400001    @...    ORR      r0,r0,#1
        0x0000d0d2:    f8c40228    ..(.    STR      r0,[r4,#0x228]
        0x0000d0d6:    f8d40228    ..(.    LDR      r0,[r4,#0x228]
        0x0000d0da:    f0400002    @...    ORR      r0,r0,#2
        0x0000d0de:    f8c40228    ..(.    STR      r0,[r4,#0x228]
        0x0000d0e2:    2300        .#      MOVS     r3,#0
        0x0000d0e4:    60eb        .`      STR      r3,[r5,#0xc]
        0x0000d0e6:    612b        +a      STR      r3,[r5,#0x10]
        0x0000d0e8:    616b        ka      STR      r3,[r5,#0x14]
        0x0000d0ea:    61ab        .a      STR      r3,[r5,#0x18]
        0x0000d0ec:    61eb        .a      STR      r3,[r5,#0x1c]
        0x0000d0ee:    622b        +b      STR      r3,[r5,#0x20]
        0x0000d0f0:    63eb        .c      STR      r3,[r5,#0x3c]
        0x0000d0f2:    f899000a    ....    LDRB     r0,[r9,#0xa]
        0x0000d0f6:    2801        .(      CMP      r0,#1
        0x0000d0f8:    d106        ..      BNE      0xd108 ; am_hal_ble_blocking_transfer + 1016
        0x0000d0fa:    2100        .!      MOVS     r1,#0
        0x0000d0fc:    4628        (F      MOV      r0,r5
        0x0000d0fe:    f000ff67    ..g.    BL       am_hal_ble_wakeup_set ; 0xdfd0
        0x0000d102:    2001        .       MOVS     r0,#1
        0x0000d104:    f8850042    ..B.    STRB     r0,[r5,#0x42]
        0x0000d108:    f899000a    ....    LDRB     r0,[r9,#0xa]
        0x0000d10c:    2802        .(      CMP      r0,#2
        0x0000d10e:    bf02        ..      ITTT     EQ
        0x0000d110:    f8950040    ..@.    LDRBEQ   r0,[r5,#0x40]
        0x0000d114:    2801        .(      CMPEQ    r0,#1
        0x0000d116:    f8853042    ..B0    STRBEQ   r3,[r5,#0x42]
        0x0000d11a:    f8c4a220    .. .    STR      r10,[r4,#0x220]
        0x0000d11e:    f8853044    ..D0    STRB     r3,[r5,#0x44]
        0x0000d122:    f04f0000    O...    MOV      r0,#0
        0x0000d126:    e8bd8ff8    ....    POP      {r3-r11,pc}
    $d
        0x0000d12a:    0000        ..      DCW    0
        0x0000d12c:    00775230    0Rw.    DCD    7819824
        0x0000d130:    5000c000    ...P    DCD    1342226432
        0x0000d134:    08000001    ....    DCD    134217729
        0x0000d138:    5000c410    ...P    DCD    1342227472
        0x0000d13c:    08000002    ....    DCD    134217730
        0x0000d140:    0007a120     ...    DCD    500000
        0x0000d144:    08000009    ....    DCD    134217737
    $t
        0x0000d148:    f1b80f00    ....    CMP      r8,#0
        0x0000d14c:    d999        ..      BLS      0xd082 ; am_hal_ble_blocking_transfer + 882
        0x0000d14e:    bf00        ..      NOP      
        0x0000d150:    f8d42108    ...!    LDR      r2,[r4,#0x108]
        0x0000d154:    f8412020    A.      STR      r2,[r1,r0,LSL #2]
        0x0000d158:    f8c47108    ...q    STR      r7,[r4,#0x108]
        0x0000d15c:    1c40        @.      ADDS     r0,r0,#1
        0x0000d15e:    ebb80f80    ....    CMP      r8,r0,LSL #2
        0x0000d162:    d8f5        ..      BHI      0xd150 ; am_hal_ble_blocking_transfer + 1088
        0x0000d164:    e78d        ..      B        0xd082 ; am_hal_ble_blocking_transfer + 882
        0x0000d166:    0000        ..      MOVS     r0,r0
    i.am_hal_ble_boot
    am_hal_ble_boot
        0x0000d168:    e92d4ff8    -..O    PUSH     {r3-r11,lr}
        0x0000d16c:    0007        ..      MOVS     r7,r0
        0x0000d16e:    bf1c        ..      ITT      NE
        0x0000d170:    6838        8h      LDRNE    r0,[r7,#0]
        0x0000d172:    f0107f80    ....    TSTNE    r0,#0x1000000
        0x0000d176:    d004        ..      BEQ      0xd182 ; am_hal_ble_boot + 26
        0x0000d178:    4953        SI      LDR      r1,[pc,#332] ; [0xd2c8] = 0x775230
        0x0000d17a:    f020407f     ..@    BIC      r0,r0,#0xff000000
        0x0000d17e:    4288        .B      CMP      r0,r1
        0x0000d180:    d002        ..      BEQ      0xd188 ; am_hal_ble_boot + 32
        0x0000d182:    2002        .       MOVS     r0,#2
        0x0000d184:    e8bd8ff8    ....    POP      {r3-r11,pc}
        0x0000d188:    7a39        9z      LDRB     r1,[r7,#8]
        0x0000d18a:    2001        .       MOVS     r0,#1
        0x0000d18c:    f8dfb13c    ..<.    LDR      r11,[pc,#316] ; [0xd2cc] = 0x40020000
        0x0000d190:    2900        .)      CMP      r1,#0
        0x0000d192:    d07d        }.      BEQ      0xd290 ; am_hal_ble_boot + 296
        0x0000d194:    f8db100c    ....    LDR      r1,[r11,#0xc]
        0x0000d198:    b2c9        ..      UXTB     r1,r1
        0x0000d19a:    2921        !)      CMP      r1,#0x21
        0x0000d19c:    bf3c        <.      ITT      CC
        0x0000d19e:    2001        .       MOVCC    r0,#1
        0x0000d1a0:    e8bd8ff8    ....    POPCC    {r3-r11,pc}
        0x0000d1a4:    f8db100c    ....    LDR      r1,[r11,#0xc]
        0x0000d1a8:    b2c9        ..      UXTB     r1,r1
        0x0000d1aa:    2921        !)      CMP      r1,#0x21
        0x0000d1ac:    bf38        8.      IT       CC
        0x0000d1ae:    e8bd8ff8    ....    POPCC    {r3-r11,pc}
        0x0000d1b2:    4947        GI      LDR      r1,[pc,#284] ; [0xd2d0] = 0x100137c4
        0x0000d1b4:    68ca        .h      LDR      r2,[r1,#0xc]
        0x0000d1b6:    4947        GI      LDR      r1,[pc,#284] ; [0xd2d4] = 0x50023800
        0x0000d1b8:    6809        .h      LDR      r1,[r1,#0]
        0x0000d1ba:    ba09        ..      REV      r1,r1
        0x0000d1bc:    f1b13fff    ...?    CMP      r1,#0xffffffff
        0x0000d1c0:    bf18        ..      IT       NE
        0x0000d1c2:    6091        .`      STRNE    r1,[r2,#8]
        0x0000d1c4:    4944        DI      LDR      r1,[pc,#272] ; [0xd2d8] = 0x50023804
        0x0000d1c6:    6809        .h      LDR      r1,[r1,#0]
        0x0000d1c8:    f1b13fff    ...?    CMP      r1,#0xffffffff
        0x0000d1cc:    bf18        ..      IT       NE
        0x0000d1ce:    f1014180    ...A    ADDNE    r1,r1,#0x40000000
        0x0000d1d2:    ba09        ..      REV      r1,r1
        0x0000d1d4:    f1b13fff    ...?    CMP      r1,#0xffffffff
        0x0000d1d8:    d004        ..      BEQ      0xd1e4 ; am_hal_ble_boot + 124
        0x0000d1da:    68d3        .h      LDR      r3,[r2,#0xc]
        0x0000d1dc:    f42373f8    #..s    BIC      r3,r3,#0x1f0
        0x0000d1e0:    4319        .C      ORRS     r1,r1,r3
        0x0000d1e2:    60d1        .`      STR      r1,[r2,#0xc]
        0x0000d1e4:    9700        ..      STR      r7,[sp,#0]
        0x0000d1e6:    f8db100c    ....    LDR      r1,[r11,#0xc]
        0x0000d1ea:    2400        .$      MOVS     r4,#0
        0x0000d1ec:    b2c9        ..      UXTB     r1,r1
        0x0000d1ee:    2921        !)      CMP      r1,#0x21
        0x0000d1f0:    bf38        8.      IT       CC
        0x0000d1f2:    e8bd8ff8    ....    POPCC    {r3-r11,pc}
        0x0000d1f6:    4839        9H      LDR      r0,[pc,#228] ; [0xd2dc] = 0x123ac
        0x0000d1f8:    f8d08000    ....    LDR      r8,[r0,#0]
        0x0000d1fc:    4838        8H      LDR      r0,[pc,#224] ; [0xd2e0] = 0x1001316c
        0x0000d1fe:    f1b80f00    ....    CMP      r8,#0
        0x0000d202:    6806        .h      LDR      r6,[r0,#0]
        0x0000d204:    bf88        ..      IT       HI
        0x0000d206:    4d37        7M      LDRHI    r5,[pc,#220] ; [0xd2e4] = 0x11c28
        0x0000d208:    d93d        =.      BLS      0xd286 ; am_hal_ble_boot + 286
        0x0000d20a:    bf00        ..      NOP      
        0x0000d20c:    f856a024    V.$.    LDR      r10,[r6,r4,LSL #2]
        0x0000d210:    f04f0c00    O...    MOV      r12,#0
        0x0000d214:    f8da2004    ...     LDR      r2,[r10,#4]
        0x0000d218:    b33a        :.      CBZ      r2,0xd26a ; am_hal_ble_boot + 258
        0x0000d21a:    2300        .#      MOVS     r3,#0
        0x0000d21c:    f0120101    ....    ANDS     r1,r2,#1
        0x0000d220:    d005        ..      BEQ      0xd22e ; am_hal_ble_boot + 198
        0x0000d222:    f8da000c    ....    LDR      r0,[r10,#0xc]
        0x0000d226:    2301        .#      MOVS     r3,#1
        0x0000d228:    7800        .x      LDRB     r0,[r0,#0]
        0x0000d22a:    f835c010    5...    LDRH     r12,[r5,r0,LSL #1]
        0x0000d22e:    4291        .B      CMP      r1,r2
        0x0000d230:    bf38        8.      IT       CC
        0x0000d232:    f8da000c    ....    LDRCC    r0,[r10,#0xc]
        0x0000d236:    d218        ..      BCS      0xd26a ; am_hal_ble_boot + 258
        0x0000d238:    f8109003    ....    LDRB     r9,[r0,r3]
        0x0000d23c:    1c5b        [.      ADDS     r3,r3,#1
        0x0000d23e:    ea89291c    ...)    EOR      r9,r9,r12,LSR #8
        0x0000d242:    1c89        ..      ADDS     r1,r1,#2
        0x0000d244:    f8359019    5...    LDRH     r9,[r5,r9,LSL #1]
        0x0000d248:    ea892c0c    ...,    EOR      r12,r9,r12,LSL #8
        0x0000d24c:    f8109003    ....    LDRB     r9,[r0,r3]
        0x0000d250:    fa1ffc8c    ....    UXTH     r12,r12
        0x0000d254:    ea89291c    ...)    EOR      r9,r9,r12,LSR #8
        0x0000d258:    1c5b        [.      ADDS     r3,r3,#1
        0x0000d25a:    f8359019    5...    LDRH     r9,[r5,r9,LSL #1]
        0x0000d25e:    4291        .B      CMP      r1,r2
        0x0000d260:    ea892c0c    ...,    EOR      r12,r9,r12,LSL #8
        0x0000d264:    fa1ffc8c    ....    UXTH     r12,r12
        0x0000d268:    d3e6        ..      BCC      0xd238 ; am_hal_ble_boot + 208
        0x0000d26a:    f8cac008    ....    STR      r12,[r10,#8]
        0x0000d26e:    f8561024    V.$.    LDR      r1,[r6,r4,LSL #2]
        0x0000d272:    9800        ..      LDR      r0,[sp,#0]
        0x0000d274:    f000f990    ....    BL       am_hal_ble_patch_apply ; 0xd598
        0x0000d278:    2800        .(      CMP      r0,#0
        0x0000d27a:    bf18        ..      IT       NE
        0x0000d27c:    e8bd8ff8    ....    POPNE    {r3-r11,pc}
        0x0000d280:    1c64        d.      ADDS     r4,r4,#1
        0x0000d282:    4544        DE      CMP      r4,r8
        0x0000d284:    d3c2        ..      BCC      0xd20c ; am_hal_ble_boot + 164
        0x0000d286:    4638        8F      MOV      r0,r7
        0x0000d288:    f000fb24    ..$.    BL       am_hal_ble_patch_complete ; 0xd8d4
        0x0000d28c:    2800        .(      CMP      r0,#0
        0x0000d28e:    e000        ..      B        0xd292 ; am_hal_ble_boot + 298
        0x0000d290:    e002        ..      B        0xd298 ; am_hal_ble_boot + 304
        0x0000d292:    bf18        ..      IT       NE
        0x0000d294:    e8bd8ff8    ....    POPNE    {r3-r11,pc}
        0x0000d298:    f04f30ff    O..0    MOV      r0,#0xffffffff
        0x0000d29c:    9000        ..      STR      r0,[sp,#0]
        0x0000d29e:    f8db000c    ....    LDR      r0,[r11,#0xc]
        0x0000d2a2:    b2c0        ..      UXTB     r0,r0
        0x0000d2a4:    2821        !(      CMP      r0,#0x21
        0x0000d2a6:    d30d        ..      BCC      0xd2c4 ; am_hal_ble_boot + 348
        0x0000d2a8:    466a        jF      MOV      r2,sp
        0x0000d2aa:    490f        .I      LDR      r1,[pc,#60] ; [0xd2e8] = 0x20006858
        0x0000d2ac:    4638        8F      MOV      r0,r7
        0x0000d2ae:    f000fc6f    ..o.    BL       am_hal_ble_plf_reg_read ; 0xdb90
        0x0000d2b2:    9800        ..      LDR      r0,[sp,#0]
        0x0000d2b4:    f5a040f6    ...@    SUB      r0,r0,#0x7b00
        0x0000d2b8:    f5b06fe0    ...o    CMP      r0,#0x700
        0x0000d2bc:    bf98        ..      IT       LS
        0x0000d2be:    2000        .       MOVLS    r0,#0
        0x0000d2c0:    f67faf60    ..`.    BLS      0xd184 ; am_hal_ble_boot + 28
        0x0000d2c4:    4809        .H      LDR      r0,[pc,#36] ; [0xd2ec] = 0x800000b
        0x0000d2c6:    e75d        ].      B        0xd184 ; am_hal_ble_boot + 28
    $d
        0x0000d2c8:    00775230    0Rw.    DCD    7819824
        0x0000d2cc:    40020000    ...@    DCD    1073872896
        0x0000d2d0:    100137c4    .7..    DCD    268515268
        0x0000d2d4:    50023800    .8.P    DCD    1342322688
        0x0000d2d8:    50023804    .8.P    DCD    1342322692
        0x0000d2dc:    000123ac    .#..    DCD    74668
        0x0000d2e0:    1001316c    l1..    DCD    268513644
        0x0000d2e4:    00011c28    (...    DCD    72744
        0x0000d2e8:    20006858    Xh.     DCD    536897624
        0x0000d2ec:    0800000b    ....    DCD    134217739
    $t
    i.am_hal_ble_cmd_write
    am_hal_ble_cmd_write
        0x0000d2f0:    b410        ..      PUSH     {r4}
        0x0000d2f2:    2800        .(      CMP      r0,#0
        0x0000d2f4:    bf1c        ..      ITT      NE
        0x0000d2f6:    6800        .h      LDRNE    r0,[r0,#0]
        0x0000d2f8:    f0107f80    ....    TSTNE    r0,#0x1000000
        0x0000d2fc:    d004        ..      BEQ      0xd308 ; am_hal_ble_cmd_write + 24
        0x0000d2fe:    4a20         J      LDR      r2,[pc,#128] ; [0xd380] = 0x775230
        0x0000d300:    f020407f     ..@    BIC      r0,r0,#0xff000000
        0x0000d304:    4290        .B      CMP      r0,r2
        0x0000d306:    d002        ..      BEQ      0xd30e ; am_hal_ble_cmd_write + 30
        0x0000d308:    bc10        ..      POP      {r4}
        0x0000d30a:    2002        .       MOVS     r0,#2
        0x0000d30c:    4770        pG      BX       lr
        0x0000d30e:    79cb        .y      LDRB     r3,[r1,#7]
        0x0000d310:    2b00        .+      CMP      r3,#0
        0x0000d312:    bf08        ..      IT       EQ
        0x0000d314:    2200        ."      MOVEQ    r2,#0
        0x0000d316:    d02c        ,.      BEQ      0xd372 ; am_hal_ble_cmd_write + 130
        0x0000d318:    2b01        .+      CMP      r3,#1
        0x0000d31a:    bf04        ..      ITT      EQ
        0x0000d31c:    7908        .y      LDRBEQ   r0,[r1,#4]
        0x0000d31e:    0602        ..      LSLEQ    r2,r0,#24
        0x0000d320:    d027        '.      BEQ      0xd372 ; am_hal_ble_cmd_write + 130
        0x0000d322:    2b02        .+      CMP      r3,#2
        0x0000d324:    d027        '.      BEQ      0xd376 ; am_hal_ble_cmd_write + 134
        0x0000d326:    2b03        .+      CMP      r3,#3
        0x0000d328:    bf1e        ..      ITTT     NE
        0x0000d32a:    2006        .       MOVNE    r0,#6
        0x0000d32c:    bc10        ..      POPNE    {r4}
        0x0000d32e:    4770        pG      BXNE     lr
        0x0000d330:    7988        .y      LDRB     r0,[r1,#6]
        0x0000d332:    0602        ..      LSLS     r2,r0,#24
        0x0000d334:    8888        ..      LDRH     r0,[r1,#4]
        0x0000d336:    ba40        @.      REV16    r0,r0
        0x0000d338:    2460        `$      MOVS     r4,#0x60
        0x0000d33a:    f891c00a    ....    LDRB     r12,[r1,#0xa]
        0x0000d33e:    ea041343    ..C.    AND      r3,r4,r3,LSL #5
        0x0000d342:    ea4c0303    L...    ORR      r3,r12,r3
        0x0000d346:    f8b1c008    ....    LDRH     r12,[r1,#8]
        0x0000d34a:    f46f0470    o.p.    MVN      r4,#0xf00000
        0x0000d34e:    ea042c0c    ...,    AND      r12,r4,r12,LSL #8
        0x0000d352:    7b09        .{      LDRB     r1,[r1,#0xc]
        0x0000d354:    2480        .$      MOVS     r4,#0x80
        0x0000d356:    ea0411c1    ....    AND      r1,r4,r1,LSL #7
        0x0000d35a:    ea4c0101    L...    ORR      r1,r12,r1
        0x0000d35e:    4319        .C      ORRS     r1,r1,r3
        0x0000d360:    430a        .C      ORRS     r2,r2,r1
        0x0000d362:    4908        .I      LDR      r1,[pc,#32] ; [0xd384] = 0x5000c000
        0x0000d364:    f8c10214    ....    STR      r0,[r1,#0x214]
        0x0000d368:    f8c1220c    ..."    STR      r2,[r1,#0x20c]
        0x0000d36c:    bc10        ..      POP      {r4}
        0x0000d36e:    2000        .       MOVS     r0,#0
        0x0000d370:    4770        pG      BX       lr
        0x0000d372:    2000        .       MOVS     r0,#0
        0x0000d374:    e7e0        ..      B        0xd338 ; am_hal_ble_cmd_write + 72
        0x0000d376:    7948        Hy      LDRB     r0,[r1,#5]
        0x0000d378:    0602        ..      LSLS     r2,r0,#24
        0x0000d37a:    7908        .y      LDRB     r0,[r1,#4]
        0x0000d37c:    e7dc        ..      B        0xd338 ; am_hal_ble_cmd_write + 72
    $d
        0x0000d37e:    0000        ..      DCW    0
        0x0000d380:    00775230    0Rw.    DCD    7819824
        0x0000d384:    5000c000    ...P    DCD    1342226432
    $t
    i.am_hal_ble_config
    am_hal_ble_config
        0x0000d388:    2800        .(      CMP      r0,#0
        0x0000d38a:    bf1c        ..      ITT      NE
        0x0000d38c:    6802        .h      LDRNE    r2,[r0,#0]
        0x0000d38e:    f0127f80    ....    TSTNE    r2,#0x1000000
        0x0000d392:    d004        ..      BEQ      0xd39e ; am_hal_ble_config + 22
        0x0000d394:    4b26        &K      LDR      r3,[pc,#152] ; [0xd430] = 0x775230
        0x0000d396:    f022427f    "..B    BIC      r2,r2,#0xff000000
        0x0000d39a:    429a        .B      CMP      r2,r3
        0x0000d39c:    d001        ..      BEQ      0xd3a2 ; am_hal_ble_config + 26
        0x0000d39e:    2002        .       MOVS     r0,#2
        0x0000d3a0:    4770        pG      BX       lr
        0x0000d3a2:    6843        Ch      LDR      r3,[r0,#4]
        0x0000d3a4:    4823        #H      LDR      r0,[pc,#140] ; [0xd434] = 0x5000c000
        0x0000d3a6:    2203        ."      MOVS     r2,#3
        0x0000d3a8:    f8c02300    ...#    STR      r2,[r0,#0x300]
        0x0000d3ac:    f8d02300    ...#    LDR      r2,[r0,#0x300]
        0x0000d3b0:    f4223200    "..2    BIC      r2,r2,#0x20000
        0x0000d3b4:    f8c02300    ...#    STR      r2,[r0,#0x300]
        0x0000d3b8:    f8d02300    ...#    LDR      r2,[r0,#0x300]
        0x0000d3bc:    f4223280    "..2    BIC      r2,r2,#0x10000
        0x0000d3c0:    f8c02300    ...#    STR      r2,[r0,#0x300]
        0x0000d3c4:    f8d02300    ...#    LDR      r2,[r0,#0x300]
        0x0000d3c8:    f4421200    B...    ORR      r2,r2,#0x200000
        0x0000d3cc:    f8c02300    ...#    STR      r2,[r0,#0x300]
        0x0000d3d0:    f891c008    ....    LDRB     r12,[r1,#8]
        0x0000d3d4:    f8d02104    ...!    LDR      r2,[r0,#0x104]
        0x0000d3d8:    f36c220d    l.."    BFI      r2,r12,#8,#6
        0x0000d3dc:    f8c02104    ...!    STR      r2,[r0,#0x104]
        0x0000d3e0:    f891c004    ....    LDRB     r12,[r1,#4]
        0x0000d3e4:    f8d02104    ...!    LDR      r2,[r0,#0x104]
        0x0000d3e8:    f36c0205    l...    BFI      r2,r12,#0,#6
        0x0000d3ec:    f8c02104    ...!    STR      r2,[r0,#0x104]
        0x0000d3f0:    f8d02110    ...!    LDR      r2,[r0,#0x110]
        0x0000d3f4:    f0420201    B...    ORR      r2,r2,#1
        0x0000d3f8:    f8c02110    ...!    STR      r2,[r0,#0x110]
        0x0000d3fc:    680a        .h      LDR      r2,[r1,#0]
        0x0000d3fe:    f44f6ce0    O..l    MOV      r12,#0x700
        0x0000d402:    ea0c2202    ..."    AND      r2,r12,r2,LSL #8
        0x0000d406:    f8d1c00c    ....    LDR      r12,[r1,#0xc]
        0x0000d40a:    f0420201    B...    ORR      r2,r2,#1
        0x0000d40e:    f1bc0f02    ....    CMP      r12,#2
        0x0000d412:    bf08        ..      IT       EQ
        0x0000d414:    f4426200    B..b    ORREQ    r2,r2,#0x800
        0x0000d418:    f8c02200    ..."    STR      r2,[r0,#0x200]
        0x0000d41c:    7c08        .|      LDRB     r0,[r1,#0x10]
        0x0000d41e:    4a06        .J      LDR      r2,[pc,#24] ; [0xd438] = 0x10018c28
        0x0000d420:    eb0301c3    ....    ADD      r1,r3,r3,LSL #3
        0x0000d424:    eb0201c1    ....    ADD      r1,r2,r1,LSL #3
        0x0000d428:    7208        .r      STRB     r0,[r1,#8]
        0x0000d42a:    2000        .       MOVS     r0,#0
        0x0000d42c:    4770        pG      BX       lr
    $d
        0x0000d42e:    0000        ..      DCW    0
        0x0000d430:    00775230    0Rw.    DCD    7819824
        0x0000d434:    5000c000    ...P    DCD    1342226432
        0x0000d438:    10018c28    (...    DCD    268536872
    $t
    i.am_hal_ble_deinitialize
    am_hal_ble_deinitialize
        0x0000d43c:    2800        .(      CMP      r0,#0
        0x0000d43e:    bf1c        ..      ITT      NE
        0x0000d440:    6801        .h      LDRNE    r1,[r0,#0]
        0x0000d442:    f0117f80    ....    TSTNE    r1,#0x1000000
        0x0000d446:    d004        ..      BEQ      0xd452 ; am_hal_ble_deinitialize + 22
        0x0000d448:    4a11        .J      LDR      r2,[pc,#68] ; [0xd490] = 0x775230
        0x0000d44a:    f021417f    !..A    BIC      r1,r1,#0xff000000
        0x0000d44e:    4291        .B      CMP      r1,r2
        0x0000d450:    d001        ..      BEQ      0xd456 ; am_hal_ble_deinitialize + 26
        0x0000d452:    2002        .       MOVS     r0,#2
        0x0000d454:    4770        pG      BX       lr
        0x0000d456:    2100        .!      MOVS     r1,#0
        0x0000d458:    60c1        .`      STR      r1,[r0,#0xc]
        0x0000d45a:    6101        .a      STR      r1,[r0,#0x10]
        0x0000d45c:    6141        Aa      STR      r1,[r0,#0x14]
        0x0000d45e:    6181        .a      STR      r1,[r0,#0x18]
        0x0000d460:    61c1        .a      STR      r1,[r0,#0x1c]
        0x0000d462:    6201        .b      STR      r1,[r0,#0x20]
        0x0000d464:    6802        .h      LDR      r2,[r0,#0]
        0x0000d466:    f002427e    ..~B    AND      r2,r2,#0xfe000000
        0x0000d46a:    e9c02100    ...!    STRD     r2,r1,[r0,#0]
        0x0000d46e:    63c1        .c      STR      r1,[r0,#0x3c]
        0x0000d470:    f8801040    ..@.    STRB     r1,[r0,#0x40]
        0x0000d474:    f8801041    ..A.    STRB     r1,[r0,#0x41]
        0x0000d478:    f8801043    ..C.    STRB     r1,[r0,#0x43]
        0x0000d47c:    f8801044    ..D.    STRB     r1,[r0,#0x44]
        0x0000d480:    f8801045    ..E.    STRB     r1,[r0,#0x45]
        0x0000d484:    f8801046    ..F.    STRB     r1,[r0,#0x46]
        0x0000d488:    f8801047    ..G.    STRB     r1,[r0,#0x47]
        0x0000d48c:    2000        .       MOVS     r0,#0
        0x0000d48e:    4770        pG      BX       lr
    $d
        0x0000d490:    00775230    0Rw.    DCD    7819824
    $t
    i.am_hal_ble_initialize
    am_hal_ble_initialize
        0x0000d494:    2800        .(      CMP      r0,#0
        0x0000d496:    bf1c        ..      ITT      NE
        0x0000d498:    2005        .       MOVNE    r0,#5
        0x0000d49a:    4770        pG      BXNE     lr
        0x0000d49c:    2900        .)      CMP      r1,#0
        0x0000d49e:    bf04        ..      ITT      EQ
        0x0000d4a0:    2006        .       MOVEQ    r0,#6
        0x0000d4a2:    4770        pG      BXEQ     lr
        0x0000d4a4:    2200        ."      MOVS     r2,#0
        0x0000d4a6:    4817        .H      LDR      r0,[pc,#92] ; [0xd504] = 0x10018c28
        0x0000d4a8:    6803        .h      LDR      r3,[r0,#0]
        0x0000d4aa:    f0137f80    ....    TST      r3,#0x1000000
        0x0000d4ae:    bf1c        ..      ITT      NE
        0x0000d4b0:    2007        .       MOVNE    r0,#7
        0x0000d4b2:    4770        pG      BXNE     lr
        0x0000d4b4:    60c2        .`      STR      r2,[r0,#0xc]
        0x0000d4b6:    6102        .a      STR      r2,[r0,#0x10]
        0x0000d4b8:    6142        Ba      STR      r2,[r0,#0x14]
        0x0000d4ba:    6182        .a      STR      r2,[r0,#0x18]
        0x0000d4bc:    61c2        .a      STR      r2,[r0,#0x1c]
        0x0000d4be:    6202        .b      STR      r2,[r0,#0x20]
        0x0000d4c0:    6242        Bb      STR      r2,[r0,#0x24]
        0x0000d4c2:    6282        .b      STR      r2,[r0,#0x28]
        0x0000d4c4:    62c2        .b      STR      r2,[r0,#0x2c]
        0x0000d4c6:    6302        .c      STR      r2,[r0,#0x30]
        0x0000d4c8:    f8dfc03c    ..<.    LDR      r12,[pc,#60] ; [0xd508] = 0x775230
        0x0000d4cc:    6342        Bc      STR      r2,[r0,#0x34]
        0x0000d4ce:    f0437380    C..s    ORR      r3,r3,#0x1000000
        0x0000d4d2:    f36c0317    l...    BFI      r3,r12,#0,#24
        0x0000d4d6:    6382        .c      STR      r2,[r0,#0x38]
        0x0000d4d8:    e9c03200    ...2    STRD     r3,r2,[r0,#0]
        0x0000d4dc:    63c2        .c      STR      r2,[r0,#0x3c]
        0x0000d4de:    f8802040    ..@     STRB     r2,[r0,#0x40]
        0x0000d4e2:    f8802041    ..A     STRB     r2,[r0,#0x41]
        0x0000d4e6:    f8802043    ..C     STRB     r2,[r0,#0x43]
        0x0000d4ea:    f8802044    ..D     STRB     r2,[r0,#0x44]
        0x0000d4ee:    f8802045    ..E     STRB     r2,[r0,#0x45]
        0x0000d4f2:    f8802046    ..F     STRB     r2,[r0,#0x46]
        0x0000d4f6:    f8802047    ..G     STRB     r2,[r0,#0x47]
        0x0000d4fa:    7202        .r      STRB     r2,[r0,#8]
        0x0000d4fc:    6008        .`      STR      r0,[r1,#0]
        0x0000d4fe:    2000        .       MOVS     r0,#0
        0x0000d500:    4770        pG      BX       lr
    $d
        0x0000d502:    0000        ..      DCW    0
        0x0000d504:    10018c28    (...    DCD    268536872
        0x0000d508:    00775230    0Rw.    DCD    7819824
    $t
    i.am_hal_ble_int_clear
    am_hal_ble_int_clear
        0x0000d50c:    2800        .(      CMP      r0,#0
        0x0000d50e:    bf1c        ..      ITT      NE
        0x0000d510:    6800        .h      LDRNE    r0,[r0,#0]
        0x0000d512:    f0107f80    ....    TSTNE    r0,#0x1000000
        0x0000d516:    d004        ..      BEQ      0xd522 ; am_hal_ble_int_clear + 22
        0x0000d518:    4a05        .J      LDR      r2,[pc,#20] ; [0xd530] = 0x775230
        0x0000d51a:    f020407f     ..@    BIC      r0,r0,#0xff000000
        0x0000d51e:    4290        .B      CMP      r0,r2
        0x0000d520:    d001        ..      BEQ      0xd526 ; am_hal_ble_int_clear + 26
        0x0000d522:    2002        .       MOVS     r0,#2
        0x0000d524:    4770        pG      BX       lr
        0x0000d526:    4803        .H      LDR      r0,[pc,#12] ; [0xd534] = 0x5000c000
        0x0000d528:    f8c01228    ..(.    STR      r1,[r0,#0x228]
        0x0000d52c:    2000        .       MOVS     r0,#0
        0x0000d52e:    4770        pG      BX       lr
    $d
        0x0000d530:    00775230    0Rw.    DCD    7819824
        0x0000d534:    5000c000    ...P    DCD    1342226432
    $t
    i.am_hal_ble_int_enable
    am_hal_ble_int_enable
        0x0000d538:    b538        8.      PUSH     {r3-r5,lr}
        0x0000d53a:    460c        .F      MOV      r4,r1
        0x0000d53c:    2800        .(      CMP      r0,#0
        0x0000d53e:    bf1c        ..      ITT      NE
        0x0000d540:    6800        .h      LDRNE    r0,[r0,#0]
        0x0000d542:    f0107f80    ....    TSTNE    r0,#0x1000000
        0x0000d546:    d004        ..      BEQ      0xd552 ; am_hal_ble_int_enable + 26
        0x0000d548:    490a        .I      LDR      r1,[pc,#40] ; [0xd574] = 0x775230
        0x0000d54a:    f020407f     ..@    BIC      r0,r0,#0xff000000
        0x0000d54e:    4288        .B      CMP      r0,r1
        0x0000d550:    d001        ..      BEQ      0xd556 ; am_hal_ble_int_enable + 30
        0x0000d552:    2002        .       MOVS     r0,#2
        0x0000d554:    bd38        8.      POP      {r3-r5,pc}
        0x0000d556:    f7fefed5    ....    BL       am_hal_interrupt_master_disable ; 0xc304
        0x0000d55a:    9000        ..      STR      r0,[sp,#0]
        0x0000d55c:    4806        .H      LDR      r0,[pc,#24] ; [0xd578] = 0x5000c000
        0x0000d55e:    f8d01220    .. .    LDR      r1,[r0,#0x220]
        0x0000d562:    4321        !C      ORRS     r1,r1,r4
        0x0000d564:    f8c01220    .. .    STR      r1,[r0,#0x220]
        0x0000d568:    9800        ..      LDR      r0,[sp,#0]
        0x0000d56a:    f7fefecf    ....    BL       am_hal_interrupt_master_set ; 0xc30c
        0x0000d56e:    2000        .       MOVS     r0,#0
        0x0000d570:    bd38        8.      POP      {r3-r5,pc}
    $d
        0x0000d572:    0000        ..      DCW    0
        0x0000d574:    00775230    0Rw.    DCD    7819824
        0x0000d578:    5000c000    ...P    DCD    1342226432
    $t
    i.am_hal_ble_int_status
    am_hal_ble_int_status
        0x0000d57c:    4805        .H      LDR      r0,[pc,#20] ; [0xd594] = 0x5000c000
        0x0000d57e:    2900        .)      CMP      r1,#0
        0x0000d580:    bf04        ..      ITT      EQ
        0x0000d582:    f8d00224    ..$.    LDREQ    r0,[r0,#0x224]
        0x0000d586:    4770        pG      BXEQ     lr
        0x0000d588:    f8d01220    .. .    LDR      r1,[r0,#0x220]
        0x0000d58c:    f8d00224    ..$.    LDR      r0,[r0,#0x224]
        0x0000d590:    4008        .@      ANDS     r0,r0,r1
        0x0000d592:    4770        pG      BX       lr
    $d
        0x0000d594:    5000c000    ...P    DCD    1342226432
    $t
    i.am_hal_ble_patch_apply
    am_hal_ble_patch_apply
        0x0000d598:    e92d4ff0    -..O    PUSH     {r4-r11,lr}
        0x0000d59c:    b091        ..      SUB      sp,sp,#0x44
        0x0000d59e:    460d        .F      MOV      r5,r1
        0x0000d5a0:    ea5f0900    _...    MOVS     r9,r0
        0x0000d5a4:    bf1c        ..      ITT      NE
        0x0000d5a6:    f8d90000    ....    LDRNE    r0,[r9,#0]
        0x0000d5aa:    f0107f80    ....    TSTNE    r0,#0x1000000
        0x0000d5ae:    d004        ..      BEQ      0xd5ba ; am_hal_ble_patch_apply + 34
        0x0000d5b0:    4ec2        .N      LDR      r6,[pc,#776] ; [0xd8bc] = 0x775230
        0x0000d5b2:    f020407f     ..@    BIC      r0,r0,#0xff000000
        0x0000d5b6:    42b0        .B      CMP      r0,r6
        0x0000d5b8:    d004        ..      BEQ      0xd5c4 ; am_hal_ble_patch_apply + 44
        0x0000d5ba:    b011        ..      ADD      sp,sp,#0x44
        0x0000d5bc:    f04f0002    O...    MOV      r0,#2
        0x0000d5c0:    e8bd8ff0    ....    POP      {r4-r11,pc}
        0x0000d5c4:    f04f0001    O...    MOV      r0,#1
        0x0000d5c8:    f88d0000    ....    STRB     r0,[sp,#0]
        0x0000d5cc:    7828        (x      LDRB     r0,[r5,#0]
        0x0000d5ce:    f88d0001    ....    STRB     r0,[sp,#1]
        0x0000d5d2:    f04f00f1    O...    MOV      r0,#0xf1
        0x0000d5d6:    f88d0002    ....    STRB     r0,[sp,#2]
        0x0000d5da:    f04f0002    O...    MOV      r0,#2
        0x0000d5de:    f88d0003    ....    STRB     r0,[sp,#3]
        0x0000d5e2:    7928        (y      LDRB     r0,[r5,#4]
        0x0000d5e4:    f88d0004    ....    STRB     r0,[sp,#4]
        0x0000d5e8:    88a8        ..      LDRH     r0,[r5,#4]
        0x0000d5ea:    f8df82d4    ....    LDR      r8,[pc,#724] ; [0xd8c0] = 0x11c28
        0x0000d5ee:    ea4f2010    O..     LSR      r0,r0,#8
        0x0000d5f2:    f88d0005    ....    STRB     r0,[sp,#5]
        0x0000d5f6:    f04f0400    O...    MOV      r4,#0
        0x0000d5fa:    f04f0706    O...    MOV      r7,#6
        0x0000d5fe:    bf00        ..      NOP      
        0x0000d600:    f5087301    ...s    ADD      r3,r8,#0x204
        0x0000d604:    4669        iF      MOV      r1,sp
        0x0000d606:    e8935c08    ...\    LDM      r3,{r3,r10-r12,lr}
        0x0000d60a:    e9cd130a    ....    STRD     r1,r3,[sp,#0x28]
        0x0000d60e:    a90c        ..      ADD      r1,sp,#0x30
        0x0000d610:    f04f0200    O...    MOV      r2,#0
        0x0000d614:    e8815c00    ...\    STM      r1,{r10-r12,lr}
        0x0000d618:    ea5f0009    _...    MOVS     r0,r9
        0x0000d61c:    f88d202c    ..,     STRB     r2,[sp,#0x2c]
        0x0000d620:    f8ad7030    ..0p    STRH     r7,[sp,#0x30]
        0x0000d624:    bf1c        ..      ITT      NE
        0x0000d626:    6801        .h      LDRNE    r1,[r0,#0]
        0x0000d628:    f0117f80    ....    TSTNE    r1,#0x1000000
        0x0000d62c:    d00f        ..      BEQ      0xd64e ; am_hal_ble_patch_apply + 182
        0x0000d62e:    f021417f    !..A    BIC      r1,r1,#0xff000000
        0x0000d632:    42b1        .B      CMP      r1,r6
        0x0000d634:    d10b        ..      BNE      0xd64e ; am_hal_ble_patch_apply + 182
        0x0000d636:    a90a        ..      ADD      r1,sp,#0x28
        0x0000d638:    f7fffb6a    ..j.    BL       am_hal_ble_blocking_transfer ; 0xcd10
        0x0000d63c:    b138        8.      CBZ      r0,0xd64e ; am_hal_ble_patch_apply + 182
        0x0000d63e:    f2413188    A..1    MOV      r1,#0x1388
        0x0000d642:    1c64        d.      ADDS     r4,r4,#1
        0x0000d644:    428c        .B      CMP      r4,r1
        0x0000d646:    d3db        ..      BCC      0xd600 ; am_hal_ble_patch_apply + 104
        0x0000d648:    b011        ..      ADD      sp,sp,#0x44
        0x0000d64a:    e8bd8ff0    ....    POP      {r4-r11,pc}
        0x0000d64e:    4e9d        .N      LDR      r6,[pc,#628] ; [0xd8c4] = 0x5000c000
        0x0000d650:    2400        .$      MOVS     r4,#0
        0x0000d652:    f8d6030c    ....    LDR      r0,[r6,#0x30c]
        0x0000d656:    f0100f80    ....    TST      r0,#0x80
        0x0000d65a:    bf08        ..      IT       EQ
        0x0000d65c:    4f9a        .O      LDREQ    r7,[pc,#616] ; [0xd8c8] = 0xf4240
        0x0000d65e:    d10c        ..      BNE      0xd67a ; am_hal_ble_patch_apply + 226
        0x0000d660:    e002        ..      B        0xd668 ; am_hal_ble_patch_apply + 208
        0x0000d662:    42bc        .B      CMP      r4,r7
        0x0000d664:    f00080e5    ....    BEQ.W    0xd832 ; am_hal_ble_patch_apply + 666
        0x0000d668:    2010        .       MOVS     r0,#0x10
        0x0000d66a:    f000ffcd    ....    BL       am_hal_flash_delay ; 0xe608
        0x0000d66e:    f8d6030c    ....    LDR      r0,[r6,#0x30c]
        0x0000d672:    1c64        d.      ADDS     r4,r4,#1
        0x0000d674:    f0100f80    ....    TST      r0,#0x80
        0x0000d678:    d0f3        ..      BEQ      0xd662 ; am_hal_ble_patch_apply + 202
        0x0000d67a:    f04f0800    O...    MOV      r8,#0
        0x0000d67e:    f8cd8018    ....    STR      r8,[sp,#0x18]
        0x0000d682:    2002        .       MOVS     r0,#2
        0x0000d684:    f88d001a    ....    STRB     r0,[sp,#0x1a]
        0x0000d688:    2005        .       MOVS     r0,#5
        0x0000d68a:    f8cd8024    ..$.    STR      r8,[sp,#0x24]
        0x0000d68e:    f8ad0018    ....    STRH     r0,[sp,#0x18]
        0x0000d692:    f8cd8014    ....    STR      r8,[sp,#0x14]
        0x0000d696:    f8cd801c    ....    STR      r8,[sp,#0x1c]
        0x0000d69a:    f8cd8020    .. .    STR      r8,[sp,#0x20]
        0x0000d69e:    f8cdd010    ....    STR      sp,[sp,#0x10]
        0x0000d6a2:    a904        ..      ADD      r1,sp,#0x10
        0x0000d6a4:    4648        HF      MOV      r0,r9
        0x0000d6a6:    f7fffb33    ..3.    BL       am_hal_ble_blocking_transfer ; 0xcd10
        0x0000d6aa:    2800        .(      CMP      r0,#0
        0x0000d6ac:    bf1c        ..      ITT      NE
        0x0000d6ae:    b011        ..      ADDNE    sp,sp,#0x44
        0x0000d6b0:    e8bd8ff0    ....    POPNE    {r4-r11,pc}
        0x0000d6b4:    7828        (x      LDRB     r0,[r5,#0]
        0x0000d6b6:    f89d2000    ...     LDRB     r2,[sp,#0]
        0x0000d6ba:    2a04        .*      CMP      r2,#4
        0x0000d6bc:    bf04        ..      ITT      EQ
        0x0000d6be:    f89d2001    ...     LDRBEQ   r2,[sp,#1]
        0x0000d6c2:    4282        .B      CMPEQ    r2,r0
        0x0000d6c4:    f04080f5    @...    BNE.W    0xd8b2 ; am_hal_ble_patch_apply + 794
        0x0000d6c8:    f89d0002    ....    LDRB     r0,[sp,#2]
        0x0000d6cc:    28f1        .(      CMP      r0,#0xf1
        0x0000d6ce:    bf01        ..      ITTTT    EQ
        0x0000d6d0:    f89d0003    ....    LDRBEQ   r0,[sp,#3]
        0x0000d6d4:    2801        .(      CMPEQ    r0,#1
        0x0000d6d6:    f89d0004    ....    LDRBEQ   r0,[sp,#4]
        0x0000d6da:    2800        .(      CMPEQ    r0,#0
        0x0000d6dc:    f04080e9    @...    BNE.W    0xd8b2 ; am_hal_ble_patch_apply + 794
        0x0000d6e0:    f8d5a004    ....    LDR      r10,[r5,#4]
        0x0000d6e4:    f04f0000    O...    MOV      r0,#0
        0x0000d6e8:    900a        ..      STR      r0,[sp,#0x28]
        0x0000d6ea:    f1ba0f00    ....    CMP      r10,#0
        0x0000d6ee:    d07a        z.      BEQ      0xd7e6 ; am_hal_ble_patch_apply + 590
        0x0000d6f0:    f1ba0f80    ....    CMP      r10,#0x80
        0x0000d6f4:    bf8c        ..      ITE      HI
        0x0000d6f6:    2780        .'      MOVHI    r7,#0x80
        0x0000d6f8:    4657        WF      MOVLS    r7,r10
        0x0000d6fa:    f8cd8014    ....    STR      r8,[sp,#0x14]
        0x0000d6fe:    f8cd8018    ....    STR      r8,[sp,#0x18]
        0x0000d702:    2001        .       MOVS     r0,#1
        0x0000d704:    4b71        qK      LDR      r3,[pc,#452] ; [0xd8cc] = 0x10018c70
        0x0000d706:    f8cd801c    ....    STR      r8,[sp,#0x1c]
        0x0000d70a:    f8cd8024    ..$.    STR      r8,[sp,#0x24]
        0x0000d70e:    f88d001a    ....    STRB     r0,[sp,#0x1a]
        0x0000d712:    1d39        9.      ADDS     r1,r7,#4
        0x0000d714:    f8cd8020    .. .    STR      r8,[sp,#0x20]
        0x0000d718:    9304        ..      STR      r3,[sp,#0x10]
        0x0000d71a:    f8ad1018    ....    STRH     r1,[sp,#0x18]
        0x0000d71e:    f88d801c    ....    STRB     r8,[sp,#0x1c]
        0x0000d722:    7018        .p      STRB     r0,[r3,#0]
        0x0000d724:    7828        (x      LDRB     r0,[r5,#0]
        0x0000d726:    7058        Xp      STRB     r0,[r3,#1]
        0x0000d728:    20f2        .       MOVS     r0,#0xf2
        0x0000d72a:    7098        .p      STRB     r0,[r3,#2]
        0x0000d72c:    70df        .p      STRB     r7,[r3,#3]
        0x0000d72e:    980a        ..      LDR      r0,[sp,#0x28]
        0x0000d730:    68e9        .h      LDR      r1,[r5,#0xc]
        0x0000d732:    f0200003     ...    BIC      r0,r0,#3
        0x0000d736:    4401        .D      ADD      r1,r1,r0
        0x0000d738:    463a        :F      MOV      r2,r7
        0x0000d73a:    1d18        ..      ADDS     r0,r3,#4
        0x0000d73c:    f7fefe3b    ..;.    BL       __aeabi_memcpy4 ; 0xc3b6
        0x0000d740:    a904        ..      ADD      r1,sp,#0x10
        0x0000d742:    4648        HF      MOV      r0,r9
        0x0000d744:    f7fffae4    ....    BL       am_hal_ble_blocking_transfer ; 0xcd10
        0x0000d748:    2800        .(      CMP      r0,#0
        0x0000d74a:    bf1c        ..      ITT      NE
        0x0000d74c:    b011        ..      ADDNE    sp,sp,#0x44
        0x0000d74e:    e8bd8ff0    ....    POPNE    {r4-r11,pc}
        0x0000d752:    2400        .$      MOVS     r4,#0
        0x0000d754:    f8d6030c    ....    LDR      r0,[r6,#0x30c]
        0x0000d758:    f0100f80    ....    TST      r0,#0x80
        0x0000d75c:    bf08        ..      IT       EQ
        0x0000d75e:    f8dfb168    ..h.    LDREQ    r11,[pc,#360] ; [0xd8c8] = 0xf4240
        0x0000d762:    d10b        ..      BNE      0xd77c ; am_hal_ble_patch_apply + 484
        0x0000d764:    e001        ..      B        0xd76a ; am_hal_ble_patch_apply + 466
        0x0000d766:    455c        \E      CMP      r4,r11
        0x0000d768:    d063        c.      BEQ      0xd832 ; am_hal_ble_patch_apply + 666
        0x0000d76a:    2010        .       MOVS     r0,#0x10
        0x0000d76c:    f000ff4c    ..L.    BL       am_hal_flash_delay ; 0xe608
        0x0000d770:    f8d6030c    ....    LDR      r0,[r6,#0x30c]
        0x0000d774:    1c64        d.      ADDS     r4,r4,#1
        0x0000d776:    f0100f80    ....    TST      r0,#0x80
        0x0000d77a:    d0f4        ..      BEQ      0xd766 ; am_hal_ble_patch_apply + 462
        0x0000d77c:    f8cd8018    ....    STR      r8,[sp,#0x18]
        0x0000d780:    2002        .       MOVS     r0,#2
        0x0000d782:    f88d001a    ....    STRB     r0,[sp,#0x1a]
        0x0000d786:    2005        .       MOVS     r0,#5
        0x0000d788:    f8cd8024    ..$.    STR      r8,[sp,#0x24]
        0x0000d78c:    f8ad0018    ....    STRH     r0,[sp,#0x18]
        0x0000d790:    f8cd8014    ....    STR      r8,[sp,#0x14]
        0x0000d794:    f8cd801c    ....    STR      r8,[sp,#0x1c]
        0x0000d798:    f8cd8020    .. .    STR      r8,[sp,#0x20]
        0x0000d79c:    f8cdd010    ....    STR      sp,[sp,#0x10]
        0x0000d7a0:    a904        ..      ADD      r1,sp,#0x10
        0x0000d7a2:    4648        HF      MOV      r0,r9
        0x0000d7a4:    f7fffab4    ....    BL       am_hal_ble_blocking_transfer ; 0xcd10
        0x0000d7a8:    2800        .(      CMP      r0,#0
        0x0000d7aa:    bf1c        ..      ITT      NE
        0x0000d7ac:    b011        ..      ADDNE    sp,sp,#0x44
        0x0000d7ae:    e8bd8ff0    ....    POPNE    {r4-r11,pc}
        0x0000d7b2:    7828        (x      LDRB     r0,[r5,#0]
        0x0000d7b4:    f89d1000    ....    LDRB     r1,[sp,#0]
        0x0000d7b8:    2904        .)      CMP      r1,#4
        0x0000d7ba:    bf04        ..      ITT      EQ
        0x0000d7bc:    f89d1001    ....    LDRBEQ   r1,[sp,#1]
        0x0000d7c0:    4281        .B      CMPEQ    r1,r0
        0x0000d7c2:    d176        v.      BNE      0xd8b2 ; am_hal_ble_patch_apply + 794
        0x0000d7c4:    f89d0002    ....    LDRB     r0,[sp,#2]
        0x0000d7c8:    28f2        .(      CMP      r0,#0xf2
        0x0000d7ca:    bf01        ..      ITTTT    EQ
        0x0000d7cc:    f89d0003    ....    LDRBEQ   r0,[sp,#3]
        0x0000d7d0:    2801        .(      CMPEQ    r0,#1
        0x0000d7d2:    f89d0004    ....    LDRBEQ   r0,[sp,#4]
        0x0000d7d6:    2800        .(      CMPEQ    r0,#0
        0x0000d7d8:    d16b        k.      BNE      0xd8b2 ; am_hal_ble_patch_apply + 794
        0x0000d7da:    980a        ..      LDR      r0,[sp,#0x28]
        0x0000d7dc:    ebba0a07    ....    SUBS     r10,r10,r7
        0x0000d7e0:    4438        8D      ADD      r0,r0,r7
        0x0000d7e2:    900a        ..      STR      r0,[sp,#0x28]
        0x0000d7e4:    d184        ..      BNE      0xd6f0 ; am_hal_ble_patch_apply + 344
        0x0000d7e6:    2001        .       MOVS     r0,#1
        0x0000d7e8:    f88d0000    ....    STRB     r0,[sp,#0]
        0x0000d7ec:    7828        (x      LDRB     r0,[r5,#0]
        0x0000d7ee:    f88d0001    ....    STRB     r0,[sp,#1]
        0x0000d7f2:    20f3        .       MOVS     r0,#0xf3
        0x0000d7f4:    f88d0002    ....    STRB     r0,[sp,#2]
        0x0000d7f8:    2702        .'      MOVS     r7,#2
        0x0000d7fa:    f88d7003    ...p    STRB     r7,[sp,#3]
        0x0000d7fe:    7a28        (z      LDRB     r0,[r5,#8]
        0x0000d800:    f88d0004    ....    STRB     r0,[sp,#4]
        0x0000d804:    8928        (.      LDRH     r0,[r5,#8]
        0x0000d806:    2306        .#      MOVS     r3,#6
        0x0000d808:    0a00        ..      LSRS     r0,r0,#8
        0x0000d80a:    f88d0005    ....    STRB     r0,[sp,#5]
        0x0000d80e:    466a        jF      MOV      r2,sp
        0x0000d810:    2100        .!      MOVS     r1,#0
        0x0000d812:    4648        HF      MOV      r0,r9
        0x0000d814:    f7fffa54    ..T.    BL       am_hal_ble_blocking_hci_write ; 0xccc0
        0x0000d818:    bbf0        ..      CBNZ     r0,0xd898 ; am_hal_ble_patch_apply + 768
        0x0000d81a:    f8d6030c    ....    LDR      r0,[r6,#0x30c]
        0x0000d81e:    2400        .$      MOVS     r4,#0
        0x0000d820:    f0100f80    ....    TST      r0,#0x80
        0x0000d824:    bf08        ..      IT       EQ
        0x0000d826:    f8dfa0a0    ....    LDREQ    r10,[pc,#160] ; [0xd8c8] = 0xf4240
        0x0000d82a:    d10f        ..      BNE      0xd84c ; am_hal_ble_patch_apply + 692
        0x0000d82c:    e005        ..      B        0xd83a ; am_hal_ble_patch_apply + 674
        0x0000d82e:    4554        TE      CMP      r4,r10
        0x0000d830:    d103        ..      BNE      0xd83a ; am_hal_ble_patch_apply + 674
        0x0000d832:    b011        ..      ADD      sp,sp,#0x44
        0x0000d834:    4826        &H      LDR      r0,[pc,#152] ; [0xd8d0] = 0x8000004
        0x0000d836:    e8bd8ff0    ....    POP      {r4-r11,pc}
        0x0000d83a:    2010        .       MOVS     r0,#0x10
        0x0000d83c:    f000fee4    ....    BL       am_hal_flash_delay ; 0xe608
        0x0000d840:    f8d6030c    ....    LDR      r0,[r6,#0x30c]
        0x0000d844:    1c64        d.      ADDS     r4,r4,#1
        0x0000d846:    f0100f80    ....    TST      r0,#0x80
        0x0000d84a:    d0f0        ..      BEQ      0xd82e ; am_hal_ble_patch_apply + 662
        0x0000d84c:    f8cd8018    ....    STR      r8,[sp,#0x18]
        0x0000d850:    f88d701a    ...p    STRB     r7,[sp,#0x1a]
        0x0000d854:    2005        .       MOVS     r0,#5
        0x0000d856:    f8cd8024    ..$.    STR      r8,[sp,#0x24]
        0x0000d85a:    f8ad0018    ....    STRH     r0,[sp,#0x18]
        0x0000d85e:    f8cd8014    ....    STR      r8,[sp,#0x14]
        0x0000d862:    f8cd801c    ....    STR      r8,[sp,#0x1c]
        0x0000d866:    f8cd8020    .. .    STR      r8,[sp,#0x20]
        0x0000d86a:    f8cdd010    ....    STR      sp,[sp,#0x10]
        0x0000d86e:    a904        ..      ADD      r1,sp,#0x10
        0x0000d870:    4648        HF      MOV      r0,r9
        0x0000d872:    f7fffa4d    ..M.    BL       am_hal_ble_blocking_transfer ; 0xcd10
        0x0000d876:    2800        .(      CMP      r0,#0
        0x0000d878:    bf1c        ..      ITT      NE
        0x0000d87a:    b011        ..      ADDNE    sp,sp,#0x44
        0x0000d87c:    e8bd8ff0    ....    POPNE    {r4-r11,pc}
        0x0000d880:    7828        (x      LDRB     r0,[r5,#0]
        0x0000d882:    f89d1000    ....    LDRB     r1,[sp,#0]
        0x0000d886:    2904        .)      CMP      r1,#4
        0x0000d888:    bf04        ..      ITT      EQ
        0x0000d88a:    f89d1001    ....    LDRBEQ   r1,[sp,#1]
        0x0000d88e:    4281        .B      CMPEQ    r1,r0
        0x0000d890:    d10f        ..      BNE      0xd8b2 ; am_hal_ble_patch_apply + 794
        0x0000d892:    f89d0002    ....    LDRB     r0,[sp,#2]
        0x0000d896:    e000        ..      B        0xd89a ; am_hal_ble_patch_apply + 770
        0x0000d898:    e00b        ..      B        0xd8b2 ; am_hal_ble_patch_apply + 794
        0x0000d89a:    28f3        .(      CMP      r0,#0xf3
        0x0000d89c:    bf01        ..      ITTTT    EQ
        0x0000d89e:    f89d0003    ....    LDRBEQ   r0,[sp,#3]
        0x0000d8a2:    2801        .(      CMPEQ    r0,#1
        0x0000d8a4:    f89d0004    ....    LDRBEQ   r0,[sp,#4]
        0x0000d8a8:    2800        .(      CMPEQ    r0,#0
        0x0000d8aa:    bf04        ..      ITT      EQ
        0x0000d8ac:    b011        ..      ADDEQ    sp,sp,#0x44
        0x0000d8ae:    e8bd8ff0    ....    POPEQ    {r4-r11,pc}
        0x0000d8b2:    f04f0001    O...    MOV      r0,#1
        0x0000d8b6:    b011        ..      ADD      sp,sp,#0x44
        0x0000d8b8:    e8bd8ff0    ....    POP      {r4-r11,pc}
    $d
        0x0000d8bc:    00775230    0Rw.    DCD    7819824
        0x0000d8c0:    00011c28    (...    DCD    72744
        0x0000d8c4:    5000c000    ...P    DCD    1342226432
        0x0000d8c8:    000f4240    @B..    DCD    1000000
        0x0000d8cc:    10018c70    p...    DCD    268536944
        0x0000d8d0:    08000004    ....    DCD    134217732
    $t
    i.am_hal_ble_patch_complete
    am_hal_ble_patch_complete
        0x0000d8d4:    e92d4ff0    -..O    PUSH     {r4-r11,lr}
        0x0000d8d8:    b093        ..      SUB      sp,sp,#0x4c
        0x0000d8da:    0005        ..      MOVS     r5,r0
        0x0000d8dc:    bf1c        ..      ITT      NE
        0x0000d8de:    6828        (h      LDRNE    r0,[r5,#0]
        0x0000d8e0:    f0107f80    ....    TSTNE    r0,#0x1000000
        0x0000d8e4:    d004        ..      BEQ      0xd8f0 ; am_hal_ble_patch_complete + 28
        0x0000d8e6:    499d        .I      LDR      r1,[pc,#628] ; [0xdb5c] = 0x775230
        0x0000d8e8:    f020407f     ..@    BIC      r0,r0,#0xff000000
        0x0000d8ec:    4288        .B      CMP      r0,r1
        0x0000d8ee:    d003        ..      BEQ      0xd8f8 ; am_hal_ble_patch_complete + 36
        0x0000d8f0:    b013        ..      ADD      sp,sp,#0x4c
        0x0000d8f2:    2002        .       MOVS     r0,#2
        0x0000d8f4:    e8bd8ff0    ....    POP      {r4-r11,pc}
        0x0000d8f8:    f04f0b00    O...    MOV      r11,#0
        0x0000d8fc:    f8cdb014    ....    STR      r11,[sp,#0x14]
        0x0000d900:    a80a        ..      ADD      r0,sp,#0x28
        0x0000d902:    2601        .&      MOVS     r6,#1
        0x0000d904:    9000        ..      STR      r0,[sp,#0]
        0x0000d906:    f8cdb008    ....    STR      r11,[sp,#8]
        0x0000d90a:    f88d600a    ...`    STRB     r6,[sp,#0xa]
        0x0000d90e:    2006        .       MOVS     r0,#6
        0x0000d910:    f8ad0008    ....    STRH     r0,[sp,#8]
        0x0000d914:    f88d6028    ..(`    STRB     r6,[sp,#0x28]
        0x0000d918:    20ee        .       MOVS     r0,#0xee
        0x0000d91a:    f88d0029    ..).    STRB     r0,[sp,#0x29]
        0x0000d91e:    20f1        .       MOVS     r0,#0xf1
        0x0000d920:    f8cdb004    ....    STR      r11,[sp,#4]
        0x0000d924:    f88d002a    ..*.    STRB     r0,[sp,#0x2a]
        0x0000d928:    f04f0902    O...    MOV      r9,#2
        0x0000d92c:    f88db02c    ..,.    STRB     r11,[sp,#0x2c]
        0x0000d930:    f8cdb00c    ....    STR      r11,[sp,#0xc]
        0x0000d934:    f8cdb010    ....    STR      r11,[sp,#0x10]
        0x0000d938:    f88d902b    ..+.    STRB     r9,[sp,#0x2b]
        0x0000d93c:    f88db02d    ..-.    STRB     r11,[sp,#0x2d]
        0x0000d940:    2400        .$      MOVS     r4,#0
        0x0000d942:    f2413a88    A..:    MOV      r10,#0x1388
        0x0000d946:    4669        iF      MOV      r1,sp
        0x0000d948:    4628        (F      MOV      r0,r5
        0x0000d94a:    f7fff9e1    ....    BL       am_hal_ble_blocking_transfer ; 0xcd10
        0x0000d94e:    2800        .(      CMP      r0,#0
        0x0000d950:    bf1c        ..      ITT      NE
        0x0000d952:    1c64        d.      ADDNE    r4,r4,#1
        0x0000d954:    4554        TE      CMPNE    r4,r10
        0x0000d956:    d3f6        ..      BCC      0xd946 ; am_hal_ble_patch_complete + 114
        0x0000d958:    4f81        .O      LDR      r7,[pc,#516] ; [0xdb60] = 0x5000c000
        0x0000d95a:    2400        .$      MOVS     r4,#0
        0x0000d95c:    f8d7030c    ....    LDR      r0,[r7,#0x30c]
        0x0000d960:    f8df8200    ....    LDR      r8,[pc,#512] ; [0xdb64] = 0x186a0
        0x0000d964:    f0100f80    ....    TST      r0,#0x80
        0x0000d968:    d10b        ..      BNE      0xd982 ; am_hal_ble_patch_complete + 174
        0x0000d96a:    e001        ..      B        0xd970 ; am_hal_ble_patch_complete + 156
        0x0000d96c:    4544        DE      CMP      r4,r8
        0x0000d96e:    d06a        j.      BEQ      0xda46 ; am_hal_ble_patch_complete + 370
        0x0000d970:    2010        .       MOVS     r0,#0x10
        0x0000d972:    f000fe49    ..I.    BL       am_hal_flash_delay ; 0xe608
        0x0000d976:    f8d7030c    ....    LDR      r0,[r7,#0x30c]
        0x0000d97a:    1c64        d.      ADDS     r4,r4,#1
        0x0000d97c:    f0100f80    ....    TST      r0,#0x80
        0x0000d980:    d0f4        ..      BEQ      0xd96c ; am_hal_ble_patch_complete + 152
        0x0000d982:    a806        ..      ADD      r0,sp,#0x18
        0x0000d984:    f88d900a    ....    STRB     r9,[sp,#0xa]
        0x0000d988:    9000        ..      STR      r0,[sp,#0]
        0x0000d98a:    f8ad9008    ....    STRH     r9,[sp,#8]
        0x0000d98e:    4669        iF      MOV      r1,sp
        0x0000d990:    4628        (F      MOV      r0,r5
        0x0000d992:    f7fff9bd    ....    BL       am_hal_ble_blocking_transfer ; 0xcd10
        0x0000d996:    2800        .(      CMP      r0,#0
        0x0000d998:    bf1c        ..      ITT      NE
        0x0000d99a:    b013        ..      ADDNE    sp,sp,#0x4c
        0x0000d99c:    e8bd8ff0    ....    POPNE    {r4-r11,pc}
        0x0000d9a0:    f89d0019    ....    LDRB     r0,[sp,#0x19]
        0x0000d9a4:    28ee        .(      CMP      r0,#0xee
        0x0000d9a6:    d010        ..      BEQ      0xd9ca ; am_hal_ble_patch_complete + 246
        0x0000d9a8:    f89d1018    ....    LDRB     r1,[sp,#0x18]
        0x0000d9ac:    eb012000    ...     ADD      r0,r1,r0,LSL #8
        0x0000d9b0:    f8ad0008    ....    STRH     r0,[sp,#8]
        0x0000d9b4:    4669        iF      MOV      r1,sp
        0x0000d9b6:    4628        (F      MOV      r0,r5
        0x0000d9b8:    f7fff9aa    ....    BL       am_hal_ble_blocking_transfer ; 0xcd10
        0x0000d9bc:    2800        .(      CMP      r0,#0
        0x0000d9be:    bf08        ..      IT       EQ
        0x0000d9c0:    f8856040    ..@`    STRBEQ   r6,[r5,#0x40]
        0x0000d9c4:    b013        ..      ADD      sp,sp,#0x4c
        0x0000d9c6:    e8bd8ff0    ....    POP      {r4-r11,pc}
        0x0000d9ca:    2003        .       MOVS     r0,#3
        0x0000d9cc:    f8ad0008    ....    STRH     r0,[sp,#8]
        0x0000d9d0:    4669        iF      MOV      r1,sp
        0x0000d9d2:    4628        (F      MOV      r0,r5
        0x0000d9d4:    f7fff99c    ....    BL       am_hal_ble_blocking_transfer ; 0xcd10
        0x0000d9d8:    2800        .(      CMP      r0,#0
        0x0000d9da:    bf1c        ..      ITT      NE
        0x0000d9dc:    b013        ..      ADDNE    sp,sp,#0x4c
        0x0000d9de:    e8bd8ff0    ....    POPNE    {r4-r11,pc}
        0x0000d9e2:    f8cdb004    ....    STR      r11,[sp,#4]
        0x0000d9e6:    f8cdb014    ....    STR      r11,[sp,#0x14]
        0x0000d9ea:    a80a        ..      ADD      r0,sp,#0x28
        0x0000d9ec:    9000        ..      STR      r0,[sp,#0]
        0x0000d9ee:    f8cdb008    ....    STR      r11,[sp,#8]
        0x0000d9f2:    f88d600a    ...`    STRB     r6,[sp,#0xa]
        0x0000d9f6:    2005        .       MOVS     r0,#5
        0x0000d9f8:    f8ad0008    ....    STRH     r0,[sp,#8]
        0x0000d9fc:    f88d6028    ..(`    STRB     r6,[sp,#0x28]
        0x0000da00:    2004        .       MOVS     r0,#4
        0x0000da02:    f88d0029    ..).    STRB     r0,[sp,#0x29]
        0x0000da06:    20fd        .       MOVS     r0,#0xfd
        0x0000da08:    f88d002a    ..*.    STRB     r0,[sp,#0x2a]
        0x0000da0c:    f8cdb00c    ....    STR      r11,[sp,#0xc]
        0x0000da10:    f8cdb010    ....    STR      r11,[sp,#0x10]
        0x0000da14:    f88d602b    ..+`    STRB     r6,[sp,#0x2b]
        0x0000da18:    f88d602c    ..,`    STRB     r6,[sp,#0x2c]
        0x0000da1c:    2400        .$      MOVS     r4,#0
        0x0000da1e:    4669        iF      MOV      r1,sp
        0x0000da20:    4628        (F      MOV      r0,r5
        0x0000da22:    f7fff975    ..u.    BL       am_hal_ble_blocking_transfer ; 0xcd10
        0x0000da26:    b128        (.      CBZ      r0,0xda34 ; am_hal_ble_patch_complete + 352
        0x0000da28:    1c64        d.      ADDS     r4,r4,#1
        0x0000da2a:    4554        TE      CMP      r4,r10
        0x0000da2c:    d3f7        ..      BCC      0xda1e ; am_hal_ble_patch_complete + 330
        0x0000da2e:    b013        ..      ADD      sp,sp,#0x4c
        0x0000da30:    e8bd8ff0    ....    POP      {r4-r11,pc}
        0x0000da34:    f8d7030c    ....    LDR      r0,[r7,#0x30c]
        0x0000da38:    2400        .$      MOVS     r4,#0
        0x0000da3a:    f0100f80    ....    TST      r0,#0x80
        0x0000da3e:    d10f        ..      BNE      0xda60 ; am_hal_ble_patch_complete + 396
        0x0000da40:    e005        ..      B        0xda4e ; am_hal_ble_patch_complete + 378
        0x0000da42:    4544        DE      CMP      r4,r8
        0x0000da44:    d103        ..      BNE      0xda4e ; am_hal_ble_patch_complete + 378
        0x0000da46:    b013        ..      ADD      sp,sp,#0x4c
        0x0000da48:    4847        GH      LDR      r0,[pc,#284] ; [0xdb68] = 0x8000004
        0x0000da4a:    e8bd8ff0    ....    POP      {r4-r11,pc}
        0x0000da4e:    2010        .       MOVS     r0,#0x10
        0x0000da50:    f000fdda    ....    BL       am_hal_flash_delay ; 0xe608
        0x0000da54:    f8d7030c    ....    LDR      r0,[r7,#0x30c]
        0x0000da58:    1c64        d.      ADDS     r4,r4,#1
        0x0000da5a:    f0100f80    ....    TST      r0,#0x80
        0x0000da5e:    d0f0        ..      BEQ      0xda42 ; am_hal_ble_patch_complete + 366
        0x0000da60:    a806        ..      ADD      r0,sp,#0x18
        0x0000da62:    9000        ..      STR      r0,[sp,#0]
        0x0000da64:    f88d900a    ....    STRB     r9,[sp,#0xa]
        0x0000da68:    2009        .       MOVS     r0,#9
        0x0000da6a:    f8ad0008    ....    STRH     r0,[sp,#8]
        0x0000da6e:    4669        iF      MOV      r1,sp
        0x0000da70:    4628        (F      MOV      r0,r5
        0x0000da72:    f7fff94d    ..M.    BL       am_hal_ble_blocking_transfer ; 0xcd10
        0x0000da76:    2800        .(      CMP      r0,#0
        0x0000da78:    bf1c        ..      ITT      NE
        0x0000da7a:    b013        ..      ADDNE    sp,sp,#0x4c
        0x0000da7c:    e8bd8ff0    ....    POPNE    {r4-r11,pc}
        0x0000da80:    2100        .!      MOVS     r1,#0
        0x0000da82:    4628        (F      MOV      r0,r5
        0x0000da84:    f000faa4    ....    BL       am_hal_ble_wakeup_set ; 0xdfd0
        0x0000da88:    f8856040    ..@`    STRB     r6,[r5,#0x40]
        0x0000da8c:    4837        7H      LDR      r0,[pc,#220] ; [0xdb6c] = 0x7a1200
        0x0000da8e:    f000fdbb    ....    BL       am_hal_flash_delay ; 0xe608
        0x0000da92:    4837        7H      LDR      r0,[pc,#220] ; [0xdb70] = 0x50023808
        0x0000da94:    6800        .h      LDR      r0,[r0,#0]
        0x0000da96:    4a37        7J      LDR      r2,[pc,#220] ; [0xdb74] = 0x18240600
        0x0000da98:    f02001ff     ...    BIC      r1,r0,#0xff
        0x0000da9c:    4291        .B      CMP      r1,r2
        0x0000da9e:    d158        X.      BNE      0xdb52 ; am_hal_ble_patch_complete + 638
        0x0000daa0:    b2c1        ..      UXTB     r1,r0
        0x0000daa2:    f1a10020    .. .    SUB      r0,r1,#0x20
        0x0000daa6:    2831        1(      CMP      r0,#0x31
        0x0000daa8:    d253        S.      BCS      0xdb52 ; am_hal_ble_patch_complete + 638
        0x0000daaa:    2900        .)      CMP      r1,#0
        0x0000daac:    d051        Q.      BEQ      0xdb52 ; am_hal_ble_patch_complete + 638
        0x0000daae:    4f32        2O      LDR      r7,[pc,#200] ; [0xdb78] = 0x43000004
        0x0000dab0:    f001047f    ....    AND      r4,r1,#0x7f
        0x0000dab4:    aa10        ..      ADD      r2,sp,#0x40
        0x0000dab6:    4639        9F      MOV      r1,r7
        0x0000dab8:    4628        (F      MOV      r0,r5
        0x0000daba:    f8cdb038    ..8.    STR      r11,[sp,#0x38]
        0x0000dabe:    f000f867    ..g.    BL       am_hal_ble_plf_reg_read ; 0xdb90
        0x0000dac2:    f04f32ff    O..2    MOV      r2,#0xffffffff
        0x0000dac6:    4639        9F      MOV      r1,r7
        0x0000dac8:    4628        (F      MOV      r0,r5
        0x0000daca:    f000f8d3    ....    BL       am_hal_ble_plf_reg_write ; 0xdc74
        0x0000dace:    f8df80ac    ....    LDR      r8,[pc,#172] ; [0xdb7c] = 0x52000008
        0x0000dad2:    aa0e        ..      ADD      r2,sp,#0x38
        0x0000dad4:    4641        AF      MOV      r1,r8
        0x0000dad6:    4628        (F      MOV      r0,r5
        0x0000dad8:    f000f85a    ..Z.    BL       am_hal_ble_plf_reg_read ; 0xdb90
        0x0000dadc:    980e        ..      LDR      r0,[sp,#0x38]
        0x0000dade:    aa09        ..      ADD      r2,sp,#0x24
        0x0000dae0:    f0400008    @...    ORR      r0,r0,#8
        0x0000dae4:    900e        ..      STR      r0,[sp,#0x38]
        0x0000dae6:    f04f41a4    O..A    MOV      r1,#0x52000000
        0x0000daea:    4628        (F      MOV      r0,r5
        0x0000daec:    f000f850    ..P.    BL       am_hal_ble_plf_reg_read ; 0xdb90
        0x0000daf0:    9809        ..      LDR      r0,[sp,#0x24]
        0x0000daf2:    f04f41a4    O..A    MOV      r1,#0x52000000
        0x0000daf6:    f4406280    @..b    ORR      r2,r0,#0x400
        0x0000dafa:    4628        (F      MOV      r0,r5
        0x0000dafc:    9209        ..      STR      r2,[sp,#0x24]
        0x0000dafe:    f000f8b9    ....    BL       am_hal_ble_plf_reg_write ; 0xdc74
        0x0000db02:    f8df907c    ..|.    LDR      r9,[pc,#124] ; [0xdb80] = 0x45800070
        0x0000db06:    aa11        ..      ADD      r2,sp,#0x44
        0x0000db08:    4649        IF      MOV      r1,r9
        0x0000db0a:    4628        (F      MOV      r0,r5
        0x0000db0c:    f000f840    ..@.    BL       am_hal_ble_plf_reg_read ; 0xdb90
        0x0000db10:    9811        ..      LDR      r0,[sp,#0x44]
        0x0000db12:    4649        IF      MOV      r1,r9
        0x0000db14:    f0400208    @...    ORR      r2,r0,#8
        0x0000db18:    4628        (F      MOV      r0,r5
        0x0000db1a:    f000f8ab    ....    BL       am_hal_ble_plf_reg_write ; 0xdc74
        0x0000db1e:    ea460244    F.D.    ORR      r2,r6,r4,LSL #1
        0x0000db22:    4918        .I      LDR      r1,[pc,#96] ; [0xdb84] = 0x52000014
        0x0000db24:    4628        (F      MOV      r0,r5
        0x0000db26:    f000f8a5    ....    BL       am_hal_ble_plf_reg_write ; 0xdc74
        0x0000db2a:    4641        AF      MOV      r1,r8
        0x0000db2c:    4628        (F      MOV      r0,r5
        0x0000db2e:    9a0e        ..      LDR      r2,[sp,#0x38]
        0x0000db30:    f000f8a0    ....    BL       am_hal_ble_plf_reg_write ; 0xdc74
        0x0000db34:    4814        .H      LDR      r0,[pc,#80] ; [0xdb88] = 0x40020000
        0x0000db36:    68c0        .h      LDR      r0,[r0,#0xc]
        0x0000db38:    b2c0        ..      UXTB     r0,r0
        0x0000db3a:    2821        !(      CMP      r0,#0x21
        0x0000db3c:    d309        ..      BCC      0xdb52 ; am_hal_ble_patch_complete + 638
        0x0000db3e:    4622        "F      MOV      r2,r4
        0x0000db40:    4912        .I      LDR      r1,[pc,#72] ; [0xdb8c] = 0x20006874
        0x0000db42:    4628        (F      MOV      r0,r5
        0x0000db44:    f000f896    ....    BL       am_hal_ble_plf_reg_write ; 0xdc74
        0x0000db48:    4639        9F      MOV      r1,r7
        0x0000db4a:    4628        (F      MOV      r0,r5
        0x0000db4c:    9a10        ..      LDR      r2,[sp,#0x40]
        0x0000db4e:    f000f891    ....    BL       am_hal_ble_plf_reg_write ; 0xdc74
        0x0000db52:    b013        ..      ADD      sp,sp,#0x4c
        0x0000db54:    2000        .       MOVS     r0,#0
        0x0000db56:    e8bd8ff0    ....    POP      {r4-r11,pc}
    $d
        0x0000db5a:    0000        ..      DCW    0
        0x0000db5c:    00775230    0Rw.    DCD    7819824
        0x0000db60:    5000c000    ...P    DCD    1342226432
        0x0000db64:    000186a0    ....    DCD    100000
        0x0000db68:    08000004    ....    DCD    134217732
        0x0000db6c:    007a1200    ..z.    DCD    8000000
        0x0000db70:    50023808    .8.P    DCD    1342322696
        0x0000db74:    18240600    ..$.    DCD    405014016
        0x0000db78:    43000004    ...C    DCD    1124073476
        0x0000db7c:    52000008    ...R    DCD    1375731720
        0x0000db80:    45800070    p..E    DCD    1166016624
        0x0000db84:    52000014    ...R    DCD    1375731732
        0x0000db88:    40020000    ...@    DCD    1073872896
        0x0000db8c:    20006874    th.     DCD    536897652
    $t
    i.am_hal_ble_plf_reg_read
    am_hal_ble_plf_reg_read
        0x0000db90:    e92d43f0    -..C    PUSH     {r4-r9,lr}
        0x0000db94:    b08b        ..      SUB      sp,sp,#0x2c
        0x0000db96:    4605        .F      MOV      r5,r0
        0x0000db98:    f88d1028    ..(.    STRB     r1,[sp,#0x28]
        0x0000db9c:    0a08        ..      LSRS     r0,r1,#8
        0x0000db9e:    f88d0029    ..).    STRB     r0,[sp,#0x29]
        0x0000dba2:    0c08        ..      LSRS     r0,r1,#16
        0x0000dba4:    f88d002a    ..*.    STRB     r0,[sp,#0x2a]
        0x0000dba8:    0e08        ..      LSRS     r0,r1,#24
        0x0000dbaa:    f88d002b    ..+.    STRB     r0,[sp,#0x2b]
        0x0000dbae:    2301        .#      MOVS     r3,#1
        0x0000dbb0:    f88d3000    ...0    STRB     r3,[sp,#0]
        0x0000dbb4:    2302        .#      MOVS     r3,#2
        0x0000dbb6:    f88d3001    ...0    STRB     r3,[sp,#1]
        0x0000dbba:    23fd        .#      MOVS     r3,#0xfd
        0x0000dbbc:    2000        .       MOVS     r0,#0
        0x0000dbbe:    f88d3002    ...0    STRB     r3,[sp,#2]
        0x0000dbc2:    2304        .#      MOVS     r3,#4
        0x0000dbc4:    f88d3003    ...0    STRB     r3,[sp,#3]
        0x0000dbc8:    4616        .F      MOV      r6,r2
        0x0000dbca:    9002        ..      STR      r0,[sp,#8]
        0x0000dbcc:    9003        ..      STR      r0,[sp,#0xc]
        0x0000dbce:    9004        ..      STR      r0,[sp,#0x10]
        0x0000dbd0:    f10d0c27    ..'.    ADD      r12,sp,#0x27
        0x0000dbd4:    f10d0303    ....    ADD      r3,sp,#3
        0x0000dbd8:    f05f0102    _...    MOVS.W   r1,#2
        0x0000dbdc:    f89c2001    ...     LDRB     r2,[r12,#1]
        0x0000dbe0:    705a        Zp      STRB     r2,[r3,#1]
        0x0000dbe2:    f81c2f02    .../    LDRB     r2,[r12,#2]!
        0x0000dbe6:    f8032f02    .../    STRB     r2,[r3,#2]!
        0x0000dbea:    1e49        I.      SUBS     r1,r1,#1
        0x0000dbec:    d1f6        ..      BNE      0xdbdc ; am_hal_ble_plf_reg_read + 76
        0x0000dbee:    4f1d        .O      LDR      r7,[pc,#116] ; [0xdc64] = 0x5000c000
        0x0000dbf0:    f8d78220    .. .    LDR      r8,[r7,#0x220]
        0x0000dbf4:    f8c70220    .. .    STR      r0,[r7,#0x220]
        0x0000dbf8:    2308        .#      MOVS     r3,#8
        0x0000dbfa:    466a        jF      MOV      r2,sp
        0x0000dbfc:    4628        (F      MOV      r0,r5
        0x0000dbfe:    f7fff85f    .._.    BL       am_hal_ble_blocking_hci_write ; 0xccc0
        0x0000dc02:    4819        .H      LDR      r0,[pc,#100] ; [0xdc68] = 0x5000c410
        0x0000dc04:    6801        .h      LDR      r1,[r0,#0]
        0x0000dc06:    f0410102    A...    ORR      r1,r1,#2
        0x0000dc0a:    6001        .`      STR      r1,[r0,#0]
        0x0000dc0c:    f8d7030c    ....    LDR      r0,[r7,#0x30c]
        0x0000dc10:    2400        .$      MOVS     r4,#0
        0x0000dc12:    f0100f80    ....    TST      r0,#0x80
        0x0000dc16:    bf08        ..      IT       EQ
        0x0000dc18:    f8df9050    ..P.    LDREQ    r9,[pc,#80] ; [0xdc6c] = 0x7a120
        0x0000dc1c:    d10f        ..      BNE      0xdc3e ; am_hal_ble_plf_reg_read + 174
        0x0000dc1e:    e005        ..      B        0xdc2c ; am_hal_ble_plf_reg_read + 156
        0x0000dc20:    454c        LE      CMP      r4,r9
        0x0000dc22:    d103        ..      BNE      0xdc2c ; am_hal_ble_plf_reg_read + 156
        0x0000dc24:    b00b        ..      ADD      sp,sp,#0x2c
        0x0000dc26:    4812        .H      LDR      r0,[pc,#72] ; [0xdc70] = 0x8000004
        0x0000dc28:    e8bd83f0    ....    POP      {r4-r9,pc}
        0x0000dc2c:    2010        .       MOVS     r0,#0x10
        0x0000dc2e:    f000fceb    ....    BL       am_hal_flash_delay ; 0xe608
        0x0000dc32:    f8d7030c    ....    LDR      r0,[r7,#0x30c]
        0x0000dc36:    1c64        d.      ADDS     r4,r4,#1
        0x0000dc38:    f0100f80    ....    TST      r0,#0x80
        0x0000dc3c:    d0f0        ..      BEQ      0xdc20 ; am_hal_ble_plf_reg_read + 144
        0x0000dc3e:    2200        ."      MOVS     r2,#0
        0x0000dc40:    a902        ..      ADD      r1,sp,#8
        0x0000dc42:    4628        (F      MOV      r0,r5
        0x0000dc44:    f7feffee    ....    BL       am_hal_ble_blocking_hci_read ; 0xcc24
        0x0000dc48:    9803        ..      LDR      r0,[sp,#0xc]
        0x0000dc4a:    9904        ..      LDR      r1,[sp,#0x10]
        0x0000dc4c:    0e00        ..      LSRS     r0,r0,#24
        0x0000dc4e:    ea402001    @..     ORR      r0,r0,r1,LSL #8
        0x0000dc52:    6030        0`      STR      r0,[r6,#0]
        0x0000dc54:    f8c78228    ..(.    STR      r8,[r7,#0x228]
        0x0000dc58:    f8c78220    .. .    STR      r8,[r7,#0x220]
        0x0000dc5c:    b00b        ..      ADD      sp,sp,#0x2c
        0x0000dc5e:    2000        .       MOVS     r0,#0
        0x0000dc60:    e8bd83f0    ....    POP      {r4-r9,pc}
    $d
        0x0000dc64:    5000c000    ...P    DCD    1342226432
        0x0000dc68:    5000c410    ...P    DCD    1342227472
        0x0000dc6c:    0007a120     ...    DCD    500000
        0x0000dc70:    08000004    ....    DCD    134217732
    $t
    i.am_hal_ble_plf_reg_write
    am_hal_ble_plf_reg_write
        0x0000dc74:    e92d41f0    -..A    PUSH     {r4-r8,lr}
        0x0000dc78:    b08a        ..      SUB      sp,sp,#0x28
        0x0000dc7a:    4605        .F      MOV      r5,r0
        0x0000dc7c:    f88d1000    ....    STRB     r1,[sp,#0]
        0x0000dc80:    0a08        ..      LSRS     r0,r1,#8
        0x0000dc82:    f88d0001    ....    STRB     r0,[sp,#1]
        0x0000dc86:    0c08        ..      LSRS     r0,r1,#16
        0x0000dc88:    f88d0002    ....    STRB     r0,[sp,#2]
        0x0000dc8c:    0e08        ..      LSRS     r0,r1,#24
        0x0000dc8e:    f88d0003    ....    STRB     r0,[sp,#3]
        0x0000dc92:    f88d2004    ...     STRB     r2,[sp,#4]
        0x0000dc96:    0a10        ..      LSRS     r0,r2,#8
        0x0000dc98:    f88d0005    ....    STRB     r0,[sp,#5]
        0x0000dc9c:    0c10        ..      LSRS     r0,r2,#16
        0x0000dc9e:    f88d0006    ....    STRB     r0,[sp,#6]
        0x0000dca2:    0e10        ..      LSRS     r0,r2,#24
        0x0000dca4:    2201        ."      MOVS     r2,#1
        0x0000dca6:    f88d2008    ...     STRB     r2,[sp,#8]
        0x0000dcaa:    2203        ."      MOVS     r2,#3
        0x0000dcac:    f88d2009    ...     STRB     r2,[sp,#9]
        0x0000dcb0:    22fd        ."      MOVS     r2,#0xfd
        0x0000dcb2:    f88d200a    ...     STRB     r2,[sp,#0xa]
        0x0000dcb6:    2208        ."      MOVS     r2,#8
        0x0000dcb8:    f88d0007    ....    STRB     r0,[sp,#7]
        0x0000dcbc:    f88d200b    ...     STRB     r2,[sp,#0xb]
        0x0000dcc0:    2000        .       MOVS     r0,#0
        0x0000dcc2:    f10d33ff    ...3    ADD      r3,sp,#0xffffffff
        0x0000dcc6:    f10d020b    ....    ADD      r2,sp,#0xb
        0x0000dcca:    2104        .!      MOVS     r1,#4
        0x0000dccc:    f893c001    ....    LDRB     r12,[r3,#1]
        0x0000dcd0:    f882c001    ....    STRB     r12,[r2,#1]
        0x0000dcd4:    f813cf02    ....    LDRB     r12,[r3,#2]!
        0x0000dcd8:    f802cf02    ....    STRB     r12,[r2,#2]!
        0x0000dcdc:    1e49        I.      SUBS     r1,r1,#1
        0x0000dcde:    d1f5        ..      BNE      0xdccc ; am_hal_ble_plf_reg_write + 88
        0x0000dce0:    4f1a        .O      LDR      r7,[pc,#104] ; [0xdd4c] = 0x5000c000
        0x0000dce2:    f8d76220    .. b    LDR      r6,[r7,#0x220]
        0x0000dce6:    f8c70220    .. .    STR      r0,[r7,#0x220]
        0x0000dcea:    230c        .#      MOVS     r3,#0xc
        0x0000dcec:    aa02        ..      ADD      r2,sp,#8
        0x0000dcee:    4628        (F      MOV      r0,r5
        0x0000dcf0:    f7feffe6    ....    BL       am_hal_ble_blocking_hci_write ; 0xccc0
        0x0000dcf4:    4816        .H      LDR      r0,[pc,#88] ; [0xdd50] = 0x5000c410
        0x0000dcf6:    6801        .h      LDR      r1,[r0,#0]
        0x0000dcf8:    f0410102    A...    ORR      r1,r1,#2
        0x0000dcfc:    6001        .`      STR      r1,[r0,#0]
        0x0000dcfe:    f8d7030c    ....    LDR      r0,[r7,#0x30c]
        0x0000dd02:    2400        .$      MOVS     r4,#0
        0x0000dd04:    f0100f80    ....    TST      r0,#0x80
        0x0000dd08:    bf08        ..      IT       EQ
        0x0000dd0a:    f24c3850    L.P8    MOVEQ    r8,#0xc350
        0x0000dd0e:    d10f        ..      BNE      0xdd30 ; am_hal_ble_plf_reg_write + 188
        0x0000dd10:    e005        ..      B        0xdd1e ; am_hal_ble_plf_reg_write + 170
        0x0000dd12:    4544        DE      CMP      r4,r8
        0x0000dd14:    d103        ..      BNE      0xdd1e ; am_hal_ble_plf_reg_write + 170
        0x0000dd16:    b00a        ..      ADD      sp,sp,#0x28
        0x0000dd18:    480e        .H      LDR      r0,[pc,#56] ; [0xdd54] = 0x8000004
        0x0000dd1a:    e8bd81f0    ....    POP      {r4-r8,pc}
        0x0000dd1e:    2010        .       MOVS     r0,#0x10
        0x0000dd20:    f000fc72    ..r.    BL       am_hal_flash_delay ; 0xe608
        0x0000dd24:    f8d7030c    ....    LDR      r0,[r7,#0x30c]
        0x0000dd28:    1c64        d.      ADDS     r4,r4,#1
        0x0000dd2a:    f0100f80    ....    TST      r0,#0x80
        0x0000dd2e:    d0f0        ..      BEQ      0xdd12 ; am_hal_ble_plf_reg_write + 158
        0x0000dd30:    2200        ."      MOVS     r2,#0
        0x0000dd32:    a906        ..      ADD      r1,sp,#0x18
        0x0000dd34:    4628        (F      MOV      r0,r5
        0x0000dd36:    f7feff75    ..u.    BL       am_hal_ble_blocking_hci_read ; 0xcc24
        0x0000dd3a:    f8c76228    ..(b    STR      r6,[r7,#0x228]
        0x0000dd3e:    f8c76220    .. b    STR      r6,[r7,#0x220]
        0x0000dd42:    b00a        ..      ADD      sp,sp,#0x28
        0x0000dd44:    2000        .       MOVS     r0,#0
        0x0000dd46:    e8bd81f0    ....    POP      {r4-r8,pc}
    $d
        0x0000dd4a:    0000        ..      DCW    0
        0x0000dd4c:    5000c000    ...P    DCD    1342226432
        0x0000dd50:    5000c410    ...P    DCD    1342227472
        0x0000dd54:    08000004    ....    DCD    134217732
    $t
    i.am_hal_ble_power_control
    am_hal_ble_power_control
        0x0000dd58:    e92d47f0    -..G    PUSH     {r4-r10,lr}
        0x0000dd5c:    460c        .F      MOV      r4,r1
        0x0000dd5e:    4605        .F      MOV      r5,r0
        0x0000dd60:    f000ff30    ..0.    BL       am_hal_pwrctrl_blebuck_trim ; 0xebc4
        0x0000dd64:    2d00        .-      CMP      r5,#0
        0x0000dd66:    bf1c        ..      ITT      NE
        0x0000dd68:    6828        (h      LDRNE    r0,[r5,#0]
        0x0000dd6a:    f0107f80    ....    TSTNE    r0,#0x1000000
        0x0000dd6e:    d004        ..      BEQ      0xdd7a ; am_hal_ble_power_control + 34
        0x0000dd70:    494e        NI      LDR      r1,[pc,#312] ; [0xdeac] = 0x775230
        0x0000dd72:    f020407f     ..@    BIC      r0,r0,#0xff000000
        0x0000dd76:    4288        .B      CMP      r0,r1
        0x0000dd78:    d002        ..      BEQ      0xdd80 ; am_hal_ble_power_control + 40
        0x0000dd7a:    2002        .       MOVS     r0,#2
        0x0000dd7c:    e8bd87f0    ....    POP      {r4-r10,pc}
        0x0000dd80:    f8df812c    ..,.    LDR      r8,[pc,#300] ; [0xdeb0] = 0x5000c410
        0x0000dd84:    4f4b        KO      LDR      r7,[pc,#300] ; [0xdeb4] = 0x40020000
        0x0000dd86:    4e4c        LN      LDR      r6,[pc,#304] ; [0xdeb8] = 0x5000c000
        0x0000dd88:    b374        t.      CBZ      r4,0xdde8 ; am_hal_ble_power_control + 144
        0x0000dd8a:    2c01        .,      CMP      r4,#1
        0x0000dd8c:    bf1c        ..      ITT      NE
        0x0000dd8e:    2007        .       MOVNE    r0,#7
        0x0000dd90:    e8bd87f0    ....    POPNE    {r4-r10,pc}
        0x0000dd94:    2000        .       MOVS     r0,#0
        0x0000dd96:    f8c60200    ....    STR      r0,[r6,#0x200]
        0x0000dd9a:    f8d80000    ....    LDR      r0,[r8,#0]
        0x0000dd9e:    f0000007    ....    AND      r0,r0,#7
        0x0000dda2:    f8c80000    ....    STR      r0,[r8,#0]
        0x0000dda6:    68f8        .h      LDR      r0,[r7,#0xc]
        0x0000dda8:    b2c0        ..      UXTB     r0,r0
        0x0000ddaa:    2812        .(      CMP      r0,#0x12
        0x0000ddac:    f8d70198    ....    LDR      r0,[r7,#0x198]
        0x0000ddb0:    bf2c        ,.      ITE      CS
        0x0000ddb2:    f0200020     . .    BICCS    r0,r0,#0x20
        0x0000ddb6:    f0200004     ...    BICCC    r0,r0,#4
        0x0000ddba:    f8c70198    ....    STR      r0,[r7,#0x198]
        0x0000ddbe:    f8d60304    ....    LDR      r0,[r6,#0x304]
        0x0000ddc2:    f0200001     ...    BIC      r0,r0,#1
        0x0000ddc6:    f8c60304    ....    STR      r0,[r6,#0x304]
        0x0000ddca:    2010        .       MOVS     r0,#0x10
        0x0000ddcc:    f000ffd8    ....    BL       am_hal_pwrctrl_periph_disable ; 0xed80
        0x0000ddd0:    2800        .(      CMP      r0,#0
        0x0000ddd2:    bf1c        ..      ITT      NE
        0x0000ddd4:    4839        9H      LDRNE    r0,[pc,#228] ; [0xdebc] = 0x8000006
        0x0000ddd6:    e8bd87f0    ....    POPNE    {r4-r10,pc}
        0x0000ddda:    f44f60c8    O..`    MOV      r0,#0x640
        0x0000ddde:    f000fc13    ....    BL       am_hal_flash_delay ; 0xe608
        0x0000dde2:    2000        .       MOVS     r0,#0
        0x0000dde4:    e8bd87f0    ....    POP      {r4-r10,pc}
        0x0000dde8:    4835        5H      LDR      r0,[pc,#212] ; [0xdec0] = 0x40021000
        0x0000ddea:    6980        .i      LDR      r0,[r0,#0x18]
        0x0000ddec:    f4107f80    ....    TST      r0,#0x100
        0x0000ddf0:    d1f7        ..      BNE      0xdde2 ; am_hal_ble_power_control + 138
        0x0000ddf2:    69b8        .i      LDR      r0,[r7,#0x18]
        0x0000ddf4:    f0400001    @...    ORR      r0,r0,#1
        0x0000ddf8:    61b8        .a      STR      r0,[r7,#0x18]
        0x0000ddfa:    69b8        .i      LDR      r0,[r7,#0x18]
        0x0000ddfc:    2400        .$      MOVS     r4,#0
        0x0000ddfe:    f04f0907    O...    MOV      r9,#7
        0x0000de02:    ea390000    9...    BICS     r0,r9,r0
        0x0000de06:    bf18        ..      IT       NE
        0x0000de08:    4d2e        .M      LDRNE    r5,[pc,#184] ; [0xdec4] = 0x186a0
        0x0000de0a:    d105        ..      BNE      0xde18 ; am_hal_ble_power_control + 192
        0x0000de0c:    e00c        ..      B        0xde28 ; am_hal_ble_power_control + 208
        0x0000de0e:    42ac        .B      CMP      r4,r5
        0x0000de10:    d102        ..      BNE      0xde18 ; am_hal_ble_power_control + 192
        0x0000de12:    482d        -H      LDR      r0,[pc,#180] ; [0xdec8] = 0x8000005
        0x0000de14:    e8bd87f0    ....    POP      {r4-r10,pc}
        0x0000de18:    2010        .       MOVS     r0,#0x10
        0x0000de1a:    f000fbf5    ....    BL       am_hal_flash_delay ; 0xe608
        0x0000de1e:    69b8        .i      LDR      r0,[r7,#0x18]
        0x0000de20:    1c64        d.      ADDS     r4,r4,#1
        0x0000de22:    ea390000    9...    BICS     r0,r9,r0
        0x0000de26:    d1f2        ..      BNE      0xde0e ; am_hal_ble_power_control + 182
        0x0000de28:    2010        .       MOVS     r0,#0x10
        0x0000de2a:    f000ffd1    ....    BL       am_hal_pwrctrl_periph_enable ; 0xedd0
        0x0000de2e:    2800        .(      CMP      r0,#0
        0x0000de30:    bf1c        ..      ITT      NE
        0x0000de32:    4826        &H      LDRNE    r0,[pc,#152] ; [0xdecc] = 0x8000007
        0x0000de34:    e8bd87f0    ....    POPNE    {r4-r10,pc}
        0x0000de38:    f44f6000    O..`    MOV      r0,#0x800
        0x0000de3c:    f8c60200    ....    STR      r0,[r6,#0x200]
        0x0000de40:    f8d80000    ....    LDR      r0,[r8,#0]
        0x0000de44:    f0000007    ....    AND      r0,r0,#7
        0x0000de48:    f5003000    ...0    ADD      r0,r0,#0x20000
        0x0000de4c:    f8c80000    ....    STR      r0,[r8,#0]
        0x0000de50:    68f8        .h      LDR      r0,[r7,#0xc]
        0x0000de52:    b2c0        ..      UXTB     r0,r0
        0x0000de54:    2812        .(      CMP      r0,#0x12
        0x0000de56:    bf26        &.      ITTE     CS
        0x0000de58:    f8d70198    ....    LDRCS    r0,[r7,#0x198]
        0x0000de5c:    f0400020    @. .    ORRCS    r0,r0,#0x20
        0x0000de60:    2004        .       MOVCC    r0,#4
        0x0000de62:    f8c70198    ....    STR      r0,[r7,#0x198]
        0x0000de66:    481a        .H      LDR      r0,[pc,#104] ; [0xded0] = 0x13880
        0x0000de68:    f000fbce    ....    BL       am_hal_flash_delay ; 0xe608
        0x0000de6c:    f8d60304    ....    LDR      r0,[r6,#0x304]
        0x0000de70:    f0400001    @...    ORR      r0,r0,#1
        0x0000de74:    f8c60304    ....    STR      r0,[r6,#0x304]
        0x0000de78:    f8d6030c    ....    LDR      r0,[r6,#0x30c]
        0x0000de7c:    2400        .$      MOVS     r4,#0
        0x0000de7e:    f3c02002    ...     UBFX     r0,r0,#8,#3
        0x0000de82:    2803        .(      CMP      r0,#3
        0x0000de84:    bf18        ..      IT       NE
        0x0000de86:    4d13        .M      LDRNE    r5,[pc,#76] ; [0xded4] = 0xf4240
        0x0000de88:    d0ab        ..      BEQ      0xdde2 ; am_hal_ble_power_control + 138
        0x0000de8a:    e004        ..      B        0xde96 ; am_hal_ble_power_control + 318
        0x0000de8c:    42ac        .B      CMP      r4,r5
        0x0000de8e:    d102        ..      BNE      0xde96 ; am_hal_ble_power_control + 318
        0x0000de90:    4811        .H      LDR      r0,[pc,#68] ; [0xded8] = 0x8000008
        0x0000de92:    e8bd87f0    ....    POP      {r4-r10,pc}
        0x0000de96:    2010        .       MOVS     r0,#0x10
        0x0000de98:    f000fbb6    ....    BL       am_hal_flash_delay ; 0xe608
        0x0000de9c:    f8d6030c    ....    LDR      r0,[r6,#0x30c]
        0x0000dea0:    1c64        d.      ADDS     r4,r4,#1
        0x0000dea2:    f3c02002    ...     UBFX     r0,r0,#8,#3
        0x0000dea6:    2803        .(      CMP      r0,#3
        0x0000dea8:    d09b        ..      BEQ      0xdde2 ; am_hal_ble_power_control + 138
        0x0000deaa:    e7ef        ..      B        0xde8c ; am_hal_ble_power_control + 308
    $d
        0x0000deac:    00775230    0Rw.    DCD    7819824
        0x0000deb0:    5000c410    ...P    DCD    1342227472
        0x0000deb4:    40020000    ...@    DCD    1073872896
        0x0000deb8:    5000c000    ...P    DCD    1342226432
        0x0000debc:    08000006    ....    DCD    134217734
        0x0000dec0:    40021000    ...@    DCD    1073876992
        0x0000dec4:    000186a0    ....    DCD    100000
        0x0000dec8:    08000005    ....    DCD    134217733
        0x0000decc:    08000007    ....    DCD    134217735
        0x0000ded0:    00013880    .8..    DCD    80000
        0x0000ded4:    000f4240    @B..    DCD    1000000
        0x0000ded8:    08000008    ....    DCD    134217736
    $t
    i.am_hal_ble_sleep_set
    am_hal_ble_sleep_set
        0x0000dedc:    b5f8        ..      PUSH     {r3-r7,lr}
        0x0000dede:    4604        .F      MOV      r4,r0
        0x0000dee0:    4e12        .N      LDR      r6,[pc,#72] ; [0xdf2c] = 0x40020000
        0x0000dee2:    2000        .       MOVS     r0,#0
        0x0000dee4:    9000        ..      STR      r0,[sp,#0]
        0x0000dee6:    68f0        .h      LDR      r0,[r6,#0xc]
        0x0000dee8:    460d        .F      MOV      r5,r1
        0x0000deea:    b2c0        ..      UXTB     r0,r0
        0x0000deec:    2821        !(      CMP      r0,#0x21
        0x0000deee:    d31b        ..      BCC      0xdf28 ; am_hal_ble_sleep_set + 76
        0x0000def0:    4f0f        .O      LDR      r7,[pc,#60] ; [0xdf30] = 0x20006e18
        0x0000def2:    466a        jF      MOV      r2,sp
        0x0000def4:    4639        9F      MOV      r1,r7
        0x0000def6:    4620         F      MOV      r0,r4
        0x0000def8:    f7fffe4a    ..J.    BL       am_hal_ble_plf_reg_read ; 0xdb90
        0x0000defc:    9800        ..      LDR      r0,[sp,#0]
        0x0000defe:    f02000ff     ...    BIC      r0,r0,#0xff
        0x0000df02:    f420407e     .~@    BIC      r0,r0,#0xfe00
        0x0000df06:    9000        ..      STR      r0,[sp,#0]
        0x0000df08:    b11d        ..      CBZ      r5,0xdf12 ; am_hal_ble_sleep_set + 54
        0x0000df0a:    f2401101    @...    MOV      r1,#0x101
        0x0000df0e:    4308        .C      ORRS     r0,r0,r1
        0x0000df10:    9000        ..      STR      r0,[sp,#0]
        0x0000df12:    68f0        .h      LDR      r0,[r6,#0xc]
        0x0000df14:    b2c0        ..      UXTB     r0,r0
        0x0000df16:    2821        !(      CMP      r0,#0x21
        0x0000df18:    d306        ..      BCC      0xdf28 ; am_hal_ble_sleep_set + 76
        0x0000df1a:    4639        9F      MOV      r1,r7
        0x0000df1c:    4620         F      MOV      r0,r4
        0x0000df1e:    9a00        ..      LDR      r2,[sp,#0]
        0x0000df20:    f7fffea8    ....    BL       am_hal_ble_plf_reg_write ; 0xdc74
        0x0000df24:    2000        .       MOVS     r0,#0
        0x0000df26:    bdf8        ..      POP      {r3-r7,pc}
        0x0000df28:    2001        .       MOVS     r0,#1
        0x0000df2a:    bdf8        ..      POP      {r3-r7,pc}
    $d
        0x0000df2c:    40020000    ...@    DCD    1073872896
        0x0000df30:    20006e18    .n.     DCD    536899096
    $t
    i.am_hal_ble_tx_power_set
    am_hal_ble_tx_power_set
        0x0000df34:    e92d43f0    -..C    PUSH     {r4-r9,lr}
        0x0000df38:    b083        ..      SUB      sp,sp,#0xc
        0x0000df3a:    4605        .F      MOV      r5,r0
        0x0000df3c:    2000        .       MOVS     r0,#0
        0x0000df3e:    460c        .F      MOV      r4,r1
        0x0000df40:    9000        ..      STR      r0,[sp,#0]
        0x0000df42:    2008        .       MOVS     r0,#8
        0x0000df44:    f001010f    ....    AND      r1,r1,#0xf
        0x0000df48:    ea404701    @..G    ORR      r7,r0,r1,LSL #16
        0x0000df4c:    f8df8070    ..p.    LDR      r8,[pc,#112] ; [0xdfc0] = 0x43000004
        0x0000df50:    aa01        ..      ADD      r2,sp,#4
        0x0000df52:    4641        AF      MOV      r1,r8
        0x0000df54:    4628        (F      MOV      r0,r5
        0x0000df56:    f7fffe1b    ....    BL       am_hal_ble_plf_reg_read ; 0xdb90
        0x0000df5a:    f04f32ff    O..2    MOV      r2,#0xffffffff
        0x0000df5e:    4641        AF      MOV      r1,r8
        0x0000df60:    4628        (F      MOV      r0,r5
        0x0000df62:    f7fffe87    ....    BL       am_hal_ble_plf_reg_write ; 0xdc74
        0x0000df66:    4e17        .N      LDR      r6,[pc,#92] ; [0xdfc4] = 0x40020000
        0x0000df68:    68f0        .h      LDR      r0,[r6,#0xc]
        0x0000df6a:    b2c0        ..      UXTB     r0,r0
        0x0000df6c:    2821        !(      CMP      r0,#0x21
        0x0000df6e:    d322        ".      BCC      0xdfb6 ; am_hal_ble_tx_power_set + 130
        0x0000df70:    f8df9054    ..T.    LDR      r9,[pc,#84] ; [0xdfc8] = 0x20006838
        0x0000df74:    466a        jF      MOV      r2,sp
        0x0000df76:    4649        IF      MOV      r1,r9
        0x0000df78:    4628        (F      MOV      r0,r5
        0x0000df7a:    f7fffe09    ....    BL       am_hal_ble_plf_reg_read ; 0xdb90
        0x0000df7e:    9800        ..      LDR      r0,[sp,#0]
        0x0000df80:    463a        :F      MOV      r2,r7
        0x0000df82:    f02000ff     ...    BIC      r0,r0,#0xff
        0x0000df86:    4320         C      ORRS     r0,r0,r4
        0x0000df88:    9000        ..      STR      r0,[sp,#0]
        0x0000df8a:    4910        .I      LDR      r1,[pc,#64] ; [0xdfcc] = 0x52400018
        0x0000df8c:    4628        (F      MOV      r0,r5
        0x0000df8e:    f7fffe71    ..q.    BL       am_hal_ble_plf_reg_write ; 0xdc74
        0x0000df92:    68f0        .h      LDR      r0,[r6,#0xc]
        0x0000df94:    b2c0        ..      UXTB     r0,r0
        0x0000df96:    2821        !(      CMP      r0,#0x21
        0x0000df98:    d30d        ..      BCC      0xdfb6 ; am_hal_ble_tx_power_set + 130
        0x0000df9a:    4649        IF      MOV      r1,r9
        0x0000df9c:    4628        (F      MOV      r0,r5
        0x0000df9e:    9a00        ..      LDR      r2,[sp,#0]
        0x0000dfa0:    f7fffe68    ..h.    BL       am_hal_ble_plf_reg_write ; 0xdc74
        0x0000dfa4:    4641        AF      MOV      r1,r8
        0x0000dfa6:    4628        (F      MOV      r0,r5
        0x0000dfa8:    9a01        ..      LDR      r2,[sp,#4]
        0x0000dfaa:    f7fffe63    ..c.    BL       am_hal_ble_plf_reg_write ; 0xdc74
        0x0000dfae:    b003        ..      ADD      sp,sp,#0xc
        0x0000dfb0:    2000        .       MOVS     r0,#0
        0x0000dfb2:    e8bd83f0    ....    POP      {r4-r9,pc}
        0x0000dfb6:    b003        ..      ADD      sp,sp,#0xc
        0x0000dfb8:    2001        .       MOVS     r0,#1
        0x0000dfba:    e8bd83f0    ....    POP      {r4-r9,pc}
    $d
        0x0000dfbe:    0000        ..      DCW    0
        0x0000dfc0:    43000004    ...C    DCD    1124073476
        0x0000dfc4:    40020000    ...@    DCD    1073872896
        0x0000dfc8:    20006838    8h.     DCD    536897592
        0x0000dfcc:    52400018    ..@R    DCD    1379926040
    $t
    i.am_hal_ble_wakeup_set
    am_hal_ble_wakeup_set
        0x0000dfd0:    2800        .(      CMP      r0,#0
        0x0000dfd2:    bf1c        ..      ITT      NE
        0x0000dfd4:    6800        .h      LDRNE    r0,[r0,#0]
        0x0000dfd6:    f0107f80    ....    TSTNE    r0,#0x1000000
        0x0000dfda:    d004        ..      BEQ      0xdfe6 ; am_hal_ble_wakeup_set + 22
        0x0000dfdc:    4a0a        .J      LDR      r2,[pc,#40] ; [0xe008] = 0x775230
        0x0000dfde:    f020407f     ..@    BIC      r0,r0,#0xff000000
        0x0000dfe2:    4290        .B      CMP      r0,r2
        0x0000dfe4:    d001        ..      BEQ      0xdfea ; am_hal_ble_wakeup_set + 26
        0x0000dfe6:    2002        .       MOVS     r0,#2
        0x0000dfe8:    4770        pG      BX       lr
        0x0000dfea:    4808        .H      LDR      r0,[pc,#32] ; [0xe00c] = 0x5000c000
        0x0000dfec:    2900        .)      CMP      r1,#0
        0x0000dfee:    f8d01304    ....    LDR      r1,[r0,#0x304]
        0x0000dff2:    bf12        ..      ITEE     NE
        0x0000dff4:    f041010c    A...    ORRNE    r1,r1,#0xc
        0x0000dff8:    f021010c    !...    BICEQ    r1,r1,#0xc
        0x0000dffc:    3108        .1      ADDEQ    r1,r1,#8
        0x0000dffe:    f8c01304    ....    STR      r1,[r0,#0x304]
        0x0000e002:    2000        .       MOVS     r0,#0
        0x0000e004:    4770        pG      BX       lr
    $d
        0x0000e006:    0000        ..      DCW    0
        0x0000e008:    00775230    0Rw.    DCD    7819824
        0x0000e00c:    5000c000    ...P    DCD    1342226432
    $t
    i.am_hal_burst_mode_disable
    am_hal_burst_mode_disable
        0x0000e010:    b5f8        ..      PUSH     {r3-r7,lr}
        0x0000e012:    4604        .F      MOV      r4,r0
        0x0000e014:    f7fef976    ..v.    BL       am_hal_interrupt_master_disable ; 0xc304
        0x0000e018:    4e12        .N      LDR      r6,[pc,#72] ; [0xe064] = 0x40004034
        0x0000e01a:    9000        ..      STR      r0,[sp,#0]
        0x0000e01c:    2100        .!      MOVS     r1,#0
        0x0000e01e:    4630        0F      MOV      r0,r6
        0x0000e020:    f000fb36    ..6.    BL       am_hal_flash_store_ui32 ; 0xe690
        0x0000e024:    9800        ..      LDR      r0,[sp,#0]
        0x0000e026:    f7fef971    ..q.    BL       am_hal_interrupt_master_set ; 0xc30c
        0x0000e02a:    480f        .H      LDR      r0,[pc,#60] ; [0xe068] = 0x40021000
        0x0000e02c:    6a81        .j      LDR      r1,[r0,#0x28]
        0x0000e02e:    f0214100    !..A    BIC      r1,r1,#0x80000000
        0x0000e032:    6281        .b      STR      r1,[r0,#0x28]
        0x0000e034:    2501        .%      MOVS     r5,#1
        0x0000e036:    2300        .#      MOVS     r3,#0
        0x0000e038:    2204        ."      MOVS     r2,#4
        0x0000e03a:    4631        1F      MOV      r1,r6
        0x0000e03c:    f2427010    B..p    MOV      r0,#0x2710
        0x0000e040:    9500        ..      STR      r5,[sp,#0]
        0x0000e042:    f000faf3    ....    BL       am_hal_flash_delay_status_check ; 0xe62c
        0x0000e046:    2800        .(      CMP      r0,#0
        0x0000e048:    bf1c        ..      ITT      NE
        0x0000e04a:    7025        %p      STRBNE   r5,[r4,#0]
        0x0000e04c:    bdf8        ..      POPNE    {r3-r7,pc}
        0x0000e04e:    f04f2040    O.@     MOV      r0,#0x40004000
        0x0000e052:    6b40        @k      LDR      r0,[r0,#0x34]
        0x0000e054:    f0100f04    ....    TST      r0,#4
        0x0000e058:    bf1a        ..      ITTE     NE
        0x0000e05a:    2000        .       MOVNE    r0,#0
        0x0000e05c:    7020         p      STRBNE   r0,[r4,#0]
        0x0000e05e:    7025        %p      STRBEQ   r5,[r4,#0]
        0x0000e060:    2000        .       MOVS     r0,#0
        0x0000e062:    bdf8        ..      POP      {r3-r7,pc}
    $d
        0x0000e064:    40004034    4@.@    DCD    1073758260
        0x0000e068:    40021000    ...@    DCD    1073876992
    $t
    i.am_hal_burst_mode_enable
    am_hal_burst_mode_enable
        0x0000e06c:    b5f8        ..      PUSH     {r3-r7,lr}
        0x0000e06e:    4604        .F      MOV      r4,r0
        0x0000e070:    4814        .H      LDR      r0,[pc,#80] ; [0xe0c4] = 0x100138b8
        0x0000e072:    2501        .%      MOVS     r5,#1
        0x0000e074:    7800        .x      LDRB     r0,[r0,#0]
        0x0000e076:    2800        .(      CMP      r0,#0
        0x0000e078:    bf02        ..      ITTT     EQ
        0x0000e07a:    7025        %p      STRBEQ   r5,[r4,#0]
        0x0000e07c:    2007        .       MOVEQ    r0,#7
        0x0000e07e:    bdf8        ..      POPEQ    {r3-r7,pc}
        0x0000e080:    f04f2640    O.@&    MOV      r6,#0x40004000
        0x0000e084:    6b70        pk      LDR      r0,[r6,#0x34]
        0x0000e086:    f0400001    @...    ORR      r0,r0,#1
        0x0000e08a:    6370        pc      STR      r0,[r6,#0x34]
        0x0000e08c:    2304        .#      MOVS     r3,#4
        0x0000e08e:    461a        .F      MOV      r2,r3
        0x0000e090:    490d        .I      LDR      r1,[pc,#52] ; [0xe0c8] = 0x40004034
        0x0000e092:    f2427010    B..p    MOV      r0,#0x2710
        0x0000e096:    9500        ..      STR      r5,[sp,#0]
        0x0000e098:    f000fac8    ....    BL       am_hal_flash_delay_status_check ; 0xe62c
        0x0000e09c:    2800        .(      CMP      r0,#0
        0x0000e09e:    bf1c        ..      ITT      NE
        0x0000e0a0:    7025        %p      STRBNE   r5,[r4,#0]
        0x0000e0a2:    bdf8        ..      POPNE    {r3-r7,pc}
        0x0000e0a4:    6b70        pk      LDR      r0,[r6,#0x34]
        0x0000e0a6:    f0100f02    ....    TST      r0,#2
        0x0000e0aa:    bf02        ..      ITTT     EQ
        0x0000e0ac:    7025        %p      STRBEQ   r5,[r4,#0]
        0x0000e0ae:    2001        .       MOVEQ    r0,#1
        0x0000e0b0:    bdf8        ..      POPEQ    {r3-r7,pc}
        0x0000e0b2:    6b70        pk      LDR      r0,[r6,#0x34]
        0x0000e0b4:    f0100f04    ....    TST      r0,#4
        0x0000e0b8:    bf1a        ..      ITTE     NE
        0x0000e0ba:    2000        .       MOVNE    r0,#0
        0x0000e0bc:    7020         p      STRBNE   r0,[r4,#0]
        0x0000e0be:    7025        %p      STRBEQ   r5,[r4,#0]
        0x0000e0c0:    2000        .       MOVS     r0,#0
        0x0000e0c2:    bdf8        ..      POP      {r3-r7,pc}
    $d
        0x0000e0c4:    100138b8    .8..    DCD    268515512
        0x0000e0c8:    40004034    4@.@    DCD    1073758260
    $t
    i.am_hal_cachectrl_config
    am_hal_cachectrl_config
        0x0000e0cc:    b538        8.      PUSH     {r3-r5,lr}
        0x0000e0ce:    4604        .F      MOV      r4,r0
        0x0000e0d0:    f7fef918    ....    BL       am_hal_interrupt_master_disable ; 0xc304
        0x0000e0d4:    4d0f        .M      LDR      r5,[pc,#60] ; [0xe114] = 0x40018000
        0x0000e0d6:    9000        ..      STR      r0,[sp,#0]
        0x0000e0d8:    6828        (h      LDR      r0,[r5,#0]
        0x0000e0da:    f4207040     .@p    BIC      r0,r0,#0x300
        0x0000e0de:    6028        (`      STR      r0,[r5,#0]
        0x0000e0e0:    9800        ..      LDR      r0,[sp,#0]
        0x0000e0e2:    f7fef913    ....    BL       am_hal_interrupt_master_set ; 0xc30c
        0x0000e0e6:    78a0        .x      LDRB     r0,[r4,#2]
        0x0000e0e8:    2102        .!      MOVS     r1,#2
        0x0000e0ea:    ea010040    ..@.    AND      r0,r1,r0,LSL #1
        0x0000e0ee:    7821        !x      LDRB     r1,[r4,#0]
        0x0000e0f0:    22f0        ."      MOVS     r2,#0xf0
        0x0000e0f2:    ea021101    ....    AND      r1,r2,r1,LSL #4
        0x0000e0f6:    4308        .C      ORRS     r0,r0,r1
        0x0000e0f8:    7861        ax      LDRB     r1,[r4,#1]
        0x0000e0fa:    f44f7240    O.@r    MOV      r2,#0x300
        0x0000e0fe:    ea022101    ...!    AND      r1,r2,r1,LSL #8
        0x0000e102:    4308        .C      ORRS     r0,r0,r1
        0x0000e104:    f4406080    @..`    ORR      r0,r0,#0x400
        0x0000e108:    f4401080    @...    ORR      r0,r0,#0x100000
        0x0000e10c:    6028        (`      STR      r0,[r5,#0]
        0x0000e10e:    2000        .       MOVS     r0,#0
        0x0000e110:    bd38        8.      POP      {r3-r5,pc}
    $d
        0x0000e112:    0000        ..      DCW    0
        0x0000e114:    40018000    ...@    DCD    1073840128
    $t
    i.am_hal_cachectrl_control
    am_hal_cachectrl_control
        0x0000e118:    b5f8        ..      PUSH     {r3-r7,lr}
        0x0000e11a:    2812        .(      CMP      r0,#0x12
        0x0000e11c:    f08081b9    ....    BCS.W    0xe492 ; am_hal_cachectrl_control + 890
        0x0000e120:    e8dff000    ....    TBB      [pc,r0]
    $d
        0x0000e124:    140b09fe    ....    DCD    336267774
        0x0000e128:    1e1c1a17    ....    DCD    505158167
        0x0000e12c:    3f332721    !'3?    DCD    1060316961
        0x0000e130:    fcfde793    ....    DCD    4244498323
        0x0000e134:    fafb        ..      DCW    64251
    $t
        0x0000e136:    2001        .       MOVS     r0,#1
        0x0000e138:    e017        ..      B        0xe16a ; am_hal_cachectrl_control + 82
        0x0000e13a:    48e0        .H      LDR      r0,[pc,#896] ; [0xe4bc] = 0x40018000
        0x0000e13c:    6800        .h      LDR      r0,[r0,#0]
        0x0000e13e:    f0107f80    ....    TST      r0,#0x1000000
        0x0000e142:    bf0a        ..      ITET     EQ
        0x0000e144:    2007        .       MOVEQ    r0,#7
        0x0000e146:    2002        .       MOVNE    r0,#2
        0x0000e148:    bdf8        ..      POPEQ    {r3-r7,pc}
        0x0000e14a:    e00e        ..      B        0xe16a ; am_hal_cachectrl_control + 82
        0x0000e14c:    f44f6088    O..`    MOV      r0,#0x440
        0x0000e150:    e00b        ..      B        0xe16a ; am_hal_cachectrl_control + 82
        0x0000e152:    f44f7008    O..p    MOV      r0,#0x220
        0x0000e156:    e008        ..      B        0xe16a ; am_hal_cachectrl_control + 82
        0x0000e158:    2040        @       MOVS     r0,#0x40
        0x0000e15a:    e006        ..      B        0xe16a ; am_hal_cachectrl_control + 82
        0x0000e15c:    2020                MOVS     r0,#0x20
        0x0000e15e:    e004        ..      B        0xe16a ; am_hal_cachectrl_control + 82
        0x0000e160:    f44f6080    O..`    MOV      r0,#0x400
        0x0000e164:    e001        ..      B        0xe16a ; am_hal_cachectrl_control + 82
        0x0000e166:    f44f7000    O..p    MOV      r0,#0x200
        0x0000e16a:    49d4        .I      LDR      r1,[pc,#848] ; [0xe4bc] = 0x40018000
        0x0000e16c:    6088        .`      STR      r0,[r1,#8]
        0x0000e16e:    2000        .       MOVS     r0,#0
        0x0000e170:    bdf8        ..      POP      {r3-r7,pc}
        0x0000e172:    f7fef8c7    ....    BL       am_hal_interrupt_master_disable ; 0xc304
        0x0000e176:    9000        ..      STR      r0,[sp,#0]
        0x0000e178:    48d0        .H      LDR      r0,[pc,#832] ; [0xe4bc] = 0x40018000
        0x0000e17a:    6801        .h      LDR      r1,[r0,#0]
        0x0000e17c:    f0417180    A..q    ORR      r1,r1,#0x1000000
        0x0000e180:    6001        .`      STR      r1,[r0,#0]
        0x0000e182:    9800        ..      LDR      r0,[sp,#0]
        0x0000e184:    f7fef8c2    ....    BL       am_hal_interrupt_master_set ; 0xc30c
        0x0000e188:    e7f1        ..      B        0xe16e ; am_hal_cachectrl_control + 86
        0x0000e18a:    f7fef8bb    ....    BL       am_hal_interrupt_master_disable ; 0xc304
        0x0000e18e:    9000        ..      STR      r0,[sp,#0]
        0x0000e190:    48ca        .H      LDR      r0,[pc,#808] ; [0xe4bc] = 0x40018000
        0x0000e192:    6801        .h      LDR      r1,[r0,#0]
        0x0000e194:    f0217180    !..q    BIC      r1,r1,#0x1000000
        0x0000e198:    6001        .`      STR      r1,[r0,#0]
        0x0000e19a:    9800        ..      LDR      r0,[sp,#0]
        0x0000e19c:    f7fef8b6    ....    BL       am_hal_interrupt_master_set ; 0xc30c
        0x0000e1a0:    e7e5        ..      B        0xe16e ; am_hal_cachectrl_control + 86
        0x0000e1a2:    2000        .       MOVS     r0,#0
        0x0000e1a4:    f44f5140    O.@Q    MOV      r1,#0x3000
        0x0000e1a8:    4cc5        .L      LDR      r4,[pc,#788] ; [0xe4c0] = 0x40018100
        0x0000e1aa:    4605        .F      MOV      r5,r0
        0x0000e1ac:    ea013600    ...6    AND      r6,r1,r0,LSL #12
        0x0000e1b0:    eb040785    ....    ADD      r7,r4,r5,LSL #2
        0x0000e1b4:    f7fef8a6    ....    BL       am_hal_interrupt_master_disable ; 0xc304
        0x0000e1b8:    9000        ..      STR      r0,[sp,#0]
        0x0000e1ba:    4638        8F      MOV      r0,r7
        0x0000e1bc:    f000fa64    ..d.    BL       am_hal_flash_load_ui32 ; 0xe688
        0x0000e1c0:    f420507c     .|P    BIC      r0,r0,#0x3f00
        0x0000e1c4:    4330        0C      ORRS     r0,r0,r6
        0x0000e1c6:    f44061e0    @..a    ORR      r1,r0,#0x700
        0x0000e1ca:    4638        8F      MOV      r0,r7
        0x0000e1cc:    f000fa60    ..`.    BL       am_hal_flash_store_ui32 ; 0xe690
        0x0000e1d0:    9800        ..      LDR      r0,[sp,#0]
        0x0000e1d2:    f7fef89b    ....    BL       am_hal_interrupt_master_set ; 0xc30c
        0x0000e1d6:    1c6d        m.      ADDS     r5,r5,#1
        0x0000e1d8:    2d04        .-      CMP      r5,#4
        0x0000e1da:    d3e9        ..      BCC      0xe1b0 ; am_hal_cachectrl_control + 152
        0x0000e1dc:    2007        .       MOVS     r0,#7
        0x0000e1de:    2500        .%      MOVS     r5,#0
        0x0000e1e0:    2170        p!      MOVS     r1,#0x70
        0x0000e1e2:    ea011600    ....    AND      r6,r1,r0,LSL #4
        0x0000e1e6:    bf00        ..      NOP      
        0x0000e1e8:    eb040785    ....    ADD      r7,r4,r5,LSL #2
        0x0000e1ec:    f7fef88a    ....    BL       am_hal_interrupt_master_disable ; 0xc304
        0x0000e1f0:    9000        ..      STR      r0,[sp,#0]
        0x0000e1f2:    4638        8F      MOV      r0,r7
        0x0000e1f4:    f000fa48    ..H.    BL       am_hal_flash_load_ui32 ; 0xe688
        0x0000e1f8:    f4206077     .w`    BIC      r0,r0,#0xf70
        0x0000e1fc:    4330        0C      ORRS     r0,r0,r6
        0x0000e1fe:    f44061e0    @..a    ORR      r1,r0,#0x700
        0x0000e202:    4638        8F      MOV      r0,r7
        0x0000e204:    f000fa44    ..D.    BL       am_hal_flash_store_ui32 ; 0xe690
        0x0000e208:    9800        ..      LDR      r0,[sp,#0]
        0x0000e20a:    f7fef87f    ....    BL       am_hal_interrupt_master_set ; 0xc30c
        0x0000e20e:    1c6d        m.      ADDS     r5,r5,#1
        0x0000e210:    2d04        .-      CMP      r5,#4
        0x0000e212:    d3e9        ..      BCC      0xe1e8 ; am_hal_cachectrl_control + 208
        0x0000e214:    2603        .&      MOVS     r6,#3
        0x0000e216:    2500        .%      MOVS     r5,#0
        0x0000e218:    eb040785    ....    ADD      r7,r4,r5,LSL #2
        0x0000e21c:    f7fef872    ..r.    BL       am_hal_interrupt_master_disable ; 0xc304
        0x0000e220:    9000        ..      STR      r0,[sp,#0]
        0x0000e222:    4638        8F      MOV      r0,r7
        0x0000e224:    f000fa30    ..0.    BL       am_hal_flash_load_ui32 ; 0xe688
        0x0000e228:    f020000f     ...    BIC      r0,r0,#0xf
        0x0000e22c:    f4206070     .p`    BIC      r0,r0,#0xf00
        0x0000e230:    4330        0C      ORRS     r0,r0,r6
        0x0000e232:    f44061e0    @..a    ORR      r1,r0,#0x700
        0x0000e236:    4638        8F      MOV      r0,r7
        0x0000e238:    f000fa2a    ..*.    BL       am_hal_flash_store_ui32 ; 0xe690
        0x0000e23c:    9800        ..      LDR      r0,[sp,#0]
        0x0000e23e:    f7fef865    ..e.    BL       am_hal_interrupt_master_set ; 0xc30c
        0x0000e242:    1c6d        m.      ADDS     r5,r5,#1
        0x0000e244:    2d04        .-      CMP      r5,#4
        0x0000e246:    d3e7        ..      BCC      0xe218 ; am_hal_cachectrl_control + 256
        0x0000e248:    e791        ..      B        0xe16e ; am_hal_cachectrl_control + 86
        0x0000e24a:    2001        .       MOVS     r0,#1
        0x0000e24c:    f44f5140    O.@Q    MOV      r1,#0x3000
        0x0000e250:    4c9b        .L      LDR      r4,[pc,#620] ; [0xe4c0] = 0x40018100
        0x0000e252:    2500        .%      MOVS     r5,#0
        0x0000e254:    ea013600    ...6    AND      r6,r1,r0,LSL #12
        0x0000e258:    eb040785    ....    ADD      r7,r4,r5,LSL #2
        0x0000e25c:    f7fef852    ..R.    BL       am_hal_interrupt_master_disable ; 0xc304
        0x0000e260:    9000        ..      STR      r0,[sp,#0]
        0x0000e262:    4638        8F      MOV      r0,r7
        0x0000e264:    f000fa10    ....    BL       am_hal_flash_load_ui32 ; 0xe688
        0x0000e268:    f420507c     .|P    BIC      r0,r0,#0x3f00
        0x0000e26c:    4330        0C      ORRS     r0,r0,r6
        0x0000e26e:    f44061e0    @..a    ORR      r1,r0,#0x700
        0x0000e272:    4638        8F      MOV      r0,r7
        0x0000e274:    f000fa0c    ....    BL       am_hal_flash_store_ui32 ; 0xe690
        0x0000e278:    9800        ..      LDR      r0,[sp,#0]
        0x0000e27a:    f7fef847    ..G.    BL       am_hal_interrupt_master_set ; 0xc30c
        0x0000e27e:    1c6d        m.      ADDS     r5,r5,#1
        0x0000e280:    2d04        .-      CMP      r5,#4
        0x0000e282:    d3e9        ..      BCC      0xe258 ; am_hal_cachectrl_control + 320
        0x0000e284:    2005        .       MOVS     r0,#5
        0x0000e286:    2500        .%      MOVS     r5,#0
        0x0000e288:    2170        p!      MOVS     r1,#0x70
        0x0000e28a:    ea011600    ....    AND      r6,r1,r0,LSL #4
        0x0000e28e:    bf00        ..      NOP      
        0x0000e290:    eb040785    ....    ADD      r7,r4,r5,LSL #2
        0x0000e294:    f7fef836    ..6.    BL       am_hal_interrupt_master_disable ; 0xc304
        0x0000e298:    9000        ..      STR      r0,[sp,#0]
        0x0000e29a:    4638        8F      MOV      r0,r7
        0x0000e29c:    f000f9f4    ....    BL       am_hal_flash_load_ui32 ; 0xe688
        0x0000e2a0:    f4206077     .w`    BIC      r0,r0,#0xf70
        0x0000e2a4:    4330        0C      ORRS     r0,r0,r6
        0x0000e2a6:    f44061e0    @..a    ORR      r1,r0,#0x700
        0x0000e2aa:    4638        8F      MOV      r0,r7
        0x0000e2ac:    f000f9f0    ....    BL       am_hal_flash_store_ui32 ; 0xe690
        0x0000e2b0:    9800        ..      LDR      r0,[sp,#0]
        0x0000e2b2:    f7fef82b    ..+.    BL       am_hal_interrupt_master_set ; 0xc30c
        0x0000e2b6:    1c6d        m.      ADDS     r5,r5,#1
        0x0000e2b8:    2d04        .-      CMP      r5,#4
        0x0000e2ba:    d3e9        ..      BCC      0xe290 ; am_hal_cachectrl_control + 376
        0x0000e2bc:    2601        .&      MOVS     r6,#1
        0x0000e2be:    2500        .%      MOVS     r5,#0
        0x0000e2c0:    eb040785    ....    ADD      r7,r4,r5,LSL #2
        0x0000e2c4:    f7fef81e    ....    BL       am_hal_interrupt_master_disable ; 0xc304
        0x0000e2c8:    9000        ..      STR      r0,[sp,#0]
        0x0000e2ca:    4638        8F      MOV      r0,r7
        0x0000e2cc:    f000f9dc    ....    BL       am_hal_flash_load_ui32 ; 0xe688
        0x0000e2d0:    f020000f     ...    BIC      r0,r0,#0xf
        0x0000e2d4:    f4206070     .p`    BIC      r0,r0,#0xf00
        0x0000e2d8:    4330        0C      ORRS     r0,r0,r6
        0x0000e2da:    f44061e0    @..a    ORR      r1,r0,#0x700
        0x0000e2de:    4638        8F      MOV      r0,r7
        0x0000e2e0:    f000f9d6    ....    BL       am_hal_flash_store_ui32 ; 0xe690
        0x0000e2e4:    9800        ..      LDR      r0,[sp,#0]
        0x0000e2e6:    f7fef811    ....    BL       am_hal_interrupt_master_set ; 0xc30c
        0x0000e2ea:    1c6d        m.      ADDS     r5,r5,#1
        0x0000e2ec:    2d04        .-      CMP      r5,#4
        0x0000e2ee:    d3e7        ..      BCC      0xe2c0 ; am_hal_cachectrl_control + 424
        0x0000e2f0:    e73d        =.      B        0xe16e ; am_hal_cachectrl_control + 86
        0x0000e2f2:    2001        .       MOVS     r0,#1
        0x0000e2f4:    f44f5140    O.@Q    MOV      r1,#0x3000
        0x0000e2f8:    4c71        qL      LDR      r4,[pc,#452] ; [0xe4c0] = 0x40018100
        0x0000e2fa:    2500        .%      MOVS     r5,#0
        0x0000e2fc:    ea013600    ...6    AND      r6,r1,r0,LSL #12
        0x0000e300:    eb040785    ....    ADD      r7,r4,r5,LSL #2
        0x0000e304:    f7fdfffe    ....    BL       am_hal_interrupt_master_disable ; 0xc304
        0x0000e308:    9000        ..      STR      r0,[sp,#0]
        0x0000e30a:    4638        8F      MOV      r0,r7
        0x0000e30c:    f000f9bc    ....    BL       am_hal_flash_load_ui32 ; 0xe688
        0x0000e310:    f420507c     .|P    BIC      r0,r0,#0x3f00
        0x0000e314:    4330        0C      ORRS     r0,r0,r6
        0x0000e316:    e004        ..      B        0xe322 ; am_hal_cachectrl_control + 522
        0x0000e318:    e0ad        ..      B        0xe476 ; am_hal_cachectrl_control + 862
        0x0000e31a:    e086        ..      B        0xe42a ; am_hal_cachectrl_control + 786
        0x0000e31c:    e065        e.      B        0xe3ea ; am_hal_cachectrl_control + 722
        0x0000e31e:    e042        B.      B        0xe3a6 ; am_hal_cachectrl_control + 654
        0x0000e320:    e0a2        ..      B        0xe468 ; am_hal_cachectrl_control + 848
        0x0000e322:    f44061e0    @..a    ORR      r1,r0,#0x700
        0x0000e326:    4638        8F      MOV      r0,r7
        0x0000e328:    f000f9b2    ....    BL       am_hal_flash_store_ui32 ; 0xe690
        0x0000e32c:    9800        ..      LDR      r0,[sp,#0]
        0x0000e32e:    f7fdffed    ....    BL       am_hal_interrupt_master_set ; 0xc30c
        0x0000e332:    1c6d        m.      ADDS     r5,r5,#1
        0x0000e334:    2d04        .-      CMP      r5,#4
        0x0000e336:    d3e3        ..      BCC      0xe300 ; am_hal_cachectrl_control + 488
        0x0000e338:    2006        .       MOVS     r0,#6
        0x0000e33a:    2500        .%      MOVS     r5,#0
        0x0000e33c:    2170        p!      MOVS     r1,#0x70
        0x0000e33e:    ea011600    ....    AND      r6,r1,r0,LSL #4
        0x0000e342:    bf00        ..      NOP      
        0x0000e344:    eb040785    ....    ADD      r7,r4,r5,LSL #2
        0x0000e348:    f7fdffdc    ....    BL       am_hal_interrupt_master_disable ; 0xc304
        0x0000e34c:    9000        ..      STR      r0,[sp,#0]
        0x0000e34e:    4638        8F      MOV      r0,r7
        0x0000e350:    f000f99a    ....    BL       am_hal_flash_load_ui32 ; 0xe688
        0x0000e354:    f4206077     .w`    BIC      r0,r0,#0xf70
        0x0000e358:    4330        0C      ORRS     r0,r0,r6
        0x0000e35a:    f44061e0    @..a    ORR      r1,r0,#0x700
        0x0000e35e:    4638        8F      MOV      r0,r7
        0x0000e360:    f000f996    ....    BL       am_hal_flash_store_ui32 ; 0xe690
        0x0000e364:    9800        ..      LDR      r0,[sp,#0]
        0x0000e366:    f7fdffd1    ....    BL       am_hal_interrupt_master_set ; 0xc30c
        0x0000e36a:    1c6d        m.      ADDS     r5,r5,#1
        0x0000e36c:    2d04        .-      CMP      r5,#4
        0x0000e36e:    d3e9        ..      BCC      0xe344 ; am_hal_cachectrl_control + 556
        0x0000e370:    2601        .&      MOVS     r6,#1
        0x0000e372:    2500        .%      MOVS     r5,#0
        0x0000e374:    eb040785    ....    ADD      r7,r4,r5,LSL #2
        0x0000e378:    f7fdffc4    ....    BL       am_hal_interrupt_master_disable ; 0xc304
        0x0000e37c:    9000        ..      STR      r0,[sp,#0]
        0x0000e37e:    4638        8F      MOV      r0,r7
        0x0000e380:    f000f982    ....    BL       am_hal_flash_load_ui32 ; 0xe688
        0x0000e384:    f020000f     ...    BIC      r0,r0,#0xf
        0x0000e388:    f4206070     .p`    BIC      r0,r0,#0xf00
        0x0000e38c:    4330        0C      ORRS     r0,r0,r6
        0x0000e38e:    f44061e0    @..a    ORR      r1,r0,#0x700
        0x0000e392:    4638        8F      MOV      r0,r7
        0x0000e394:    f000f97c    ..|.    BL       am_hal_flash_store_ui32 ; 0xe690
        0x0000e398:    9800        ..      LDR      r0,[sp,#0]
        0x0000e39a:    f7fdffb7    ....    BL       am_hal_interrupt_master_set ; 0xc30c
        0x0000e39e:    1c6d        m.      ADDS     r5,r5,#1
        0x0000e3a0:    2d04        .-      CMP      r5,#4
        0x0000e3a2:    d3e7        ..      BCC      0xe374 ; am_hal_cachectrl_control + 604
        0x0000e3a4:    e6e3        ..      B        0xe16e ; am_hal_cachectrl_control + 86
        0x0000e3a6:    2900        .)      CMP      r1,#0
        0x0000e3a8:    d073        s.      BEQ      0xe492 ; am_hal_cachectrl_control + 890
        0x0000e3aa:    6808        .h      LDR      r0,[r1,#0]
        0x0000e3ac:    2803        .(      CMP      r0,#3
        0x0000e3ae:    d840        @.      BHI      0xe432 ; am_hal_cachectrl_control + 794
        0x0000e3b0:    f44f5140    O.@Q    MOV      r1,#0x3000
        0x0000e3b4:    4f42        BO      LDR      r7,[pc,#264] ; [0xe4c0] = 0x40018100
        0x0000e3b6:    2400        .$      MOVS     r4,#0
        0x0000e3b8:    ea013500    ...5    AND      r5,r1,r0,LSL #12
        0x0000e3bc:    eb070684    ....    ADD      r6,r7,r4,LSL #2
        0x0000e3c0:    f7fdffa0    ....    BL       am_hal_interrupt_master_disable ; 0xc304
        0x0000e3c4:    9000        ..      STR      r0,[sp,#0]
        0x0000e3c6:    4630        0F      MOV      r0,r6
        0x0000e3c8:    f000f95e    ..^.    BL       am_hal_flash_load_ui32 ; 0xe688
        0x0000e3cc:    f420507c     .|P    BIC      r0,r0,#0x3f00
        0x0000e3d0:    4328        (C      ORRS     r0,r0,r5
        0x0000e3d2:    f44061e0    @..a    ORR      r1,r0,#0x700
        0x0000e3d6:    4630        0F      MOV      r0,r6
        0x0000e3d8:    f000f95a    ..Z.    BL       am_hal_flash_store_ui32 ; 0xe690
        0x0000e3dc:    9800        ..      LDR      r0,[sp,#0]
        0x0000e3de:    f7fdff95    ....    BL       am_hal_interrupt_master_set ; 0xc30c
        0x0000e3e2:    1c64        d.      ADDS     r4,r4,#1
        0x0000e3e4:    2c04        .,      CMP      r4,#4
        0x0000e3e6:    d3e9        ..      BCC      0xe3bc ; am_hal_cachectrl_control + 676
        0x0000e3e8:    e6c1        ..      B        0xe16e ; am_hal_cachectrl_control + 86
        0x0000e3ea:    b3e9        ..      CBZ      r1,0xe468 ; am_hal_cachectrl_control + 848
        0x0000e3ec:    6808        .h      LDR      r0,[r1,#0]
        0x0000e3ee:    2807        .(      CMP      r0,#7
        0x0000e3f0:    d81f        ..      BHI      0xe432 ; am_hal_cachectrl_control + 794
        0x0000e3f2:    2400        .$      MOVS     r4,#0
        0x0000e3f4:    2170        p!      MOVS     r1,#0x70
        0x0000e3f6:    4f32        2O      LDR      r7,[pc,#200] ; [0xe4c0] = 0x40018100
        0x0000e3f8:    ea011600    ....    AND      r6,r1,r0,LSL #4
        0x0000e3fc:    eb070584    ....    ADD      r5,r7,r4,LSL #2
        0x0000e400:    f7fdff80    ....    BL       am_hal_interrupt_master_disable ; 0xc304
        0x0000e404:    9000        ..      STR      r0,[sp,#0]
        0x0000e406:    4628        (F      MOV      r0,r5
        0x0000e408:    f000f93e    ..>.    BL       am_hal_flash_load_ui32 ; 0xe688
        0x0000e40c:    f4206077     .w`    BIC      r0,r0,#0xf70
        0x0000e410:    4330        0C      ORRS     r0,r0,r6
        0x0000e412:    f44061e0    @..a    ORR      r1,r0,#0x700
        0x0000e416:    4628        (F      MOV      r0,r5
        0x0000e418:    f000f93a    ..:.    BL       am_hal_flash_store_ui32 ; 0xe690
        0x0000e41c:    9800        ..      LDR      r0,[sp,#0]
        0x0000e41e:    f7fdff75    ..u.    BL       am_hal_interrupt_master_set ; 0xc30c
        0x0000e422:    1c64        d.      ADDS     r4,r4,#1
        0x0000e424:    2c04        .,      CMP      r4,#4
        0x0000e426:    d3e9        ..      BCC      0xe3fc ; am_hal_cachectrl_control + 740
        0x0000e428:    e6a1        ..      B        0xe16e ; am_hal_cachectrl_control + 86
        0x0000e42a:    b1e9        ..      CBZ      r1,0xe468 ; am_hal_cachectrl_control + 848
        0x0000e42c:    6808        .h      LDR      r0,[r1,#0]
        0x0000e42e:    280f        .(      CMP      r0,#0xf
        0x0000e430:    d901        ..      BLS      0xe436 ; am_hal_cachectrl_control + 798
        0x0000e432:    2001        .       MOVS     r0,#1
        0x0000e434:    bdf8        ..      POP      {r3-r7,pc}
        0x0000e436:    4f22        "O      LDR      r7,[pc,#136] ; [0xe4c0] = 0x40018100
        0x0000e438:    2400        .$      MOVS     r4,#0
        0x0000e43a:    f000050f    ....    AND      r5,r0,#0xf
        0x0000e43e:    bf00        ..      NOP      
        0x0000e440:    eb070684    ....    ADD      r6,r7,r4,LSL #2
        0x0000e444:    f7fdff5e    ..^.    BL       am_hal_interrupt_master_disable ; 0xc304
        0x0000e448:    9000        ..      STR      r0,[sp,#0]
        0x0000e44a:    4630        0F      MOV      r0,r6
        0x0000e44c:    f000f91c    ....    BL       am_hal_flash_load_ui32 ; 0xe688
        0x0000e450:    f020000f     ...    BIC      r0,r0,#0xf
        0x0000e454:    f4206070     .p`    BIC      r0,r0,#0xf00
        0x0000e458:    4328        (C      ORRS     r0,r0,r5
        0x0000e45a:    f44061e0    @..a    ORR      r1,r0,#0x700
        0x0000e45e:    4630        0F      MOV      r0,r6
        0x0000e460:    f000f916    ....    BL       am_hal_flash_store_ui32 ; 0xe690
        0x0000e464:    9800        ..      LDR      r0,[sp,#0]
        0x0000e466:    e000        ..      B        0xe46a ; am_hal_cachectrl_control + 850
        0x0000e468:    e013        ..      B        0xe492 ; am_hal_cachectrl_control + 890
        0x0000e46a:    f7fdff4f    ..O.    BL       am_hal_interrupt_master_set ; 0xc30c
        0x0000e46e:    1c64        d.      ADDS     r4,r4,#1
        0x0000e470:    2c04        .,      CMP      r4,#4
        0x0000e472:    d3e5        ..      BCC      0xe440 ; am_hal_cachectrl_control + 808
        0x0000e474:    e67b        {.      B        0xe16e ; am_hal_cachectrl_control + 86
        0x0000e476:    b161        a.      CBZ      r1,0xe492 ; am_hal_cachectrl_control + 890
        0x0000e478:    684a        Jh      LDR      r2,[r1,#4]
        0x0000e47a:    4610        .F      MOV      r0,r2
        0x0000e47c:    f36f101a    o...    BFC      r0,#4,#23
        0x0000e480:    b938        8.      CBNZ     r0,0xe492 ; am_hal_cachectrl_control + 890
        0x0000e482:    6888        .h      LDR      r0,[r1,#8]
        0x0000e484:    f36f101a    o...    BFC      r0,#4,#23
        0x0000e488:    b918        ..      CBNZ     r0,0xe492 ; am_hal_cachectrl_control + 890
        0x0000e48a:    7808        .x      LDRB     r0,[r1,#0]
        0x0000e48c:    b118        ..      CBZ      r0,0xe496 ; am_hal_cachectrl_control + 894
        0x0000e48e:    2801        .(      CMP      r0,#1
        0x0000e490:    d00a        ..      BEQ      0xe4a8 ; am_hal_cachectrl_control + 912
        0x0000e492:    2006        .       MOVS     r0,#6
        0x0000e494:    bdf8        ..      POP      {r3-r7,pc}
        0x0000e496:    4809        .H      LDR      r0,[pc,#36] ; [0xe4bc] = 0x40018000
        0x0000e498:    6102        .a      STR      r2,[r0,#0x10]
        0x0000e49a:    688a        .h      LDR      r2,[r1,#8]
        0x0000e49c:    6142        Ba      STR      r2,[r0,#0x14]
        0x0000e49e:    784a        Jx      LDRB     r2,[r1,#1]
        0x0000e4a0:    6801        .h      LDR      r1,[r0,#0]
        0x0000e4a2:    f3620182    b...    BFI      r1,r2,#2,#1
        0x0000e4a6:    e007        ..      B        0xe4b8 ; am_hal_cachectrl_control + 928
        0x0000e4a8:    4804        .H      LDR      r0,[pc,#16] ; [0xe4bc] = 0x40018000
        0x0000e4aa:    6182        .a      STR      r2,[r0,#0x18]
        0x0000e4ac:    688a        .h      LDR      r2,[r1,#8]
        0x0000e4ae:    61c2        .a      STR      r2,[r0,#0x1c]
        0x0000e4b0:    784a        Jx      LDRB     r2,[r1,#1]
        0x0000e4b2:    6801        .h      LDR      r1,[r0,#0]
        0x0000e4b4:    f36201c3    b...    BFI      r1,r2,#3,#1
        0x0000e4b8:    6001        .`      STR      r1,[r0,#0]
        0x0000e4ba:    e658        X.      B        0xe16e ; am_hal_cachectrl_control + 86
    $d
        0x0000e4bc:    40018000    ...@    DCD    1073840128
        0x0000e4c0:    40018100    ...@    DCD    1073840384
    $t
    i.am_hal_cachectrl_enable
    am_hal_cachectrl_enable
        0x0000e4c4:    4803        .H      LDR      r0,[pc,#12] ; [0xe4d4] = 0x40018000
        0x0000e4c6:    6801        .h      LDR      r1,[r0,#0]
        0x0000e4c8:    f0410101    A...    ORR      r1,r1,#1
        0x0000e4cc:    6001        .`      STR      r1,[r0,#0]
        0x0000e4ce:    2000        .       MOVS     r0,#0
        0x0000e4d0:    4770        pG      BX       lr
    $d
        0x0000e4d2:    0000        ..      DCW    0
        0x0000e4d4:    40018000    ...@    DCD    1073840128
    $t
    i.am_hal_clkgen_control
    am_hal_clkgen_control
        0x0000e4d8:    b510        ..      PUSH     {r4,lr}
        0x0000e4da:    460c        .F      MOV      r4,r1
        0x0000e4dc:    4939        9I      LDR      r1,[pc,#228] ; [0xe5c4] = 0x100138bc
        0x0000e4de:    680a        .h      LDR      r2,[r1,#0]
        0x0000e4e0:    b912        ..      CBNZ     r2,0xe4e8 ; am_hal_clkgen_control + 16
        0x0000e4e2:    4a39        9J      LDR      r2,[pc,#228] ; [0xe5c8] = 0x4ffff000
        0x0000e4e4:    6812        .h      LDR      r2,[r2,#0]
        0x0000e4e6:    600a        .`      STR      r2,[r1,#0]
        0x0000e4e8:    280a        .(      CMP      r0,#0xa
        0x0000e4ea:    d269        i.      BCS      0xe5c0 ; am_hal_clkgen_control + 232
        0x0000e4ec:    e8dff000    ....    TBB      [pc,r0]
    $d
        0x0000e4f0:    27151b05    ...'    DCD    655694597
        0x0000e4f4:    3a400c21    !.@:    DCD    977275937
        0x0000e4f8:    6047        G`      DCW    24647
    $t
        0x0000e4fa:    f04f2040    O.@     MOV      r0,#0x40004000
        0x0000e4fe:    2147        G!      MOVS     r1,#0x47
        0x0000e500:    6141        Aa      STR      r1,[r0,#0x14]
        0x0000e502:    2100        .!      MOVS     r1,#0
        0x0000e504:    6181        .a      STR      r1,[r0,#0x18]
        0x0000e506:    e006        ..      B        0xe516 ; am_hal_clkgen_control + 62
        0x0000e508:    f04f2040    O.@     MOV      r0,#0x40004000
        0x0000e50c:    2147        G!      MOVS     r1,#0x47
        0x0000e50e:    6141        Aa      STR      r1,[r0,#0x14]
        0x0000e510:    2101        .!      MOVS     r1,#1
        0x0000e512:    6181        .a      STR      r1,[r0,#0x18]
        0x0000e514:    2100        .!      MOVS     r1,#0
        0x0000e516:    6141        Aa      STR      r1,[r0,#0x14]
        0x0000e518:    e050        P.      B        0xe5bc ; am_hal_clkgen_control + 228
        0x0000e51a:    f04f2040    O.@     MOV      r0,#0x40004000
        0x0000e51e:    68c1        .h      LDR      r1,[r0,#0xc]
        0x0000e520:    f0210102    !...    BIC      r1,r1,#2
        0x0000e524:    e029        ).      B        0xe57a ; am_hal_clkgen_control + 162
        0x0000e526:    f04f2040    O.@     MOV      r0,#0x40004000
        0x0000e52a:    68c1        .h      LDR      r1,[r0,#0xc]
        0x0000e52c:    f0210101    !...    BIC      r1,r1,#1
        0x0000e530:    e023        #.      B        0xe57a ; am_hal_clkgen_control + 162
        0x0000e532:    f04f2040    O.@     MOV      r0,#0x40004000
        0x0000e536:    68c1        .h      LDR      r1,[r0,#0xc]
        0x0000e538:    f0410102    A...    ORR      r1,r1,#2
        0x0000e53c:    e01d        ..      B        0xe57a ; am_hal_clkgen_control + 162
        0x0000e53e:    4823        #H      LDR      r0,[pc,#140] ; [0xe5cc] = 0x40020000
        0x0000e540:    68c1        .h      LDR      r1,[r0,#0xc]
        0x0000e542:    b2c9        ..      UXTB     r1,r1
        0x0000e544:    2921        !)      CMP      r1,#0x21
        0x0000e546:    d107        ..      BNE      0xe558 ; am_hal_clkgen_control + 128
        0x0000e548:    f8d01120    .. .    LDR      r1,[r0,#0x120]
        0x0000e54c:    f4217140    !.@q    BIC      r1,r1,#0x300
        0x0000e550:    f5017180    ...q    ADD      r1,r1,#0x100
        0x0000e554:    f8c01120    .. .    STR      r1,[r0,#0x120]
        0x0000e558:    f04f2040    O.@     MOV      r0,#0x40004000
        0x0000e55c:    68c1        .h      LDR      r1,[r0,#0xc]
        0x0000e55e:    f0410101    A...    ORR      r1,r1,#1
        0x0000e562:    e00a        ..      B        0xe57a ; am_hal_clkgen_control + 162
        0x0000e564:    f04f2040    O.@     MOV      r0,#0x40004000
        0x0000e568:    68c1        .h      LDR      r1,[r0,#0xc]
        0x0000e56a:    f0410180    A...    ORR      r1,r1,#0x80
        0x0000e56e:    e004        ..      B        0xe57a ; am_hal_clkgen_control + 162
        0x0000e570:    f04f2040    O.@     MOV      r0,#0x40004000
        0x0000e574:    68c1        .h      LDR      r1,[r0,#0xc]
        0x0000e576:    f0210180    !...    BIC      r1,r1,#0x80
        0x0000e57a:    60c1        .`      STR      r1,[r0,#0xc]
        0x0000e57c:    e01e        ..      B        0xe5bc ; am_hal_clkgen_control + 228
        0x0000e57e:    4813        .H      LDR      r0,[pc,#76] ; [0xe5cc] = 0x40020000
        0x0000e580:    68c1        .h      LDR      r1,[r0,#0xc]
        0x0000e582:    b2c9        ..      UXTB     r1,r1
        0x0000e584:    2921        !)      CMP      r1,#0x21
        0x0000e586:    d309        ..      BCC      0xe59c ; am_hal_clkgen_control + 196
        0x0000e588:    f8d01120    .. .    LDR      r1,[r0,#0x120]
        0x0000e58c:    f4417140    A.@q    ORR      r1,r1,#0x300
        0x0000e590:    f8c01120    .. .    STR      r1,[r0,#0x120]
        0x0000e594:    f44f507a    O.zP    MOV      r0,#0x3e80
        0x0000e598:    f000f836    ..6.    BL       am_hal_flash_delay ; 0xe608
        0x0000e59c:    2c00        .,      CMP      r4,#0
        0x0000e59e:    bf0c        ..      ITE      EQ
        0x0000e5a0:    480b        .H      LDREQ    r0,[pc,#44] ; [0xe5d0] = 0x25b801
        0x0000e5a2:    6820         h      LDRNE    r0,[r4,#0]
        0x0000e5a4:    f0400001    @...    ORR      r0,r0,#1
        0x0000e5a8:    f04f2140    O.@!    MOV      r1,#0x40004000
        0x0000e5ac:    6208        .b      STR      r0,[r1,#0x20]
        0x0000e5ae:    e005        ..      B        0xe5bc ; am_hal_clkgen_control + 228
        0x0000e5b0:    f04f2040    O.@     MOV      r0,#0x40004000
        0x0000e5b4:    6a01        .j      LDR      r1,[r0,#0x20]
        0x0000e5b6:    f0210101    !...    BIC      r1,r1,#1
        0x0000e5ba:    6201        .b      STR      r1,[r0,#0x20]
        0x0000e5bc:    2000        .       MOVS     r0,#0
        0x0000e5be:    bd10        ..      POP      {r4,pc}
        0x0000e5c0:    2006        .       MOVS     r0,#6
        0x0000e5c2:    bd10        ..      POP      {r4,pc}
    $d
        0x0000e5c4:    100138bc    .8..    DCD    268515516
        0x0000e5c8:    4ffff000    ...O    DCD    1342173184
        0x0000e5cc:    40020000    ...@    DCD    1073872896
        0x0000e5d0:    0025b801    ..%.    DCD    2471937
    $t
    i.am_hal_clkgen_status_get
    am_hal_clkgen_status_get
        0x0000e5d4:    2800        .(      CMP      r0,#0
        0x0000e5d6:    bf04        ..      ITT      EQ
        0x0000e5d8:    2006        .       MOVEQ    r0,#6
        0x0000e5da:    4770        pG      BXEQ     lr
        0x0000e5dc:    f04f2140    O.@!    MOV      r1,#0x40004000
        0x0000e5e0:    698a        .i      LDR      r2,[r1,#0x18]
        0x0000e5e2:    f0120f01    ....    TST      r2,#1
        0x0000e5e6:    bf14        ..      ITE      NE
        0x0000e5e8:    4a05        .J      LDRNE    r2,[pc,#20] ; [0xe600] = 0x16e3600
        0x0000e5ea:    4a06        .J      LDREQ    r2,[pc,#24] ; [0xe604] = 0x2dc6c00
        0x0000e5ec:    6002        .`      STR      r2,[r0,#0]
        0x0000e5ee:    69c9        .i      LDR      r1,[r1,#0x1c]
        0x0000e5f0:    f0010201    ....    AND      r2,r1,#1
        0x0000e5f4:    f3c10140    ..@.    UBFX     r1,r1,#1,#1
        0x0000e5f8:    6042        B`      STR      r2,[r0,#4]
        0x0000e5fa:    7201        .r      STRB     r1,[r0,#8]
        0x0000e5fc:    2000        .       MOVS     r0,#0
        0x0000e5fe:    4770        pG      BX       lr
    $d
        0x0000e600:    016e3600    .6n.    DCD    24000000
        0x0000e604:    02dc6c00    .l..    DCD    48000000
    $t
    i.am_hal_flash_delay
    am_hal_flash_delay
        0x0000e608:    f04f2140    O.@!    MOV      r1,#0x40004000
        0x0000e60c:    6b49        Ik      LDR      r1,[r1,#0x34]
        0x0000e60e:    f0110f04    ....    TST      r1,#4
        0x0000e612:    bf1a        ..      ITTE     NE
        0x0000e614:    0040        @.      LSLNE    r0,r0,#1
        0x0000e616:    210e        .!      MOVNE    r1,#0xe
        0x0000e618:    210b        .!      MOVEQ    r1,#0xb
        0x0000e61a:    4288        .B      CMP      r0,r1
        0x0000e61c:    bf98        ..      IT       LS
        0x0000e61e:    4770        pG      BXLS     lr
        0x0000e620:    1a40        @.      SUBS     r0,r0,r1
        0x0000e622:    4901        .I      LDR      r1,[pc,#4] ; [0xe628] = 0x800009d
        0x0000e624:    4708        .G      BX       r1
    $d
        0x0000e626:    0000        ..      DCW    0
        0x0000e628:    0800009d    ....    DCD    134217885
    $t
    i.am_hal_flash_delay_status_check
    am_hal_flash_delay_status_check
        0x0000e62c:    e92d47f0    -..G    PUSH     {r4-r10,lr}
        0x0000e630:    f8dfa050    ..P.    LDR      r10,[pc,#80] ; [0xe684] = 0x800009d
        0x0000e634:    f8dd8020    .. .    LDR      r8,[sp,#0x20]
        0x0000e638:    461c        .F      MOV      r4,r3
        0x0000e63a:    4615        .F      MOV      r5,r2
        0x0000e63c:    460e        .F      MOV      r6,r1
        0x0000e63e:    4607        .F      MOV      r7,r0
        0x0000e640:    f04f2940    O.@)    MOV      r9,#0x40004000
        0x0000e644:    6830        0h      LDR      r0,[r6,#0]
        0x0000e646:    f1b80f00    ....    CMP      r8,#0
        0x0000e64a:    ea000005    ....    AND      r0,r0,r5
        0x0000e64e:    d002        ..      BEQ      0xe656 ; am_hal_flash_delay_status_check + 42
        0x0000e650:    42a0        .B      CMP      r0,r4
        0x0000e652:    d002        ..      BEQ      0xe65a ; am_hal_flash_delay_status_check + 46
        0x0000e654:    e004        ..      B        0xe660 ; am_hal_flash_delay_status_check + 52
        0x0000e656:    42a0        .B      CMP      r0,r4
        0x0000e658:    d002        ..      BEQ      0xe660 ; am_hal_flash_delay_status_check + 52
        0x0000e65a:    2000        .       MOVS     r0,#0
        0x0000e65c:    e8bd87f0    ....    POP      {r4-r10,pc}
        0x0000e660:    1e7f        ..      SUBS     r7,r7,#1
        0x0000e662:    d30b        ..      BCC      0xe67c ; am_hal_flash_delay_status_check + 80
        0x0000e664:    f8d91034    ..4.    LDR      r1,[r9,#0x34]
        0x0000e668:    2010        .       MOVS     r0,#0x10
        0x0000e66a:    f0110f04    ....    TST      r1,#4
        0x0000e66e:    bf1a        ..      ITTE     NE
        0x0000e670:    2020                MOVNE    r0,#0x20
        0x0000e672:    210e        .!      MOVNE    r1,#0xe
        0x0000e674:    210b        .!      MOVEQ    r1,#0xb
        0x0000e676:    1a40        @.      SUBS     r0,r0,r1
        0x0000e678:    47d0        .G      BLX      r10
        0x0000e67a:    e7e3        ..      B        0xe644 ; am_hal_flash_delay_status_check + 24
        0x0000e67c:    2004        .       MOVS     r0,#4
        0x0000e67e:    e8bd87f0    ....    POP      {r4-r10,pc}
    $d
        0x0000e682:    0000        ..      DCW    0
        0x0000e684:    0800009d    ....    DCD    134217885
    $t
    i.am_hal_flash_load_ui32
    am_hal_flash_load_ui32
        0x0000e688:    4900        .I      LDR      r1,[pc,#0] ; [0xe68c] = 0x8000075
        0x0000e68a:    4708        .G      BX       r1
    $d
        0x0000e68c:    08000075    u...    DCD    134217845
    $t
    i.am_hal_flash_store_ui32
    am_hal_flash_store_ui32
        0x0000e690:    b500        ..      PUSH     {lr}
        0x0000e692:    f8dfc020    .. .    LDR      r12,[pc,#32] ; [0xe6b4] = 0x11e8c
        0x0000e696:    b083        ..      SUB      sp,sp,#0xc
        0x0000e698:    e9dc2300    ...#    LDRD     r2,r3,[r12,#0]
        0x0000e69c:    f8dcc008    ....    LDR      r12,[r12,#8]
        0x0000e6a0:    e9cd2300    ...#    STRD     r2,r3,[sp,#0]
        0x0000e6a4:    466a        jF      MOV      r2,sp
        0x0000e6a6:    f8cdc008    ....    STR      r12,[sp,#8]
        0x0000e6aa:    f0420201    B...    ORR      r2,r2,#1
        0x0000e6ae:    4790        .G      BLX      r2
        0x0000e6b0:    b003        ..      ADD      sp,sp,#0xc
        0x0000e6b2:    bd00        ..      POP      {pc}
    $d
        0x0000e6b4:    00011e8c    ....    DCD    73356
    $t
    i.am_hal_gpio_pinconfig
    am_hal_gpio_pinconfig
        0x0000e6b8:    e92d4ff0    -..O    PUSH     {r4-r11,lr}
        0x0000e6bc:    2500        .%      MOVS     r5,#0
        0x0000e6be:    b08b        ..      SUB      sp,sp,#0x2c
        0x0000e6c0:    4604        .F      MOV      r4,r0
        0x0000e6c2:    284a        J(      CMP      r0,#0x4a
        0x0000e6c4:    bf22        ".      ITTT     CS
        0x0000e6c6:    2006        .       MOVCS    r0,#6
        0x0000e6c8:    b00b        ..      ADDCS    sp,sp,#0x2c
        0x0000e6ca:    e8bd8ff0    ....    POPCS    {r4-r11,pc}
        0x0000e6ce:    2200        ."      MOVS     r2,#0
        0x0000e6d0:    f0010c07    ....    AND      r12,r1,#7
        0x0000e6d4:    4f8b        .O      LDR      r7,[pc,#556] ; [0xe904] = 0x11ee6
        0x0000e6d6:    f3c103c1    ....    UBFX     r3,r1,#3,#2
        0x0000e6da:    ea4200cc    B...    ORR      r0,r2,r12,LSL #3
        0x0000e6de:    f0110fe0    ....    TST      r1,#0xe0
        0x0000e6e2:    d021        !.      BEQ      0xe728 ; am_hal_gpio_pinconfig + 112
        0x0000e6e4:    f3c11642    ..B.    UBFX     r6,r1,#5,#3
        0x0000e6e8:    f1a60902    ....    SUB      r9,r6,#2
        0x0000e6ec:    f8df8218    ....    LDR      r8,[pc,#536] ; [0xe908] = 0x8000100
        0x0000e6f0:    f0400001    @...    ORR      r0,r0,#1
        0x0000e6f4:    f1b90f03    ....    CMP      r9,#3
        0x0000e6f8:    d809        ..      BHI      0xe70e ; am_hal_gpio_pinconfig + 86
        0x0000e6fa:    f06f097f    o...    MVN      r9,#0x7f
        0x0000e6fe:    eb091686    ....    ADD      r6,r9,r6,LSL #6
        0x0000e702:    4330        0C      ORRS     r0,r0,r6
        0x0000e704:    5d3e        >]      LDRB     r6,[r7,r4]
        0x0000e706:    f0160f01    ....    TST      r6,#1
        0x0000e70a:    d10d        ..      BNE      0xe728 ; am_hal_gpio_pinconfig + 112
        0x0000e70c:    e012        ..      B        0xe734 ; am_hal_gpio_pinconfig + 124
        0x0000e70e:    2e06        ..      CMP      r6,#6
        0x0000e710:    d004        ..      BEQ      0xe71c ; am_hal_gpio_pinconfig + 100
        0x0000e712:    2e01        ..      CMP      r6,#1
        0x0000e714:    bf08        ..      IT       EQ
        0x0000e716:    2c14        .,      CMPEQ    r4,#0x14
        0x0000e718:    d00c        ..      BEQ      0xe734 ; am_hal_gpio_pinconfig + 124
        0x0000e71a:    e005        ..      B        0xe728 ; am_hal_gpio_pinconfig + 112
        0x0000e71c:    2c14        .,      CMP      r4,#0x14
        0x0000e71e:    bf1e        ..      ITTT     NE
        0x0000e720:    487a        zH      LDRNE    r0,[pc,#488] ; [0xe90c] = 0x8000101
        0x0000e722:    b00b        ..      ADDNE    sp,sp,#0x2c
        0x0000e724:    e8bd8ff0    ....    POPNE    {r4-r11,pc}
        0x0000e728:    b17b        {.      CBZ      r3,0xe74a ; am_hal_gpio_pinconfig + 146
        0x0000e72a:    2b01        .+      CMP      r3,#1
        0x0000e72c:    d006        ..      BEQ      0xe73c ; am_hal_gpio_pinconfig + 132
        0x0000e72e:    2b02        .+      CMP      r3,#2
        0x0000e730:    d022        ".      BEQ      0xe778 ; am_hal_gpio_pinconfig + 192
        0x0000e732:    e028        (.      B        0xe786 ; am_hal_gpio_pinconfig + 206
        0x0000e734:    b00b        ..      ADD      sp,sp,#0x2c
        0x0000e736:    4640        @F      MOV      r0,r8
        0x0000e738:    e8bd8ff0    ....    POP      {r4-r11,pc}
        0x0000e73c:    5d3b        ;]      LDRB     r3,[r7,r4]
        0x0000e73e:    f0130f02    ....    TST      r3,#2
        0x0000e742:    bf18        ..      IT       NE
        0x0000e744:    f0400040    @.@.    ORRNE    r0,r0,#0x40
        0x0000e748:    d01d        ..      BEQ      0xe786 ; am_hal_gpio_pinconfig + 206
        0x0000e74a:    4b71        qK      LDR      r3,[pc,#452] ; [0xe910] = 0x11e9c
        0x0000e74c:    5d1e        .]      LDRB     r6,[r3,r4]
        0x0000e74e:    2301        .#      MOVS     r3,#1
        0x0000e750:    fa03f30c    ....    LSL      r3,r3,r12
        0x0000e754:    4033        3@      ANDS     r3,r3,r6
        0x0000e756:    bf18        ..      IT       NE
        0x0000e758:    2302        .#      MOVNE    r3,#2
        0x0000e75a:    4318        .C      ORRS     r0,r0,r3
        0x0000e75c:    4b6d        mK      LDR      r3,[pc,#436] ; [0xe914] = 0x11f30
        0x0000e75e:    5d1b        .]      LDRB     r3,[r3,r4]
        0x0000e760:    4563        cE      CMP      r3,r12
        0x0000e762:    d13f        ?.      BNE      0xe7e4 ; am_hal_gpio_pinconfig + 300
        0x0000e764:    f8dfc1b0    ....    LDR      r12,[pc,#432] ; [0xe918] = 0x8000103
        0x0000e768:    f4113f80    ...?    TST      r1,#0x10000
        0x0000e76c:    f3c14342    ..BC    UBFX     r3,r1,#17,#3
        0x0000e770:    d00d        ..      BEQ      0xe78e ; am_hal_gpio_pinconfig + 214
        0x0000e772:    2b06        .+      CMP      r3,#6
        0x0000e774:    d20d        ..      BCS      0xe792 ; am_hal_gpio_pinconfig + 218
        0x0000e776:    e010        ..      B        0xe79a ; am_hal_gpio_pinconfig + 226
        0x0000e778:    5d3b        ;]      LDRB     r3,[r7,r4]
        0x0000e77a:    f0130f04    ....    TST      r3,#4
        0x0000e77e:    bf18        ..      IT       NE
        0x0000e780:    f0400080    @...    ORRNE    r0,r0,#0x80
        0x0000e784:    d1e1        ..      BNE      0xe74a ; am_hal_gpio_pinconfig + 146
        0x0000e786:    b00b        ..      ADD      sp,sp,#0x2c
        0x0000e788:    4864        dH      LDR      r0,[pc,#400] ; [0xe91c] = 0x8000102
        0x0000e78a:    e8bd8ff0    ....    POP      {r4-r11,pc}
        0x0000e78e:    2b03        .+      CMP      r3,#3
        0x0000e790:    d303        ..      BCC      0xe79a ; am_hal_gpio_pinconfig + 226
        0x0000e792:    b00b        ..      ADD      sp,sp,#0x2c
        0x0000e794:    4660        `F      MOV      r0,r12
        0x0000e796:    e8bd8ff0    ....    POP      {r4-r11,pc}
        0x0000e79a:    f3c14c00    ...L    UBFX     r12,r1,#16,#1
        0x0000e79e:    ea4f1ccc    O...    LSL      r12,r12,#7
        0x0000e7a2:    f3c15601    ...V    UBFX     r6,r1,#20,#2
        0x0000e7a6:    ea4c1c06    L...    ORR      r12,r12,r6,LSL #4
        0x0000e7aa:    ea4c0603    L...    ORR      r6,r12,r3
        0x0000e7ae:    f8dfc170    ..p.    LDR      r12,[pc,#368] ; [0xe920] = 0x11f7a
        0x0000e7b2:    2300        .#      MOVS     r3,#0
        0x0000e7b4:    eb0c0c84    ....    ADD      r12,r12,r4,LSL #2
        0x0000e7b8:    f81c7003    ...p    LDRB     r7,[r12,r3]
        0x0000e7bc:    42b7        .B      CMP      r7,r6
        0x0000e7be:    d003        ..      BEQ      0xe7c8 ; am_hal_gpio_pinconfig + 272
        0x0000e7c0:    1c5b        [.      ADDS     r3,r3,#1
        0x0000e7c2:    2b04        .+      CMP      r3,#4
        0x0000e7c4:    d3f8        ..      BCC      0xe7b8 ; am_hal_gpio_pinconfig + 256
        0x0000e7c6:    e001        ..      B        0xe7cc ; am_hal_gpio_pinconfig + 276
        0x0000e7c8:    2b04        .+      CMP      r3,#4
        0x0000e7ca:    d303        ..      BCC      0xe7d4 ; am_hal_gpio_pinconfig + 284
        0x0000e7cc:    b00b        ..      ADD      sp,sp,#0x2c
        0x0000e7ce:    4855        UH      LDR      r0,[pc,#340] ; [0xe924] = 0x8000104
        0x0000e7d0:    e8bd8ff0    ....    POP      {r4-r11,pc}
        0x0000e7d4:    005b        [.      LSLS     r3,r3,#1
        0x0000e7d6:    f3c15c80    ...\    UBFX     r12,r1,#22,#1
        0x0000e7da:    ea430ccc    C...    ORR      r12,r3,r12,LSL #3
        0x0000e7de:    ea4c0302    L...    ORR      r3,r12,r2
        0x0000e7e2:    e022        ".      B        0xe82a ; am_hal_gpio_pinconfig + 370
        0x0000e7e4:    f3c13300    ...3    UBFX     r3,r1,#12,#1
        0x0000e7e8:    f3c12c81    ...,    UBFX     r12,r1,#10,#2
        0x0000e7ec:    ea400043    @.C.    ORR      r0,r0,r3,LSL #1
        0x0000e7f0:    ea4f034c    O.L.    LSL      r3,r12,#1
        0x0000e7f4:    f3c13640    ..@6    UBFX     r6,r1,#13,#1
        0x0000e7f8:    ea4303c6    C...    ORR      r3,r3,r6,LSL #3
        0x0000e7fc:    f3c13641    ..A6    UBFX     r6,r1,#13,#2
        0x0000e800:    ea430356    C.V.    ORR      r3,r3,r6,LSR #1
        0x0000e804:    f1bc0f01    ....    CMP      r12,#1
        0x0000e808:    d005        ..      BEQ      0xe816 ; am_hal_gpio_pinconfig + 350
        0x0000e80a:    f8dfc11c    ....    LDR      r12,[pc,#284] ; [0xe928] = 0x11e98
        0x0000e80e:    f8dcc000    ....    LDR      r12,[r12,#0]
        0x0000e812:    4561        aE      CMP      r1,r12
        0x0000e814:    d100        ..      BNE      0xe818 ; am_hal_gpio_pinconfig + 352
        0x0000e816:    2501        .%      MOVS     r5,#1
        0x0000e818:    f4114fc0    ...O    TST      r1,#0x6000
        0x0000e81c:    d105        ..      BNE      0xe82a ; am_hal_gpio_pinconfig + 370
        0x0000e81e:    f0230301    #...    BIC      r3,r3,#1
        0x0000e822:    f3c13cc0    ...<    UBFX     r12,r1,#15,#1
        0x0000e826:    ea4c0303    L...    ORR      r3,r12,r3
        0x0000e82a:    f3c12101    ...!    UBFX     r1,r1,#8,#2
        0x0000e82e:    b179        y.      CBZ      r1,0xe850 ; am_hal_gpio_pinconfig + 408
        0x0000e830:    2901        .)      CMP      r1,#1
        0x0000e832:    bf08        ..      IT       EQ
        0x0000e834:    f0400004    @...    ORREQ    r0,r0,#4
        0x0000e838:    d00a        ..      BEQ      0xe850 ; am_hal_gpio_pinconfig + 408
        0x0000e83a:    2902        .)      CMP      r1,#2
        0x0000e83c:    bf08        ..      IT       EQ
        0x0000e83e:    f0420201    B...    ORREQ    r2,r2,#1
        0x0000e842:    d005        ..      BEQ      0xe850 ; am_hal_gpio_pinconfig + 408
        0x0000e844:    2903        .)      CMP      r1,#3
        0x0000e846:    bf04        ..      ITT      EQ
        0x0000e848:    f0400004    @...    ORREQ    r0,r0,#4
        0x0000e84c:    f0420201    B...    ORREQ    r2,r2,#1
        0x0000e850:    f06f0103    o...    MVN      r1,#3
        0x0000e854:    ea010c54    ..T.    AND      r12,r1,r4,LSR #1
        0x0000e858:    4934        4I      LDR      r1,[pc,#208] ; [0xe92c] = 0x4001004c
        0x0000e85a:    260f        .&      MOVS     r6,#0xf
        0x0000e85c:    eb0c0901    ....    ADD      r9,r12,r1
        0x0000e860:    f0240103    $...    BIC      r1,r4,#3
        0x0000e864:    f8dfc0c8    ....    LDR      r12,[pc,#200] ; [0xe930] = 0x400100f8
        0x0000e868:    f1014880    ...H    ADD      r8,r1,#0x40000000
        0x0000e86c:    eb01070c    ....    ADD      r7,r1,r12
        0x0000e870:    0761        a.      LSLS     r1,r4,#29
        0x0000e872:    ea4f6cd1    O..l    LSR      r12,r1,#27
        0x0000e876:    07a1        ..      LSLS     r1,r4,#30
        0x0000e878:    0ec9        ..      LSRS     r1,r1,#27
        0x0000e87a:    fa06f60c    ....    LSL      r6,r6,r12
        0x0000e87e:    ea6f0a06    o...    MVN      r10,r6
        0x0000e882:    26ff        .&      MOVS     r6,#0xff
        0x0000e884:    408e        .@      LSLS     r6,r6,r1
        0x0000e886:    4088        .@      LSLS     r0,r0,r1
        0x0000e888:    9000        ..      STR      r0,[sp,#0]
        0x0000e88a:    fa02f001    ....    LSL      r0,r2,r1
        0x0000e88e:    f5083880    ...8    ADD      r8,r8,#0x10000
        0x0000e892:    43f6        .C      MVNS     r6,r6
        0x0000e894:    fa03fb0c    ....    LSL      r11,r3,r12
        0x0000e898:    9002        ..      STR      r0,[sp,#8]
        0x0000e89a:    f7fdfd33    ..3.    BL       am_hal_interrupt_master_disable ; 0xc304
        0x0000e89e:    9003        ..      STR      r0,[sp,#0xc]
        0x0000e8a0:    b16d        m.      CBZ      r5,0xe8be ; am_hal_gpio_pinconfig + 518
        0x0000e8a2:    f004011f    ....    AND      r1,r4,#0x1f
        0x0000e8a6:    2001        .       MOVS     r0,#1
        0x0000e8a8:    fa00f101    ....    LSL      r1,r0,r1
        0x0000e8ac:    200c        .       MOVS     r0,#0xc
        0x0000e8ae:    ea0000d4    ....    AND      r0,r0,r4,LSR #3
        0x0000e8b2:    f1004080    ...@    ADD      r0,r0,#0x40000000
        0x0000e8b6:    f5003080    ...0    ADD      r0,r0,#0x10000
        0x0000e8ba:    f8c010c8    ....    STR      r1,[r0,#0xc8]
        0x0000e8be:    481d        .H      LDR      r0,[pc,#116] ; [0xe934] = 0x40010000
        0x0000e8c0:    2173        s!      MOVS     r1,#0x73
        0x0000e8c2:    6741        Ag      STR      r1,[r0,#0x74]
        0x0000e8c4:    f8d81000    ....    LDR      r1,[r8,#0]
        0x0000e8c8:    ea010206    ....    AND      r2,r1,r6
        0x0000e8cc:    9900        ..      LDR      r1,[sp,#0]
        0x0000e8ce:    4311        .C      ORRS     r1,r1,r2
        0x0000e8d0:    f8c81000    ....    STR      r1,[r8,#0]
        0x0000e8d4:    f8d91000    ....    LDR      r1,[r9,#0]
        0x0000e8d8:    ea01010a    ....    AND      r1,r1,r10
        0x0000e8dc:    ea41010b    A...    ORR      r1,r1,r11
        0x0000e8e0:    f8c91000    ....    STR      r1,[r9,#0]
        0x0000e8e4:    6839        9h      LDR      r1,[r7,#0]
        0x0000e8e6:    ea010206    ....    AND      r2,r1,r6
        0x0000e8ea:    9902        ..      LDR      r1,[sp,#8]
        0x0000e8ec:    4311        .C      ORRS     r1,r1,r2
        0x0000e8ee:    6039        9`      STR      r1,[r7,#0]
        0x0000e8f0:    2100        .!      MOVS     r1,#0
        0x0000e8f2:    6741        Ag      STR      r1,[r0,#0x74]
        0x0000e8f4:    9803        ..      LDR      r0,[sp,#0xc]
        0x0000e8f6:    f7fdfd09    ....    BL       am_hal_interrupt_master_set ; 0xc30c
        0x0000e8fa:    b00b        ..      ADD      sp,sp,#0x2c
        0x0000e8fc:    2000        .       MOVS     r0,#0
        0x0000e8fe:    e8bd8ff0    ....    POP      {r4-r11,pc}
    $d
        0x0000e902:    0000        ..      DCW    0
        0x0000e904:    00011ee6    ....    DCD    73446
        0x0000e908:    08000100    ....    DCD    134217984
        0x0000e90c:    08000101    ....    DCD    134217985
        0x0000e910:    00011e9c    ....    DCD    73372
        0x0000e914:    00011f30    0...    DCD    73520
        0x0000e918:    08000103    ....    DCD    134217987
        0x0000e91c:    08000102    ....    DCD    134217986
        0x0000e920:    00011f7a    z...    DCD    73594
        0x0000e924:    08000104    ....    DCD    134217988
        0x0000e928:    00011e98    ....    DCD    73368
        0x0000e92c:    4001004c    L..@    DCD    1073807436
        0x0000e930:    400100f8    ...@    DCD    1073807608
        0x0000e934:    40010000    ...@    DCD    1073807360
    $t
    i.am_hal_gpio_state_read
    am_hal_gpio_state_read
        0x0000e938:    f04f33ff    O..3    MOV      r3,#0xffffffff
        0x0000e93c:    b19a        ..      CBZ      r2,0xe966 ; am_hal_gpio_state_read + 46
        0x0000e93e:    284a        J(      CMP      r0,#0x4a
        0x0000e940:    bf22        ".      ITTT     CS
        0x0000e942:    6013        .`      STRCS    r3,[r2,#0]
        0x0000e944:    2005        .       MOVCS    r0,#5
        0x0000e946:    4770        pG      BXCS     lr
        0x0000e948:    f000031f    ....    AND      r3,r0,#0x1f
        0x0000e94c:    f04f0c0c    O...    MOV      r12,#0xc
        0x0000e950:    ea0c00d0    ....    AND      r0,r12,r0,LSR #3
        0x0000e954:    f1004080    ...@    ADD      r0,r0,#0x40000000
        0x0000e958:    f5003080    ...0    ADD      r0,r0,#0x10000
        0x0000e95c:    b129        ).      CBZ      r1,0xe96a ; am_hal_gpio_state_read + 50
        0x0000e95e:    2901        .)      CMP      r1,#1
        0x0000e960:    d009        ..      BEQ      0xe976 ; am_hal_gpio_state_read + 62
        0x0000e962:    2902        .)      CMP      r1,#2
        0x0000e964:    d00d        ..      BEQ      0xe982 ; am_hal_gpio_state_read + 74
        0x0000e966:    2006        .       MOVS     r0,#6
        0x0000e968:    4770        pG      BX       lr
        0x0000e96a:    f8d00080    ....    LDR      r0,[r0,#0x80]
        0x0000e96e:    40d8        .@      LSRS     r0,r0,r3
        0x0000e970:    f0000001    ....    AND      r0,r0,#1
        0x0000e974:    e00a        ..      B        0xe98c ; am_hal_gpio_state_read + 84
        0x0000e976:    f8d0008c    ....    LDR      r0,[r0,#0x8c]
        0x0000e97a:    40d8        .@      LSRS     r0,r0,r3
        0x0000e97c:    f0000001    ....    AND      r0,r0,#1
        0x0000e980:    e004        ..      B        0xe98c ; am_hal_gpio_state_read + 84
        0x0000e982:    f8d000b0    ....    LDR      r0,[r0,#0xb0]
        0x0000e986:    40d8        .@      LSRS     r0,r0,r3
        0x0000e988:    f0000001    ....    AND      r0,r0,#1
        0x0000e98c:    6010        .`      STR      r0,[r2,#0]
        0x0000e98e:    2000        .       MOVS     r0,#0
        0x0000e990:    4770        pG      BX       lr
    i.am_hal_gpio_state_write
    am_hal_gpio_state_write
        0x0000e992:    b5f8        ..      PUSH     {r3-r7,lr}
        0x0000e994:    2700        .'      MOVS     r7,#0
        0x0000e996:    460d        .F      MOV      r5,r1
        0x0000e998:    4606        .F      MOV      r6,r0
        0x0000e99a:    284a        J(      CMP      r0,#0x4a
        0x0000e99c:    bf24        $.      ITT      CS
        0x0000e99e:    2005        .       MOVCS    r0,#5
        0x0000e9a0:    bdf8        ..      POPCS    {r3-r7,pc}
        0x0000e9a2:    2d05        .-      CMP      r5,#5
        0x0000e9a4:    bf84        ..      ITT      HI
        0x0000e9a6:    2006        .       MOVHI    r0,#6
        0x0000e9a8:    bdf8        ..      POPHI    {r3-r7,pc}
        0x0000e9aa:    f006001f    ....    AND      r0,r6,#0x1f
        0x0000e9ae:    2101        .!      MOVS     r1,#1
        0x0000e9b0:    fa01f400    ....    LSL      r4,r1,r0
        0x0000e9b4:    f7fdfca6    ....    BL       am_hal_interrupt_master_disable ; 0xc304
        0x0000e9b8:    9000        ..      STR      r0,[sp,#0]
        0x0000e9ba:    200c        .       MOVS     r0,#0xc
        0x0000e9bc:    ea0000d6    ....    AND      r0,r0,r6,LSR #3
        0x0000e9c0:    f1004080    ...@    ADD      r0,r0,#0x40000000
        0x0000e9c4:    f5003080    ...0    ADD      r0,r0,#0x10000
        0x0000e9c8:    2d06        .-      CMP      r5,#6
        0x0000e9ca:    d21c        ..      BCS      0xea06 ; am_hal_gpio_state_write + 116
        0x0000e9cc:    e8dff005    ....    TBB      [pc,r5]
    $d
        0x0000e9d0:    12090306    ....    DCD    302580486
        0x0000e9d4:    150f        ..      DCW    5391
    $t
        0x0000e9d6:    f8c04098    ...@    STR      r4,[r0,#0x98]
        0x0000e9da:    e015        ..      B        0xea08 ; am_hal_gpio_state_write + 118
        0x0000e9dc:    f8c040a4    ...@    STR      r4,[r0,#0xa4]
        0x0000e9e0:    e012        ..      B        0xea08 ; am_hal_gpio_state_write + 118
        0x0000e9e2:    f8d0108c    ....    LDR      r1,[r0,#0x8c]
        0x0000e9e6:    4061        a@      EORS     r1,r1,r4
        0x0000e9e8:    f8c0108c    ....    STR      r1,[r0,#0x8c]
        0x0000e9ec:    e00c        ..      B        0xea08 ; am_hal_gpio_state_write + 118
        0x0000e9ee:    f8c040bc    ...@    STR      r4,[r0,#0xbc]
        0x0000e9f2:    e009        ..      B        0xea08 ; am_hal_gpio_state_write + 118
        0x0000e9f4:    f8c040c8    ...@    STR      r4,[r0,#0xc8]
        0x0000e9f8:    e006        ..      B        0xea08 ; am_hal_gpio_state_write + 118
        0x0000e9fa:    f8d010c8    ....    LDR      r1,[r0,#0xc8]
        0x0000e9fe:    4061        a@      EORS     r1,r1,r4
        0x0000ea00:    f8c010c8    ....    STR      r1,[r0,#0xc8]
        0x0000ea04:    e000        ..      B        0xea08 ; am_hal_gpio_state_write + 118
        0x0000ea06:    2706        .'      MOVS     r7,#6
        0x0000ea08:    9800        ..      LDR      r0,[sp,#0]
        0x0000ea0a:    f7fdfc7f    ....    BL       am_hal_interrupt_master_set ; 0xc30c
        0x0000ea0e:    4638        8F      MOV      r0,r7
        0x0000ea10:    bdf8        ..      POP      {r3-r7,pc}
        0x0000ea12:    0000        ..      MOVS     r0,r0
    i.am_hal_itm_enable
    am_hal_itm_enable
        0x0000ea14:    480a        .H      LDR      r0,[pc,#40] ; [0xea40] = 0xe000edfc
        0x0000ea16:    6801        .h      LDR      r1,[r0,#0]
        0x0000ea18:    f0417180    A..q    ORR      r1,r1,#0x1000000
        0x0000ea1c:    6001        .`      STR      r1,[r0,#0]
        0x0000ea1e:    6801        .h      LDR      r1,[r0,#0]
        0x0000ea20:    f0117f80    ....    TST      r1,#0x1000000
        0x0000ea24:    d0fb        ..      BEQ      0xea1e ; am_hal_itm_enable + 10
        0x0000ea26:    4908        .I      LDR      r1,[pc,#32] ; [0xea48] = 0xe0000fb0
        0x0000ea28:    4806        .H      LDR      r0,[pc,#24] ; [0xea44] = 0xc5acce55
        0x0000ea2a:    6008        .`      STR      r0,[r1,#0]
        0x0000ea2c:    4907        .I      LDR      r1,[pc,#28] ; [0xea4c] = 0xe0000e40
        0x0000ea2e:    200f        .       MOVS     r0,#0xf
        0x0000ea30:    6008        .`      STR      r0,[r1,#0]
        0x0000ea32:    1748        H.      ASRS     r0,r1,#29
        0x0000ea34:    4906        .I      LDR      r1,[pc,#24] ; [0xea50] = 0xe0000e00
        0x0000ea36:    6008        .`      STR      r0,[r1,#0]
        0x0000ea38:    4907        .I      LDR      r1,[pc,#28] ; [0xea58] = 0xe0000e80
        0x0000ea3a:    4806        .H      LDR      r0,[pc,#24] ; [0xea54] = 0x150511
        0x0000ea3c:    6008        .`      STR      r0,[r1,#0]
        0x0000ea3e:    4770        pG      BX       lr
    $d
        0x0000ea40:    e000edfc    ....    DCD    3758157308
        0x0000ea44:    c5acce55    U...    DCD    3316436565
        0x0000ea48:    e0000fb0    ....    DCD    3758100400
        0x0000ea4c:    e0000e40    @...    DCD    3758100032
        0x0000ea50:    e0000e00    ....    DCD    3758099968
        0x0000ea54:    00150511    ....    DCD    1377553
        0x0000ea58:    e0000e80    ....    DCD    3758100096
    $t
    i.am_hal_itm_print
    am_hal_itm_print
        0x0000ea5c:    7802        .x      LDRB     r2,[r0,#0]
        0x0000ea5e:    2100        .!      MOVS     r1,#0
        0x0000ea60:    2a00        .*      CMP      r2,#0
        0x0000ea62:    bf08        ..      IT       EQ
        0x0000ea64:    4770        pG      BXEQ     lr
        0x0000ea66:    1c49        I.      ADDS     r1,r1,#1
        0x0000ea68:    5c42        B\      LDRB     r2,[r0,r1]
        0x0000ea6a:    2a00        .*      CMP      r2,#0
        0x0000ea6c:    d1fb        ..      BNE      0xea66 ; am_hal_itm_print + 10
        0x0000ea6e:    2900        .)      CMP      r1,#0
        0x0000ea70:    bf08        ..      IT       EQ
        0x0000ea72:    4770        pG      BXEQ     lr
        0x0000ea74:    f810cb01    ....    LDRB     r12,[r0],#1
        0x0000ea78:    f04f4260    O.`B    MOV      r2,#0xe0000000
        0x0000ea7c:    6813        .h      LDR      r3,[r2,#0]
        0x0000ea7e:    2b00        .+      CMP      r3,#0
        0x0000ea80:    d0fc        ..      BEQ      0xea7c ; am_hal_itm_print + 32
        0x0000ea82:    f882c000    ....    STRB     r12,[r2,#0]
        0x0000ea86:    1e49        I.      SUBS     r1,r1,#1
        0x0000ea88:    d1f4        ..      BNE      0xea74 ; am_hal_itm_print + 24
        0x0000ea8a:    4770        pG      BX       lr
    i.am_hal_mcuctrl_info_get
    am_hal_mcuctrl_info_get
        0x0000ea8c:    b129        ).      CBZ      r1,0xea9a ; am_hal_mcuctrl_info_get + 14
        0x0000ea8e:    4a45        EJ      LDR      r2,[pc,#276] ; [0xeba4] = 0x40020000
        0x0000ea90:    b128        (.      CBZ      r0,0xea9e ; am_hal_mcuctrl_info_get + 18
        0x0000ea92:    2801        .(      CMP      r0,#1
        0x0000ea94:    d017        ..      BEQ      0xeac6 ; am_hal_mcuctrl_info_get + 58
        0x0000ea96:    2802        .(      CMP      r0,#2
        0x0000ea98:    d069        i.      BEQ      0xeb6e ; am_hal_mcuctrl_info_get + 226
        0x0000ea9a:    2006        .       MOVS     r0,#6
        0x0000ea9c:    4770        pG      BX       lr
        0x0000ea9e:    6990        .i      LDR      r0,[r2,#0x18]
        0x0000eaa0:    f3c01380    ....    UBFX     r3,r0,#6,#1
        0x0000eaa4:    700b        .p      STRB     r3,[r1,#0]
        0x0000eaa6:    f3c00080    ....    UBFX     r0,r0,#2,#1
        0x0000eaaa:    7048        Hp      STRB     r0,[r1,#1]
        0x0000eaac:    f8d201a0    ....    LDR      r0,[r2,#0x1a0]
        0x0000eab0:    f3c06081    ...`    UBFX     r0,r0,#26,#2
        0x0000eab4:    7108        .q      STRB     r0,[r1,#4]
        0x0000eab6:    6950        Pi      LDR      r0,[r2,#0x14]
        0x0000eab8:    f3c00240    ..@.    UBFX     r2,r0,#1,#1
        0x0000eabc:    708a        .p      STRB     r2,[r1,#2]
        0x0000eabe:    f0000001    ....    AND      r0,r0,#1
        0x0000eac2:    70c8        .p      STRB     r0,[r1,#3]
        0x0000eac4:    e06b        k.      B        0xeb9e ; am_hal_mcuctrl_info_get + 274
        0x0000eac6:    6810        .h      LDR      r0,[r2,#0]
        0x0000eac8:    6008        .`      STR      r0,[r1,#0]
        0x0000eaca:    6853        Sh      LDR      r3,[r2,#4]
        0x0000eacc:    604b        K`      STR      r3,[r1,#4]
        0x0000eace:    6893        .h      LDR      r3,[r2,#8]
        0x0000ead0:    608b        .`      STR      r3,[r1,#8]
        0x0000ead2:    68d3        .h      LDR      r3,[r2,#0xc]
        0x0000ead4:    60cb        .`      STR      r3,[r1,#0xc]
        0x0000ead6:    6913        .i      LDR      r3,[r2,#0x10]
        0x0000ead8:    610b        .a      STR      r3,[r1,#0x10]
        0x0000eada:    6952        Ri      LDR      r2,[r2,#0x14]
        0x0000eadc:    614a        Ja      STR      r2,[r1,#0x14]
        0x0000eade:    f0000201    ....    AND      r2,r0,#1
        0x0000eae2:    618a        .a      STR      r2,[r1,#0x18]
        0x0000eae4:    223c        <"      MOVS     r2,#0x3c
        0x0000eae6:    ea024390    ...C    AND      r3,r2,r0,LSR #18
        0x0000eaea:    f8dfc0bc    ....    LDR      r12,[pc,#188] ; [0xeba8] = 0x120ac
        0x0000eaee:    ea023090    ...0    AND      r0,r2,r0,LSR #14
        0x0000eaf2:    f10c0240    ..@.    ADD      r2,r12,#0x40
        0x0000eaf6:    f85c3003    \..0    LDR      r3,[r12,r3]
        0x0000eafa:    61cb        .a      STR      r3,[r1,#0x1c]
        0x0000eafc:    5810        .X      LDR      r0,[r2,r0]
        0x0000eafe:    6208        .b      STR      r0,[r1,#0x20]
        0x0000eb00:    482a        *H      LDR      r0,[pc,#168] ; [0xebac] = 0xf0000fe0
        0x0000eb02:    6800        .h      LDR      r0,[r0,#0]
        0x0000eb04:    4a2a        *J      LDR      r2,[pc,#168] ; [0xebb0] = 0xf0000fe4
        0x0000eb06:    b2c0        ..      UXTB     r0,r0
        0x0000eb08:    6248        Hb      STR      r0,[r1,#0x24]
        0x0000eb0a:    6813        .h      LDR      r3,[r2,#0]
        0x0000eb0c:    f003030f    ....    AND      r3,r3,#0xf
        0x0000eb10:    ea402003    @..     ORR      r0,r0,r3,LSL #8
        0x0000eb14:    6248        Hb      STR      r0,[r1,#0x24]
        0x0000eb16:    6810        .h      LDR      r0,[r2,#0]
        0x0000eb18:    1d12        ..      ADDS     r2,r2,#4
        0x0000eb1a:    f3c01003    ....    UBFX     r0,r0,#4,#4
        0x0000eb1e:    6288        .b      STR      r0,[r1,#0x28]
        0x0000eb20:    6813        .h      LDR      r3,[r2,#0]
        0x0000eb22:    f003030f    ....    AND      r3,r3,#0xf
        0x0000eb26:    ea401003    @...    ORR      r0,r0,r3,LSL #4
        0x0000eb2a:    6288        .b      STR      r0,[r1,#0x28]
        0x0000eb2c:    6810        .h      LDR      r0,[r2,#0]
        0x0000eb2e:    f3c01003    ....    UBFX     r0,r0,#4,#4
        0x0000eb32:    0100        ..      LSLS     r0,r0,#4
        0x0000eb34:    1d12        ..      ADDS     r2,r2,#4
        0x0000eb36:    62c8        .b      STR      r0,[r1,#0x2c]
        0x0000eb38:    6812        .h      LDR      r2,[r2,#0]
        0x0000eb3a:    f3c21203    ....    UBFX     r2,r2,#4,#4
        0x0000eb3e:    4310        .C      ORRS     r0,r0,r2
        0x0000eb40:    62c8        .b      STR      r0,[r1,#0x2c]
        0x0000eb42:    481c        .H      LDR      r0,[pc,#112] ; [0xebb4] = 0xf0000ffc
        0x0000eb44:    6800        .h      LDR      r0,[r0,#0]
        0x0000eb46:    4a1c        .J      LDR      r2,[pc,#112] ; [0xebb8] = 0xf0000ff8
        0x0000eb48:    0600        ..      LSLS     r0,r0,#24
        0x0000eb4a:    6308        .c      STR      r0,[r1,#0x30]
        0x0000eb4c:    6812        .h      LDR      r2,[r2,#0]
        0x0000eb4e:    b2d2        ..      UXTB     r2,r2
        0x0000eb50:    ea404002    @..@    ORR      r0,r0,r2,LSL #16
        0x0000eb54:    4a19        .J      LDR      r2,[pc,#100] ; [0xebbc] = 0xf0000ff4
        0x0000eb56:    6308        .c      STR      r0,[r1,#0x30]
        0x0000eb58:    6812        .h      LDR      r2,[r2,#0]
        0x0000eb5a:    b2d2        ..      UXTB     r2,r2
        0x0000eb5c:    ea402002    @..     ORR      r0,r0,r2,LSL #8
        0x0000eb60:    4a17        .J      LDR      r2,[pc,#92] ; [0xebc0] = 0xf0000ff0
        0x0000eb62:    6308        .c      STR      r0,[r1,#0x30]
        0x0000eb64:    6812        .h      LDR      r2,[r2,#0]
        0x0000eb66:    b2d2        ..      UXTB     r2,r2
        0x0000eb68:    4310        .C      ORRS     r0,r0,r2
        0x0000eb6a:    6308        .c      STR      r0,[r1,#0x30]
        0x0000eb6c:    e017        ..      B        0xeb9e ; am_hal_mcuctrl_info_get + 274
        0x0000eb6e:    f8d201cc    ....    LDR      r0,[r2,#0x1cc]
        0x0000eb72:    f0000301    ....    AND      r3,r0,#1
        0x0000eb76:    700b        .p      STRB     r3,[r1,#0]
        0x0000eb78:    f3c00340    ..@.    UBFX     r3,r0,#1,#1
        0x0000eb7c:    720b        .r      STRB     r3,[r1,#8]
        0x0000eb7e:    f3c00080    ....    UBFX     r0,r0,#2,#1
        0x0000eb82:    7408        .t      STRB     r0,[r1,#0x10]
        0x0000eb84:    f8d201c4    ....    LDR      r0,[r2,#0x1c4]
        0x0000eb88:    60c8        .`      STR      r0,[r1,#0xc]
        0x0000eb8a:    6848        Hh      LDR      r0,[r1,#4]
        0x0000eb8c:    f8d231c0    ...1    LDR      r3,[r2,#0x1c0]
        0x0000eb90:    4318        .C      ORRS     r0,r0,r3
        0x0000eb92:    6048        H`      STR      r0,[r1,#4]
        0x0000eb94:    6948        Hi      LDR      r0,[r1,#0x14]
        0x0000eb96:    f8d221c8    ...!    LDR      r2,[r2,#0x1c8]
        0x0000eb9a:    4310        .C      ORRS     r0,r0,r2
        0x0000eb9c:    6148        Ha      STR      r0,[r1,#0x14]
        0x0000eb9e:    2000        .       MOVS     r0,#0
        0x0000eba0:    4770        pG      BX       lr
    $d
        0x0000eba2:    0000        ..      DCW    0
        0x0000eba4:    40020000    ...@    DCD    1073872896
        0x0000eba8:    000120ac    . ..    DCD    73900
        0x0000ebac:    f0000fe0    ....    DCD    4026535904
        0x0000ebb0:    f0000fe4    ....    DCD    4026535908
        0x0000ebb4:    f0000ffc    ....    DCD    4026535932
        0x0000ebb8:    f0000ff8    ....    DCD    4026535928
        0x0000ebbc:    f0000ff4    ....    DCD    4026535924
        0x0000ebc0:    f0000ff0    ....    DCD    4026535920
    $t
    i.am_hal_pwrctrl_blebuck_trim
    am_hal_pwrctrl_blebuck_trim
        0x0000ebc4:    b538        8.      PUSH     {r3-r5,lr}
        0x0000ebc6:    4c11        .L      LDR      r4,[pc,#68] ; [0xec0c] = 0x40020000
        0x0000ebc8:    68e0        .h      LDR      r0,[r4,#0xc]
        0x0000ebca:    b2c0        ..      UXTB     r0,r0
        0x0000ebcc:    2812        .(      CMP      r0,#0x12
        0x0000ebce:    bf38        8.      IT       CC
        0x0000ebd0:    bd38        8.      POPCC    {r3-r5,pc}
        0x0000ebd2:    f7fdfb97    ....    BL       am_hal_interrupt_master_disable ; 0xc304
        0x0000ebd6:    9000        ..      STR      r0,[sp,#0]
        0x0000ebd8:    f8d40368    ..h.    LDR      r0,[r4,#0x368]
        0x0000ebdc:    f420607c     .|`    BIC      r0,r0,#0xfc0
        0x0000ebe0:    f50060c8    ...`    ADD      r0,r0,#0x640
        0x0000ebe4:    f8c40368    ..h.    STR      r0,[r4,#0x368]
        0x0000ebe8:    f8d40368    ..h.    LDR      r0,[r4,#0x368]
        0x0000ebec:    f020003f     .?.    BIC      r0,r0,#0x3f
        0x0000ebf0:    300c        .0      ADDS     r0,r0,#0xc
        0x0000ebf2:    f8c40368    ..h.    STR      r0,[r4,#0x368]
        0x0000ebf6:    f04f2040    O.@     MOV      r0,#0x40004000
        0x0000ebfa:    6bc1        .k      LDR      r1,[r0,#0x3c]
        0x0000ebfc:    f4210180    !...    BIC      r1,r1,#0x400000
        0x0000ec00:    63c1        .c      STR      r1,[r0,#0x3c]
        0x0000ec02:    9800        ..      LDR      r0,[sp,#0]
        0x0000ec04:    e8bd4038    ..8@    POP      {r3-r5,lr}
        0x0000ec08:    f7fdbb80    ....    B        am_hal_interrupt_master_set ; 0xc30c
    $d
        0x0000ec0c:    40020000    ...@    DCD    1073872896
    $t
    i.am_hal_pwrctrl_low_power_init
    am_hal_pwrctrl_low_power_init
        0x0000ec10:    b538        8.      PUSH     {r3-r5,lr}
        0x0000ec12:    483b        ;H      LDR      r0,[pc,#236] ; [0xed00] = 0x100138bc
        0x0000ec14:    6801        .h      LDR      r1,[r0,#0]
        0x0000ec16:    b911        ..      CBNZ     r1,0xec1e ; am_hal_pwrctrl_low_power_init + 14
        0x0000ec18:    493a        :I      LDR      r1,[pc,#232] ; [0xed04] = 0x4ffff000
        0x0000ec1a:    6809        .h      LDR      r1,[r1,#0]
        0x0000ec1c:    6001        .`      STR      r1,[r0,#0]
        0x0000ec1e:    4c3a        :L      LDR      r4,[pc,#232] ; [0xed08] = 0x40020000
        0x0000ec20:    68e0        .h      LDR      r0,[r4,#0xc]
        0x0000ec22:    b2c0        ..      UXTB     r0,r0
        0x0000ec24:    2821        !(      CMP      r0,#0x21
        0x0000ec26:    d33c        <.      BCC      0xeca2 ; am_hal_pwrctrl_low_power_init + 146
        0x0000ec28:    f8d40354    ..T.    LDR      r0,[r4,#0x354]
        0x0000ec2c:    f4202070     .p     BIC      r0,r0,#0xf0000
        0x0000ec30:    f5003000    ...0    ADD      r0,r0,#0x20000
        0x0000ec34:    f8c40354    ..T.    STR      r0,[r4,#0x354]
        0x0000ec38:    f8d40354    ..T.    LDR      r0,[r4,#0x354]
        0x0000ec3c:    f4200070     .p.    BIC      r0,r0,#0xf00000
        0x0000ec40:    f5001040    ..@.    ADD      r0,r0,#0x300000
        0x0000ec44:    f8c40354    ..T.    STR      r0,[r4,#0x354]
        0x0000ec48:    f8d40358    ..X.    LDR      r0,[r4,#0x358]
        0x0000ec4c:    f020000f     ...    BIC      r0,r0,#0xf
        0x0000ec50:    1d40        @.      ADDS     r0,r0,#5
        0x0000ec52:    f8c40358    ..X.    STR      r0,[r4,#0x358]
        0x0000ec56:    f8d40358    ..X.    LDR      r0,[r4,#0x358]
        0x0000ec5a:    f02000f0     ...    BIC      r0,r0,#0xf0
        0x0000ec5e:    3020         0      ADDS     r0,r0,#0x20
        0x0000ec60:    f8c40358    ..X.    STR      r0,[r4,#0x358]
        0x0000ec64:    f8d40358    ..X.    LDR      r0,[r4,#0x358]
        0x0000ec68:    f4206070     .p`    BIC      r0,r0,#0xf00
        0x0000ec6c:    f50060c0    ...`    ADD      r0,r0,#0x600
        0x0000ec70:    f8c40358    ..X.    STR      r0,[r4,#0x358]
        0x0000ec74:    f8d40358    ..X.    LDR      r0,[r4,#0x358]
        0x0000ec78:    f4204070     .p@    BIC      r0,r0,#0xf000
        0x0000ec7c:    f5005080    ...P    ADD      r0,r0,#0x1000
        0x0000ec80:    f8c40358    ..X.    STR      r0,[r4,#0x358]
        0x0000ec84:    f8d40358    ..X.    LDR      r0,[r4,#0x358]
        0x0000ec88:    f02040f0     ..@    BIC      r0,r0,#0x78000000
        0x0000ec8c:    f10050c0    ...P    ADD      r0,r0,#0x18000000
        0x0000ec90:    f8c40358    ..X.    STR      r0,[r4,#0x358]
        0x0000ec94:    f8d4035c    ..\.    LDR      r0,[r4,#0x35c]
        0x0000ec98:    f020000f     ...    BIC      r0,r0,#0xf
        0x0000ec9c:    1cc0        ..      ADDS     r0,r0,#3
        0x0000ec9e:    f8c4035c    ..\.    STR      r0,[r4,#0x35c]
        0x0000eca2:    68e0        .h      LDR      r0,[r4,#0xc]
        0x0000eca4:    b2c0        ..      UXTB     r0,r0
        0x0000eca6:    2812        .(      CMP      r0,#0x12
        0x0000eca8:    d305        ..      BCC      0xecb6 ; am_hal_pwrctrl_low_power_init + 166
        0x0000ecaa:    f8d4035c    ..\.    LDR      r0,[r4,#0x35c]
        0x0000ecae:    f0207080     ..p    BIC      r0,r0,#0x1000000
        0x0000ecb2:    f8c4035c    ..\.    STR      r0,[r4,#0x35c]
        0x0000ecb6:    2100        .!      MOVS     r1,#0
        0x0000ecb8:    200c        .       MOVS     r0,#0xc
        0x0000ecba:    f7fffa2d    ..-.    BL       am_hal_cachectrl_control ; 0xe118
        0x0000ecbe:    4d13        .M      LDR      r5,[pc,#76] ; [0xed0c] = 0x40021000
        0x0000ecc0:    69a8        .i      LDR      r0,[r5,#0x18]
        0x0000ecc2:    f4107f80    ....    TST      r0,#0x100
        0x0000ecc6:    d118        ..      BNE      0xecfa ; am_hal_pwrctrl_low_power_init + 234
        0x0000ecc8:    69a0        .i      LDR      r0,[r4,#0x18]
        0x0000ecca:    f0400001    @...    ORR      r0,r0,#1
        0x0000ecce:    61a0        .a      STR      r0,[r4,#0x18]
        0x0000ecd0:    2001        .       MOVS     r0,#1
        0x0000ecd2:    2307        .#      MOVS     r3,#7
        0x0000ecd4:    9000        ..      STR      r0,[sp,#0]
        0x0000ecd6:    461a        .F      MOV      r2,r3
        0x0000ecd8:    490d        .I      LDR      r1,[pc,#52] ; [0xed10] = 0x40020018
        0x0000ecda:    f2427010    B..p    MOV      r0,#0x2710
        0x0000ecde:    f7fffca5    ....    BL       am_hal_flash_delay_status_check ; 0xe62c
        0x0000ece2:    2800        .(      CMP      r0,#0
        0x0000ece4:    bf1c        ..      ITT      NE
        0x0000ece6:    2004        .       MOVNE    r0,#4
        0x0000ece8:    bd38        8.      POPNE    {r3-r5,pc}
        0x0000ecea:    6828        (h      LDR      r0,[r5,#0]
        0x0000ecec:    f0400001    @...    ORR      r0,r0,#1
        0x0000ecf0:    6028        (`      STR      r0,[r5,#0]
        0x0000ecf2:    6a68        hj      LDR      r0,[r5,#0x24]
        0x0000ecf4:    f0400040    @.@.    ORR      r0,r0,#0x40
        0x0000ecf8:    6268        hb      STR      r0,[r5,#0x24]
        0x0000ecfa:    2000        .       MOVS     r0,#0
        0x0000ecfc:    bd38        8.      POP      {r3-r5,pc}
    $d
        0x0000ecfe:    0000        ..      DCW    0
        0x0000ed00:    100138bc    .8..    DCD    268515516
        0x0000ed04:    4ffff000    ...O    DCD    1342173184
        0x0000ed08:    40020000    ...@    DCD    1073872896
        0x0000ed0c:    40021000    ...@    DCD    1073876992
        0x0000ed10:    40020018    ...@    DCD    1073872920
    $t
    i.am_hal_pwrctrl_memory_enable
    am_hal_pwrctrl_memory_enable
        0x0000ed14:    e92d41f0    -..A    PUSH     {r4-r8,lr}
        0x0000ed18:    4917        .I      LDR      r1,[pc,#92] ; [0xed78] = 0x121f8
        0x0000ed1a:    eb000240    ..@.    ADD      r2,r0,r0,LSL #1
        0x0000ed1e:    eb0106c2    ....    ADD      r6,r1,r2,LSL #3
        0x0000ed22:    f8515032    Q.2P    LDR      r5,[r1,r2,LSL #3]
        0x0000ed26:    e9d61703    ....    LDRD     r1,r7,[r6,#0xc]
        0x0000ed2a:    4c14        .L      LDR      r4,[pc,#80] ; [0xed7c] = 0x40021000
        0x0000ed2c:    43e8        .C      MVNS     r0,r5
        0x0000ed2e:    d009        ..      BEQ      0xed44 ; am_hal_pwrctrl_memory_enable + 48
        0x0000ed30:    6922        "i      LDR      r2,[r4,#0x10]
        0x0000ed32:    4008        .@      ANDS     r0,r0,r1
        0x0000ed34:    1461        a.      ASRS     r1,r4,#17
        0x0000ed36:    ea610000    a...    ORN      r0,r1,r0
        0x0000ed3a:    4010        .@      ANDS     r0,r0,r2
        0x0000ed3c:    6120         a      STR      r0,[r4,#0x10]
        0x0000ed3e:    2010        .       MOVS     r0,#0x10
        0x0000ed40:    f7fffc62    ..b.    BL       am_hal_flash_delay ; 0xe608
        0x0000ed44:    b175        u.      CBZ      r5,0xed64 ; am_hal_pwrctrl_memory_enable + 80
        0x0000ed46:    6920         i      LDR      r0,[r4,#0x10]
        0x0000ed48:    4328        (C      ORRS     r0,r0,r5
        0x0000ed4a:    6120         a      STR      r0,[r4,#0x10]
        0x0000ed4c:    2500        .%      MOVS     r5,#0
        0x0000ed4e:    20a0        .       MOVS     r0,#0xa0
        0x0000ed50:    f7fffc5a    ..Z.    BL       am_hal_flash_delay ; 0xe608
        0x0000ed54:    6960        `i      LDR      r0,[r4,#0x14]
        0x0000ed56:    6871        qh      LDR      r1,[r6,#4]
        0x0000ed58:    4038        8@      ANDS     r0,r0,r7
        0x0000ed5a:    4288        .B      CMP      r0,r1
        0x0000ed5c:    bf1c        ..      ITT      NE
        0x0000ed5e:    350a        .5      ADDNE    r5,r5,#0xa
        0x0000ed60:    2d14        .-      CMPNE    r5,#0x14
        0x0000ed62:    d3f4        ..      BCC      0xed4e ; am_hal_pwrctrl_memory_enable + 58
        0x0000ed64:    6960        `i      LDR      r0,[r4,#0x14]
        0x0000ed66:    6871        qh      LDR      r1,[r6,#4]
        0x0000ed68:    4038        8@      ANDS     r0,r0,r7
        0x0000ed6a:    4288        .B      CMP      r0,r1
        0x0000ed6c:    bf0c        ..      ITE      EQ
        0x0000ed6e:    2000        .       MOVEQ    r0,#0
        0x0000ed70:    2001        .       MOVNE    r0,#1
        0x0000ed72:    e8bd81f0    ....    POP      {r4-r8,pc}
    $d
        0x0000ed76:    0000        ..      DCW    0
        0x0000ed78:    000121f8    .!..    DCD    74232
        0x0000ed7c:    40021000    ...@    DCD    1073876992
    $t
    i.am_hal_pwrctrl_periph_disable
    am_hal_pwrctrl_periph_disable
        0x0000ed80:    b5f8        ..      PUSH     {r3-r7,lr}
        0x0000ed82:    4605        .F      MOV      r5,r0
        0x0000ed84:    f7fdfabe    ....    BL       am_hal_interrupt_master_disable ; 0xc304
        0x0000ed88:    4c0f        .L      LDR      r4,[pc,#60] ; [0xedc8] = 0x40021000
        0x0000ed8a:    9000        ..      STR      r0,[sp,#0]
        0x0000ed8c:    68a0        .h      LDR      r0,[r4,#8]
        0x0000ed8e:    4e0f        .N      LDR      r6,[pc,#60] ; [0xedcc] = 0x1212c
        0x0000ed90:    eb050745    ..E.    ADD      r7,r5,r5,LSL #1
        0x0000ed94:    f8561027    V.'.    LDR      r1,[r6,r7,LSL #2]
        0x0000ed98:    4388        .C      BICS     r0,r0,r1
        0x0000ed9a:    60a0        .`      STR      r0,[r4,#8]
        0x0000ed9c:    9800        ..      LDR      r0,[sp,#0]
        0x0000ed9e:    f7fdfab5    ....    BL       am_hal_interrupt_master_set ; 0xc30c
        0x0000eda2:    2500        .%      MOVS     r5,#0
        0x0000eda4:    eb060687    ....    ADD      r6,r6,r7,LSL #2
        0x0000eda8:    20a0        .       MOVS     r0,#0xa0
        0x0000edaa:    f7fffc2d    ..-.    BL       am_hal_flash_delay ; 0xe608
        0x0000edae:    69a0        .i      LDR      r0,[r4,#0x18]
        0x0000edb0:    6871        qh      LDR      r1,[r6,#4]
        0x0000edb2:    4208        .B      TST      r0,r1
        0x0000edb4:    d002        ..      BEQ      0xedbc ; am_hal_pwrctrl_periph_disable + 60
        0x0000edb6:    350a        .5      ADDS     r5,r5,#0xa
        0x0000edb8:    2d14        .-      CMP      r5,#0x14
        0x0000edba:    d3f5        ..      BCC      0xeda8 ; am_hal_pwrctrl_periph_disable + 40
        0x0000edbc:    69a0        .i      LDR      r0,[r4,#0x18]
        0x0000edbe:    4008        .@      ANDS     r0,r0,r1
        0x0000edc0:    bf18        ..      IT       NE
        0x0000edc2:    2001        .       MOVNE    r0,#1
        0x0000edc4:    bdf8        ..      POP      {r3-r7,pc}
    $d
        0x0000edc6:    0000        ..      DCW    0
        0x0000edc8:    40021000    ...@    DCD    1073876992
        0x0000edcc:    0001212c    ,!..    DCD    74028
    $t
    i.am_hal_pwrctrl_periph_enable
    am_hal_pwrctrl_periph_enable
        0x0000edd0:    b5f8        ..      PUSH     {r3-r7,lr}
        0x0000edd2:    4605        .F      MOV      r5,r0
        0x0000edd4:    f7fdfa96    ....    BL       am_hal_interrupt_master_disable ; 0xc304
        0x0000edd8:    4c0f        .L      LDR      r4,[pc,#60] ; [0xee18] = 0x40021000
        0x0000edda:    9000        ..      STR      r0,[sp,#0]
        0x0000eddc:    68a0        .h      LDR      r0,[r4,#8]
        0x0000edde:    4e0f        .N      LDR      r6,[pc,#60] ; [0xee1c] = 0x1212c
        0x0000ede0:    eb050745    ..E.    ADD      r7,r5,r5,LSL #1
        0x0000ede4:    f8561027    V.'.    LDR      r1,[r6,r7,LSL #2]
        0x0000ede8:    4308        .C      ORRS     r0,r0,r1
        0x0000edea:    60a0        .`      STR      r0,[r4,#8]
        0x0000edec:    9800        ..      LDR      r0,[sp,#0]
        0x0000edee:    f7fdfa8d    ....    BL       am_hal_interrupt_master_set ; 0xc30c
        0x0000edf2:    2500        .%      MOVS     r5,#0
        0x0000edf4:    eb060687    ....    ADD      r6,r6,r7,LSL #2
        0x0000edf8:    20a0        .       MOVS     r0,#0xa0
        0x0000edfa:    f7fffc05    ....    BL       am_hal_flash_delay ; 0xe608
        0x0000edfe:    69a0        .i      LDR      r0,[r4,#0x18]
        0x0000ee00:    6871        qh      LDR      r1,[r6,#4]
        0x0000ee02:    4208        .B      TST      r0,r1
        0x0000ee04:    d102        ..      BNE      0xee0c ; am_hal_pwrctrl_periph_enable + 60
        0x0000ee06:    350a        .5      ADDS     r5,r5,#0xa
        0x0000ee08:    2d14        .-      CMP      r5,#0x14
        0x0000ee0a:    d3f5        ..      BCC      0xedf8 ; am_hal_pwrctrl_periph_enable + 40
        0x0000ee0c:    69a0        .i      LDR      r0,[r4,#0x18]
        0x0000ee0e:    4208        .B      TST      r0,r1
        0x0000ee10:    bf14        ..      ITE      NE
        0x0000ee12:    2000        .       MOVNE    r0,#0
        0x0000ee14:    2001        .       MOVEQ    r0,#1
        0x0000ee16:    bdf8        ..      POP      {r3-r7,pc}
    $d
        0x0000ee18:    40021000    ...@    DCD    1073876992
        0x0000ee1c:    0001212c    ,!..    DCD    74028
    $t
    i.am_hal_queue_init
    am_hal_queue_init
        0x0000ee20:    f04f0c00    O...    MOV      r12,#0
        0x0000ee24:    f8c0c000    ....    STR      r12,[r0,#0]
        0x0000ee28:    f8c0c004    ....    STR      r12,[r0,#4]
        0x0000ee2c:    e9c02104    ...!    STRD     r2,r1,[r0,#0x10]
        0x0000ee30:    e9c0c302    ....    STRD     r12,r3,[r0,#8]
        0x0000ee34:    4770        pG      BX       lr
    i.am_hal_rtc_osc_disable
    am_hal_rtc_osc_disable
        0x0000ee36:    f04f2040    O.@     MOV      r0,#0x40004000
        0x0000ee3a:    f8d01250    ..P.    LDR      r1,[r0,#0x250]
        0x0000ee3e:    f0410110    A...    ORR      r1,r1,#0x10
        0x0000ee42:    f8c01250    ..P.    STR      r1,[r0,#0x250]
        0x0000ee46:    4770        pG      BX       lr
    i.am_hal_stimer_compare_delta_set
    am_hal_stimer_compare_delta_set
        0x0000ee48:    2807        .(      CMP      r0,#7
        0x0000ee4a:    bf88        ..      IT       HI
        0x0000ee4c:    4770        pG      BXHI     lr
        0x0000ee4e:    b5f8        ..      PUSH     {r3-r7,lr}
        0x0000ee50:    460c        .F      MOV      r4,r1
        0x0000ee52:    4605        .F      MOV      r5,r0
        0x0000ee54:    f7fdfa56    ..V.    BL       am_hal_interrupt_master_disable ; 0xc304
        0x0000ee58:    4925        %I      LDR      r1,[pc,#148] ; [0xeef0] = 0x40008000
        0x0000ee5a:    9000        ..      STR      r0,[sp,#0]
        0x0000ee5c:    f8d16140    ..@a    LDR      r6,[r1,#0x140]
        0x0000ee60:    f8d12140    ..@!    LDR      r2,[r1,#0x140]
        0x0000ee64:    1588        ..      ASRS     r0,r1,#22
        0x0000ee66:    fa00fc05    ....    LSL      r12,r0,r5
        0x0000ee6a:    ea22000c    "...    BIC      r0,r2,r12
        0x0000ee6e:    f8c10140    ..@.    STR      r0,[r1,#0x140]
        0x0000ee72:    f8d10144    ..D.    LDR      r0,[r1,#0x144]
        0x0000ee76:    1902        ..      ADDS     r2,r0,r4
        0x0000ee78:    00a8        ..      LSLS     r0,r5,#2
        0x0000ee7a:    4408        .D      ADD      r0,r0,r1
        0x0000ee7c:    f102070a    ....    ADD      r7,r2,#0xa
        0x0000ee80:    f8c04150    ..PA    STR      r4,[r0,#0x150]
        0x0000ee84:    f8d03150    ..P1    LDR      r3,[r0,#0x150]
        0x0000ee88:    1a9a        ..      SUBS     r2,r3,r2
        0x0000ee8a:    d402        ..      BMI      0xee92 ; am_hal_stimer_compare_delta_set + 74
        0x0000ee8c:    1bda        ..      SUBS     r2,r3,r7
        0x0000ee8e:    2a00        .*      CMP      r2,#0
        0x0000ee90:    dd21        !.      BLE      0xeed6 ; am_hal_stimer_compare_delta_set + 142
        0x0000ee92:    f8d12144    ..D!    LDR      r2,[r1,#0x144]
        0x0000ee96:    f8c04150    ..PA    STR      r4,[r0,#0x150]
        0x0000ee9a:    4422        "D      ADD      r2,r2,r4
        0x0000ee9c:    f102050a    ....    ADD      r5,r2,#0xa
        0x0000eea0:    f8d03150    ..P1    LDR      r3,[r0,#0x150]
        0x0000eea4:    1a9a        ..      SUBS     r2,r3,r2
        0x0000eea6:    d402        ..      BMI      0xeeae ; am_hal_stimer_compare_delta_set + 102
        0x0000eea8:    1b5a        Z.      SUBS     r2,r3,r5
        0x0000eeaa:    2a00        .*      CMP      r2,#0
        0x0000eeac:    dd13        ..      BLE      0xeed6 ; am_hal_stimer_compare_delta_set + 142
        0x0000eeae:    f8d12144    ..D!    LDR      r2,[r1,#0x144]
        0x0000eeb2:    f8c04150    ..PA    STR      r4,[r0,#0x150]
        0x0000eeb6:    4422        "D      ADD      r2,r2,r4
        0x0000eeb8:    f102050a    ....    ADD      r5,r2,#0xa
        0x0000eebc:    f8d03150    ..P1    LDR      r3,[r0,#0x150]
        0x0000eec0:    1a9a        ..      SUBS     r2,r3,r2
        0x0000eec2:    d402        ..      BMI      0xeeca ; am_hal_stimer_compare_delta_set + 130
        0x0000eec4:    1b5a        Z.      SUBS     r2,r3,r5
        0x0000eec6:    2a00        .*      CMP      r2,#0
        0x0000eec8:    dd05        ..      BLE      0xeed6 ; am_hal_stimer_compare_delta_set + 142
        0x0000eeca:    f8d12144    ..D!    LDR      r2,[r1,#0x144]
        0x0000eece:    f8c04150    ..PA    STR      r4,[r0,#0x150]
        0x0000eed2:    f8d00150    ..P.    LDR      r0,[r0,#0x150]
        0x0000eed6:    f8d10140    ..@.    LDR      r0,[r1,#0x140]
        0x0000eeda:    ea0c0206    ....    AND      r2,r12,r6
        0x0000eede:    4310        .C      ORRS     r0,r0,r2
        0x0000eee0:    f8c10140    ..@.    STR      r0,[r1,#0x140]
        0x0000eee4:    9800        ..      LDR      r0,[sp,#0]
        0x0000eee6:    e8bd40f8    ...@    POP      {r3-r7,lr}
        0x0000eeea:    f7fdba0f    ....    B        am_hal_interrupt_master_set ; 0xc30c
    $d
        0x0000eeee:    0000        ..      DCW    0
        0x0000eef0:    40008000    ...@    DCD    1073774592
    $t
    i.am_hal_stimer_config
    am_hal_stimer_config
        0x0000eef4:    4903        .I      LDR      r1,[pc,#12] ; [0xef04] = 0x40008000
        0x0000eef6:    f8d12140    ..@!    LDR      r2,[r1,#0x140]
        0x0000eefa:    f8c10140    ..@.    STR      r0,[r1,#0x140]
        0x0000eefe:    4610        .F      MOV      r0,r2
        0x0000ef00:    4770        pG      BX       lr
    $d
        0x0000ef02:    0000        ..      DCW    0
        0x0000ef04:    40008000    ...@    DCD    1073774592
    $t
    i.am_hal_stimer_counter_get
    am_hal_stimer_counter_get
        0x0000ef08:    4801        .H      LDR      r0,[pc,#4] ; [0xef10] = 0x40008000
        0x0000ef0a:    f8d00144    ..D.    LDR      r0,[r0,#0x144]
        0x0000ef0e:    4770        pG      BX       lr
    $d
        0x0000ef10:    40008000    ...@    DCD    1073774592
    $t
    i.am_hal_stimer_int_clear
    am_hal_stimer_int_clear
        0x0000ef14:    4901        .I      LDR      r1,[pc,#4] ; [0xef1c] = 0x40008000
        0x0000ef16:    f8c10308    ....    STR      r0,[r1,#0x308]
        0x0000ef1a:    4770        pG      BX       lr
    $d
        0x0000ef1c:    40008000    ...@    DCD    1073774592
    $t
    i.am_hal_stimer_int_enable
    am_hal_stimer_int_enable
        0x0000ef20:    4903        .I      LDR      r1,[pc,#12] ; [0xef30] = 0x40008000
        0x0000ef22:    f8d12300    ...#    LDR      r2,[r1,#0x300]
        0x0000ef26:    4310        .C      ORRS     r0,r0,r2
        0x0000ef28:    f8c10300    ....    STR      r0,[r1,#0x300]
        0x0000ef2c:    4770        pG      BX       lr
    $d
        0x0000ef2e:    0000        ..      DCW    0
        0x0000ef30:    40008000    ...@    DCD    1073774592
    $t
    i.am_hal_stimer_int_status_get
    am_hal_stimer_int_status_get
        0x0000ef34:    4904        .I      LDR      r1,[pc,#16] ; [0xef48] = 0x40008000
        0x0000ef36:    0002        ..      MOVS     r2,r0
        0x0000ef38:    f8d10304    ....    LDR      r0,[r1,#0x304]
        0x0000ef3c:    bf1c        ..      ITT      NE
        0x0000ef3e:    f8d11300    ....    LDRNE    r1,[r1,#0x300]
        0x0000ef42:    4008        .@      ANDNE    r0,r0,r1
        0x0000ef44:    4770        pG      BX       lr
    $d
        0x0000ef46:    0000        ..      DCW    0
        0x0000ef48:    40008000    ...@    DCD    1073774592
    $t
    i.am_hal_sysctrl_fpu_enable
    am_hal_sysctrl_fpu_enable
        0x0000ef4c:    4902        .I      LDR      r1,[pc,#8] ; [0xef58] = 0xe000ed88
        0x0000ef4e:    f44f0070    O.p.    MOV      r0,#0xf00000
        0x0000ef52:    6008        .`      STR      r0,[r1,#0]
        0x0000ef54:    4770        pG      BX       lr
    $d
        0x0000ef56:    0000        ..      DCW    0
        0x0000ef58:    e000ed88    ....    DCD    3758157192
    $t
    i.am_hal_sysctrl_fpu_stacking_enable
    am_hal_sysctrl_fpu_stacking_enable
        0x0000ef5c:    b538        8.      PUSH     {r3-r5,lr}
        0x0000ef5e:    4604        .F      MOV      r4,r0
        0x0000ef60:    f7fdf9d0    ....    BL       am_hal_interrupt_master_disable ; 0xc304
        0x0000ef64:    9000        ..      STR      r0,[sp,#0]
        0x0000ef66:    4808        .H      LDR      r0,[pc,#32] ; [0xef88] = 0xe000ef34
        0x0000ef68:    6801        .h      LDR      r1,[r0,#0]
        0x0000ef6a:    2c00        .,      CMP      r4,#0
        0x0000ef6c:    f0214140    !.@A    BIC      r1,r1,#0xc0000000
        0x0000ef70:    bf14        ..      ITE      NE
        0x0000ef72:    f04f4240    O.@B    MOVNE    r2,#0xc0000000
        0x0000ef76:    f04f4200    O..B    MOVEQ    r2,#0x80000000
        0x0000ef7a:    4311        .C      ORRS     r1,r1,r2
        0x0000ef7c:    6001        .`      STR      r1,[r0,#0]
        0x0000ef7e:    9800        ..      LDR      r0,[sp,#0]
        0x0000ef80:    e8bd4038    ..8@    POP      {r3-r5,lr}
        0x0000ef84:    f7fdb9c2    ....    B        am_hal_interrupt_master_set ; 0xc30c
    $d
        0x0000ef88:    e000ef34    4...    DCD    3758157620
    $t
    i.am_hal_sysctrl_sleep
    am_hal_sysctrl_sleep
        0x0000ef8c:    b530        0.      PUSH     {r4,r5,lr}
        0x0000ef8e:    b083        ..      SUB      sp,sp,#0xc
        0x0000ef90:    4605        .F      MOV      r5,r0
        0x0000ef92:    f7fdf9b7    ....    BL       am_hal_interrupt_master_disable ; 0xc304
        0x0000ef96:    9001        ..      STR      r0,[sp,#4]
        0x0000ef98:    f04f2040    O.@     MOV      r0,#0x40004000
        0x0000ef9c:    6b40        @k      LDR      r0,[r0,#0x34]
        0x0000ef9e:    f0100f04    ....    TST      r0,#4
        0x0000efa2:    bf08        ..      IT       EQ
        0x0000efa4:    2400        .$      MOVEQ    r4,#0
        0x0000efa6:    d00a        ..      BEQ      0xefbe ; am_hal_sysctrl_sleep + 50
        0x0000efa8:    2401        .$      MOVS     r4,#1
        0x0000efaa:    4668        hF      MOV      r0,sp
        0x0000efac:    f7fff830    ..0.    BL       am_hal_burst_mode_disable ; 0xe010
        0x0000efb0:    2800        .(      CMP      r0,#0
        0x0000efb2:    bf04        ..      ITT      EQ
        0x0000efb4:    f89d0000    ....    LDRBEQ   r0,[sp,#0]
        0x0000efb8:    2801        .(      CMPEQ    r0,#1
        0x0000efba:    d000        ..      BEQ      0xefbe ; am_hal_sysctrl_sleep + 50
        0x0000efbc:    e7fe        ..      B        0xefbc ; am_hal_sysctrl_sleep + 48
        0x0000efbe:    4914        .I      LDR      r1,[pc,#80] ; [0xf010] = 0xe000ed10
        0x0000efc0:    b12d        -.      CBZ      r5,0xefce ; am_hal_sysctrl_sleep + 66
        0x0000efc2:    4814        .H      LDR      r0,[pc,#80] ; [0xf014] = 0x40020000
        0x0000efc4:    f8d00250    ..P.    LDR      r0,[r0,#0x250]
        0x0000efc8:    f0100f01    ....    TST      r0,#1
        0x0000efcc:    d003        ..      BEQ      0xefd6 ; am_hal_sysctrl_sleep + 74
        0x0000efce:    6808        .h      LDR      r0,[r1,#0]
        0x0000efd0:    f0200004     ...    BIC      r0,r0,#4
        0x0000efd4:    e008        ..      B        0xefe8 ; am_hal_sysctrl_sleep + 92
        0x0000efd6:    4810        .H      LDR      r0,[pc,#64] ; [0xf018] = 0x100138bc
        0x0000efd8:    6802        .h      LDR      r2,[r0,#0]
        0x0000efda:    b912        ..      CBNZ     r2,0xefe2 ; am_hal_sysctrl_sleep + 86
        0x0000efdc:    4a0f        .J      LDR      r2,[pc,#60] ; [0xf01c] = 0x4ffff000
        0x0000efde:    6812        .h      LDR      r2,[r2,#0]
        0x0000efe0:    6002        .`      STR      r2,[r0,#0]
        0x0000efe2:    6808        .h      LDR      r0,[r1,#0]
        0x0000efe4:    f0400004    @...    ORR      r0,r0,#4
        0x0000efe8:    6008        .`      STR      r0,[r1,#0]
        0x0000efea:    f3bf8f4f    ..O.    DSB      
        0x0000efee:    480c        .H      LDR      r0,[pc,#48] ; [0xf020] = 0x5fff0000
        0x0000eff0:    490c        .I      LDR      r1,[pc,#48] ; [0xf024] = 0x1001315c
        0x0000eff2:    6800        .h      LDR      r0,[r0,#0]
        0x0000eff4:    6008        .`      STR      r0,[r1,#0]
        0x0000eff6:    bf30        0.      WFI      
        0x0000eff8:    f3bf8f6f    ..o.    ISB      
        0x0000effc:    2c00        .,      CMP      r4,#0
        0x0000effe:    bf1c        ..      ITT      NE
        0x0000f000:    4668        hF      MOVNE    r0,sp
        0x0000f002:    f7fff833    ..3.    BLNE     am_hal_burst_mode_enable ; 0xe06c
        0x0000f006:    9801        ..      LDR      r0,[sp,#4]
        0x0000f008:    f7fdf980    ....    BL       am_hal_interrupt_master_set ; 0xc30c
        0x0000f00c:    b003        ..      ADD      sp,sp,#0xc
        0x0000f00e:    bd30        0.      POP      {r4,r5,pc}
    $d
        0x0000f010:    e000ed10    ....    DCD    3758157072
        0x0000f014:    40020000    ...@    DCD    1073872896
        0x0000f018:    100138bc    .8..    DCD    268515516
        0x0000f01c:    4ffff000    ...O    DCD    1342173184
        0x0000f020:    5fff0000    ..._    DCD    1610547200
        0x0000f024:    1001315c    \1..    DCD    268513628
    $t
    i.am_hal_tpiu_enable
    am_hal_tpiu_enable
        0x0000f028:    e92d41f0    -..A    PUSH     {r4-r8,lr}
        0x0000f02c:    4c1d        .L      LDR      r4,[pc,#116] ; [0xf0a4] = 0xe0040000
        0x0000f02e:    b084        ..      SUB      sp,sp,#0x10
        0x0000f030:    2600        .&      MOVS     r6,#0
        0x0000f032:    6805        .h      LDR      r5,[r0,#0]
        0x0000f034:    f8c46304    ...c    STR      r6,[r4,#0x304]
        0x0000f038:    4f1b        .O      LDR      r7,[pc,#108] ; [0xf0a8] = 0xe0040f00
        0x0000f03a:    f8df8070    ..p.    LDR      r8,[pc,#112] ; [0xf0ac] = 0x40020000
        0x0000f03e:    2101        .!      MOVS     r1,#1
        0x0000f040:    b31d        ..      CBZ      r5,0xf08a ; am_hal_tpiu_enable + 98
        0x0000f042:    6061        a`      STR      r1,[r4,#4]
        0x0000f044:    491a        .I      LDR      r1,[pc,#104] ; [0xf0b0] = 0x1da381
        0x0000f046:    f5a54061    ..a@    SUB      r0,r5,#0xe100
        0x0000f04a:    4288        .B      CMP      r0,r1
        0x0000f04c:    bf28        (.      IT       CS
        0x0000f04e:    4d19        .M      LDRCS    r5,[pc,#100] ; [0xf0b4] = 0xf4240
        0x0000f050:    4668        hF      MOV      r0,sp
        0x0000f052:    f7fffabf    ....    BL       am_hal_clkgen_status_get ; 0xe5d4
        0x0000f056:    9800        ..      LDR      r0,[sp,#0]
        0x0000f058:    f1b03fff    ...?    CMP      r0,#0xffffffff
        0x0000f05c:    bf1d        ..      ITTTE    NE
        0x0000f05e:    08c0        ..      LSRNE    r0,r0,#3
        0x0000f060:    fbb0f0f5    ....    UDIVNE   r0,r0,r5
        0x0000f064:    1e40        @.      SUBNE    r0,r0,#1
        0x0000f066:    2005        .       MOVEQ    r0,#5
        0x0000f068:    b280        ..      UXTH     r0,r0
        0x0000f06a:    6120         a      STR      r0,[r4,#0x10]
        0x0000f06c:    2002        .       MOVS     r0,#2
        0x0000f06e:    f8c400f0    ....    STR      r0,[r4,#0xf0]
        0x0000f072:    603e        >`      STR      r6,[r7,#0]
        0x0000f074:    f2402001    @..     MOV      r0,#0x201
        0x0000f078:    f8c80250    ..P.    STR      r0,[r8,#0x250]
        0x0000f07c:    f44f7048    O.Hp    MOV      r0,#0x320
        0x0000f080:    f7fffac2    ....    BL       am_hal_flash_delay ; 0xe608
        0x0000f084:    b004        ..      ADD      sp,sp,#0x10
        0x0000f086:    e8bd81f0    ....    POP      {r4-r8,pc}
        0x0000f08a:    6902        .i      LDR      r2,[r0,#0x10]
        0x0000f08c:    6122        "a      STR      r2,[r4,#0x10]
        0x0000f08e:    6882        .h      LDR      r2,[r0,#8]
        0x0000f090:    f8c420f0    ...     STR      r2,[r4,#0xf0]
        0x0000f094:    7b02        .{      LDRB     r2,[r0,#0xc]
        0x0000f096:    1e52        R.      SUBS     r2,r2,#1
        0x0000f098:    4091        .@      LSLS     r1,r1,r2
        0x0000f09a:    6061        a`      STR      r1,[r4,#4]
        0x0000f09c:    603e        >`      STR      r6,[r7,#0]
        0x0000f09e:    6840        @h      LDR      r0,[r0,#4]
        0x0000f0a0:    e7ea        ..      B        0xf078 ; am_hal_tpiu_enable + 80
    $d
        0x0000f0a2:    0000        ..      DCW    0
        0x0000f0a4:    e0040000    ....    DCD    3758358528
        0x0000f0a8:    e0040f00    ....    DCD    3758362368
        0x0000f0ac:    40020000    ...@    DCD    1073872896
        0x0000f0b0:    001da381    ....    DCD    1942401
        0x0000f0b4:    000f4240    @B..    DCD    1000000
    $t
    i.am_stimer_cmpr0_isr
    am_stimer_cmpr0_isr
        0x0000f0b8:    b510        ..      PUSH     {r4,lr}
        0x0000f0ba:    2000        .       MOVS     r0,#0
        0x0000f0bc:    f7ffff3a    ..:.    BL       am_hal_stimer_int_status_get ; 0xef34
        0x0000f0c0:    4604        .F      MOV      r4,r0
        0x0000f0c2:    f0040001    ....    AND      r0,r4,#1
        0x0000f0c6:    b128        (.      CBZ      r0,0xf0d4 ; am_stimer_cmpr0_isr + 28
        0x0000f0c8:    2001        .       MOVS     r0,#1
        0x0000f0ca:    f7ffff23    ..#.    BL       am_hal_stimer_int_clear ; 0xef14
        0x0000f0ce:    2000        .       MOVS     r0,#0
        0x0000f0d0:    f002f864    ..d.    BL       xPortStimerTickHandler ; 0x1119c
        0x0000f0d4:    bd10        ..      POP      {r4,pc}
        0x0000f0d6:    0000        ..      MOVS     r0,r0
    i.am_stimer_cmpr1_isr
    am_stimer_cmpr1_isr
        0x0000f0d8:    b510        ..      PUSH     {r4,lr}
        0x0000f0da:    2000        .       MOVS     r0,#0
        0x0000f0dc:    f7ffff2a    ..*.    BL       am_hal_stimer_int_status_get ; 0xef34
        0x0000f0e0:    4604        .F      MOV      r4,r0
        0x0000f0e2:    f0040002    ....    AND      r0,r4,#2
        0x0000f0e6:    b150        P.      CBZ      r0,0xf0fe ; am_stimer_cmpr1_isr + 38
        0x0000f0e8:    2002        .       MOVS     r0,#2
        0x0000f0ea:    f7ffff13    ....    BL       am_hal_stimer_int_clear ; 0xef14
        0x0000f0ee:    4804        .H      LDR      r0,[pc,#16] ; [0xf100] = 0x10013030
        0x0000f0f0:    6800        .h      LDR      r0,[r0,#0]
        0x0000f0f2:    1c40        @.      ADDS     r0,r0,#1
        0x0000f0f4:    4902        .I      LDR      r1,[pc,#8] ; [0xf100] = 0x10013030
        0x0000f0f6:    6008        .`      STR      r0,[r1,#0]
        0x0000f0f8:    2001        .       MOVS     r0,#1
        0x0000f0fa:    f002f84f    ..O.    BL       xPortStimerTickHandler ; 0x1119c
        0x0000f0fe:    bd10        ..      POP      {r4,pc}
    $d
        0x0000f100:    10013030    00..    DCD    268513328
    $t
    i.am_util_ble_set_carrier_wave_ex
    am_util_ble_set_carrier_wave_ex
        0x0000f104:    e92d43f0    -..C    PUSH     {r4-r9,lr}
        0x0000f108:    b089        ..      SUB      sp,sp,#0x24
        0x0000f10a:    4607        .F      MOV      r7,r0
        0x0000f10c:    460c        .F      MOV      r4,r1
        0x0000f10e:    46b8        .F      MOV      r8,r7
        0x0000f110:    2cff        .,      CMP      r4,#0xff
        0x0000f112:    d107        ..      BNE      0xf124 ; am_util_ble_set_carrier_wave_ex + 32
        0x0000f114:    2100        .!      MOVS     r1,#0
        0x0000f116:    4640        @F      MOV      r0,r8
        0x0000f118:    f000f8e2    ....    BL       am_util_ble_transmitter_control ; 0xf2e0
        0x0000f11c:    2000        .       MOVS     r0,#0
        0x0000f11e:    b009        ..      ADD      sp,sp,#0x24
        0x0000f120:    e8bd83f0    ....    POP      {r4-r9,pc}
        0x0000f124:    2100        .!      MOVS     r1,#0
        0x0000f126:    4640        @F      MOV      r0,r8
        0x0000f128:    f7fefed8    ....    BL       am_hal_ble_sleep_set ; 0xdedc
        0x0000f12c:    f8d89004    ....    LDR      r9,[r8,#4]
        0x0000f130:    2001        .       MOVS     r0,#1
        0x0000f132:    f88d0014    ....    STRB     r0,[sp,#0x14]
        0x0000f136:    201e        .       MOVS     r0,#0x1e
        0x0000f138:    f88d0015    ....    STRB     r0,[sp,#0x15]
        0x0000f13c:    2020                MOVS     r0,#0x20
        0x0000f13e:    f88d0016    ....    STRB     r0,[sp,#0x16]
        0x0000f142:    2003        .       MOVS     r0,#3
        0x0000f144:    f88d0017    ....    STRB     r0,[sp,#0x17]
        0x0000f148:    f88d4018    ...@    STRB     r4,[sp,#0x18]
        0x0000f14c:    2025        %       MOVS     r0,#0x25
        0x0000f14e:    f88d0019    ....    STRB     r0,[sp,#0x19]
        0x0000f152:    2000        .       MOVS     r0,#0
        0x0000f154:    f88d001a    ....    STRB     r0,[sp,#0x1a]
        0x0000f158:    491c        .I      LDR      r1,[pc,#112] ; [0xf1cc] = 0x5000c000
        0x0000f15a:    f8d15220    .. R    LDR      r5,[r1,#0x220]
        0x0000f15e:    460a        .F      MOV      r2,r1
        0x0000f160:    1881        ..      ADDS     r1,r0,r2
        0x0000f162:    f8c10220    .. .    STR      r0,[r1,#0x220]
        0x0000f166:    2307        .#      MOVS     r3,#7
        0x0000f168:    aa05        ..      ADD      r2,sp,#0x14
        0x0000f16a:    2100        .!      MOVS     r1,#0
        0x0000f16c:    4640        @F      MOV      r0,r8
        0x0000f16e:    f7fdfda7    ....    BL       am_hal_ble_blocking_hci_write ; 0xccc0
        0x0000f172:    4916        .I      LDR      r1,[pc,#88] ; [0xf1cc] = 0x5000c000
        0x0000f174:    f8d10410    ....    LDR      r0,[r1,#0x410]
        0x0000f178:    f0200002     ...    BIC      r0,r0,#2
        0x0000f17c:    1c80        ..      ADDS     r0,r0,#2
        0x0000f17e:    460a        .F      MOV      r2,r1
        0x0000f180:    f8c20410    ....    STR      r0,[r2,#0x410]
        0x0000f184:    2600        .&      MOVS     r6,#0
        0x0000f186:    e00e        ..      B        0xf1a6 ; am_util_ble_set_carrier_wave_ex + 162
        0x0000f188:    4910        .I      LDR      r1,[pc,#64] ; [0xf1cc] = 0x5000c000
        0x0000f18a:    f8d1030c    ....    LDR      r0,[r1,#0x30c]
        0x0000f18e:    f3c010c0    ....    UBFX     r0,r0,#7,#1
        0x0000f192:    b100        ..      CBZ      r0,0xf196 ; am_util_ble_set_carrier_wave_ex + 146
        0x0000f194:    e009        ..      B        0xf1aa ; am_util_ble_set_carrier_wave_ex + 166
        0x0000f196:    2e63        c.      CMP      r6,#0x63
        0x0000f198:    d101        ..      BNE      0xf19e ; am_util_ble_set_carrier_wave_ex + 154
        0x0000f19a:    480d        .H      LDR      r0,[pc,#52] ; [0xf1d0] = 0x8000004
        0x0000f19c:    e7bf        ..      B        0xf11e ; am_util_ble_set_carrier_wave_ex + 26
        0x0000f19e:    2001        .       MOVS     r0,#1
        0x0000f1a0:    f000f8c8    ....    BL       am_util_delay_ms ; 0xf334
        0x0000f1a4:    1c76        v.      ADDS     r6,r6,#1
        0x0000f1a6:    2e64        d.      CMP      r6,#0x64
        0x0000f1a8:    d3ee        ..      BCC      0xf188 ; am_util_ble_set_carrier_wave_ex + 132
        0x0000f1aa:    bf00        ..      NOP      
        0x0000f1ac:    2200        ."      MOVS     r2,#0
        0x0000f1ae:    a901        ..      ADD      r1,sp,#4
        0x0000f1b0:    4640        @F      MOV      r0,r8
        0x0000f1b2:    f7fdfd37    ..7.    BL       am_hal_ble_blocking_hci_read ; 0xcc24
        0x0000f1b6:    4905        .I      LDR      r1,[pc,#20] ; [0xf1cc] = 0x5000c000
        0x0000f1b8:    f8c15228    ..(R    STR      r5,[r1,#0x228]
        0x0000f1bc:    f8c15220    .. R    STR      r5,[r1,#0x220]
        0x0000f1c0:    2101        .!      MOVS     r1,#1
        0x0000f1c2:    4640        @F      MOV      r0,r8
        0x0000f1c4:    f000f88c    ....    BL       am_util_ble_transmitter_control ; 0xf2e0
        0x0000f1c8:    2000        .       MOVS     r0,#0
        0x0000f1ca:    e7a8        ..      B        0xf11e ; am_util_ble_set_carrier_wave_ex + 26
    $d
        0x0000f1cc:    5000c000    ...P    DCD    1342226432
        0x0000f1d0:    08000004    ....    DCD    134217732
    $t
    i.am_util_ble_set_constant_transmission
    am_util_ble_set_constant_transmission
        0x0000f1d4:    b570        p.      PUSH     {r4-r6,lr}
        0x0000f1d6:    4604        .F      MOV      r4,r0
        0x0000f1d8:    460d        .F      MOV      r5,r1
        0x0000f1da:    4626        &F      MOV      r6,r4
        0x0000f1dc:    2100        .!      MOVS     r1,#0
        0x0000f1de:    4630        0F      MOV      r0,r6
        0x0000f1e0:    f7fefe7c    ..|.    BL       am_hal_ble_sleep_set ; 0xdedc
        0x0000f1e4:    f04f32ff    O..2    MOV      r2,#0xffffffff
        0x0000f1e8:    4909        .I      LDR      r1,[pc,#36] ; [0xf210] = 0x43000004
        0x0000f1ea:    4630        0F      MOV      r0,r6
        0x0000f1ec:    f7fefd42    ..B.    BL       am_hal_ble_plf_reg_write ; 0xdc74
        0x0000f1f0:    b135        5.      CBZ      r5,0xf200 ; am_util_ble_set_constant_transmission + 44
        0x0000f1f2:    f44f4200    O..B    MOV      r2,#0x8000
        0x0000f1f6:    4907        .I      LDR      r1,[pc,#28] ; [0xf214] = 0x508000e0
        0x0000f1f8:    4630        0F      MOV      r0,r6
        0x0000f1fa:    f7fefd3b    ..;.    BL       am_hal_ble_plf_reg_write ; 0xdc74
        0x0000f1fe:    e004        ..      B        0xf20a ; am_util_ble_set_constant_transmission + 54
        0x0000f200:    2200        ."      MOVS     r2,#0
        0x0000f202:    4904        .I      LDR      r1,[pc,#16] ; [0xf214] = 0x508000e0
        0x0000f204:    4630        0F      MOV      r0,r6
        0x0000f206:    f7fefd35    ..5.    BL       am_hal_ble_plf_reg_write ; 0xdc74
        0x0000f20a:    2000        .       MOVS     r0,#0
        0x0000f20c:    bd70        p.      POP      {r4-r6,pc}
    $d
        0x0000f20e:    0000        ..      DCW    0
        0x0000f210:    43000004    ...C    DCD    1124073476
        0x0000f214:    508000e0    ...P    DCD    1350566112
    $t
    i.am_util_ble_set_constant_transmission_ex
    am_util_ble_set_constant_transmission_ex
        0x0000f218:    e92d43f0    -..C    PUSH     {r4-r9,lr}
        0x0000f21c:    b089        ..      SUB      sp,sp,#0x24
        0x0000f21e:    4607        .F      MOV      r7,r0
        0x0000f220:    460c        .F      MOV      r4,r1
        0x0000f222:    46b8        .F      MOV      r8,r7
        0x0000f224:    2cff        .,      CMP      r4,#0xff
        0x0000f226:    d107        ..      BNE      0xf238 ; am_util_ble_set_constant_transmission_ex + 32
        0x0000f228:    2100        .!      MOVS     r1,#0
        0x0000f22a:    4640        @F      MOV      r0,r8
        0x0000f22c:    f7ffffd2    ....    BL       am_util_ble_set_constant_transmission ; 0xf1d4
        0x0000f230:    2000        .       MOVS     r0,#0
        0x0000f232:    b009        ..      ADD      sp,sp,#0x24
        0x0000f234:    e8bd83f0    ....    POP      {r4-r9,pc}
        0x0000f238:    f8d89004    ....    LDR      r9,[r8,#4]
        0x0000f23c:    2101        .!      MOVS     r1,#1
        0x0000f23e:    4640        @F      MOV      r0,r8
        0x0000f240:    f7ffffc8    ....    BL       am_util_ble_set_constant_transmission ; 0xf1d4
        0x0000f244:    2001        .       MOVS     r0,#1
        0x0000f246:    f88d0014    ....    STRB     r0,[sp,#0x14]
        0x0000f24a:    201e        .       MOVS     r0,#0x1e
        0x0000f24c:    f88d0015    ....    STRB     r0,[sp,#0x15]
        0x0000f250:    2020                MOVS     r0,#0x20
        0x0000f252:    f88d0016    ....    STRB     r0,[sp,#0x16]
        0x0000f256:    2003        .       MOVS     r0,#3
        0x0000f258:    f88d0017    ....    STRB     r0,[sp,#0x17]
        0x0000f25c:    f88d4018    ...@    STRB     r4,[sp,#0x18]
        0x0000f260:    2025        %       MOVS     r0,#0x25
        0x0000f262:    f88d0019    ....    STRB     r0,[sp,#0x19]
        0x0000f266:    2000        .       MOVS     r0,#0
        0x0000f268:    f88d001a    ....    STRB     r0,[sp,#0x1a]
        0x0000f26c:    491a        .I      LDR      r1,[pc,#104] ; [0xf2d8] = 0x5000c000
        0x0000f26e:    f8d15220    .. R    LDR      r5,[r1,#0x220]
        0x0000f272:    460a        .F      MOV      r2,r1
        0x0000f274:    1881        ..      ADDS     r1,r0,r2
        0x0000f276:    f8c10220    .. .    STR      r0,[r1,#0x220]
        0x0000f27a:    2307        .#      MOVS     r3,#7
        0x0000f27c:    aa05        ..      ADD      r2,sp,#0x14
        0x0000f27e:    2100        .!      MOVS     r1,#0
        0x0000f280:    4640        @F      MOV      r0,r8
        0x0000f282:    f7fdfd1d    ....    BL       am_hal_ble_blocking_hci_write ; 0xccc0
        0x0000f286:    4914        .I      LDR      r1,[pc,#80] ; [0xf2d8] = 0x5000c000
        0x0000f288:    f8d10410    ....    LDR      r0,[r1,#0x410]
        0x0000f28c:    f0200002     ...    BIC      r0,r0,#2
        0x0000f290:    1c80        ..      ADDS     r0,r0,#2
        0x0000f292:    460a        .F      MOV      r2,r1
        0x0000f294:    f8c20410    ....    STR      r0,[r2,#0x410]
        0x0000f298:    2600        .&      MOVS     r6,#0
        0x0000f29a:    e00e        ..      B        0xf2ba ; am_util_ble_set_constant_transmission_ex + 162
        0x0000f29c:    490e        .I      LDR      r1,[pc,#56] ; [0xf2d8] = 0x5000c000
        0x0000f29e:    f8d1030c    ....    LDR      r0,[r1,#0x30c]
        0x0000f2a2:    f3c010c0    ....    UBFX     r0,r0,#7,#1
        0x0000f2a6:    b100        ..      CBZ      r0,0xf2aa ; am_util_ble_set_constant_transmission_ex + 146
        0x0000f2a8:    e009        ..      B        0xf2be ; am_util_ble_set_constant_transmission_ex + 166
        0x0000f2aa:    2e63        c.      CMP      r6,#0x63
        0x0000f2ac:    d101        ..      BNE      0xf2b2 ; am_util_ble_set_constant_transmission_ex + 154
        0x0000f2ae:    480b        .H      LDR      r0,[pc,#44] ; [0xf2dc] = 0x8000004
        0x0000f2b0:    e7bf        ..      B        0xf232 ; am_util_ble_set_constant_transmission_ex + 26
        0x0000f2b2:    2001        .       MOVS     r0,#1
        0x0000f2b4:    f000f83e    ..>.    BL       am_util_delay_ms ; 0xf334
        0x0000f2b8:    1c76        v.      ADDS     r6,r6,#1
        0x0000f2ba:    2e64        d.      CMP      r6,#0x64
        0x0000f2bc:    d3ee        ..      BCC      0xf29c ; am_util_ble_set_constant_transmission_ex + 132
        0x0000f2be:    bf00        ..      NOP      
        0x0000f2c0:    2200        ."      MOVS     r2,#0
        0x0000f2c2:    a901        ..      ADD      r1,sp,#4
        0x0000f2c4:    4640        @F      MOV      r0,r8
        0x0000f2c6:    f7fdfcad    ....    BL       am_hal_ble_blocking_hci_read ; 0xcc24
        0x0000f2ca:    4903        .I      LDR      r1,[pc,#12] ; [0xf2d8] = 0x5000c000
        0x0000f2cc:    f8c15228    ..(R    STR      r5,[r1,#0x228]
        0x0000f2d0:    f8c15220    .. R    STR      r5,[r1,#0x220]
        0x0000f2d4:    2000        .       MOVS     r0,#0
        0x0000f2d6:    e7ac        ..      B        0xf232 ; am_util_ble_set_constant_transmission_ex + 26
    $d
        0x0000f2d8:    5000c000    ...P    DCD    1342226432
        0x0000f2dc:    08000004    ....    DCD    134217732
    $t
    i.am_util_ble_transmitter_control
    am_util_ble_transmitter_control
        0x0000f2e0:    e92d41f0    -..A    PUSH     {r4-r8,lr}
        0x0000f2e4:    4605        .F      MOV      r5,r0
        0x0000f2e6:    460e        .F      MOV      r6,r1
        0x0000f2e8:    462f        /F      MOV      r7,r5
        0x0000f2ea:    2100        .!      MOVS     r1,#0
        0x0000f2ec:    4638        8F      MOV      r0,r7
        0x0000f2ee:    f7fefdf5    ....    BL       am_hal_ble_sleep_set ; 0xdedc
        0x0000f2f2:    b10e        ..      CBZ      r6,0xf2f8 ; am_util_ble_transmitter_control + 24
        0x0000f2f4:    4c08        .L      LDR      r4,[pc,#32] ; [0xf318] = 0x2000a
        0x0000f2f6:    e000        ..      B        0xf2fa ; am_util_ble_transmitter_control + 26
        0x0000f2f8:    2408        .$      MOVS     r4,#8
        0x0000f2fa:    f04f32ff    O..2    MOV      r2,#0xffffffff
        0x0000f2fe:    4907        .I      LDR      r1,[pc,#28] ; [0xf31c] = 0x43000004
        0x0000f300:    4638        8F      MOV      r0,r7
        0x0000f302:    f7fefcb7    ....    BL       am_hal_ble_plf_reg_write ; 0xdc74
        0x0000f306:    4622        "F      MOV      r2,r4
        0x0000f308:    4905        .I      LDR      r1,[pc,#20] ; [0xf320] = 0x52400000
        0x0000f30a:    4638        8F      MOV      r0,r7
        0x0000f30c:    f7fefcb2    ....    BL       am_hal_ble_plf_reg_write ; 0xdc74
        0x0000f310:    2000        .       MOVS     r0,#0
        0x0000f312:    e8bd81f0    ....    POP      {r4-r8,pc}
    $d
        0x0000f316:    0000        ..      DCW    0
        0x0000f318:    0002000a    ....    DCD    131082
        0x0000f31c:    43000004    ...C    DCD    1124073476
        0x0000f320:    52400000    ..@R    DCD    1379926016
    $t
    i.am_util_ble_transmitter_control_ex
    am_util_ble_transmitter_control_ex
        0x0000f324:    b570        p.      PUSH     {r4-r6,lr}
        0x0000f326:    4604        .F      MOV      r4,r0
        0x0000f328:    460d        .F      MOV      r5,r1
        0x0000f32a:    4629        )F      MOV      r1,r5
        0x0000f32c:    4620         F      MOV      r0,r4
        0x0000f32e:    f7fffee9    ....    BL       am_util_ble_set_carrier_wave_ex ; 0xf104
        0x0000f332:    bd70        p.      POP      {r4-r6,pc}
    i.am_util_delay_ms
    am_util_delay_ms
        0x0000f334:    b5fe        ..      PUSH     {r1-r7,lr}
        0x0000f336:    4604        .F      MOV      r4,r0
        0x0000f338:    4668        hF      MOV      r0,sp
        0x0000f33a:    f7fff94b    ..K.    BL       am_hal_clkgen_status_get ; 0xe5d4
        0x0000f33e:    9e00        ..      LDR      r6,[sp,#0]
        0x0000f340:    f64030b8    @..0    MOV      r0,#0xbb8
        0x0000f344:    fbb6f0f0    ....    UDIV     r0,r6,r0
        0x0000f348:    fb00f504    ....    MUL      r5,r0,r4
        0x0000f34c:    4628        (F      MOV      r0,r5
        0x0000f34e:    f7fff95b    ..[.    BL       am_hal_flash_delay ; 0xe608
        0x0000f352:    bdfe        ..      POP      {r1-r7,pc}
    i.am_util_faultisr_collect_data
    am_util_faultisr_collect_data
        0x0000f354:    b092        ..      SUB      sp,sp,#0x48
        0x0000f356:    4604        .F      MOV      r4,r0
        0x0000f358:    2118        .!      MOVS     r1,#0x18
        0x0000f35a:    4668        hF      MOV      r0,sp
        0x0000f35c:    f7fdf887    ....    BL       __aeabi_memclr4 ; 0xc46e
        0x0000f360:    2500        .%      MOVS     r5,#0
        0x0000f362:    9510        ..      STR      r5,[sp,#0x40]
        0x0000f364:    4828        (H      LDR      r0,[pc,#160] ; [0xf408] = 0xe000ed28
        0x0000f366:    6800        .h      LDR      r0,[r0,#0]
        0x0000f368:    9010        ..      STR      r0,[sp,#0x40]
        0x0000f36a:    9810        ..      LDR      r0,[sp,#0x40]
        0x0000f36c:    b2c0        ..      UXTB     r0,r0
        0x0000f36e:    f88d0044    ..D.    STRB     r0,[sp,#0x44]
        0x0000f372:    9810        ..      LDR      r0,[sp,#0x40]
        0x0000f374:    0a00        ..      LSRS     r0,r0,#8
        0x0000f376:    f88d0045    ..E.    STRB     r0,[sp,#0x45]
        0x0000f37a:    9810        ..      LDR      r0,[sp,#0x40]
        0x0000f37c:    f64f71ff    O..q    MOV      r1,#0xffff
        0x0000f380:    ea014010    ...@    AND      r0,r1,r0,LSR #16
        0x0000f384:    f8ad0046    ..F.    STRH     r0,[sp,#0x46]
        0x0000f388:    481f        .H      LDR      r0,[pc,#124] ; [0xf408] = 0xe000ed28
        0x0000f38a:    3010        .0      ADDS     r0,r0,#0x10
        0x0000f38c:    6800        .h      LDR      r0,[r0,#0]
        0x0000f38e:    900f        ..      STR      r0,[sp,#0x3c]
        0x0000f390:    f89d0045    ..E.    LDRB     r0,[sp,#0x45]
        0x0000f394:    f0000002    ....    AND      r0,r0,#2
        0x0000f398:    b120         .      CBZ      r0,0xf3a4 ; am_util_faultisr_collect_data + 80
        0x0000f39a:    4621        !F      MOV      r1,r4
        0x0000f39c:    2006        .       MOVS     r0,#6
        0x0000f39e:    f7fcffa8    ....    BL       getStackedReg ; 0xc2f2
        0x0000f3a2:    e001        ..      B        0xf3a8 ; am_util_faultisr_collect_data + 84
        0x0000f3a4:    f04f30ff    O..0    MOV      r0,#0xffffffff
        0x0000f3a8:    900e        ..      STR      r0,[sp,#0x38]
        0x0000f3aa:    4621        !F      MOV      r1,r4
        0x0000f3ac:    2000        .       MOVS     r0,#0
        0x0000f3ae:    f7fcffa0    ....    BL       getStackedReg ; 0xc2f2
        0x0000f3b2:    9006        ..      STR      r0,[sp,#0x18]
        0x0000f3b4:    4621        !F      MOV      r1,r4
        0x0000f3b6:    2001        .       MOVS     r0,#1
        0x0000f3b8:    f7fcff9b    ....    BL       getStackedReg ; 0xc2f2
        0x0000f3bc:    9007        ..      STR      r0,[sp,#0x1c]
        0x0000f3be:    4621        !F      MOV      r1,r4
        0x0000f3c0:    2002        .       MOVS     r0,#2
        0x0000f3c2:    f7fcff96    ....    BL       getStackedReg ; 0xc2f2
        0x0000f3c6:    9008        ..      STR      r0,[sp,#0x20]
        0x0000f3c8:    4621        !F      MOV      r1,r4
        0x0000f3ca:    2003        .       MOVS     r0,#3
        0x0000f3cc:    f7fcff91    ....    BL       getStackedReg ; 0xc2f2
        0x0000f3d0:    9009        ..      STR      r0,[sp,#0x24]
        0x0000f3d2:    4621        !F      MOV      r1,r4
        0x0000f3d4:    2004        .       MOVS     r0,#4
        0x0000f3d6:    f7fcff8c    ....    BL       getStackedReg ; 0xc2f2
        0x0000f3da:    900a        ..      STR      r0,[sp,#0x28]
        0x0000f3dc:    4621        !F      MOV      r1,r4
        0x0000f3de:    2005        .       MOVS     r0,#5
        0x0000f3e0:    f7fcff87    ....    BL       getStackedReg ; 0xc2f2
        0x0000f3e4:    900b        ..      STR      r0,[sp,#0x2c]
        0x0000f3e6:    4621        !F      MOV      r1,r4
        0x0000f3e8:    2006        .       MOVS     r0,#6
        0x0000f3ea:    f7fcff82    ....    BL       getStackedReg ; 0xc2f2
        0x0000f3ee:    900c        ..      STR      r0,[sp,#0x30]
        0x0000f3f0:    4621        !F      MOV      r1,r4
        0x0000f3f2:    2007        .       MOVS     r0,#7
        0x0000f3f4:    f7fcff7d    ..}.    BL       getStackedReg ; 0xc2f2
        0x0000f3f8:    900d        ..      STR      r0,[sp,#0x34]
        0x0000f3fa:    4669        iF      MOV      r1,sp
        0x0000f3fc:    2002        .       MOVS     r0,#2
        0x0000f3fe:    f7fffb45    ..E.    BL       am_hal_mcuctrl_info_get ; 0xea8c
        0x0000f402:    bf00        ..      NOP      
        0x0000f404:    bf00        ..      NOP      
        0x0000f406:    e7fe        ..      B        0xf406 ; am_util_faultisr_collect_data + 178
    $d
        0x0000f408:    e000ed28    (...    DCD    3758157096
    $t
    i.am_util_stdio_printf
    am_util_stdio_printf
        0x0000f40c:    b40f        ..      PUSH     {r0-r3}
        0x0000f40e:    b538        8.      PUSH     {r3-r5,lr}
        0x0000f410:    480b        .H      LDR      r0,[pc,#44] ; [0xf440] = 0x10013064
        0x0000f412:    6800        .h      LDR      r0,[r0,#0]
        0x0000f414:    b918        ..      CBNZ     r0,0xf41e ; am_util_stdio_printf + 18
        0x0000f416:    2000        .       MOVS     r0,#0
        0x0000f418:    bc38        8.      POP      {r3-r5}
        0x0000f41a:    f85dfb14    ]...    LDR      pc,[sp],#0x14
        0x0000f41e:    a805        ..      ADD      r0,sp,#0x14
        0x0000f420:    9000        ..      STR      r0,[sp,#0]
        0x0000f422:    4808        .H      LDR      r0,[pc,#32] ; [0xf444] = 0x10014260
        0x0000f424:    9a00        ..      LDR      r2,[sp,#0]
        0x0000f426:    9904        ..      LDR      r1,[sp,#0x10]
        0x0000f428:    f000f814    ....    BL       am_util_stdio_vsprintf ; 0xf454
        0x0000f42c:    4604        .F      MOV      r4,r0
        0x0000f42e:    2000        .       MOVS     r0,#0
        0x0000f430:    9000        ..      STR      r0,[sp,#0]
        0x0000f432:    4804        .H      LDR      r0,[pc,#16] ; [0xf444] = 0x10014260
        0x0000f434:    4902        .I      LDR      r1,[pc,#8] ; [0xf440] = 0x10013064
        0x0000f436:    6809        .h      LDR      r1,[r1,#0]
        0x0000f438:    4788        .G      BLX      r1
        0x0000f43a:    4620         F      MOV      r0,r4
        0x0000f43c:    e7ec        ..      B        0xf418 ; am_util_stdio_printf + 12
    $d
        0x0000f43e:    0000        ..      DCW    0
        0x0000f440:    10013064    d0..    DCD    268513380
        0x0000f444:    10014260    `B..    DCD    268517984
    $t
    i.am_util_stdio_printf_init
    am_util_stdio_printf_init
        0x0000f448:    4901        .I      LDR      r1,[pc,#4] ; [0xf450] = 0x10013064
        0x0000f44a:    6008        .`      STR      r0,[r1,#0]
        0x0000f44c:    4770        pG      BX       lr
    $d
        0x0000f44e:    0000        ..      DCW    0
        0x0000f450:    10013064    d0..    DCD    268513380
    $t
    i.am_util_stdio_vsprintf
    am_util_stdio_vsprintf
        0x0000f454:    e92d4ff7    -..O    PUSH     {r0-r2,r4-r11,lr}
        0x0000f458:    ed2d8b02    -...    VPUSH    {d8}
        0x0000f45c:    b08a        ..      SUB      sp,sp,#0x28
        0x0000f45e:    4604        .F      MOV      r4,r0
        0x0000f460:    460d        .F      MOV      r5,r1
        0x0000f462:    f04f0900    O...    MOV      r9,#0
        0x0000f466:    2000        .       MOVS     r0,#0
        0x0000f468:    9000        ..      STR      r0,[sp,#0]
        0x0000f46a:    e1b9        ..      B        0xf7e0 ; am_util_stdio_vsprintf + 908
        0x0000f46c:    2006        .       MOVS     r0,#6
        0x0000f46e:    9006        ..      STR      r0,[sp,#0x18]
        0x0000f470:    7828        (x      LDRB     r0,[r5,#0]
        0x0000f472:    2825        %(      CMP      r0,#0x25
        0x0000f474:    d012        ..      BEQ      0xf49c ; am_util_stdio_vsprintf + 72
        0x0000f476:    b16c        l.      CBZ      r4,0xf494 ; am_util_stdio_vsprintf + 64
        0x0000f478:    7828        (x      LDRB     r0,[r5,#0]
        0x0000f47a:    280a        .(      CMP      r0,#0xa
        0x0000f47c:    d107        ..      BNE      0xf48e ; am_util_stdio_vsprintf + 58
        0x0000f47e:    48de        .H      LDR      r0,[pc,#888] ; [0xf7f8] = 0x10013068
        0x0000f480:    7800        .x      LDRB     r0,[r0,#0]
        0x0000f482:    b120         .      CBZ      r0,0xf48e ; am_util_stdio_vsprintf + 58
        0x0000f484:    200d        .       MOVS     r0,#0xd
        0x0000f486:    f8040b01    ....    STRB     r0,[r4],#1
        0x0000f48a:    f1090901    ....    ADD      r9,r9,#1
        0x0000f48e:    7828        (x      LDRB     r0,[r5,#0]
        0x0000f490:    f8040b01    ....    STRB     r0,[r4],#1
        0x0000f494:    1c6d        m.      ADDS     r5,r5,#1
        0x0000f496:    f1090901    ....    ADD      r9,r9,#1
        0x0000f49a:    e1a1        ..      B        0xf7e0 ; am_util_stdio_vsprintf + 908
        0x0000f49c:    1c6d        m.      ADDS     r5,r5,#1
        0x0000f49e:    2000        .       MOVS     r0,#0
        0x0000f4a0:    9002        ..      STR      r0,[sp,#8]
        0x0000f4a2:    9003        ..      STR      r0,[sp,#0xc]
        0x0000f4a4:    2020                MOVS     r0,#0x20
        0x0000f4a6:    9004        ..      STR      r0,[sp,#0x10]
        0x0000f4a8:    7828        (x      LDRB     r0,[r5,#0]
        0x0000f4aa:    2830        0(      CMP      r0,#0x30
        0x0000f4ac:    d101        ..      BNE      0xf4b2 ; am_util_stdio_vsprintf + 94
        0x0000f4ae:    9004        ..      STR      r0,[sp,#0x10]
        0x0000f4b0:    1c6d        m.      ADDS     r5,r5,#1
        0x0000f4b2:    a907        ..      ADD      r1,sp,#0x1c
        0x0000f4b4:    4628        (F      MOV      r0,r5
        0x0000f4b6:    f000facf    ....    BL       decstr_to_int ; 0xfa58
        0x0000f4ba:    4606        .F      MOV      r6,r0
        0x0000f4bc:    9807        ..      LDR      r0,[sp,#0x1c]
        0x0000f4be:    4405        .D      ADD      r5,r5,r0
        0x0000f4c0:    7828        (x      LDRB     r0,[r5,#0]
        0x0000f4c2:    2873        s(      CMP      r0,#0x73
        0x0000f4c4:    d002        ..      BEQ      0xf4cc ; am_util_stdio_vsprintf + 120
        0x0000f4c6:    2e00        ..      CMP      r6,#0
        0x0000f4c8:    da00        ..      BGE      0xf4cc ; am_util_stdio_vsprintf + 120
        0x0000f4ca:    4276        vB      RSBS     r6,r6,#0
        0x0000f4cc:    7828        (x      LDRB     r0,[r5,#0]
        0x0000f4ce:    282e        .(      CMP      r0,#0x2e
        0x0000f4d0:    d107        ..      BNE      0xf4e2 ; am_util_stdio_vsprintf + 142
        0x0000f4d2:    1c6d        m.      ADDS     r5,r5,#1
        0x0000f4d4:    a907        ..      ADD      r1,sp,#0x1c
        0x0000f4d6:    4628        (F      MOV      r0,r5
        0x0000f4d8:    f000fabe    ....    BL       decstr_to_int ; 0xfa58
        0x0000f4dc:    9006        ..      STR      r0,[sp,#0x18]
        0x0000f4de:    9807        ..      LDR      r0,[sp,#0x1c]
        0x0000f4e0:    4405        .D      ADD      r5,r5,r0
        0x0000f4e2:    7828        (x      LDRB     r0,[r5,#0]
        0x0000f4e4:    286c        l(      CMP      r0,#0x6c
        0x0000f4e6:    d106        ..      BNE      0xf4f6 ; am_util_stdio_vsprintf + 162
        0x0000f4e8:    1c6d        m.      ADDS     r5,r5,#1
        0x0000f4ea:    7828        (x      LDRB     r0,[r5,#0]
        0x0000f4ec:    286c        l(      CMP      r0,#0x6c
        0x0000f4ee:    d102        ..      BNE      0xf4f6 ; am_util_stdio_vsprintf + 162
        0x0000f4f0:    1c6d        m.      ADDS     r5,r5,#1
        0x0000f4f2:    2001        .       MOVS     r0,#1
        0x0000f4f4:    9002        ..      STR      r0,[sp,#8]
        0x0000f4f6:    7828        (x      LDRB     r0,[r5,#0]
        0x0000f4f8:    2866        f(      CMP      r0,#0x66
        0x0000f4fa:    d06f        o.      BEQ      0xf5dc ; am_util_stdio_vsprintf + 392
        0x0000f4fc:    dc08        ..      BGT      0xf510 ; am_util_stdio_vsprintf + 188
        0x0000f4fe:    2846        F(      CMP      r0,#0x46
        0x0000f500:    d06d        m.      BEQ      0xf5de ; am_util_stdio_vsprintf + 394
        0x0000f502:    2858        X(      CMP      r0,#0x58
        0x0000f504:    d05c        \.      BEQ      0xf5c0 ; am_util_stdio_vsprintf + 364
        0x0000f506:    2863        c(      CMP      r0,#0x63
        0x0000f508:    d00b        ..      BEQ      0xf522 ; am_util_stdio_vsprintf + 206
        0x0000f50a:    2864        d(      CMP      r0,#0x64
        0x0000f50c:    d168        h.      BNE      0xf5e0 ; am_util_stdio_vsprintf + 396
        0x0000f50e:    e0c3        ..      B        0xf698 ; am_util_stdio_vsprintf + 580
        0x0000f510:    2869        i(      CMP      r0,#0x69
        0x0000f512:    d07d        }.      BEQ      0xf610 ; am_util_stdio_vsprintf + 444
        0x0000f514:    2873        s(      CMP      r0,#0x73
        0x0000f516:    d011        ..      BEQ      0xf53c ; am_util_stdio_vsprintf + 232
        0x0000f518:    2875        u(      CMP      r0,#0x75
        0x0000f51a:    d07a        z.      BEQ      0xf612 ; am_util_stdio_vsprintf + 446
        0x0000f51c:    2878        x(      CMP      r0,#0x78
        0x0000f51e:    d1f5        ..      BNE      0xf50c ; am_util_stdio_vsprintf + 184
        0x0000f520:    e04b        K.      B        0xf5ba ; am_util_stdio_vsprintf + 358
        0x0000f522:    980e        ..      LDR      r0,[sp,#0x38]
        0x0000f524:    f8101b04    ....    LDRB     r1,[r0],#4
        0x0000f528:    900e        ..      STR      r0,[sp,#0x38]
        0x0000f52a:    b2c8        ..      UXTB     r0,r1
        0x0000f52c:    9005        ..      STR      r0,[sp,#0x14]
        0x0000f52e:    b114        ..      CBZ      r4,0xf536 ; am_util_stdio_vsprintf + 226
        0x0000f530:    9805        ..      LDR      r0,[sp,#0x14]
        0x0000f532:    f8040b01    ....    STRB     r0,[r4],#1
        0x0000f536:    f1090901    ....    ADD      r9,r9,#1
        0x0000f53a:    e14e        N.      B        0xf7da ; am_util_stdio_vsprintf + 902
        0x0000f53c:    980e        ..      LDR      r0,[sp,#0x38]
        0x0000f53e:    f850bb04    P...    LDR      r11,[r0],#4
        0x0000f542:    900e        ..      STR      r0,[sp,#0x38]
        0x0000f544:    4658        XF      MOV      r0,r11
        0x0000f546:    f001f9b9    ....    BL       simple_strlen ; 0x108bc
        0x0000f54a:    9000        ..      STR      r0,[sp,#0]
        0x0000f54c:    2e00        ..      CMP      r6,#0
        0x0000f54e:    dd11        ..      BLE      0xf574 ; am_util_stdio_vsprintf + 288
        0x0000f550:    9800        ..      LDR      r0,[sp,#0]
        0x0000f552:    42b0        .B      CMP      r0,r6
        0x0000f554:    d20e        ..      BCS      0xf574 ; am_util_stdio_vsprintf + 288
        0x0000f556:    9800        ..      LDR      r0,[sp,#0]
        0x0000f558:    1a36        6.      SUBS     r6,r6,r0
        0x0000f55a:    4632        2F      MOV      r2,r6
        0x0000f55c:    4620         F      MOV      r0,r4
        0x0000f55e:    9904        ..      LDR      r1,[sp,#0x10]
        0x0000f560:    f000fcbb    ....    BL       padbuffer ; 0xfeda
        0x0000f564:    4606        .F      MOV      r6,r0
        0x0000f566:    b10c        ..      CBZ      r4,0xf56c ; am_util_stdio_vsprintf + 280
        0x0000f568:    4630        0F      MOV      r0,r6
        0x0000f56a:    e000        ..      B        0xf56e ; am_util_stdio_vsprintf + 282
        0x0000f56c:    2000        .       MOVS     r0,#0
        0x0000f56e:    4404        .D      ADD      r4,r4,r0
        0x0000f570:    44b1        .D      ADD      r9,r9,r6
        0x0000f572:    2600        .&      MOVS     r6,#0
        0x0000f574:    e008        ..      B        0xf588 ; am_util_stdio_vsprintf + 308
        0x0000f576:    b11c        ..      CBZ      r4,0xf580 ; am_util_stdio_vsprintf + 300
        0x0000f578:    f89b0000    ....    LDRB     r0,[r11,#0]
        0x0000f57c:    f8040b01    ....    STRB     r0,[r4],#1
        0x0000f580:    f10b0b01    ....    ADD      r11,r11,#1
        0x0000f584:    f1090901    ....    ADD      r9,r9,#1
        0x0000f588:    f89b0000    ....    LDRB     r0,[r11,#0]
        0x0000f58c:    2800        .(      CMP      r0,#0
        0x0000f58e:    d1f2        ..      BNE      0xf576 ; am_util_stdio_vsprintf + 290
        0x0000f590:    b196        ..      CBZ      r6,0xf5b8 ; am_util_stdio_vsprintf + 356
        0x0000f592:    4276        vB      RSBS     r6,r6,#0
        0x0000f594:    9800        ..      LDR      r0,[sp,#0]
        0x0000f596:    42b0        .B      CMP      r0,r6
        0x0000f598:    d20e        ..      BCS      0xf5b8 ; am_util_stdio_vsprintf + 356
        0x0000f59a:    9800        ..      LDR      r0,[sp,#0]
        0x0000f59c:    1a36        6.      SUBS     r6,r6,r0
        0x0000f59e:    4632        2F      MOV      r2,r6
        0x0000f5a0:    4620         F      MOV      r0,r4
        0x0000f5a2:    9904        ..      LDR      r1,[sp,#0x10]
        0x0000f5a4:    f000fc99    ....    BL       padbuffer ; 0xfeda
        0x0000f5a8:    4606        .F      MOV      r6,r0
        0x0000f5aa:    b10c        ..      CBZ      r4,0xf5b0 ; am_util_stdio_vsprintf + 348
        0x0000f5ac:    4630        0F      MOV      r0,r6
        0x0000f5ae:    e000        ..      B        0xf5b2 ; am_util_stdio_vsprintf + 350
        0x0000f5b0:    2000        .       MOVS     r0,#0
        0x0000f5b2:    4404        .D      ADD      r4,r4,r0
        0x0000f5b4:    44b1        .D      ADD      r9,r9,r6
        0x0000f5b6:    2600        .&      MOVS     r6,#0
        0x0000f5b8:    e10f        ..      B        0xf7da ; am_util_stdio_vsprintf + 902
        0x0000f5ba:    2001        .       MOVS     r0,#1
        0x0000f5bc:    9003        ..      STR      r0,[sp,#0xc]
        0x0000f5be:    bf00        ..      NOP      
        0x0000f5c0:    9802        ..      LDR      r0,[sp,#8]
        0x0000f5c2:    b170        p.      CBZ      r0,0xf5e2 ; am_util_stdio_vsprintf + 398
        0x0000f5c4:    980e        ..      LDR      r0,[sp,#0x38]
        0x0000f5c6:    1dc0        ..      ADDS     r0,r0,#7
        0x0000f5c8:    f0200007     ...    BIC      r0,r0,#7
        0x0000f5cc:    4601        .F      MOV      r1,r0
        0x0000f5ce:    900e        ..      STR      r0,[sp,#0x38]
        0x0000f5d0:    6800        .h      LDR      r0,[r0,#0]
        0x0000f5d2:    6849        Ih      LDR      r1,[r1,#4]
        0x0000f5d4:    9a0e        ..      LDR      r2,[sp,#0x38]
        0x0000f5d6:    3208        .2      ADDS     r2,r2,#8
        0x0000f5d8:    920e        ..      STR      r2,[sp,#0x38]
        0x0000f5da:    e008        ..      B        0xf5ee ; am_util_stdio_vsprintf + 410
        0x0000f5dc:    e0c3        ..      B        0xf766 ; am_util_stdio_vsprintf + 786
        0x0000f5de:    e0c3        ..      B        0xf768 ; am_util_stdio_vsprintf + 788
        0x0000f5e0:    e0f4        ..      B        0xf7cc ; am_util_stdio_vsprintf + 888
        0x0000f5e2:    980e        ..      LDR      r0,[sp,#0x38]
        0x0000f5e4:    6800        .h      LDR      r0,[r0,#0]
        0x0000f5e6:    990e        ..      LDR      r1,[sp,#0x38]
        0x0000f5e8:    1d09        ..      ADDS     r1,r1,#4
        0x0000f5ea:    910e        ..      STR      r1,[sp,#0x38]
        0x0000f5ec:    2100        .!      MOVS     r1,#0
        0x0000f5ee:    4607        .F      MOV      r7,r0
        0x0000f5f0:    4688        .F      MOV      r8,r1
        0x0000f5f2:    b19e        ..      CBZ      r6,0xf61c ; am_util_stdio_vsprintf + 456
        0x0000f5f4:    4638        8F      MOV      r0,r7
        0x0000f5f6:    4641        AF      MOV      r1,r8
        0x0000f5f8:    f000fc26    ..&.    BL       ndigits_in_hex ; 0xfe48
        0x0000f5fc:    1a36        6.      SUBS     r6,r6,r0
        0x0000f5fe:    4632        2F      MOV      r2,r6
        0x0000f600:    4620         F      MOV      r0,r4
        0x0000f602:    9904        ..      LDR      r1,[sp,#0x10]
        0x0000f604:    f000fc69    ..i.    BL       padbuffer ; 0xfeda
        0x0000f608:    4606        .F      MOV      r6,r0
        0x0000f60a:    b11c        ..      CBZ      r4,0xf614 ; am_util_stdio_vsprintf + 448
        0x0000f60c:    4630        0F      MOV      r0,r6
        0x0000f60e:    e002        ..      B        0xf616 ; am_util_stdio_vsprintf + 450
        0x0000f610:    e043        C.      B        0xf69a ; am_util_stdio_vsprintf + 582
        0x0000f612:    e00e        ..      B        0xf632 ; am_util_stdio_vsprintf + 478
        0x0000f614:    2000        .       MOVS     r0,#0
        0x0000f616:    4404        .D      ADD      r4,r4,r0
        0x0000f618:    44b1        .D      ADD      r9,r9,r6
        0x0000f61a:    2600        .&      MOVS     r6,#0
        0x0000f61c:    4622        "F      MOV      r2,r4
        0x0000f61e:    4638        8F      MOV      r0,r7
        0x0000f620:    4641        AF      MOV      r1,r8
        0x0000f622:    9b03        ..      LDR      r3,[sp,#0xc]
        0x0000f624:    f001f956    ..V.    BL       uint64_to_hexstr ; 0x108d4
        0x0000f628:    4682        .F      MOV      r10,r0
        0x0000f62a:    b104        ..      CBZ      r4,0xf62e ; am_util_stdio_vsprintf + 474
        0x0000f62c:    4454        TD      ADD      r4,r4,r10
        0x0000f62e:    44d1        .D      ADD      r9,r9,r10
        0x0000f630:    e0d3        ..      B        0xf7da ; am_util_stdio_vsprintf + 902
        0x0000f632:    9802        ..      LDR      r0,[sp,#8]
        0x0000f634:    b158        X.      CBZ      r0,0xf64e ; am_util_stdio_vsprintf + 506
        0x0000f636:    980e        ..      LDR      r0,[sp,#0x38]
        0x0000f638:    1dc0        ..      ADDS     r0,r0,#7
        0x0000f63a:    f0200007     ...    BIC      r0,r0,#7
        0x0000f63e:    4601        .F      MOV      r1,r0
        0x0000f640:    900e        ..      STR      r0,[sp,#0x38]
        0x0000f642:    6800        .h      LDR      r0,[r0,#0]
        0x0000f644:    6849        Ih      LDR      r1,[r1,#4]
        0x0000f646:    9a0e        ..      LDR      r2,[sp,#0x38]
        0x0000f648:    3208        .2      ADDS     r2,r2,#8
        0x0000f64a:    920e        ..      STR      r2,[sp,#0x38]
        0x0000f64c:    e005        ..      B        0xf65a ; am_util_stdio_vsprintf + 518
        0x0000f64e:    980e        ..      LDR      r0,[sp,#0x38]
        0x0000f650:    6800        .h      LDR      r0,[r0,#0]
        0x0000f652:    990e        ..      LDR      r1,[sp,#0x38]
        0x0000f654:    1d09        ..      ADDS     r1,r1,#4
        0x0000f656:    910e        ..      STR      r1,[sp,#0x38]
        0x0000f658:    2100        .!      MOVS     r1,#0
        0x0000f65a:    4607        .F      MOV      r7,r0
        0x0000f65c:    4688        .F      MOV      r8,r1
        0x0000f65e:    b18e        ..      CBZ      r6,0xf684 ; am_util_stdio_vsprintf + 560
        0x0000f660:    4638        8F      MOV      r0,r7
        0x0000f662:    4641        AF      MOV      r1,r8
        0x0000f664:    f000fc1c    ....    BL       ndigits_in_u64 ; 0xfea0
        0x0000f668:    1a36        6.      SUBS     r6,r6,r0
        0x0000f66a:    4632        2F      MOV      r2,r6
        0x0000f66c:    4620         F      MOV      r0,r4
        0x0000f66e:    9904        ..      LDR      r1,[sp,#0x10]
        0x0000f670:    f000fc33    ..3.    BL       padbuffer ; 0xfeda
        0x0000f674:    4606        .F      MOV      r6,r0
        0x0000f676:    b10c        ..      CBZ      r4,0xf67c ; am_util_stdio_vsprintf + 552
        0x0000f678:    4630        0F      MOV      r0,r6
        0x0000f67a:    e000        ..      B        0xf67e ; am_util_stdio_vsprintf + 554
        0x0000f67c:    2000        .       MOVS     r0,#0
        0x0000f67e:    4404        .D      ADD      r4,r4,r0
        0x0000f680:    44b1        .D      ADD      r9,r9,r6
        0x0000f682:    2600        .&      MOVS     r6,#0
        0x0000f684:    4622        "F      MOV      r2,r4
        0x0000f686:    4638        8F      MOV      r0,r7
        0x0000f688:    4641        AF      MOV      r1,r8
        0x0000f68a:    f001f968    ..h.    BL       uint64_to_str ; 0x1095e
        0x0000f68e:    4682        .F      MOV      r10,r0
        0x0000f690:    b104        ..      CBZ      r4,0xf694 ; am_util_stdio_vsprintf + 576
        0x0000f692:    4454        TD      ADD      r4,r4,r10
        0x0000f694:    44d1        .D      ADD      r9,r9,r10
        0x0000f696:    e0a0        ..      B        0xf7da ; am_util_stdio_vsprintf + 902
        0x0000f698:    bf00        ..      NOP      
        0x0000f69a:    9802        ..      LDR      r0,[sp,#8]
        0x0000f69c:    b158        X.      CBZ      r0,0xf6b6 ; am_util_stdio_vsprintf + 610
        0x0000f69e:    980e        ..      LDR      r0,[sp,#0x38]
        0x0000f6a0:    1dc0        ..      ADDS     r0,r0,#7
        0x0000f6a2:    f0200007     ...    BIC      r0,r0,#7
        0x0000f6a6:    4601        .F      MOV      r1,r0
        0x0000f6a8:    900e        ..      STR      r0,[sp,#0x38]
        0x0000f6aa:    6800        .h      LDR      r0,[r0,#0]
        0x0000f6ac:    6849        Ih      LDR      r1,[r1,#4]
        0x0000f6ae:    9a0e        ..      LDR      r2,[sp,#0x38]
        0x0000f6b0:    3208        .2      ADDS     r2,r2,#8
        0x0000f6b2:    920e        ..      STR      r2,[sp,#0x38]
        0x0000f6b4:    e005        ..      B        0xf6c2 ; am_util_stdio_vsprintf + 622
        0x0000f6b6:    980e        ..      LDR      r0,[sp,#0x38]
        0x0000f6b8:    6800        .h      LDR      r0,[r0,#0]
        0x0000f6ba:    990e        ..      LDR      r1,[sp,#0x38]
        0x0000f6bc:    1d09        ..      ADDS     r1,r1,#4
        0x0000f6be:    910e        ..      STR      r1,[sp,#0x38]
        0x0000f6c0:    17c1        ..      ASRS     r1,r0,#31
        0x0000f6c2:    e9cd0108    ....    STRD     r0,r1,[sp,#0x20]
        0x0000f6c6:    2300        .#      MOVS     r3,#0
        0x0000f6c8:    e9dd0108    ....    LDRD     r0,r1,[sp,#0x20]
        0x0000f6cc:    1ac0        ..      SUBS     r0,r0,r3
        0x0000f6ce:    4199        .A      SBCS     r1,r1,r3
        0x0000f6d0:    da08        ..      BGE      0xf6e4 ; am_util_stdio_vsprintf + 656
        0x0000f6d2:    2200        ."      MOVS     r2,#0
        0x0000f6d4:    e9dd1008    ....    LDRD     r1,r0,[sp,#0x20]
        0x0000f6d8:    424f        OB      RSBS     r7,r1,#0
        0x0000f6da:    eb620800    b...    SBC      r8,r2,r0
        0x0000f6de:    2001        .       MOVS     r0,#1
        0x0000f6e0:    9001        ..      STR      r0,[sp,#4]
        0x0000f6e2:    e003        ..      B        0xf6ec ; am_util_stdio_vsprintf + 664
        0x0000f6e4:    e9dd7808    ...x    LDRD     r7,r8,[sp,#0x20]
        0x0000f6e8:    2000        .       MOVS     r0,#0
        0x0000f6ea:    9001        ..      STR      r0,[sp,#4]
        0x0000f6ec:    b34e        N.      CBZ      r6,0xf742 ; am_util_stdio_vsprintf + 750
        0x0000f6ee:    4638        8F      MOV      r0,r7
        0x0000f6f0:    4641        AF      MOV      r1,r8
        0x0000f6f2:    f000fbc3    ....    BL       ndigits_in_i64 ; 0xfe7c
        0x0000f6f6:    1a36        6.      SUBS     r6,r6,r0
        0x0000f6f8:    9801        ..      LDR      r0,[sp,#4]
        0x0000f6fa:    b148        H.      CBZ      r0,0xf710 ; am_util_stdio_vsprintf + 700
        0x0000f6fc:    1e76        v.      SUBS     r6,r6,#1
        0x0000f6fe:    9804        ..      LDR      r0,[sp,#0x10]
        0x0000f700:    2830        0(      CMP      r0,#0x30
        0x0000f702:    d105        ..      BNE      0xf710 ; am_util_stdio_vsprintf + 700
        0x0000f704:    b114        ..      CBZ      r4,0xf70c ; am_util_stdio_vsprintf + 696
        0x0000f706:    202d        -       MOVS     r0,#0x2d
        0x0000f708:    f8040b01    ....    STRB     r0,[r4],#1
        0x0000f70c:    f1090901    ....    ADD      r9,r9,#1
        0x0000f710:    4632        2F      MOV      r2,r6
        0x0000f712:    4620         F      MOV      r0,r4
        0x0000f714:    9904        ..      LDR      r1,[sp,#0x10]
        0x0000f716:    f000fbe0    ....    BL       padbuffer ; 0xfeda
        0x0000f71a:    4606        .F      MOV      r6,r0
        0x0000f71c:    b10c        ..      CBZ      r4,0xf722 ; am_util_stdio_vsprintf + 718
        0x0000f71e:    4630        0F      MOV      r0,r6
        0x0000f720:    e000        ..      B        0xf724 ; am_util_stdio_vsprintf + 720
        0x0000f722:    2000        .       MOVS     r0,#0
        0x0000f724:    4404        .D      ADD      r4,r4,r0
        0x0000f726:    44b1        .D      ADD      r9,r9,r6
        0x0000f728:    2600        .&      MOVS     r6,#0
        0x0000f72a:    9801        ..      LDR      r0,[sp,#4]
        0x0000f72c:    b188        ..      CBZ      r0,0xf752 ; am_util_stdio_vsprintf + 766
        0x0000f72e:    9804        ..      LDR      r0,[sp,#0x10]
        0x0000f730:    2820         (      CMP      r0,#0x20
        0x0000f732:    d10e        ..      BNE      0xf752 ; am_util_stdio_vsprintf + 766
        0x0000f734:    b114        ..      CBZ      r4,0xf73c ; am_util_stdio_vsprintf + 744
        0x0000f736:    202d        -       MOVS     r0,#0x2d
        0x0000f738:    f8040b01    ....    STRB     r0,[r4],#1
        0x0000f73c:    f1090901    ....    ADD      r9,r9,#1
        0x0000f740:    e007        ..      B        0xf752 ; am_util_stdio_vsprintf + 766
        0x0000f742:    9801        ..      LDR      r0,[sp,#4]
        0x0000f744:    b128        (.      CBZ      r0,0xf752 ; am_util_stdio_vsprintf + 766
        0x0000f746:    b114        ..      CBZ      r4,0xf74e ; am_util_stdio_vsprintf + 762
        0x0000f748:    202d        -       MOVS     r0,#0x2d
        0x0000f74a:    f8040b01    ....    STRB     r0,[r4],#1
        0x0000f74e:    f1090901    ....    ADD      r9,r9,#1
        0x0000f752:    4622        "F      MOV      r2,r4
        0x0000f754:    4638        8F      MOV      r0,r7
        0x0000f756:    4641        AF      MOV      r1,r8
        0x0000f758:    f001f901    ....    BL       uint64_to_str ; 0x1095e
        0x0000f75c:    4682        .F      MOV      r10,r0
        0x0000f75e:    b104        ..      CBZ      r4,0xf762 ; am_util_stdio_vsprintf + 782
        0x0000f760:    4454        TD      ADD      r4,r4,r10
        0x0000f762:    44d1        .D      ADD      r9,r9,r10
        0x0000f764:    e039        9.      B        0xf7da ; am_util_stdio_vsprintf + 902
        0x0000f766:    bf00        ..      NOP      
        0x0000f768:    b37c        |.      CBZ      r4,0xf7ca ; am_util_stdio_vsprintf + 886
        0x0000f76a:    980e        ..      LDR      r0,[sp,#0x38]
        0x0000f76c:    1dc0        ..      ADDS     r0,r0,#7
        0x0000f76e:    f0200007     ...    BIC      r0,r0,#7
        0x0000f772:    900e        ..      STR      r0,[sp,#0x38]
        0x0000f774:    ecb01b02    ....    VLDM     r0!,{d1}
        0x0000f778:    eeb00a41    ..A.    VMOV.F32 s0,s2
        0x0000f77c:    eef00a61    ..a.    VMOV.F32 s1,s3
        0x0000f780:    900e        ..      STR      r0,[sp,#0x38]
        0x0000f782:    ec510b10    Q...    VMOV     r0,r1,d0
        0x0000f786:    f002f9bb    ....    BL       __aeabi_d2f ; 0x11b00
        0x0000f78a:    ee080a10    ....    VMOV     s16,r0
        0x0000f78e:    2014        .       MOVS     r0,#0x14
        0x0000f790:    6020         `      STR      r0,[r4,#0]
        0x0000f792:    4620         F      MOV      r0,r4
        0x0000f794:    eeb00a48    ..H.    VMOV.F32 s0,s16
        0x0000f798:    9906        ..      LDR      r1,[sp,#0x18]
        0x0000f79a:    f000fa19    ....    BL       ftoa ; 0xfbd0
        0x0000f79e:    4682        .F      MOV      r10,r0
        0x0000f7a0:    f1ba0f00    ....    CMP      r10,#0
        0x0000f7a4:    da0e        ..      BGE      0xf7c4 ; am_util_stdio_vsprintf + 880
        0x0000f7a6:    f10a0101    ....    ADD      r1,r10,#1
        0x0000f7aa:    b909        ..      CBNZ     r1,0xf7b0 ; am_util_stdio_vsprintf + 860
        0x0000f7ac:    4813        .H      LDR      r0,[pc,#76] ; [0xf7fc] = 0x302e30
        0x0000f7ae:    e005        ..      B        0xf7bc ; am_util_stdio_vsprintf + 872
        0x0000f7b0:    f10a0102    ....    ADD      r1,r10,#2
        0x0000f7b4:    b909        ..      CBNZ     r1,0xf7ba ; am_util_stdio_vsprintf + 870
        0x0000f7b6:    4812        .H      LDR      r0,[pc,#72] ; [0xf800] = 0x232e23
        0x0000f7b8:    e000        ..      B        0xf7bc ; am_util_stdio_vsprintf + 872
        0x0000f7ba:    4812        .H      LDR      r0,[pc,#72] ; [0xf804] = 0x3f2e3f
        0x0000f7bc:    6020         `      STR      r0,[r4,#0]
        0x0000f7be:    f04f0a03    O...    MOV      r10,#3
        0x0000f7c2:    bf00        ..      NOP      
        0x0000f7c4:    44d1        .D      ADD      r9,r9,r10
        0x0000f7c6:    4454        TD      ADD      r4,r4,r10
        0x0000f7c8:    bf00        ..      NOP      
        0x0000f7ca:    e006        ..      B        0xf7da ; am_util_stdio_vsprintf + 902
        0x0000f7cc:    b114        ..      CBZ      r4,0xf7d4 ; am_util_stdio_vsprintf + 896
        0x0000f7ce:    7828        (x      LDRB     r0,[r5,#0]
        0x0000f7d0:    f8040b01    ....    STRB     r0,[r4],#1
        0x0000f7d4:    f1090901    ....    ADD      r9,r9,#1
        0x0000f7d8:    bf00        ..      NOP      
        0x0000f7da:    bf00        ..      NOP      
        0x0000f7dc:    1c6d        m.      ADDS     r5,r5,#1
        0x0000f7de:    bf00        ..      NOP      
        0x0000f7e0:    7828        (x      LDRB     r0,[r5,#0]
        0x0000f7e2:    2800        .(      CMP      r0,#0
        0x0000f7e4:    f47fae42    ..B.    BNE      0xf46c ; am_util_stdio_vsprintf + 24
        0x0000f7e8:    b104        ..      CBZ      r4,0xf7ec ; am_util_stdio_vsprintf + 920
        0x0000f7ea:    7020         p      STRB     r0,[r4,#0]
        0x0000f7ec:    4648        HF      MOV      r0,r9
        0x0000f7ee:    b00a        ..      ADD      sp,sp,#0x28
        0x0000f7f0:    ecbd8b02    ....    VPOP     {d8}
        0x0000f7f4:    e8bd8ffe    ....    POP      {r1-r11,pc}
    $d
        0x0000f7f8:    10013068    h0..    DCD    268513384
        0x0000f7fc:    00302e30    0.0.    DCD    3157552
        0x0000f800:    00232e23    #.#.    DCD    2305571
        0x0000f804:    003f2e3f    ?.?.    DCD    4140607
    $t
    i.button_timer_handler
    button_timer_handler
        0x0000f808:    b510        ..      PUSH     {r4,lr}
        0x0000f80a:    4604        .F      MOV      r4,r0
        0x0000f80c:    2103        .!      MOVS     r1,#3
        0x0000f80e:    484c        LH      LDR      r0,[pc,#304] ; [0xf940] = 0x1001312c
        0x0000f810:    f7fdf9b3    ....    BL       am_devices_button_array_tick ; 0xcb7a
        0x0000f814:    484a        JH      LDR      r0,[pc,#296] ; [0xf940] = 0x1001312c
        0x0000f816:    7b00        .{      LDRB     r0,[r0,#0xc]
        0x0000f818:    b948        H.      CBNZ     r0,0xf82e ; button_timer_handler + 38
        0x0000f81a:    4849        IH      LDR      r0,[pc,#292] ; [0xf940] = 0x1001312c
        0x0000f81c:    7b40        @{      LDRB     r0,[r0,#0xd]
        0x0000f81e:    2801        .(      CMP      r0,#1
        0x0000f820:    d105        ..      BNE      0xf82e ; button_timer_handler + 38
        0x0000f822:    a048        H.      ADR      r0,{pc}+0x122 ; 0xf944
        0x0000f824:    f7fffdf2    ....    BL       am_util_stdio_printf ; 0xf40c
        0x0000f828:    2002        .       MOVS     r0,#2
        0x0000f82a:    f7fcfe85    ....    BL       AppUiBtnTest ; 0xc538
        0x0000f82e:    4844        DH      LDR      r0,[pc,#272] ; [0xf940] = 0x1001312c
        0x0000f830:    7f00        ..      LDRB     r0,[r0,#0x1c]
        0x0000f832:    2800        .(      CMP      r0,#0
        0x0000f834:    d177        w.      BNE      0xf926 ; button_timer_handler + 286
        0x0000f836:    4842        BH      LDR      r0,[pc,#264] ; [0xf940] = 0x1001312c
        0x0000f838:    7f40        @.      LDRB     r0,[r0,#0x1d]
        0x0000f83a:    2801        .(      CMP      r0,#1
        0x0000f83c:    d173        s.      BNE      0xf926 ; button_timer_handler + 286
        0x0000f83e:    2002        .       MOVS     r0,#2
        0x0000f840:    f7fcfe7a    ..z.    BL       AppUiBtnTest ; 0xc538
        0x0000f844:    4844        DH      LDR      r0,[pc,#272] ; [0xf958] = 0x10013060
        0x0000f846:    7800        .x      LDRB     r0,[r0,#0]
        0x0000f848:    4943        CI      LDR      r1,[pc,#268] ; [0xf958] = 0x10013060
        0x0000f84a:    7809        .x      LDRB     r1,[r1,#0]
        0x0000f84c:    1c49        I.      ADDS     r1,r1,#1
        0x0000f84e:    4a42        BJ      LDR      r2,[pc,#264] ; [0xf958] = 0x10013060
        0x0000f850:    7011        .p      STRB     r1,[r2,#0]
        0x0000f852:    2806        .(      CMP      r0,#6
        0x0000f854:    d25e        ^.      BCS      0xf914 ; button_timer_handler + 268
        0x0000f856:    e8dff000    ....    TBB      [pc,r0]
    $d
        0x0000f85a:    1203        ..      DCW    4611
        0x0000f85c:    4e3f3021    !0?N    DCD    1312763937
    $t
        0x0000f860:    f7fcffb8    ....    BL       HciDrvRadioShutdown ; 0xc7d4
        0x0000f864:    2000        .       MOVS     r0,#0
        0x0000f866:    f7fcfe91    ....    BL       HciDrvRadioBoot ; 0xc58c
        0x0000f86a:    200f        .       MOVS     r0,#0xf
        0x0000f86c:    f7fdf838    ..8.    BL       HciVsA3_SetRfPowerLevelEx ; 0xc8e0
        0x0000f870:    2000        .       MOVS     r0,#0
        0x0000f872:    f7fdf821    ..!.    BL       HciVsA3_CarrierWaveMode ; 0xc8b8
        0x0000f876:    a039        9.      ADR      r0,{pc}+0xe6 ; 0xf95c
        0x0000f878:    f7fffdc8    ....    BL       am_util_stdio_printf ; 0xf40c
        0x0000f87c:    e04b        K.      B        0xf916 ; button_timer_handler + 270
        0x0000f87e:    f7fcffa9    ....    BL       HciDrvRadioShutdown ; 0xc7d4
        0x0000f882:    2000        .       MOVS     r0,#0
        0x0000f884:    f7fcfe82    ....    BL       HciDrvRadioBoot ; 0xc58c
        0x0000f888:    200f        .       MOVS     r0,#0xf
        0x0000f88a:    f7fdf829    ..).    BL       HciVsA3_SetRfPowerLevelEx ; 0xc8e0
        0x0000f88e:    2013        .       MOVS     r0,#0x13
        0x0000f890:    f7fdf812    ....    BL       HciVsA3_CarrierWaveMode ; 0xc8b8
        0x0000f894:    a03b        ;.      ADR      r0,{pc}+0xf0 ; 0xf984
        0x0000f896:    f7fffdb9    ....    BL       am_util_stdio_printf ; 0xf40c
        0x0000f89a:    e03c        <.      B        0xf916 ; button_timer_handler + 270
        0x0000f89c:    f7fcff9a    ....    BL       HciDrvRadioShutdown ; 0xc7d4
        0x0000f8a0:    2000        .       MOVS     r0,#0
        0x0000f8a2:    f7fcfe73    ..s.    BL       HciDrvRadioBoot ; 0xc58c
        0x0000f8a6:    200f        .       MOVS     r0,#0xf
        0x0000f8a8:    f7fdf81a    ....    BL       HciVsA3_SetRfPowerLevelEx ; 0xc8e0
        0x0000f8ac:    2027        '       MOVS     r0,#0x27
        0x0000f8ae:    f7fdf803    ....    BL       HciVsA3_CarrierWaveMode ; 0xc8b8
        0x0000f8b2:    a03e        >.      ADR      r0,{pc}+0xfa ; 0xf9ac
        0x0000f8b4:    f7fffdaa    ....    BL       am_util_stdio_printf ; 0xf40c
        0x0000f8b8:    e02d        -.      B        0xf916 ; button_timer_handler + 270
        0x0000f8ba:    f7fcff8b    ....    BL       HciDrvRadioShutdown ; 0xc7d4
        0x0000f8be:    2000        .       MOVS     r0,#0
        0x0000f8c0:    f7fcfe64    ..d.    BL       HciDrvRadioBoot ; 0xc58c
        0x0000f8c4:    200f        .       MOVS     r0,#0xf
        0x0000f8c6:    f7fdf80b    ....    BL       HciVsA3_SetRfPowerLevelEx ; 0xc8e0
        0x0000f8ca:    a042        B.      ADR      r0,{pc}+0x10a ; 0xf9d4
        0x0000f8cc:    f7fffd9e    ....    BL       am_util_stdio_printf ; 0xf40c
        0x0000f8d0:    2000        .       MOVS     r0,#0
        0x0000f8d2:    f7fcfffb    ....    BL       HciVsA3_ConstantTransmission ; 0xc8cc
        0x0000f8d6:    e01e        ..      B        0xf916 ; button_timer_handler + 270
        0x0000f8d8:    f7fcff7c    ..|.    BL       HciDrvRadioShutdown ; 0xc7d4
        0x0000f8dc:    2000        .       MOVS     r0,#0
        0x0000f8de:    f7fcfe55    ..U.    BL       HciDrvRadioBoot ; 0xc58c
        0x0000f8e2:    200f        .       MOVS     r0,#0xf
        0x0000f8e4:    f7fcfffc    ....    BL       HciVsA3_SetRfPowerLevelEx ; 0xc8e0
        0x0000f8e8:    a045        E.      ADR      r0,{pc}+0x118 ; 0xfa00
        0x0000f8ea:    f7fffd8f    ....    BL       am_util_stdio_printf ; 0xf40c
        0x0000f8ee:    2013        .       MOVS     r0,#0x13
        0x0000f8f0:    f7fcffec    ....    BL       HciVsA3_ConstantTransmission ; 0xc8cc
        0x0000f8f4:    e00f        ..      B        0xf916 ; button_timer_handler + 270
        0x0000f8f6:    f7fcff6d    ..m.    BL       HciDrvRadioShutdown ; 0xc7d4
        0x0000f8fa:    2000        .       MOVS     r0,#0
        0x0000f8fc:    f7fcfe46    ..F.    BL       HciDrvRadioBoot ; 0xc58c
        0x0000f900:    200f        .       MOVS     r0,#0xf
        0x0000f902:    f7fcffed    ....    BL       HciVsA3_SetRfPowerLevelEx ; 0xc8e0
        0x0000f906:    a049        I.      ADR      r0,{pc}+0x126 ; 0xfa2c
        0x0000f908:    f7fffd80    ....    BL       am_util_stdio_printf ; 0xf40c
        0x0000f90c:    2027        '       MOVS     r0,#0x27
        0x0000f90e:    f7fcffdd    ....    BL       HciVsA3_ConstantTransmission ; 0xc8cc
        0x0000f912:    e000        ..      B        0xf916 ; button_timer_handler + 270
        0x0000f914:    bf00        ..      NOP      
        0x0000f916:    bf00        ..      NOP      
        0x0000f918:    480f        .H      LDR      r0,[pc,#60] ; [0xf958] = 0x10013060
        0x0000f91a:    7800        .x      LDRB     r0,[r0,#0]
        0x0000f91c:    2806        .(      CMP      r0,#6
        0x0000f91e:    db02        ..      BLT      0xf926 ; button_timer_handler + 286
        0x0000f920:    2000        .       MOVS     r0,#0
        0x0000f922:    490d        .I      LDR      r1,[pc,#52] ; [0xf958] = 0x10013060
        0x0000f924:    7008        .p      STRB     r0,[r1,#0]
        0x0000f926:    4806        .H      LDR      r0,[pc,#24] ; [0xf940] = 0x1001312c
        0x0000f928:    f890002c    ..,.    LDRB     r0,[r0,#0x2c]
        0x0000f92c:    b938        8.      CBNZ     r0,0xf93e ; button_timer_handler + 310
        0x0000f92e:    4804        .H      LDR      r0,[pc,#16] ; [0xf940] = 0x1001312c
        0x0000f930:    f890002d    ..-.    LDRB     r0,[r0,#0x2d]
        0x0000f934:    2801        .(      CMP      r0,#1
        0x0000f936:    d102        ..      BNE      0xf93e ; button_timer_handler + 310
        0x0000f938:    2007        .       MOVS     r0,#7
        0x0000f93a:    f7fcfdfd    ....    BL       AppUiBtnTest ; 0xc538
        0x0000f93e:    bd10        ..      POP      {r4,pc}
    $d
        0x0000f940:    1001312c    ,1..    DCD    268513580
        0x0000f944:    20746f47    Got     DCD    544501575
        0x0000f948:    74747542    Butt    DCD    1953789250
        0x0000f94c:    30206e6f    on 0    DCD    807431791
        0x0000f950:    65725020     Pre    DCD    1701990432
        0x0000f954:    000a7373    ss..    DCD    684915
        0x0000f958:    10013060    `0..    DCD    268513376
        0x0000f95c:    746e6f43    Cont    DCD    1953394499
        0x0000f960:    6f756e69    inuo    DCD    1869966953
        0x0000f964:    57207375    us W    DCD    1461744501
        0x0000f968:    20657661    ave     DCD    543520353
        0x0000f96c:    43206e6f    on C    DCD    1126198895
        0x0000f970:    6e6e6168    hann    DCD    1852727656
        0x0000f974:    32206c65    el 2    DCD    840985701
        0x0000f978:    20323034    402     DCD    540160052
        0x0000f97c:    0a7a484d    MHz.    DCD    175786061
        0x0000f980:    00000000    ....    DCD    0
        0x0000f984:    746e6f43    Cont    DCD    1953394499
        0x0000f988:    6f756e69    inuo    DCD    1869966953
        0x0000f98c:    57207375    us W    DCD    1461744501
        0x0000f990:    20657661    ave     DCD    543520353
        0x0000f994:    43206e6f    on C    DCD    1126198895
        0x0000f998:    6e6e6168    hann    DCD    1852727656
        0x0000f99c:    32206c65    el 2    DCD    840985701
        0x0000f9a0:    20303434    440     DCD    540030004
        0x0000f9a4:    0a7a484d    MHz.    DCD    175786061
        0x0000f9a8:    00000000    ....    DCD    0
        0x0000f9ac:    746e6f43    Cont    DCD    1953394499
        0x0000f9b0:    6f756e69    inuo    DCD    1869966953
        0x0000f9b4:    57207375    us W    DCD    1461744501
        0x0000f9b8:    20657661    ave     DCD    543520353
        0x0000f9bc:    43206e6f    on C    DCD    1126198895
        0x0000f9c0:    6e6e6168    hann    DCD    1852727656
        0x0000f9c4:    32206c65    el 2    DCD    840985701
        0x0000f9c8:    20303834    480     DCD    540031028
        0x0000f9cc:    0a7a484d    MHz.    DCD    175786061
        0x0000f9d0:    00000000    ....    DCD    0
        0x0000f9d4:    746e6f43    Cont    DCD    1953394499
        0x0000f9d8:    6f756e69    inuo    DCD    1869966953
        0x0000f9dc:    4d207375    us M    DCD    1293972341
        0x0000f9e0:    6c75646f    odul    DCD    1819632751
        0x0000f9e4:    6f697461    atio    DCD    1869182049
        0x0000f9e8:    6e6f206e    n on    DCD    1852776558
        0x0000f9ec:    61684320     Cha    DCD    1634222880
        0x0000f9f0:    6c656e6e    nnel    DCD    1818586734
        0x0000f9f4:    30343220     240    DCD    808727072
        0x0000f9f8:    484d2032    2 MH    DCD    1213014066
        0x0000f9fc:    00000a7a    z...    DCD    2682
        0x0000fa00:    746e6f43    Cont    DCD    1953394499
        0x0000fa04:    6f756e69    inuo    DCD    1869966953
        0x0000fa08:    4d207375    us M    DCD    1293972341
        0x0000fa0c:    6c75646f    odul    DCD    1819632751
        0x0000fa10:    6f697461    atio    DCD    1869182049
        0x0000fa14:    6e6f206e    n on    DCD    1852776558
        0x0000fa18:    61684320     Cha    DCD    1634222880
        0x0000fa1c:    6c656e6e    nnel    DCD    1818586734
        0x0000fa20:    34343220     244    DCD    875835936
        0x0000fa24:    484d2030    0 MH    DCD    1213014064
        0x0000fa28:    00000a7a    z...    DCD    2682
        0x0000fa2c:    746e6f43    Cont    DCD    1953394499
        0x0000fa30:    6f756e69    inuo    DCD    1869966953
        0x0000fa34:    4d207375    us M    DCD    1293972341
        0x0000fa38:    6c75646f    odul    DCD    1819632751
        0x0000fa3c:    6f697461    atio    DCD    1869182049
        0x0000fa40:    6e6f206e    n on    DCD    1852776558
        0x0000fa44:    61684320     Cha    DCD    1634222880
        0x0000fa48:    6c656e6e    nnel    DCD    1818586734
        0x0000fa4c:    38343220     248    DCD    942944800
        0x0000fa50:    484d2030    0 MH    DCD    1213014064
        0x0000fa54:    00000a7a    z...    DCD    2682
    $t
    i.decstr_to_int
    decstr_to_int
        0x0000fa58:    b530        0.      PUSH     {r4,r5,lr}
        0x0000fa5a:    4602        .F      MOV      r2,r0
        0x0000fa5c:    2500        .%      MOVS     r5,#0
        0x0000fa5e:    2300        .#      MOVS     r3,#0
        0x0000fa60:    2400        .$      MOVS     r4,#0
        0x0000fa62:    7810        .x      LDRB     r0,[r2,#0]
        0x0000fa64:    282d        -(      CMP      r0,#0x2d
        0x0000fa66:    d102        ..      BNE      0xfa6e ; decstr_to_int + 22
        0x0000fa68:    2501        .%      MOVS     r5,#1
        0x0000fa6a:    1c52        R.      ADDS     r2,r2,#1
        0x0000fa6c:    1c64        d.      ADDS     r4,r4,#1
        0x0000fa6e:    e007        ..      B        0xfa80 ; decstr_to_int + 40
        0x0000fa70:    1c64        d.      ADDS     r4,r4,#1
        0x0000fa72:    eb030083    ....    ADD      r0,r3,r3,LSL #2
        0x0000fa76:    0043        C.      LSLS     r3,r0,#1
        0x0000fa78:    7810        .x      LDRB     r0,[r2,#0]
        0x0000fa7a:    3830        08      SUBS     r0,r0,#0x30
        0x0000fa7c:    4403        .D      ADD      r3,r3,r0
        0x0000fa7e:    1c52        R.      ADDS     r2,r2,#1
        0x0000fa80:    7810        .x      LDRB     r0,[r2,#0]
        0x0000fa82:    2830        0(      CMP      r0,#0x30
        0x0000fa84:    db02        ..      BLT      0xfa8c ; decstr_to_int + 52
        0x0000fa86:    7810        .x      LDRB     r0,[r2,#0]
        0x0000fa88:    2839        9(      CMP      r0,#0x39
        0x0000fa8a:    ddf1        ..      BLE      0xfa70 ; decstr_to_int + 24
        0x0000fa8c:    b101        ..      CBZ      r1,0xfa90 ; decstr_to_int + 56
        0x0000fa8e:    600c        .`      STR      r4,[r1,#0]
        0x0000fa90:    b10d        ..      CBZ      r5,0xfa96 ; decstr_to_int + 62
        0x0000fa92:    4258        XB      RSBS     r0,r3,#0
        0x0000fa94:    bd30        0.      POP      {r4,r5,pc}
        0x0000fa96:    4618        .F      MOV      r0,r3
        0x0000fa98:    e7fc        ..      B        0xfa94 ; decstr_to_int + 60
    i.divu64_10
    divu64_10
        0x0000fa9a:    e92d4ff0    -..O    PUSH     {r4-r11,lr}
        0x0000fa9e:    4604        .F      MOV      r4,r0
        0x0000faa0:    460d        .F      MOV      r5,r1
        0x0000faa2:    2000        .       MOVS     r0,#0
        0x0000faa4:    ea850100    ....    EOR      r1,r5,r0
        0x0000faa8:    4040        @@      EORS     r0,r0,r0
        0x0000faaa:    4301        .C      ORRS     r1,r1,r0
        0x0000faac:    d044        D.      BEQ      0xfb38 ; divu64_10 + 158
        0x0000faae:    ea5f0a55    _.U.    LSRS     r10,r5,#1
        0x0000fab2:    ea4f0134    O.4.    RRX      r1,r4
        0x0000fab6:    ea4f0b94    O...    LSR      r11,r4,#2
        0x0000faba:    ea4b7085    K..p    ORR      r0,r11,r5,LSL #30
        0x0000fabe:    180a        ..      ADDS     r2,r1,r0
        0x0000fac0:    eb4a0395    J...    ADC      r3,r10,r5,LSR #2
        0x0000fac4:    ea4f1012    O...    LSR      r0,r2,#4
        0x0000fac8:    ea407a03    @..z    ORR      r10,r0,r3,LSL #28
        0x0000facc:    eb1a0202    ....    ADDS     r2,r10,r2
        0x0000fad0:    eb431313    C...    ADC      r3,r3,r3,LSR #4
        0x0000fad4:    ea4f2012    O..     LSR      r0,r2,#8
        0x0000fad8:    ea406a03    @..j    ORR      r10,r0,r3,LSL #24
        0x0000fadc:    eb1a0202    ....    ADDS     r2,r10,r2
        0x0000fae0:    eb432313    C..#    ADC      r3,r3,r3,LSR #8
        0x0000fae4:    ea4f4012    O..@    LSR      r0,r2,#16
        0x0000fae8:    ea404a03    @..J    ORR      r10,r0,r3,LSL #16
        0x0000faec:    eb1a0202    ....    ADDS     r2,r10,r2
        0x0000faf0:    eb434313    C..C    ADC      r3,r3,r3,LSR #16
        0x0000faf4:    189a        ..      ADDS     r2,r3,r2
        0x0000faf6:    f1430300    C...    ADC      r3,r3,#0
        0x0000fafa:    08d0        ..      LSRS     r0,r2,#3
        0x0000fafc:    ea407243    @.Cr    ORR      r2,r0,r3,LSL #29
        0x0000fb00:    08db        ..      LSRS     r3,r3,#3
        0x0000fb02:    210a        .!      MOVS     r1,#0xa
        0x0000fb04:    f04f0a00    O...    MOV      r10,#0
        0x0000fb08:    fba20b01    ....    UMULL    r0,r11,r2,r1
        0x0000fb0c:    fb03b101    ....    MLA      r1,r3,r1,r11
        0x0000fb10:    fb02110a    ....    MLA      r1,r2,r10,r1
        0x0000fb14:    1a26        &.      SUBS     r6,r4,r0
        0x0000fb16:    eb650701    e...    SBC      r7,r5,r1
        0x0000fb1a:    2106        .!      MOVS     r1,#6
        0x0000fb1c:    eb160a01    ....    ADDS     r10,r6,r1
        0x0000fb20:    f1470100    G...    ADC      r1,r7,#0
        0x0000fb24:    ea4f101a    O...    LSR      r0,r10,#4
        0x0000fb28:    ea407a01    @..z    ORR      r10,r0,r1,LSL #28
        0x0000fb2c:    eb1a0002    ....    ADDS     r0,r10,r2
        0x0000fb30:    eb431111    C...    ADC      r1,r3,r1,LSR #4
        0x0000fb34:    e8bd8ff0    ....    POP      {r4-r11,pc}
        0x0000fb38:    46a0        .F      MOV      r8,r4
        0x0000fb3a:    ea4f0058    O.X.    LSR      r0,r8,#1
        0x0000fb3e:    eb000c98    ....    ADD      r12,r0,r8,LSR #2
        0x0000fb42:    eb0c1c1c    ....    ADD      r12,r12,r12,LSR #4
        0x0000fb46:    eb0c2c1c    ...,    ADD      r12,r12,r12,LSR #8
        0x0000fb4a:    eb0c4c1c    ...L    ADD      r12,r12,r12,LSR #16
        0x0000fb4e:    ea4f0cdc    O...    LSR      r12,r12,#3
        0x0000fb52:    eb0c008c    ....    ADD      r0,r12,r12,LSL #2
        0x0000fb56:    eba80940    ..@.    SUB      r9,r8,r0,LSL #1
        0x0000fb5a:    f1090006    ....    ADD      r0,r9,#6
        0x0000fb5e:    eb0c1010    ....    ADD      r0,r12,r0,LSR #4
        0x0000fb62:    2100        .!      MOVS     r1,#0
        0x0000fb64:    e7e6        ..      B        0xfb34 ; divu64_10 + 154
        0x0000fb66:    0000        ..      MOVS     r0,r0
    i.eTaskConfirmSleepModeStatus
    eTaskConfirmSleepModeStatus
        0x0000fb68:    2101        .!      MOVS     r1,#1
        0x0000fb6a:    2001        .       MOVS     r0,#1
        0x0000fb6c:    4a09        .J      LDR      r2,[pc,#36] ; [0xfb94] = 0x100183d8
        0x0000fb6e:    6812        .h      LDR      r2,[r2,#0]
        0x0000fb70:    b10a        ..      CBZ      r2,0xfb76 ; eTaskConfirmSleepModeStatus + 14
        0x0000fb72:    2000        .       MOVS     r0,#0
        0x0000fb74:    e00c        ..      B        0xfb90 ; eTaskConfirmSleepModeStatus + 40
        0x0000fb76:    4a08        .J      LDR      r2,[pc,#32] ; [0xfb98] = 0x100130a4
        0x0000fb78:    6812        .h      LDR      r2,[r2,#0]
        0x0000fb7a:    b10a        ..      CBZ      r2,0xfb80 ; eTaskConfirmSleepModeStatus + 24
        0x0000fb7c:    2000        .       MOVS     r0,#0
        0x0000fb7e:    e007        ..      B        0xfb90 ; eTaskConfirmSleepModeStatus + 40
        0x0000fb80:    4a06        .J      LDR      r2,[pc,#24] ; [0xfb9c] = 0x100183ec
        0x0000fb82:    6813        .h      LDR      r3,[r2,#0]
        0x0000fb84:    4a06        .J      LDR      r2,[pc,#24] ; [0xfba0] = 0x10013090
        0x0000fb86:    6812        .h      LDR      r2,[r2,#0]
        0x0000fb88:    1e52        R.      SUBS     r2,r2,#1
        0x0000fb8a:    4293        .B      CMP      r3,r2
        0x0000fb8c:    d100        ..      BNE      0xfb90 ; eTaskConfirmSleepModeStatus + 40
        0x0000fb8e:    2002        .       MOVS     r0,#2
        0x0000fb90:    4770        pG      BX       lr
    $d
        0x0000fb92:    0000        ..      DCW    0
        0x0000fb94:    100183d8    ....    DCD    268534744
        0x0000fb98:    100130a4    .0..    DCD    268513444
        0x0000fb9c:    100183ec    ....    DCD    268534764
        0x0000fba0:    10013090    .0..    DCD    268513424
    $t
    i.enable_print_interface
    enable_print_interface
        0x0000fba4:    b510        ..      PUSH     {r4,lr}
        0x0000fba6:    f7fcff9b    ....    BL       am_bsp_itm_printf_enable ; 0xcae0
        0x0000fbaa:    bd10        ..      POP      {r4,pc}
    i.error_check
    error_check
        0x0000fbac:    b510        ..      PUSH     {r4,lr}
        0x0000fbae:    4604        .F      MOV      r4,r0
        0x0000fbb0:    b14c        L.      CBZ      r4,0xfbc6 ; error_check + 26
        0x0000fbb2:    4805        .H      LDR      r0,[pc,#20] ; [0xfbc8] = 0x10013058
        0x0000fbb4:    6004        .`      STR      r4,[r0,#0]
        0x0000fbb6:    4805        .H      LDR      r0,[pc,#20] ; [0xfbcc] = 0x10013054
        0x0000fbb8:    6800        .h      LDR      r0,[r0,#0]
        0x0000fbba:    b120         .      CBZ      r0,0xfbc6 ; error_check + 26
        0x0000fbbc:    4802        .H      LDR      r0,[pc,#8] ; [0xfbc8] = 0x10013058
        0x0000fbbe:    6800        .h      LDR      r0,[r0,#0]
        0x0000fbc0:    4902        .I      LDR      r1,[pc,#8] ; [0xfbcc] = 0x10013054
        0x0000fbc2:    6809        .h      LDR      r1,[r1,#0]
        0x0000fbc4:    4788        .G      BLX      r1
        0x0000fbc6:    bd10        ..      POP      {r4,pc}
    $d
        0x0000fbc8:    10013058    X0..    DCD    268513368
        0x0000fbcc:    10013054    T0..    DCD    268513364
    $t
    i.ftoa
    ftoa
        0x0000fbd0:    e92d4ff3    -..O    PUSH     {r0,r1,r4-r11,lr}
        0x0000fbd4:    ed2d0b02    -...    VPUSH    {d0}
        0x0000fbd8:    ed2d8b02    -...    VPUSH    {d8}
        0x0000fbdc:    b081        ..      SUB      sp,sp,#4
        0x0000fbde:    eeb08a40    ..@.    VMOV.F32 s16,s0
        0x0000fbe2:    4604        .F      MOV      r4,r0
        0x0000fbe4:    f8d4b000    ....    LDR      r11,[r4,#0]
        0x0000fbe8:    f1bb0f04    ....    CMP      r11,#4
        0x0000fbec:    da07        ..      BGE      0xfbfe ; ftoa + 46
        0x0000fbee:    f06f0002    o...    MVN      r0,#2
        0x0000fbf2:    b001        ..      ADD      sp,sp,#4
        0x0000fbf4:    ecbd8b02    ....    VPOP     {d8}
        0x0000fbf8:    b004        ..      ADD      sp,sp,#0x10
        0x0000fbfa:    e8bd8ff0    ....    POP      {r4-r11,pc}
        0x0000fbfe:    eeb58ac0    ....    VCMPE.F32 s16,#0.0
        0x0000fc02:    eef1fa10    ....    VMRS     APSR_nzcv,FPSCR
        0x0000fc06:    d103        ..      BNE      0xfc10 ; ftoa + 64
        0x0000fc08:    484e        NH      LDR      r0,[pc,#312] ; [0xfd44] = 0x302e30
        0x0000fc0a:    6020         `      STR      r0,[r4,#0]
        0x0000fc0c:    2003        .       MOVS     r0,#3
        0x0000fc0e:    e7f0        ..      B        0xfbf2 ; ftoa + 34
        0x0000fc10:    46a2        .F      MOV      r10,r4
        0x0000fc12:    ed8d8a00    ....    VSTR     s16,[sp,#0]
        0x0000fc16:    9800        ..      LDR      r0,[sp,#0]
        0x0000fc18:    f3c050c7    ...P    UBFX     r0,r0,#23,#8
        0x0000fc1c:    f1a0057f    ....    SUB      r5,r0,#0x7f
        0x0000fc20:    9800        ..      LDR      r0,[sp,#0]
        0x0000fc22:    f020407f     ..@    BIC      r0,r0,#0xff000000
        0x0000fc26:    f4400900    @...    ORR      r9,r0,#0x800000
        0x0000fc2a:    f04f0800    O...    MOV      r8,#0
        0x0000fc2e:    2700        .'      MOVS     r7,#0
        0x0000fc30:    2d1f        .-      CMP      r5,#0x1f
        0x0000fc32:    db01        ..      BLT      0xfc38 ; ftoa + 104
        0x0000fc34:    1eb8        ..      SUBS     r0,r7,#2
        0x0000fc36:    e7dc        ..      B        0xfbf2 ; ftoa + 34
        0x0000fc38:    f1150f17    ....    CMN      r5,#0x17
        0x0000fc3c:    da02        ..      BGE      0xfc44 ; ftoa + 116
        0x0000fc3e:    f04f30ff    O..0    MOV      r0,#0xffffffff
        0x0000fc42:    e7d6        ..      B        0xfbf2 ; ftoa + 34
        0x0000fc44:    2d17        .-      CMP      r5,#0x17
        0x0000fc46:    db04        ..      BLT      0xfc52 ; ftoa + 130
        0x0000fc48:    f1a50017    ....    SUB      r0,r5,#0x17
        0x0000fc4c:    fa09f700    ....    LSL      r7,r9,r0
        0x0000fc50:    e011        ..      B        0xfc76 ; ftoa + 166
        0x0000fc52:    2d00        .-      CMP      r5,#0
        0x0000fc54:    db09        ..      BLT      0xfc6a ; ftoa + 154
        0x0000fc56:    f1c50017    ....    RSB      r0,r5,#0x17
        0x0000fc5a:    fa49f700    I...    ASR      r7,r9,r0
        0x0000fc5e:    1c68        h.      ADDS     r0,r5,#1
        0x0000fc60:    fa09f000    ....    LSL      r0,r9,r0
        0x0000fc64:    f020487f     ..H    BIC      r8,r0,#0xff000000
        0x0000fc68:    e005        ..      B        0xfc76 ; ftoa + 166
        0x0000fc6a:    f029407f    )..@    BIC      r0,r9,#0xff000000
        0x0000fc6e:    1c69        i.      ADDS     r1,r5,#1
        0x0000fc70:    4249        IB      RSBS     r1,r1,#0
        0x0000fc72:    fa40f801    @...    ASR      r8,r0,r1
        0x0000fc76:    9800        ..      LDR      r0,[sp,#0]
        0x0000fc78:    2800        .(      CMP      r0,#0
        0x0000fc7a:    da02        ..      BGE      0xfc82 ; ftoa + 178
        0x0000fc7c:    202d        -       MOVS     r0,#0x2d
        0x0000fc7e:    f8040b01    ....    STRB     r0,[r4],#1
        0x0000fc82:    b91f        ..      CBNZ     r7,0xfc8c ; ftoa + 188
        0x0000fc84:    2030        0       MOVS     r0,#0x30
        0x0000fc86:    f8040b01    ....    STRB     r0,[r4],#1
        0x0000fc8a:    e014        ..      B        0xfcb6 ; ftoa + 230
        0x0000fc8c:    2f00        ./      CMP      r7,#0
        0x0000fc8e:    dd05        ..      BLE      0xfc9c ; ftoa + 204
        0x0000fc90:    4622        "F      MOV      r2,r4
        0x0000fc92:    4638        8F      MOV      r0,r7
        0x0000fc94:    17f9        ..      ASRS     r1,r7,#31
        0x0000fc96:    f000fe62    ..b.    BL       uint64_to_str ; 0x1095e
        0x0000fc9a:    e007        ..      B        0xfcac ; ftoa + 220
        0x0000fc9c:    202d        -       MOVS     r0,#0x2d
        0x0000fc9e:    f8040b01    ....    STRB     r0,[r4],#1
        0x0000fca2:    4622        "F      MOV      r2,r4
        0x0000fca4:    4278        xB      RSBS     r0,r7,#0
        0x0000fca6:    17c1        ..      ASRS     r1,r0,#31
        0x0000fca8:    f000fe59    ..Y.    BL       uint64_to_str ; 0x1095e
        0x0000fcac:    e000        ..      B        0xfcb0 ; ftoa + 224
        0x0000fcae:    1c64        d.      ADDS     r4,r4,#1
        0x0000fcb0:    7820         x      LDRB     r0,[r4,#0]
        0x0000fcb2:    2800        .(      CMP      r0,#0
        0x0000fcb4:    d1fb        ..      BNE      0xfcae ; ftoa + 222
        0x0000fcb6:    202e        .       MOVS     r0,#0x2e
        0x0000fcb8:    f8040b01    ....    STRB     r0,[r4],#1
        0x0000fcbc:    f1b80f00    ....    CMP      r8,#0
        0x0000fcc0:    d103        ..      BNE      0xfcca ; ftoa + 250
        0x0000fcc2:    2030        0       MOVS     r0,#0x30
        0x0000fcc4:    f8040b01    ....    STRB     r0,[r4],#1
        0x0000fcc8:    e036        6.      B        0xfd38 ; ftoa + 360
        0x0000fcca:    eba4020a    ....    SUB      r2,r4,r10
        0x0000fcce:    ebab0202    ....    SUB      r2,r11,r2
        0x0000fcd2:    1e51        Q.      SUBS     r1,r2,#1
        0x0000fcd4:    9a06        ..      LDR      r2,[sp,#0x18]
        0x0000fcd6:    4291        .B      CMP      r1,r2
        0x0000fcd8:    dd01        ..      BLE      0xfcde ; ftoa + 270
        0x0000fcda:    9a06        ..      LDR      r2,[sp,#0x18]
        0x0000fcdc:    e000        ..      B        0xfce0 ; ftoa + 272
        0x0000fcde:    460a        .F      MOV      r2,r1
        0x0000fce0:    4611        .F      MOV      r1,r2
        0x0000fce2:    2000        .       MOVS     r0,#0
        0x0000fce4:    e00b        ..      B        0xfcfe ; ftoa + 302
        0x0000fce6:    eb080288    ....    ADD      r2,r8,r8,LSL #2
        0x0000fcea:    ea4f0842    O.B.    LSL      r8,r2,#1
        0x0000fcee:    2230        0"      MOVS     r2,#0x30
        0x0000fcf0:    eb026228    ..(b    ADD      r2,r2,r8,ASR #24
        0x0000fcf4:    f8042b01    ...+    STRB     r2,[r4],#1
        0x0000fcf8:    f028487f    (..H    BIC      r8,r8,#0xff000000
        0x0000fcfc:    1c40        @.      ADDS     r0,r0,#1
        0x0000fcfe:    4288        .B      CMP      r0,r1
        0x0000fd00:    dbf1        ..      BLT      0xfce6 ; ftoa + 278
        0x0000fd02:    eb080288    ....    ADD      r2,r8,r8,LSL #2
        0x0000fd06:    0052        R.      LSLS     r2,r2,#1
        0x0000fd08:    2305        .#      MOVS     r3,#5
        0x0000fd0a:    ebb36f22    .."o    CMP      r3,r2,ASR #24
        0x0000fd0e:    dc12        ..      BGT      0xfd36 ; ftoa + 358
        0x0000fd10:    1e66        f.      SUBS     r6,r4,#1
        0x0000fd12:    e00d        ..      B        0xfd30 ; ftoa + 352
        0x0000fd14:    7832        2x      LDRB     r2,[r6,#0]
        0x0000fd16:    2a2e        .*      CMP      r2,#0x2e
        0x0000fd18:    d009        ..      BEQ      0xfd2e ; ftoa + 350
        0x0000fd1a:    7832        2x      LDRB     r2,[r6,#0]
        0x0000fd1c:    2a39        9*      CMP      r2,#0x39
        0x0000fd1e:    d102        ..      BNE      0xfd26 ; ftoa + 342
        0x0000fd20:    2230        0"      MOVS     r2,#0x30
        0x0000fd22:    7032        2p      STRB     r2,[r6,#0]
        0x0000fd24:    e003        ..      B        0xfd2e ; ftoa + 350
        0x0000fd26:    7832        2x      LDRB     r2,[r6,#0]
        0x0000fd28:    1c52        R.      ADDS     r2,r2,#1
        0x0000fd2a:    7032        2p      STRB     r2,[r6,#0]
        0x0000fd2c:    e002        ..      B        0xfd34 ; ftoa + 356
        0x0000fd2e:    1e76        v.      SUBS     r6,r6,#1
        0x0000fd30:    4556        VE      CMP      r6,r10
        0x0000fd32:    d2ef        ..      BCS      0xfd14 ; ftoa + 324
        0x0000fd34:    bf00        ..      NOP      
        0x0000fd36:    bf00        ..      NOP      
        0x0000fd38:    2000        .       MOVS     r0,#0
        0x0000fd3a:    7020         p      STRB     r0,[r4,#0]
        0x0000fd3c:    eba4000a    ....    SUB      r0,r4,r10
        0x0000fd40:    e757        W.      B        0xfbf2 ; ftoa + 34
    $d
        0x0000fd42:    0000        ..      DCW    0
        0x0000fd44:    00302e30    0.0.    DCD    3157552
    $t
    i.main
    main
        0x0000fd48:    2100        .!      MOVS     r1,#0
        0x0000fd4a:    4608        .F      MOV      r0,r1
        0x0000fd4c:    f7fefbc4    ....    BL       am_hal_clkgen_control ; 0xe4d8
        0x0000fd50:    4815        .H      LDR      r0,[pc,#84] ; [0xfda8] = 0x11e88
        0x0000fd52:    f7fef9bb    ....    BL       am_hal_cachectrl_config ; 0xe0cc
        0x0000fd56:    f7fefbb5    ....    BL       am_hal_cachectrl_enable ; 0xe4c4
        0x0000fd5a:    f7fff8f7    ....    BL       am_hal_sysctrl_fpu_enable ; 0xef4c
        0x0000fd5e:    2001        .       MOVS     r0,#1
        0x0000fd60:    f7fff8fc    ....    BL       am_hal_sysctrl_fpu_stacking_enable ; 0xef5c
        0x0000fd64:    f7fcfeda    ....    BL       am_bsp_low_power_init ; 0xcb1c
        0x0000fd68:    2005        .       MOVS     r0,#5
        0x0000fd6a:    f7feffd3    ....    BL       am_hal_pwrctrl_memory_enable ; 0xed14
        0x0000fd6e:    200e        .       MOVS     r0,#0xe
        0x0000fd70:    f7feffd0    ....    BL       am_hal_pwrctrl_memory_enable ; 0xed14
        0x0000fd74:    f7ffff16    ....    BL       enable_print_interface ; 0xfba4
        0x0000fd78:    a00c        ..      ADR      r0,{pc}+0x34 ; 0xfdac
        0x0000fd7a:    f7fffb47    ..G.    BL       am_util_stdio_printf ; 0xf40c
        0x0000fd7e:    2001        .       MOVS     r0,#1
        0x0000fd80:    f7fcfc04    ....    BL       HciDrvRadioBoot ; 0xc58c
        0x0000fd84:    f000fd6c    ..l.    BL       setup_buttons ; 0x10860
        0x0000fd88:    a012        ..      ADR      r0,{pc}+0x4c ; 0xfdd4
        0x0000fd8a:    f7fffb3f    ..?.    BL       am_util_stdio_printf ; 0xf40c
        0x0000fd8e:    a016        ..      ADR      r0,{pc}+0x5a ; 0xfde8
        0x0000fd90:    f7fffb3c    ..<.    BL       am_util_stdio_printf ; 0xf40c
        0x0000fd94:    a023        #.      ADR      r0,{pc}+0x90 ; 0xfe24
        0x0000fd96:    f7fffb39    ..9.    BL       am_util_stdio_printf ; 0xf40c
        0x0000fd9a:    f7fcfaaf    ....    BL       am_hal_interrupt_master_enable ; 0xc2fc
        0x0000fd9e:    f001f841    ..A.    BL       vTaskStartScheduler ; 0x10e24
        0x0000fda2:    bf00        ..      NOP      
        0x0000fda4:    e7fe        ..      B        0xfda4 ; main + 92
    $d
        0x0000fda6:    0000        ..      DCW    0
        0x0000fda8:    00011e88    ....    DCD    73352
        0x0000fdac:    6c6f7041    Apol    DCD    1819242561
        0x0000fdb0:    20336f6c    lo3     DCD    540241772
        0x0000fdb4:    20454c42    BLE     DCD    541412418
        0x0000fdb8:    64726f43    Cord    DCD    1685221187
        0x0000fdbc:    46206f69    io F    DCD    1176530793
        0x0000fdc0:    54204343    CC T    DCD    1411400515
        0x0000fdc4:    20747365    est     DCD    544502629
        0x0000fdc8:    6d617845    Exam    DCD    1835104325
        0x0000fdcc:    0a656c70    ple.    DCD    174419056
        0x0000fdd0:    00000000    ....    DCD    0
        0x0000fdd4:    67617355    Usag    DCD    1734439765
        0x0000fdd8:    73612065    e as    DCD    1935745125
        0x0000fddc:    6c656220     bel    DCD    1818583584
        0x0000fde0:    0a3a776f    ow:.    DCD    171603823
        0x0000fde4:    00000000    ....    DCD    0
        0x0000fde8:    726f6853    Shor    DCD    1919903827
        0x0000fdec:    72702074    t pr    DCD    1919950964
        0x0000fdf0:    20737365    ess     DCD    544437093
        0x0000fdf4:    74747542    Butt    DCD    1953789250
        0x0000fdf8:    31206e6f    on 1    DCD    824209007
        0x0000fdfc:    206f7420     to     DCD    544175136
        0x0000fe00:    74206f67    go t    DCD    1948282727
        0x0000fe04:    756f7268    hrou    DCD    1970238056
        0x0000fe08:    64206867    gh d    DCD    1679845479
        0x0000fe0c:    65666669    iffe    DCD    1701209705
        0x0000fe10:    746e6572    rent    DCD    1953391986
        0x0000fe14:    73657420     tes    DCD    1936028704
        0x0000fe18:    6f6d2074    t mo    DCD    1869422708
        0x0000fe1c:    0a736564    des.    DCD    175334756
        0x0000fe20:    00000000    ....    DCD    0
        0x0000fe24:    70205854    TX p    DCD    1881167956
        0x0000fe28:    7265776f    ower    DCD    1919252335
        0x0000fe2c:    20736920     is     DCD    544434464
        0x0000fe30:    20746573    set     DCD    544499059
        0x0000fe34:    2b206f74    to +    DCD    723545972
        0x0000fe38:    20302e33    3.0     DCD    540028467
        0x0000fe3c:    206d4264    dBm     DCD    544031332
        0x0000fe40:    78616d28    (max    DCD    2019650856
        0x0000fe44:    000a2029    ) ..    DCD    663593
    $t
    i.ndigits_in_hex
    ndigits_in_hex
        0x0000fe48:    b530        0.      PUSH     {r4,r5,lr}
        0x0000fe4a:    4602        .F      MOV      r2,r0
        0x0000fe4c:    460b        .F      MOV      r3,r1
        0x0000fe4e:    2400        .$      MOVS     r4,#0
        0x0000fe50:    ea820104    ....    EOR      r1,r2,r4
        0x0000fe54:    405c        \@      EORS     r4,r4,r3
        0x0000fe56:    4321        !C      ORRS     r1,r1,r4
        0x0000fe58:    d101        ..      BNE      0xfe5e ; ndigits_in_hex + 22
        0x0000fe5a:    2101        .!      MOVS     r1,#1
        0x0000fe5c:    e000        ..      B        0xfe60 ; ndigits_in_hex + 24
        0x0000fe5e:    2100        .!      MOVS     r1,#0
        0x0000fe60:    4608        .F      MOV      r0,r1
        0x0000fe62:    e004        ..      B        0xfe6e ; ndigits_in_hex + 38
        0x0000fe64:    0911        ..      LSRS     r1,r2,#4
        0x0000fe66:    ea417203    A..r    ORR      r2,r1,r3,LSL #28
        0x0000fe6a:    091b        ..      LSRS     r3,r3,#4
        0x0000fe6c:    1c40        @.      ADDS     r0,r0,#1
        0x0000fe6e:    2400        .$      MOVS     r4,#0
        0x0000fe70:    ea820104    ....    EOR      r1,r2,r4
        0x0000fe74:    405c        \@      EORS     r4,r4,r3
        0x0000fe76:    4321        !C      ORRS     r1,r1,r4
        0x0000fe78:    d1f4        ..      BNE      0xfe64 ; ndigits_in_hex + 28
        0x0000fe7a:    bd30        0.      POP      {r4,r5,pc}
    i.ndigits_in_i64
    ndigits_in_i64
        0x0000fe7c:    b570        p.      PUSH     {r4-r6,lr}
        0x0000fe7e:    4604        .F      MOV      r4,r0
        0x0000fe80:    460d        .F      MOV      r5,r1
        0x0000fe82:    2100        .!      MOVS     r1,#0
        0x0000fe84:    4608        .F      MOV      r0,r1
        0x0000fe86:    1a61        a.      SUBS     r1,r4,r1
        0x0000fe88:    eb750000    u...    SBCS     r0,r5,r0
        0x0000fe8c:    da03        ..      BGE      0xfe96 ; ndigits_in_i64 + 26
        0x0000fe8e:    2200        ."      MOVS     r2,#0
        0x0000fe90:    4264        dB      RSBS     r4,r4,#0
        0x0000fe92:    eb620505    b...    SBC      r5,r2,r5
        0x0000fe96:    4620         F      MOV      r0,r4
        0x0000fe98:    4629        )F      MOV      r1,r5
        0x0000fe9a:    f000f801    ....    BL       ndigits_in_u64 ; 0xfea0
        0x0000fe9e:    bd70        p.      POP      {r4-r6,pc}
    i.ndigits_in_u64
    ndigits_in_u64
        0x0000fea0:    b570        p.      PUSH     {r4-r6,lr}
        0x0000fea2:    4604        .F      MOV      r4,r0
        0x0000fea4:    460d        .F      MOV      r5,r1
        0x0000fea6:    2100        .!      MOVS     r1,#0
        0x0000fea8:    ea840001    ....    EOR      r0,r4,r1
        0x0000feac:    4069        i@      EORS     r1,r1,r5
        0x0000feae:    4308        .C      ORRS     r0,r0,r1
        0x0000feb0:    d101        ..      BNE      0xfeb6 ; ndigits_in_u64 + 22
        0x0000feb2:    2001        .       MOVS     r0,#1
        0x0000feb4:    e000        ..      B        0xfeb8 ; ndigits_in_u64 + 24
        0x0000feb6:    2000        .       MOVS     r0,#0
        0x0000feb8:    4606        .F      MOV      r6,r0
        0x0000feba:    e006        ..      B        0xfeca ; ndigits_in_u64 + 42
        0x0000febc:    4620         F      MOV      r0,r4
        0x0000febe:    4629        )F      MOV      r1,r5
        0x0000fec0:    f7fffdeb    ....    BL       divu64_10 ; 0xfa9a
        0x0000fec4:    4604        .F      MOV      r4,r0
        0x0000fec6:    460d        .F      MOV      r5,r1
        0x0000fec8:    1c76        v.      ADDS     r6,r6,#1
        0x0000feca:    2100        .!      MOVS     r1,#0
        0x0000fecc:    ea840001    ....    EOR      r0,r4,r1
        0x0000fed0:    4069        i@      EORS     r1,r1,r5
        0x0000fed2:    4308        .C      ORRS     r0,r0,r1
        0x0000fed4:    d1f2        ..      BNE      0xfebc ; ndigits_in_u64 + 28
        0x0000fed6:    4630        0F      MOV      r0,r6
        0x0000fed8:    bd70        p.      POP      {r4-r6,pc}
    i.padbuffer
    padbuffer
        0x0000feda:    b530        0.      PUSH     {r4,r5,lr}
        0x0000fedc:    4603        .F      MOV      r3,r0
        0x0000fede:    2000        .       MOVS     r0,#0
        0x0000fee0:    2a00        .*      CMP      r2,#0
        0x0000fee2:    dc00        ..      BGT      0xfee6 ; padbuffer + 12
        0x0000fee4:    bd30        0.      POP      {r4,r5,pc}
        0x0000fee6:    e003        ..      B        0xfef0 ; padbuffer + 22
        0x0000fee8:    b10b        ..      CBZ      r3,0xfeee ; padbuffer + 20
        0x0000feea:    f8031b01    ....    STRB     r1,[r3],#1
        0x0000feee:    1c40        @.      ADDS     r0,r0,#1
        0x0000fef0:    1e14        ..      SUBS     r4,r2,#0
        0x0000fef2:    f1a20201    ....    SUB      r2,r2,#1
        0x0000fef6:    d1f7        ..      BNE      0xfee8 ; padbuffer + 14
        0x0000fef8:    bf00        ..      NOP      
        0x0000fefa:    e7f3        ..      B        0xfee4 ; padbuffer + 10
    i.prvAddCurrentTaskToDelayedList
    prvAddCurrentTaskToDelayedList
        0x0000fefc:    e92d41f0    -..A    PUSH     {r4-r8,lr}
        0x0000ff00:    4605        .F      MOV      r5,r0
        0x0000ff02:    460e        .F      MOV      r6,r1
        0x0000ff04:    4816        .H      LDR      r0,[pc,#88] ; [0xff60] = 0x10013094
        0x0000ff06:    6807        .h      LDR      r7,[r0,#0]
        0x0000ff08:    4816        .H      LDR      r0,[pc,#88] ; [0xff64] = 0x10013084
        0x0000ff0a:    6800        .h      LDR      r0,[r0,#0]
        0x0000ff0c:    1d00        ..      ADDS     r0,r0,#4
        0x0000ff0e:    f000fd5e    ..^.    BL       uxListRemove ; 0x109ce
        0x0000ff12:    1c68        h.      ADDS     r0,r5,#1
        0x0000ff14:    b938        8.      CBNZ     r0,0xff26 ; prvAddCurrentTaskToDelayedList + 42
        0x0000ff16:    b136        6.      CBZ      r6,0xff26 ; prvAddCurrentTaskToDelayedList + 42
        0x0000ff18:    4812        .H      LDR      r0,[pc,#72] ; [0xff64] = 0x10013084
        0x0000ff1a:    6801        .h      LDR      r1,[r0,#0]
        0x0000ff1c:    1d09        ..      ADDS     r1,r1,#4
        0x0000ff1e:    4812        .H      LDR      r0,[pc,#72] ; [0xff68] = 0x100183ec
        0x0000ff20:    f000fda0    ....    BL       vListInsertEnd ; 0x10a64
        0x0000ff24:    e01a        ..      B        0xff5c ; prvAddCurrentTaskToDelayedList + 96
        0x0000ff26:    197c        |.      ADDS     r4,r7,r5
        0x0000ff28:    480e        .H      LDR      r0,[pc,#56] ; [0xff64] = 0x10013084
        0x0000ff2a:    6800        .h      LDR      r0,[r0,#0]
        0x0000ff2c:    6044        D`      STR      r4,[r0,#4]
        0x0000ff2e:    42bc        .B      CMP      r4,r7
        0x0000ff30:    d207        ..      BCS      0xff42 ; prvAddCurrentTaskToDelayedList + 70
        0x0000ff32:    480c        .H      LDR      r0,[pc,#48] ; [0xff64] = 0x10013084
        0x0000ff34:    6801        .h      LDR      r1,[r0,#0]
        0x0000ff36:    1d09        ..      ADDS     r1,r1,#4
        0x0000ff38:    480c        .H      LDR      r0,[pc,#48] ; [0xff6c] = 0x1001308c
        0x0000ff3a:    6800        .h      LDR      r0,[r0,#0]
        0x0000ff3c:    f000fd78    ..x.    BL       vListInsert ; 0x10a30
        0x0000ff40:    e00c        ..      B        0xff5c ; prvAddCurrentTaskToDelayedList + 96
        0x0000ff42:    4808        .H      LDR      r0,[pc,#32] ; [0xff64] = 0x10013084
        0x0000ff44:    6801        .h      LDR      r1,[r0,#0]
        0x0000ff46:    1d09        ..      ADDS     r1,r1,#4
        0x0000ff48:    4809        .H      LDR      r0,[pc,#36] ; [0xff70] = 0x10013088
        0x0000ff4a:    6800        .h      LDR      r0,[r0,#0]
        0x0000ff4c:    f000fd70    ..p.    BL       vListInsert ; 0x10a30
        0x0000ff50:    4808        .H      LDR      r0,[pc,#32] ; [0xff74] = 0x100130b0
        0x0000ff52:    6800        .h      LDR      r0,[r0,#0]
        0x0000ff54:    4284        .B      CMP      r4,r0
        0x0000ff56:    d201        ..      BCS      0xff5c ; prvAddCurrentTaskToDelayedList + 96
        0x0000ff58:    4806        .H      LDR      r0,[pc,#24] ; [0xff74] = 0x100130b0
        0x0000ff5a:    6004        .`      STR      r4,[r0,#0]
        0x0000ff5c:    e8bd81f0    ....    POP      {r4-r8,pc}
    $d
        0x0000ff60:    10013094    .0..    DCD    268513428
        0x0000ff64:    10013084    .0..    DCD    268513412
        0x0000ff68:    100183ec    ....    DCD    268534764
        0x0000ff6c:    1001308c    .0..    DCD    268513420
        0x0000ff70:    10013088    .0..    DCD    268513416
        0x0000ff74:    100130b0    .0..    DCD    268513456
    $t
    i.prvAddNewTaskToReadyList
    prvAddNewTaskToReadyList
        0x0000ff78:    b510        ..      PUSH     {r4,lr}
        0x0000ff7a:    4604        .F      MOV      r4,r0
        0x0000ff7c:    f000fd7e    ..~.    BL       vPortEnterCritical ; 0x10a7c
        0x0000ff80:    4822        "H      LDR      r0,[pc,#136] ; [0x1000c] = 0x10013090
        0x0000ff82:    6800        .h      LDR      r0,[r0,#0]
        0x0000ff84:    1c40        @.      ADDS     r0,r0,#1
        0x0000ff86:    4921        !I      LDR      r1,[pc,#132] ; [0x1000c] = 0x10013090
        0x0000ff88:    6008        .`      STR      r0,[r1,#0]
        0x0000ff8a:    4821        !H      LDR      r0,[pc,#132] ; [0x10010] = 0x10013084
        0x0000ff8c:    6800        .h      LDR      r0,[r0,#0]
        0x0000ff8e:    b940        @.      CBNZ     r0,0xffa2 ; prvAddNewTaskToReadyList + 42
        0x0000ff90:    481f        .H      LDR      r0,[pc,#124] ; [0x10010] = 0x10013084
        0x0000ff92:    6004        .`      STR      r4,[r0,#0]
        0x0000ff94:    4608        .F      MOV      r0,r1
        0x0000ff96:    6800        .h      LDR      r0,[r0,#0]
        0x0000ff98:    2801        .(      CMP      r0,#1
        0x0000ff9a:    d10d        ..      BNE      0xffb8 ; prvAddNewTaskToReadyList + 64
        0x0000ff9c:    f000f9c4    ....    BL       prvInitialiseTaskLists ; 0x10328
        0x0000ffa0:    e00a        ..      B        0xffb8 ; prvAddNewTaskToReadyList + 64
        0x0000ffa2:    481c        .H      LDR      r0,[pc,#112] ; [0x10014] = 0x1001309c
        0x0000ffa4:    6800        .h      LDR      r0,[r0,#0]
        0x0000ffa6:    b938        8.      CBNZ     r0,0xffb8 ; prvAddNewTaskToReadyList + 64
        0x0000ffa8:    4819        .H      LDR      r0,[pc,#100] ; [0x10010] = 0x10013084
        0x0000ffaa:    6800        .h      LDR      r0,[r0,#0]
        0x0000ffac:    6ac0        .j      LDR      r0,[r0,#0x2c]
        0x0000ffae:    6ae1        .j      LDR      r1,[r4,#0x2c]
        0x0000ffb0:    4288        .B      CMP      r0,r1
        0x0000ffb2:    d801        ..      BHI      0xffb8 ; prvAddNewTaskToReadyList + 64
        0x0000ffb4:    4816        .H      LDR      r0,[pc,#88] ; [0x10010] = 0x10013084
        0x0000ffb6:    6004        .`      STR      r4,[r0,#0]
        0x0000ffb8:    4817        .H      LDR      r0,[pc,#92] ; [0x10018] = 0x100130ac
        0x0000ffba:    6800        .h      LDR      r0,[r0,#0]
        0x0000ffbc:    1c40        @.      ADDS     r0,r0,#1
        0x0000ffbe:    4916        .I      LDR      r1,[pc,#88] ; [0x10018] = 0x100130ac
        0x0000ffc0:    6008        .`      STR      r0,[r1,#0]
        0x0000ffc2:    4916        .I      LDR      r1,[pc,#88] ; [0x1001c] = 0x10013098
        0x0000ffc4:    6ae0        .j      LDR      r0,[r4,#0x2c]
        0x0000ffc6:    6809        .h      LDR      r1,[r1,#0]
        0x0000ffc8:    4288        .B      CMP      r0,r1
        0x0000ffca:    d902        ..      BLS      0xffd2 ; prvAddNewTaskToReadyList + 90
        0x0000ffcc:    4913        .I      LDR      r1,[pc,#76] ; [0x1001c] = 0x10013098
        0x0000ffce:    6ae0        .j      LDR      r0,[r4,#0x2c]
        0x0000ffd0:    6008        .`      STR      r0,[r1,#0]
        0x0000ffd2:    6ae1        .j      LDR      r1,[r4,#0x2c]
        0x0000ffd4:    eb010181    ....    ADD      r1,r1,r1,LSL #2
        0x0000ffd8:    4a11        .J      LDR      r2,[pc,#68] ; [0x10020] = 0x10018360
        0x0000ffda:    eb020081    ....    ADD      r0,r2,r1,LSL #2
        0x0000ffde:    1d21        !.      ADDS     r1,r4,#4
        0x0000ffe0:    f000fd40    ..@.    BL       vListInsertEnd ; 0x10a64
        0x0000ffe4:    f000fd6c    ..l.    BL       vPortExitCritical ; 0x10ac0
        0x0000ffe8:    480a        .H      LDR      r0,[pc,#40] ; [0x10014] = 0x1001309c
        0x0000ffea:    6800        .h      LDR      r0,[r0,#0]
        0x0000ffec:    b168        h.      CBZ      r0,0x1000a ; prvAddNewTaskToReadyList + 146
        0x0000ffee:    4808        .H      LDR      r0,[pc,#32] ; [0x10010] = 0x10013084
        0x0000fff0:    6800        .h      LDR      r0,[r0,#0]
        0x0000fff2:    6ac0        .j      LDR      r0,[r0,#0x2c]
        0x0000fff4:    6ae1        .j      LDR      r1,[r4,#0x2c]
        0x0000fff6:    4288        .B      CMP      r0,r1
        0x0000fff8:    d207        ..      BCS      0x1000a ; prvAddNewTaskToReadyList + 146
        0x0000fffa:    f04f5080    O..P    MOV      r0,#0x10000000
        0x0000fffe:    4909        .I      LDR      r1,[pc,#36] ; [0x10024] = 0xe000ed04
        0x00010000:    6008        .`      STR      r0,[r1,#0]
        0x00010002:    f3bf8f4f    ..O.    DSB      
        0x00010006:    f3bf8f6f    ..o.    ISB      
        0x0001000a:    bd10        ..      POP      {r4,pc}
    $d
        0x0001000c:    10013090    .0..    DCD    268513424
        0x00010010:    10013084    .0..    DCD    268513412
        0x00010014:    1001309c    .0..    DCD    268513436
        0x00010018:    100130ac    .0..    DCD    268513452
        0x0001001c:    10013098    .0..    DCD    268513432
        0x00010020:    10018360    `...    DCD    268534624
        0x00010024:    e000ed04    ....    DCD    3758157060
    $t
    i.prvCheckForValidListAndQueue
    prvCheckForValidListAndQueue
        0x00010028:    b510        ..      PUSH     {r4,lr}
        0x0001002a:    f000fd27    ..'.    BL       vPortEnterCritical ; 0x10a7c
        0x0001002e:    480c        .H      LDR      r0,[pc,#48] ; [0x10060] = 0x100130c4
        0x00010030:    6800        .h      LDR      r0,[r0,#0]
        0x00010032:    b990        ..      CBNZ     r0,0x1005a ; prvCheckForValidListAndQueue + 50
        0x00010034:    480b        .H      LDR      r0,[pc,#44] ; [0x10064] = 0x10018400
        0x00010036:    f000fceb    ....    BL       vListInitialise ; 0x10a10
        0x0001003a:    480b        .H      LDR      r0,[pc,#44] ; [0x10068] = 0x10018414
        0x0001003c:    f000fce8    ....    BL       vListInitialise ; 0x10a10
        0x00010040:    4808        .H      LDR      r0,[pc,#32] ; [0x10064] = 0x10018400
        0x00010042:    490a        .I      LDR      r1,[pc,#40] ; [0x1006c] = 0x100130bc
        0x00010044:    6008        .`      STR      r0,[r1,#0]
        0x00010046:    4808        .H      LDR      r0,[pc,#32] ; [0x10068] = 0x10018414
        0x00010048:    4909        .I      LDR      r1,[pc,#36] ; [0x10070] = 0x100130c0
        0x0001004a:    6008        .`      STR      r0,[r1,#0]
        0x0001004c:    2200        ."      MOVS     r2,#0
        0x0001004e:    2110        .!      MOVS     r1,#0x10
        0x00010050:    2005        .       MOVS     r0,#5
        0x00010052:    f001f8f3    ....    BL       xQueueGenericCreate ; 0x1123c
        0x00010056:    4902        .I      LDR      r1,[pc,#8] ; [0x10060] = 0x100130c4
        0x00010058:    6008        .`      STR      r0,[r1,#0]
        0x0001005a:    f000fd31    ..1.    BL       vPortExitCritical ; 0x10ac0
        0x0001005e:    bd10        ..      POP      {r4,pc}
    $d
        0x00010060:    100130c4    .0..    DCD    268513476
        0x00010064:    10018400    ....    DCD    268534784
        0x00010068:    10018414    ....    DCD    268534804
        0x0001006c:    100130bc    .0..    DCD    268513468
        0x00010070:    100130c0    .0..    DCD    268513472
    $t
    i.prvCheckTasksWaitingTermination
    prvCheckTasksWaitingTermination
        0x00010074:    4770        pG      BX       lr
    i.prvCopyDataFromQueue
    prvCopyDataFromQueue
        0x00010076:    b570        p.      PUSH     {r4-r6,lr}
        0x00010078:    4604        .F      MOV      r4,r0
        0x0001007a:    460d        .F      MOV      r5,r1
        0x0001007c:    6c20         l      LDR      r0,[r4,#0x40]
        0x0001007e:    b170        p.      CBZ      r0,0x1009e ; prvCopyDataFromQueue + 40
        0x00010080:    6c21        !l      LDR      r1,[r4,#0x40]
        0x00010082:    68e0        .h      LDR      r0,[r4,#0xc]
        0x00010084:    4401        .D      ADD      r1,r1,r0
        0x00010086:    60e1        .`      STR      r1,[r4,#0xc]
        0x00010088:    e9d41002    ....    LDRD     r1,r0,[r4,#8]
        0x0001008c:    4288        .B      CMP      r0,r1
        0x0001008e:    d301        ..      BCC      0x10094 ; prvCopyDataFromQueue + 30
        0x00010090:    6821        !h      LDR      r1,[r4,#0]
        0x00010092:    60e1        .`      STR      r1,[r4,#0xc]
        0x00010094:    4628        (F      MOV      r0,r5
        0x00010096:    6c22        "l      LDR      r2,[r4,#0x40]
        0x00010098:    68e1        .h      LDR      r1,[r4,#0xc]
        0x0001009a:    f7fcf947    ..G.    BL       __aeabi_memcpy ; 0xc32c
        0x0001009e:    bd70        p.      POP      {r4-r6,pc}
    i.prvCopyDataToQueue
    prvCopyDataToQueue
        0x000100a0:    e92d41f0    -..A    PUSH     {r4-r8,lr}
        0x000100a4:    4604        .F      MOV      r4,r0
        0x000100a6:    460f        .F      MOV      r7,r1
        0x000100a8:    4615        .F      MOV      r5,r2
        0x000100aa:    f04f0800    O...    MOV      r8,#0
        0x000100ae:    6ba6        .k      LDR      r6,[r4,#0x38]
        0x000100b0:    6c20         l      LDR      r0,[r4,#0x40]
        0x000100b2:    b328        (.      CBZ      r0,0x10100 ; prvCopyDataToQueue + 96
        0x000100b4:    b97d        }.      CBNZ     r5,0x100d6 ; prvCopyDataToQueue + 54
        0x000100b6:    4639        9F      MOV      r1,r7
        0x000100b8:    6c22        "l      LDR      r2,[r4,#0x40]
        0x000100ba:    6860        `h      LDR      r0,[r4,#4]
        0x000100bc:    f7fcf936    ..6.    BL       __aeabi_memcpy ; 0xc32c
        0x000100c0:    6c21        !l      LDR      r1,[r4,#0x40]
        0x000100c2:    6860        `h      LDR      r0,[r4,#4]
        0x000100c4:    4408        .D      ADD      r0,r0,r1
        0x000100c6:    6060        ``      STR      r0,[r4,#4]
        0x000100c8:    e9d40101    ....    LDRD     r0,r1,[r4,#4]
        0x000100cc:    4288        .B      CMP      r0,r1
        0x000100ce:    d317        ..      BCC      0x10100 ; prvCopyDataToQueue + 96
        0x000100d0:    6820         h      LDR      r0,[r4,#0]
        0x000100d2:    6060        ``      STR      r0,[r4,#4]
        0x000100d4:    e014        ..      B        0x10100 ; prvCopyDataToQueue + 96
        0x000100d6:    4639        9F      MOV      r1,r7
        0x000100d8:    6c22        "l      LDR      r2,[r4,#0x40]
        0x000100da:    68e0        .h      LDR      r0,[r4,#0xc]
        0x000100dc:    f7fcf926    ..&.    BL       __aeabi_memcpy ; 0xc32c
        0x000100e0:    6c21        !l      LDR      r1,[r4,#0x40]
        0x000100e2:    68e0        .h      LDR      r0,[r4,#0xc]
        0x000100e4:    1a41        A.      SUBS     r1,r0,r1
        0x000100e6:    60e1        .`      STR      r1,[r4,#0xc]
        0x000100e8:    6821        !h      LDR      r1,[r4,#0]
        0x000100ea:    68e0        .h      LDR      r0,[r4,#0xc]
        0x000100ec:    4288        .B      CMP      r0,r1
        0x000100ee:    d203        ..      BCS      0x100f8 ; prvCopyDataToQueue + 88
        0x000100f0:    6c21        !l      LDR      r1,[r4,#0x40]
        0x000100f2:    68a0        .h      LDR      r0,[r4,#8]
        0x000100f4:    1a41        A.      SUBS     r1,r0,r1
        0x000100f6:    60e1        .`      STR      r1,[r4,#0xc]
        0x000100f8:    2d02        .-      CMP      r5,#2
        0x000100fa:    d101        ..      BNE      0x10100 ; prvCopyDataToQueue + 96
        0x000100fc:    b106        ..      CBZ      r6,0x10100 ; prvCopyDataToQueue + 96
        0x000100fe:    1e76        v.      SUBS     r6,r6,#1
        0x00010100:    1c70        p.      ADDS     r0,r6,#1
        0x00010102:    63a0        .c      STR      r0,[r4,#0x38]
        0x00010104:    4640        @F      MOV      r0,r8
        0x00010106:    e8bd81f0    ....    POP      {r4-r8,pc}
        0x0001010a:    0000        ..      MOVS     r0,r0
    i.prvGetExpectedIdleTime
    prvGetExpectedIdleTime
        0x0001010c:    2100        .!      MOVS     r1,#0
        0x0001010e:    4a0c        .J      LDR      r2,[pc,#48] ; [0x10140] = 0x10013098
        0x00010110:    6812        .h      LDR      r2,[r2,#0]
        0x00010112:    b102        ..      CBZ      r2,0x10116 ; prvGetExpectedIdleTime + 10
        0x00010114:    2101        .!      MOVS     r1,#1
        0x00010116:    4a0b        .J      LDR      r2,[pc,#44] ; [0x10144] = 0x10013084
        0x00010118:    6812        .h      LDR      r2,[r2,#0]
        0x0001011a:    6ad2        .j      LDR      r2,[r2,#0x2c]
        0x0001011c:    b10a        ..      CBZ      r2,0x10122 ; prvGetExpectedIdleTime + 22
        0x0001011e:    2000        .       MOVS     r0,#0
        0x00010120:    e00d        ..      B        0x1013e ; prvGetExpectedIdleTime + 50
        0x00010122:    4a09        .J      LDR      r2,[pc,#36] ; [0x10148] = 0x10018360
        0x00010124:    6812        .h      LDR      r2,[r2,#0]
        0x00010126:    2a01        .*      CMP      r2,#1
        0x00010128:    d901        ..      BLS      0x1012e ; prvGetExpectedIdleTime + 34
        0x0001012a:    2000        .       MOVS     r0,#0
        0x0001012c:    e007        ..      B        0x1013e ; prvGetExpectedIdleTime + 50
        0x0001012e:    b109        ..      CBZ      r1,0x10134 ; prvGetExpectedIdleTime + 40
        0x00010130:    2000        .       MOVS     r0,#0
        0x00010132:    e004        ..      B        0x1013e ; prvGetExpectedIdleTime + 50
        0x00010134:    4a05        .J      LDR      r2,[pc,#20] ; [0x1014c] = 0x100130b0
        0x00010136:    6812        .h      LDR      r2,[r2,#0]
        0x00010138:    4b05        .K      LDR      r3,[pc,#20] ; [0x10150] = 0x10013094
        0x0001013a:    681b        .h      LDR      r3,[r3,#0]
        0x0001013c:    1ad0        ..      SUBS     r0,r2,r3
        0x0001013e:    4770        pG      BX       lr
    $d
        0x00010140:    10013098    .0..    DCD    268513432
        0x00010144:    10013084    .0..    DCD    268513412
        0x00010148:    10018360    `...    DCD    268534624
        0x0001014c:    100130b0    .0..    DCD    268513456
        0x00010150:    10013094    .0..    DCD    268513428
    $t
    i.prvGetNextExpireTime
    prvGetNextExpireTime
        0x00010154:    4601        .F      MOV      r1,r0
        0x00010156:    4a08        .J      LDR      r2,[pc,#32] ; [0x10178] = 0x100130bc
        0x00010158:    6812        .h      LDR      r2,[r2,#0]
        0x0001015a:    6812        .h      LDR      r2,[r2,#0]
        0x0001015c:    b90a        ..      CBNZ     r2,0x10162 ; prvGetNextExpireTime + 14
        0x0001015e:    2201        ."      MOVS     r2,#1
        0x00010160:    e000        ..      B        0x10164 ; prvGetNextExpireTime + 16
        0x00010162:    2200        ."      MOVS     r2,#0
        0x00010164:    600a        .`      STR      r2,[r1,#0]
        0x00010166:    680a        .h      LDR      r2,[r1,#0]
        0x00010168:    b922        ".      CBNZ     r2,0x10174 ; prvGetNextExpireTime + 32
        0x0001016a:    4a03        .J      LDR      r2,[pc,#12] ; [0x10178] = 0x100130bc
        0x0001016c:    6812        .h      LDR      r2,[r2,#0]
        0x0001016e:    68d2        .h      LDR      r2,[r2,#0xc]
        0x00010170:    6810        .h      LDR      r0,[r2,#0]
        0x00010172:    e000        ..      B        0x10176 ; prvGetNextExpireTime + 34
        0x00010174:    2000        .       MOVS     r0,#0
        0x00010176:    4770        pG      BX       lr
    $d
        0x00010178:    100130bc    .0..    DCD    268513468
    $t
    i.prvHeapInit
    prvHeapInit
        0x0001017c:    4a0a        .J      LDR      r2,[pc,#40] ; [0x101a8] = 0x10014368
        0x0001017e:    f0220007    "...    BIC      r0,r2,#7
        0x00010182:    4a0a        .J      LDR      r2,[pc,#40] ; [0x101ac] = 0x1001306c
        0x00010184:    6010        .`      STR      r0,[r2,#0]
        0x00010186:    2200        ."      MOVS     r2,#0
        0x00010188:    4b08        .K      LDR      r3,[pc,#32] ; [0x101ac] = 0x1001306c
        0x0001018a:    605a        Z`      STR      r2,[r3,#4]
        0x0001018c:    f64372f8    C..r    MOV      r2,#0x3ff8
        0x00010190:    4b07        .K      LDR      r3,[pc,#28] ; [0x101b0] = 0x10013074
        0x00010192:    605a        Z`      STR      r2,[r3,#4]
        0x00010194:    2200        ."      MOVS     r2,#0
        0x00010196:    601a        .`      STR      r2,[r3,#0]
        0x00010198:    4601        .F      MOV      r1,r0
        0x0001019a:    f64372f8    C..r    MOV      r2,#0x3ff8
        0x0001019e:    604a        J`      STR      r2,[r1,#4]
        0x000101a0:    461a        .F      MOV      r2,r3
        0x000101a2:    600a        .`      STR      r2,[r1,#0]
        0x000101a4:    4770        pG      BX       lr
    $d
        0x000101a6:    0000        ..      DCW    0
        0x000101a8:    10014368    hC..    DCD    268518248
        0x000101ac:    1001306c    l0..    DCD    268513388
        0x000101b0:    10013074    t0..    DCD    268513396
    $t
    i.prvIdleTask
    prvIdleTask
        0x000101b4:    bf00        ..      NOP      
        0x000101b6:    f7ffff5d    ..].    BL       prvCheckTasksWaitingTermination ; 0x10074
        0x000101ba:    4815        .H      LDR      r0,[pc,#84] ; [0x10210] = 0x10018360
        0x000101bc:    6800        .h      LDR      r0,[r0,#0]
        0x000101be:    2801        .(      CMP      r0,#1
        0x000101c0:    d907        ..      BLS      0x101d2 ; prvIdleTask + 30
        0x000101c2:    f04f5080    O..P    MOV      r0,#0x10000000
        0x000101c6:    4913        .I      LDR      r1,[pc,#76] ; [0x10214] = 0xe000ed04
        0x000101c8:    6008        .`      STR      r0,[r1,#0]
        0x000101ca:    f3bf8f4f    ..O.    DSB      
        0x000101ce:    f3bf8f6f    ..o.    ISB      
        0x000101d2:    f7ffff9b    ....    BL       prvGetExpectedIdleTime ; 0x1010c
        0x000101d6:    4604        .F      MOV      r4,r0
        0x000101d8:    2c02        .,      CMP      r4,#2
        0x000101da:    d317        ..      BCC      0x1020c ; prvIdleTask + 88
        0x000101dc:    f000fe7c    ..|.    BL       vTaskSuspendAll ; 0x10ed8
        0x000101e0:    480d        .H      LDR      r0,[pc,#52] ; [0x10218] = 0x100130b0
        0x000101e2:    6800        .h      LDR      r0,[r0,#0]
        0x000101e4:    490d        .I      LDR      r1,[pc,#52] ; [0x1021c] = 0x10013094
        0x000101e6:    6809        .h      LDR      r1,[r1,#0]
        0x000101e8:    4288        .B      CMP      r0,r1
        0x000101ea:    d301        ..      BCC      0x101f0 ; prvIdleTask + 60
        0x000101ec:    2001        .       MOVS     r0,#1
        0x000101ee:    e000        ..      B        0x101f2 ; prvIdleTask + 62
        0x000101f0:    2000        .       MOVS     r0,#0
        0x000101f2:    b908        ..      CBNZ     r0,0x101f8 ; prvIdleTask + 68
        0x000101f4:    bf00        ..      NOP      
        0x000101f6:    e7fe        ..      B        0x101f6 ; prvIdleTask + 66
        0x000101f8:    f7ffff88    ....    BL       prvGetExpectedIdleTime ; 0x1010c
        0x000101fc:    4604        .F      MOV      r4,r0
        0x000101fe:    2c02        .,      CMP      r4,#2
        0x00010200:    d302        ..      BCC      0x10208 ; prvIdleTask + 84
        0x00010202:    4620         F      MOV      r0,r4
        0x00010204:    f000fcd6    ....    BL       vPortSuppressTicksAndSleep ; 0x10bb4
        0x00010208:    f001fb74    ..t.    BL       xTaskResumeAll ; 0x118f4
        0x0001020c:    e7d3        ..      B        0x101b6 ; prvIdleTask + 2
    $d
        0x0001020e:    0000        ..      DCW    0
        0x00010210:    10018360    `...    DCD    268534624
        0x00010214:    e000ed04    ....    DCD    3758157060
        0x00010218:    100130b0    .0..    DCD    268513456
        0x0001021c:    10013094    .0..    DCD    268513428
    $t
    i.prvInitialiseNewQueue
    prvInitialiseNewQueue
        0x00010220:    e92d41f0    -..A    PUSH     {r4-r8,lr}
        0x00010224:    4606        .F      MOV      r6,r0
        0x00010226:    460d        .F      MOV      r5,r1
        0x00010228:    4617        .F      MOV      r7,r2
        0x0001022a:    4698        .F      MOV      r8,r3
        0x0001022c:    9c06        ..      LDR      r4,[sp,#0x18]
        0x0001022e:    b90d        ..      CBNZ     r5,0x10234 ; prvInitialiseNewQueue + 20
        0x00010230:    6024        $`      STR      r4,[r4,#0]
        0x00010232:    e000        ..      B        0x10236 ; prvInitialiseNewQueue + 22
        0x00010234:    6027        '`      STR      r7,[r4,#0]
        0x00010236:    63e6        .c      STR      r6,[r4,#0x3c]
        0x00010238:    6425        %d      STR      r5,[r4,#0x40]
        0x0001023a:    2101        .!      MOVS     r1,#1
        0x0001023c:    4620         F      MOV      r0,r4
        0x0001023e:    f001f821    ..!.    BL       xQueueGenericReset ; 0x11284
        0x00010242:    e8bd81f0    ....    POP      {r4-r8,pc}
    i.prvInitialiseNewTask
    prvInitialiseNewTask
        0x00010246:    e92d5ff0    -.._    PUSH     {r4-r12,lr}
        0x0001024a:    4682        .F      MOV      r10,r0
        0x0001024c:    460e        .F      MOV      r6,r1
        0x0001024e:    4617        .F      MOV      r7,r2
        0x00010250:    469b        .F      MOV      r11,r3
        0x00010252:    f8dd8028    ..(.    LDR      r8,[sp,#0x28]
        0x00010256:    9c0c        ..      LDR      r4,[sp,#0x30]
        0x00010258:    b90e        ..      CBNZ     r6,0x1025e ; prvInitialiseNewTask + 24
        0x0001025a:    bf00        ..      NOP      
        0x0001025c:    e7fe        ..      B        0x1025c ; prvInitialiseNewTask + 22
        0x0001025e:    00b9        ..      LSLS     r1,r7,#2
        0x00010260:    22a5        ."      MOVS     r2,#0xa5
        0x00010262:    6b20         k      LDR      r0,[r4,#0x30]
        0x00010264:    f7fcf8d9    ....    BL       __aeabi_memset ; 0xc41a
        0x00010268:    1e78        x.      SUBS     r0,r7,#1
        0x0001026a:    6b21        !k      LDR      r1,[r4,#0x30]
        0x0001026c:    eb010980    ....    ADD      r9,r1,r0,LSL #2
        0x00010270:    f0290907    )...    BIC      r9,r9,#7
        0x00010274:    f0090007    ....    AND      r0,r9,#7
        0x00010278:    b908        ..      CBNZ     r0,0x1027e ; prvInitialiseNewTask + 56
        0x0001027a:    2001        .       MOVS     r0,#1
        0x0001027c:    e000        ..      B        0x10280 ; prvInitialiseNewTask + 58
        0x0001027e:    2000        .       MOVS     r0,#0
        0x00010280:    b908        ..      CBNZ     r0,0x10286 ; prvInitialiseNewTask + 64
        0x00010282:    bf00        ..      NOP      
        0x00010284:    e7fe        ..      B        0x10284 ; prvInitialiseNewTask + 62
        0x00010286:    2500        .%      MOVS     r5,#0
        0x00010288:    e007        ..      B        0x1029a ; prvInitialiseNewTask + 84
        0x0001028a:    5d71        q]      LDRB     r1,[r6,r5]
        0x0001028c:    f1040034    ..4.    ADD      r0,r4,#0x34
        0x00010290:    5541        AU      STRB     r1,[r0,r5]
        0x00010292:    5d70        p]      LDRB     r0,[r6,r5]
        0x00010294:    b900        ..      CBNZ     r0,0x10298 ; prvInitialiseNewTask + 82
        0x00010296:    e002        ..      B        0x1029e ; prvInitialiseNewTask + 88
        0x00010298:    1c6d        m.      ADDS     r5,r5,#1
        0x0001029a:    2d10        .-      CMP      r5,#0x10
        0x0001029c:    d3f5        ..      BCC      0x1028a ; prvInitialiseNewTask + 68
        0x0001029e:    bf00        ..      NOP      
        0x000102a0:    2100        .!      MOVS     r1,#0
        0x000102a2:    2043        C       MOVS     r0,#0x43
        0x000102a4:    5501        .U      STRB     r1,[r0,r4]
        0x000102a6:    f1b80f04    ....    CMP      r8,#4
        0x000102aa:    d301        ..      BCC      0x102b0 ; prvInitialiseNewTask + 106
        0x000102ac:    f04f0803    O...    MOV      r8,#3
        0x000102b0:    f8c4802c    ..,.    STR      r8,[r4,#0x2c]
        0x000102b4:    1d20         .      ADDS     r0,r4,#4
        0x000102b6:    f000fbb8    ....    BL       vListInitialiseItem ; 0x10a2a
        0x000102ba:    f1040018    ....    ADD      r0,r4,#0x18
        0x000102be:    f000fbb4    ....    BL       vListInitialiseItem ; 0x10a2a
        0x000102c2:    6124        $a      STR      r4,[r4,#0x10]
        0x000102c4:    f1c80004    ....    RSB      r0,r8,#4
        0x000102c8:    61a0        .a      STR      r0,[r4,#0x18]
        0x000102ca:    6264        db      STR      r4,[r4,#0x24]
        0x000102cc:    2000        .       MOVS     r0,#0
        0x000102ce:    6460        `d      STR      r0,[r4,#0x44]
        0x000102d0:    f8840048    ..H.    STRB     r0,[r4,#0x48]
        0x000102d4:    465a        ZF      MOV      r2,r11
        0x000102d6:    4651        QF      MOV      r1,r10
        0x000102d8:    4648        HF      MOV      r0,r9
        0x000102da:    f000faab    ....    BL       pxPortInitialiseStack ; 0x10834
        0x000102de:    6020         `      STR      r0,[r4,#0]
        0x000102e0:    980b        ..      LDR      r0,[sp,#0x2c]
        0x000102e2:    b108        ..      CBZ      r0,0x102e8 ; prvInitialiseNewTask + 162
        0x000102e4:    980b        ..      LDR      r0,[sp,#0x2c]
        0x000102e6:    6004        .`      STR      r4,[r0,#0]
        0x000102e8:    e8bd9ff0    ....    POP      {r4-r12,pc}
    i.prvInitialiseNewTimer
    prvInitialiseNewTimer
        0x000102ec:    e92d47f0    -..G    PUSH     {r4-r10,lr}
        0x000102f0:    4606        .F      MOV      r6,r0
        0x000102f2:    460d        .F      MOV      r5,r1
        0x000102f4:    4617        .F      MOV      r7,r2
        0x000102f6:    4698        .F      MOV      r8,r3
        0x000102f8:    e9dd9408    ....    LDRD     r9,r4,[sp,#0x20]
        0x000102fc:    b10d        ..      CBZ      r5,0x10302 ; prvInitialiseNewTimer + 22
        0x000102fe:    2001        .       MOVS     r0,#1
        0x00010300:    e000        ..      B        0x10304 ; prvInitialiseNewTimer + 24
        0x00010302:    2000        .       MOVS     r0,#0
        0x00010304:    b908        ..      CBNZ     r0,0x1030a ; prvInitialiseNewTimer + 30
        0x00010306:    bf00        ..      NOP      
        0x00010308:    e7fe        ..      B        0x10308 ; prvInitialiseNewTimer + 28
        0x0001030a:    b15c        \.      CBZ      r4,0x10324 ; prvInitialiseNewTimer + 56
        0x0001030c:    f7fffe8c    ....    BL       prvCheckForValidListAndQueue ; 0x10028
        0x00010310:    6026        &`      STR      r6,[r4,#0]
        0x00010312:    61a5        .a      STR      r5,[r4,#0x18]
        0x00010314:    61e7        .a      STR      r7,[r4,#0x1c]
        0x00010316:    f8c48020    .. .    STR      r8,[r4,#0x20]
        0x0001031a:    f8c49024    ..$.    STR      r9,[r4,#0x24]
        0x0001031e:    1d20         .      ADDS     r0,r4,#4
        0x00010320:    f000fb83    ....    BL       vListInitialiseItem ; 0x10a2a
        0x00010324:    e8bd87f0    ....    POP      {r4-r10,pc}
    i.prvInitialiseTaskLists
    prvInitialiseTaskLists
        0x00010328:    b510        ..      PUSH     {r4,lr}
        0x0001032a:    2400        .$      MOVS     r4,#0
        0x0001032c:    e007        ..      B        0x1033e ; prvInitialiseTaskLists + 22
        0x0001032e:    eb040184    ....    ADD      r1,r4,r4,LSL #2
        0x00010332:    4a0d        .J      LDR      r2,[pc,#52] ; [0x10368] = 0x10018360
        0x00010334:    eb020081    ....    ADD      r0,r2,r1,LSL #2
        0x00010338:    f000fb6a    ..j.    BL       vListInitialise ; 0x10a10
        0x0001033c:    1c64        d.      ADDS     r4,r4,#1
        0x0001033e:    2c04        .,      CMP      r4,#4
        0x00010340:    d3f5        ..      BCC      0x1032e ; prvInitialiseTaskLists + 6
        0x00010342:    480a        .H      LDR      r0,[pc,#40] ; [0x1036c] = 0x100183b0
        0x00010344:    f000fb64    ..d.    BL       vListInitialise ; 0x10a10
        0x00010348:    4809        .H      LDR      r0,[pc,#36] ; [0x10370] = 0x100183c4
        0x0001034a:    f000fb61    ..a.    BL       vListInitialise ; 0x10a10
        0x0001034e:    4809        .H      LDR      r0,[pc,#36] ; [0x10374] = 0x100183d8
        0x00010350:    f000fb5e    ..^.    BL       vListInitialise ; 0x10a10
        0x00010354:    4808        .H      LDR      r0,[pc,#32] ; [0x10378] = 0x100183ec
        0x00010356:    f000fb5b    ..[.    BL       vListInitialise ; 0x10a10
        0x0001035a:    4804        .H      LDR      r0,[pc,#16] ; [0x1036c] = 0x100183b0
        0x0001035c:    4907        .I      LDR      r1,[pc,#28] ; [0x1037c] = 0x10013088
        0x0001035e:    6008        .`      STR      r0,[r1,#0]
        0x00010360:    4803        .H      LDR      r0,[pc,#12] ; [0x10370] = 0x100183c4
        0x00010362:    4907        .I      LDR      r1,[pc,#28] ; [0x10380] = 0x1001308c
        0x00010364:    6008        .`      STR      r0,[r1,#0]
        0x00010366:    bd10        ..      POP      {r4,pc}
    $d
        0x00010368:    10018360    `...    DCD    268534624
        0x0001036c:    100183b0    ....    DCD    268534704
        0x00010370:    100183c4    ....    DCD    268534724
        0x00010374:    100183d8    ....    DCD    268534744
        0x00010378:    100183ec    ....    DCD    268534764
        0x0001037c:    10013088    .0..    DCD    268513416
        0x00010380:    1001308c    .0..    DCD    268513420
    $t
    i.prvInsertTimerInActiveList
    prvInsertTimerInActiveList
        0x00010384:    e92d41f0    -..A    PUSH     {r4-r8,lr}
        0x00010388:    4604        .F      MOV      r4,r0
        0x0001038a:    460d        .F      MOV      r5,r1
        0x0001038c:    4616        .F      MOV      r6,r2
        0x0001038e:    461f        .F      MOV      r7,r3
        0x00010390:    f04f0800    O...    MOV      r8,#0
        0x00010394:    6065        e`      STR      r5,[r4,#4]
        0x00010396:    6124        $a      STR      r4,[r4,#0x10]
        0x00010398:    42b5        .B      CMP      r5,r6
        0x0001039a:    d80c        ..      BHI      0x103b6 ; prvInsertTimerInActiveList + 50
        0x0001039c:    1bf0        ..      SUBS     r0,r6,r7
        0x0001039e:    69a1        .i      LDR      r1,[r4,#0x18]
        0x000103a0:    4288        .B      CMP      r0,r1
        0x000103a2:    d302        ..      BCC      0x103aa ; prvInsertTimerInActiveList + 38
        0x000103a4:    f04f0801    O...    MOV      r8,#1
        0x000103a8:    e011        ..      B        0x103ce ; prvInsertTimerInActiveList + 74
        0x000103aa:    1d21        !.      ADDS     r1,r4,#4
        0x000103ac:    4809        .H      LDR      r0,[pc,#36] ; [0x103d4] = 0x100130c0
        0x000103ae:    6800        .h      LDR      r0,[r0,#0]
        0x000103b0:    f000fb3e    ..>.    BL       vListInsert ; 0x10a30
        0x000103b4:    e00b        ..      B        0x103ce ; prvInsertTimerInActiveList + 74
        0x000103b6:    42be        .B      CMP      r6,r7
        0x000103b8:    d204        ..      BCS      0x103c4 ; prvInsertTimerInActiveList + 64
        0x000103ba:    42bd        .B      CMP      r5,r7
        0x000103bc:    d302        ..      BCC      0x103c4 ; prvInsertTimerInActiveList + 64
        0x000103be:    f04f0801    O...    MOV      r8,#1
        0x000103c2:    e004        ..      B        0x103ce ; prvInsertTimerInActiveList + 74
        0x000103c4:    1d21        !.      ADDS     r1,r4,#4
        0x000103c6:    4804        .H      LDR      r0,[pc,#16] ; [0x103d8] = 0x100130bc
        0x000103c8:    6800        .h      LDR      r0,[r0,#0]
        0x000103ca:    f000fb31    ..1.    BL       vListInsert ; 0x10a30
        0x000103ce:    4640        @F      MOV      r0,r8
        0x000103d0:    e8bd81f0    ....    POP      {r4-r8,pc}
    $d
        0x000103d4:    100130c0    .0..    DCD    268513472
        0x000103d8:    100130bc    .0..    DCD    268513468
    $t
    i.prvIsQueueEmpty
    prvIsQueueEmpty
        0x000103dc:    b570        p.      PUSH     {r4-r6,lr}
        0x000103de:    4605        .F      MOV      r5,r0
        0x000103e0:    f000fb4c    ..L.    BL       vPortEnterCritical ; 0x10a7c
        0x000103e4:    6ba8        .k      LDR      r0,[r5,#0x38]
        0x000103e6:    b908        ..      CBNZ     r0,0x103ec ; prvIsQueueEmpty + 16
        0x000103e8:    2401        .$      MOVS     r4,#1
        0x000103ea:    e000        ..      B        0x103ee ; prvIsQueueEmpty + 18
        0x000103ec:    2400        .$      MOVS     r4,#0
        0x000103ee:    f000fb67    ..g.    BL       vPortExitCritical ; 0x10ac0
        0x000103f2:    4620         F      MOV      r0,r4
        0x000103f4:    bd70        p.      POP      {r4-r6,pc}
    i.prvIsQueueFull
    prvIsQueueFull
        0x000103f6:    b570        p.      PUSH     {r4-r6,lr}
        0x000103f8:    4605        .F      MOV      r5,r0
        0x000103fa:    f000fb3f    ..?.    BL       vPortEnterCritical ; 0x10a7c
        0x000103fe:    6ba8        .k      LDR      r0,[r5,#0x38]
        0x00010400:    6be9        .k      LDR      r1,[r5,#0x3c]
        0x00010402:    4288        .B      CMP      r0,r1
        0x00010404:    d101        ..      BNE      0x1040a ; prvIsQueueFull + 20
        0x00010406:    2401        .$      MOVS     r4,#1
        0x00010408:    e000        ..      B        0x1040c ; prvIsQueueFull + 22
        0x0001040a:    2400        .$      MOVS     r4,#0
        0x0001040c:    f000fb58    ..X.    BL       vPortExitCritical ; 0x10ac0
        0x00010410:    4620         F      MOV      r0,r4
        0x00010412:    bd70        p.      POP      {r4-r6,pc}
    i.prvProcessExpiredTimer
    prvProcessExpiredTimer
        0x00010414:    b5f8        ..      PUSH     {r3-r7,lr}
        0x00010416:    4605        .F      MOV      r5,r0
        0x00010418:    460f        .F      MOV      r7,r1
        0x0001041a:    4811        .H      LDR      r0,[pc,#68] ; [0x10460] = 0x100130bc
        0x0001041c:    6800        .h      LDR      r0,[r0,#0]
        0x0001041e:    68c0        .h      LDR      r0,[r0,#0xc]
        0x00010420:    68c4        .h      LDR      r4,[r0,#0xc]
        0x00010422:    1d20         .      ADDS     r0,r4,#4
        0x00010424:    f000fad3    ....    BL       uxListRemove ; 0x109ce
        0x00010428:    69e0        .i      LDR      r0,[r4,#0x1c]
        0x0001042a:    2801        .(      CMP      r0,#1
        0x0001042c:    d114        ..      BNE      0x10458 ; prvProcessExpiredTimer + 68
        0x0001042e:    69a0        .i      LDR      r0,[r4,#0x18]
        0x00010430:    1941        A.      ADDS     r1,r0,r5
        0x00010432:    462b        +F      MOV      r3,r5
        0x00010434:    463a        :F      MOV      r2,r7
        0x00010436:    4620         F      MOV      r0,r4
        0x00010438:    f7ffffa4    ....    BL       prvInsertTimerInActiveList ; 0x10384
        0x0001043c:    b160        `.      CBZ      r0,0x10458 ; prvProcessExpiredTimer + 68
        0x0001043e:    2000        .       MOVS     r0,#0
        0x00010440:    4603        .F      MOV      r3,r0
        0x00010442:    462a        *F      MOV      r2,r5
        0x00010444:    4601        .F      MOV      r1,r0
        0x00010446:    9000        ..      STR      r0,[sp,#0]
        0x00010448:    4620         F      MOV      r0,r4
        0x0001044a:    f001fb05    ....    BL       xTimerGenericCommand ; 0x11a58
        0x0001044e:    4606        .F      MOV      r6,r0
        0x00010450:    b90e        ..      CBNZ     r6,0x10456 ; prvProcessExpiredTimer + 66
        0x00010452:    bf00        ..      NOP      
        0x00010454:    e7fe        ..      B        0x10454 ; prvProcessExpiredTimer + 64
        0x00010456:    bf00        ..      NOP      
        0x00010458:    4620         F      MOV      r0,r4
        0x0001045a:    6a61        aj      LDR      r1,[r4,#0x24]
        0x0001045c:    4788        .G      BLX      r1
        0x0001045e:    bdf8        ..      POP      {r3-r7,pc}
    $d
        0x00010460:    100130bc    .0..    DCD    268513468
    $t
    i.prvProcessReceivedCommands
    prvProcessReceivedCommands
        0x00010464:    b5f0        ..      PUSH     {r4-r7,lr}
        0x00010466:    b087        ..      SUB      sp,sp,#0x1c
        0x00010468:    e064        d.      B        0x10534 ; prvProcessReceivedCommands + 208
        0x0001046a:    9803        ..      LDR      r0,[sp,#0xc]
        0x0001046c:    2800        .(      CMP      r0,#0
        0x0001046e:    da08        ..      BGE      0x10482 ; prvProcessReceivedCommands + 30
        0x00010470:    ae04        ..      ADD      r6,sp,#0x10
        0x00010472:    b90e        ..      CBNZ     r6,0x10478 ; prvProcessReceivedCommands + 20
        0x00010474:    bf00        ..      NOP      
        0x00010476:    e7fe        ..      B        0x10476 ; prvProcessReceivedCommands + 18
        0x00010478:    e9d62000    ...     LDRD     r2,r0,[r6,#0]
        0x0001047c:    68b1        .h      LDR      r1,[r6,#8]
        0x0001047e:    4790        .G      BLX      r2
        0x00010480:    bf00        ..      NOP      
        0x00010482:    9803        ..      LDR      r0,[sp,#0xc]
        0x00010484:    2800        .(      CMP      r0,#0
        0x00010486:    db55        U.      BLT      0x10534 ; prvProcessReceivedCommands + 208
        0x00010488:    9c05        ..      LDR      r4,[sp,#0x14]
        0x0001048a:    6960        `i      LDR      r0,[r4,#0x14]
        0x0001048c:    b908        ..      CBNZ     r0,0x10492 ; prvProcessReceivedCommands + 46
        0x0001048e:    2001        .       MOVS     r0,#1
        0x00010490:    e000        ..      B        0x10494 ; prvProcessReceivedCommands + 48
        0x00010492:    2000        .       MOVS     r0,#0
        0x00010494:    b910        ..      CBNZ     r0,0x1049c ; prvProcessReceivedCommands + 56
        0x00010496:    1d20         .      ADDS     r0,r4,#4
        0x00010498:    f000fa99    ....    BL       uxListRemove ; 0x109ce
        0x0001049c:    a802        ..      ADD      r0,sp,#8
        0x0001049e:    f000f8a9    ....    BL       prvSampleTimeNow ; 0x105f4
        0x000104a2:    4605        .F      MOV      r5,r0
        0x000104a4:    9803        ..      LDR      r0,[sp,#0xc]
        0x000104a6:    280a        .(      CMP      r0,#0xa
        0x000104a8:    d242        B.      BCS      0x10530 ; prvProcessReceivedCommands + 204
        0x000104aa:    e8dff000    ....    TBB      [pc,r0]
    $d
        0x000104ae:    0509        ..      DCW    1289
        0x000104b0:    3d2a2807    .(*=    DCD    1026172935
        0x000104b4:    2b290806    ..)+    DCD    724109318
    $t
        0x000104b8:    bf00        ..      NOP      
        0x000104ba:    bf00        ..      NOP      
        0x000104bc:    bf00        ..      NOP      
        0x000104be:    bf00        ..      NOP      
        0x000104c0:    9804        ..      LDR      r0,[sp,#0x10]
        0x000104c2:    69a2        .i      LDR      r2,[r4,#0x18]
        0x000104c4:    1881        ..      ADDS     r1,r0,r2
        0x000104c6:    4603        .F      MOV      r3,r0
        0x000104c8:    462a        *F      MOV      r2,r5
        0x000104ca:    4620         F      MOV      r0,r4
        0x000104cc:    f7ffff5a    ..Z.    BL       prvInsertTimerInActiveList ; 0x10384
        0x000104d0:    b1a0        ..      CBZ      r0,0x104fc ; prvProcessReceivedCommands + 152
        0x000104d2:    4620         F      MOV      r0,r4
        0x000104d4:    6a61        aj      LDR      r1,[r4,#0x24]
        0x000104d6:    4788        .G      BLX      r1
        0x000104d8:    69e0        .i      LDR      r0,[r4,#0x1c]
        0x000104da:    2801        .(      CMP      r0,#1
        0x000104dc:    d10e        ..      BNE      0x104fc ; prvProcessReceivedCommands + 152
        0x000104de:    2000        .       MOVS     r0,#0
        0x000104e0:    9000        ..      STR      r0,[sp,#0]
        0x000104e2:    9804        ..      LDR      r0,[sp,#0x10]
        0x000104e4:    69a1        .i      LDR      r1,[r4,#0x18]
        0x000104e6:    1842        B.      ADDS     r2,r0,r1
        0x000104e8:    2300        .#      MOVS     r3,#0
        0x000104ea:    4619        .F      MOV      r1,r3
        0x000104ec:    4620         F      MOV      r0,r4
        0x000104ee:    f001fab3    ....    BL       xTimerGenericCommand ; 0x11a58
        0x000104f2:    4607        .F      MOV      r7,r0
        0x000104f4:    b90f        ..      CBNZ     r7,0x104fa ; prvProcessReceivedCommands + 150
        0x000104f6:    bf00        ..      NOP      
        0x000104f8:    e7fe        ..      B        0x104f8 ; prvProcessReceivedCommands + 148
        0x000104fa:    bf00        ..      NOP      
        0x000104fc:    e019        ..      B        0x10532 ; prvProcessReceivedCommands + 206
        0x000104fe:    bf00        ..      NOP      
        0x00010500:    e017        ..      B        0x10532 ; prvProcessReceivedCommands + 206
        0x00010502:    bf00        ..      NOP      
        0x00010504:    9804        ..      LDR      r0,[sp,#0x10]
        0x00010506:    61a0        .a      STR      r0,[r4,#0x18]
        0x00010508:    69a0        .i      LDR      r0,[r4,#0x18]
        0x0001050a:    b108        ..      CBZ      r0,0x10510 ; prvProcessReceivedCommands + 172
        0x0001050c:    2001        .       MOVS     r0,#1
        0x0001050e:    e000        ..      B        0x10512 ; prvProcessReceivedCommands + 174
        0x00010510:    2000        .       MOVS     r0,#0
        0x00010512:    b908        ..      CBNZ     r0,0x10518 ; prvProcessReceivedCommands + 180
        0x00010514:    bf00        ..      NOP      
        0x00010516:    e7fe        ..      B        0x10516 ; prvProcessReceivedCommands + 178
        0x00010518:    69a0        .i      LDR      r0,[r4,#0x18]
        0x0001051a:    1941        A.      ADDS     r1,r0,r5
        0x0001051c:    462b        +F      MOV      r3,r5
        0x0001051e:    462a        *F      MOV      r2,r5
        0x00010520:    4620         F      MOV      r0,r4
        0x00010522:    f7ffff2f    ../.    BL       prvInsertTimerInActiveList ; 0x10384
        0x00010526:    e004        ..      B        0x10532 ; prvProcessReceivedCommands + 206
        0x00010528:    4620         F      MOV      r0,r4
        0x0001052a:    f000fadf    ....    BL       vPortFree ; 0x10aec
        0x0001052e:    e000        ..      B        0x10532 ; prvProcessReceivedCommands + 206
        0x00010530:    bf00        ..      NOP      
        0x00010532:    bf00        ..      NOP      
        0x00010534:    2200        ."      MOVS     r2,#0
        0x00010536:    a903        ..      ADD      r1,sp,#0xc
        0x00010538:    4803        .H      LDR      r0,[pc,#12] ; [0x10548] = 0x100130c4
        0x0001053a:    6800        .h      LDR      r0,[r0,#0]
        0x0001053c:    f000fff6    ....    BL       xQueueReceive ; 0x1152c
        0x00010540:    2800        .(      CMP      r0,#0
        0x00010542:    d192        ..      BNE      0x1046a ; prvProcessReceivedCommands + 6
        0x00010544:    b007        ..      ADD      sp,sp,#0x1c
        0x00010546:    bdf0        ..      POP      {r4-r7,pc}
    $d
        0x00010548:    100130c4    .0..    DCD    268513476
    $t
    i.prvProcessTimerOrBlockTask
    prvProcessTimerOrBlockTask
        0x0001054c:    b5f8        ..      PUSH     {r3-r7,lr}
        0x0001054e:    4605        .F      MOV      r5,r0
        0x00010550:    460c        .F      MOV      r4,r1
        0x00010552:    f000fcc1    ....    BL       vTaskSuspendAll ; 0x10ed8
        0x00010556:    4668        hF      MOV      r0,sp
        0x00010558:    f000f84c    ..L.    BL       prvSampleTimeNow ; 0x105f4
        0x0001055c:    4606        .F      MOV      r6,r0
        0x0001055e:    9800        ..      LDR      r0,[sp,#0]
        0x00010560:    bb20         .      CBNZ     r0,0x105ac ; prvProcessTimerOrBlockTask + 96
        0x00010562:    b944        D.      CBNZ     r4,0x10576 ; prvProcessTimerOrBlockTask + 42
        0x00010564:    42b5        .B      CMP      r5,r6
        0x00010566:    d806        ..      BHI      0x10576 ; prvProcessTimerOrBlockTask + 42
        0x00010568:    f001f9c4    ....    BL       xTaskResumeAll ; 0x118f4
        0x0001056c:    4631        1F      MOV      r1,r6
        0x0001056e:    4628        (F      MOV      r0,r5
        0x00010570:    f7ffff50    ..P.    BL       prvProcessExpiredTimer ; 0x10414
        0x00010574:    e01c        ..      B        0x105b0 ; prvProcessTimerOrBlockTask + 100
        0x00010576:    b13c        <.      CBZ      r4,0x10588 ; prvProcessTimerOrBlockTask + 60
        0x00010578:    480e        .H      LDR      r0,[pc,#56] ; [0x105b4] = 0x100130c0
        0x0001057a:    6800        .h      LDR      r0,[r0,#0]
        0x0001057c:    6800        .h      LDR      r0,[r0,#0]
        0x0001057e:    b908        ..      CBNZ     r0,0x10584 ; prvProcessTimerOrBlockTask + 56
        0x00010580:    2001        .       MOVS     r0,#1
        0x00010582:    e000        ..      B        0x10586 ; prvProcessTimerOrBlockTask + 58
        0x00010584:    2000        .       MOVS     r0,#0
        0x00010586:    4604        .F      MOV      r4,r0
        0x00010588:    1ba9        ..      SUBS     r1,r5,r6
        0x0001058a:    4622        "F      MOV      r2,r4
        0x0001058c:    480a        .H      LDR      r0,[pc,#40] ; [0x105b8] = 0x100130c4
        0x0001058e:    6800        .h      LDR      r0,[r0,#0]
        0x00010590:    f000fba6    ....    BL       vQueueWaitForMessageRestricted ; 0x10ce0
        0x00010594:    f001f9ae    ....    BL       xTaskResumeAll ; 0x118f4
        0x00010598:    b950        P.      CBNZ     r0,0x105b0 ; prvProcessTimerOrBlockTask + 100
        0x0001059a:    f04f5080    O..P    MOV      r0,#0x10000000
        0x0001059e:    4907        .I      LDR      r1,[pc,#28] ; [0x105bc] = 0xe000ed04
        0x000105a0:    6008        .`      STR      r0,[r1,#0]
        0x000105a2:    f3bf8f4f    ..O.    DSB      
        0x000105a6:    f3bf8f6f    ..o.    ISB      
        0x000105aa:    e001        ..      B        0x105b0 ; prvProcessTimerOrBlockTask + 100
        0x000105ac:    f001f9a2    ....    BL       xTaskResumeAll ; 0x118f4
        0x000105b0:    bdf8        ..      POP      {r3-r7,pc}
    $d
        0x000105b2:    0000        ..      DCW    0
        0x000105b4:    100130c0    .0..    DCD    268513472
        0x000105b8:    100130c4    .0..    DCD    268513476
        0x000105bc:    e000ed04    ....    DCD    3758157060
    $t
    i.prvResetNextTaskUnblockTime
    prvResetNextTaskUnblockTime
        0x000105c0:    490a        .I      LDR      r1,[pc,#40] ; [0x105ec] = 0x10013088
        0x000105c2:    6809        .h      LDR      r1,[r1,#0]
        0x000105c4:    6809        .h      LDR      r1,[r1,#0]
        0x000105c6:    b909        ..      CBNZ     r1,0x105cc ; prvResetNextTaskUnblockTime + 12
        0x000105c8:    2101        .!      MOVS     r1,#1
        0x000105ca:    e000        ..      B        0x105ce ; prvResetNextTaskUnblockTime + 14
        0x000105cc:    2100        .!      MOVS     r1,#0
        0x000105ce:    b121        !.      CBZ      r1,0x105da ; prvResetNextTaskUnblockTime + 26
        0x000105d0:    f04f31ff    O..1    MOV      r1,#0xffffffff
        0x000105d4:    4a06        .J      LDR      r2,[pc,#24] ; [0x105f0] = 0x100130b0
        0x000105d6:    6011        .`      STR      r1,[r2,#0]
        0x000105d8:    e006        ..      B        0x105e8 ; prvResetNextTaskUnblockTime + 40
        0x000105da:    4904        .I      LDR      r1,[pc,#16] ; [0x105ec] = 0x10013088
        0x000105dc:    6809        .h      LDR      r1,[r1,#0]
        0x000105de:    68c9        .h      LDR      r1,[r1,#0xc]
        0x000105e0:    68c8        .h      LDR      r0,[r1,#0xc]
        0x000105e2:    4a03        .J      LDR      r2,[pc,#12] ; [0x105f0] = 0x100130b0
        0x000105e4:    6841        Ah      LDR      r1,[r0,#4]
        0x000105e6:    6011        .`      STR      r1,[r2,#0]
        0x000105e8:    4770        pG      BX       lr
    $d
        0x000105ea:    0000        ..      DCW    0
        0x000105ec:    10013088    .0..    DCD    268513416
        0x000105f0:    100130b0    .0..    DCD    268513456
    $t
    i.prvSampleTimeNow
    prvSampleTimeNow
        0x000105f4:    b570        p.      PUSH     {r4-r6,lr}
        0x000105f6:    4604        .F      MOV      r4,r0
        0x000105f8:    f001f8a6    ....    BL       xTaskGetTickCount ; 0x11748
        0x000105fc:    4605        .F      MOV      r5,r0
        0x000105fe:    4807        .H      LDR      r0,[pc,#28] ; [0x1061c] = 0x100130cc
        0x00010600:    6800        .h      LDR      r0,[r0,#0]
        0x00010602:    4285        .B      CMP      r5,r0
        0x00010604:    d204        ..      BCS      0x10610 ; prvSampleTimeNow + 28
        0x00010606:    f000f80b    ....    BL       prvSwitchTimerLists ; 0x10620
        0x0001060a:    2001        .       MOVS     r0,#1
        0x0001060c:    6020         `      STR      r0,[r4,#0]
        0x0001060e:    e001        ..      B        0x10614 ; prvSampleTimeNow + 32
        0x00010610:    2000        .       MOVS     r0,#0
        0x00010612:    6020         `      STR      r0,[r4,#0]
        0x00010614:    4801        .H      LDR      r0,[pc,#4] ; [0x1061c] = 0x100130cc
        0x00010616:    6005        .`      STR      r5,[r0,#0]
        0x00010618:    4628        (F      MOV      r0,r5
        0x0001061a:    bd70        p.      POP      {r4-r6,pc}
    $d
        0x0001061c:    100130cc    .0..    DCD    268513484
    $t
    i.prvSwitchTimerLists
    prvSwitchTimerLists
        0x00010620:    e92d43f8    -..C    PUSH     {r3-r9,lr}
        0x00010624:    e029        ).      B        0x1067a ; prvSwitchTimerLists + 90
        0x00010626:    481f        .H      LDR      r0,[pc,#124] ; [0x106a4] = 0x100130bc
        0x00010628:    6800        .h      LDR      r0,[r0,#0]
        0x0001062a:    68c0        .h      LDR      r0,[r0,#0xc]
        0x0001062c:    6805        .h      LDR      r5,[r0,#0]
        0x0001062e:    481d        .H      LDR      r0,[pc,#116] ; [0x106a4] = 0x100130bc
        0x00010630:    6800        .h      LDR      r0,[r0,#0]
        0x00010632:    68c0        .h      LDR      r0,[r0,#0xc]
        0x00010634:    68c4        .h      LDR      r4,[r0,#0xc]
        0x00010636:    1d20         .      ADDS     r0,r4,#4
        0x00010638:    f000f9c9    ....    BL       uxListRemove ; 0x109ce
        0x0001063c:    4620         F      MOV      r0,r4
        0x0001063e:    6a61        aj      LDR      r1,[r4,#0x24]
        0x00010640:    4788        .G      BLX      r1
        0x00010642:    69e0        .i      LDR      r0,[r4,#0x1c]
        0x00010644:    2801        .(      CMP      r0,#1
        0x00010646:    d118        ..      BNE      0x1067a ; prvSwitchTimerLists + 90
        0x00010648:    69a0        .i      LDR      r0,[r4,#0x18]
        0x0001064a:    1946        F.      ADDS     r6,r0,r5
        0x0001064c:    42ae        .B      CMP      r6,r5
        0x0001064e:    d907        ..      BLS      0x10660 ; prvSwitchTimerLists + 64
        0x00010650:    6066        f`      STR      r6,[r4,#4]
        0x00010652:    6124        $a      STR      r4,[r4,#0x10]
        0x00010654:    1d21        !.      ADDS     r1,r4,#4
        0x00010656:    4813        .H      LDR      r0,[pc,#76] ; [0x106a4] = 0x100130bc
        0x00010658:    6800        .h      LDR      r0,[r0,#0]
        0x0001065a:    f000f9e9    ....    BL       vListInsert ; 0x10a30
        0x0001065e:    e00c        ..      B        0x1067a ; prvSwitchTimerLists + 90
        0x00010660:    2000        .       MOVS     r0,#0
        0x00010662:    4603        .F      MOV      r3,r0
        0x00010664:    462a        *F      MOV      r2,r5
        0x00010666:    4601        .F      MOV      r1,r0
        0x00010668:    9000        ..      STR      r0,[sp,#0]
        0x0001066a:    4620         F      MOV      r0,r4
        0x0001066c:    f001f9f4    ....    BL       xTimerGenericCommand ; 0x11a58
        0x00010670:    4607        .F      MOV      r7,r0
        0x00010672:    b90f        ..      CBNZ     r7,0x10678 ; prvSwitchTimerLists + 88
        0x00010674:    bf00        ..      NOP      
        0x00010676:    e7fe        ..      B        0x10676 ; prvSwitchTimerLists + 86
        0x00010678:    bf00        ..      NOP      
        0x0001067a:    480a        .H      LDR      r0,[pc,#40] ; [0x106a4] = 0x100130bc
        0x0001067c:    6800        .h      LDR      r0,[r0,#0]
        0x0001067e:    6800        .h      LDR      r0,[r0,#0]
        0x00010680:    b908        ..      CBNZ     r0,0x10686 ; prvSwitchTimerLists + 102
        0x00010682:    2001        .       MOVS     r0,#1
        0x00010684:    e000        ..      B        0x10688 ; prvSwitchTimerLists + 104
        0x00010686:    2000        .       MOVS     r0,#0
        0x00010688:    2800        .(      CMP      r0,#0
        0x0001068a:    d0cc        ..      BEQ      0x10626 ; prvSwitchTimerLists + 6
        0x0001068c:    4805        .H      LDR      r0,[pc,#20] ; [0x106a4] = 0x100130bc
        0x0001068e:    f8d08000    ....    LDR      r8,[r0,#0]
        0x00010692:    4805        .H      LDR      r0,[pc,#20] ; [0x106a8] = 0x100130c0
        0x00010694:    6800        .h      LDR      r0,[r0,#0]
        0x00010696:    4903        .I      LDR      r1,[pc,#12] ; [0x106a4] = 0x100130bc
        0x00010698:    6008        .`      STR      r0,[r1,#0]
        0x0001069a:    4803        .H      LDR      r0,[pc,#12] ; [0x106a8] = 0x100130c0
        0x0001069c:    f8c08000    ....    STR      r8,[r0,#0]
        0x000106a0:    e8bd83f8    ....    POP      {r3-r9,pc}
    $d
        0x000106a4:    100130bc    .0..    DCD    268513468
        0x000106a8:    100130c0    .0..    DCD    268513472
    $t
    i.prvTaskExitError
    prvTaskExitError
        0x000106ac:    480a        .H      LDR      r0,[pc,#40] ; [0x106d8] = 0x1001301c
        0x000106ae:    6800        .h      LDR      r0,[r0,#0]
        0x000106b0:    1c40        @.      ADDS     r0,r0,#1
        0x000106b2:    b908        ..      CBNZ     r0,0x106b8 ; prvTaskExitError + 12
        0x000106b4:    2001        .       MOVS     r0,#1
        0x000106b6:    e000        ..      B        0x106ba ; prvTaskExitError + 14
        0x000106b8:    2000        .       MOVS     r0,#0
        0x000106ba:    b908        ..      CBNZ     r0,0x106c0 ; prvTaskExitError + 20
        0x000106bc:    bf00        ..      NOP      
        0x000106be:    e7fe        ..      B        0x106be ; prvTaskExitError + 18
        0x000106c0:    bf00        ..      NOP      
        0x000106c2:    2080        .       MOVS     r0,#0x80
        0x000106c4:    f3808811    ....    MSR      BASEPRI,r0
        0x000106c8:    f3bf8f4f    ..O.    DSB      
        0x000106cc:    f3bf8f6f    ..o.    ISB      
        0x000106d0:    bf00        ..      NOP      
        0x000106d2:    bf00        ..      NOP      
        0x000106d4:    e7fe        ..      B        0x106d4 ; prvTaskExitError + 40
    $d
        0x000106d6:    0000        ..      DCW    0
        0x000106d8:    1001301c    .0..    DCD    268513308
    $t
    i.prvTimerTask
    prvTimerTask
        0x000106dc:    b508        ..      PUSH     {r3,lr}
        0x000106de:    bf00        ..      NOP      
        0x000106e0:    4668        hF      MOV      r0,sp
        0x000106e2:    f7fffd37    ..7.    BL       prvGetNextExpireTime ; 0x10154
        0x000106e6:    4604        .F      MOV      r4,r0
        0x000106e8:    4620         F      MOV      r0,r4
        0x000106ea:    9900        ..      LDR      r1,[sp,#0]
        0x000106ec:    f7ffff2e    ....    BL       prvProcessTimerOrBlockTask ; 0x1054c
        0x000106f0:    f7fffeb8    ....    BL       prvProcessReceivedCommands ; 0x10464
        0x000106f4:    e7f4        ..      B        0x106e0 ; prvTimerTask + 4
    i.prvUnlockQueue
    prvUnlockQueue
        0x000106f6:    b570        p.      PUSH     {r4-r6,lr}
        0x000106f8:    4604        .F      MOV      r4,r0
        0x000106fa:    f000f9bf    ....    BL       vPortEnterCritical ; 0x10a7c
        0x000106fe:    f9945045    ..EP    LDRSB    r5,[r4,#0x45]
        0x00010702:    e010        ..      B        0x10726 ; prvUnlockQueue + 48
        0x00010704:    6a60        `j      LDR      r0,[r4,#0x24]
        0x00010706:    b908        ..      CBNZ     r0,0x1070c ; prvUnlockQueue + 22
        0x00010708:    2001        .       MOVS     r0,#1
        0x0001070a:    e000        ..      B        0x1070e ; prvUnlockQueue + 24
        0x0001070c:    2000        .       MOVS     r0,#0
        0x0001070e:    b938        8.      CBNZ     r0,0x10720 ; prvUnlockQueue + 42
        0x00010710:    f1040024    ..$.    ADD      r0,r4,#0x24
        0x00010714:    f001f8aa    ....    BL       xTaskRemoveFromEventList ; 0x1186c
        0x00010718:    b118        ..      CBZ      r0,0x10722 ; prvUnlockQueue + 44
        0x0001071a:    f000fb13    ....    BL       vTaskMissedYield ; 0x10d44
        0x0001071e:    e000        ..      B        0x10722 ; prvUnlockQueue + 44
        0x00010720:    e003        ..      B        0x1072a ; prvUnlockQueue + 52
        0x00010722:    1e68        h.      SUBS     r0,r5,#1
        0x00010724:    b245        E.      SXTB     r5,r0
        0x00010726:    2d00        .-      CMP      r5,#0
        0x00010728:    dcec        ..      BGT      0x10704 ; prvUnlockQueue + 14
        0x0001072a:    bf00        ..      NOP      
        0x0001072c:    20ff        .       MOVS     r0,#0xff
        0x0001072e:    f8840045    ..E.    STRB     r0,[r4,#0x45]
        0x00010732:    f000f9c5    ....    BL       vPortExitCritical ; 0x10ac0
        0x00010736:    f000f9a1    ....    BL       vPortEnterCritical ; 0x10a7c
        0x0001073a:    f9945044    ..DP    LDRSB    r5,[r4,#0x44]
        0x0001073e:    e010        ..      B        0x10762 ; prvUnlockQueue + 108
        0x00010740:    6920         i      LDR      r0,[r4,#0x10]
        0x00010742:    b908        ..      CBNZ     r0,0x10748 ; prvUnlockQueue + 82
        0x00010744:    2001        .       MOVS     r0,#1
        0x00010746:    e000        ..      B        0x1074a ; prvUnlockQueue + 84
        0x00010748:    2000        .       MOVS     r0,#0
        0x0001074a:    b948        H.      CBNZ     r0,0x10760 ; prvUnlockQueue + 106
        0x0001074c:    f1040010    ....    ADD      r0,r4,#0x10
        0x00010750:    f001f88c    ....    BL       xTaskRemoveFromEventList ; 0x1186c
        0x00010754:    b108        ..      CBZ      r0,0x1075a ; prvUnlockQueue + 100
        0x00010756:    f000faf5    ....    BL       vTaskMissedYield ; 0x10d44
        0x0001075a:    1e68        h.      SUBS     r0,r5,#1
        0x0001075c:    b245        E.      SXTB     r5,r0
        0x0001075e:    e000        ..      B        0x10762 ; prvUnlockQueue + 108
        0x00010760:    e001        ..      B        0x10766 ; prvUnlockQueue + 112
        0x00010762:    2d00        .-      CMP      r5,#0
        0x00010764:    dcec        ..      BGT      0x10740 ; prvUnlockQueue + 74
        0x00010766:    bf00        ..      NOP      
        0x00010768:    20ff        .       MOVS     r0,#0xff
        0x0001076a:    f8840044    ..D.    STRB     r0,[r4,#0x44]
        0x0001076e:    f000f9a7    ....    BL       vPortExitCritical ; 0x10ac0
        0x00010772:    bd70        p.      POP      {r4-r6,pc}
    i.pvPortMalloc
    pvPortMalloc
        0x00010774:    e92d41f0    -..A    PUSH     {r4-r8,lr}
        0x00010778:    4604        .F      MOV      r4,r0
        0x0001077a:    f04f0800    O...    MOV      r8,#0
        0x0001077e:    f000fbab    ....    BL       vTaskSuspendAll ; 0x10ed8
        0x00010782:    4828        (H      LDR      r0,[pc,#160] ; [0x10824] = 0x10013080
        0x00010784:    6800        .h      LDR      r0,[r0,#0]
        0x00010786:    b920         .      CBNZ     r0,0x10792 ; pvPortMalloc + 30
        0x00010788:    f7fffcf8    ....    BL       prvHeapInit ; 0x1017c
        0x0001078c:    2001        .       MOVS     r0,#1
        0x0001078e:    4925        %I      LDR      r1,[pc,#148] ; [0x10824] = 0x10013080
        0x00010790:    6008        .`      STR      r0,[r1,#0]
        0x00010792:    b144        D.      CBZ      r4,0x107a6 ; pvPortMalloc + 50
        0x00010794:    3408        .4      ADDS     r4,r4,#8
        0x00010796:    f0040007    ....    AND      r0,r4,#7
        0x0001079a:    b120         .      CBZ      r0,0x107a6 ; pvPortMalloc + 50
        0x0001079c:    f0040007    ....    AND      r0,r4,#7
        0x000107a0:    f1c00008    ....    RSB      r0,r0,#8
        0x000107a4:    4404        .D      ADD      r4,r4,r0
        0x000107a6:    2c00        .,      CMP      r4,#0
        0x000107a8:    d032        2.      BEQ      0x10810 ; pvPortMalloc + 156
        0x000107aa:    f64370f8    C..p    MOV      r0,#0x3ff8
        0x000107ae:    4284        .B      CMP      r4,r0
        0x000107b0:    d22e        ..      BCS      0x10810 ; pvPortMalloc + 156
        0x000107b2:    4f1d        .O      LDR      r7,[pc,#116] ; [0x10828] = 0x1001306c
        0x000107b4:    4638        8F      MOV      r0,r7
        0x000107b6:    6805        .h      LDR      r5,[r0,#0]
        0x000107b8:    e001        ..      B        0x107be ; pvPortMalloc + 74
        0x000107ba:    462f        /F      MOV      r7,r5
        0x000107bc:    682d        -h      LDR      r5,[r5,#0]
        0x000107be:    6868        hh      LDR      r0,[r5,#4]
        0x000107c0:    42a0        .B      CMP      r0,r4
        0x000107c2:    d202        ..      BCS      0x107ca ; pvPortMalloc + 86
        0x000107c4:    6828        (h      LDR      r0,[r5,#0]
        0x000107c6:    2800        .(      CMP      r0,#0
        0x000107c8:    d1f7        ..      BNE      0x107ba ; pvPortMalloc + 70
        0x000107ca:    4818        .H      LDR      r0,[pc,#96] ; [0x1082c] = 0x10013074
        0x000107cc:    4285        .B      CMP      r5,r0
        0x000107ce:    d01f        ..      BEQ      0x10810 ; pvPortMalloc + 156
        0x000107d0:    6838        8h      LDR      r0,[r7,#0]
        0x000107d2:    f1000808    ....    ADD      r8,r0,#8
        0x000107d6:    6828        (h      LDR      r0,[r5,#0]
        0x000107d8:    6038        8`      STR      r0,[r7,#0]
        0x000107da:    6868        hh      LDR      r0,[r5,#4]
        0x000107dc:    1b00        ..      SUBS     r0,r0,r4
        0x000107de:    2810        .(      CMP      r0,#0x10
        0x000107e0:    d910        ..      BLS      0x10804 ; pvPortMalloc + 144
        0x000107e2:    192e        ..      ADDS     r6,r5,r4
        0x000107e4:    6868        hh      LDR      r0,[r5,#4]
        0x000107e6:    1b00        ..      SUBS     r0,r0,r4
        0x000107e8:    6070        p`      STR      r0,[r6,#4]
        0x000107ea:    606c        l`      STR      r4,[r5,#4]
        0x000107ec:    6871        qh      LDR      r1,[r6,#4]
        0x000107ee:    480e        .H      LDR      r0,[pc,#56] ; [0x10828] = 0x1001306c
        0x000107f0:    e000        ..      B        0x107f4 ; pvPortMalloc + 128
        0x000107f2:    6800        .h      LDR      r0,[r0,#0]
        0x000107f4:    6802        .h      LDR      r2,[r0,#0]
        0x000107f6:    6852        Rh      LDR      r2,[r2,#4]
        0x000107f8:    428a        .B      CMP      r2,r1
        0x000107fa:    d3fa        ..      BCC      0x107f2 ; pvPortMalloc + 126
        0x000107fc:    6802        .h      LDR      r2,[r0,#0]
        0x000107fe:    6032        2`      STR      r2,[r6,#0]
        0x00010800:    6006        .`      STR      r6,[r0,#0]
        0x00010802:    bf00        ..      NOP      
        0x00010804:    490a        .I      LDR      r1,[pc,#40] ; [0x10830] = 0x1001307c
        0x00010806:    6868        hh      LDR      r0,[r5,#4]
        0x00010808:    6809        .h      LDR      r1,[r1,#0]
        0x0001080a:    1a08        ..      SUBS     r0,r1,r0
        0x0001080c:    4908        .I      LDR      r1,[pc,#32] ; [0x10830] = 0x1001307c
        0x0001080e:    6008        .`      STR      r0,[r1,#0]
        0x00010810:    f001f870    ..p.    BL       xTaskResumeAll ; 0x118f4
        0x00010814:    f1b80f00    ....    CMP      r8,#0
        0x00010818:    d101        ..      BNE      0x1081e ; pvPortMalloc + 170
        0x0001081a:    f000f8ec    ....    BL       vApplicationMallocFailedHook ; 0x109f6
        0x0001081e:    4640        @F      MOV      r0,r8
        0x00010820:    e8bd81f0    ....    POP      {r4-r8,pc}
    $d
        0x00010824:    10013080    .0..    DCD    268513408
        0x00010828:    1001306c    l0..    DCD    268513388
        0x0001082c:    10013074    t0..    DCD    268513396
        0x00010830:    1001307c    |0..    DCD    268513404
    $t
    i.pxPortInitialiseStack
    pxPortInitialiseStack
        0x00010834:    1f00        ..      SUBS     r0,r0,#4
        0x00010836:    f04f7380    O..s    MOV      r3,#0x1000000
        0x0001083a:    6003        .`      STR      r3,[r0,#0]
        0x0001083c:    1f00        ..      SUBS     r0,r0,#4
        0x0001083e:    f0210301    !...    BIC      r3,r1,#1
        0x00010842:    6003        .`      STR      r3,[r0,#0]
        0x00010844:    1f00        ..      SUBS     r0,r0,#4
        0x00010846:    4b05        .K      LDR      r3,[pc,#20] ; [0x1085c] = 0x106ad
        0x00010848:    6003        .`      STR      r3,[r0,#0]
        0x0001084a:    3814        .8      SUBS     r0,r0,#0x14
        0x0001084c:    6002        .`      STR      r2,[r0,#0]
        0x0001084e:    1f00        ..      SUBS     r0,r0,#4
        0x00010850:    f06f0302    o...    MVN      r3,#2
        0x00010854:    6003        .`      STR      r3,[r0,#0]
        0x00010856:    3820         8      SUBS     r0,r0,#0x20
        0x00010858:    4770        pG      BX       lr
    $d
        0x0001085a:    0000        ..      DCW    0
        0x0001085c:    000106ad    ....    DCD    67245
    $t
    i.setup_buttons
    setup_buttons
        0x00010860:    b538        8.      PUSH     {r3-r5,lr}
        0x00010862:    2103        .!      MOVS     r1,#3
        0x00010864:    480e        .H      LDR      r0,[pc,#56] ; [0x108a0] = 0x1001312c
        0x00010866:    f7fcf97b    ..{.    BL       am_devices_button_array_init ; 0xcb60
        0x0001086a:    480e        .H      LDR      r0,[pc,#56] ; [0x108a4] = 0xf809
        0x0001086c:    2300        .#      MOVS     r3,#0
        0x0001086e:    2201        ."      MOVS     r2,#1
        0x00010870:    2114        .!      MOVS     r1,#0x14
        0x00010872:    9000        ..      STR      r0,[sp,#0]
        0x00010874:    a00c        ..      ADR      r0,{pc}+0x34 ; 0x108a8
        0x00010876:    f001f8b5    ....    BL       xTimerCreate ; 0x119e4
        0x0001087a:    490f        .I      LDR      r1,[pc,#60] ; [0x108b8] = 0x1001305c
        0x0001087c:    6008        .`      STR      r0,[r1,#0]
        0x0001087e:    4608        .F      MOV      r0,r1
        0x00010880:    6800        .h      LDR      r0,[r0,#0]
        0x00010882:    b158        X.      CBZ      r0,0x1089c ; setup_buttons + 60
        0x00010884:    f000ff60    ..`.    BL       xTaskGetTickCount ; 0x11748
        0x00010888:    4604        .F      MOV      r4,r0
        0x0001088a:    2064        d       MOVS     r0,#0x64
        0x0001088c:    2300        .#      MOVS     r3,#0
        0x0001088e:    4622        "F      MOV      r2,r4
        0x00010890:    2101        .!      MOVS     r1,#1
        0x00010892:    9000        ..      STR      r0,[sp,#0]
        0x00010894:    4808        .H      LDR      r0,[pc,#32] ; [0x108b8] = 0x1001305c
        0x00010896:    6800        .h      LDR      r0,[r0,#0]
        0x00010898:    f001f8de    ....    BL       xTimerGenericCommand ; 0x11a58
        0x0001089c:    bd38        8.      POP      {r3-r5,pc}
    $d
        0x0001089e:    0000        ..      DCW    0
        0x000108a0:    1001312c    ,1..    DCD    268513580
        0x000108a4:    0000f809    ....    DCD    63497
        0x000108a8:    74747542    Butt    DCD    1953789250
        0x000108ac:    54206e6f    on T    DCD    1411411567
        0x000108b0:    72656d69    imer    DCD    1919249769
        0x000108b4:    00000000    ....    DCD    0
        0x000108b8:    1001305c    \0..    DCD    268513372
    $t
    i.simple_strlen
    simple_strlen
        0x000108bc:    4601        .F      MOV      r1,r0
        0x000108be:    2000        .       MOVS     r0,#0
        0x000108c0:    b901        ..      CBNZ     r1,0x108c4 ; simple_strlen + 8
        0x000108c2:    4770        pG      BX       lr
        0x000108c4:    e000        ..      B        0x108c8 ; simple_strlen + 12
        0x000108c6:    1c40        @.      ADDS     r0,r0,#1
        0x000108c8:    f8113b01    ...;    LDRB     r3,[r1],#1
        0x000108cc:    2b00        .+      CMP      r3,#0
        0x000108ce:    d1fa        ..      BNE      0x108c6 ; simple_strlen + 10
        0x000108d0:    bf00        ..      NOP      
        0x000108d2:    e7f6        ..      B        0x108c2 ; simple_strlen + 6
    i.uint64_to_hexstr
    uint64_to_hexstr
        0x000108d4:    e92d41f0    -..A    PUSH     {r4-r8,lr}
        0x000108d8:    b085        ..      SUB      sp,sp,#0x14
        0x000108da:    4604        .F      MOV      r4,r0
        0x000108dc:    460d        .F      MOV      r5,r1
        0x000108de:    461e        .F      MOV      r6,r3
        0x000108e0:    2100        .!      MOVS     r1,#0
        0x000108e2:    468c        .F      MOV      r12,r1
        0x000108e4:    ea84070c    ....    EOR      r7,r4,r12
        0x000108e8:    ea850c0c    ....    EOR      r12,r5,r12
        0x000108ec:    ea57070c    W...    ORRS     r7,r7,r12
        0x000108f0:    d105        ..      BNE      0x108fe ; uint64_to_hexstr + 42
        0x000108f2:    f04f0830    O.0.    MOV      r8,#0x30
        0x000108f6:    460f        .F      MOV      r7,r1
        0x000108f8:    1c49        I.      ADDS     r1,r1,#1
        0x000108fa:    f80d8007    ....    STRB     r8,[sp,r7]
        0x000108fe:    e016        ..      B        0x1092e ; uint64_to_hexstr + 90
        0x00010900:    270f        .'      MOVS     r7,#0xf
        0x00010902:    4027        '@      ANDS     r7,r7,r4
        0x00010904:    b2fb        ..      UXTB     r3,r7
        0x00010906:    2b09        .+      CMP      r3,#9
        0x00010908:    dd05        ..      BLE      0x10916 ; uint64_to_hexstr + 66
        0x0001090a:    b10e        ..      CBZ      r6,0x10910 ; uint64_to_hexstr + 60
        0x0001090c:    2727        ''      MOVS     r7,#0x27
        0x0001090e:    e000        ..      B        0x10912 ; uint64_to_hexstr + 62
        0x00010910:    2707        .'      MOVS     r7,#7
        0x00010912:    441f        .D      ADD      r7,r7,r3
        0x00010914:    b2fb        ..      UXTB     r3,r7
        0x00010916:    f1030730    ..0.    ADD      r7,r3,#0x30
        0x0001091a:    f00708ff    ....    AND      r8,r7,#0xff
        0x0001091e:    460f        .F      MOV      r7,r1
        0x00010920:    1c49        I.      ADDS     r1,r1,#1
        0x00010922:    f80d8007    ....    STRB     r8,[sp,r7]
        0x00010926:    0927        '.      LSRS     r7,r4,#4
        0x00010928:    ea477405    G..t    ORR      r4,r7,r5,LSL #28
        0x0001092c:    092d        -.      LSRS     r5,r5,#4
        0x0001092e:    f04f0c00    O...    MOV      r12,#0
        0x00010932:    ea84070c    ....    EOR      r7,r4,r12
        0x00010936:    ea850c0c    ....    EOR      r12,r5,r12
        0x0001093a:    ea57070c    W...    ORRS     r7,r7,r12
        0x0001093e:    d1df        ..      BNE      0x10900 ; uint64_to_hexstr + 44
        0x00010940:    4608        .F      MOV      r0,r1
        0x00010942:    b14a        J.      CBZ      r2,0x10958 ; uint64_to_hexstr + 132
        0x00010944:    e003        ..      B        0x1094e ; uint64_to_hexstr + 122
        0x00010946:    f81d7001    ...p    LDRB     r7,[sp,r1]
        0x0001094a:    f8027b01    ...{    STRB     r7,[r2],#1
        0x0001094e:    1e0f        ..      SUBS     r7,r1,#0
        0x00010950:    f1a10101    ....    SUB      r1,r1,#1
        0x00010954:    d1f7        ..      BNE      0x10946 ; uint64_to_hexstr + 114
        0x00010956:    7017        .p      STRB     r7,[r2,#0]
        0x00010958:    b005        ..      ADD      sp,sp,#0x14
        0x0001095a:    e8bd81f0    ....    POP      {r4-r8,pc}
    i.uint64_to_str
    uint64_to_str
        0x0001095e:    e92d4ff0    -..O    PUSH     {r4-r11,lr}
        0x00010962:    b087        ..      SUB      sp,sp,#0x1c
        0x00010964:    4607        .F      MOV      r7,r0
        0x00010966:    4688        .F      MOV      r8,r1
        0x00010968:    4616        .F      MOV      r6,r2
        0x0001096a:    f04f0900    O...    MOV      r9,#0
        0x0001096e:    46cb        .F      MOV      r11,r9
        0x00010970:    bf00        ..      NOP      
        0x00010972:    4638        8F      MOV      r0,r7
        0x00010974:    4641        AF      MOV      r1,r8
        0x00010976:    f7fff890    ....    BL       divu64_10 ; 0xfa9a
        0x0001097a:    4604        .F      MOV      r4,r0
        0x0001097c:    460d        .F      MOV      r5,r1
        0x0001097e:    210a        .!      MOVS     r1,#0xa
        0x00010980:    fba40101    ....    UMULL    r0,r1,r4,r1
        0x00010984:    ebb70a00    ....    SUBS     r10,r7,r0
        0x00010988:    f10a0030    ..0.    ADD      r0,r10,#0x30
        0x0001098c:    b2c2        ..      UXTB     r2,r0
        0x0001098e:    4648        HF      MOV      r0,r9
        0x00010990:    f1090901    ....    ADD      r9,r9,#1
        0x00010994:    f80d2000    ...     STRB     r2,[sp,r0]
        0x00010998:    4627        'F      MOV      r7,r4
        0x0001099a:    46a8        .F      MOV      r8,r5
        0x0001099c:    f04f0200    O...    MOV      r2,#0
        0x000109a0:    ea870002    ....    EOR      r0,r7,r2
        0x000109a4:    ea880102    ....    EOR      r1,r8,r2
        0x000109a8:    4308        .C      ORRS     r0,r0,r1
        0x000109aa:    d1e2        ..      BNE      0x10972 ; uint64_to_str + 20
        0x000109ac:    46cb        .F      MOV      r11,r9
        0x000109ae:    b156        V.      CBZ      r6,0x109c6 ; uint64_to_str + 104
        0x000109b0:    e003        ..      B        0x109ba ; uint64_to_str + 92
        0x000109b2:    f81d0009    ....    LDRB     r0,[sp,r9]
        0x000109b6:    f8060b01    ....    STRB     r0,[r6],#1
        0x000109ba:    f1b90000    ....    SUBS     r0,r9,#0
        0x000109be:    f1a90901    ....    SUB      r9,r9,#1
        0x000109c2:    d1f6        ..      BNE      0x109b2 ; uint64_to_str + 84
        0x000109c4:    7030        0p      STRB     r0,[r6,#0]
        0x000109c6:    4658        XF      MOV      r0,r11
        0x000109c8:    b007        ..      ADD      sp,sp,#0x1c
        0x000109ca:    e8bd8ff0    ....    POP      {r4-r11,pc}
    i.uxListRemove
    uxListRemove
        0x000109ce:    4601        .F      MOV      r1,r0
        0x000109d0:    690a        .i      LDR      r2,[r1,#0x10]
        0x000109d2:    e9d13001    ...0    LDRD     r3,r0,[r1,#4]
        0x000109d6:    6098        .`      STR      r0,[r3,#8]
        0x000109d8:    e9d10301    ....    LDRD     r0,r3,[r1,#4]
        0x000109dc:    6058        X`      STR      r0,[r3,#4]
        0x000109de:    6850        Ph      LDR      r0,[r2,#4]
        0x000109e0:    4288        .B      CMP      r0,r1
        0x000109e2:    d101        ..      BNE      0x109e8 ; uxListRemove + 26
        0x000109e4:    6888        .h      LDR      r0,[r1,#8]
        0x000109e6:    6050        P`      STR      r0,[r2,#4]
        0x000109e8:    2000        .       MOVS     r0,#0
        0x000109ea:    6108        .a      STR      r0,[r1,#0x10]
        0x000109ec:    6810        .h      LDR      r0,[r2,#0]
        0x000109ee:    1e40        @.      SUBS     r0,r0,#1
        0x000109f0:    6010        .`      STR      r0,[r2,#0]
        0x000109f2:    6810        .h      LDR      r0,[r2,#0]
        0x000109f4:    4770        pG      BX       lr
    i.vApplicationMallocFailedHook
    vApplicationMallocFailedHook
        0x000109f6:    bf00        ..      NOP      
        0x000109f8:    e7fe        ..      B        0x109f8 ; vApplicationMallocFailedHook + 2
    i.vApplicationStackOverflowHook
    vApplicationStackOverflowHook
        0x000109fa:    e000        ..      B        0x109fe ; vApplicationStackOverflowHook + 4
        0x000109fc:    be00        ..      BKPT     #0
        0x000109fe:    e7fd        ..      B        0x109fc ; vApplicationStackOverflowHook + 2
    i.vEventGroupSetBitsCallback
    vEventGroupSetBitsCallback
        0x00010a00:    b570        p.      PUSH     {r4-r6,lr}
        0x00010a02:    4604        .F      MOV      r4,r0
        0x00010a04:    460d        .F      MOV      r5,r1
        0x00010a06:    4629        )F      MOV      r1,r5
        0x00010a08:    4620         F      MOV      r0,r4
        0x00010a0a:    f000fae1    ....    BL       xEventGroupSetBits ; 0x10fd0
        0x00010a0e:    bd70        p.      POP      {r4-r6,pc}
    i.vListInitialise
    vListInitialise
        0x00010a10:    f1000108    ....    ADD      r1,r0,#8
        0x00010a14:    6041        A`      STR      r1,[r0,#4]
        0x00010a16:    f04f31ff    O..1    MOV      r1,#0xffffffff
        0x00010a1a:    6081        .`      STR      r1,[r0,#8]
        0x00010a1c:    f1000108    ....    ADD      r1,r0,#8
        0x00010a20:    60c1        .`      STR      r1,[r0,#0xc]
        0x00010a22:    6101        .a      STR      r1,[r0,#0x10]
        0x00010a24:    2100        .!      MOVS     r1,#0
        0x00010a26:    6001        .`      STR      r1,[r0,#0]
        0x00010a28:    4770        pG      BX       lr
    i.vListInitialiseItem
    vListInitialiseItem
        0x00010a2a:    2100        .!      MOVS     r1,#0
        0x00010a2c:    6101        .a      STR      r1,[r0,#0x10]
        0x00010a2e:    4770        pG      BX       lr
    i.vListInsert
    vListInsert
        0x00010a30:    b510        ..      PUSH     {r4,lr}
        0x00010a32:    4602        .F      MOV      r2,r0
        0x00010a34:    680b        .h      LDR      r3,[r1,#0]
        0x00010a36:    1c5c        \.      ADDS     r4,r3,#1
        0x00010a38:    b90c        ..      CBNZ     r4,0x10a3e ; vListInsert + 14
        0x00010a3a:    6910        .i      LDR      r0,[r2,#0x10]
        0x00010a3c:    e007        ..      B        0x10a4e ; vListInsert + 30
        0x00010a3e:    f1020008    ....    ADD      r0,r2,#8
        0x00010a42:    e000        ..      B        0x10a46 ; vListInsert + 22
        0x00010a44:    6840        @h      LDR      r0,[r0,#4]
        0x00010a46:    6844        Dh      LDR      r4,[r0,#4]
        0x00010a48:    6824        $h      LDR      r4,[r4,#0]
        0x00010a4a:    429c        .B      CMP      r4,r3
        0x00010a4c:    d9fa        ..      BLS      0x10a44 ; vListInsert + 20
        0x00010a4e:    6844        Dh      LDR      r4,[r0,#4]
        0x00010a50:    604c        L`      STR      r4,[r1,#4]
        0x00010a52:    684c        Lh      LDR      r4,[r1,#4]
        0x00010a54:    60a1        .`      STR      r1,[r4,#8]
        0x00010a56:    6088        .`      STR      r0,[r1,#8]
        0x00010a58:    6041        A`      STR      r1,[r0,#4]
        0x00010a5a:    610a        .a      STR      r2,[r1,#0x10]
        0x00010a5c:    6814        .h      LDR      r4,[r2,#0]
        0x00010a5e:    1c64        d.      ADDS     r4,r4,#1
        0x00010a60:    6014        .`      STR      r4,[r2,#0]
        0x00010a62:    bd10        ..      POP      {r4,pc}
    i.vListInsertEnd
    vListInsertEnd
        0x00010a64:    6842        Bh      LDR      r2,[r0,#4]
        0x00010a66:    604a        J`      STR      r2,[r1,#4]
        0x00010a68:    6893        .h      LDR      r3,[r2,#8]
        0x00010a6a:    608b        .`      STR      r3,[r1,#8]
        0x00010a6c:    6893        .h      LDR      r3,[r2,#8]
        0x00010a6e:    6059        Y`      STR      r1,[r3,#4]
        0x00010a70:    6091        .`      STR      r1,[r2,#8]
        0x00010a72:    6108        .a      STR      r0,[r1,#0x10]
        0x00010a74:    6803        .h      LDR      r3,[r0,#0]
        0x00010a76:    1c5b        [.      ADDS     r3,r3,#1
        0x00010a78:    6003        .`      STR      r3,[r0,#0]
        0x00010a7a:    4770        pG      BX       lr
    i.vPortEnterCritical
    vPortEnterCritical
        0x00010a7c:    bf00        ..      NOP      
        0x00010a7e:    2080        .       MOVS     r0,#0x80
        0x00010a80:    f3808811    ....    MSR      BASEPRI,r0
        0x00010a84:    f3bf8f4f    ..O.    DSB      
        0x00010a88:    f3bf8f6f    ..o.    ISB      
        0x00010a8c:    bf00        ..      NOP      
        0x00010a8e:    480a        .H      LDR      r0,[pc,#40] ; [0x10ab8] = 0x1001301c
        0x00010a90:    6800        .h      LDR      r0,[r0,#0]
        0x00010a92:    1c40        @.      ADDS     r0,r0,#1
        0x00010a94:    4908        .I      LDR      r1,[pc,#32] ; [0x10ab8] = 0x1001301c
        0x00010a96:    6008        .`      STR      r0,[r1,#0]
        0x00010a98:    4608        .F      MOV      r0,r1
        0x00010a9a:    6800        .h      LDR      r0,[r0,#0]
        0x00010a9c:    2801        .(      CMP      r0,#1
        0x00010a9e:    d109        ..      BNE      0x10ab4 ; vPortEnterCritical + 56
        0x00010aa0:    4806        .H      LDR      r0,[pc,#24] ; [0x10abc] = 0xe000ed04
        0x00010aa2:    6800        .h      LDR      r0,[r0,#0]
        0x00010aa4:    b2c0        ..      UXTB     r0,r0
        0x00010aa6:    b908        ..      CBNZ     r0,0x10aac ; vPortEnterCritical + 48
        0x00010aa8:    2001        .       MOVS     r0,#1
        0x00010aaa:    e000        ..      B        0x10aae ; vPortEnterCritical + 50
        0x00010aac:    2000        .       MOVS     r0,#0
        0x00010aae:    b908        ..      CBNZ     r0,0x10ab4 ; vPortEnterCritical + 56
        0x00010ab0:    bf00        ..      NOP      
        0x00010ab2:    e7fe        ..      B        0x10ab2 ; vPortEnterCritical + 54
        0x00010ab4:    4770        pG      BX       lr
    $d
        0x00010ab6:    0000        ..      DCW    0
        0x00010ab8:    1001301c    .0..    DCD    268513308
        0x00010abc:    e000ed04    ....    DCD    3758157060
    $t
    i.vPortExitCritical
    vPortExitCritical
        0x00010ac0:    4809        .H      LDR      r0,[pc,#36] ; [0x10ae8] = 0x1001301c
        0x00010ac2:    6800        .h      LDR      r0,[r0,#0]
        0x00010ac4:    b908        ..      CBNZ     r0,0x10aca ; vPortExitCritical + 10
        0x00010ac6:    bf00        ..      NOP      
        0x00010ac8:    e7fe        ..      B        0x10ac8 ; vPortExitCritical + 8
        0x00010aca:    4807        .H      LDR      r0,[pc,#28] ; [0x10ae8] = 0x1001301c
        0x00010acc:    6800        .h      LDR      r0,[r0,#0]
        0x00010ace:    1e40        @.      SUBS     r0,r0,#1
        0x00010ad0:    4905        .I      LDR      r1,[pc,#20] ; [0x10ae8] = 0x1001301c
        0x00010ad2:    6008        .`      STR      r0,[r1,#0]
        0x00010ad4:    4608        .F      MOV      r0,r1
        0x00010ad6:    6800        .h      LDR      r0,[r0,#0]
        0x00010ad8:    b920         .      CBNZ     r0,0x10ae4 ; vPortExitCritical + 36
        0x00010ada:    2000        .       MOVS     r0,#0
        0x00010adc:    f3808811    ....    MSR      BASEPRI,r0
        0x00010ae0:    bf00        ..      NOP      
        0x00010ae2:    bf00        ..      NOP      
        0x00010ae4:    4770        pG      BX       lr
    $d
        0x00010ae6:    0000        ..      DCW    0
        0x00010ae8:    1001301c    .0..    DCD    268513308
    $t
    i.vPortFree
    vPortFree
        0x00010aec:    b570        p.      PUSH     {r4-r6,lr}
        0x00010aee:    4606        .F      MOV      r6,r0
        0x00010af0:    4635        5F      MOV      r5,r6
        0x00010af2:    b1b6        ..      CBZ      r6,0x10b22 ; vPortFree + 54
        0x00010af4:    3d08        .=      SUBS     r5,r5,#8
        0x00010af6:    462c        ,F      MOV      r4,r5
        0x00010af8:    f000f9ee    ....    BL       vTaskSuspendAll ; 0x10ed8
        0x00010afc:    6861        ah      LDR      r1,[r4,#4]
        0x00010afe:    4809        .H      LDR      r0,[pc,#36] ; [0x10b24] = 0x1001306c
        0x00010b00:    e000        ..      B        0x10b04 ; vPortFree + 24
        0x00010b02:    6800        .h      LDR      r0,[r0,#0]
        0x00010b04:    6802        .h      LDR      r2,[r0,#0]
        0x00010b06:    6852        Rh      LDR      r2,[r2,#4]
        0x00010b08:    428a        .B      CMP      r2,r1
        0x00010b0a:    d3fa        ..      BCC      0x10b02 ; vPortFree + 22
        0x00010b0c:    6802        .h      LDR      r2,[r0,#0]
        0x00010b0e:    6022        "`      STR      r2,[r4,#0]
        0x00010b10:    6004        .`      STR      r4,[r0,#0]
        0x00010b12:    4905        .I      LDR      r1,[pc,#20] ; [0x10b28] = 0x1001307c
        0x00010b14:    6860        `h      LDR      r0,[r4,#4]
        0x00010b16:    6809        .h      LDR      r1,[r1,#0]
        0x00010b18:    4408        .D      ADD      r0,r0,r1
        0x00010b1a:    4903        .I      LDR      r1,[pc,#12] ; [0x10b28] = 0x1001307c
        0x00010b1c:    6008        .`      STR      r0,[r1,#0]
        0x00010b1e:    f000fee9    ....    BL       xTaskResumeAll ; 0x118f4
        0x00010b22:    bd70        p.      POP      {r4-r6,pc}
    $d
        0x00010b24:    1001306c    l0..    DCD    268513388
        0x00010b28:    1001307c    |0..    DCD    268513404
    $t
    i.vPortSetupTimerInterrupt
    vPortSetupTimerInterrupt
        0x00010b2c:    b510        ..      PUSH     {r4,lr}
        0x00010b2e:    2020                MOVS     r0,#0x20
        0x00010b30:    491c        .I      LDR      r1,[pc,#112] ; [0x10ba4] = 0x10013028
        0x00010b32:    6008        .`      STR      r0,[r1,#0]
        0x00010b34:    4608        .F      MOV      r0,r1
        0x00010b36:    6800        .h      LDR      r0,[r0,#0]
        0x00010b38:    f04f31ff    O..1    MOV      r1,#0xffffffff
        0x00010b3c:    fbb1f0f0    ....    UDIV     r0,r1,r0
        0x00010b40:    1e40        @.      SUBS     r0,r0,#1
        0x00010b42:    4919        .I      LDR      r1,[pc,#100] ; [0x10ba8] = 0x1001302c
        0x00010b44:    6008        .`      STR      r0,[r1,#0]
        0x00010b46:    2003        .       MOVS     r0,#3
        0x00010b48:    f7fef9ea    ....    BL       am_hal_stimer_int_enable ; 0xef20
        0x00010b4c:    2107        .!      MOVS     r1,#7
        0x00010b4e:    2017        .       MOVS     r0,#0x17
        0x00010b50:    f7fbffae    ....    BL       __NVIC_SetPriority ; 0xcab0
        0x00010b54:    2017        .       MOVS     r0,#0x17
        0x00010b56:    f7fbff99    ....    BL       __NVIC_EnableIRQ ; 0xca8c
        0x00010b5a:    2107        .!      MOVS     r1,#7
        0x00010b5c:    2018        .       MOVS     r0,#0x18
        0x00010b5e:    f7fbffa7    ....    BL       __NVIC_SetPriority ; 0xcab0
        0x00010b62:    2018        .       MOVS     r0,#0x18
        0x00010b64:    f7fbff92    ....    BL       __NVIC_EnableIRQ ; 0xca8c
        0x00010b68:    f04f4000    O..@    MOV      r0,#0x80000000
        0x00010b6c:    f7fef9c2    ....    BL       am_hal_stimer_config ; 0xeef4
        0x00010b70:    4604        .F      MOV      r4,r0
        0x00010b72:    f7fef9c9    ....    BL       am_hal_stimer_counter_get ; 0xef08
        0x00010b76:    490d        .I      LDR      r1,[pc,#52] ; [0x10bac] = 0x10013018
        0x00010b78:    6008        .`      STR      r0,[r1,#0]
        0x00010b7a:    480a        .H      LDR      r0,[pc,#40] ; [0x10ba4] = 0x10013028
        0x00010b7c:    6801        .h      LDR      r1,[r0,#0]
        0x00010b7e:    2000        .       MOVS     r0,#0
        0x00010b80:    f7fef962    ..b.    BL       am_hal_stimer_compare_delta_set ; 0xee48
        0x00010b84:    4807        .H      LDR      r0,[pc,#28] ; [0x10ba4] = 0x10013028
        0x00010b86:    6801        .h      LDR      r1,[r0,#0]
        0x00010b88:    1c49        I.      ADDS     r1,r1,#1
        0x00010b8a:    2001        .       MOVS     r0,#1
        0x00010b8c:    f7fef95c    ..\.    BL       am_hal_stimer_compare_delta_set ; 0xee48
        0x00010b90:    4a07        .J      LDR      r2,[pc,#28] ; [0x10bb0] = 0x7ffffff0
        0x00010b92:    ea040102    ....    AND      r1,r4,r2
        0x00010b96:    1cc9        ..      ADDS     r1,r1,#3
        0x00010b98:    f4417040    A.@p    ORR      r0,r1,#0x300
        0x00010b9c:    f7fef9aa    ....    BL       am_hal_stimer_config ; 0xeef4
        0x00010ba0:    bd10        ..      POP      {r4,pc}
    $d
        0x00010ba2:    0000        ..      DCW    0
        0x00010ba4:    10013028    (0..    DCD    268513320
        0x00010ba8:    1001302c    ,0..    DCD    268513324
        0x00010bac:    10013018    .0..    DCD    268513304
        0x00010bb0:    7ffffff0    ....    DCD    2147483632
    $t
    i.vPortSuppressTicksAndSleep
    vPortSuppressTicksAndSleep
        0x00010bb4:    e92d47f0    -..G    PUSH     {r4-r10,lr}
        0x00010bb8:    4605        .F      MOV      r5,r0
        0x00010bba:    4831        1H      LDR      r0,[pc,#196] ; [0x10c80] = 0x1001302c
        0x00010bbc:    6800        .h      LDR      r0,[r0,#0]
        0x00010bbe:    4285        .B      CMP      r5,r0
        0x00010bc0:    d901        ..      BLS      0x10bc6 ; vPortSuppressTicksAndSleep + 18
        0x00010bc2:    482f        /H      LDR      r0,[pc,#188] ; [0x10c80] = 0x1001302c
        0x00010bc4:    6805        .h      LDR      r5,[r0,#0]
        0x00010bc6:    1e68        h.      SUBS     r0,r5,#1
        0x00010bc8:    492e        .I      LDR      r1,[pc,#184] ; [0x10c84] = 0x10013028
        0x00010bca:    6809        .h      LDR      r1,[r1,#0]
        0x00010bcc:    fb00f401    ....    MUL      r4,r0,r1
        0x00010bd0:    b672        r.      CPSID    i
        0x00010bd2:    f3bf8f4f    ..O.    DSB      
        0x00010bd6:    f3bf8f6f    ..o.    ISB      
        0x00010bda:    f7fef995    ....    BL       am_hal_stimer_counter_get ; 0xef08
        0x00010bde:    4682        .F      MOV      r10,r0
        0x00010be0:    4829        )H      LDR      r0,[pc,#164] ; [0x10c88] = 0x10013018
        0x00010be2:    6800        .h      LDR      r0,[r0,#0]
        0x00010be4:    ebaa0700    ....    SUB      r7,r10,r0
        0x00010be8:    f7feffbe    ....    BL       eTaskConfirmSleepModeStatus ; 0xfb68
        0x00010bec:    b120         .      CBZ      r0,0x10bf8 ; vPortSuppressTicksAndSleep + 68
        0x00010bee:    4825        %H      LDR      r0,[pc,#148] ; [0x10c84] = 0x10013028
        0x00010bf0:    6800        .h      LDR      r0,[r0,#0]
        0x00010bf2:    4438        8D      ADD      r0,r0,r7
        0x00010bf4:    42a0        .B      CMP      r0,r4
        0x00010bf6:    d901        ..      BLS      0x10bfc ; vPortSuppressTicksAndSleep + 72
        0x00010bf8:    b662        b.      CPSIE    i
        0x00010bfa:    e03f        ?.      B        0x10c7c ; vPortSuppressTicksAndSleep + 200
        0x00010bfc:    1be4        ..      SUBS     r4,r4,r7
        0x00010bfe:    4621        !F      MOV      r1,r4
        0x00010c00:    2000        .       MOVS     r0,#0
        0x00010c02:    f7fef921    ..!.    BL       am_hal_stimer_compare_delta_set ; 0xee48
        0x00010c06:    1c61        a.      ADDS     r1,r4,#1
        0x00010c08:    2001        .       MOVS     r0,#1
        0x00010c0a:    f7fef91d    ....    BL       am_hal_stimer_compare_delta_set ; 0xee48
        0x00010c0e:    462e        .F      MOV      r6,r5
        0x00010c10:    bf00        ..      NOP      
        0x00010c12:    4630        0F      MOV      r0,r6
        0x00010c14:    f7fbfffe    ....    BL       am_freertos_sleep ; 0xcc14
        0x00010c18:    4606        .F      MOV      r6,r0
        0x00010c1a:    bf00        ..      NOP      
        0x00010c1c:    b126        &.      CBZ      r6,0x10c28 ; vPortSuppressTicksAndSleep + 116
        0x00010c1e:    f3bf8f4f    ..O.    DSB      
        0x00010c22:    bf30        0.      WFI      
        0x00010c24:    f3bf8f6f    ..o.    ISB      
        0x00010c28:    4628        (F      MOV      r0,r5
        0x00010c2a:    f7fbfffa    ....    BL       am_freertos_wakeup ; 0xcc22
        0x00010c2e:    f7fef96b    ..k.    BL       am_hal_stimer_counter_get ; 0xef08
        0x00010c32:    4680        .F      MOV      r8,r0
        0x00010c34:    4814        .H      LDR      r0,[pc,#80] ; [0x10c88] = 0x10013018
        0x00010c36:    6800        .h      LDR      r0,[r0,#0]
        0x00010c38:    eba80900    ....    SUB      r9,r8,r0
        0x00010c3c:    4811        .H      LDR      r0,[pc,#68] ; [0x10c84] = 0x10013028
        0x00010c3e:    6800        .h      LDR      r0,[r0,#0]
        0x00010c40:    fbb9f1f0    ....    UDIV     r1,r9,r0
        0x00010c44:    fb009011    ....    MLS      r0,r0,r1,r9
        0x00010c48:    eba80000    ....    SUB      r0,r8,r0
        0x00010c4c:    490e        .I      LDR      r1,[pc,#56] ; [0x10c88] = 0x10013018
        0x00010c4e:    6008        .`      STR      r0,[r1,#0]
        0x00010c50:    480c        .H      LDR      r0,[pc,#48] ; [0x10c84] = 0x10013028
        0x00010c52:    6800        .h      LDR      r0,[r0,#0]
        0x00010c54:    fbb9f9f0    ....    UDIV     r9,r9,r0
        0x00010c58:    4648        HF      MOV      r0,r9
        0x00010c5a:    f000f925    ..%.    BL       vTaskStepTick ; 0x10ea8
        0x00010c5e:    2003        .       MOVS     r0,#3
        0x00010c60:    f7fef958    ..X.    BL       am_hal_stimer_int_clear ; 0xef14
        0x00010c64:    4807        .H      LDR      r0,[pc,#28] ; [0x10c84] = 0x10013028
        0x00010c66:    6801        .h      LDR      r1,[r0,#0]
        0x00010c68:    2000        .       MOVS     r0,#0
        0x00010c6a:    f7fef8ed    ....    BL       am_hal_stimer_compare_delta_set ; 0xee48
        0x00010c6e:    4805        .H      LDR      r0,[pc,#20] ; [0x10c84] = 0x10013028
        0x00010c70:    6801        .h      LDR      r1,[r0,#0]
        0x00010c72:    1c49        I.      ADDS     r1,r1,#1
        0x00010c74:    2001        .       MOVS     r0,#1
        0x00010c76:    f7fef8e7    ....    BL       am_hal_stimer_compare_delta_set ; 0xee48
        0x00010c7a:    b662        b.      CPSIE    i
        0x00010c7c:    e8bd87f0    ....    POP      {r4-r10,pc}
    $d
        0x00010c80:    1001302c    ,0..    DCD    268513324
        0x00010c84:    10013028    (0..    DCD    268513320
        0x00010c88:    10013018    .0..    DCD    268513304
    $t
    i.vPortValidateInterruptPriority
    vPortValidateInterruptPriority
        0x00010c8c:    b570        p.      PUSH     {r4-r6,lr}
        0x00010c8e:    f7fbfb1f    ....    BL       vPortGetIPSR ; 0xc2d0
        0x00010c92:    4605        .F      MOV      r5,r0
        0x00010c94:    2d10        .-      CMP      r5,#0x10
        0x00010c96:    d30d        ..      BCC      0x10cb4 ; vPortValidateInterruptPriority + 40
        0x00010c98:    f10520e0    ...     ADD      r0,r5,#0xe000e000
        0x00010c9c:    f89043f0    ...C    LDRB     r4,[r0,#0x3f0]
        0x00010ca0:    480c        .H      LDR      r0,[pc,#48] ; [0x10cd4] = 0x10013020
        0x00010ca2:    7800        .x      LDRB     r0,[r0,#0]
        0x00010ca4:    4284        .B      CMP      r4,r0
        0x00010ca6:    db01        ..      BLT      0x10cac ; vPortValidateInterruptPriority + 32
        0x00010ca8:    2001        .       MOVS     r0,#1
        0x00010caa:    e000        ..      B        0x10cae ; vPortValidateInterruptPriority + 34
        0x00010cac:    2000        .       MOVS     r0,#0
        0x00010cae:    b908        ..      CBNZ     r0,0x10cb4 ; vPortValidateInterruptPriority + 40
        0x00010cb0:    bf00        ..      NOP      
        0x00010cb2:    e7fe        ..      B        0x10cb2 ; vPortValidateInterruptPriority + 38
        0x00010cb4:    4808        .H      LDR      r0,[pc,#32] ; [0x10cd8] = 0xe000ed0c
        0x00010cb6:    6800        .h      LDR      r0,[r0,#0]
        0x00010cb8:    f40060e0    ...`    AND      r0,r0,#0x700
        0x00010cbc:    4907        .I      LDR      r1,[pc,#28] ; [0x10cdc] = 0x10013024
        0x00010cbe:    6809        .h      LDR      r1,[r1,#0]
        0x00010cc0:    4288        .B      CMP      r0,r1
        0x00010cc2:    d801        ..      BHI      0x10cc8 ; vPortValidateInterruptPriority + 60
        0x00010cc4:    2001        .       MOVS     r0,#1
        0x00010cc6:    e000        ..      B        0x10cca ; vPortValidateInterruptPriority + 62
        0x00010cc8:    2000        .       MOVS     r0,#0
        0x00010cca:    b908        ..      CBNZ     r0,0x10cd0 ; vPortValidateInterruptPriority + 68
        0x00010ccc:    bf00        ..      NOP      
        0x00010cce:    e7fe        ..      B        0x10cce ; vPortValidateInterruptPriority + 66
        0x00010cd0:    bd70        p.      POP      {r4-r6,pc}
    $d
        0x00010cd2:    0000        ..      DCW    0
        0x00010cd4:    10013020     0..    DCD    268513312
        0x00010cd8:    e000ed0c    ....    DCD    3758157068
        0x00010cdc:    10013024    $0..    DCD    268513316
    $t
    i.vQueueWaitForMessageRestricted
    vQueueWaitForMessageRestricted
        0x00010ce0:    e92d41f0    -..A    PUSH     {r4-r8,lr}
        0x00010ce4:    4605        .F      MOV      r5,r0
        0x00010ce6:    460e        .F      MOV      r6,r1
        0x00010ce8:    4617        .F      MOV      r7,r2
        0x00010cea:    462c        ,F      MOV      r4,r5
        0x00010cec:    f7fffec6    ....    BL       vPortEnterCritical ; 0x10a7c
        0x00010cf0:    f9940044    ..D.    LDRSB    r0,[r4,#0x44]
        0x00010cf4:    1c40        @.      ADDS     r0,r0,#1
        0x00010cf6:    b910        ..      CBNZ     r0,0x10cfe ; vQueueWaitForMessageRestricted + 30
        0x00010cf8:    2000        .       MOVS     r0,#0
        0x00010cfa:    f8840044    ..D.    STRB     r0,[r4,#0x44]
        0x00010cfe:    f9940045    ..E.    LDRSB    r0,[r4,#0x45]
        0x00010d02:    1c40        @.      ADDS     r0,r0,#1
        0x00010d04:    b910        ..      CBNZ     r0,0x10d0c ; vQueueWaitForMessageRestricted + 44
        0x00010d06:    2000        .       MOVS     r0,#0
        0x00010d08:    f8840045    ..E.    STRB     r0,[r4,#0x45]
        0x00010d0c:    f7fffed8    ....    BL       vPortExitCritical ; 0x10ac0
        0x00010d10:    6ba0        .k      LDR      r0,[r4,#0x38]
        0x00010d12:    b928        (.      CBNZ     r0,0x10d20 ; vQueueWaitForMessageRestricted + 64
        0x00010d14:    463a        :F      MOV      r2,r7
        0x00010d16:    4631        1F      MOV      r1,r6
        0x00010d18:    f1040024    ..$.    ADD      r0,r4,#0x24
        0x00010d1c:    f000f82c    ..,.    BL       vTaskPlaceOnEventListRestricted ; 0x10d78
        0x00010d20:    4620         F      MOV      r0,r4
        0x00010d22:    f7fffce8    ....    BL       prvUnlockQueue ; 0x106f6
        0x00010d26:    e8bd81f0    ....    POP      {r4-r8,pc}
        0x00010d2a:    0000        ..      MOVS     r0,r0
    i.vTaskInternalSetTimeOutState
    vTaskInternalSetTimeOutState
        0x00010d2c:    4903        .I      LDR      r1,[pc,#12] ; [0x10d3c] = 0x100130a8
        0x00010d2e:    6809        .h      LDR      r1,[r1,#0]
        0x00010d30:    6001        .`      STR      r1,[r0,#0]
        0x00010d32:    4903        .I      LDR      r1,[pc,#12] ; [0x10d40] = 0x10013094
        0x00010d34:    6809        .h      LDR      r1,[r1,#0]
        0x00010d36:    6041        A`      STR      r1,[r0,#4]
        0x00010d38:    4770        pG      BX       lr
    $d
        0x00010d3a:    0000        ..      DCW    0
        0x00010d3c:    100130a8    .0..    DCD    268513448
        0x00010d40:    10013094    .0..    DCD    268513428
    $t
    i.vTaskMissedYield
    vTaskMissedYield
        0x00010d44:    2001        .       MOVS     r0,#1
        0x00010d46:    4901        .I      LDR      r1,[pc,#4] ; [0x10d4c] = 0x100130a4
        0x00010d48:    6008        .`      STR      r0,[r1,#0]
        0x00010d4a:    4770        pG      BX       lr
    $d
        0x00010d4c:    100130a4    .0..    DCD    268513444
    $t
    i.vTaskPlaceOnEventList
    vTaskPlaceOnEventList
        0x00010d50:    b570        p.      PUSH     {r4-r6,lr}
        0x00010d52:    4604        .F      MOV      r4,r0
        0x00010d54:    460d        .F      MOV      r5,r1
        0x00010d56:    b90c        ..      CBNZ     r4,0x10d5c ; vTaskPlaceOnEventList + 12
        0x00010d58:    bf00        ..      NOP      
        0x00010d5a:    e7fe        ..      B        0x10d5a ; vTaskPlaceOnEventList + 10
        0x00010d5c:    4805        .H      LDR      r0,[pc,#20] ; [0x10d74] = 0x10013084
        0x00010d5e:    6801        .h      LDR      r1,[r0,#0]
        0x00010d60:    3118        .1      ADDS     r1,r1,#0x18
        0x00010d62:    4620         F      MOV      r0,r4
        0x00010d64:    f7fffe64    ..d.    BL       vListInsert ; 0x10a30
        0x00010d68:    2101        .!      MOVS     r1,#1
        0x00010d6a:    4628        (F      MOV      r0,r5
        0x00010d6c:    f7fff8c6    ....    BL       prvAddCurrentTaskToDelayedList ; 0xfefc
        0x00010d70:    bd70        p.      POP      {r4-r6,pc}
    $d
        0x00010d72:    0000        ..      DCW    0
        0x00010d74:    10013084    .0..    DCD    268513412
    $t
    i.vTaskPlaceOnEventListRestricted
    vTaskPlaceOnEventListRestricted
        0x00010d78:    b570        p.      PUSH     {r4-r6,lr}
        0x00010d7a:    4605        .F      MOV      r5,r0
        0x00010d7c:    460e        .F      MOV      r6,r1
        0x00010d7e:    4614        .F      MOV      r4,r2
        0x00010d80:    b90d        ..      CBNZ     r5,0x10d86 ; vTaskPlaceOnEventListRestricted + 14
        0x00010d82:    bf00        ..      NOP      
        0x00010d84:    e7fe        ..      B        0x10d84 ; vTaskPlaceOnEventListRestricted + 12
        0x00010d86:    4807        .H      LDR      r0,[pc,#28] ; [0x10da4] = 0x10013084
        0x00010d88:    6801        .h      LDR      r1,[r0,#0]
        0x00010d8a:    3118        .1      ADDS     r1,r1,#0x18
        0x00010d8c:    4628        (F      MOV      r0,r5
        0x00010d8e:    f7fffe69    ..i.    BL       vListInsertEnd ; 0x10a64
        0x00010d92:    b10c        ..      CBZ      r4,0x10d98 ; vTaskPlaceOnEventListRestricted + 32
        0x00010d94:    f04f36ff    O..6    MOV      r6,#0xffffffff
        0x00010d98:    4621        !F      MOV      r1,r4
        0x00010d9a:    4630        0F      MOV      r0,r6
        0x00010d9c:    f7fff8ae    ....    BL       prvAddCurrentTaskToDelayedList ; 0xfefc
        0x00010da0:    bd70        p.      POP      {r4-r6,pc}
    $d
        0x00010da2:    0000        ..      DCW    0
        0x00010da4:    10013084    .0..    DCD    268513412
    $t
    i.vTaskRemoveFromUnorderedEventList
    vTaskRemoveFromUnorderedEventList
        0x00010da8:    b570        p.      PUSH     {r4-r6,lr}
        0x00010daa:    4605        .F      MOV      r5,r0
        0x00010dac:    460e        .F      MOV      r6,r1
        0x00010dae:    4818        .H      LDR      r0,[pc,#96] ; [0x10e10] = 0x100130b8
        0x00010db0:    6800        .h      LDR      r0,[r0,#0]
        0x00010db2:    b108        ..      CBZ      r0,0x10db8 ; vTaskRemoveFromUnorderedEventList + 16
        0x00010db4:    2001        .       MOVS     r0,#1
        0x00010db6:    e000        ..      B        0x10dba ; vTaskRemoveFromUnorderedEventList + 18
        0x00010db8:    2000        .       MOVS     r0,#0
        0x00010dba:    b908        ..      CBNZ     r0,0x10dc0 ; vTaskRemoveFromUnorderedEventList + 24
        0x00010dbc:    bf00        ..      NOP      
        0x00010dbe:    e7fe        ..      B        0x10dbe ; vTaskRemoveFromUnorderedEventList + 22
        0x00010dc0:    f0464000    F..@    ORR      r0,r6,#0x80000000
        0x00010dc4:    6028        (`      STR      r0,[r5,#0]
        0x00010dc6:    68ec        .h      LDR      r4,[r5,#0xc]
        0x00010dc8:    b90c        ..      CBNZ     r4,0x10dce ; vTaskRemoveFromUnorderedEventList + 38
        0x00010dca:    bf00        ..      NOP      
        0x00010dcc:    e7fe        ..      B        0x10dcc ; vTaskRemoveFromUnorderedEventList + 36
        0x00010dce:    4628        (F      MOV      r0,r5
        0x00010dd0:    f7fffdfd    ....    BL       uxListRemove ; 0x109ce
        0x00010dd4:    1d20         .      ADDS     r0,r4,#4
        0x00010dd6:    f7fffdfa    ....    BL       uxListRemove ; 0x109ce
        0x00010dda:    490e        .I      LDR      r1,[pc,#56] ; [0x10e14] = 0x10013098
        0x00010ddc:    6ae0        .j      LDR      r0,[r4,#0x2c]
        0x00010dde:    6809        .h      LDR      r1,[r1,#0]
        0x00010de0:    4288        .B      CMP      r0,r1
        0x00010de2:    d902        ..      BLS      0x10dea ; vTaskRemoveFromUnorderedEventList + 66
        0x00010de4:    490b        .I      LDR      r1,[pc,#44] ; [0x10e14] = 0x10013098
        0x00010de6:    6ae0        .j      LDR      r0,[r4,#0x2c]
        0x00010de8:    6008        .`      STR      r0,[r1,#0]
        0x00010dea:    6ae1        .j      LDR      r1,[r4,#0x2c]
        0x00010dec:    eb010181    ....    ADD      r1,r1,r1,LSL #2
        0x00010df0:    4a09        .J      LDR      r2,[pc,#36] ; [0x10e18] = 0x10018360
        0x00010df2:    eb020081    ....    ADD      r0,r2,r1,LSL #2
        0x00010df6:    1d21        !.      ADDS     r1,r4,#4
        0x00010df8:    f7fffe34    ..4.    BL       vListInsertEnd ; 0x10a64
        0x00010dfc:    4907        .I      LDR      r1,[pc,#28] ; [0x10e1c] = 0x10013084
        0x00010dfe:    6ae0        .j      LDR      r0,[r4,#0x2c]
        0x00010e00:    6809        .h      LDR      r1,[r1,#0]
        0x00010e02:    6ac9        .j      LDR      r1,[r1,#0x2c]
        0x00010e04:    4288        .B      CMP      r0,r1
        0x00010e06:    d902        ..      BLS      0x10e0e ; vTaskRemoveFromUnorderedEventList + 102
        0x00010e08:    2001        .       MOVS     r0,#1
        0x00010e0a:    4905        .I      LDR      r1,[pc,#20] ; [0x10e20] = 0x100130a4
        0x00010e0c:    6008        .`      STR      r0,[r1,#0]
        0x00010e0e:    bd70        p.      POP      {r4-r6,pc}
    $d
        0x00010e10:    100130b8    .0..    DCD    268513464
        0x00010e14:    10013098    .0..    DCD    268513432
        0x00010e18:    10018360    `...    DCD    268534624
        0x00010e1c:    10013084    .0..    DCD    268513412
        0x00010e20:    100130a4    .0..    DCD    268513444
    $t
    i.vTaskStartScheduler
    vTaskStartScheduler
        0x00010e24:    b51c        ..      PUSH     {r2-r4,lr}
        0x00010e26:    4819        .H      LDR      r0,[pc,#100] ; [0x10e8c] = 0x100130b4
        0x00010e28:    2100        .!      MOVS     r1,#0
        0x00010e2a:    460b        .F      MOV      r3,r1
        0x00010e2c:    f44f7280    O..r    MOV      r2,#0x100
        0x00010e30:    e9cd1000    ....    STRD     r1,r0,[sp,#0]
        0x00010e34:    a116        ..      ADR      r1,{pc}+0x5c ; 0x10e90
        0x00010e36:    4818        .H      LDR      r0,[pc,#96] ; [0x10e98] = 0x101b5
        0x00010e38:    f000fc46    ..F.    BL       xTaskCreate ; 0x116c8
        0x00010e3c:    4604        .F      MOV      r4,r0
        0x00010e3e:    2c01        .,      CMP      r4,#1
        0x00010e40:    d102        ..      BNE      0x10e48 ; vTaskStartScheduler + 36
        0x00010e42:    f000fde7    ....    BL       xTimerCreateTimerTask ; 0x11a14
        0x00010e46:    4604        .F      MOV      r4,r0
        0x00010e48:    2c01        .,      CMP      r4,#1
        0x00010e4a:    d115        ..      BNE      0x10e78 ; vTaskStartScheduler + 84
        0x00010e4c:    bf00        ..      NOP      
        0x00010e4e:    2080        .       MOVS     r0,#0x80
        0x00010e50:    f3808811    ....    MSR      BASEPRI,r0
        0x00010e54:    f3bf8f4f    ..O.    DSB      
        0x00010e58:    f3bf8f6f    ..o.    ISB      
        0x00010e5c:    bf00        ..      NOP      
        0x00010e5e:    f04f30ff    O..0    MOV      r0,#0xffffffff
        0x00010e62:    490e        .I      LDR      r1,[pc,#56] ; [0x10e9c] = 0x100130b0
        0x00010e64:    6008        .`      STR      r0,[r1,#0]
        0x00010e66:    2001        .       MOVS     r0,#1
        0x00010e68:    490d        .I      LDR      r1,[pc,#52] ; [0x10ea0] = 0x1001309c
        0x00010e6a:    6008        .`      STR      r0,[r1,#0]
        0x00010e6c:    2000        .       MOVS     r0,#0
        0x00010e6e:    490d        .I      LDR      r1,[pc,#52] ; [0x10ea4] = 0x10013094
        0x00010e70:    6008        .`      STR      r0,[r1,#0]
        0x00010e72:    f000f903    ....    BL       xPortStartScheduler ; 0x1107c
        0x00010e76:    e007        ..      B        0x10e88 ; vTaskStartScheduler + 100
        0x00010e78:    1c60        `.      ADDS     r0,r4,#1
        0x00010e7a:    b108        ..      CBZ      r0,0x10e80 ; vTaskStartScheduler + 92
        0x00010e7c:    2001        .       MOVS     r0,#1
        0x00010e7e:    e000        ..      B        0x10e82 ; vTaskStartScheduler + 94
        0x00010e80:    2000        .       MOVS     r0,#0
        0x00010e82:    b908        ..      CBNZ     r0,0x10e88 ; vTaskStartScheduler + 100
        0x00010e84:    bf00        ..      NOP      
        0x00010e86:    e7fe        ..      B        0x10e86 ; vTaskStartScheduler + 98
        0x00010e88:    bd1c        ..      POP      {r2-r4,pc}
    $d
        0x00010e8a:    0000        ..      DCW    0
        0x00010e8c:    100130b4    .0..    DCD    268513460
        0x00010e90:    454c4449    IDLE    DCD    1162626121
        0x00010e94:    00000000    ....    DCD    0
        0x00010e98:    000101b5    ....    DCD    65973
        0x00010e9c:    100130b0    .0..    DCD    268513456
        0x00010ea0:    1001309c    .0..    DCD    268513436
        0x00010ea4:    10013094    .0..    DCD    268513428
    $t
    i.vTaskStepTick
    vTaskStepTick
        0x00010ea8:    4909        .I      LDR      r1,[pc,#36] ; [0x10ed0] = 0x10013094
        0x00010eaa:    6809        .h      LDR      r1,[r1,#0]
        0x00010eac:    4401        .D      ADD      r1,r1,r0
        0x00010eae:    4a09        .J      LDR      r2,[pc,#36] ; [0x10ed4] = 0x100130b0
        0x00010eb0:    6812        .h      LDR      r2,[r2,#0]
        0x00010eb2:    4291        .B      CMP      r1,r2
        0x00010eb4:    d801        ..      BHI      0x10eba ; vTaskStepTick + 18
        0x00010eb6:    2101        .!      MOVS     r1,#1
        0x00010eb8:    e000        ..      B        0x10ebc ; vTaskStepTick + 20
        0x00010eba:    2100        .!      MOVS     r1,#0
        0x00010ebc:    b909        ..      CBNZ     r1,0x10ec2 ; vTaskStepTick + 26
        0x00010ebe:    bf00        ..      NOP      
        0x00010ec0:    e7fe        ..      B        0x10ec0 ; vTaskStepTick + 24
        0x00010ec2:    4903        .I      LDR      r1,[pc,#12] ; [0x10ed0] = 0x10013094
        0x00010ec4:    6809        .h      LDR      r1,[r1,#0]
        0x00010ec6:    4401        .D      ADD      r1,r1,r0
        0x00010ec8:    4a01        .J      LDR      r2,[pc,#4] ; [0x10ed0] = 0x10013094
        0x00010eca:    6011        .`      STR      r1,[r2,#0]
        0x00010ecc:    4770        pG      BX       lr
    $d
        0x00010ece:    0000        ..      DCW    0
        0x00010ed0:    10013094    .0..    DCD    268513428
        0x00010ed4:    100130b0    .0..    DCD    268513456
    $t
    i.vTaskSuspendAll
    vTaskSuspendAll
        0x00010ed8:    4802        .H      LDR      r0,[pc,#8] ; [0x10ee4] = 0x100130b8
        0x00010eda:    6800        .h      LDR      r0,[r0,#0]
        0x00010edc:    1c40        @.      ADDS     r0,r0,#1
        0x00010ede:    4901        .I      LDR      r1,[pc,#4] ; [0x10ee4] = 0x100130b8
        0x00010ee0:    6008        .`      STR      r0,[r1,#0]
        0x00010ee2:    4770        pG      BX       lr
    $d
        0x00010ee4:    100130b8    .0..    DCD    268513464
    $t
    i.vTaskSwitchContext
    vTaskSwitchContext
        0x00010ee8:    b570        p.      PUSH     {r4-r6,lr}
        0x00010eea:    4827        'H      LDR      r0,[pc,#156] ; [0x10f88] = 0x100130b8
        0x00010eec:    6800        .h      LDR      r0,[r0,#0]
        0x00010eee:    b118        ..      CBZ      r0,0x10ef8 ; vTaskSwitchContext + 16
        0x00010ef0:    2001        .       MOVS     r0,#1
        0x00010ef2:    4926        &I      LDR      r1,[pc,#152] ; [0x10f8c] = 0x100130a4
        0x00010ef4:    6008        .`      STR      r0,[r1,#0]
        0x00010ef6:    e046        F.      B        0x10f86 ; vTaskSwitchContext + 158
        0x00010ef8:    2000        .       MOVS     r0,#0
        0x00010efa:    4924        $I      LDR      r1,[pc,#144] ; [0x10f8c] = 0x100130a4
        0x00010efc:    6008        .`      STR      r0,[r1,#0]
        0x00010efe:    4824        $H      LDR      r0,[pc,#144] ; [0x10f90] = 0x10013084
        0x00010f00:    6800        .h      LDR      r0,[r0,#0]
        0x00010f02:    6b04        .k      LDR      r4,[r0,#0x30]
        0x00010f04:    f04f35a5    O..5    MOV      r5,#0xa5a5a5a5
        0x00010f08:    6820         h      LDR      r0,[r4,#0]
        0x00010f0a:    f1b03fa5    ...?    CMP      r0,#0xa5a5a5a5
        0x00010f0e:    d10b        ..      BNE      0x10f28 ; vTaskSwitchContext + 64
        0x00010f10:    6860        `h      LDR      r0,[r4,#4]
        0x00010f12:    f1b03fa5    ...?    CMP      r0,#0xa5a5a5a5
        0x00010f16:    d107        ..      BNE      0x10f28 ; vTaskSwitchContext + 64
        0x00010f18:    68a0        .h      LDR      r0,[r4,#8]
        0x00010f1a:    f1b03fa5    ...?    CMP      r0,#0xa5a5a5a5
        0x00010f1e:    d103        ..      BNE      0x10f28 ; vTaskSwitchContext + 64
        0x00010f20:    68e0        .h      LDR      r0,[r4,#0xc]
        0x00010f22:    f1b03fa5    ...?    CMP      r0,#0xa5a5a5a5
        0x00010f26:    d005        ..      BEQ      0x10f34 ; vTaskSwitchContext + 76
        0x00010f28:    4819        .H      LDR      r0,[pc,#100] ; [0x10f90] = 0x10013084
        0x00010f2a:    6801        .h      LDR      r1,[r0,#0]
        0x00010f2c:    3134        41      ADDS     r1,r1,#0x34
        0x00010f2e:    6800        .h      LDR      r0,[r0,#0]
        0x00010f30:    f7fffd63    ..c.    BL       vApplicationStackOverflowHook ; 0x109fa
        0x00010f34:    4817        .H      LDR      r0,[pc,#92] ; [0x10f94] = 0x10013098
        0x00010f36:    6801        .h      LDR      r1,[r0,#0]
        0x00010f38:    e003        ..      B        0x10f42 ; vTaskSwitchContext + 90
        0x00010f3a:    b909        ..      CBNZ     r1,0x10f40 ; vTaskSwitchContext + 88
        0x00010f3c:    bf00        ..      NOP      
        0x00010f3e:    e7fe        ..      B        0x10f3e ; vTaskSwitchContext + 86
        0x00010f40:    1e49        I.      SUBS     r1,r1,#1
        0x00010f42:    eb010081    ....    ADD      r0,r1,r1,LSL #2
        0x00010f46:    4a14        .J      LDR      r2,[pc,#80] ; [0x10f98] = 0x10018360
        0x00010f48:    f8520020    R. .    LDR      r0,[r2,r0,LSL #2]
        0x00010f4c:    b908        ..      CBNZ     r0,0x10f52 ; vTaskSwitchContext + 106
        0x00010f4e:    2001        .       MOVS     r0,#1
        0x00010f50:    e000        ..      B        0x10f54 ; vTaskSwitchContext + 108
        0x00010f52:    2000        .       MOVS     r0,#0
        0x00010f54:    2800        .(      CMP      r0,#0
        0x00010f56:    d1f0        ..      BNE      0x10f3a ; vTaskSwitchContext + 82
        0x00010f58:    eb010281    ....    ADD      r2,r1,r1,LSL #2
        0x00010f5c:    4b0e        .K      LDR      r3,[pc,#56] ; [0x10f98] = 0x10018360
        0x00010f5e:    eb030082    ....    ADD      r0,r3,r2,LSL #2
        0x00010f62:    6842        Bh      LDR      r2,[r0,#4]
        0x00010f64:    6852        Rh      LDR      r2,[r2,#4]
        0x00010f66:    6042        B`      STR      r2,[r0,#4]
        0x00010f68:    f1000208    ....    ADD      r2,r0,#8
        0x00010f6c:    6843        Ch      LDR      r3,[r0,#4]
        0x00010f6e:    4293        .B      CMP      r3,r2
        0x00010f70:    d102        ..      BNE      0x10f78 ; vTaskSwitchContext + 144
        0x00010f72:    6842        Bh      LDR      r2,[r0,#4]
        0x00010f74:    6852        Rh      LDR      r2,[r2,#4]
        0x00010f76:    6042        B`      STR      r2,[r0,#4]
        0x00010f78:    6842        Bh      LDR      r2,[r0,#4]
        0x00010f7a:    68d2        .h      LDR      r2,[r2,#0xc]
        0x00010f7c:    4b04        .K      LDR      r3,[pc,#16] ; [0x10f90] = 0x10013084
        0x00010f7e:    601a        .`      STR      r2,[r3,#0]
        0x00010f80:    4804        .H      LDR      r0,[pc,#16] ; [0x10f94] = 0x10013098
        0x00010f82:    6001        .`      STR      r1,[r0,#0]
        0x00010f84:    bf00        ..      NOP      
        0x00010f86:    bd70        p.      POP      {r4-r6,pc}
    $d
        0x00010f88:    100130b8    .0..    DCD    268513464
        0x00010f8c:    100130a4    .0..    DCD    268513444
        0x00010f90:    10013084    .0..    DCD    268513412
        0x00010f94:    10013098    .0..    DCD    268513432
        0x00010f98:    10018360    `...    DCD    268534624
    $t
    i.wsfTimerRemove
    wsfTimerRemove
        0x00010f9c:    b570        p.      PUSH     {r4-r6,lr}
        0x00010f9e:    4605        .F      MOV      r5,r0
        0x00010fa0:    2600        .&      MOVS     r6,#0
        0x00010fa2:    480a        .H      LDR      r0,[pc,#40] ; [0x10fcc] = 0x10013008
        0x00010fa4:    6804        .h      LDR      r4,[r0,#0]
        0x00010fa6:    e004        ..      B        0x10fb2 ; wsfTimerRemove + 22
        0x00010fa8:    42ac        .B      CMP      r4,r5
        0x00010faa:    d100        ..      BNE      0x10fae ; wsfTimerRemove + 18
        0x00010fac:    e003        ..      B        0x10fb6 ; wsfTimerRemove + 26
        0x00010fae:    4626        &F      MOV      r6,r4
        0x00010fb0:    6824        $h      LDR      r4,[r4,#0]
        0x00010fb2:    2c00        .,      CMP      r4,#0
        0x00010fb4:    d1f8        ..      BNE      0x10fa8 ; wsfTimerRemove + 12
        0x00010fb6:    bf00        ..      NOP      
        0x00010fb8:    b134        4.      CBZ      r4,0x10fc8 ; wsfTimerRemove + 44
        0x00010fba:    4632        2F      MOV      r2,r6
        0x00010fbc:    4629        )F      MOV      r1,r5
        0x00010fbe:    4803        .H      LDR      r0,[pc,#12] ; [0x10fcc] = 0x10013008
        0x00010fc0:    f7fbfce2    ....    BL       WsfQueueRemove ; 0xc988
        0x00010fc4:    2000        .       MOVS     r0,#0
        0x00010fc6:    7268        hr      STRB     r0,[r5,#9]
        0x00010fc8:    bd70        p.      POP      {r4-r6,pc}
    $d
        0x00010fca:    0000        ..      DCW    0
        0x00010fcc:    10013008    .0..    DCD    268513288
    $t
    i.xEventGroupSetBits
    xEventGroupSetBits
        0x00010fd0:    e92d4ffe    -..O    PUSH     {r1-r11,lr}
        0x00010fd4:    4607        .F      MOV      r7,r0
        0x00010fd6:    4688        .F      MOV      r8,r1
        0x00010fd8:    2000        .       MOVS     r0,#0
        0x00010fda:    9001        ..      STR      r0,[sp,#4]
        0x00010fdc:    463c        <F      MOV      r4,r7
        0x00010fde:    9000        ..      STR      r0,[sp,#0]
        0x00010fe0:    b90f        ..      CBNZ     r7,0x10fe6 ; xEventGroupSetBits + 22
        0x00010fe2:    bf00        ..      NOP      
        0x00010fe4:    e7fe        ..      B        0x10fe4 ; xEventGroupSetBits + 20
        0x00010fe6:    f008407f    ...@    AND      r0,r8,#0xff000000
        0x00010fea:    b908        ..      CBNZ     r0,0x10ff0 ; xEventGroupSetBits + 32
        0x00010fec:    2001        .       MOVS     r0,#1
        0x00010fee:    e000        ..      B        0x10ff2 ; xEventGroupSetBits + 34
        0x00010ff0:    2000        .       MOVS     r0,#0
        0x00010ff2:    b908        ..      CBNZ     r0,0x10ff8 ; xEventGroupSetBits + 40
        0x00010ff4:    bf00        ..      NOP      
        0x00010ff6:    e7fe        ..      B        0x10ff6 ; xEventGroupSetBits + 38
        0x00010ff8:    f1040904    ....    ADD      r9,r4,#4
        0x00010ffc:    f1090008    ....    ADD      r0,r9,#8
        0x00011000:    9002        ..      STR      r0,[sp,#8]
        0x00011002:    f7ffff69    ..i.    BL       vTaskSuspendAll ; 0x10ed8
        0x00011006:    f8d9600c    ...`    LDR      r6,[r9,#0xc]
        0x0001100a:    6820         h      LDR      r0,[r4,#0]
        0x0001100c:    ea400008    @...    ORR      r0,r0,r8
        0x00011010:    6020         `      STR      r0,[r4,#0]
        0x00011012:    e026        &.      B        0x11062 ; xEventGroupSetBits + 146
        0x00011014:    f8d6b004    ....    LDR      r11,[r6,#4]
        0x00011018:    6835        5h      LDR      r5,[r6,#0]
        0x0001101a:    2000        .       MOVS     r0,#0
        0x0001101c:    9000        ..      STR      r0,[sp,#0]
        0x0001101e:    f0054a7f    ...J    AND      r10,r5,#0xff000000
        0x00011022:    f025457f    %..E    BIC      r5,r5,#0xff000000
        0x00011026:    f00a6080    ...`    AND      r0,r10,#0x4000000
        0x0001102a:    b928        (.      CBNZ     r0,0x11038 ; xEventGroupSetBits + 104
        0x0001102c:    6820         h      LDR      r0,[r4,#0]
        0x0001102e:    4028        (@      ANDS     r0,r0,r5
        0x00011030:    b140        @.      CBZ      r0,0x11044 ; xEventGroupSetBits + 116
        0x00011032:    2001        .       MOVS     r0,#1
        0x00011034:    9000        ..      STR      r0,[sp,#0]
        0x00011036:    e005        ..      B        0x11044 ; xEventGroupSetBits + 116
        0x00011038:    6820         h      LDR      r0,[r4,#0]
        0x0001103a:    4028        (@      ANDS     r0,r0,r5
        0x0001103c:    42a8        .B      CMP      r0,r5
        0x0001103e:    d101        ..      BNE      0x11044 ; xEventGroupSetBits + 116
        0x00011040:    2001        .       MOVS     r0,#1
        0x00011042:    9000        ..      STR      r0,[sp,#0]
        0x00011044:    9800        ..      LDR      r0,[sp,#0]
        0x00011046:    b158        X.      CBZ      r0,0x11060 ; xEventGroupSetBits + 144
        0x00011048:    f00a7080    ...p    AND      r0,r10,#0x1000000
        0x0001104c:    b110        ..      CBZ      r0,0x11054 ; xEventGroupSetBits + 132
        0x0001104e:    9801        ..      LDR      r0,[sp,#4]
        0x00011050:    4328        (C      ORRS     r0,r0,r5
        0x00011052:    9001        ..      STR      r0,[sp,#4]
        0x00011054:    6820         h      LDR      r0,[r4,#0]
        0x00011056:    f0407100    @..q    ORR      r1,r0,#0x2000000
        0x0001105a:    4630        0F      MOV      r0,r6
        0x0001105c:    f7fffea4    ....    BL       vTaskRemoveFromUnorderedEventList ; 0x10da8
        0x00011060:    465e        ^F      MOV      r6,r11
        0x00011062:    9802        ..      LDR      r0,[sp,#8]
        0x00011064:    4286        .B      CMP      r6,r0
        0x00011066:    d1d5        ..      BNE      0x11014 ; xEventGroupSetBits + 68
        0x00011068:    6820         h      LDR      r0,[r4,#0]
        0x0001106a:    9901        ..      LDR      r1,[sp,#4]
        0x0001106c:    4388        .C      BICS     r0,r0,r1
        0x0001106e:    6020         `      STR      r0,[r4,#0]
        0x00011070:    f000fc40    ..@.    BL       xTaskResumeAll ; 0x118f4
        0x00011074:    6820         h      LDR      r0,[r4,#0]
        0x00011076:    e8bd8ffe    ....    POP      {r1-r11,pc}
        0x0001107a:    0000        ..      MOVS     r0,r0
    i.xPortStartScheduler
    xPortStartScheduler
        0x0001107c:    b51c        ..      PUSH     {r2-r4,lr}
        0x0001107e:    4840        @H      LDR      r0,[pc,#256] ; [0x11180] = 0xe000ed00
        0x00011080:    6800        .h      LDR      r0,[r0,#0]
        0x00011082:    4940        @I      LDR      r1,[pc,#256] ; [0x11184] = 0x410fc271
        0x00011084:    4288        .B      CMP      r0,r1
        0x00011086:    d001        ..      BEQ      0x1108c ; xPortStartScheduler + 16
        0x00011088:    2001        .       MOVS     r0,#1
        0x0001108a:    e000        ..      B        0x1108e ; xPortStartScheduler + 18
        0x0001108c:    2000        .       MOVS     r0,#0
        0x0001108e:    b908        ..      CBNZ     r0,0x11094 ; xPortStartScheduler + 24
        0x00011090:    bf00        ..      NOP      
        0x00011092:    e7fe        ..      B        0x11092 ; xPortStartScheduler + 22
        0x00011094:    483a        :H      LDR      r0,[pc,#232] ; [0x11180] = 0xe000ed00
        0x00011096:    6800        .h      LDR      r0,[r0,#0]
        0x00011098:    493a        :I      LDR      r1,[pc,#232] ; [0x11184] = 0x410fc271
        0x0001109a:    1e49        I.      SUBS     r1,r1,#1
        0x0001109c:    4288        .B      CMP      r0,r1
        0x0001109e:    d001        ..      BEQ      0x110a4 ; xPortStartScheduler + 40
        0x000110a0:    2001        .       MOVS     r0,#1
        0x000110a2:    e000        ..      B        0x110a6 ; xPortStartScheduler + 42
        0x000110a4:    2000        .       MOVS     r0,#0
        0x000110a6:    b908        ..      CBNZ     r0,0x110ac ; xPortStartScheduler + 48
        0x000110a8:    bf00        ..      NOP      
        0x000110aa:    e7fe        ..      B        0x110aa ; xPortStartScheduler + 46
        0x000110ac:    4836        6H      LDR      r0,[pc,#216] ; [0x11188] = 0xe000e400
        0x000110ae:    4601        .F      MOV      r1,r0
        0x000110b0:    7809        .x      LDRB     r1,[r1,#0]
        0x000110b2:    9101        ..      STR      r1,[sp,#4]
        0x000110b4:    21ff        .!      MOVS     r1,#0xff
        0x000110b6:    4602        .F      MOV      r2,r0
        0x000110b8:    7011        .p      STRB     r1,[r2,#0]
        0x000110ba:    4601        .F      MOV      r1,r0
        0x000110bc:    7809        .x      LDRB     r1,[r1,#0]
        0x000110be:    9100        ..      STR      r1,[sp,#0]
        0x000110c0:    f89d1000    ....    LDRB     r1,[sp,#0]
        0x000110c4:    f00101e0    ....    AND      r1,r1,#0xe0
        0x000110c8:    f89d2000    ...     LDRB     r2,[sp,#0]
        0x000110cc:    4291        .B      CMP      r1,r2
        0x000110ce:    d101        ..      BNE      0x110d4 ; xPortStartScheduler + 88
        0x000110d0:    2101        .!      MOVS     r1,#1
        0x000110d2:    e000        ..      B        0x110d6 ; xPortStartScheduler + 90
        0x000110d4:    2100        .!      MOVS     r1,#0
        0x000110d6:    b909        ..      CBNZ     r1,0x110dc ; xPortStartScheduler + 96
        0x000110d8:    bf00        ..      NOP      
        0x000110da:    e7fe        ..      B        0x110da ; xPortStartScheduler + 94
        0x000110dc:    f89d1000    ....    LDRB     r1,[sp,#0]
        0x000110e0:    f0010180    ....    AND      r1,r1,#0x80
        0x000110e4:    4a29        )J      LDR      r2,[pc,#164] ; [0x1118c] = 0x10013020
        0x000110e6:    7011        .p      STRB     r1,[r2,#0]
        0x000110e8:    2107        .!      MOVS     r1,#7
        0x000110ea:    4a29        )J      LDR      r2,[pc,#164] ; [0x11190] = 0x10013024
        0x000110ec:    6011        .`      STR      r1,[r2,#0]
        0x000110ee:    e009        ..      B        0x11104 ; xPortStartScheduler + 136
        0x000110f0:    4927        'I      LDR      r1,[pc,#156] ; [0x11190] = 0x10013024
        0x000110f2:    6809        .h      LDR      r1,[r1,#0]
        0x000110f4:    1e49        I.      SUBS     r1,r1,#1
        0x000110f6:    4a26        &J      LDR      r2,[pc,#152] ; [0x11190] = 0x10013024
        0x000110f8:    6011        .`      STR      r1,[r2,#0]
        0x000110fa:    f89d1000    ....    LDRB     r1,[sp,#0]
        0x000110fe:    0649        I.      LSLS     r1,r1,#25
        0x00011100:    0e09        ..      LSRS     r1,r1,#24
        0x00011102:    9100        ..      STR      r1,[sp,#0]
        0x00011104:    f89d1000    ....    LDRB     r1,[sp,#0]
        0x00011108:    f0010180    ....    AND      r1,r1,#0x80
        0x0001110c:    2980        .)      CMP      r1,#0x80
        0x0001110e:    d0ef        ..      BEQ      0x110f0 ; xPortStartScheduler + 116
        0x00011110:    491f        .I      LDR      r1,[pc,#124] ; [0x11190] = 0x10013024
        0x00011112:    6809        .h      LDR      r1,[r1,#0]
        0x00011114:    f1c10107    ....    RSB      r1,r1,#7
        0x00011118:    2903        .)      CMP      r1,#3
        0x0001111a:    d101        ..      BNE      0x11120 ; xPortStartScheduler + 164
        0x0001111c:    2101        .!      MOVS     r1,#1
        0x0001111e:    e000        ..      B        0x11122 ; xPortStartScheduler + 166
        0x00011120:    2100        .!      MOVS     r1,#0
        0x00011122:    b909        ..      CBNZ     r1,0x11128 ; xPortStartScheduler + 172
        0x00011124:    bf00        ..      NOP      
        0x00011126:    e7fe        ..      B        0x11126 ; xPortStartScheduler + 170
        0x00011128:    4919        .I      LDR      r1,[pc,#100] ; [0x11190] = 0x10013024
        0x0001112a:    6809        .h      LDR      r1,[r1,#0]
        0x0001112c:    0209        ..      LSLS     r1,r1,#8
        0x0001112e:    4a18        .J      LDR      r2,[pc,#96] ; [0x11190] = 0x10013024
        0x00011130:    6011        .`      STR      r1,[r2,#0]
        0x00011132:    4611        .F      MOV      r1,r2
        0x00011134:    8809        ..      LDRH     r1,[r1,#0]
        0x00011136:    f40161e0    ...a    AND      r1,r1,#0x700
        0x0001113a:    6011        .`      STR      r1,[r2,#0]
        0x0001113c:    4a12        .J      LDR      r2,[pc,#72] ; [0x11188] = 0xe000e400
        0x0001113e:    9901        ..      LDR      r1,[sp,#4]
        0x00011140:    7011        .p      STRB     r1,[r2,#0]
        0x00011142:    480f        .H      LDR      r0,[pc,#60] ; [0x11180] = 0xe000ed00
        0x00011144:    3020         0      ADDS     r0,r0,#0x20
        0x00011146:    6800        .h      LDR      r0,[r0,#0]
        0x00011148:    f4400060    @.`.    ORR      r0,r0,#0xe00000
        0x0001114c:    490c        .I      LDR      r1,[pc,#48] ; [0x11180] = 0xe000ed00
        0x0001114e:    3120         1      ADDS     r1,r1,#0x20
        0x00011150:    6008        .`      STR      r0,[r1,#0]
        0x00011152:    4608        .F      MOV      r0,r1
        0x00011154:    6800        .h      LDR      r0,[r0,#0]
        0x00011156:    f0404060    @.`@    ORR      r0,r0,#0xe0000000
        0x0001115a:    6008        .`      STR      r0,[r1,#0]
        0x0001115c:    f7fffce6    ....    BL       vPortSetupTimerInterrupt ; 0x10b2c
        0x00011160:    2000        .       MOVS     r0,#0
        0x00011162:    490c        .I      LDR      r1,[pc,#48] ; [0x11194] = 0x1001301c
        0x00011164:    6008        .`      STR      r0,[r1,#0]
        0x00011166:    f7fbf87b    ..{.    BL       __asm___6_port_c_39a90d8d__prvEnableVFP ; 0xc260
        0x0001116a:    480b        .H      LDR      r0,[pc,#44] ; [0x11198] = 0xe000ef34
        0x0001116c:    6800        .h      LDR      r0,[r0,#0]
        0x0001116e:    f0404040    @.@@    ORR      r0,r0,#0xc0000000
        0x00011172:    4909        .I      LDR      r1,[pc,#36] ; [0x11198] = 0xe000ef34
        0x00011174:    6008        .`      STR      r0,[r1,#0]
        0x00011176:    f7fbf85f    .._.    BL       __asm___6_port_c_39a90d8d__prvStartFirstTask ; 0xc238
        0x0001117a:    2000        .       MOVS     r0,#0
        0x0001117c:    bd1c        ..      POP      {r2-r4,pc}
    $d
        0x0001117e:    0000        ..      DCW    0
        0x00011180:    e000ed00    ....    DCD    3758157056
        0x00011184:    410fc271    q..A    DCD    1091551857
        0x00011188:    e000e400    ....    DCD    3758154752
        0x0001118c:    10013020     0..    DCD    268513312
        0x00011190:    10013024    $0..    DCD    268513316
        0x00011194:    1001301c    .0..    DCD    268513308
        0x00011198:    e000ef34    4...    DCD    3758157620
    $t
    i.xPortStimerTickHandler
    xPortStimerTickHandler
        0x0001119c:    e92d47f0    -..G    PUSH     {r4-r10,lr}
        0x000111a0:    4604        .F      MOV      r4,r0
        0x000111a2:    2700        .'      MOVS     r7,#0
        0x000111a4:    46b9        .F      MOV      r9,r7
        0x000111a6:    f7fdfeaf    ....    BL       am_hal_stimer_counter_get ; 0xef08
        0x000111aa:    4605        .F      MOV      r5,r0
        0x000111ac:    4820         H      LDR      r0,[pc,#128] ; [0x11230] = 0x10013028
        0x000111ae:    6800        .h      LDR      r0,[r0,#0]
        0x000111b0:    1b01        ..      SUBS     r1,r0,r4
        0x000111b2:    2000        .       MOVS     r0,#0
        0x000111b4:    f7fdfe48    ..H.    BL       am_hal_stimer_compare_delta_set ; 0xee48
        0x000111b8:    481d        .H      LDR      r0,[pc,#116] ; [0x11230] = 0x10013028
        0x000111ba:    6800        .h      LDR      r0,[r0,#0]
        0x000111bc:    1b00        ..      SUBS     r0,r0,r4
        0x000111be:    1c41        A.      ADDS     r1,r0,#1
        0x000111c0:    2001        .       MOVS     r0,#1
        0x000111c2:    f7fdfe41    ..A.    BL       am_hal_stimer_compare_delta_set ; 0xee48
        0x000111c6:    481b        .H      LDR      r0,[pc,#108] ; [0x11234] = 0x10013018
        0x000111c8:    6800        .h      LDR      r0,[r0,#0]
        0x000111ca:    1a2e        ..      SUBS     r6,r5,r0
        0x000111cc:    4818        .H      LDR      r0,[pc,#96] ; [0x11230] = 0x10013028
        0x000111ce:    6800        .h      LDR      r0,[r0,#0]
        0x000111d0:    fbb6f8f0    ....    UDIV     r8,r6,r0
        0x000111d4:    4816        .H      LDR      r0,[pc,#88] ; [0x11230] = 0x10013028
        0x000111d6:    6800        .h      LDR      r0,[r0,#0]
        0x000111d8:    fbb6f1f0    ....    UDIV     r1,r6,r0
        0x000111dc:    fb006711    ...g    MLS      r7,r0,r1,r6
        0x000111e0:    1be8        ..      SUBS     r0,r5,r7
        0x000111e2:    4914        .I      LDR      r1,[pc,#80] ; [0x11234] = 0x10013018
        0x000111e4:    6008        .`      STR      r0,[r1,#0]
        0x000111e6:    bf00        ..      NOP      
        0x000111e8:    2080        .       MOVS     r0,#0x80
        0x000111ea:    f3ef8111    ....    MRS      r1,BASEPRI
        0x000111ee:    f3808811    ....    MSR      BASEPRI,r0
        0x000111f2:    f3bf8f4f    ..O.    DSB      
        0x000111f6:    f3bf8f6f    ..o.    ISB      
        0x000111fa:    bf00        ..      NOP      
        0x000111fc:    e006        ..      B        0x1120c ; xPortStimerTickHandler + 112
        0x000111fe:    f000faa9    ....    BL       xTaskIncrementTick ; 0x11754
        0x00011202:    b108        ..      CBZ      r0,0x11208 ; xPortStimerTickHandler + 108
        0x00011204:    2001        .       MOVS     r0,#1
        0x00011206:    e000        ..      B        0x1120a ; xPortStimerTickHandler + 110
        0x00011208:    4648        HF      MOV      r0,r9
        0x0001120a:    4681        .F      MOV      r9,r0
        0x0001120c:    f1b80000    ....    SUBS     r0,r8,#0
        0x00011210:    f1a80801    ....    SUB      r8,r8,#1
        0x00011214:    d1f3        ..      BNE      0x111fe ; xPortStimerTickHandler + 98
        0x00011216:    f1b90f00    ....    CMP      r9,#0
        0x0001121a:    d003        ..      BEQ      0x11224 ; xPortStimerTickHandler + 136
        0x0001121c:    f04f5080    O..P    MOV      r0,#0x10000000
        0x00011220:    4905        .I      LDR      r1,[pc,#20] ; [0x11238] = 0xe000ed04
        0x00011222:    6008        .`      STR      r0,[r1,#0]
        0x00011224:    2000        .       MOVS     r0,#0
        0x00011226:    f3808811    ....    MSR      BASEPRI,r0
        0x0001122a:    bf00        ..      NOP      
        0x0001122c:    e8bd87f0    ....    POP      {r4-r10,pc}
    $d
        0x00011230:    10013028    (0..    DCD    268513320
        0x00011234:    10013018    .0..    DCD    268513304
        0x00011238:    e000ed04    ....    DCD    3758157060
    $t
    i.xQueueGenericCreate
    xQueueGenericCreate
        0x0001123c:    e92d43f8    -..C    PUSH     {r3-r9,lr}
        0x00011240:    4605        .F      MOV      r5,r0
        0x00011242:    460e        .F      MOV      r6,r1
        0x00011244:    4690        .F      MOV      r8,r2
        0x00011246:    b10d        ..      CBZ      r5,0x1124c ; xQueueGenericCreate + 16
        0x00011248:    2001        .       MOVS     r0,#1
        0x0001124a:    e000        ..      B        0x1124e ; xQueueGenericCreate + 18
        0x0001124c:    2000        .       MOVS     r0,#0
        0x0001124e:    b908        ..      CBNZ     r0,0x11254 ; xQueueGenericCreate + 24
        0x00011250:    bf00        ..      NOP      
        0x00011252:    e7fe        ..      B        0x11252 ; xQueueGenericCreate + 22
        0x00011254:    b90e        ..      CBNZ     r6,0x1125a ; xQueueGenericCreate + 30
        0x00011256:    2700        .'      MOVS     r7,#0
        0x00011258:    e001        ..      B        0x1125e ; xQueueGenericCreate + 34
        0x0001125a:    fb05f706    ....    MUL      r7,r5,r6
        0x0001125e:    f1070048    ..H.    ADD      r0,r7,#0x48
        0x00011262:    f7fffa87    ....    BL       pvPortMalloc ; 0x10774
        0x00011266:    4604        .F      MOV      r4,r0
        0x00011268:    b14c        L.      CBZ      r4,0x1127e ; xQueueGenericCreate + 66
        0x0001126a:    46a1        .F      MOV      r9,r4
        0x0001126c:    f1090948    ..H.    ADD      r9,r9,#0x48
        0x00011270:    4643        CF      MOV      r3,r8
        0x00011272:    464a        JF      MOV      r2,r9
        0x00011274:    4631        1F      MOV      r1,r6
        0x00011276:    4628        (F      MOV      r0,r5
        0x00011278:    9400        ..      STR      r4,[sp,#0]
        0x0001127a:    f7feffd1    ....    BL       prvInitialiseNewQueue ; 0x10220
        0x0001127e:    4620         F      MOV      r0,r4
        0x00011280:    e8bd83f8    ....    POP      {r3-r9,pc}
    i.xQueueGenericReset
    xQueueGenericReset
        0x00011284:    b570        p.      PUSH     {r4-r6,lr}
        0x00011286:    4605        .F      MOV      r5,r0
        0x00011288:    460e        .F      MOV      r6,r1
        0x0001128a:    462c        ,F      MOV      r4,r5
        0x0001128c:    b90c        ..      CBNZ     r4,0x11292 ; xQueueGenericReset + 14
        0x0001128e:    bf00        ..      NOP      
        0x00011290:    e7fe        ..      B        0x11290 ; xQueueGenericReset + 12
        0x00011292:    f7fffbf3    ....    BL       vPortEnterCritical ; 0x10a7c
        0x00011296:    e9d4120f    ....    LDRD     r1,r2,[r4,#0x3c]
        0x0001129a:    6820         h      LDR      r0,[r4,#0]
        0x0001129c:    fb010002    ....    MLA      r0,r1,r2,r0
        0x000112a0:    60a0        .`      STR      r0,[r4,#8]
        0x000112a2:    2000        .       MOVS     r0,#0
        0x000112a4:    63a0        .c      STR      r0,[r4,#0x38]
        0x000112a6:    6820         h      LDR      r0,[r4,#0]
        0x000112a8:    6060        ``      STR      r0,[r4,#4]
        0x000112aa:    6be0        .k      LDR      r0,[r4,#0x3c]
        0x000112ac:    1e40        @.      SUBS     r0,r0,#1
        0x000112ae:    6c22        "l      LDR      r2,[r4,#0x40]
        0x000112b0:    6821        !h      LDR      r1,[r4,#0]
        0x000112b2:    fb001102    ....    MLA      r1,r0,r2,r1
        0x000112b6:    60e1        .`      STR      r1,[r4,#0xc]
        0x000112b8:    20ff        .       MOVS     r0,#0xff
        0x000112ba:    f8840044    ..D.    STRB     r0,[r4,#0x44]
        0x000112be:    f8840045    ..E.    STRB     r0,[r4,#0x45]
        0x000112c2:    b99e        ..      CBNZ     r6,0x112ec ; xQueueGenericReset + 104
        0x000112c4:    6920         i      LDR      r0,[r4,#0x10]
        0x000112c6:    b908        ..      CBNZ     r0,0x112cc ; xQueueGenericReset + 72
        0x000112c8:    2001        .       MOVS     r0,#1
        0x000112ca:    e000        ..      B        0x112ce ; xQueueGenericReset + 74
        0x000112cc:    2000        .       MOVS     r0,#0
        0x000112ce:    b9a8        ..      CBNZ     r0,0x112fc ; xQueueGenericReset + 120
        0x000112d0:    f1040010    ....    ADD      r0,r4,#0x10
        0x000112d4:    f000faca    ....    BL       xTaskRemoveFromEventList ; 0x1186c
        0x000112d8:    b180        ..      CBZ      r0,0x112fc ; xQueueGenericReset + 120
        0x000112da:    f04f5080    O..P    MOV      r0,#0x10000000
        0x000112de:    4909        .I      LDR      r1,[pc,#36] ; [0x11304] = 0xe000ed04
        0x000112e0:    6008        .`      STR      r0,[r1,#0]
        0x000112e2:    f3bf8f4f    ..O.    DSB      
        0x000112e6:    f3bf8f6f    ..o.    ISB      
        0x000112ea:    e007        ..      B        0x112fc ; xQueueGenericReset + 120
        0x000112ec:    f1040010    ....    ADD      r0,r4,#0x10
        0x000112f0:    f7fffb8e    ....    BL       vListInitialise ; 0x10a10
        0x000112f4:    f1040024    ..$.    ADD      r0,r4,#0x24
        0x000112f8:    f7fffb8a    ....    BL       vListInitialise ; 0x10a10
        0x000112fc:    f7fffbe0    ....    BL       vPortExitCritical ; 0x10ac0
        0x00011300:    2001        .       MOVS     r0,#1
        0x00011302:    bd70        p.      POP      {r4-r6,pc}
    $d
        0x00011304:    e000ed04    ....    DCD    3758157060
    $t
    i.xQueueGenericSend
    xQueueGenericSend
        0x00011308:    e92d43ff    -..C    PUSH     {r0-r9,lr}
        0x0001130c:    b083        ..      SUB      sp,sp,#0xc
        0x0001130e:    4606        .F      MOV      r6,r0
        0x00011310:    4688        .F      MOV      r8,r1
        0x00011312:    461d        .F      MOV      r5,r3
        0x00011314:    f04f0900    O...    MOV      r9,#0
        0x00011318:    4634        4F      MOV      r4,r6
        0x0001131a:    b90c        ..      CBNZ     r4,0x11320 ; xQueueGenericSend + 24
        0x0001131c:    bf00        ..      NOP      
        0x0001131e:    e7fe        ..      B        0x1131e ; xQueueGenericSend + 22
        0x00011320:    f1b80f00    ....    CMP      r8,#0
        0x00011324:    d101        ..      BNE      0x1132a ; xQueueGenericSend + 34
        0x00011326:    6c20         l      LDR      r0,[r4,#0x40]
        0x00011328:    b908        ..      CBNZ     r0,0x1132e ; xQueueGenericSend + 38
        0x0001132a:    2001        .       MOVS     r0,#1
        0x0001132c:    e000        ..      B        0x11330 ; xQueueGenericSend + 40
        0x0001132e:    2000        .       MOVS     r0,#0
        0x00011330:    b908        ..      CBNZ     r0,0x11336 ; xQueueGenericSend + 46
        0x00011332:    bf00        ..      NOP      
        0x00011334:    e7fe        ..      B        0x11334 ; xQueueGenericSend + 44
        0x00011336:    2d02        .-      CMP      r5,#2
        0x00011338:    d102        ..      BNE      0x11340 ; xQueueGenericSend + 56
        0x0001133a:    6be0        .k      LDR      r0,[r4,#0x3c]
        0x0001133c:    2801        .(      CMP      r0,#1
        0x0001133e:    d101        ..      BNE      0x11344 ; xQueueGenericSend + 60
        0x00011340:    2001        .       MOVS     r0,#1
        0x00011342:    e000        ..      B        0x11346 ; xQueueGenericSend + 62
        0x00011344:    2000        .       MOVS     r0,#0
        0x00011346:    b908        ..      CBNZ     r0,0x1134c ; xQueueGenericSend + 68
        0x00011348:    bf00        ..      NOP      
        0x0001134a:    e7fe        ..      B        0x1134a ; xQueueGenericSend + 66
        0x0001134c:    f000f9ec    ....    BL       xTaskGetSchedulerState ; 0x11728
        0x00011350:    b908        ..      CBNZ     r0,0x11356 ; xQueueGenericSend + 78
        0x00011352:    9805        ..      LDR      r0,[sp,#0x14]
        0x00011354:    b908        ..      CBNZ     r0,0x1135a ; xQueueGenericSend + 82
        0x00011356:    2001        .       MOVS     r0,#1
        0x00011358:    e000        ..      B        0x1135c ; xQueueGenericSend + 84
        0x0001135a:    2000        .       MOVS     r0,#0
        0x0001135c:    b908        ..      CBNZ     r0,0x11362 ; xQueueGenericSend + 90
        0x0001135e:    bf00        ..      NOP      
        0x00011360:    e7fe        ..      B        0x11360 ; xQueueGenericSend + 88
        0x00011362:    bf00        ..      NOP      
        0x00011364:    f7fffb8a    ....    BL       vPortEnterCritical ; 0x10a7c
        0x00011368:    6ba0        .k      LDR      r0,[r4,#0x38]
        0x0001136a:    6be1        .k      LDR      r1,[r4,#0x3c]
        0x0001136c:    4288        .B      CMP      r0,r1
        0x0001136e:    d301        ..      BCC      0x11374 ; xQueueGenericSend + 108
        0x00011370:    2d02        .-      CMP      r5,#2
        0x00011372:    d128        (.      BNE      0x113c6 ; xQueueGenericSend + 190
        0x00011374:    462a        *F      MOV      r2,r5
        0x00011376:    4641        AF      MOV      r1,r8
        0x00011378:    4620         F      MOV      r0,r4
        0x0001137a:    f7fefe91    ....    BL       prvCopyDataToQueue ; 0x100a0
        0x0001137e:    4607        .F      MOV      r7,r0
        0x00011380:    6a60        `j      LDR      r0,[r4,#0x24]
        0x00011382:    b908        ..      CBNZ     r0,0x11388 ; xQueueGenericSend + 128
        0x00011384:    2001        .       MOVS     r0,#1
        0x00011386:    e000        ..      B        0x1138a ; xQueueGenericSend + 130
        0x00011388:    2000        .       MOVS     r0,#0
        0x0001138a:    b968        h.      CBNZ     r0,0x113a8 ; xQueueGenericSend + 160
        0x0001138c:    f1040024    ..$.    ADD      r0,r4,#0x24
        0x00011390:    f000fa6c    ..l.    BL       xTaskRemoveFromEventList ; 0x1186c
        0x00011394:    b188        ..      CBZ      r0,0x113ba ; xQueueGenericSend + 178
        0x00011396:    f04f5080    O..P    MOV      r0,#0x10000000
        0x0001139a:    4932        2I      LDR      r1,[pc,#200] ; [0x11464] = 0xe000ed04
        0x0001139c:    6008        .`      STR      r0,[r1,#0]
        0x0001139e:    f3bf8f4f    ..O.    DSB      
        0x000113a2:    f3bf8f6f    ..o.    ISB      
        0x000113a6:    e008        ..      B        0x113ba ; xQueueGenericSend + 178
        0x000113a8:    b13f        ?.      CBZ      r7,0x113ba ; xQueueGenericSend + 178
        0x000113aa:    f04f5080    O..P    MOV      r0,#0x10000000
        0x000113ae:    492d        -I      LDR      r1,[pc,#180] ; [0x11464] = 0xe000ed04
        0x000113b0:    6008        .`      STR      r0,[r1,#0]
        0x000113b2:    f3bf8f4f    ..O.    DSB      
        0x000113b6:    f3bf8f6f    ..o.    ISB      
        0x000113ba:    f7fffb81    ....    BL       vPortExitCritical ; 0x10ac0
        0x000113be:    2001        .       MOVS     r0,#1
        0x000113c0:    b007        ..      ADD      sp,sp,#0x1c
        0x000113c2:    e8bd83f0    ....    POP      {r4-r9,pc}
        0x000113c6:    9805        ..      LDR      r0,[sp,#0x14]
        0x000113c8:    b918        ..      CBNZ     r0,0x113d2 ; xQueueGenericSend + 202
        0x000113ca:    f7fffb79    ..y.    BL       vPortExitCritical ; 0x10ac0
        0x000113ce:    2000        .       MOVS     r0,#0
        0x000113d0:    e7f6        ..      B        0x113c0 ; xQueueGenericSend + 184
        0x000113d2:    f1b90f00    ....    CMP      r9,#0
        0x000113d6:    d104        ..      BNE      0x113e2 ; xQueueGenericSend + 218
        0x000113d8:    a801        ..      ADD      r0,sp,#4
        0x000113da:    f7fffca7    ....    BL       vTaskInternalSetTimeOutState ; 0x10d2c
        0x000113de:    f04f0901    O...    MOV      r9,#1
        0x000113e2:    f7fffb6d    ..m.    BL       vPortExitCritical ; 0x10ac0
        0x000113e6:    f7fffd77    ..w.    BL       vTaskSuspendAll ; 0x10ed8
        0x000113ea:    f7fffb47    ..G.    BL       vPortEnterCritical ; 0x10a7c
        0x000113ee:    f9940044    ..D.    LDRSB    r0,[r4,#0x44]
        0x000113f2:    1c40        @.      ADDS     r0,r0,#1
        0x000113f4:    b910        ..      CBNZ     r0,0x113fc ; xQueueGenericSend + 244
        0x000113f6:    2000        .       MOVS     r0,#0
        0x000113f8:    f8840044    ..D.    STRB     r0,[r4,#0x44]
        0x000113fc:    f9940045    ..E.    LDRSB    r0,[r4,#0x45]
        0x00011400:    1c40        @.      ADDS     r0,r0,#1
        0x00011402:    b910        ..      CBNZ     r0,0x1140a ; xQueueGenericSend + 258
        0x00011404:    2000        .       MOVS     r0,#0
        0x00011406:    f8840045    ..E.    STRB     r0,[r4,#0x45]
        0x0001140a:    f7fffb59    ..Y.    BL       vPortExitCritical ; 0x10ac0
        0x0001140e:    a905        ..      ADD      r1,sp,#0x14
        0x00011410:    a801        ..      ADD      r0,sp,#4
        0x00011412:    f000f925    ..%.    BL       xTaskCheckForTimeOut ; 0x11660
        0x00011416:    b9f0        ..      CBNZ     r0,0x11456 ; xQueueGenericSend + 334
        0x00011418:    4620         F      MOV      r0,r4
        0x0001141a:    f7feffec    ....    BL       prvIsQueueFull ; 0x103f6
        0x0001141e:    b1a0        ..      CBZ      r0,0x1144a ; xQueueGenericSend + 322
        0x00011420:    f1040010    ....    ADD      r0,r4,#0x10
        0x00011424:    9905        ..      LDR      r1,[sp,#0x14]
        0x00011426:    f7fffc93    ....    BL       vTaskPlaceOnEventList ; 0x10d50
        0x0001142a:    4620         F      MOV      r0,r4
        0x0001142c:    f7fff963    ..c.    BL       prvUnlockQueue ; 0x106f6
        0x00011430:    f000fa60    ..`.    BL       xTaskResumeAll ; 0x118f4
        0x00011434:    2800        .(      CMP      r0,#0
        0x00011436:    d195        ..      BNE      0x11364 ; xQueueGenericSend + 92
        0x00011438:    f04f5080    O..P    MOV      r0,#0x10000000
        0x0001143c:    4909        .I      LDR      r1,[pc,#36] ; [0x11464] = 0xe000ed04
        0x0001143e:    6008        .`      STR      r0,[r1,#0]
        0x00011440:    f3bf8f4f    ..O.    DSB      
        0x00011444:    f3bf8f6f    ..o.    ISB      
        0x00011448:    e78c        ..      B        0x11364 ; xQueueGenericSend + 92
        0x0001144a:    4620         F      MOV      r0,r4
        0x0001144c:    f7fff953    ..S.    BL       prvUnlockQueue ; 0x106f6
        0x00011450:    f000fa50    ..P.    BL       xTaskResumeAll ; 0x118f4
        0x00011454:    e786        ..      B        0x11364 ; xQueueGenericSend + 92
        0x00011456:    4620         F      MOV      r0,r4
        0x00011458:    f7fff94d    ..M.    BL       prvUnlockQueue ; 0x106f6
        0x0001145c:    f000fa4a    ..J.    BL       xTaskResumeAll ; 0x118f4
        0x00011460:    2000        .       MOVS     r0,#0
        0x00011462:    e7ad        ..      B        0x113c0 ; xQueueGenericSend + 184
    $d
        0x00011464:    e000ed04    ....    DCD    3758157060
    $t
    i.xQueueGenericSendFromISR
    xQueueGenericSendFromISR
        0x00011468:    e92d5ff0    -.._    PUSH     {r4-r12,lr}
        0x0001146c:    4607        .F      MOV      r7,r0
        0x0001146e:    468a        .F      MOV      r10,r1
        0x00011470:    4690        .F      MOV      r8,r2
        0x00011472:    461e        .F      MOV      r6,r3
        0x00011474:    463c        <F      MOV      r4,r7
        0x00011476:    b90c        ..      CBNZ     r4,0x1147c ; xQueueGenericSendFromISR + 20
        0x00011478:    bf00        ..      NOP      
        0x0001147a:    e7fe        ..      B        0x1147a ; xQueueGenericSendFromISR + 18
        0x0001147c:    f1ba0f00    ....    CMP      r10,#0
        0x00011480:    d101        ..      BNE      0x11486 ; xQueueGenericSendFromISR + 30
        0x00011482:    6c20         l      LDR      r0,[r4,#0x40]
        0x00011484:    b908        ..      CBNZ     r0,0x1148a ; xQueueGenericSendFromISR + 34
        0x00011486:    2001        .       MOVS     r0,#1
        0x00011488:    e000        ..      B        0x1148c ; xQueueGenericSendFromISR + 36
        0x0001148a:    2000        .       MOVS     r0,#0
        0x0001148c:    b908        ..      CBNZ     r0,0x11492 ; xQueueGenericSendFromISR + 42
        0x0001148e:    bf00        ..      NOP      
        0x00011490:    e7fe        ..      B        0x11490 ; xQueueGenericSendFromISR + 40
        0x00011492:    2e02        ..      CMP      r6,#2
        0x00011494:    d102        ..      BNE      0x1149c ; xQueueGenericSendFromISR + 52
        0x00011496:    6be0        .k      LDR      r0,[r4,#0x3c]
        0x00011498:    2801        .(      CMP      r0,#1
        0x0001149a:    d101        ..      BNE      0x114a0 ; xQueueGenericSendFromISR + 56
        0x0001149c:    2001        .       MOVS     r0,#1
        0x0001149e:    e000        ..      B        0x114a2 ; xQueueGenericSendFromISR + 58
        0x000114a0:    2000        .       MOVS     r0,#0
        0x000114a2:    b908        ..      CBNZ     r0,0x114a8 ; xQueueGenericSendFromISR + 64
        0x000114a4:    bf00        ..      NOP      
        0x000114a6:    e7fe        ..      B        0x114a6 ; xQueueGenericSendFromISR + 62
        0x000114a8:    f7fffbf0    ....    BL       vPortValidateInterruptPriority ; 0x10c8c
        0x000114ac:    bf00        ..      NOP      
        0x000114ae:    2180        .!      MOVS     r1,#0x80
        0x000114b0:    f3ef8011    ....    MRS      r0,BASEPRI
        0x000114b4:    f3818811    ....    MSR      BASEPRI,r1
        0x000114b8:    f3bf8f4f    ..O.    DSB      
        0x000114bc:    f3bf8f6f    ..o.    ISB      
        0x000114c0:    bf00        ..      NOP      
        0x000114c2:    4605        .F      MOV      r5,r0
        0x000114c4:    6ba0        .k      LDR      r0,[r4,#0x38]
        0x000114c6:    6be1        .k      LDR      r1,[r4,#0x3c]
        0x000114c8:    4288        .B      CMP      r0,r1
        0x000114ca:    d301        ..      BCC      0x114d0 ; xQueueGenericSendFromISR + 104
        0x000114cc:    2e02        ..      CMP      r6,#2
        0x000114ce:    d123        #.      BNE      0x11518 ; xQueueGenericSendFromISR + 176
        0x000114d0:    f994b045    ..E.    LDRSB    r11,[r4,#0x45]
        0x000114d4:    4632        2F      MOV      r2,r6
        0x000114d6:    4651        QF      MOV      r1,r10
        0x000114d8:    4620         F      MOV      r0,r4
        0x000114da:    f7fefde1    ....    BL       prvCopyDataToQueue ; 0x100a0
        0x000114de:    f10b0001    ....    ADD      r0,r11,#1
        0x000114e2:    b988        ..      CBNZ     r0,0x11508 ; xQueueGenericSendFromISR + 160
        0x000114e4:    6a60        `j      LDR      r0,[r4,#0x24]
        0x000114e6:    b908        ..      CBNZ     r0,0x114ec ; xQueueGenericSendFromISR + 132
        0x000114e8:    2001        .       MOVS     r0,#1
        0x000114ea:    e000        ..      B        0x114ee ; xQueueGenericSendFromISR + 134
        0x000114ec:    2000        .       MOVS     r0,#0
        0x000114ee:    b980        ..      CBNZ     r0,0x11512 ; xQueueGenericSendFromISR + 170
        0x000114f0:    f1040024    ..$.    ADD      r0,r4,#0x24
        0x000114f4:    f000f9ba    ....    BL       xTaskRemoveFromEventList ; 0x1186c
        0x000114f8:    b158        X.      CBZ      r0,0x11512 ; xQueueGenericSendFromISR + 170
        0x000114fa:    f1b80f00    ....    CMP      r8,#0
        0x000114fe:    d008        ..      BEQ      0x11512 ; xQueueGenericSendFromISR + 170
        0x00011500:    2001        .       MOVS     r0,#1
        0x00011502:    f8c80000    ....    STR      r0,[r8,#0]
        0x00011506:    e004        ..      B        0x11512 ; xQueueGenericSendFromISR + 170
        0x00011508:    f10b0001    ....    ADD      r0,r11,#1
        0x0001150c:    b240        @.      SXTB     r0,r0
        0x0001150e:    f8840045    ..E.    STRB     r0,[r4,#0x45]
        0x00011512:    f04f0901    O...    MOV      r9,#1
        0x00011516:    e001        ..      B        0x1151c ; xQueueGenericSendFromISR + 180
        0x00011518:    f04f0900    O...    MOV      r9,#0
        0x0001151c:    bf00        ..      NOP      
        0x0001151e:    f3858811    ....    MSR      BASEPRI,r5
        0x00011522:    bf00        ..      NOP      
        0x00011524:    4648        HF      MOV      r0,r9
        0x00011526:    e8bd9ff0    ....    POP      {r4-r12,pc}
        0x0001152a:    0000        ..      MOVS     r0,r0
    i.xQueueReceive
    xQueueReceive
        0x0001152c:    e92d41f7    -..A    PUSH     {r0-r2,r4-r8,lr}
        0x00011530:    b083        ..      SUB      sp,sp,#0xc
        0x00011532:    4605        .F      MOV      r5,r0
        0x00011534:    460e        .F      MOV      r6,r1
        0x00011536:    f04f0800    O...    MOV      r8,#0
        0x0001153a:    462c        ,F      MOV      r4,r5
        0x0001153c:    b90c        ..      CBNZ     r4,0x11542 ; xQueueReceive + 22
        0x0001153e:    bf00        ..      NOP      
        0x00011540:    e7fe        ..      B        0x11540 ; xQueueReceive + 20
        0x00011542:    b90e        ..      CBNZ     r6,0x11548 ; xQueueReceive + 28
        0x00011544:    6c20         l      LDR      r0,[r4,#0x40]
        0x00011546:    b908        ..      CBNZ     r0,0x1154c ; xQueueReceive + 32
        0x00011548:    2001        .       MOVS     r0,#1
        0x0001154a:    e000        ..      B        0x1154e ; xQueueReceive + 34
        0x0001154c:    2000        .       MOVS     r0,#0
        0x0001154e:    b908        ..      CBNZ     r0,0x11554 ; xQueueReceive + 40
        0x00011550:    bf00        ..      NOP      
        0x00011552:    e7fe        ..      B        0x11552 ; xQueueReceive + 38
        0x00011554:    f000f8e8    ....    BL       xTaskGetSchedulerState ; 0x11728
        0x00011558:    b908        ..      CBNZ     r0,0x1155e ; xQueueReceive + 50
        0x0001155a:    9805        ..      LDR      r0,[sp,#0x14]
        0x0001155c:    b908        ..      CBNZ     r0,0x11562 ; xQueueReceive + 54
        0x0001155e:    2001        .       MOVS     r0,#1
        0x00011560:    e000        ..      B        0x11564 ; xQueueReceive + 56
        0x00011562:    2000        .       MOVS     r0,#0
        0x00011564:    b908        ..      CBNZ     r0,0x1156a ; xQueueReceive + 62
        0x00011566:    bf00        ..      NOP      
        0x00011568:    e7fe        ..      B        0x11568 ; xQueueReceive + 60
        0x0001156a:    bf00        ..      NOP      
        0x0001156c:    f7fffa86    ....    BL       vPortEnterCritical ; 0x10a7c
        0x00011570:    6ba7        .k      LDR      r7,[r4,#0x38]
        0x00011572:    b1f7        ..      CBZ      r7,0x115b2 ; xQueueReceive + 134
        0x00011574:    4631        1F      MOV      r1,r6
        0x00011576:    4620         F      MOV      r0,r4
        0x00011578:    f7fefd7d    ..}.    BL       prvCopyDataFromQueue ; 0x10076
        0x0001157c:    1e78        x.      SUBS     r0,r7,#1
        0x0001157e:    63a0        .c      STR      r0,[r4,#0x38]
        0x00011580:    6920         i      LDR      r0,[r4,#0x10]
        0x00011582:    b908        ..      CBNZ     r0,0x11588 ; xQueueReceive + 92
        0x00011584:    2001        .       MOVS     r0,#1
        0x00011586:    e000        ..      B        0x1158a ; xQueueReceive + 94
        0x00011588:    2000        .       MOVS     r0,#0
        0x0001158a:    b960        `.      CBNZ     r0,0x115a6 ; xQueueReceive + 122
        0x0001158c:    f1040010    ....    ADD      r0,r4,#0x10
        0x00011590:    f000f96c    ..l.    BL       xTaskRemoveFromEventList ; 0x1186c
        0x00011594:    b138        8.      CBZ      r0,0x115a6 ; xQueueReceive + 122
        0x00011596:    f04f5080    O..P    MOV      r0,#0x10000000
        0x0001159a:    4930        0I      LDR      r1,[pc,#192] ; [0x1165c] = 0xe000ed04
        0x0001159c:    6008        .`      STR      r0,[r1,#0]
        0x0001159e:    f3bf8f4f    ..O.    DSB      
        0x000115a2:    f3bf8f6f    ..o.    ISB      
        0x000115a6:    f7fffa8b    ....    BL       vPortExitCritical ; 0x10ac0
        0x000115aa:    2001        .       MOVS     r0,#1
        0x000115ac:    b006        ..      ADD      sp,sp,#0x18
        0x000115ae:    e8bd81f0    ....    POP      {r4-r8,pc}
        0x000115b2:    9805        ..      LDR      r0,[sp,#0x14]
        0x000115b4:    b918        ..      CBNZ     r0,0x115be ; xQueueReceive + 146
        0x000115b6:    f7fffa83    ....    BL       vPortExitCritical ; 0x10ac0
        0x000115ba:    2000        .       MOVS     r0,#0
        0x000115bc:    e7f6        ..      B        0x115ac ; xQueueReceive + 128
        0x000115be:    f1b80f00    ....    CMP      r8,#0
        0x000115c2:    d104        ..      BNE      0x115ce ; xQueueReceive + 162
        0x000115c4:    a801        ..      ADD      r0,sp,#4
        0x000115c6:    f7fffbb1    ....    BL       vTaskInternalSetTimeOutState ; 0x10d2c
        0x000115ca:    f04f0801    O...    MOV      r8,#1
        0x000115ce:    f7fffa77    ..w.    BL       vPortExitCritical ; 0x10ac0
        0x000115d2:    f7fffc81    ....    BL       vTaskSuspendAll ; 0x10ed8
        0x000115d6:    f7fffa51    ..Q.    BL       vPortEnterCritical ; 0x10a7c
        0x000115da:    f9940044    ..D.    LDRSB    r0,[r4,#0x44]
        0x000115de:    1c40        @.      ADDS     r0,r0,#1
        0x000115e0:    b910        ..      CBNZ     r0,0x115e8 ; xQueueReceive + 188
        0x000115e2:    2000        .       MOVS     r0,#0
        0x000115e4:    f8840044    ..D.    STRB     r0,[r4,#0x44]
        0x000115e8:    f9940045    ..E.    LDRSB    r0,[r4,#0x45]
        0x000115ec:    1c40        @.      ADDS     r0,r0,#1
        0x000115ee:    b910        ..      CBNZ     r0,0x115f6 ; xQueueReceive + 202
        0x000115f0:    2000        .       MOVS     r0,#0
        0x000115f2:    f8840045    ..E.    STRB     r0,[r4,#0x45]
        0x000115f6:    f7fffa63    ..c.    BL       vPortExitCritical ; 0x10ac0
        0x000115fa:    a905        ..      ADD      r1,sp,#0x14
        0x000115fc:    a801        ..      ADD      r0,sp,#4
        0x000115fe:    f000f82f    ../.    BL       xTaskCheckForTimeOut ; 0x11660
        0x00011602:    b9f0        ..      CBNZ     r0,0x11642 ; xQueueReceive + 278
        0x00011604:    4620         F      MOV      r0,r4
        0x00011606:    f7fefee9    ....    BL       prvIsQueueEmpty ; 0x103dc
        0x0001160a:    b1a0        ..      CBZ      r0,0x11636 ; xQueueReceive + 266
        0x0001160c:    f1040024    ..$.    ADD      r0,r4,#0x24
        0x00011610:    9905        ..      LDR      r1,[sp,#0x14]
        0x00011612:    f7fffb9d    ....    BL       vTaskPlaceOnEventList ; 0x10d50
        0x00011616:    4620         F      MOV      r0,r4
        0x00011618:    f7fff86d    ..m.    BL       prvUnlockQueue ; 0x106f6
        0x0001161c:    f000f96a    ..j.    BL       xTaskResumeAll ; 0x118f4
        0x00011620:    2800        .(      CMP      r0,#0
        0x00011622:    d1a3        ..      BNE      0x1156c ; xQueueReceive + 64
        0x00011624:    f04f5080    O..P    MOV      r0,#0x10000000
        0x00011628:    490c        .I      LDR      r1,[pc,#48] ; [0x1165c] = 0xe000ed04
        0x0001162a:    6008        .`      STR      r0,[r1,#0]
        0x0001162c:    f3bf8f4f    ..O.    DSB      
        0x00011630:    f3bf8f6f    ..o.    ISB      
        0x00011634:    e79a        ..      B        0x1156c ; xQueueReceive + 64
        0x00011636:    4620         F      MOV      r0,r4
        0x00011638:    f7fff85d    ..].    BL       prvUnlockQueue ; 0x106f6
        0x0001163c:    f000f95a    ..Z.    BL       xTaskResumeAll ; 0x118f4
        0x00011640:    e794        ..      B        0x1156c ; xQueueReceive + 64
        0x00011642:    4620         F      MOV      r0,r4
        0x00011644:    f7fff857    ..W.    BL       prvUnlockQueue ; 0x106f6
        0x00011648:    f000f954    ..T.    BL       xTaskResumeAll ; 0x118f4
        0x0001164c:    4620         F      MOV      r0,r4
        0x0001164e:    f7fefec5    ....    BL       prvIsQueueEmpty ; 0x103dc
        0x00011652:    2800        .(      CMP      r0,#0
        0x00011654:    d08a        ..      BEQ      0x1156c ; xQueueReceive + 64
        0x00011656:    2000        .       MOVS     r0,#0
        0x00011658:    e7a8        ..      B        0x115ac ; xQueueReceive + 128
    $d
        0x0001165a:    0000        ..      DCW    0
        0x0001165c:    e000ed04    ....    DCD    3758157060
    $t
    i.xTaskCheckForTimeOut
    xTaskCheckForTimeOut
        0x00011660:    b570        p.      PUSH     {r4-r6,lr}
        0x00011662:    4605        .F      MOV      r5,r0
        0x00011664:    460c        .F      MOV      r4,r1
        0x00011666:    b90d        ..      CBNZ     r5,0x1166c ; xTaskCheckForTimeOut + 12
        0x00011668:    bf00        ..      NOP      
        0x0001166a:    e7fe        ..      B        0x1166a ; xTaskCheckForTimeOut + 10
        0x0001166c:    b90c        ..      CBNZ     r4,0x11672 ; xTaskCheckForTimeOut + 18
        0x0001166e:    bf00        ..      NOP      
        0x00011670:    e7fe        ..      B        0x11670 ; xTaskCheckForTimeOut + 16
        0x00011672:    f7fffa03    ....    BL       vPortEnterCritical ; 0x10a7c
        0x00011676:    4812        .H      LDR      r0,[pc,#72] ; [0x116c0] = 0x10013094
        0x00011678:    6802        .h      LDR      r2,[r0,#0]
        0x0001167a:    6868        hh      LDR      r0,[r5,#4]
        0x0001167c:    1a13        ..      SUBS     r3,r2,r0
        0x0001167e:    6820         h      LDR      r0,[r4,#0]
        0x00011680:    1c40        @.      ADDS     r0,r0,#1
        0x00011682:    b908        ..      CBNZ     r0,0x11688 ; xTaskCheckForTimeOut + 40
        0x00011684:    2600        .&      MOVS     r6,#0
        0x00011686:    e017        ..      B        0x116b8 ; xTaskCheckForTimeOut + 88
        0x00011688:    490e        .I      LDR      r1,[pc,#56] ; [0x116c4] = 0x100130a8
        0x0001168a:    6828        (h      LDR      r0,[r5,#0]
        0x0001168c:    6809        .h      LDR      r1,[r1,#0]
        0x0001168e:    4288        .B      CMP      r0,r1
        0x00011690:    d004        ..      BEQ      0x1169c ; xTaskCheckForTimeOut + 60
        0x00011692:    6868        hh      LDR      r0,[r5,#4]
        0x00011694:    4290        .B      CMP      r0,r2
        0x00011696:    d801        ..      BHI      0x1169c ; xTaskCheckForTimeOut + 60
        0x00011698:    2601        .&      MOVS     r6,#1
        0x0001169a:    e00d        ..      B        0x116b8 ; xTaskCheckForTimeOut + 88
        0x0001169c:    6820         h      LDR      r0,[r4,#0]
        0x0001169e:    4298        .B      CMP      r0,r3
        0x000116a0:    d907        ..      BLS      0x116b2 ; xTaskCheckForTimeOut + 82
        0x000116a2:    6820         h      LDR      r0,[r4,#0]
        0x000116a4:    1ac0        ..      SUBS     r0,r0,r3
        0x000116a6:    6020         `      STR      r0,[r4,#0]
        0x000116a8:    4628        (F      MOV      r0,r5
        0x000116aa:    f7fffb3f    ..?.    BL       vTaskInternalSetTimeOutState ; 0x10d2c
        0x000116ae:    2600        .&      MOVS     r6,#0
        0x000116b0:    e002        ..      B        0x116b8 ; xTaskCheckForTimeOut + 88
        0x000116b2:    2000        .       MOVS     r0,#0
        0x000116b4:    6020         `      STR      r0,[r4,#0]
        0x000116b6:    2601        .&      MOVS     r6,#1
        0x000116b8:    f7fffa02    ....    BL       vPortExitCritical ; 0x10ac0
        0x000116bc:    4630        0F      MOV      r0,r6
        0x000116be:    bd70        p.      POP      {r4-r6,pc}
    $d
        0x000116c0:    10013094    .0..    DCD    268513428
        0x000116c4:    100130a8    .0..    DCD    268513448
    $t
    i.xTaskCreate
    xTaskCreate
        0x000116c8:    e92d4fff    -..O    PUSH     {r0-r11,lr}
        0x000116cc:    b085        ..      SUB      sp,sp,#0x14
        0x000116ce:    4680        .F      MOV      r8,r0
        0x000116d0:    4689        .F      MOV      r9,r1
        0x000116d2:    4617        .F      MOV      r7,r2
        0x000116d4:    e9ddab12    ....    LDRD     r10,r11,[sp,#0x48]
        0x000116d8:    00b8        ..      LSLS     r0,r7,#2
        0x000116da:    f7fff84b    ..K.    BL       pvPortMalloc ; 0x10774
        0x000116de:    4606        .F      MOV      r6,r0
        0x000116e0:    b156        V.      CBZ      r6,0x116f8 ; xTaskCreate + 48
        0x000116e2:    204c        L       MOVS     r0,#0x4c
        0x000116e4:    f7fff846    ..F.    BL       pvPortMalloc ; 0x10774
        0x000116e8:    4604        .F      MOV      r4,r0
        0x000116ea:    b10c        ..      CBZ      r4,0x116f0 ; xTaskCreate + 40
        0x000116ec:    6326        &c      STR      r6,[r4,#0x30]
        0x000116ee:    e004        ..      B        0x116fa ; xTaskCreate + 50
        0x000116f0:    4630        0F      MOV      r0,r6
        0x000116f2:    f7fff9fb    ....    BL       vPortFree ; 0x10aec
        0x000116f6:    e000        ..      B        0x116fa ; xTaskCreate + 50
        0x000116f8:    2400        .$      MOVS     r4,#0
        0x000116fa:    b17c        |.      CBZ      r4,0x1171c ; xTaskCreate + 84
        0x000116fc:    2000        .       MOVS     r0,#0
        0x000116fe:    e9cdab00    ....    STRD     r10,r11,[sp,#0]
        0x00011702:    e9cd4002    ...@    STRD     r4,r0,[sp,#8]
        0x00011706:    463a        :F      MOV      r2,r7
        0x00011708:    4649        IF      MOV      r1,r9
        0x0001170a:    4640        @F      MOV      r0,r8
        0x0001170c:    9b08        ..      LDR      r3,[sp,#0x20]
        0x0001170e:    f7fefd9a    ....    BL       prvInitialiseNewTask ; 0x10246
        0x00011712:    4620         F      MOV      r0,r4
        0x00011714:    f7fefc30    ..0.    BL       prvAddNewTaskToReadyList ; 0xff78
        0x00011718:    2501        .%      MOVS     r5,#1
        0x0001171a:    e001        ..      B        0x11720 ; xTaskCreate + 88
        0x0001171c:    f04f35ff    O..5    MOV      r5,#0xffffffff
        0x00011720:    4628        (F      MOV      r0,r5
        0x00011722:    b009        ..      ADD      sp,sp,#0x24
        0x00011724:    e8bd8ff0    ....    POP      {r4-r11,pc}
    i.xTaskGetSchedulerState
    xTaskGetSchedulerState
        0x00011728:    4905        .I      LDR      r1,[pc,#20] ; [0x11740] = 0x1001309c
        0x0001172a:    6809        .h      LDR      r1,[r1,#0]
        0x0001172c:    b909        ..      CBNZ     r1,0x11732 ; xTaskGetSchedulerState + 10
        0x0001172e:    2001        .       MOVS     r0,#1
        0x00011730:    e005        ..      B        0x1173e ; xTaskGetSchedulerState + 22
        0x00011732:    4904        .I      LDR      r1,[pc,#16] ; [0x11744] = 0x100130b8
        0x00011734:    6809        .h      LDR      r1,[r1,#0]
        0x00011736:    b909        ..      CBNZ     r1,0x1173c ; xTaskGetSchedulerState + 20
        0x00011738:    2002        .       MOVS     r0,#2
        0x0001173a:    e000        ..      B        0x1173e ; xTaskGetSchedulerState + 22
        0x0001173c:    2000        .       MOVS     r0,#0
        0x0001173e:    4770        pG      BX       lr
    $d
        0x00011740:    1001309c    .0..    DCD    268513436
        0x00011744:    100130b8    .0..    DCD    268513464
    $t
    i.xTaskGetTickCount
    xTaskGetTickCount
        0x00011748:    4901        .I      LDR      r1,[pc,#4] ; [0x11750] = 0x10013094
        0x0001174a:    6808        .h      LDR      r0,[r1,#0]
        0x0001174c:    4770        pG      BX       lr
    $d
        0x0001174e:    0000        ..      DCW    0
        0x00011750:    10013094    .0..    DCD    268513428
    $t
    i.xTaskIncrementTick
    xTaskIncrementTick
        0x00011754:    e92d41f0    -..A    PUSH     {r4-r8,lr}
        0x00011758:    f04f0800    O...    MOV      r8,#0
        0x0001175c:    4838        8H      LDR      r0,[pc,#224] ; [0x11840] = 0x100130b8
        0x0001175e:    6800        .h      LDR      r0,[r0,#0]
        0x00011760:    2800        .(      CMP      r0,#0
        0x00011762:    d160        `.      BNE      0x11826 ; xTaskIncrementTick + 210
        0x00011764:    4837        7H      LDR      r0,[pc,#220] ; [0x11844] = 0x10013094
        0x00011766:    6800        .h      LDR      r0,[r0,#0]
        0x00011768:    1c45        E.      ADDS     r5,r0,#1
        0x0001176a:    4836        6H      LDR      r0,[pc,#216] ; [0x11844] = 0x10013094
        0x0001176c:    6005        .`      STR      r5,[r0,#0]
        0x0001176e:    b9cd        ..      CBNZ     r5,0x117a4 ; xTaskIncrementTick + 80
        0x00011770:    4835        5H      LDR      r0,[pc,#212] ; [0x11848] = 0x10013088
        0x00011772:    6800        .h      LDR      r0,[r0,#0]
        0x00011774:    6800        .h      LDR      r0,[r0,#0]
        0x00011776:    b908        ..      CBNZ     r0,0x1177c ; xTaskIncrementTick + 40
        0x00011778:    2001        .       MOVS     r0,#1
        0x0001177a:    e000        ..      B        0x1177e ; xTaskIncrementTick + 42
        0x0001177c:    2000        .       MOVS     r0,#0
        0x0001177e:    b908        ..      CBNZ     r0,0x11784 ; xTaskIncrementTick + 48
        0x00011780:    bf00        ..      NOP      
        0x00011782:    e7fe        ..      B        0x11782 ; xTaskIncrementTick + 46
        0x00011784:    4830        0H      LDR      r0,[pc,#192] ; [0x11848] = 0x10013088
        0x00011786:    6807        .h      LDR      r7,[r0,#0]
        0x00011788:    4830        0H      LDR      r0,[pc,#192] ; [0x1184c] = 0x1001308c
        0x0001178a:    6800        .h      LDR      r0,[r0,#0]
        0x0001178c:    492e        .I      LDR      r1,[pc,#184] ; [0x11848] = 0x10013088
        0x0001178e:    6008        .`      STR      r0,[r1,#0]
        0x00011790:    482e        .H      LDR      r0,[pc,#184] ; [0x1184c] = 0x1001308c
        0x00011792:    6007        .`      STR      r7,[r0,#0]
        0x00011794:    482e        .H      LDR      r0,[pc,#184] ; [0x11850] = 0x100130a8
        0x00011796:    6800        .h      LDR      r0,[r0,#0]
        0x00011798:    1c40        @.      ADDS     r0,r0,#1
        0x0001179a:    492d        -I      LDR      r1,[pc,#180] ; [0x11850] = 0x100130a8
        0x0001179c:    6008        .`      STR      r0,[r1,#0]
        0x0001179e:    f7feff0f    ....    BL       prvResetNextTaskUnblockTime ; 0x105c0
        0x000117a2:    bf00        ..      NOP      
        0x000117a4:    482b        +H      LDR      r0,[pc,#172] ; [0x11854] = 0x100130b0
        0x000117a6:    6800        .h      LDR      r0,[r0,#0]
        0x000117a8:    4285        .B      CMP      r5,r0
        0x000117aa:    d33b        ;.      BCC      0x11824 ; xTaskIncrementTick + 208
        0x000117ac:    bf00        ..      NOP      
        0x000117ae:    4826        &H      LDR      r0,[pc,#152] ; [0x11848] = 0x10013088
        0x000117b0:    6800        .h      LDR      r0,[r0,#0]
        0x000117b2:    6800        .h      LDR      r0,[r0,#0]
        0x000117b4:    b908        ..      CBNZ     r0,0x117ba ; xTaskIncrementTick + 102
        0x000117b6:    2001        .       MOVS     r0,#1
        0x000117b8:    e000        ..      B        0x117bc ; xTaskIncrementTick + 104
        0x000117ba:    2000        .       MOVS     r0,#0
        0x000117bc:    b120         .      CBZ      r0,0x117c8 ; xTaskIncrementTick + 116
        0x000117be:    f04f30ff    O..0    MOV      r0,#0xffffffff
        0x000117c2:    4924        $I      LDR      r1,[pc,#144] ; [0x11854] = 0x100130b0
        0x000117c4:    6008        .`      STR      r0,[r1,#0]
        0x000117c6:    e02c        ,.      B        0x11822 ; xTaskIncrementTick + 206
        0x000117c8:    481f        .H      LDR      r0,[pc,#124] ; [0x11848] = 0x10013088
        0x000117ca:    6800        .h      LDR      r0,[r0,#0]
        0x000117cc:    68c0        .h      LDR      r0,[r0,#0xc]
        0x000117ce:    68c4        .h      LDR      r4,[r0,#0xc]
        0x000117d0:    6866        fh      LDR      r6,[r4,#4]
        0x000117d2:    42b5        .B      CMP      r5,r6
        0x000117d4:    d202        ..      BCS      0x117dc ; xTaskIncrementTick + 136
        0x000117d6:    481f        .H      LDR      r0,[pc,#124] ; [0x11854] = 0x100130b0
        0x000117d8:    6006        .`      STR      r6,[r0,#0]
        0x000117da:    e022        ".      B        0x11822 ; xTaskIncrementTick + 206
        0x000117dc:    1d20         .      ADDS     r0,r4,#4
        0x000117de:    f7fff8f6    ....    BL       uxListRemove ; 0x109ce
        0x000117e2:    6aa0        .j      LDR      r0,[r4,#0x28]
        0x000117e4:    b118        ..      CBZ      r0,0x117ee ; xTaskIncrementTick + 154
        0x000117e6:    f1040018    ....    ADD      r0,r4,#0x18
        0x000117ea:    f7fff8f0    ....    BL       uxListRemove ; 0x109ce
        0x000117ee:    491a        .I      LDR      r1,[pc,#104] ; [0x11858] = 0x10013098
        0x000117f0:    6ae0        .j      LDR      r0,[r4,#0x2c]
        0x000117f2:    6809        .h      LDR      r1,[r1,#0]
        0x000117f4:    4288        .B      CMP      r0,r1
        0x000117f6:    d902        ..      BLS      0x117fe ; xTaskIncrementTick + 170
        0x000117f8:    4917        .I      LDR      r1,[pc,#92] ; [0x11858] = 0x10013098
        0x000117fa:    6ae0        .j      LDR      r0,[r4,#0x2c]
        0x000117fc:    6008        .`      STR      r0,[r1,#0]
        0x000117fe:    6ae1        .j      LDR      r1,[r4,#0x2c]
        0x00011800:    eb010181    ....    ADD      r1,r1,r1,LSL #2
        0x00011804:    4a15        .J      LDR      r2,[pc,#84] ; [0x1185c] = 0x10018360
        0x00011806:    eb020081    ....    ADD      r0,r2,r1,LSL #2
        0x0001180a:    1d21        !.      ADDS     r1,r4,#4
        0x0001180c:    f7fff92a    ..*.    BL       vListInsertEnd ; 0x10a64
        0x00011810:    4913        .I      LDR      r1,[pc,#76] ; [0x11860] = 0x10013084
        0x00011812:    6ae0        .j      LDR      r0,[r4,#0x2c]
        0x00011814:    6809        .h      LDR      r1,[r1,#0]
        0x00011816:    6ac9        .j      LDR      r1,[r1,#0x2c]
        0x00011818:    4288        .B      CMP      r0,r1
        0x0001181a:    d3c8        ..      BCC      0x117ae ; xTaskIncrementTick + 90
        0x0001181c:    f04f0801    O...    MOV      r8,#1
        0x00011820:    e7c5        ..      B        0x117ae ; xTaskIncrementTick + 90
        0x00011822:    bf00        ..      NOP      
        0x00011824:    e004        ..      B        0x11830 ; xTaskIncrementTick + 220
        0x00011826:    480f        .H      LDR      r0,[pc,#60] ; [0x11864] = 0x100130a0
        0x00011828:    6800        .h      LDR      r0,[r0,#0]
        0x0001182a:    1c40        @.      ADDS     r0,r0,#1
        0x0001182c:    490d        .I      LDR      r1,[pc,#52] ; [0x11864] = 0x100130a0
        0x0001182e:    6008        .`      STR      r0,[r1,#0]
        0x00011830:    480d        .H      LDR      r0,[pc,#52] ; [0x11868] = 0x100130a4
        0x00011832:    6800        .h      LDR      r0,[r0,#0]
        0x00011834:    b108        ..      CBZ      r0,0x1183a ; xTaskIncrementTick + 230
        0x00011836:    f04f0801    O...    MOV      r8,#1
        0x0001183a:    4640        @F      MOV      r0,r8
        0x0001183c:    e8bd81f0    ....    POP      {r4-r8,pc}
    $d
        0x00011840:    100130b8    .0..    DCD    268513464
        0x00011844:    10013094    .0..    DCD    268513428
        0x00011848:    10013088    .0..    DCD    268513416
        0x0001184c:    1001308c    .0..    DCD    268513420
        0x00011850:    100130a8    .0..    DCD    268513448
        0x00011854:    100130b0    .0..    DCD    268513456
        0x00011858:    10013098    .0..    DCD    268513432
        0x0001185c:    10018360    `...    DCD    268534624
        0x00011860:    10013084    .0..    DCD    268513412
        0x00011864:    100130a0    .0..    DCD    268513440
        0x00011868:    100130a4    .0..    DCD    268513444
    $t
    i.xTaskRemoveFromEventList
    xTaskRemoveFromEventList
        0x0001186c:    b570        p.      PUSH     {r4-r6,lr}
        0x0001186e:    4606        .F      MOV      r6,r0
        0x00011870:    68f0        .h      LDR      r0,[r6,#0xc]
        0x00011872:    68c4        .h      LDR      r4,[r0,#0xc]
        0x00011874:    b90c        ..      CBNZ     r4,0x1187a ; xTaskRemoveFromEventList + 14
        0x00011876:    bf00        ..      NOP      
        0x00011878:    e7fe        ..      B        0x11878 ; xTaskRemoveFromEventList + 12
        0x0001187a:    f1040018    ....    ADD      r0,r4,#0x18
        0x0001187e:    f7fff8a6    ....    BL       uxListRemove ; 0x109ce
        0x00011882:    4816        .H      LDR      r0,[pc,#88] ; [0x118dc] = 0x100130b8
        0x00011884:    6800        .h      LDR      r0,[r0,#0]
        0x00011886:    b9a0        ..      CBNZ     r0,0x118b2 ; xTaskRemoveFromEventList + 70
        0x00011888:    1d20         .      ADDS     r0,r4,#4
        0x0001188a:    f7fff8a0    ....    BL       uxListRemove ; 0x109ce
        0x0001188e:    4914        .I      LDR      r1,[pc,#80] ; [0x118e0] = 0x10013098
        0x00011890:    6ae0        .j      LDR      r0,[r4,#0x2c]
        0x00011892:    6809        .h      LDR      r1,[r1,#0]
        0x00011894:    4288        .B      CMP      r0,r1
        0x00011896:    d902        ..      BLS      0x1189e ; xTaskRemoveFromEventList + 50
        0x00011898:    4911        .I      LDR      r1,[pc,#68] ; [0x118e0] = 0x10013098
        0x0001189a:    6ae0        .j      LDR      r0,[r4,#0x2c]
        0x0001189c:    6008        .`      STR      r0,[r1,#0]
        0x0001189e:    6ae1        .j      LDR      r1,[r4,#0x2c]
        0x000118a0:    eb010181    ....    ADD      r1,r1,r1,LSL #2
        0x000118a4:    4a0f        .J      LDR      r2,[pc,#60] ; [0x118e4] = 0x10018360
        0x000118a6:    eb020081    ....    ADD      r0,r2,r1,LSL #2
        0x000118aa:    1d21        !.      ADDS     r1,r4,#4
        0x000118ac:    f7fff8da    ....    BL       vListInsertEnd ; 0x10a64
        0x000118b0:    e004        ..      B        0x118bc ; xTaskRemoveFromEventList + 80
        0x000118b2:    f1040118    ....    ADD      r1,r4,#0x18
        0x000118b6:    480c        .H      LDR      r0,[pc,#48] ; [0x118e8] = 0x100183d8
        0x000118b8:    f7fff8d4    ....    BL       vListInsertEnd ; 0x10a64
        0x000118bc:    490b        .I      LDR      r1,[pc,#44] ; [0x118ec] = 0x10013084
        0x000118be:    6ae0        .j      LDR      r0,[r4,#0x2c]
        0x000118c0:    6809        .h      LDR      r1,[r1,#0]
        0x000118c2:    6ac9        .j      LDR      r1,[r1,#0x2c]
        0x000118c4:    4288        .B      CMP      r0,r1
        0x000118c6:    d904        ..      BLS      0x118d2 ; xTaskRemoveFromEventList + 102
        0x000118c8:    2501        .%      MOVS     r5,#1
        0x000118ca:    2001        .       MOVS     r0,#1
        0x000118cc:    4908        .I      LDR      r1,[pc,#32] ; [0x118f0] = 0x100130a4
        0x000118ce:    6008        .`      STR      r0,[r1,#0]
        0x000118d0:    e000        ..      B        0x118d4 ; xTaskRemoveFromEventList + 104
        0x000118d2:    2500        .%      MOVS     r5,#0
        0x000118d4:    f7fefe74    ..t.    BL       prvResetNextTaskUnblockTime ; 0x105c0
        0x000118d8:    4628        (F      MOV      r0,r5
        0x000118da:    bd70        p.      POP      {r4-r6,pc}
    $d
        0x000118dc:    100130b8    .0..    DCD    268513464
        0x000118e0:    10013098    .0..    DCD    268513432
        0x000118e4:    10018360    `...    DCD    268534624
        0x000118e8:    100183d8    ....    DCD    268534744
        0x000118ec:    10013084    .0..    DCD    268513412
        0x000118f0:    100130a4    .0..    DCD    268513444
    $t
    i.xTaskResumeAll
    xTaskResumeAll
        0x000118f4:    b570        p.      PUSH     {r4-r6,lr}
        0x000118f6:    2400        .$      MOVS     r4,#0
        0x000118f8:    2600        .&      MOVS     r6,#0
        0x000118fa:    4831        1H      LDR      r0,[pc,#196] ; [0x119c0] = 0x100130b8
        0x000118fc:    6800        .h      LDR      r0,[r0,#0]
        0x000118fe:    b908        ..      CBNZ     r0,0x11904 ; xTaskResumeAll + 16
        0x00011900:    bf00        ..      NOP      
        0x00011902:    e7fe        ..      B        0x11902 ; xTaskResumeAll + 14
        0x00011904:    f7fff8ba    ....    BL       vPortEnterCritical ; 0x10a7c
        0x00011908:    482d        -H      LDR      r0,[pc,#180] ; [0x119c0] = 0x100130b8
        0x0001190a:    6800        .h      LDR      r0,[r0,#0]
        0x0001190c:    1e40        @.      SUBS     r0,r0,#1
        0x0001190e:    492c        ,I      LDR      r1,[pc,#176] ; [0x119c0] = 0x100130b8
        0x00011910:    6008        .`      STR      r0,[r1,#0]
        0x00011912:    4608        .F      MOV      r0,r1
        0x00011914:    6800        .h      LDR      r0,[r0,#0]
        0x00011916:    2800        .(      CMP      r0,#0
        0x00011918:    d14e        N.      BNE      0x119b8 ; xTaskResumeAll + 196
        0x0001191a:    482a        *H      LDR      r0,[pc,#168] ; [0x119c4] = 0x10013090
        0x0001191c:    6800        .h      LDR      r0,[r0,#0]
        0x0001191e:    2800        .(      CMP      r0,#0
        0x00011920:    d04a        J.      BEQ      0x119b8 ; xTaskResumeAll + 196
        0x00011922:    e023        #.      B        0x1196c ; xTaskResumeAll + 120
        0x00011924:    4828        (H      LDR      r0,[pc,#160] ; [0x119c8] = 0x100183d8
        0x00011926:    68c0        .h      LDR      r0,[r0,#0xc]
        0x00011928:    68c4        .h      LDR      r4,[r0,#0xc]
        0x0001192a:    f1040018    ....    ADD      r0,r4,#0x18
        0x0001192e:    f7fff84e    ..N.    BL       uxListRemove ; 0x109ce
        0x00011932:    1d20         .      ADDS     r0,r4,#4
        0x00011934:    f7fff84b    ..K.    BL       uxListRemove ; 0x109ce
        0x00011938:    4924        $I      LDR      r1,[pc,#144] ; [0x119cc] = 0x10013098
        0x0001193a:    6ae0        .j      LDR      r0,[r4,#0x2c]
        0x0001193c:    6809        .h      LDR      r1,[r1,#0]
        0x0001193e:    4288        .B      CMP      r0,r1
        0x00011940:    d902        ..      BLS      0x11948 ; xTaskResumeAll + 84
        0x00011942:    4922        "I      LDR      r1,[pc,#136] ; [0x119cc] = 0x10013098
        0x00011944:    6ae0        .j      LDR      r0,[r4,#0x2c]
        0x00011946:    6008        .`      STR      r0,[r1,#0]
        0x00011948:    6ae1        .j      LDR      r1,[r4,#0x2c]
        0x0001194a:    eb010181    ....    ADD      r1,r1,r1,LSL #2
        0x0001194e:    4a20         J      LDR      r2,[pc,#128] ; [0x119d0] = 0x10018360
        0x00011950:    eb020081    ....    ADD      r0,r2,r1,LSL #2
        0x00011954:    1d21        !.      ADDS     r1,r4,#4
        0x00011956:    f7fff885    ....    BL       vListInsertEnd ; 0x10a64
        0x0001195a:    491e        .I      LDR      r1,[pc,#120] ; [0x119d4] = 0x10013084
        0x0001195c:    6ae0        .j      LDR      r0,[r4,#0x2c]
        0x0001195e:    6809        .h      LDR      r1,[r1,#0]
        0x00011960:    6ac9        .j      LDR      r1,[r1,#0x2c]
        0x00011962:    4288        .B      CMP      r0,r1
        0x00011964:    d302        ..      BCC      0x1196c ; xTaskResumeAll + 120
        0x00011966:    2001        .       MOVS     r0,#1
        0x00011968:    491b        .I      LDR      r1,[pc,#108] ; [0x119d8] = 0x100130a4
        0x0001196a:    6008        .`      STR      r0,[r1,#0]
        0x0001196c:    4816        .H      LDR      r0,[pc,#88] ; [0x119c8] = 0x100183d8
        0x0001196e:    6800        .h      LDR      r0,[r0,#0]
        0x00011970:    b908        ..      CBNZ     r0,0x11976 ; xTaskResumeAll + 130
        0x00011972:    2001        .       MOVS     r0,#1
        0x00011974:    e000        ..      B        0x11978 ; xTaskResumeAll + 132
        0x00011976:    2000        .       MOVS     r0,#0
        0x00011978:    2800        .(      CMP      r0,#0
        0x0001197a:    d0d3        ..      BEQ      0x11924 ; xTaskResumeAll + 48
        0x0001197c:    b10c        ..      CBZ      r4,0x11982 ; xTaskResumeAll + 142
        0x0001197e:    f7fefe1f    ....    BL       prvResetNextTaskUnblockTime ; 0x105c0
        0x00011982:    4816        .H      LDR      r0,[pc,#88] ; [0x119dc] = 0x100130a0
        0x00011984:    6805        .h      LDR      r5,[r0,#0]
        0x00011986:    b165        e.      CBZ      r5,0x119a2 ; xTaskResumeAll + 174
        0x00011988:    bf00        ..      NOP      
        0x0001198a:    f7fffee3    ....    BL       xTaskIncrementTick ; 0x11754
        0x0001198e:    b110        ..      CBZ      r0,0x11996 ; xTaskResumeAll + 162
        0x00011990:    2001        .       MOVS     r0,#1
        0x00011992:    4911        .I      LDR      r1,[pc,#68] ; [0x119d8] = 0x100130a4
        0x00011994:    6008        .`      STR      r0,[r1,#0]
        0x00011996:    1e6d        m.      SUBS     r5,r5,#1
        0x00011998:    2d00        .-      CMP      r5,#0
        0x0001199a:    d1f6        ..      BNE      0x1198a ; xTaskResumeAll + 150
        0x0001199c:    2000        .       MOVS     r0,#0
        0x0001199e:    490f        .I      LDR      r1,[pc,#60] ; [0x119dc] = 0x100130a0
        0x000119a0:    6008        .`      STR      r0,[r1,#0]
        0x000119a2:    480d        .H      LDR      r0,[pc,#52] ; [0x119d8] = 0x100130a4
        0x000119a4:    6800        .h      LDR      r0,[r0,#0]
        0x000119a6:    b138        8.      CBZ      r0,0x119b8 ; xTaskResumeAll + 196
        0x000119a8:    2601        .&      MOVS     r6,#1
        0x000119aa:    0730        0.      LSLS     r0,r6,#28
        0x000119ac:    490c        .I      LDR      r1,[pc,#48] ; [0x119e0] = 0xe000ed04
        0x000119ae:    6008        .`      STR      r0,[r1,#0]
        0x000119b0:    f3bf8f4f    ..O.    DSB      
        0x000119b4:    f3bf8f6f    ..o.    ISB      
        0x000119b8:    f7fff882    ....    BL       vPortExitCritical ; 0x10ac0
        0x000119bc:    4630        0F      MOV      r0,r6
        0x000119be:    bd70        p.      POP      {r4-r6,pc}
    $d
        0x000119c0:    100130b8    .0..    DCD    268513464
        0x000119c4:    10013090    .0..    DCD    268513424
        0x000119c8:    100183d8    ....    DCD    268534744
        0x000119cc:    10013098    .0..    DCD    268513432
        0x000119d0:    10018360    `...    DCD    268534624
        0x000119d4:    10013084    .0..    DCD    268513412
        0x000119d8:    100130a4    .0..    DCD    268513444
        0x000119dc:    100130a0    .0..    DCD    268513440
        0x000119e0:    e000ed04    ....    DCD    3758157060
    $t
    i.xTimerCreate
    xTimerCreate
        0x000119e4:    e92d47fc    -..G    PUSH     {r2-r10,lr}
        0x000119e8:    4605        .F      MOV      r5,r0
        0x000119ea:    460e        .F      MOV      r6,r1
        0x000119ec:    4617        .F      MOV      r7,r2
        0x000119ee:    4698        .F      MOV      r8,r3
        0x000119f0:    f8dd9028    ..(.    LDR      r9,[sp,#0x28]
        0x000119f4:    2028        (       MOVS     r0,#0x28
        0x000119f6:    f7fefebd    ....    BL       pvPortMalloc ; 0x10774
        0x000119fa:    4604        .F      MOV      r4,r0
        0x000119fc:    b13c        <.      CBZ      r4,0x11a0e ; xTimerCreate + 42
        0x000119fe:    4643        CF      MOV      r3,r8
        0x00011a00:    463a        :F      MOV      r2,r7
        0x00011a02:    4631        1F      MOV      r1,r6
        0x00011a04:    4628        (F      MOV      r0,r5
        0x00011a06:    e9cd9400    ....    STRD     r9,r4,[sp,#0]
        0x00011a0a:    f7fefc6f    ..o.    BL       prvInitialiseNewTimer ; 0x102ec
        0x00011a0e:    4620         F      MOV      r0,r4
        0x00011a10:    e8bd87fc    ....    POP      {r2-r10,pc}
    i.xTimerCreateTimerTask
    xTimerCreateTimerTask
        0x00011a14:    b51c        ..      PUSH     {r2-r4,lr}
        0x00011a16:    2400        .$      MOVS     r4,#0
        0x00011a18:    f7fefb06    ....    BL       prvCheckForValidListAndQueue ; 0x10028
        0x00011a1c:    4809        .H      LDR      r0,[pc,#36] ; [0x11a44] = 0x100130c4
        0x00011a1e:    6800        .h      LDR      r0,[r0,#0]
        0x00011a20:    b158        X.      CBZ      r0,0x11a3a ; xTimerCreateTimerTask + 38
        0x00011a22:    4809        .H      LDR      r0,[pc,#36] ; [0x11a48] = 0x100130c8
        0x00011a24:    2103        .!      MOVS     r1,#3
        0x00011a26:    2300        .#      MOVS     r3,#0
        0x00011a28:    f44f7280    O..r    MOV      r2,#0x100
        0x00011a2c:    e9cd1000    ....    STRD     r1,r0,[sp,#0]
        0x00011a30:    a106        ..      ADR      r1,{pc}+0x1c ; 0x11a4c
        0x00011a32:    4808        .H      LDR      r0,[pc,#32] ; [0x11a54] = 0x106dd
        0x00011a34:    f7fffe48    ..H.    BL       xTaskCreate ; 0x116c8
        0x00011a38:    4604        .F      MOV      r4,r0
        0x00011a3a:    b90c        ..      CBNZ     r4,0x11a40 ; xTimerCreateTimerTask + 44
        0x00011a3c:    bf00        ..      NOP      
        0x00011a3e:    e7fe        ..      B        0x11a3e ; xTimerCreateTimerTask + 42
        0x00011a40:    4620         F      MOV      r0,r4
        0x00011a42:    bd1c        ..      POP      {r2-r4,pc}
    $d
        0x00011a44:    100130c4    .0..    DCD    268513476
        0x00011a48:    100130c8    .0..    DCD    268513480
        0x00011a4c:    20726d54    Tmr     DCD    544370004
        0x00011a50:    00637653    Svc.    DCD    6518355
        0x00011a54:    000106dd    ....    DCD    67293
    $t
    i.xTimerGenericCommand
    xTimerGenericCommand
        0x00011a58:    e92d47ff    -..G    PUSH     {r0-r10,lr}
        0x00011a5c:    4604        .F      MOV      r4,r0
        0x00011a5e:    460d        .F      MOV      r5,r1
        0x00011a60:    4616        .F      MOV      r6,r2
        0x00011a62:    461f        .F      MOV      r7,r3
        0x00011a64:    f8dd8030    ..0.    LDR      r8,[sp,#0x30]
        0x00011a68:    f04f0900    O...    MOV      r9,#0
        0x00011a6c:    b90c        ..      CBNZ     r4,0x11a72 ; xTimerGenericCommand + 26
        0x00011a6e:    bf00        ..      NOP      
        0x00011a70:    e7fe        ..      B        0x11a70 ; xTimerGenericCommand + 24
        0x00011a72:    4815        .H      LDR      r0,[pc,#84] ; [0x11ac8] = 0x100130c4
        0x00011a74:    6800        .h      LDR      r0,[r0,#0]
        0x00011a76:    b310        ..      CBZ      r0,0x11abe ; xTimerGenericCommand + 102
        0x00011a78:    9500        ..      STR      r5,[sp,#0]
        0x00011a7a:    9601        ..      STR      r6,[sp,#4]
        0x00011a7c:    9402        ..      STR      r4,[sp,#8]
        0x00011a7e:    2d06        .-      CMP      r5,#6
        0x00011a80:    da15        ..      BGE      0x11aae ; xTimerGenericCommand + 86
        0x00011a82:    f7fffe51    ..Q.    BL       xTaskGetSchedulerState ; 0x11728
        0x00011a86:    2802        .(      CMP      r0,#2
        0x00011a88:    d108        ..      BNE      0x11a9c ; xTimerGenericCommand + 68
        0x00011a8a:    2300        .#      MOVS     r3,#0
        0x00011a8c:    4642        BF      MOV      r2,r8
        0x00011a8e:    4669        iF      MOV      r1,sp
        0x00011a90:    480d        .H      LDR      r0,[pc,#52] ; [0x11ac8] = 0x100130c4
        0x00011a92:    6800        .h      LDR      r0,[r0,#0]
        0x00011a94:    f7fffc38    ..8.    BL       xQueueGenericSend ; 0x11308
        0x00011a98:    4681        .F      MOV      r9,r0
        0x00011a9a:    e010        ..      B        0x11abe ; xTimerGenericCommand + 102
        0x00011a9c:    2300        .#      MOVS     r3,#0
        0x00011a9e:    461a        .F      MOV      r2,r3
        0x00011aa0:    4669        iF      MOV      r1,sp
        0x00011aa2:    4809        .H      LDR      r0,[pc,#36] ; [0x11ac8] = 0x100130c4
        0x00011aa4:    6800        .h      LDR      r0,[r0,#0]
        0x00011aa6:    f7fffc2f    ../.    BL       xQueueGenericSend ; 0x11308
        0x00011aaa:    4681        .F      MOV      r9,r0
        0x00011aac:    e007        ..      B        0x11abe ; xTimerGenericCommand + 102
        0x00011aae:    2300        .#      MOVS     r3,#0
        0x00011ab0:    463a        :F      MOV      r2,r7
        0x00011ab2:    4669        iF      MOV      r1,sp
        0x00011ab4:    4804        .H      LDR      r0,[pc,#16] ; [0x11ac8] = 0x100130c4
        0x00011ab6:    6800        .h      LDR      r0,[r0,#0]
        0x00011ab8:    f7fffcd6    ....    BL       xQueueGenericSendFromISR ; 0x11468
        0x00011abc:    4681        .F      MOV      r9,r0
        0x00011abe:    4648        HF      MOV      r0,r9
        0x00011ac0:    b004        ..      ADD      sp,sp,#0x10
        0x00011ac2:    e8bd87f0    ....    POP      {r4-r10,pc}
    $d
        0x00011ac6:    0000        ..      DCW    0
        0x00011ac8:    100130c4    .0..    DCD    268513476
    $t
    i.xTimerPendFunctionCallFromISR
    xTimerPendFunctionCallFromISR
        0x00011acc:    e92d41ff    -..A    PUSH     {r0-r8,lr}
        0x00011ad0:    4604        .F      MOV      r4,r0
        0x00011ad2:    460d        .F      MOV      r5,r1
        0x00011ad4:    4616        .F      MOV      r6,r2
        0x00011ad6:    461f        .F      MOV      r7,r3
        0x00011ad8:    f06f0001    o...    MVN      r0,#1
        0x00011adc:    9000        ..      STR      r0,[sp,#0]
        0x00011ade:    9401        ..      STR      r4,[sp,#4]
        0x00011ae0:    9502        ..      STR      r5,[sp,#8]
        0x00011ae2:    9603        ..      STR      r6,[sp,#0xc]
        0x00011ae4:    2300        .#      MOVS     r3,#0
        0x00011ae6:    463a        :F      MOV      r2,r7
        0x00011ae8:    4669        iF      MOV      r1,sp
        0x00011aea:    4804        .H      LDR      r0,[pc,#16] ; [0x11afc] = 0x100130c4
        0x00011aec:    6800        .h      LDR      r0,[r0,#0]
        0x00011aee:    f7fffcbb    ....    BL       xQueueGenericSendFromISR ; 0x11468
        0x00011af2:    4680        .F      MOV      r8,r0
        0x00011af4:    4640        @F      MOV      r0,r8
        0x00011af6:    b004        ..      ADD      sp,sp,#0x10
        0x00011af8:    e8bd81f0    ....    POP      {r4-r8,pc}
    $d
        0x00011afc:    100130c4    .0..    DCD    268513476
    $t
    x$fpl$d2f
    $v0
    __aeabi_d2f
    _d2f
        0x00011b00:    f0214200    !..B    BIC      r2,r1,#0x80000000
        0x00011b04:    f1a25260    ..`R    SUB      r2,r2,#0x38000000
        0x00011b08:    f5b21f80    ....    CMP      r2,#0x100000
        0x00011b0c:    f0014300    ...C    AND      r3,r1,#0x80000000
        0x00011b10:    bf28        (.      IT       CS
        0x00011b12:    f1d26c7f    ...l    RSBSCS   r12,r2,#0xff00000
        0x00011b16:    d90b        ..      BLS      0x11b30 ; __aeabi_d2f + 48
        0x00011b18:    ea5f1c00    _...    LSLS     r12,r0,#4
        0x00011b1c:    ea4302c2    C...    ORR      r2,r3,r2,LSL #3
        0x00011b20:    eb427050    B.Pp    ADC      r0,r2,r0,LSR #29
        0x00011b24:    bf18        ..      IT       NE
        0x00011b26:    4770        pG      BXNE     lr
        0x00011b28:    bf28        (.      IT       CS
        0x00011b2a:    f0200001     ...    BICCS    r0,r0,#1
        0x00011b2e:    4770        pG      BX       lr
        0x00011b30:    f5b21f80    ....    CMP      r2,#0x100000
        0x00011b34:    bfbc        ..      ITT      LT
        0x00011b36:    4618        .F      MOVLT    r0,r3
        0x00011b38:    4770        pG      BXLT     lr
        0x00011b3a:    ea4f0c41    O.A.    LSL      r12,r1,#1
        0x00011b3e:    f51c1f00    ....    CMN      r12,#0x200000
        0x00011b42:    d202        ..      BCS      0x11b4a ; __aeabi_d2f + 74
        0x00011b44:    4608        .F      MOV      r0,r1
        0x00011b46:    f000b85f    .._.    B.W      __fpl_fretinf ; 0x11c08
        0x00011b4a:    b570        p.      PUSH     {r4-r6,lr}
        0x00011b4c:    f000f809    ....    BL       __fpl_dnaninf ; 0x11b62
    $d
        0x00011b50:    89000000    ....    DCD    2298478592
    $t
        0x00011b54:    f7ffbff6    ....    B.W      0x11b44 ; __aeabi_d2f + 68
        0x00011b58:    f04f4000    O..@    MOV      r0,#0x80000000
        0x00011b5c:    f5a00080    ....    SUB      r0,r0,#0x400000
        0x00011b60:    4770        pG      BX       lr
    x$fpl$dnaninf
    $v0
    __fpl_dnaninf
        0x00011b62:    f10e0e02    ....    ADD      lr,lr,#2
        0x00011b66:    f02e0e03    ....    BIC      lr,lr,#3
        0x00011b6a:    f85e6b04    ^..k    LDR      r6,[lr],#4
        0x00011b6e:    4236        6B      TST      r6,r6
        0x00011b70:    d405        ..      BMI      0x11b7e ; __fpl_dnaninf + 28
        0x00011b72:    2a01        .*      CMP      r2,#1
        0x00011b74:    eb430503    C...    ADC      r5,r3,r3
        0x00011b78:    f5151f00    ....    CMN      r5,#0x200000
        0x00011b7c:    d812        ..      BHI      0x11ba4 ; __fpl_dnaninf + 66
        0x00011b7e:    2801        .(      CMP      r0,#1
        0x00011b80:    eb410c01    A...    ADC      r12,r1,r1
        0x00011b84:    f51c1f00    ....    CMN      r12,#0x200000
        0x00011b88:    d80c        ..      BHI      0x11ba4 ; __fpl_dnaninf + 66
        0x00011b8a:    d10e        ..      BNE      0x11baa ; __fpl_dnaninf + 72
        0x00011b8c:    ea4f7cd1    O..|    LSR      r12,r1,#31
        0x00011b90:    f5151f00    ....    CMN      r5,#0x200000
        0x00011b94:    eb0c0c4c    ..L.    ADD      r12,r12,r12,LSL #1
        0x00011b98:    f10c0c02    ....    ADD      r12,r12,#2
        0x00011b9c:    bf08        ..      IT       EQ
        0x00011b9e:    eb4c7cd3    L..|    ADCEQ    r12,r12,r3,LSR #31
        0x00011ba2:    e004        ..      B        0x11bae ; __fpl_dnaninf + 76
        0x00011ba4:    f04f0c08    O...    MOV      r12,#8
        0x00011ba8:    e001        ..      B        0x11bae ; __fpl_dnaninf + 76
        0x00011baa:    ea4f7cd3    O..|    LSR      r12,r3,#31
        0x00011bae:    eb0c054c    ..L.    ADD      r5,r12,r12,LSL #1
        0x00011bb2:    fa26f605    &...    LSR      r6,r6,r5
        0x00011bb6:    f0060607    ....    AND      r6,r6,#7
        0x00011bba:    f1b60c04    ....    SUBS     r12,r6,#4
        0x00011bbe:    d206        ..      BCS      0x11bce ; __fpl_dnaninf + 108
        0x00011bc0:    eb0e0c86    ....    ADD      r12,lr,r6,LSL #2
        0x00011bc4:    e8bd4070    ..p@    POP      {r4-r6,lr}
        0x00011bc8:    f04c0c01    L...    ORR      r12,r12,#1
        0x00011bcc:    4760        `G      BX       r12
        0x00011bce:    e8dff00c    ....    TBB      [pc,r12]
    $d
        0x00011bd2:    0b09        ..      DCW    2825
        0x00011bd4:    0202        ..      DCW    514
    $t
        0x00011bd6:    f04f4100    O..A    MOV      r1,#0x80000000
        0x00011bda:    f04f0000    O...    MOV      r0,#0
        0x00011bde:    f5a12100    ...!    SUB      r1,r1,#0x80000
        0x00011be2:    bd70        p.      POP      {r4-r6,pc}
        0x00011be4:    4619        .F      MOV      r1,r3
        0x00011be6:    4610        .F      MOV      r0,r2
        0x00011be8:    2801        .(      CMP      r0,#1
        0x00011bea:    eb510401    Q...    ADCS     r4,r1,r1
        0x00011bee:    bf18        ..      IT       NE
        0x00011bf0:    f5d41400    ....    RSBSNE   r4,r4,#0x200000
        0x00011bf4:    bf84        ..      ITT      HI
        0x00011bf6:    2000        .       MOVHI    r0,#0
        0x00011bf8:    f0014100    ...A    ANDHI    r1,r1,#0x80000000
        0x00011bfc:    bd70        p.      POP      {r4-r6,pc}
    x$fpl$fpinit
    $v0
    _fp_init
        0x00011bfe:    f04f7040    O.@p    MOV      r0,#0x3000000
        0x00011c02:    eee10a10    ....    VMSR     FPSCR,r0
    __fplib_config_fpu_vfp
    __fplib_config_pureend_doubles
        0x00011c06:    4770        pG      BX       lr
    x$fpl$fretinf
    $v0
    __fpl_fretinf
        0x00011c08:    21ff        .!      MOVS     r1,#0xff
        0x00011c0a:    ea4150d0    A..P    ORR      r0,r1,r0,LSR #23
        0x00011c0e:    05c0        ..      LSLS     r0,r0,#23
        0x00011c10:    4770        pG      BX       lr
    x$fpl$usenofp
    __I$use$fp
        0x00011c12:    0000        ..      MOVS     r0,r0
    $d.realdata
    .constdata
        0x00011c14:    00000004    ....    DCD    4
        0x00011c18:    00000020     ...    DCD    32
        0x00011c1c:    00000020     ...    DCD    32
        0x00011c20:    00000002    ....    DCD    2
        0x00011c24:    00000001    ....    DCD    1
    .constdata
    ccitt_table
        0x00011c28:    80050000    ....    DCD    2147811328
        0x00011c2c:    000a800f    ....    DCD    688143
        0x00011c30:    001e801b    ....    DCD    1998875
        0x00011c34:    80110014    ....    DCD    2148597780
        0x00011c38:    00368033    3.6.    DCD    3571763
        0x00011c3c:    8039003c    <.9.    DCD    2151219260
        0x00011c40:    802d0028    (.-.    DCD    2150432808
        0x00011c44:    00228027    '.".    DCD    2261031
        0x00011c48:    00668063    c.f.    DCD    6717539
        0x00011c4c:    8069006c    l.i.    DCD    2154365036
        0x00011c50:    807d0078    x.}.    DCD    2155675768
        0x00011c54:    00728077    w.r.    DCD    7503991
        0x00011c58:    80550050    P.U.    DCD    2153054288
        0x00011c5c:    005a805f    _.Z.    DCD    5931103
        0x00011c60:    004e804b    K.N.    DCD    5144651
        0x00011c64:    80410044    D.A.    DCD    2151743556
        0x00011c68:    00c680c3    ....    DCD    13009091
        0x00011c6c:    80c900cc    ....    DCD    2160656588
        0x00011c70:    80dd00d8    ....    DCD    2161967320
        0x00011c74:    00d280d7    ....    DCD    13795543
        0x00011c78:    80f500f0    ....    DCD    2163540208
        0x00011c7c:    00fa80ff    ....    DCD    16417023
        0x00011c80:    00ee80eb    ....    DCD    15630571
        0x00011c84:    80e100e4    ....    DCD    2162229476
        0x00011c88:    80a500a0    ....    DCD    2158297248
        0x00011c8c:    00aa80af    ....    DCD    11174063
        0x00011c90:    00be80bb    ....    DCD    12484795
        0x00011c94:    80b100b4    ....    DCD    2159083700
        0x00011c98:    00968093    ....    DCD    9863315
        0x00011c9c:    8099009c    ....    DCD    2157510812
        0x00011ca0:    808d0088    ....    DCD    2156724360
        0x00011ca4:    00828087    ....    DCD    8552583
        0x00011ca8:    01868183    ....    DCD    25592195
        0x00011cac:    8189018c    ....    DCD    2173239692
        0x00011cb0:    819d0198    ....    DCD    2174550424
        0x00011cb4:    01928197    ....    DCD    26378647
        0x00011cb8:    81b501b0    ....    DCD    2176123312
        0x00011cbc:    01ba81bf    ....    DCD    29000127
        0x00011cc0:    01ae81ab    ....    DCD    28213675
        0x00011cc4:    81a101a4    ....    DCD    2174812580
        0x00011cc8:    81e501e0    ....    DCD    2179269088
        0x00011ccc:    01ea81ef    ....    DCD    32145903
        0x00011cd0:    01fe81fb    ....    DCD    33456635
        0x00011cd4:    81f101f4    ....    DCD    2180055540
        0x00011cd8:    01d681d3    ....    DCD    30835155
        0x00011cdc:    81d901dc    ....    DCD    2178482652
        0x00011ce0:    81cd01c8    ....    DCD    2177696200
        0x00011ce4:    01c281c7    ....    DCD    29524423
        0x00011ce8:    81450140    @.E.    DCD    2168783168
        0x00011cec:    014a814f    O.J.    DCD    21659983
        0x00011cf0:    015e815b    [.^.    DCD    22970715
        0x00011cf4:    81510154    T.Q.    DCD    2169569620
        0x00011cf8:    01768173    s.v.    DCD    24543603
        0x00011cfc:    8179017c    |.y.    DCD    2172191100
        0x00011d00:    816d0168    h.m.    DCD    2171404648
        0x00011d04:    01628167    g.b.    DCD    23232871
        0x00011d08:    01268123    #.&.    DCD    19300643
        0x00011d0c:    8129012c    ,.).    DCD    2166948140
        0x00011d10:    813d0138    8.=.    DCD    2168258872
        0x00011d14:    01328137    7.2.    DCD    20087095
        0x00011d18:    81150110    ....    DCD    2165637392
        0x00011d1c:    011a811f    ....    DCD    18514207
        0x00011d20:    010e810b    ....    DCD    17727755
        0x00011d24:    81010104    ....    DCD    2164326660
        0x00011d28:    03068303    ....    DCD    50758403
        0x00011d2c:    8309030c    ....    DCD    2198405900
        0x00011d30:    831d0318    ....    DCD    2199716632
        0x00011d34:    03128317    ....    DCD    51544855
        0x00011d38:    83350330    0.5.    DCD    2201289520
        0x00011d3c:    033a833f    ?.:.    DCD    54166335
        0x00011d40:    032e832b    +...    DCD    53379883
        0x00011d44:    83210324    $.!.    DCD    2199978788
        0x00011d48:    83650360    `.e.    DCD    2204435296
        0x00011d4c:    036a836f    o.j.    DCD    57312111
        0x00011d50:    037e837b    {.~.    DCD    58622843
        0x00011d54:    83710374    t.q.    DCD    2205221748
        0x00011d58:    03568353    S.V.    DCD    56001363
        0x00011d5c:    8359035c    \.Y.    DCD    2203648860
        0x00011d60:    834d0348    H.M.    DCD    2202862408
        0x00011d64:    03428347    G.B.    DCD    54690631
        0x00011d68:    83c503c0    ....    DCD    2210726848
        0x00011d6c:    03ca83cf    ....    DCD    63603663
        0x00011d70:    03de83db    ....    DCD    64914395
        0x00011d74:    83d103d4    ....    DCD    2211513300
        0x00011d78:    03f683f3    ....    DCD    66487283
        0x00011d7c:    83f903fc    ....    DCD    2214134780
        0x00011d80:    83ed03e8    ....    DCD    2213348328
        0x00011d84:    03e283e7    ....    DCD    65176551
        0x00011d88:    03a683a3    ....    DCD    61244323
        0x00011d8c:    83a903ac    ....    DCD    2208891820
        0x00011d90:    83bd03b8    ....    DCD    2210202552
        0x00011d94:    03b283b7    ....    DCD    62030775
        0x00011d98:    83950390    ....    DCD    2207581072
        0x00011d9c:    039a839f    ....    DCD    60457887
        0x00011da0:    038e838b    ....    DCD    59671435
        0x00011da4:    83810384    ....    DCD    2206270340
        0x00011da8:    82850280    ....    DCD    2189755008
        0x00011dac:    028a828f    ....    DCD    42631823
        0x00011db0:    029e829b    ....    DCD    43942555
        0x00011db4:    82910294    ....    DCD    2190541460
        0x00011db8:    02b682b3    ....    DCD    45515443
        0x00011dbc:    82b902bc    ....    DCD    2193162940
        0x00011dc0:    82ad02a8    ....    DCD    2192376488
        0x00011dc4:    02a282a7    ....    DCD    44204711
        0x00011dc8:    02e682e3    ....    DCD    48661219
        0x00011dcc:    82e902ec    ....    DCD    2196308716
        0x00011dd0:    82fd02f8    ....    DCD    2197619448
        0x00011dd4:    02f282f7    ....    DCD    49447671
        0x00011dd8:    82d502d0    ....    DCD    2194997968
        0x00011ddc:    02da82df    ....    DCD    47874783
        0x00011de0:    02ce82cb    ....    DCD    47088331
        0x00011de4:    82c102c4    ....    DCD    2193687236
        0x00011de8:    02468243    C.F.    DCD    38175299
        0x00011dec:    8249024c    L.I.    DCD    2185822796
        0x00011df0:    825d0258    X.].    DCD    2187133528
        0x00011df4:    02528257    W.R.    DCD    38961751
        0x00011df8:    82750270    p.u.    DCD    2188706416
        0x00011dfc:    027a827f    ..z.    DCD    41583231
        0x00011e00:    026e826b    k.n.    DCD    40796779
        0x00011e04:    82610264    d.a.    DCD    2187395684
        0x00011e08:    82250220     .%.    DCD    2183463456
        0x00011e0c:    022a822f    /.*.    DCD    36340271
        0x00011e10:    023e823b    ;.>.    DCD    37651003
        0x00011e14:    82310234    4.1.    DCD    2184249908
        0x00011e18:    02168213    ....    DCD    35029523
        0x00011e1c:    8219021c    ....    DCD    2182677020
        0x00011e20:    820d0208    ....    DCD    2181890568
        0x00011e24:    02028207    ....    DCD    33718791
        0x00011e28:    00000000    ....    DCD    0
        0x00011e2c:    00000000    ....    DCD    0
        0x00011e30:    00010000    ....    DCD    65536
        0x00011e34:    00000000    ....    DCD    0
        0x00011e38:    00000000    ....    DCD    0
        0x00011e3c:    00000000    ....    DCD    0
        0x00011e40:    00000000    ....    DCD    0
        0x00011e44:    00000000    ....    DCD    0
        0x00011e48:    00020002    ....    DCD    131074
        0x00011e4c:    00000000    ....    DCD    0
        0x00011e50:    00000000    ....    DCD    0
        0x00011e54:    00000000    ....    DCD    0
        0x00011e58:    00000000    ....    DCD    0
        0x00011e5c:    00000000    ....    DCD    0
        0x00011e60:    00010000    ....    DCD    65536
        0x00011e64:    00000000    ....    DCD    0
        0x00011e68:    00000000    ....    DCD    0
        0x00011e6c:    00000000    ....    DCD    0
        0x00011e70:    00000000    ....    DCD    0
        0x00011e74:    00000000    ....    DCD    0
        0x00011e78:    00020002    ....    DCD    131074
        0x00011e7c:    00000000    ....    DCD    0
        0x00011e80:    00000000    ....    DCD    0
        0x00011e84:    00000000    ....    DCD    0
    .constdata
    am_hal_cachectrl_defaults
        0x00011e88:    00000308    ....    DCD    776
    .constdata
        0x00011e8c:    bf006001    .`..    DCD    3204472833
        0x00011e90:    bf006800    .h..    DCD    3204474880
        0x00011e94:    bf004770    pG..    DCD    3204466544
    .constdata
    g_AM_HAL_GPIO_DISABLE
        0x00011e98:    00000003    ....    DCD    3
    g_ui8Inpen
        0x00011e9c:    62272323    ##'b    DCD    1646732067
        0x00011ea0:    108703a1    ....    DCD    277283745
        0x00011ea4:    e1005303    .S..    DCD    3774894851
        0x00011ea8:    55418151    Q.AU    DCD    1430356305
        0x00011eac:    4080c405    ...@    DCD    1082180613
        0x00011eb0:    4140b101    ..@A    DCD    1094758657
        0x00011eb4:    31a03114    .1.1    DCD    832581908
        0x00011eb8:    1180f100    ....    DCD    293662976
        0x00011ebc:    11c12191    .!..    DCD    297869713
        0x00011ec0:    304511e5    ..E0    DCD    809832933
        0x00011ec4:    31300037    7.01    DCD    825229367
        0x00011ec8:    40007100    .q.@    DCD    1073770752
        0x00011ecc:    01003130    01..    DCD    16789808
        0x00011ed0:    01010101    ....    DCD    16843009
        0x00011ed4:    01010101    ....    DCD    16843009
        0x00011ed8:    a050a001    ..P.    DCD    2689638401
        0x00011edc:    01010101    ....    DCD    16843009
        0x00011ee0:    a0a0a001    ....    DCD    2694881281
        0x00011ee4:    50a0        .P      DCW    20640
    g_ui8Bit76Capabilities
        0x00011ee6:    0101        ..      DCW    257
        0x00011ee8:    01800280    ....    DCD    25166464
        0x00011eec:    01018001    ....    DCD    16875521
        0x00011ef0:    80808080    ....    DCD    2155905152
        0x00011ef4:    80808080    ....    DCD    2155905152
        0x00011ef8:    80088080    ....    DCD    2148040832
        0x00011efc:    01808080    ....    DCD    25198720
        0x00011f00:    80800180    ....    DCD    2155872640
        0x00011f04:    80808080    ....    DCD    2155905152
        0x00011f08:    04028080    ....    DCD    67272832
        0x00011f0c:    04010180    ....    DCD    67174784
        0x00011f10:    80800101    ....    DCD    2155872513
        0x00011f14:    01018080    ....    DCD    16875648
        0x00011f18:    80808080    ....    DCD    2155905152
        0x00011f1c:    80808080    ....    DCD    2155905152
        0x00011f20:    80808080    ....    DCD    2155905152
        0x00011f24:    80808080    ....    DCD    2155905152
        0x00011f28:    80808080    ....    DCD    2155905152
        0x00011f2c:    80808080    ....    DCD    2155905152
    g_ui8nCEpins
        0x00011f30:    02070707    ....    DCD    34014983
        0x00011f34:    00080802    ....    DCD    526338
        0x00011f38:    01020202    ....    DCD    16908802
        0x00011f3c:    01010101    ....    DCD    16843009
        0x00011f40:    01010101    ....    DCD    16843009
        0x00011f44:    01010101    ....    DCD    16843009
        0x00011f48:    01010101    ....    DCD    16843009
        0x00011f4c:    01010101    ....    DCD    16843009
        0x00011f50:    01010101    ....    DCD    16843009
        0x00011f54:    08010101    ....    DCD    134283521
        0x00011f58:    01010008    ....    DCD    16842760
        0x00011f5c:    01010101    ....    DCD    16843009
        0x00011f60:    01010101    ....    DCD    16843009
        0x00011f64:    01010101    ....    DCD    16843009
        0x00011f68:    01010101    ....    DCD    16843009
        0x00011f6c:    01010101    ....    DCD    16843009
        0x00011f70:    01010101    ....    DCD    16843009
        0x00011f74:    01010101    ....    DCD    16843009
        0x00011f78:    0101        ..      DCW    257
    g_ui8NCEtable
        0x00011f7a:    a4a3        ..      DCW    42147
        0x00011f7c:    a1a00112    ....    DCD    2711617810
        0x00011f80:    02b3a4a2    ....    DCD    45327522
        0x00011f84:    848392b5    ....    DCD    2223215285
        0x00011f88:    94938285    ....    DCD    2492695173
        0x00011f8c:    ffff9101    ....    DCD    4294938881
        0x00011f90:    ffffffff    ....    DCD    4294967295
        0x00011f94:    1201ffff    ....    DCD    302120959
        0x00011f98:    84830095    ....    DCD    2223177877
        0x00011f9c:    b4018002    ....    DCD    3019997186
        0x00011fa0:    a4a3b2b5    ....    DCD    2762191541
        0x00011fa4:    81800011    ....    DCD    2172649489
        0x00011fa8:    02838382    ....    DCD    42173314
        0x00011fac:    94931085    ....    DCD    2492665989
        0x00011fb0:    12a09095    ....    DCD    312512661
        0x00011fb4:    b101a4a2    ....    DCD    2969674914
        0x00011fb8:    028000b2    ....    DCD    41943218
        0x00011fbc:    919085b2    ....    DCD    2442167730
        0x00011fc0:    a1029402    ....    DCD    2701300738
        0x00011fc4:    11b0a3a2    ....    DCD    296788898
        0x00011fc8:    001200b3    ....    DCD    1179827
        0x00011fcc:    a4a39295    ....    DCD    2762183317
        0x00011fd0:    b4b30102    ....    DCD    3031630082
        0x00011fd4:    818002b5    ....    DCD    2172650165
        0x00011fd8:    01908482    ....    DCD    26248322
        0x00011fdc:    01a39592    ....    DCD    27497874
        0x00011fe0:    b4b3a0a5    ....    DCD    3031670949
        0x00011fe4:    8402b1b5    ....    DCD    2214769077
        0x00011fe8:    94938100    ....    DCD    2492694784
        0x00011fec:    12a30095    ....    DCD    312672405
        0x00011ff0:    b400a1a5    ....    DCD    3019940261
        0x00011ff4:    0201b002    ....    DCD    33665026
        0x00011ff8:    b1908482    ....    DCD    2979038338
        0x00011ffc:    11a01001    ....    DCD    295702529
        0x00012000:    02b0a592    ....    DCD    45131154
        0x00012004:    810111b2    ....    DCD    2164330930
        0x00012008:    94930282    ....    DCD    2492662402
        0x0001200c:    a4931095    ....    DCD    2761101461
        0x00012010:    b1b000a5    ....    DCD    2981101733
        0x00012014:    ffffb512    ....    DCD    4294948114
        0x00012018:    ffffffff    ....    DCD    4294967295
        0x0001201c:    9102ffff    ....    DCD    2432892927
        0x00012020:    01801011    ....    DCD    25169937
        0x00012024:    91908582    ....    DCD    2442167682
        0x00012028:    00a01002    ....    DCD    10489858
        0x0001202c:    b4b3a5a2    ....    DCD    3031672226
        0x00012030:    0183b185    ....    DCD    25407877
        0x00012034:    81111002    ....    DCD    2165379074
        0x00012038:    a1019392    ....    DCD    2701235090
        0x0001203c:    11b012a2    ....    DCD    296751778
        0x00012040:    020181b2    ....    DCD    33653170
        0x00012044:    91a480b2    ....    DCD    2443477170
        0x00012048:    a1908092    ....    DCD    2710601874
        0x0001204c:    b1a09200    ....    DCD    2980090368
        0x00012050:    84028202    ....    DCD    2214756866
        0x00012054:    00838385    ....    DCD    8618885
        0x00012058:    b4a38495    ....    DCD    3030615189
        0x0001205c:    b40010a5    ....    DCD    3019903141
        0x00012060:    81b390b5    ....    DCD    2176028853
        0x00012064:    9111b500    ....    DCD    2433856768
        0x00012068:    a1100092    ....    DCD    2702180498
        0x0001206c:    b100b0a2    ....    DCD    2969612450
        0x00012070:    84100102    ....    DCD    2215641346
        0x00012074:    94011185    ....    DCD    2483097989
        0x00012078:    a4800002    ....    DCD    2759852034
        0x0001207c:    009010a5    ....    DCD    9441445
        0x00012080:    810193a5    ....    DCD    2164364197
        0x00012084:    91b09482    ....    DCD    2444268674
        0x00012088:    008395b2    ....    DCD    8623538
        0x0001208c:    b193a0a2    ....    DCD    2979242146
        0x00012090:    02a30100    ....    DCD    44237056
        0x00012094:    94b31185    ....    DCD    2494763397
        0x00012098:    0200a1b0    ....    DCD    33595824
        0x0001209c:    b401a201    ....    DCD    3020005889
        0x000120a0:    000002b5    ....    DCD    693
    .constdata
    g_AM_HAL_GPIO_INPUT
        0x000120a4:    00001003    ....    DCD    4099
    .constdata
    g_AM_HAL_GPIO_OUTPUT
        0x000120a8:    00000403    ....    DCD    1027
    .constdata
    g_am_hal_mcuctrl_flash_size
        0x000120ac:    00004000    .@..    DCD    16384
        0x000120b0:    00008000    ....    DCD    32768
        0x000120b4:    00010000    ....    DCD    65536
        0x000120b8:    00020000    ....    DCD    131072
        0x000120bc:    00040000    ....    DCD    262144
        0x000120c0:    00080000    ....    DCD    524288
        0x000120c4:    00100000    ....    DCD    1048576
        0x000120c8:    00200000    .. .    DCD    2097152
        0x000120cc:    00180000    ....    DCD    1572864
        0x000120d0:    00000000    ....    DCD    0
        0x000120d4:    00000000    ....    DCD    0
        0x000120d8:    00000000    ....    DCD    0
        0x000120dc:    00000000    ....    DCD    0
        0x000120e0:    00000000    ....    DCD    0
        0x000120e4:    00000000    ....    DCD    0
        0x000120e8:    00000000    ....    DCD    0
    g_am_hal_mcuctrl_sram_size
        0x000120ec:    00004000    .@..    DCD    16384
        0x000120f0:    00008000    ....    DCD    32768
        0x000120f4:    00010000    ....    DCD    65536
        0x000120f8:    00020000    ....    DCD    131072
        0x000120fc:    00040000    ....    DCD    262144
        0x00012100:    00080000    ....    DCD    524288
        0x00012104:    00100000    ....    DCD    1048576
        0x00012108:    00060000    ....    DCD    393216
        0x0001210c:    000c0000    ....    DCD    786432
        0x00012110:    00000000    ....    DCD    0
        0x00012114:    00000000    ....    DCD    0
        0x00012118:    00000000    ....    DCD    0
        0x0001211c:    00000000    ....    DCD    0
        0x00012120:    00000000    ....    DCD    0
        0x00012124:    00000000    ....    DCD    0
        0x00012128:    00000000    ....    DCD    0
    .constdata
    am_hal_pwrctrl_peripheral_control
        0x0001212c:    00000000    ....    DCD    0
        0x00012130:    00000000    ....    DCD    0
        0x00012134:    00000000    ....    DCD    0
        0x00012138:    00000001    ....    DCD    1
        0x0001213c:    00000004    ....    DCD    4
        0x00012140:    00000004    ....    DCD    4
        0x00012144:    00000002    ....    DCD    2
        0x00012148:    00000008    ....    DCD    8
        0x0001214c:    00000008    ....    DCD    8
        0x00012150:    00000004    ....    DCD    4
        0x00012154:    00000008    ....    DCD    8
        0x00012158:    00000008    ....    DCD    8
        0x0001215c:    00000008    ....    DCD    8
        0x00012160:    00000008    ....    DCD    8
        0x00012164:    00000008    ....    DCD    8
        0x00012168:    00000010    ....    DCD    16
        0x0001216c:    00000010    ....    DCD    16
        0x00012170:    00000010    ....    DCD    16
        0x00012174:    00000020     ...    DCD    32
        0x00012178:    00000010    ....    DCD    16
        0x0001217c:    00000010    ....    DCD    16
        0x00012180:    00000040    @...    DCD    64
        0x00012184:    00000010    ....    DCD    16
        0x00012188:    00000010    ....    DCD    16
        0x0001218c:    00000080    ....    DCD    128
        0x00012190:    00000004    ....    DCD    4
        0x00012194:    00000004    ....    DCD    4
        0x00012198:    00000100    ....    DCD    256
        0x0001219c:    00000004    ....    DCD    4
        0x000121a0:    00000004    ....    DCD    4
        0x000121a4:    00000200    ....    DCD    512
        0x000121a8:    00000020     ...    DCD    32
        0x000121ac:    00000020     ...    DCD    32
        0x000121b0:    00000400    ....    DCD    1024
        0x000121b4:    00000004    ....    DCD    4
        0x000121b8:    00000004    ....    DCD    4
        0x000121bc:    00000800    ....    DCD    2048
        0x000121c0:    00000040    @...    DCD    64
        0x000121c4:    00000040    @...    DCD    64
        0x000121c8:    00001000    ....    DCD    4096
        0x000121cc:    00000040    @...    DCD    64
        0x000121d0:    00000040    @...    DCD    64
        0x000121d4:    00002000    . ..    DCD    8192
        0x000121d8:    00000040    @...    DCD    64
        0x000121dc:    00000040    @...    DCD    64
        0x000121e0:    00004000    .@..    DCD    16384
        0x000121e4:    00000080    ....    DCD    128
        0x000121e8:    00000080    ....    DCD    128
        0x000121ec:    00008000    ....    DCD    32768
        0x000121f0:    00000100    ....    DCD    256
        0x000121f4:    00000100    ....    DCD    256
    am_hal_pwrctrl_memory_control
        0x000121f8:    00000000    ....    DCD    0
        0x000121fc:    00000000    ....    DCD    0
        0x00012200:    00000000    ....    DCD    0
        0x00012204:    00000000    ....    DCD    0
        0x00012208:    00000000    ....    DCD    0
        0x0001220c:    00000000    ....    DCD    0
        0x00012210:    00000001    ....    DCD    1
        0x00012214:    00000001    ....    DCD    1
        0x00012218:    00000001    ....    DCD    1
        0x0001221c:    00001fff    ....    DCD    8191
        0x00012220:    00001fff    ....    DCD    8191
        0x00012224:    00000001    ....    DCD    1
        0x00012228:    00000003    ....    DCD    3
        0x0001222c:    00000003    ....    DCD    3
        0x00012230:    00000003    ....    DCD    3
        0x00012234:    00001fff    ....    DCD    8191
        0x00012238:    00001fff    ....    DCD    8191
        0x0001223c:    00000003    ....    DCD    3
        0x00012240:    00000007    ....    DCD    7
        0x00012244:    00000007    ....    DCD    7
        0x00012248:    00000007    ....    DCD    7
        0x0001224c:    00001fff    ....    DCD    8191
        0x00012250:    00001fff    ....    DCD    8191
        0x00012254:    00000007    ....    DCD    7
        0x00012258:    0000000f    ....    DCD    15
        0x0001225c:    0000000f    ....    DCD    15
        0x00012260:    0000000f    ....    DCD    15
        0x00012264:    00001fff    ....    DCD    8191
        0x00012268:    00001fff    ....    DCD    8191
        0x0001226c:    0000000f    ....    DCD    15
        0x00012270:    0000001f    ....    DCD    31
        0x00012274:    0000001f    ....    DCD    31
        0x00012278:    0000001f    ....    DCD    31
        0x0001227c:    00001fff    ....    DCD    8191
        0x00012280:    00001fff    ....    DCD    8191
        0x00012284:    0000001f    ....    DCD    31
        0x00012288:    0000003f    ?...    DCD    63
        0x0001228c:    0000003f    ?...    DCD    63
        0x00012290:    0000003f    ?...    DCD    63
        0x00012294:    00001fff    ....    DCD    8191
        0x00012298:    00001fff    ....    DCD    8191
        0x0001229c:    0000003f    ?...    DCD    63
        0x000122a0:    0000007f    ....    DCD    127
        0x000122a4:    0000007f    ....    DCD    127
        0x000122a8:    0000007f    ....    DCD    127
        0x000122ac:    00001fff    ....    DCD    8191
        0x000122b0:    00001fff    ....    DCD    8191
        0x000122b4:    0000007f    ....    DCD    127
        0x000122b8:    000000ff    ....    DCD    255
        0x000122bc:    000000ff    ....    DCD    255
        0x000122c0:    000000ff    ....    DCD    255
        0x000122c4:    00001fff    ....    DCD    8191
        0x000122c8:    00001fff    ....    DCD    8191
        0x000122cc:    000000ff    ....    DCD    255
        0x000122d0:    000001ff    ....    DCD    511
        0x000122d4:    000001ff    ....    DCD    511
        0x000122d8:    000001ff    ....    DCD    511
        0x000122dc:    00001fff    ....    DCD    8191
        0x000122e0:    00001fff    ....    DCD    8191
        0x000122e4:    000001ff    ....    DCD    511
        0x000122e8:    000003ff    ....    DCD    1023
        0x000122ec:    000003ff    ....    DCD    1023
        0x000122f0:    000003ff    ....    DCD    1023
        0x000122f4:    00001fff    ....    DCD    8191
        0x000122f8:    00001fff    ....    DCD    8191
        0x000122fc:    000003ff    ....    DCD    1023
        0x00012300:    000007ff    ....    DCD    2047
        0x00012304:    000007ff    ....    DCD    2047
        0x00012308:    000007ff    ....    DCD    2047
        0x0001230c:    00001fff    ....    DCD    8191
        0x00012310:    00001fff    ....    DCD    8191
        0x00012314:    000007ff    ....    DCD    2047
        0x00012318:    00000fff    ....    DCD    4095
        0x0001231c:    00000fff    ....    DCD    4095
        0x00012320:    00000fff    ....    DCD    4095
        0x00012324:    00001fff    ....    DCD    8191
        0x00012328:    00001fff    ....    DCD    8191
        0x0001232c:    00000fff    ....    DCD    4095
        0x00012330:    00001fff    ....    DCD    8191
        0x00012334:    00001fff    ....    DCD    8191
        0x00012338:    00001fff    ....    DCD    8191
        0x0001233c:    00001fff    ....    DCD    8191
        0x00012340:    00001fff    ....    DCD    8191
        0x00012344:    00001fff    ....    DCD    8191
        0x00012348:    00002000    . ..    DCD    8192
        0x0001234c:    00002000    . ..    DCD    8192
        0x00012350:    00002000    . ..    DCD    8192
        0x00012354:    00006000    .`..    DCD    24576
        0x00012358:    00006000    .`..    DCD    24576
        0x0001235c:    00002000    . ..    DCD    8192
        0x00012360:    00006000    .`..    DCD    24576
        0x00012364:    00006000    .`..    DCD    24576
        0x00012368:    00006000    .`..    DCD    24576
        0x0001236c:    00006000    .`..    DCD    24576
        0x00012370:    00006000    .`..    DCD    24576
        0x00012374:    00006000    .`..    DCD    24576
        0x00012378:    c0000000    ....    DCD    3221225472
        0x0001237c:    00000000    ....    DCD    0
        0x00012380:    c0000000    ....    DCD    3221225472
        0x00012384:    c0000000    ....    DCD    3221225472
        0x00012388:    00000000    ....    DCD    0
        0x0001238c:    80000000    ....    DCD    2147483648
        0x00012390:    c0007fff    ....    DCD    3221258239
        0x00012394:    00007fff    ....    DCD    32767
        0x00012398:    c0007fff    ....    DCD    3221258239
        0x0001239c:    c0007fff    ....    DCD    3221258239
        0x000123a0:    00007fff    ....    DCD    32767
        0x000123a4:    80007fff    ....    DCD    2147516415
    .constdata
    g_AM_BSP_GPIO_ITM_SWO
        0x000123a8:    00000002    ....    DCD    2
    .constdata
    am_hal_ble_num_default_patches_b0
        0x000123ac:    00000003    ....    DCD    3
    .constdata
    am_ble_buffer_patch_data_b0
        0x000123b0:    02302200    ."0.    DCD    36708864
        0x000123b4:    0000001f    ....    DCD    31
        0x000123b8:    00066584    .e..    DCD    419204
        0x000123bc:    00066d73    sm..    DCD    421235
        0x000123c0:    00067575    uu..    DCD    423285
        0x000123c4:    00067b17    .{..    DCD    424727
        0x000123c8:    000685a9    ....    DCD    427433
        0x000123cc:    00000000    ....    DCD    0
        0x000123d0:    00000000    ....    DCD    0
        0x000123d4:    00000000    ....    DCD    0
        0x000123d8:    00000000    ....    DCD    0
        0x000123dc:    f7ec2021    ! ..    DCD    4159447073
        0x000123e0:    2800fcf9    ...(    DCD    671153401
        0x000123e4:    2000d00a    ...     DCD    536924170
        0x000123e8:    46039000    ...F    DCD    1174638592
        0x000123ec:    46014602    .F.F    DCD    1174488578
        0x000123f0:    20216824    $h!     DCD    539060260
        0x000123f4:    47a03435    54.G    DCD    1201681461
        0x000123f8:    bd38bf00    ..8.    DCD    3174612736
        0x000123fc:    fefbf7ef    ....    DCD    4277925871
        0x00012400:    2800490f    .I.(    DCD    671107343
        0x00012404:    7808d002    ...x    DCD    2013843458
        0x00012408:    d0122801    .(..    DCD    3490850817
        0x0001240c:    28027808    .x.(    DCD    671250440
        0x00012410:    2800d00f    ...(    DCD    671141903
        0x00012414:    2801d006    ...(    DCD    671207430
        0x00012418:    f000d004    ....    DCD    4026585092
        0x0001241c:    20006e0c    .n.     DCD    536899084
        0x00012420:    04000000    ....    DCD    67108864
        0x00012424:    20006e1c    .n.     DCD    536899100
        0x00012428:    47084900    .I.G    DCD    1191725312
        0x0001242c:    20003441    A4.     DCD    536884289
        0x00012430:    7cca4e23    #N.|    DCD    2093633059
        0x00012434:    6ac96875    uh.j    DCD    1791584373
        0x00012438:    d01d2a00    .*..    DCD    3491572224
        0x0001243c:    0212227d    }"..    DCD    34742909
        0x00012440:    d3024291    .B..    DCD    3540140689
        0x00012444:    20011a8a    ...     DCD    536943242
        0x00012448:    1a52e000    ..R.    DCD    441638912
        0x0001244c:    d0052800    .(..    DCD    3489998848
        0x00012450:    43504620     FPC    DCD    1129334304
        0x00012454:    fa02f7ea    ....    DCD    4194498538
        0x00012458:    e0041a20     ...    DCD    3758365216
        0x0001245c:    f9def7ea    ....    DCD    4192139242
        0x00012460:    02011900    ....    DCD    33626368
        0x00012464:    186900c2    ..i.    DCD    409534658
        0x00012468:    18891812    ....    DCD    411637778
        0x0001246c:    02530a4a    J.S.    DCD    38996554
        0x00012470:    60711ac9    ..q`    DCD    1618025161
        0x00012474:    4348211e    .!HC    DCD    1128800542
        0x00012478:    bd701880    ..p.    DCD    3178240128
        0x0001247c:    2000682c    ,h.     DCD    536897580
        0x00012480:    20006e0c    .n.     DCD    536899084
        0x00012484:    47084900    .I.G    DCD    1191725312
        0x00012488:    200034b1    .4.     DCD    536884401
        0x0001248c:    6ac07cc1    .|.j    DCD    1790999745
        0x00012490:    d0152900    .)..    DCD    3491047680
        0x00012494:    0209217d    }!..    DCD    34152829
        0x00012498:    d3024288    .B..    DCD    3540140680
        0x0001249c:    2004d502    ...     DCD    537187586
        0x000124a0:    e0347060    `p4.    DCD    3761533024
        0x000124a4:    f0066928    (i..    DCD    4026951976
        0x000124a8:    2800f8b5    ...(    DCD    671152309
        0x000124ac:    2002d002    ...     DCD    537055234
        0x000124b0:    e02c7060    `p,.    DCD    3761008736
        0x000124b4:    f0049803    ....    DCD    4026832899
        0x000124b8:    2804fa1f    ...(    DCD    671414815
        0x000124bc:    4668d107    ..hF    DCD    1181274375
        0x000124c0:    20027901    .y.     DCD    537032961
        0x000124c4:    d0054388    .C..    DCD    3490005896
        0x000124c8:    28002000    . .(    DCD    671096832
        0x000124cc:    bf00d004    ....    DCD    3204501508
        0x000124d0:    e01c2000    . ..    DCD    3759939584
        0x000124d4:    e7f82001    . ..    DCD    3891798017
        0x000124d8:    900088f0    ....    DCD    2415954160
        0x000124dc:    00000021    !...    DCD    33
        0x000124e0:    00000000    ....    DCD    0
        0x000124e4:    00000001    ....    DCD    1
        0x000124e8:    00000000    ....    DCD    0
        0x000124ec:    ffffffff    ....    DCD    4294967295
        0x000124f0:    000003ff    ....    DCD    1023
        0x000124f4:    1f3c00ff    ..<.    DCD    524026111
        0x000124f8:    00000000    ....    DCD    0
        0x000124fc:    00002001    . ..    DCD    8193
        0x00012500:    0000848d    ....    DCD    33933
        0x00012504:    00002002    . ..    DCD    8194
        0x00012508:    00007dcd    .}..    DCD    32205
        0x0001250c:    00002003    . ..    DCD    8195
        0x00012510:    00007ed1    .~..    DCD    32465
        0x00012514:    00002005    . ..    DCD    8197
        0x00012518:    000084fd    ....    DCD    34045
        0x0001251c:    2300b4f0    ...#    DCD    587248880
        0x00012520:    69254c18    .L%i    DCD    1764051992
        0x00012524:    227d4918    .I}"    DCD    578636056
        0x00012528:    02126809    .h..    DCD    34760713
        0x0001252c:    d3024291    .B..    DCD    3540140689
        0x00012530:    23011a8a    ...#    DCD    587274890
        0x00012534:    1a52e000    ..R.    DCD    441638912
        0x00012538:    43564606    .FVC    DCD    1129727494
        0x0001253c:    435113f2    ..QC    DCD    1129386994
        0x00012540:    261e1a71    q..&    DCD    639507057
        0x00012544:    104f434e    NCO.    DCD    273630030
        0x00012548:    118f19f6    ....    DCD    294590966
        0x0001254c:    124919f6    ..I.    DCD    306780662
        0x00012550:    13ce1871    q...    DCD    332273777
        0x00012554:    d0012b00    .+..    DCD    3489737472
        0x00012558:    e0001a80    ....    DCD    3758103168
        0x0001255c:    19421810    ..B.    DCD    423761936
        0x00012560:    008d0891    ....    DCD    9242769
        0x00012564:    2b001b52    R..+    DCD    721427282
        0x00012568:    0143d004    ..C.    DCD    21221380
        0x0001256c:    18401a18    ..@.    DCD    406854168
        0x00012570:    e0031b80    ....    DCD    3758300032
        0x00012574:    1a180143    C...    DCD    437780803
        0x00012578:    19801840    @...    DCD    427825216
        0x0001257c:    bcf06122    "a..    DCD    3169870114
        0x00012580:    00004770    pG..    DCD    18288
        0x00012584:    20006e00    .n.     DCD    536899072
        0x00012588:    20006858    Xh.     DCD    536897624
        0x0001258c:    2300b410    ...#    DCD    587248656
        0x00012590:    46022114    .!.F    DCD    1174544660
        0x00012594:    4911434a    JC.I    DCD    1225868106
        0x00012598:    6809247d    }$.h    DCD    1745429629
        0x0001259c:    42a10224    $..B    DCD    1117848100
        0x000125a0:    1b09d902    ....    DCD    453630210
        0x000125a4:    e0002301    .#..    DCD    3758105345
        0x000125a8:    43481a61    a.HC    DCD    1128798817
        0x000125ac:    18410081    ..A.    DCD    406913153
        0x000125b0:    0c0c0a88    ....    DCD    202115720
        0x000125b4:    0c4c1900    ..L.    DCD    206313728
        0x000125b8:    0d4c1900    ..L.    DCD    223090944
        0x000125bc:    0e4c1900    ..L.    DCD    239868160
        0x000125c0:    0fc91900    ....    DCD    264837376
        0x000125c4:    08c01840    @...    DCD    146806848
        0x000125c8:    d0012b00    .+..    DCD    3489737472
        0x000125cc:    e0011810    ....    DCD    3758168080
        0x000125d0:    1e401a10    ..@.    DCD    507517456
        0x000125d4:    bc101e40    @...    DCD    3155172928
        0x000125d8:    00004770    pG..    DCD    18288
        0x000125dc:    20006858    Xh.     DCD    536897624
    .conststring
        0x000125e0:    4f525245    ERRO    DCD    1330795077
        0x000125e4:    48435f52    R_CH    DCD    1212374866
        0x000125e8:    5f4b4345    ECK_    DCD    1598767941
        0x000125ec:    44494f56    VOID    DCD    1145655126
        0x000125f0:    5f6d6120     am_    DCD    1601003808
        0x000125f4:    5f6c6168    hal_    DCD    1600938344
        0x000125f8:    5f656c62    ble_    DCD    1600482402
        0x000125fc:    65776f70    powe    DCD    1702326128
        0x00012600:    6f635f72    r_co    DCD    1868783474
        0x00012604:    6f72746e    ntro    DCD    1869771886
        0x00012608:    4c42286c    l(BL    DCD    1279404140
        0x0001260c:    41202c45    E, A    DCD    1092627525
        0x00012610:    41485f4d    M_HA    DCD    1095262029
        0x00012614:    4c425f4c    L_BL    DCD    1279418188
        0x00012618:    4f505f45    E_PO    DCD    1330667333
        0x0001261c:    5f524557    WER_    DCD    1599227223
        0x00012620:    49544341    ACTI    DCD    1230259009
        0x00012624:    0a294556    VE).    DCD    170476886
        0x00012628:    00000000    ....    DCD    0
        0x0001262c:    4f525245    ERRO    DCD    1330795077
        0x00012630:    48435f52    R_CH    DCD    1212374866
        0x00012634:    5f4b4345    ECK_    DCD    1598767941
        0x00012638:    44494f56    VOID    DCD    1145655126
        0x0001263c:    5f6d6120     am_    DCD    1601003808
        0x00012640:    5f6c6168    hal_    DCD    1600938344
        0x00012644:    5f656c62    ble_    DCD    1600482402
        0x00012648:    65776f70    powe    DCD    1702326128
        0x0001264c:    6f635f72    r_co    DCD    1868783474
        0x00012650:    6f72746e    ntro    DCD    1869771886
        0x00012654:    4c42286c    l(BL    DCD    1279404140
        0x00012658:    41202c45    E, A    DCD    1092627525
        0x0001265c:    41485f4d    M_HA    DCD    1095262029
        0x00012660:    4c425f4c    L_BL    DCD    1279418188
        0x00012664:    4f505f45    E_PO    DCD    1330667333
        0x00012668:    5f524557    WER_    DCD    1599227223
        0x0001266c:    2946464f    OFF)    DCD    692471375
        0x00012670:    0000000a    ....    DCD    10
    Region$$Table$$Base
        0x00012674:    000126a4    .&..    DCD    75428
        0x00012678:    10013000    .0..    DCD    268513280
        0x0001267c:    000008c0    ....    DCD    2240
        0x00012680:    0000c174    t...    DCD    49524
        0x00012684:    00012d70    p-..    DCD    77168
        0x00012688:    100138c0    .8..    DCD    268515520
        0x0001268c:    00005498    .T..    DCD    21656
        0x00012690:    0000c1d0    ....    DCD    49616
        0x00012694:    00012d70    p-..    DCD    77168
        0x00012698:    10010000    ....    DCD    268500992
        0x0001269c:    00003000    .0..    DCD    12288
        0x000126a0:    0000c1d0    ....    DCD    49616
    Region$$Table$$Limit

** Section #2 'RWMEM' (SHT_PROGBITS) [SHF_ALLOC + SHF_WRITE]
    Size   : 1740 bytes (alignment 4)
    Address: 0x10013000

    Data section was compressed (Original size: 2240 bytes)

    0x10013000:   00 00 00 00 00 00 00 00 00 00 00 00 00 00 00 00    ................
    0x10013010:   00 00 00 00 00 00 00 00 00 00 00 00 aa aa aa aa    ................
    0x10013020:   00 00 00 00 00 00 00 00 00 00 00 00 00 00 00 00    ................
    0x10013030:   00 00 00 00 00 00 00 00 01 02 03 04 05 06 00 00    ................
    0x10013040:   60 41 01 10 00 00 00 00 00 00 00 00 00 00 00 00    `A..............
    0x10013050:   00 00 00 00 00 00 00 00 00 00 00 00 00 00 00 00    ................
    0x10013060:   00 00 00 00 00 00 00 00 00 00 00 00 00 00 00 00    ................
    0x10013070:   00 00 00 00 00 00 00 00 00 00 00 00 f8 3f 00 00    .............?..
    0x10013080:   00 00 00 00 00 00 00 00 00 00 00 00 00 00 00 00    ................
    0x10013090:   00 00 00 00 00 00 00 00 00 00 00 00 00 00 00 00    ................
    0x100130a0:   00 00 00 00 00 00 00 00 00 00 00 00 00 00 00 00    ................
    0x100130b0:   00 00 00 00 00 00 00 00 00 00 00 00 00 00 00 00    ................
    0x100130c0:   00 00 00 00 00 00 00 00 00 00 00 00 00 00 00 00    ................
    0x100130d0:   00 00 00 00 00 00 00 00 00 00 00 00 0a 00 00 00    ................
    0x100130e0:   03 00 00 00 1e 00 00 00 03 00 00 00 0f 00 00 00    ................
    0x100130f0:   03 00 00 00 0e 00 00 00 03 00 00 00 11 00 00 00    ................
    0x10013100:   03 00 00 00 00 c2 01 00 60 00 00 00 00 00 00 00    ........`.......
    0x10013110:   00 00 00 00 00 00 00 00 12 00 00 00 28 84 01 10    ............(...
    0x10013120:   00 04 00 00 28 88 01 10 00 04 00 00 10 00 00 00    ....(...........
    0x10013130:   01 00 00 00 00 00 00 00 00 00 00 00 12 00 00 00    ................
    0x10013140:   01 00 00 00 00 00 00 00 00 00 00 00 13 00 00 00    ................
    0x10013150:   01 00 00 00 00 00 00 00 00 00 00 00 00 00 00 00    ................
    0x10013160:   c4 37 01 10 d4 37 01 10 a8 38 01 10 60 31 01 10    .7...7...8..`1..
    0x10013170:   00 11 50 06 00 04 00 00 00 00 00 00 03 01 c5 01    ..P.............
    0x10013180:   39 00 00 00 00 00 00 00 00 00 00 00 00 00 00 00    9...............
    0x10013190:   00 00 00 00 01 00 81 06 02 00 00 00 00 00 00 00    ................
    0x100131a0:   00 00 00 00 1f b5 00 24 00 98 22 28 2d d2 01 00    .......$.."(-...
    0x100131b0:   79 44 09 79 49 18 8f 44 10 2a 2a 2a 2a 2a 2a 2a    yD.yI..D.*******
    0x100131c0:   2a 2a 2a 2a 2a 2a 2a 2a 15 2a 2a 2a 2a 2a 2a 18    ********.******.
    0x100131d0:   2a 1b 1e 2a 2a 28 28 28 28 24 01 98 c0 b2 00 f0    *..**(((($......
    0x100131e0:   95 f8 14 e0 00 f0 16 f8 11 e0 00 f0 d1 f9 0e e0    ................
    0x100131f0:   00 f0 2c fa 0b e0 01 98 c0 b2 00 f0 5d f9 04 46    ..,.........]..F
    0x10013200:   05 e0 00 f0 a3 fa 04 46 01 e0 00 24 e4 43 20 46    .......F...$.C F
    0x10013210:   04 b0 10 bd f0 b4 00 20 43 22 12 06 51 68 ff 24    ....... C"..Qh.$
    0x10013220:   01 34 21 43 51 60 51 68 23 03 19 43 51 60 a3 23    .4!CQ`Qh#..CQ`.#
    0x10013230:   db 05 19 68 49 08 49 00 19 60 2a 49 09 69 ce b2    ...hI.I..`*I.i..
    0x10013240:   29 4d 2a 4f 29 88 b9 42 01 d3 04 20 0d e0 28 4f    )M*O)..B... ..(O
    0x10013250:   b9 42 01 d3 03 20 08 e0 26 4f b9 42 01 d3 02 20    .B... ..&O.B... 
    0x10013260:   03 e0 25 4f b9 42 00 d3 01 20 24 4f 39 18 20 31    ..%O.B... $O9. 1
    0x10013270:   09 7e b1 42 09 da 00 28 01 dd 40 1e 40 b2 39 18    .~.B...(..@.@.9.
    0x10013280:   09 7a 40 00 c0 19 00 8b 0b e0 04 28 04 da 39 5c    .z@........(..9\
    0x10013290:   b1 42 01 db 40 1c 40 b2 39 18 09 7a 40 00 c0 19    .B..@.@.9..z@...
    0x100132a0:   00 8b 17 4e 31 62 19 68 49 08 49 00 19 60 15 4e    ...N1b.hI.I..`.N
    0x100132b0:   31 6b 0f 46 27 43 37 63 98 62 a1 43 31 63 28 80    1k.F'C7c.b.C1c(.
    0x100132c0:   51 68 b0 03 81 43 10 48 00 78 c0 07 c0 0f 03 05    Qh...C.H.x......
    0x100132d0:   19 43 51 60 51 68 00 02 a1 43 01 43 51 60 f0 bc    .CQ`Qh...C.CQ`..
    0x100132e0:   70 47 00 00 80 00 80 45 50 68 00 20 f6 3f 00 00    pG.....EPh. .?..
    0x100132f0:   f6 38 00 00 f6 2d 00 00 f6 09 00 00 50 6e 00 20    .8...-......Pn. 
    0x10013300:   80 04 c0 50 40 00 80 45 3a 68 00 20 f0 b4 43 20    ...P@..E:h. ..C 
    0x10013310:   00 06 41 68 01 22 92 04 11 43 41 60 c4 21 87 22    ..Ah."...CA`.!."
    0x10013320:   d2 05 11 60 50 49 51 61 42 68 01 21 89 04 8a 43    ...`PIQaBh.!...C
    0x10013330:   4e 49 09 78 c9 07 c9 0f 8b 04 1a 43 42 60 8b 23    NI.x.......CB`.#
    0x10013340:   4b 4a db 05 5a 63 4b 4b 02 22 da 60 05 22 c2 60    KJ..ZcKK.".`.".`
    0x10013350:   8b 23 db 05 da 63 47 4b 01 22 1a 61 5a 62 9a 63    .#...cGK.".aZb.c
    0x10013360:   45 4b 1a 60 45 4c 5c 61 8b 23 db 05 db 6a 13 43    EK.`EL\a.#...j.C
    0x10013370:   8b 22 d2 05 d3 62 42 68 01 25 2d 04 2a 43 42 60    ."...bBh.%-.*CB`
    0x10013380:   42 68 ac 10 22 43 42 60 3e 4a 3d 4b 53 61 93 68    Bh.."CB`>J=KSa.h
    0x10013390:   3f 26 b6 05 33 43 93 60 00 23 d3 60 3a 4b 93 61    ?&..3C.`.#.`:K.a
    0x100133a0:   3a 4e 33 68 1e 27 bb 43 33 60 93 6a fe 03 b3 43    :N3h.'.C3`.j...C
    0x100133b0:   26 01 9b 19 93 62 36 4b f0 22 5a 60 42 68 0b 04    &....b6K."Z`Bh..
    0x100133c0:   aa 43 1a 43 42 60 42 68 8b 03 a2 43 1a 43 42 60    .C.CB`Bh...C.CB`
    0x100133d0:   42 68 64 10 22 43 42 60 29 22 52 06 13 6a 1b 09    Bhd."CB`)"R..j..
    0x100133e0:   1b 01 08 33 13 62 2b 4b d3 60 42 68 4b 03 a2 43    ...3.b+K.`BhK..C
    0x100133f0:   1a 43 42 60 43 68 e2 01 13 43 43 60 28 24 a3 23    .CB`Ch...CC`($.#
    0x10013400:   db 05 1c 60 24 4d 2d 88 9d 62 43 68 09 05 93 43    ...`$M-..bCh...C
    0x10013410:   0b 43 43 60 21 48 e6 21 01 70 04 72 1f 4a 20 48    .CC`!H.!.p.r.J H
    0x10013420:   10 83 20 48 e0 23 03 76 1c 4c d4 22 62 70 3c 22    .. H.#.v.L."bp<"
    0x10013430:   62 72 1d 4a 62 83 41 76 c8 22 a2 70 17 4d 46 24    br.Jb.Av.".p.MF$
    0x10013440:   ac 72 1a 4c ac 83 81 76 29 46 ca 70 50 21 2a 46    .r.L...v)F.pP!*F
    0x10013450:   d1 72 17 49 d1 83 c3 76 5a 21 11 73 15 49 11 84    .r.I...vZ!.s.I..
    0x10013460:   03 77 f0 bc 70 47 00 00 ff 7f 00 00 3a 68 00 20    .w..pG......:h. 
    0x10013470:   49 02 00 00 40 00 80 45 80 00 80 45 1e 02 00 00    I...@..E...E....
    0x10013480:   03 00 3c 00 00 00 40 52 08 00 0f 00 00 00 c0 51    ..<...@R.......Q
    0x10013490:   40 00 40 52 cc 34 63 02 50 68 00 20 50 6e 00 20    @.@R.4c.Ph. Pn. 
    0x100134a0:   f6 07 00 00 70 6e 00 20 f6 09 00 00 f6 2d 00 00    ....pn. .....-..
    0x100134b0:   f6 38 00 00 f6 3f 00 00 f8 b5 2d 48 00 68 00 28    .8...?....-H.h.(
    0x100134c0:   54 d1 43 22 12 06 50 68 01 21 c9 03 08 43 50 60    T.C"..Ph.!...CP`
    0x100134d0:   28 4f 3c 68 01 25 03 20 00 06 20 43 38 60 00 26    (O<h.%. .. C8`.&
    0x100134e0:   25 49 1e 20 88 47 24 49 01 20 88 47 78 68 c0 07    %I. .G$I. .Gxh..
    0x100134f0:   c0 0f 31 46 21 4a 76 1c 91 42 01 d8 00 28 f2 d0    ..1F!Jv..B...(..
    0x10013500:   1c 48 81 68 1e 48 01 60 00 20 00 26 00 2d 11 d0    .H.h.H.`. .&.-..
    0x10013510:   1c 4b 32 46 00 25 cb 1a aa 41 14 da 40 1c 05 46    .K2F.%...A..@..F
    0x10013520:   18 4f 4d 43 33 46 00 22 7d 1b 9a 41 4d 1b 93 41    .OMC3F."}..AM..A
    0x10013530:   f4 db 08 e0 14 4b 99 42 05 d2 40 1c 02 46 4a 43    .....K.B..@..FJC
    0x10013540:   9a 1a 8a 42 f9 d8 01 21 09 06 8c 43 49 00 0c 43    ...B...!...CI..C
    0x10013550:   08 49 0c 60 43 22 12 06 51 68 01 23 db 03 99 43    .I.`C"..Qh.#...C
    0x10013560:   0a 4b 1b 78 db 07 1b 0c 19 43 51 60 f8 bd 00 00    .K.x.....CQ`....
    0x10013570:   60 68 00 20 00 00 40 44 e5 3e 00 00 10 27 00 00    `h. ..@D.>...'..
    0x10013580:   64 68 00 20 00 20 bc be 00 d0 12 13 3a 68 00 20    dh. . ......:h. 
    0x10013590:   f8 b5 24 48 80 47 43 24 24 06 01 21 60 68 89 04    ..$H.GC$$..!`h..
    0x100135a0:   08 43 60 60 20 48 80 47 20 48 00 78 aa 28 06 d1    .C`` H.G H.x.(..
    0x100135b0:   a0 68 80 07 03 d1 1e 49 88 47 1e 49 08 60 06 27    .h.....I.G.I.`.'
    0x100135c0:   e7 60 1d 4c 01 20 a0 47 a1 20 c0 05 02 6b 02 21    .`.L. .G. ...k.!
    0x100135d0:   8a 43 0a 43 02 63 01 21 02 6b 8a 43 0a 43 02 63    .C.C.c.!.k.C.C.c
    0x100135e0:   01 6b 04 25 a9 43 29 43 01 63 14 4e 70 68 80 00    .k.%.C)C.c.Nph..
    0x100135f0:   04 d5 01 20 a0 47 70 68 80 00 fa d4 10 4e 0f 20    ... .Gph.....N. 
    0x10013600:   70 60 01 20 a0 47 07 20 70 60 04 20 a0 47 77 60    p`. .G. p`. .Gw`
    0x10013610:   8b 21 0c 48 c9 05 08 60 0b 48 01 69 29 43 01 61    .!.H...`.H.i)C.a
    0x10013620:   30 bf f8 bd 75 3a 00 00 85 a3 00 00 2c 68 00 20    0...u:......,h. 
    0x10013630:   11 3d 00 00 58 68 00 20 e5 3e 00 00 80 00 80 45    .=..Xh. .>.....E
    0x10013640:   40 00 80 45 26 03 00 00 00 ed 00 e0 f8 b5 05 20    @..E&.......... 
    0x10013650:   43 24 24 06 e0 60 30 4e 01 20 b0 47 2f 4f 0f 20    C$$..`0N. .G/O. 
    0x10013660:   78 60 8b 25 ed 05 28 68 01 21 49 02 88 43 28 60    x`.%..(h.!I..C(`
    0x10013670:   2b 48 80 47 01 20 80 f3 10 88 2a 48 40 68 2a 49    +H.G. ....*H@h*I
    0x10013680:   80 00 06 d4 28 68 08 22 10 43 28 60 01 20 88 47    ....(h.".C(`. .G
    0x10013690:   01 e0 01 20 88 47 25 48 80 47 25 48 00 78 b0 47    ... .G%H.G%H.x.G
    0x100136a0:   0d 20 78 60 01 20 b0 47 22 48 80 47 60 68 01 22    . x`. .G"H.G`h."
    0x100136b0:   52 03 10 43 60 60 29 20 1f 49 40 06 c1 60 01 6a    R..C``) .I@..`.j
    0x100136c0:   09 09 09 01 08 31 01 62 01 68 d3 10 19 43 01 60    .....1.b.h...C.`
    0x100136d0:   1a 49 09 78 49 00 49 1c 41 61 61 68 18 48 91 43    .I.xI.I.Aaah.H.C
    0x100136e0:   00 78 c0 07 c0 0f 42 03 11 43 61 60 62 68 99 02    .x....B..Ca`bh..
    0x100136f0:   0a 43 62 60 28 23 a3 22 d2 05 13 60 11 4b 1b 88    .Cb`(#."...`.K..
    0x10013700:   93 62 62 68 00 05 8a 43 02 43 62 60 00 20 80 f3    .bbh...C.Cb`. ..
    0x10013710:   10 88 0d 48 80 47 f8 bd e5 3e 00 00 40 00 80 45    ...H.G...>..@..E
    0x10013720:   65 50 01 00 80 00 80 45 a1 59 01 00 29 48 01 00    eP.....E.Y..)H..
    0x10013730:   41 68 00 20 c5 64 01 00 cc 34 63 04 74 68 00 20    Ah. .d...4c.th. 
    0x10013740:   3a 68 00 20 50 68 00 20 69 48 01 00 10 b5 15 48    :h. Ph. iH.....H
    0x10013750:   80 7a c0 07 01 d0 00 20 10 bd 13 48 80 47 05 20    .z..... ...H.G. 
    0x10013760:   00 07 c0 69 11 49 00 05 04 d0 08 78 01 28 14 d0    ...i.I.....x.(..
    0x10013770:   02 28 12 d0 08 78 00 28 08 d0 01 28 06 d0 02 28    .(...x.(...(...(
    0x10013780:   04 d0 0b 48 80 47 0b 49 32 20 88 47 0a 49 04 20    ...H.G.I2 .G.I. 
    0x10013790:   88 47 0a 48 80 47 00 20 10 bd 09 49 04 20 88 47    .G.H.G. ...I. .G
    0x100137a0:   01 20 10 bd 0c 6e 00 20 51 9a 00 00 18 10 00 20    . ...n. Q...... 
    0x100137b0:   69 61 01 00 e5 3e 00 00 59 59 01 00 d3 60 01 00    ia...>..YY...`..
    0x100137c0:   a1 59 01 00 bb 00 00 00 54 06 00 00 38 4c 00 00    .Y......T...8L..
    0x100137d0:   70 31 01 10 cc 00 00 00 30 02 00 00 0c 32 00 00    p1......0....2..
    0x100137e0:   b0 23 01 00 4e 56 44 53 01 06 06 ef bb 23 88 77    .#..NVDS.....#.w
    0x100137f0:   66 02 06 0a 4e 5a 38 38 30 31 56 31 41 00 03 06    f...NZ8801V1A...
    0x10013800:   01 00 07 06 02 00 00 0c 06 02 32 00 08 06 01 00    ..........2.....
    0x10013810:   09 06 01 02 0a 06 04 00 00 00 00 0b 06 01 96 23    ...............#
    0x10013820:   06 01 95 0d 06 02 e8 03 0e 06 02 e8 03 0f 06 02    ................
    0x10013830:   2c 01 10 06 04 00 c2 01 00 11 06 01 01 12 06 01    ,...............
    0x10013840:   01 13 06 02 f4 01 14 06 02 60 00 15 06 01 08 16    .........`......
    0x10013850:   06 01 03 17 06 01 29 18 06 02 dc 05 19 06 02 e2    ......).........
    0x10013860:   04 20 06 01 01 21 06 01 02 22 06 01 00 24 06 04    . ...!..."...$..
    0x10013870:   5c 09 6a 09 25 06 01 11 26 06 01 00 27 06 01 02    \.j.%...&...'...
    0x10013880:   2d 06 01 00 28 06 02 f6 2d 29 06 01 0f 35 06 01    -...(...-)...5..
    0x10013890:   08 37 06 01 00 05 06 02 34 00 04 06 01 20 2e 06    .7......4.... ..
    0x100138a0:   01 00 00 00 00 00 00 00 dd 00 00 00 c2 00 00 00    ................
    0x100138b0:   2b 11 00 00 e4 37 01 10 00 00 00 00 00 00 00 00    +....7..........


** Section #3 'RWMEM' (SHT_NOBITS) [SHF_ALLOC + SHF_WRITE]
    Size   : 21656 bytes (alignment 8)
    Address: 0x100138c0


** Section #4 'STACKMEM' (SHT_NOBITS) [SHF_ALLOC + SHF_WRITE]
    Size   : 12288 bytes (alignment 8)
    Address: 0x10010000


** Section #5 '.debug_abbrev' (SHT_PROGBITS)
    Size   : 1476 bytes


** Section #6 '.debug_frame' (SHT_PROGBITS)
    Size   : 7208 bytes


** Section #7 '.debug_info' (SHT_PROGBITS)
    Size   : 384836 bytes


** Section #8 '.debug_line' (SHT_PROGBITS)
    Size   : 33204 bytes


** Section #9 '.debug_loc' (SHT_PROGBITS)
    Size   : 11116 bytes


** Section #10 '.debug_macinfo' (SHT_PROGBITS)
    Size   : 291256 bytes


** Section #11 '.debug_pubnames' (SHT_PROGBITS)
    Size   : 4576 bytes


** Section #12 '.symtab' (SHT_SYMTAB)
    Size   : 21072 bytes (alignment 4)
    String table #13 '.strtab'
    Last local symbol no. 984

    Symbol table .symtab (1316 symbols, 984 local)

      #  Symbol Name                Value      Bind  Sec  Type  Vis  Size
    ========================================================================

      1  $d                         0x0000c000   Lc    1   --   De 
      2  $t                         0x0000c100   Lc    1   --   De 
      3  $d                         0x0000c132   Lc    1   --   De 
      4  $t                         0x0000c138   Lc    1   --   De 
      5  $d                         0x0000c16c   Lc    1   --   De 
      6  $t                         0x0000c174   Lc    1   --   De 
      7  $d                         0x0000c234   Lc    1   --   De 
      8  $t                         0x0000c238   Lc    1   --   De 
      9  $d                         0x0000c25c   Lc    1   --   De 
     10  $t                         0x0000c260   Lc    1   --   De 
     11  $d                         0x0000c270   Lc    1   --   De 
     12  $t                         0x0000c274   Lc    1   --   De 
     13  $d                         0x0000c2cc   Lc    1   --   De 
     14  $t                         0x0000c2d0   Lc    1   --   De 
     15  $d                         0x0000c31e   Lc    1   --   De 
     16  $t                         0x0000c32c   Lc    1   --   De 
     17  $d                         0x0000c4c8   Lc    1   --   De 
     18  $t                         0x0000c4cc   Lc    1   --   De 
     19  $d                         0x0000c530   Lc    1   --   De 
     20  $t                         0x0000c534   Lc    1   --   De 
     21  $d                         0x0000c54c   Lc    1   --   De 
     22  $t                         0x0000c550   Lc    1   --   De 
     23  $d                         0x0000c57e   Lc    1   --   De 
     24  $t                         0x0000c58c   Lc    1   --   De 
     25  $d                         0x0000c70e   Lc    1   --   De 
     26  $t                         0x0000c7d4   Lc    1   --   De 
     27  $d                         0x0000c86a   Lc    1   --   De 
     28  $t                         0x0000c8b8   Lc    1   --   De 
     29  $d                         0x0000c8c8   Lc    1   --   De 
     30  $t                         0x0000c8cc   Lc    1   --   De 
     31  $d                         0x0000c8dc   Lc    1   --   De 
     32  $t                         0x0000c8e0   Lc    1   --   De 
     33  $d                         0x0000c920   Lc    1   --   De 
     34  $t                         0x0000c924   Lc    1   --   De 
     35  $d                         0x0000c952   Lc    1   --   De 
     36  $t                         0x0000c958   Lc    1   --   De 
     37  $d                         0x0000c96c   Lc    1   --   De 
     38  $t                         0x0000c970   Lc    1   --   De 
     39  $d                         0x0000c984   Lc    1   --   De 
     40  $t                         0x0000c988   Lc    1   --   De 
     41  $d                         0x0000c9ec   Lc    1   --   De 
     42  $t                         0x0000c9f0   Lc    1   --   De 
     43  $d                         0x0000ca5c   Lc    1   --   De 
     44  $t                         0x0000ca68   Lc    1   --   De 
     45  $d                         0x0000cad0   Lc    1   --   De 
     46  $t                         0x0000cad8   Lc    1   --   De 
     47  $d                         0x0000cb0c   Lc    1   --   De 
     48  $t                         0x0000cb1c   Lc    1   --   De 
     49  $d                         0x0000cb56   Lc    1   --   De 
     50  $t                         0x0000cb60   Lc    1   --   De 
     51  $d                         0x0000cbac   Lc    1   --   De 
     52  $t                         0x0000cbb0   Lc    1   --   De 
     53  $d                         0x0000cc0c   Lc    1   --   De 
     54  $t                         0x0000cc14   Lc    1   --   De 
     55  $d                         0x0000ccb2   Lc    1   --   De 
     56  $t                         0x0000ccc0   Lc    1   --   De 
     57  $d                         0x0000cd06   Lc    1   --   De 
     58  $t                         0x0000cd10   Lc    1   --   De 
     59  $d                         0x0000d12a   Lc    1   --   De 
     60  $t                         0x0000d148   Lc    1   --   De 
     61  $d                         0x0000d2c8   Lc    1   --   De 
     62  $t                         0x0000d2f0   Lc    1   --   De 
     63  $d                         0x0000d37e   Lc    1   --   De 
     64  $t                         0x0000d388   Lc    1   --   De 
     65  $d                         0x0000d42e   Lc    1   --   De 
     66  $t                         0x0000d43c   Lc    1   --   De 
     67  $d                         0x0000d490   Lc    1   --   De 
     68  $t                         0x0000d494   Lc    1   --   De 
     69  $d                         0x0000d502   Lc    1   --   De 
     70  $t                         0x0000d50c   Lc    1   --   De 
     71  $d                         0x0000d530   Lc    1   --   De 
     72  $t                         0x0000d538   Lc    1   --   De 
     73  $d                         0x0000d572   Lc    1   --   De 
     74  $t                         0x0000d57c   Lc    1   --   De 
     75  $d                         0x0000d594   Lc    1   --   De 
     76  $t                         0x0000d598   Lc    1   --   De 
     77  $d                         0x0000d8bc   Lc    1   --   De 
     78  $t                         0x0000d8d4   Lc    1   --   De 
     79  $d                         0x0000db5a   Lc    1   --   De 
     80  $t                         0x0000db90   Lc    1   --   De 
     81  $d                         0x0000dc64   Lc    1   --   De 
     82  $t                         0x0000dc74   Lc    1   --   De 
     83  $d                         0x0000dd4a   Lc    1   --   De 
     84  $t                         0x0000dd58   Lc    1   --   De 
     85  $d                         0x0000deac   Lc    1   --   De 
     86  $t                         0x0000dedc   Lc    1   --   De 
     87  $d                         0x0000df2c   Lc    1   --   De 
     88  $t                         0x0000df34   Lc    1   --   De 
     89  $d                         0x0000dfbe   Lc    1   --   De 
     90  $t                         0x0000dfd0   Lc    1   --   De 
     91  $d                         0x0000e006   Lc    1   --   De 
     92  $t                         0x0000e010   Lc    1   --   De 
     93  $d                         0x0000e064   Lc    1   --   De 
     94  $t                         0x0000e06c   Lc    1   --   De 
     95  $d                         0x0000e0c4   Lc    1   --   De 
     96  $t                         0x0000e0cc   Lc    1   --   De 
     97  $d                         0x0000e112   Lc    1   --   De 
     98  $t                         0x0000e118   Lc    1   --   De 
     99  $d                         0x0000e124   Lc    1   --   De 
    100  $t                         0x0000e136   Lc    1   --   De 
    101  $d                         0x0000e4bc   Lc    1   --   De 
    102  $t                         0x0000e4c4   Lc    1   --   De 
    103  $d                         0x0000e4d2   Lc    1   --   De 
    104  $t                         0x0000e4d8   Lc    1   --   De 
    105  $d                         0x0000e4f0   Lc    1   --   De 
    106  $t                         0x0000e4fa   Lc    1   --   De 
    107  $d                         0x0000e5c4   Lc    1   --   De 
    108  $t                         0x0000e5d4   Lc    1   --   De 
    109  $d                         0x0000e600   Lc    1   --   De 
    110  $t                         0x0000e608   Lc    1   --   De 
    111  $d                         0x0000e626   Lc    1   --   De 
    112  $t                         0x0000e62c   Lc    1   --   De 
    113  $d                         0x0000e682   Lc    1   --   De 
    114  $t                         0x0000e688   Lc    1   --   De 
    115  $d                         0x0000e68c   Lc    1   --   De 
    116  $t                         0x0000e690   Lc    1   --   De 
    117  $d                         0x0000e6b4   Lc    1   --   De 
    118  $t                         0x0000e6b8   Lc    1   --   De 
    119  $d                         0x0000e902   Lc    1   --   De 
    120  $t                         0x0000e938   Lc    1   --   De 
    121  $d                         0x0000e9d0   Lc    1   --   De 
    122  $t                         0x0000e9d6   Lc    1   --   De 
    123  $d                         0x0000ea40   Lc    1   --   De 
    124  $t                         0x0000ea5c   Lc    1   --   De 
    125  $d                         0x0000eba2   Lc    1   --   De 
    126  $t                         0x0000ebc4   Lc    1   --   De 
    127  $d                         0x0000ec0c   Lc    1   --   De 
    128  $t                         0x0000ec10   Lc    1   --   De 
    129  $d                         0x0000ecfe   Lc    1   --   De 
    130  $t                         0x0000ed14   Lc    1   --   De 
    131  $d                         0x0000ed76   Lc    1   --   De 
    132  $t                         0x0000ed80   Lc    1   --   De 
    133  $d                         0x0000edc6   Lc    1   --   De 
    134  $t                         0x0000edd0   Lc    1   --   De 
    135  $d                         0x0000ee18   Lc    1   --   De 
    136  $t                         0x0000ee20   Lc    1   --   De 
    137  $d                         0x0000eeee   Lc    1   --   De 
    138  $t                         0x0000eef4   Lc    1   --   De 
    139  $d                         0x0000ef02   Lc    1   --   De 
    140  $t                         0x0000ef08   Lc    1   --   De 
    141  $d                         0x0000ef10   Lc    1   --   De 
    142  $t                         0x0000ef14   Lc    1   --   De 
    143  $d                         0x0000ef1c   Lc    1   --   De 
    144  $t                         0x0000ef20   Lc    1   --   De 
    145  $d                         0x0000ef2e   Lc    1   --   De 
    146  $t                         0x0000ef34   Lc    1   --   De 
    147  $d                         0x0000ef46   Lc    1   --   De 
    148  $t                         0x0000ef4c   Lc    1   --   De 
    149  $d                         0x0000ef56   Lc    1   --   De 
    150  $t                         0x0000ef5c   Lc    1   --   De 
    151  $d                         0x0000ef88   Lc    1   --   De 
    152  $t                         0x0000ef8c   Lc    1   --   De 
    153  $d                         0x0000f010   Lc    1   --   De 
    154  $t                         0x0000f028   Lc    1   --   De 
    155  $d                         0x0000f0a2   Lc    1   --   De 
    156  $t                         0x0000f0b8   Lc    1   --   De 
    157  $d                         0x0000f100   Lc    1   --   De 
    158  $t                         0x0000f104   Lc    1   --   De 
    159  $d                         0x0000f1cc   Lc    1   --   De 
    160  $t                         0x0000f1d4   Lc    1   --   De 
    161  $d                         0x0000f20e   Lc    1   --   De 
    162  $t                         0x0000f218   Lc    1   --   De 
    163  $d                         0x0000f2d8   Lc    1   --   De 
    164  $t                         0x0000f2e0   Lc    1   --   De 
    165  $d                         0x0000f316   Lc    1   --   De 
    166  $t                         0x0000f324   Lc    1   --   De 
    167  $d                         0x0000f408   Lc    1   --   De 
    168  $t                         0x0000f40c   Lc    1   --   De 
    169  $d                         0x0000f43e   Lc    1   --   De 
    170  $t                         0x0000f448   Lc    1   --   De 
    171  $d                         0x0000f44e   Lc    1   --   De 
    172  $t                         0x0000f454   Lc    1   --   De 
    173  $d                         0x0000f7f8   Lc    1   --   De 
    174  $t                         0x0000f808   Lc    1   --   De 
    175  $d                         0x0000f85a   Lc    1   --   De 
    176  $t                         0x0000f860   Lc    1   --   De 
    177  $d                         0x0000f940   Lc    1   --   De 
    178  $t                         0x0000fa58   Lc    1   --   De 
    179  $d                         0x0000fb92   Lc    1   --   De 
    180  $t                         0x0000fba4   Lc    1   --   De 
    181  $d                         0x0000fbc8   Lc    1   --   De 
    182  $t                         0x0000fbd0   Lc    1   --   De 
    183  $d                         0x0000fd42   Lc    1   --   De 
    184  $t                         0x0000fd48   Lc    1   --   De 
    185  $d                         0x0000fda6   Lc    1   --   De 
    186  $t                         0x0000fe48   Lc    1   --   De 
    187  $d                         0x0000ff60   Lc    1   --   De 
    188  $t                         0x0000ff78   Lc    1   --   De 
    189  $d                         0x0001000c   Lc    1   --   De 
    190  $t                         0x00010028   Lc    1   --   De 
    191  $d                         0x00010060   Lc    1   --   De 
    192  $t                         0x00010074   Lc    1   --   De 
    193  $d                         0x00010140   Lc    1   --   De 
    194  $t                         0x00010154   Lc    1   --   De 
    195  $d                         0x00010178   Lc    1   --   De 
    196  $t                         0x0001017c   Lc    1   --   De 
    197  $d                         0x000101a6   Lc    1   --   De 
    198  $t                         0x000101b4   Lc    1   --   De 
    199  $d                         0x0001020e   Lc    1   --   De 
    200  $t                         0x00010220   Lc    1   --   De 
    201  $d                         0x00010368   Lc    1   --   De 
    202  $t                         0x00010384   Lc    1   --   De 
    203  $d                         0x000103d4   Lc    1   --   De 
    204  $t                         0x000103dc   Lc    1   --   De 
    205  $d                         0x00010460   Lc    1   --   De 
    206  $t                         0x00010464   Lc    1   --   De 
    207  $d                         0x000104ae   Lc    1   --   De 
    208  $t                         0x000104b8   Lc    1   --   De 
    209  $d                         0x00010548   Lc    1   --   De 
    210  $t                         0x0001054c   Lc    1   --   De 
    211  $d                         0x000105b2   Lc    1   --   De 
    212  $t                         0x000105c0   Lc    1   --   De 
    213  $d                         0x000105ea   Lc    1   --   De 
    214  $t                         0x000105f4   Lc    1   --   De 
    215  $d                         0x0001061c   Lc    1   --   De 
    216  $t                         0x00010620   Lc    1   --   De 
    217  $d                         0x000106a4   Lc    1   --   De 
    218  $t                         0x000106ac   Lc    1   --   De 
    219  $d                         0x000106d6   Lc    1   --   De 
    220  $t                         0x000106dc   Lc    1   --   De 
    221  $d                         0x00010824   Lc    1   --   De 
    222  $t                         0x00010834   Lc    1   --   De 
    223  $d                         0x0001085a   Lc    1   --   De 
    224  $t                         0x00010860   Lc    1   --   De 
    225  $d                         0x0001089e   Lc    1   --   De 
    226  $t                         0x000108bc   Lc    1   --   De 
    227  $d                         0x00010ab6   Lc    1   --   De 
    228  $t                         0x00010ac0   Lc    1   --   De 
    229  $d                         0x00010ae6   Lc    1   --   De 
    230  $t                         0x00010aec   Lc    1   --   De 
    231  $d                         0x00010b24   Lc    1   --   De 
    232  $t                         0x00010b2c   Lc    1   --   De 
    233  $d                         0x00010ba2   Lc    1   --   De 
    234  $t                         0x00010bb4   Lc    1   --   De 
    235  $d                         0x00010c80   Lc    1   --   De 
    236  $t                         0x00010c8c   Lc    1   --   De 
    237  $d                         0x00010cd2   Lc    1   --   De 
    238  $t                         0x00010ce0   Lc    1   --   De 
    239  $d                         0x00010d3a   Lc    1   --   De 
    240  $t                         0x00010d44   Lc    1   --   De 
    241  $d                         0x00010d4c   Lc    1   --   De 
    242  $t                         0x00010d50   Lc    1   --   De 
    243  $d                         0x00010d72   Lc    1   --   De 
    244  $t                         0x00010d78   Lc    1   --   De 
    245  $d                         0x00010da2   Lc    1   --   De 
    246  $t                         0x00010da8   Lc    1   --   De 
    247  $d                         0x00010e10   Lc    1   --   De 
    248  $t                         0x00010e24   Lc    1   --   De 
    249  $d                         0x00010e8a   Lc    1   --   De 
    250  $t                         0x00010ea8   Lc    1   --   De 
    251  $d                         0x00010ece   Lc    1   --   De 
    252  $t                         0x00010ed8   Lc    1   --   De 
    253  $d                         0x00010ee4   Lc    1   --   De 
    254  $t                         0x00010ee8   Lc    1   --   De 
    255  $d                         0x00010f88   Lc    1   --   De 
    256  $t                         0x00010f9c   Lc    1   --   De 
    257  $d                         0x00010fca   Lc    1   --   De 
    258  $t                         0x00010fd0   Lc    1   --   De 
    259  $d                         0x0001117e   Lc    1   --   De 
    260  $t                         0x0001119c   Lc    1   --   De 
    261  $d                         0x00011230   Lc    1   --   De 
    262  $t                         0x0001123c   Lc    1   --   De 
    263  $d                         0x00011304   Lc    1   --   De 
    264  $t                         0x00011308   Lc    1   --   De 
    265  $d                         0x00011464   Lc    1   --   De 
    266  $t                         0x00011468   Lc    1   --   De 
    267  $d                         0x0001165a   Lc    1   --   De 
    268  $t                         0x00011660   Lc    1   --   De 
    269  $d                         0x000116c0   Lc    1   --   De 
    270  $t                         0x000116c8   Lc    1   --   De 
    271  $d                         0x00011740   Lc    1   --   De 
    272  $t                         0x00011748   Lc    1   --   De 
    273  $d                         0x0001174e   Lc    1   --   De 
    274  $t                         0x00011754   Lc    1   --   De 
    275  $d                         0x00011840   Lc    1   --   De 
    276  $t                         0x0001186c   Lc    1   --   De 
    277  $d                         0x000118dc   Lc    1   --   De 
    278  $t                         0x000118f4   Lc    1   --   De 
    279  $d                         0x000119c0   Lc    1   --   De 
    280  $t                         0x000119e4   Lc    1   --   De 
    281  $d                         0x00011a44   Lc    1   --   De 
    282  $t                         0x00011a58   Lc    1   --   De 
    283  $d                         0x00011ac6   Lc    1   --   De 
    284  $t                         0x00011acc   Lc    1   --   De 
    285  $d                         0x00011afc   Lc    1   --   De 
    286  $t                         0x00011b00   Lc    1   --   De 
    287  $d                         0x00011b50   Lc    1   --   De 
    288  $t                         0x00011b54   Lc    1   --   De 
    289  $d                         0x00011bd2   Lc    1   --   De 
    290  $t                         0x00011bd6   Lc    1   --   De 
    291  $d.realdata                0x00011c14   Lc    1   --   De 
    292  $d.realdata                0x10013000   Lc    2   --   De 
    293  $d.realdata                0x10010000   Lc    4   --   De 
    294  ../../../../../third_party/exactle/wsf/sources/port/freertos/wsf_assert.c
                                    0x00000000   Lc  Abs  File  De 
    295  ../../../../../third_party/exactle/wsf/sources/port/freertos/wsf_buf.c
                                    0x00000000   Lc  Abs  File  De 
    296  ../../../../../third_party/exactle/wsf/sources/port/freertos/wsf_efs.c
                                    0x00000000   Lc  Abs  File  De 
    297  ../../../../../third_party/exactle/wsf/sources/port/freertos/wsf_math.c
                                    0x00000000   Lc  Abs  File  De 
    298  ../../../../../third_party/exactle/wsf/sources/port/freertos/wsf_msg.c
                                    0x00000000   Lc  Abs  File  De 
    299  ../../../../../third_party/exactle/wsf/sources/port/freertos/wsf_os.c
                                    0x00000000   Lc  Abs  File  De 
    300  i.WsfCsEnter               0x0000c958   Lc    1  Sect  De 
    301  i.WsfCsExit                0x0000c970   Lc    1  Sect  De 
    302  i.WsfSetEvent              0x0000c9b4   Lc    1  Sect  De 
    303  i.WsfSetOsSpecificEvent    0x0000c9f0   Lc    1  Sect  De 
    304  i.WsfTaskLock              0x0000ca68   Lc    1  Sect  De 
    305  i.WsfTaskUnlock            0x0000ca70   Lc    1  Sect  De 
    306  .bss                       0x100138c0   Lc    3  Sect  De   0x3c
    307  .data                      0x10013000   Lc    2  Sect  De   0x8
    308  ../../../../../third_party/exactle/wsf/sources/port/freertos/wsf_queue.c
                                    0x00000000   Lc  Abs  File  De 
    309  i.WsfQueueRemove           0x0000c988   Lc    1  Sect  De 
    310  ../../../../../third_party/exactle/wsf/sources/port/freertos/wsf_timer.c
                                    0x00000000   Lc  Abs  File  De 
    311  i.WsfTimerStop             0x0000ca78   Lc    1  Sect  De 
    312  i.wsfTimerRemove           0x00010f9c   Lc    1  Sect  De 
    313  wsfTimerRemove             0x00010f9d   Lc    1  Code  De   0x2e
    314  .data                      0x10013008   Lc    2  Sect  De   0x10
    315  g_ui32LastTime             0x10013014   Lc    2  Data  De   0x4
    316  ../../../../../third_party/exactle/wsf/sources/port/freertos/wsf_trace.c
                                    0x00000000   Lc  Abs  File  De 
    317  ../../../../../third_party/exactle/ble-host/sources/sec/uecc/sec_ecc.c
                                    0x00000000   Lc  Abs  File  De 
    318  ../../../../../third_party/exactle/ble-host/sources/stack/dm/dm_adv.c
                                    0x00000000   Lc  Abs  File  De 
    319  ../../../../../third_party/exactle/ble-host/sources/stack/dm/dm_adv_ae.c
                                    0x00000000   Lc  Abs  File  De 
    320  ../../../../../third_party/exactle/ble-host/sources/stack/dm/dm_adv_leg.c
                                    0x00000000   Lc  Abs  File  De 
    321  ../../../../../third_party/exactle/ble-host/sources/stack/dm/dm_conn.c
                                    0x00000000   Lc  Abs  File  De 
    322  ../../../../../third_party/exactle/ble-host/sources/stack/dm/dm_conn_cte.c
                                    0x00000000   Lc  Abs  File  De 
    323  ../../../../../third_party/exactle/ble-host/sources/stack/dm/dm_conn_master.c
                                    0x00000000   Lc  Abs  File  De 
    324  ../../../../../third_party/exactle/ble-host/sources/stack/dm/dm_conn_master_ae.c
                                    0x00000000   Lc  Abs  File  De 
    325  ../../../../../third_party/exactle/ble-host/sources/stack/dm/dm_conn_master_leg.c
                                    0x00000000   Lc  Abs  File  De 
    326  ../../../../../third_party/exactle/ble-host/sources/stack/dm/dm_conn_slave.c
                                    0x00000000   Lc  Abs  File  De 
    327  ../../../../../third_party/exactle/ble-host/sources/stack/dm/dm_conn_slave_ae.c
                                    0x00000000   Lc  Abs  File  De 
    328  ../../../../../third_party/exactle/ble-host/sources/stack/dm/dm_conn_slave_leg.c
                                    0x00000000   Lc  Abs  File  De 
    329  ../../../../../third_party/exactle/ble-host/sources/stack/dm/dm_conn_sm.c
                                    0x00000000   Lc  Abs  File  De 
    330  ../../../../../third_party/exactle/ble-host/sources/stack/dm/dm_dev.c
                                    0x00000000   Lc  Abs  File  De 
    331  ../../../../../third_party/exactle/ble-host/sources/stack/dm/dm_dev_priv.c
                                    0x00000000   Lc  Abs  File  De 
    332  ../../../../../third_party/exactle/ble-host/sources/stack/dm/dm_main.c
                                    0x00000000   Lc  Abs  File  De 
    333  ../../../../../third_party/exactle/ble-host/sources/stack/dm/dm_past.c
                                    0x00000000   Lc  Abs  File  De 
    334  ../../../../../third_party/exactle/ble-host/sources/stack/dm/dm_phy.c
                                    0x00000000   Lc  Abs  File  De 
    335  ../../../../../third_party/exactle/ble-host/sources/stack/dm/dm_priv.c
                                    0x00000000   Lc  Abs  File  De 
    336  ../../../../../third_party/exactle/ble-host/sources/stack/dm/dm_scan.c
                                    0x00000000   Lc  Abs  File  De 
    337  ../../../../../third_party/exactle/ble-host/sources/stack/dm/dm_scan_ae.c
                                    0x00000000   Lc  Abs  File  De 
    338  ../../../../../third_party/exactle/ble-host/sources/stack/dm/dm_scan_leg.c
                                    0x00000000   Lc  Abs  File  De 
    339  ../../../../../third_party/exactle/ble-host/sources/stack/dm/dm_sec.c
                                    0x00000000   Lc  Abs  File  De 
    340  ../../../../../third_party/exactle/ble-host/sources/stack/dm/dm_sec_lesc.c
                                    0x00000000   Lc  Abs  File  De 
    341  ../../../../../third_party/exactle/ble-host/sources/stack/dm/dm_sec_master.c
                                    0x00000000   Lc  Abs  File  De 
    342  ../../../../../third_party/exactle/ble-host/sources/stack/dm/dm_sec_slave.c
                                    0x00000000   Lc  Abs  File  De 
    343  ../../../../../third_party/exactle/ble-host/sources/stack/dm/dm_sync_ae.c
                                    0x00000000   Lc  Abs  File  De 
    344  ../../../../../third_party/exactle/ble-host/sources/stack/cfg/cfg_stack.c
                                    0x00000000   Lc  Abs  File  De 
    345  ../../../../../third_party/exactle/ble-profiles/sources/profiles/wdxs/wdxs_au.c
                                    0x00000000   Lc  Abs  File  De 
    346  ../../../../../third_party/exactle/ble-profiles/sources/profiles/wdxs/wdxs_dc.c
                                    0x00000000   Lc  Abs  File  De 
    347  ../../../../../third_party/exactle/ble-profiles/sources/profiles/wdxs/wdxs_ft.c
                                    0x00000000   Lc  Abs  File  De 
    348  ../../../../../third_party/exactle/ble-profiles/sources/profiles/wdxs/wdxs_main.c
                                    0x00000000   Lc  Abs  File  De 
    349  ../../../../../third_party/exactle/ble-profiles/sources/profiles/wdxs/wdxs_phy.c
                                    0x00000000   Lc  Abs  File  De 
    350  ../../../../../third_party/exactle/ble-profiles/sources/profiles/wdxs/wdxs_stream.c
                                    0x00000000   Lc  Abs  File  De 
    351  ../../../../../third_party/exactle/ble-host/sources/stack/hci/hci_main.c
                                    0x00000000   Lc  Abs  File  De 
    352  ../../../../../third_party/exactle/ble-host/sources/stack/att/attc_disc.c
                                    0x00000000   Lc  Abs  File  De 
    353  ../../../../../third_party/exactle/ble-host/sources/stack/att/attc_main.c
                                    0x00000000   Lc  Abs  File  De 
    354  ../../../../../third_party/exactle/ble-host/sources/stack/att/attc_proc.c
                                    0x00000000   Lc  Abs  File  De 
    355  ../../../../../third_party/exactle/ble-host/sources/stack/att/attc_read.c
                                    0x00000000   Lc  Abs  File  De 
    356  ../../../../../third_party/exactle/ble-host/sources/stack/att/attc_sign.c
                                    0x00000000   Lc  Abs  File  De 
    357  ../../../../../third_party/exactle/ble-host/sources/stack/att/attc_write.c
                                    0x00000000   Lc  Abs  File  De 
    358  ../../../../../third_party/exactle/ble-host/sources/stack/att/atts_ccc.c
                                    0x00000000   Lc  Abs  File  De 
    359  ../../../../../third_party/exactle/ble-host/sources/stack/att/atts_csf.c
                                    0x00000000   Lc  Abs  File  De 
    360  ../../../../../third_party/exactle/ble-host/sources/stack/att/atts_dyn.c
                                    0x00000000   Lc  Abs  File  De 
    361  ../../../../../third_party/exactle/ble-host/sources/stack/att/atts_ind.c
                                    0x00000000   Lc  Abs  File  De 
    362  ../../../../../third_party/exactle/ble-host/sources/stack/att/atts_main.c
                                    0x00000000   Lc  Abs  File  De 
    363  ../../../../../third_party/exactle/ble-host/sources/stack/att/atts_proc.c
                                    0x00000000   Lc  Abs  File  De 
    364  ../../../../../third_party/exactle/ble-host/sources/stack/att/atts_read.c
                                    0x00000000   Lc  Abs  File  De 
    365  ../../../../../third_party/exactle/ble-host/sources/stack/att/atts_sign.c
                                    0x00000000   Lc  Abs  File  De 
    366  ../../../../../third_party/exactle/ble-host/sources/stack/att/atts_write.c
                                    0x00000000   Lc  Abs  File  De 
    367  ../../../../../third_party/exactle/ble-host/sources/stack/att/att_main.c
                                    0x00000000   Lc  Abs  File  De 
    368  ../../../../../third_party/exactle/ble-host/sources/stack/att/att_uuid.c
                                    0x00000000   Lc  Abs  File  De 
    369  ../../../../../third_party/exactle/ble-profiles/sources/profiles/gap/gap_main.c
                                    0x00000000   Lc  Abs  File  De 
    370  ../../../../../third_party/exactle/ble-host/sources/sec/common/sec_aes.c
                                    0x00000000   Lc  Abs  File  De 
    371  ../../../../../third_party/exactle/ble-host/sources/sec/common/sec_aes_rev.c
                                    0x00000000   Lc  Abs  File  De 
    372  ../../../../../third_party/exactle/ble-host/sources/sec/common/sec_ccm_hci.c
                                    0x00000000   Lc  Abs  File  De 
    373  ../../../../../third_party/exactle/ble-host/sources/sec/common/sec_cmac_hci.c
                                    0x00000000   Lc  Abs  File  De 
    374  ../../../../../third_party/exactle/ble-host/sources/sec/common/sec_ecc_debug.c
                                    0x00000000   Lc  Abs  File  De 
    375  ../../../../../third_party/exactle/ble-host/sources/sec/common/sec_ecc_hci.c
                                    0x00000000   Lc  Abs  File  De 
    376  ../../../../../third_party/exactle/ble-host/sources/sec/common/sec_main.c
                                    0x00000000   Lc  Abs  File  De 
    377  ..\..\..\..\..\third_party\FreeRTOSv10.1.1\Source\portable\Keil\AMapollo2\port.c
                                    0x00000000   Lc  Abs  File  De 
    378  .emb_text                  0x0000c218   Lc    1  Sect  De   0xbe
    379  $v0                        0x0000c218   Lc    1   --   De 
    380  ../../../../../third_party/FreeRTOSv10.1.1/Source/portable/Keil/AMapollo2/port.c
                                    0x00000000   Lc  Abs  File  De 
    381  i.SysTick_Handler          0x0000c924   Lc    1  Sect  De 
    382  i.__NVIC_EnableIRQ         0x0000ca8c   Lc    1  Sect  De 
    383  __NVIC_EnableIRQ           0x0000ca8d   Lc    1  Code  De   0x22
    384  i.__NVIC_SetPriority       0x0000cab0   Lc    1  Sect  De 
    385  __NVIC_SetPriority         0x0000cab1   Lc    1  Code  De   0x20
    386  i.am_stimer_cmpr0_isr      0x0000f0b8   Lc    1  Sect  De 
    387  i.am_stimer_cmpr1_isr      0x0000f0d8   Lc    1  Sect  De 
    388  i.prvTaskExitError         0x000106ac   Lc    1  Sect  De 
    389  prvTaskExitError           0x000106ad   Lc    1  Code  De   0x2a
    390  i.pxPortInitialiseStack    0x00010834   Lc    1  Sect  De 
    391  i.vPortEnterCritical       0x00010a7c   Lc    1  Sect  De 
    392  i.vPortExitCritical        0x00010ac0   Lc    1  Sect  De 
    393  i.vPortSetupTimerInterrupt 0x00010b2c   Lc    1  Sect  De 
    394  i.vPortSuppressTicksAndSleep
                                    0x00010bb4   Lc    1  Sect  De 
    395  i.vPortValidateInterruptPriority
                                    0x00010c8c   Lc    1  Sect  De 
    396  i.xPortStartScheduler      0x0001107c   Lc    1  Sect  De 
    397  i.xPortStimerTickHandler   0x0001119c   Lc    1  Sect  De 
    398  .data                      0x10013018   Lc    2  Sect  De   0x1c
    399  g_lastSTimerVal            0x10013018   Lc    2  Data  De   0x4
    400  uxCriticalNesting          0x1001301c   Lc    2  Data  De   0x4
    401  ucMaxSysCallPriority       0x10013020   Lc    2  Data  De   0x1
    402  ulMaxPRIGROUPValue         0x10013024   Lc    2  Data  De   0x4
    403  xMaximumPossibleSuppressedTicks
                                    0x1001302c   Lc    2  Data  De   0x4
    404  ../../../../../third_party/exactle/ble-profiles/sources/profiles/hid/hid_main.c
                                    0x00000000   Lc  Abs  File  De 
    405  ../../../../../third_party/exactle/ble-profiles/sources/profiles/fmpl/fmpl_main.c
                                    0x00000000   Lc  Abs  File  De 
    406  ../../../../../third_party/exactle/ble-host/sources/stack/l2c/l2c_coc.c
                                    0x00000000   Lc  Abs  File  De 
    407  ../../../../../third_party/exactle/ble-host/sources/stack/l2c/l2c_main.c
                                    0x00000000   Lc  Abs  File  De 
    408  ../../../../../third_party/exactle/ble-host/sources/stack/l2c/l2c_master.c
                                    0x00000000   Lc  Abs  File  De 
    409  ../../../../../third_party/exactle/ble-host/sources/stack/l2c/l2c_slave.c
                                    0x00000000   Lc  Abs  File  De 
    410  ../../../../../third_party/exactle/ble-profiles/sources/profiles/gatt/gatt_main.c
                                    0x00000000   Lc  Abs  File  De 
    411  ../../../../../third_party/exactle/wsf/sources/util/bda.c
                                    0x00000000   Lc  Abs  File  De 
    412  ../../../../../third_party/exactle/wsf/sources/util/bstream.c
                                    0x00000000   Lc  Abs  File  De 
    413  ../../../../../third_party/exactle/wsf/sources/util/calc128.c
                                    0x00000000   Lc  Abs  File  De 
    414  ../../../../../third_party/exactle/wsf/sources/util/crc32.c
                                    0x00000000   Lc  Abs  File  De 
    415  ../../../../../third_party/exactle/wsf/sources/util/print.c
                                    0x00000000   Lc  Abs  File  De 
    416  ../../../../../third_party/exactle/wsf/sources/util/terminal.c
                                    0x00000000   Lc  Abs  File  De 
    417  ../../../../../third_party/exactle/wsf/sources/util/wstr.c
                                    0x00000000   Lc  Abs  File  De 
    418  ../../../../../third_party/exactle/ble-profiles/sources/apps/app/common/app_db.c
                                    0x00000000   Lc  Abs  File  De 
    419  ../../../../../third_party/exactle/ble-profiles/sources/apps/app/common/app_hw.c
                                    0x00000000   Lc  Abs  File  De 
    420  ../../../../../third_party/exactle/ble-profiles/sources/apps/app/common/app_ui.c
                                    0x00000000   Lc  Abs  File  De 
    421  i.AppUiBtnTest             0x0000c538   Lc    1  Sect  De 
    422  .bss                       0x100138fc   Lc    3  Sect  De   0xc
    423  ../../../../../third_party/exactle/ble-profiles/sources/apps/app/common/ui_console.c
                                    0x00000000   Lc  Abs  File  De 
    424  ../../../../../third_party/exactle/ble-profiles/sources/apps/app/common/ui_lcd.c
                                    0x00000000   Lc  Abs  File  De 
    425  ../../../../../third_party/exactle/ble-profiles/sources/apps/app/common/ui_main.c
                                    0x00000000   Lc  Abs  File  De 
    426  ../../../../../third_party/exactle/ble-profiles/sources/apps/app/common/ui_platform.c
                                    0x00000000   Lc  Abs  File  De 
    427  ../../../../../third_party/exactle/ble-profiles/sources/apps/app/common/ui_timer.c
                                    0x00000000   Lc  Abs  File  De 
    428  ../../../../../third_party/uecc/uECC.c
                                    0x00000000   Lc  Abs  File  De 
    429  ../../../../../third_party/uecc/uECC_ll.c
                                    0x00000000   Lc  Abs  File  De 
    430  ../../../../../third_party/exactle/ble-profiles/sources/profiles/bas/bas_main.c
                                    0x00000000   Lc  Abs  File  De 
    431  ..\..\..\..\..\third_party\exactle\ble-host\sources\hci\ambiq\apollo3\hci_drv_apollo3.c
                                    0x00000000   Lc  Abs  File  De 
    432  ../../../../../third_party/exactle/ble-host/sources/hci/ambiq/apollo3/hci_drv_apollo3.c
                                    0x00000000   Lc  Abs  File  De 
    433  i.HciDrvIntService         0x0000c550   Lc    1  Sect  De 
    434  i.HciDrvRadioBoot          0x0000c58c   Lc    1  Sect  De 
    435  i.HciDrvRadioShutdown      0x0000c7d4   Lc    1  Sect  De 
    436  i.HciVsA3_CarrierWaveMode  0x0000c8b8   Lc    1  Sect  De 
    437  i.HciVsA3_ConstantTransmission
                                    0x0000c8cc   Lc    1  Sect  De 
    438  i.HciVsA3_SetRfPowerLevelEx
                                    0x0000c8e0   Lc    1  Sect  De 
    439  i.error_check              0x0000fbac   Lc    1  Sect  De 
    440  error_check                0x0000fbad   Lc    1  Code  De   0x1c
    441  .bss                       0x10013908   Lc    3  Sect  De   0x958
    442  .constdata                 0x00011c14   Lc    1  Sect  De   0x14
    443  .conststring               0x000125e0   Lc    1  Sect  De   0x92
    444  .data                      0x10013034   Lc    2  Sect  De   0x28
    445  g_ui32FailingStatus        0x10013058   Lc    2  Data  De   0x4
    446  ../../../../../third_party/exactle/ble-host/sources/stack/smp/smpi_act.c
                                    0x00000000   Lc  Abs  File  De 
    447  ../../../../../third_party/exactle/ble-host/sources/stack/smp/smpi_sc_act.c
                                    0x00000000   Lc  Abs  File  De 
    448  ../../../../../third_party/exactle/ble-host/sources/stack/smp/smpi_sc_sm.c
                                    0x00000000   Lc  Abs  File  De 
    449  ../../../../../third_party/exactle/ble-host/sources/stack/smp/smpi_sm.c
                                    0x00000000   Lc  Abs  File  De 
    450  ../../../../../third_party/exactle/ble-host/sources/stack/smp/smpr_act.c
                                    0x00000000   Lc  Abs  File  De 
    451  ../../../../../third_party/exactle/ble-host/sources/stack/smp/smpr_sc_act.c
                                    0x00000000   Lc  Abs  File  De 
    452  ../../../../../third_party/exactle/ble-host/sources/stack/smp/smpr_sc_sm.c
                                    0x00000000   Lc  Abs  File  De 
    453  ../../../../../third_party/exactle/ble-host/sources/stack/smp/smpr_sm.c
                                    0x00000000   Lc  Abs  File  De 
    454  ../../../../../third_party/exactle/ble-host/sources/stack/smp/smp_act.c
                                    0x00000000   Lc  Abs  File  De 
    455  ../../../../../third_party/exactle/ble-host/sources/stack/smp/smp_db.c
                                    0x00000000   Lc  Abs  File  De 
    456  ../../../../../third_party/exactle/ble-host/sources/stack/smp/smp_main.c
                                    0x00000000   Lc  Abs  File  De 
    457  ../../../../../third_party/exactle/ble-host/sources/stack/smp/smp_non.c
                                    0x00000000   Lc  Abs  File  De 
    458  ../../../../../third_party/exactle/ble-host/sources/stack/smp/smp_sc_act.c
                                    0x00000000   Lc  Abs  File  De 
    459  ../../../../../third_party/exactle/ble-host/sources/stack/smp/smp_sc_main.c
                                    0x00000000   Lc  Abs  File  De 
    460  ..\src\ble_freertos_fcc_test.c
                                    0x00000000   Lc  Abs  File  De 
    461  ../src/ble_freertos_fcc_test.c
                                    0x00000000   Lc  Abs  File  De 
    462  i.am_ble_isr               0x0000cad8   Lc    1  Sect  De 
    463  i.am_freertos_sleep        0x0000cc14   Lc    1  Sect  De 
    464  i.am_freertos_wakeup       0x0000cc22   Lc    1  Sect  De 
    465  i.button_timer_handler     0x0000f808   Lc    1  Sect  De 
    466  i.enable_print_interface   0x0000fba4   Lc    1  Sect  De 
    467  i.main                     0x0000fd48   Lc    1  Sect  De 
    468  i.setup_buttons            0x00010860   Lc    1  Sect  De 
    469  i.vApplicationMallocFailedHook
                                    0x000109f6   Lc    1  Sect  De 
    470  i.vApplicationStackOverflowHook
                                    0x000109fa   Lc    1  Sect  De 
    471  .data                      0x1001305c   Lc    2  Sect  De   0x5
    472  ..\..\..\..\..\third_party\exactle\ble-host\sources\hci\ambiq\hci_cmd.c
                                    0x00000000   Lc  Abs  File  De 
    473  ../../../../../third_party/exactle/ble-host/sources/hci/ambiq/hci_cmd.c
                                    0x00000000   Lc  Abs  File  De 
    474  ../../../../../third_party/exactle/ble-host/sources/hci/ambiq/hci_cmd_ae.c
                                    0x00000000   Lc  Abs  File  De 
    475  ../../../../../third_party/exactle/ble-host/sources/hci/ambiq/hci_cmd_cte.c
                                    0x00000000   Lc  Abs  File  De 
    476  ../../../../../third_party/exactle/ble-host/sources/hci/ambiq/hci_cmd_past.c
                                    0x00000000   Lc  Abs  File  De 
    477  ../../../../../third_party/exactle/ble-host/sources/hci/ambiq/hci_cmd_phy.c
                                    0x00000000   Lc  Abs  File  De 
    478  ..\..\..\..\..\third_party\exactle\ble-host\sources\hci\ambiq\hci_core.c
                                    0x00000000   Lc  Abs  File  De 
    479  ../../../../../third_party/exactle/ble-host/sources/hci/ambiq/hci_core.c
                                    0x00000000   Lc  Abs  File  De 
    480  ../../../../../third_party/exactle/ble-host/sources/hci/ambiq/hci_core_ps.c
                                    0x00000000   Lc  Abs  File  De 
    481  ../../../../../third_party/exactle/ble-host/sources/hci/ambiq/hci_evt.c
                                    0x00000000   Lc  Abs  File  De 
    482  ..\..\..\..\..\third_party\exactle\ble-host\sources\hci\ambiq\hci_tr.c
                                    0x00000000   Lc  Abs  File  De 
    483  ../../../../../third_party/exactle/ble-host/sources/hci/ambiq/hci_tr.c
                                    0x00000000   Lc  Abs  File  De 
    484  ..\..\..\..\..\third_party\exactle\ble-host\sources\hci\ambiq\hci_vs.c
                                    0x00000000   Lc  Abs  File  De 
    485  ../../../../../third_party/exactle/ble-host/sources/hci/ambiq/hci_vs.c
                                    0x00000000   Lc  Abs  File  De 
    486  ../../../../../third_party/exactle/ble-host/sources/hci/ambiq/hci_vs_ae.c
                                    0x00000000   Lc  Abs  File  De 
    487  ../../../../../third_party/exactle/ble-profiles/sources/apps/hidapp/hidapp_main.c
                                    0x00000000   Lc  Abs  File  De 
    488  ../../../../../third_party/exactle/ble-profiles/sources/services/svc_batt.c
                                    0x00000000   Lc  Abs  File  De 
    489  ../../../../../third_party/exactle/ble-profiles/sources/services/svc_bps.c
                                    0x00000000   Lc  Abs  File  De 
    490  ../../../../../third_party/exactle/ble-profiles/sources/services/svc_core.c
                                    0x00000000   Lc  Abs  File  De 
    491  ../../../../../third_party/exactle/ble-profiles/sources/services/svc_cps.c
                                    0x00000000   Lc  Abs  File  De 
    492  ../../../../../third_party/exactle/ble-profiles/sources/services/svc_cscs.c
                                    0x00000000   Lc  Abs  File  De 
    493  ../../../../../third_party/exactle/ble-profiles/sources/services/svc_dis.c
                                    0x00000000   Lc  Abs  File  De 
    494  ../../../../../third_party/exactle/ble-profiles/sources/services/svc_gls.c
                                    0x00000000   Lc  Abs  File  De 
    495  ../../../../../third_party/exactle/ble-profiles/sources/services/svc_gyro.c
                                    0x00000000   Lc  Abs  File  De 
    496  ../../../../../third_party/exactle/ble-profiles/sources/services/svc_hid.c
                                    0x00000000   Lc  Abs  File  De 
    497  ../../../../../third_party/exactle/ble-profiles/sources/services/svc_hrs.c
                                    0x00000000   Lc  Abs  File  De 
    498  ../../../../../third_party/exactle/ble-profiles/sources/services/svc_hts.c
                                    0x00000000   Lc  Abs  File  De 
    499  ../../../../../third_party/exactle/ble-profiles/sources/services/svc_ipss.c
                                    0x00000000   Lc  Abs  File  De 
    500  ../../../../../third_party/exactle/ble-profiles/sources/services/svc_plxs.c
                                    0x00000000   Lc  Abs  File  De 
    501  ../../../../../third_party/exactle/ble-profiles/sources/services/svc_px.c
                                    0x00000000   Lc  Abs  File  De 
    502  ../../../../../third_party/exactle/ble-profiles/sources/services/svc_rscs.c
                                    0x00000000   Lc  Abs  File  De 
    503  ../../../../../third_party/exactle/ble-profiles/sources/services/svc_scpss.c
                                    0x00000000   Lc  Abs  File  De 
    504  ../../../../../third_party/exactle/ble-profiles/sources/services/svc_temp.c
                                    0x00000000   Lc  Abs  File  De 
    505  ../../../../../third_party/exactle/ble-profiles/sources/services/svc_uricfg.c
                                    0x00000000   Lc  Abs  File  De 
    506  ../../../../../third_party/exactle/ble-profiles/sources/services/svc_wdxs.c
                                    0x00000000   Lc  Abs  File  De 
    507  ../../../../../third_party/exactle/ble-profiles/sources/services/svc_wp.c
                                    0x00000000   Lc  Abs  File  De 
    508  ../../../../../third_party/exactle/ble-profiles/sources/services/svc_wss.c
                                    0x00000000   Lc  Abs  File  De 
    509  ..\..\..\..\..\utils\am_util_ble.c
                                    0x00000000   Lc  Abs  File  De 
    510  ../../../../../utils/am_util_ble.c
                                    0x00000000   Lc  Abs  File  De 
    511  i.am_util_ble_set_carrier_wave_ex
                                    0x0000f104   Lc    1  Sect  De 
    512  i.am_util_ble_set_constant_transmission
                                    0x0000f1d4   Lc    1  Sect  De 
    513  i.am_util_ble_set_constant_transmission_ex
                                    0x0000f218   Lc    1  Sect  De 
    514  i.am_util_ble_transmitter_control
                                    0x0000f2e0   Lc    1  Sect  De 
    515  i.am_util_ble_transmitter_control_ex
                                    0x0000f324   Lc    1  Sect  De 
    516  ..\..\..\..\..\utils\am_util_delay.c
                                    0x00000000   Lc  Abs  File  De 
    517  ../../../../../utils/am_util_delay.c
                                    0x00000000   Lc  Abs  File  De 
    518  i.am_util_delay_ms         0x0000f334   Lc    1  Sect  De 
    519  ..\..\..\..\..\utils\am_util_faultisr.c
                                    0x00000000   Lc  Abs  File  De 
    520  .emb_text                  0x0000c2d8   Lc    1  Sect  De   0x22
    521  $v0                        0x0000c2d8   Lc    1   --   De 
    522  ../../../../../utils/am_util_faultisr.c
                                    0x00000000   Lc  Abs  File  De 
    523  i.am_util_faultisr_collect_data
                                    0x0000f354   Lc    1  Sect  De 
    524  ../../../../../utils/am_util_stdio.c
                                    0x00000000   Lc  Abs  File  De 
    525  i.am_util_stdio_printf     0x0000f40c   Lc    1  Sect  De 
    526  i.am_util_stdio_printf_init
                                    0x0000f448   Lc    1  Sect  De 
    527  i.am_util_stdio_vsprintf   0x0000f454   Lc    1  Sect  De 
    528  i.decstr_to_int            0x0000fa58   Lc    1  Sect  De 
    529  decstr_to_int              0x0000fa59   Lc    1  Code  De   0x42
    530  i.divu64_10                0x0000fa9a   Lc    1  Sect  De 
    531  divu64_10                  0x0000fa9b   Lc    1  Code  De   0xcc
    532  i.ftoa                     0x0000fbd0   Lc    1  Sect  De 
    533  ftoa                       0x0000fbd1   Lc    1  Code  De   0x172
    534  i.ndigits_in_hex           0x0000fe48   Lc    1  Sect  De 
    535  ndigits_in_hex             0x0000fe49   Lc    1  Code  De   0x34
    536  i.ndigits_in_i64           0x0000fe7c   Lc    1  Sect  De 
    537  ndigits_in_i64             0x0000fe7d   Lc    1  Code  De   0x24
    538  i.ndigits_in_u64           0x0000fea0   Lc    1  Sect  De 
    539  ndigits_in_u64             0x0000fea1   Lc    1  Code  De   0x3a
    540  i.padbuffer                0x0000feda   Lc    1  Sect  De 
    541  padbuffer                  0x0000fedb   Lc    1  Code  De   0x22
    542  i.simple_strlen            0x000108bc   Lc    1  Sect  De 
    543  simple_strlen              0x000108bd   Lc    1  Code  De   0x18
    544  i.uint64_to_hexstr         0x000108d4   Lc    1  Sect  De 
    545  uint64_to_hexstr           0x000108d5   Lc    1  Code  De   0x8a
    546  i.uint64_to_str            0x0001095e   Lc    1  Sect  De 
    547  uint64_to_str              0x0001095f   Lc    1  Code  De   0x70
    548  .bss                       0x10014260   Lc    3  Sect  De   0x100
    549  g_prfbuf                   0x10014260   Lc    3  Data  De   0x100
    550  .data                      0x10013064   Lc    2  Sect  De   0x5
    551  g_bTxtXlate                0x10013068   Lc    2  Data  De   0x1
    552  ../../../../../third_party/FreeRTOSv10.1.1/Source/portable/MemMang/heap_2.c
                                    0x00000000   Lc  Abs  File  De 
    553  i.prvHeapInit              0x0001017c   Lc    1  Sect  De 
    554  prvHeapInit                0x0001017d   Lc    1  Code  De   0x2a
    555  i.pvPortMalloc             0x00010774   Lc    1  Sect  De 
    556  i.vPortFree                0x00010aec   Lc    1  Sect  De 
    557  .bss                       0x10014360   Lc    3  Sect  De   0x4000
    558  ucHeap                     0x10014360   Lc    3  Data  De   0x4000
    559  .data                      0x1001306c   Lc    2  Sect  De   0x18
    560  xStart                     0x1001306c   Lc    2  Data  De   0x8
    561  xEnd                       0x10013074   Lc    2  Data  De   0x8
    562  xFreeBytesRemaining        0x1001307c   Lc    2  Data  De   0x4
    563  xHeapHasBeenInitialised    0x10013080   Lc    2  Data  De   0x4
    564  ../../../../../third_party/exactle/ble-profiles/sources/apps/app/app_disc.c
                                    0x00000000   Lc  Abs  File  De 
    565  ../../../../../third_party/exactle/ble-profiles/sources/apps/app/app_main.c
                                    0x00000000   Lc  Abs  File  De 
    566  ../../../../../third_party/exactle/ble-profiles/sources/apps/app/app_master.c
                                    0x00000000   Lc  Abs  File  De 
    567  ../../../../../third_party/exactle/ble-profiles/sources/apps/app/app_master_leg.c
                                    0x00000000   Lc  Abs  File  De 
    568  ../../../../../third_party/exactle/ble-profiles/sources/apps/app/app_server.c
                                    0x00000000   Lc  Abs  File  De 
    569  ../../../../../third_party/exactle/ble-profiles/sources/apps/app/app_slave.c
                                    0x00000000   Lc  Abs  File  De 
    570  ../../../../../third_party/exactle/ble-profiles/sources/apps/app/app_slave_leg.c
                                    0x00000000   Lc  Abs  File  De 
    571  ../../../../../third_party/exactle/ble-profiles/sources/apps/app/app_terminal.c
                                    0x00000000   Lc  Abs  File  De 
    572  ../../../../../third_party/FreeRTOSv10.1.1/Source/event_groups.c
                                    0x00000000   Lc  Abs  File  De 
    573  i.vEventGroupSetBitsCallback
                                    0x00010a00   Lc    1  Sect  De 
    574  i.xEventGroupSetBits       0x00010fd0   Lc    1  Sect  De 
    575  ../../../../../third_party/FreeRTOSv10.1.1/Source/list.c
                                    0x00000000   Lc  Abs  File  De 
    576  i.uxListRemove             0x000109ce   Lc    1  Sect  De 
    577  i.vListInitialise          0x00010a10   Lc    1  Sect  De 
    578  i.vListInitialiseItem      0x00010a2a   Lc    1  Sect  De 
    579  i.vListInsert              0x00010a30   Lc    1  Sect  De 
    580  i.vListInsertEnd           0x00010a64   Lc    1  Sect  De 
    581  ../../../../../third_party/FreeRTOSv10.1.1/Source/queue.c
                                    0x00000000   Lc  Abs  File  De 
    582  i.prvCopyDataFromQueue     0x00010076   Lc    1  Sect  De 
    583  prvCopyDataFromQueue       0x00010077   Lc    1  Code  De   0x2a
    584  i.prvCopyDataToQueue       0x000100a0   Lc    1  Sect  De 
    585  prvCopyDataToQueue         0x000100a1   Lc    1  Code  De   0x6a
    586  i.prvInitialiseNewQueue    0x00010220   Lc    1  Sect  De 
    587  prvInitialiseNewQueue      0x00010221   Lc    1  Code  De   0x26
    588  i.prvIsQueueEmpty          0x000103dc   Lc    1  Sect  De 
    589  prvIsQueueEmpty            0x000103dd   Lc    1  Code  De   0x1a
    590  i.prvIsQueueFull           0x000103f6   Lc    1  Sect  De 
    591  prvIsQueueFull             0x000103f7   Lc    1  Code  De   0x1e
    592  i.prvUnlockQueue           0x000106f6   Lc    1  Sect  De 
    593  prvUnlockQueue             0x000106f7   Lc    1  Code  De   0x7e
    594  i.vQueueWaitForMessageRestricted
                                    0x00010ce0   Lc    1  Sect  De 
    595  i.xQueueGenericCreate      0x0001123c   Lc    1  Sect  De 
    596  i.xQueueGenericReset       0x00011284   Lc    1  Sect  De 
    597  i.xQueueGenericSend        0x00011308   Lc    1  Sect  De 
    598  i.xQueueGenericSendFromISR 0x00011468   Lc    1  Sect  De 
    599  i.xQueueReceive            0x0001152c   Lc    1  Sect  De 
    600  ../../../../../third_party/FreeRTOSv10.1.1/Source/tasks.c
                                    0x00000000   Lc  Abs  File  De 
    601  i.eTaskConfirmSleepModeStatus
                                    0x0000fb68   Lc    1  Sect  De 
    602  i.prvAddCurrentTaskToDelayedList
                                    0x0000fefc   Lc    1  Sect  De 
    603  prvAddCurrentTaskToDelayedList
                                    0x0000fefd   Lc    1  Code  De   0x64
    604  i.prvAddNewTaskToReadyList 0x0000ff78   Lc    1  Sect  De 
    605  prvAddNewTaskToReadyList   0x0000ff79   Lc    1  Code  De   0x94
    606  i.prvCheckTasksWaitingTermination
                                    0x00010074   Lc    1  Sect  De 
    607  prvCheckTasksWaitingTermination
                                    0x00010075   Lc    1  Code  De   0x2
    608  i.prvGetExpectedIdleTime   0x0001010c   Lc    1  Sect  De 
    609  prvGetExpectedIdleTime     0x0001010d   Lc    1  Code  De   0x34
    610  i.prvIdleTask              0x000101b4   Lc    1  Sect  De 
    611  prvIdleTask                0x000101b5   Lc    1  Code  De   0x5a
    612  i.prvInitialiseNewTask     0x00010246   Lc    1  Sect  De 
    613  prvInitialiseNewTask       0x00010247   Lc    1  Code  De   0xa6
    614  i.prvInitialiseTaskLists   0x00010328   Lc    1  Sect  De 
    615  prvInitialiseTaskLists     0x00010329   Lc    1  Code  De   0x40
    616  i.prvResetNextTaskUnblockTime
                                    0x000105c0   Lc    1  Sect  De 
    617  prvResetNextTaskUnblockTime
                                    0x000105c1   Lc    1  Code  De   0x2a
    618  i.vTaskInternalSetTimeOutState
                                    0x00010d2c   Lc    1  Sect  De 
    619  i.vTaskMissedYield         0x00010d44   Lc    1  Sect  De 
    620  i.vTaskPlaceOnEventList    0x00010d50   Lc    1  Sect  De 
    621  i.vTaskPlaceOnEventListRestricted
                                    0x00010d78   Lc    1  Sect  De 
    622  i.vTaskRemoveFromUnorderedEventList
                                    0x00010da8   Lc    1  Sect  De 
    623  i.vTaskStartScheduler      0x00010e24   Lc    1  Sect  De 
    624  i.vTaskStepTick            0x00010ea8   Lc    1  Sect  De 
    625  i.vTaskSuspendAll          0x00010ed8   Lc    1  Sect  De 
    626  i.vTaskSwitchContext       0x00010ee8   Lc    1  Sect  De 
    627  i.xTaskCheckForTimeOut     0x00011660   Lc    1  Sect  De 
    628  i.xTaskCreate              0x000116c8   Lc    1  Sect  De 
    629  i.xTaskGetSchedulerState   0x00011728   Lc    1  Sect  De 
    630  i.xTaskGetTickCount        0x00011748   Lc    1  Sect  De 
    631  i.xTaskIncrementTick       0x00011754   Lc    1  Sect  De 
    632  i.xTaskRemoveFromEventList 0x0001186c   Lc    1  Sect  De 
    633  i.xTaskResumeAll           0x000118f4   Lc    1  Sect  De 
    634  .bss                       0x10018360   Lc    3  Sect  De   0xa0
    635  pxReadyTasksLists          0x10018360   Lc    3  Data  De   0x50
    636  xDelayedTaskList1          0x100183b0   Lc    3  Data  De   0x14
    637  xDelayedTaskList2          0x100183c4   Lc    3  Data  De   0x14
    638  xPendingReadyList          0x100183d8   Lc    3  Data  De   0x14
    639  xSuspendedTaskList         0x100183ec   Lc    3  Data  De   0x14
    640  .data                      0x10013084   Lc    2  Sect  De   0x38
    641  pxDelayedTaskList          0x10013088   Lc    2  Data  De   0x4
    642  pxOverflowDelayedTaskList  0x1001308c   Lc    2  Data  De   0x4
    643  uxCurrentNumberOfTasks     0x10013090   Lc    2  Data  De   0x4
    644  xTickCount                 0x10013094   Lc    2  Data  De   0x4
    645  uxTopReadyPriority         0x10013098   Lc    2  Data  De   0x4
    646  xSchedulerRunning          0x1001309c   Lc    2  Data  De   0x4
    647  uxPendedTicks              0x100130a0   Lc    2  Data  De   0x4
    648  xYieldPending              0x100130a4   Lc    2  Data  De   0x4
    649  xNumOfOverflows            0x100130a8   Lc    2  Data  De   0x4
    650  uxTaskNumber               0x100130ac   Lc    2  Data  De   0x4
    651  xNextTaskUnblockTime       0x100130b0   Lc    2  Data  De   0x4
    652  xIdleTaskHandle            0x100130b4   Lc    2  Data  De   0x4
    653  uxSchedulerSuspended       0x100130b8   Lc    2  Data  De   0x4
    654  ../../../../../third_party/FreeRTOSv10.1.1/Source/timers.c
                                    0x00000000   Lc  Abs  File  De 
    655  i.prvCheckForValidListAndQueue
                                    0x00010028   Lc    1  Sect  De 
    656  prvCheckForValidListAndQueue
                                    0x00010029   Lc    1  Code  De   0x38
    657  i.prvGetNextExpireTime     0x00010154   Lc    1  Sect  De 
    658  prvGetNextExpireTime       0x00010155   Lc    1  Code  De   0x24
    659  i.prvInitialiseNewTimer    0x000102ec   Lc    1  Sect  De 
    660  prvInitialiseNewTimer      0x000102ed   Lc    1  Code  De   0x3c
    661  i.prvInsertTimerInActiveList
                                    0x00010384   Lc    1  Sect  De 
    662  prvInsertTimerInActiveList 0x00010385   Lc    1  Code  De   0x50
    663  i.prvProcessExpiredTimer   0x00010414   Lc    1  Sect  De 
    664  prvProcessExpiredTimer     0x00010415   Lc    1  Code  De   0x4c
    665  i.prvProcessReceivedCommands
                                    0x00010464   Lc    1  Sect  De 
    666  prvProcessReceivedCommands 0x00010465   Lc    1  Code  De   0xe4
    667  i.prvProcessTimerOrBlockTask
                                    0x0001054c   Lc    1  Sect  De 
    668  prvProcessTimerOrBlockTask 0x0001054d   Lc    1  Code  De   0x66
    669  i.prvSampleTimeNow         0x000105f4   Lc    1  Sect  De 
    670  prvSampleTimeNow           0x000105f5   Lc    1  Code  De   0x28
    671  i.prvSwitchTimerLists      0x00010620   Lc    1  Sect  De 
    672  prvSwitchTimerLists        0x00010621   Lc    1  Code  De   0x84
    673  i.prvTimerTask             0x000106dc   Lc    1  Sect  De 
    674  prvTimerTask               0x000106dd   Lc    1  Code  De   0x1a
    675  i.xTimerCreate             0x000119e4   Lc    1  Sect  De 
    676  i.xTimerCreateTimerTask    0x00011a14   Lc    1  Sect  De 
    677  i.xTimerGenericCommand     0x00011a58   Lc    1  Sect  De 
    678  i.xTimerPendFunctionCallFromISR
                                    0x00011acc   Lc    1  Sect  De 
    679  .bss                       0x10018400   Lc    3  Sect  De   0x28
    680  xActiveTimerList1          0x10018400   Lc    3  Data  De   0x14
    681  xActiveTimerList2          0x10018414   Lc    3  Data  De   0x14
    682  .data                      0x100130bc   Lc    2  Sect  De   0x14
    683  pxCurrentTimerList         0x100130bc   Lc    2  Data  De   0x4
    684  pxOverflowTimerList        0x100130c0   Lc    2  Data  De   0x4
    685  xTimerQueue                0x100130c4   Lc    2  Data  De   0x4
    686  xTimerTaskHandle           0x100130c8   Lc    2  Data  De   0x4
    687  xLastTime                  0x100130cc   Lc    2  Data  De   0x4
    688  ..\..\..\..\..\devices\am_devices_button.c
                                    0x00000000   Lc  Abs  File  De 
    689  ../../../../../devices/am_devices_button.c
                                    0x00000000   Lc  Abs  File  De 
    690  i.am_devices_button_array_init
                                    0x0000cb60   Lc    1  Sect  De 
    691  i.am_devices_button_array_tick
                                    0x0000cb7a   Lc    1  Sect  De 
    692  i.am_devices_button_init   0x0000cb94   Lc    1  Sect  De 
    693  i.am_devices_button_tick   0x0000cbb0   Lc    1  Sect  De 
    694  ../keil/startup_keil.s     0x00000000   Lc  Abs  File  De 
    695  STACK                      0x10010000   Lc    4  Sect  De   0x3000
    696  StackMem                   0x10010000   Lc    4  Data  De 
    697  HEAP                       0x10018d58   Lc    3  Sect  De 
    698  HeapMem                    0x10018d58   Lc    3  Data  De 
    699  RESET                      0x0000c000   Lc    1  Sect  De   0x138
    700  $v0                        0x0000c100   Lc    1   --   De 
    701  .text                      0x0000c314   Lc    1  Sect  De   0x18
    702  $v0                        0x0000c314   Lc    1   --   De 
    703  ..\am_hal_global.c         0x00000000   Lc  Abs  File  De 
    704  ../am_hal_global.c         0x00000000   Lc  Abs  File  De 
    705  .data                      0x100130d0   Lc    2  Sect  De   0x4
    706  ..\am_bsp.c                0x00000000   Lc  Abs  File  De 
    707  ../am_bsp.c                0x00000000   Lc  Abs  File  De 
    708  i.am_bsp_itm_printf_enable 0x0000cae0   Lc    1  Sect  De 
    709  i.am_bsp_low_power_init    0x0000cb1c   Lc    1  Sect  De 
    710  .bss                       0x10018428   Lc    3  Sect  De   0x400
    711  pui8UartTxBuffer           0x10018428   Lc    3  Data  De   0x400
    712  .bss                       0x10018828   Lc    3  Sect  De   0x400
    713  pui8UartRxBuffer           0x10018828   Lc    3  Data  De   0x400
    714  .data                      0x100130d4   Lc    2  Sect  De   0x58
    715  g_ui32PrintInterface       0x100130d4   Lc    2  Data  De   0x4
    716  g_sCOMUART                 0x100130d8   Lc    2  Data  De   0x4
    717  g_sBspUartBufferedConfig   0x10013104   Lc    2  Data  De   0x28
    718  .data                      0x1001312c   Lc    2  Sect  De   0x30
    719  ..\am_hal_ble.c            0x00000000   Lc  Abs  File  De 
    720  ../am_hal_ble.c            0x00000000   Lc  Abs  File  De 
    721  i.am_hal_ble_blocking_hci_read
                                    0x0000cc24   Lc    1  Sect  De 
    722  i.am_hal_ble_blocking_hci_write
                                    0x0000ccc0   Lc    1  Sect  De 
    723  i.am_hal_ble_blocking_transfer
                                    0x0000cd10   Lc    1  Sect  De 
    724  i.am_hal_ble_boot          0x0000d168   Lc    1  Sect  De 
    725  i.am_hal_ble_cmd_write     0x0000d2f0   Lc    1  Sect  De 
    726  am_hal_ble_cmd_write       0x0000d2f1   Lc    1  Code  De   0x8e
    727  i.am_hal_ble_config        0x0000d388   Lc    1  Sect  De 
    728  i.am_hal_ble_deinitialize  0x0000d43c   Lc    1  Sect  De 
    729  i.am_hal_ble_initialize    0x0000d494   Lc    1  Sect  De 
    730  i.am_hal_ble_int_clear     0x0000d50c   Lc    1  Sect  De 
    731  i.am_hal_ble_int_enable    0x0000d538   Lc    1  Sect  De 
    732  i.am_hal_ble_int_status    0x0000d57c   Lc    1  Sect  De 
    733  i.am_hal_ble_patch_apply   0x0000d598   Lc    1  Sect  De 
    734  i.am_hal_ble_patch_complete
                                    0x0000d8d4   Lc    1  Sect  De 
    735  i.am_hal_ble_plf_reg_read  0x0000db90   Lc    1  Sect  De 
    736  i.am_hal_ble_plf_reg_write 0x0000dc74   Lc    1  Sect  De 
    737  i.am_hal_ble_power_control 0x0000dd58   Lc    1  Sect  De 
    738  i.am_hal_ble_sleep_set     0x0000dedc   Lc    1  Sect  De 
    739  i.am_hal_ble_tx_power_set  0x0000df34   Lc    1  Sect  De 
    740  i.am_hal_ble_wakeup_set    0x0000dfd0   Lc    1  Sect  De 
    741  .bss                       0x10018c28   Lc    3  Sect  De   0xcc
    742  .constdata                 0x00011c28   Lc    1  Sect  De   0x260
    743  ccitt_table                0x00011c28   Lc    1  Data  De   0x200
    744  ..\am_hal_cachectrl.c      0x00000000   Lc  Abs  File  De 
    745  ../am_hal_cachectrl.c      0x00000000   Lc  Abs  File  De 
    746  i.am_hal_cachectrl_config  0x0000e0cc   Lc    1  Sect  De 
    747  i.am_hal_cachectrl_control 0x0000e118   Lc    1  Sect  De 
    748  i.am_hal_cachectrl_enable  0x0000e4c4   Lc    1  Sect  De 
    749  .constdata                 0x00011e88   Lc    1  Sect  De   0x3
    750  ..\am_hal_clkgen.c         0x00000000   Lc  Abs  File  De 
    751  ../am_hal_clkgen.c         0x00000000   Lc  Abs  File  De 
    752  i.am_hal_clkgen_control    0x0000e4d8   Lc    1  Sect  De 
    753  i.am_hal_clkgen_status_get 0x0000e5d4   Lc    1  Sect  De 
    754  ..\am_hal_flash.c          0x00000000   Lc  Abs  File  De 
    755  ../am_hal_flash.c          0x00000000   Lc  Abs  File  De 
    756  i.am_hal_flash_delay       0x0000e608   Lc    1  Sect  De 
    757  i.am_hal_flash_delay_status_check
                                    0x0000e62c   Lc    1  Sect  De 
    758  i.am_hal_flash_load_ui32   0x0000e688   Lc    1  Sect  De 
    759  i.am_hal_flash_store_ui32  0x0000e690   Lc    1  Sect  De 
    760  .constdata                 0x00011e8c   Lc    1  Sect  De   0xc
    761  ..\am_hal_gpio.c           0x00000000   Lc  Abs  File  De 
    762  ../am_hal_gpio.c           0x00000000   Lc  Abs  File  De 
    763  i.am_hal_gpio_pinconfig    0x0000e6b8   Lc    1  Sect  De 
    764  i.am_hal_gpio_state_read   0x0000e938   Lc    1  Sect  De 
    765  i.am_hal_gpio_state_write  0x0000e992   Lc    1  Sect  De 
    766  .constdata                 0x00011e98   Lc    1  Sect  De   0x20a
    767  g_ui8Inpen                 0x00011e9c   Lc    1  Data  De   0x4a
    768  g_ui8Bit76Capabilities     0x00011ee6   Lc    1  Data  De   0x4a
    769  g_ui8nCEpins               0x00011f30   Lc    1  Data  De   0x4a
    770  g_ui8NCEtable              0x00011f7a   Lc    1  Data  De   0x128
    771  .constdata                 0x000120a4   Lc    1  Sect  De   0x4
    772  .constdata                 0x000120a8   Lc    1  Sect  De   0x4
    773  ..\am_hal_interrupt.c      0x00000000   Lc  Abs  File  De 
    774  .emb_text                  0x0000c2fc   Lc    1  Sect  De   0x16
    775  $v0                        0x0000c2fc   Lc    1   --   De 
    776  ../am_hal_interrupt.c      0x00000000   Lc  Abs  File  De 
    777  ..\am_hal_mcuctrl.c        0x00000000   Lc  Abs  File  De 
    778  ../am_hal_mcuctrl.c        0x00000000   Lc  Abs  File  De 
    779  i.am_hal_mcuctrl_info_get  0x0000ea8c   Lc    1  Sect  De 
    780  .constdata                 0x000120ac   Lc    1  Sect  De   0x80
    781  ..\am_hal_pwrctrl.c        0x00000000   Lc  Abs  File  De 
    782  ../am_hal_pwrctrl.c        0x00000000   Lc  Abs  File  De 
    783  i.am_hal_pwrctrl_blebuck_trim
                                    0x0000ebc4   Lc    1  Sect  De 
    784  i.am_hal_pwrctrl_low_power_init
                                    0x0000ec10   Lc    1  Sect  De 
    785  i.am_hal_pwrctrl_memory_enable
                                    0x0000ed14   Lc    1  Sect  De 
    786  i.am_hal_pwrctrl_periph_disable
                                    0x0000ed80   Lc    1  Sect  De 
    787  i.am_hal_pwrctrl_periph_enable
                                    0x0000edd0   Lc    1  Sect  De 
    788  .constdata                 0x0001212c   Lc    1  Sect  De   0x27c
    789  ..\am_hal_queue.c          0x00000000   Lc  Abs  File  De 
    790  ../am_hal_queue.c          0x00000000   Lc  Abs  File  De 
    791  i.am_hal_queue_init        0x0000ee20   Lc    1  Sect  De 
    792  ..\am_hal_stimer.c         0x00000000   Lc  Abs  File  De 
    793  ../am_hal_stimer.c         0x00000000   Lc  Abs  File  De 
    794  i.am_hal_stimer_compare_delta_set
                                    0x0000ee48   Lc    1  Sect  De 
    795  i.am_hal_stimer_config     0x0000eef4   Lc    1  Sect  De 
    796  i.am_hal_stimer_counter_get
                                    0x0000ef08   Lc    1  Sect  De 
    797  i.am_hal_stimer_int_clear  0x0000ef14   Lc    1  Sect  De 
    798  i.am_hal_stimer_int_enable 0x0000ef20   Lc    1  Sect  De 
    799  i.am_hal_stimer_int_status_get
                                    0x0000ef34   Lc    1  Sect  De 
    800  ..\am_hal_sysctrl.c        0x00000000   Lc  Abs  File  De 
    801  ../am_hal_sysctrl.c        0x00000000   Lc  Abs  File  De 
    802  i.am_hal_sysctrl_fpu_enable
                                    0x0000ef4c   Lc    1  Sect  De 
    803  i.am_hal_sysctrl_fpu_stacking_enable
                                    0x0000ef5c   Lc    1  Sect  De 
    804  i.am_hal_sysctrl_sleep     0x0000ef8c   Lc    1  Sect  De 
    805  .data                      0x1001315c   Lc    2  Sect  De   0x4
    806  g_ui32BusWriteFlush        0x1001315c   Lc    2  Data  De   0x4
    807  ..\am_bsp_pins.c           0x00000000   Lc  Abs  File  De 
    808  ../am_bsp_pins.c           0x00000000   Lc  Abs  File  De 
    809  .constdata                 0x000123a8   Lc    1  Sect  De   0x4
    810  ..\am_hal_ble_patch_b0.c   0x00000000   Lc  Abs  File  De 
    811  ../am_hal_ble_patch_b0.c   0x00000000   Lc  Abs  File  De 
    812  .constdata                 0x000123ac   Lc    1  Sect  De   0x4
    813  .constdata                 0x000123b0   Lc    1  Sect  De   0x230
    814  .data                      0x10013160   Lc    2  Sect  De   0xc
    815  .data                      0x1001316c   Lc    2  Sect  De   0x4
    816  .data                      0x10013170   Lc    2  Sect  De   0x654
    817  .data                      0x100137c4   Lc    2  Sect  De   0x10
    818  .data                      0x100137d4   Lc    2  Sect  De   0x10
    819  .data                      0x100137e4   Lc    2  Sect  De   0xc4
    820  .data                      0x100138a8   Lc    2  Sect  De   0x10
    821  ..\am_hal_burst.c          0x00000000   Lc  Abs  File  De 
    822  ../am_hal_burst.c          0x00000000   Lc  Abs  File  De 
    823  i.am_hal_burst_mode_disable
                                    0x0000e010   Lc    1  Sect  De 
    824  i.am_hal_burst_mode_enable 0x0000e06c   Lc    1  Sect  De 
    825  .data                      0x100138b8   Lc    2  Sect  De   0x1
    826  ..\am_hal_itm.c            0x00000000   Lc  Abs  File  De 
    827  ../am_hal_itm.c            0x00000000   Lc  Abs  File  De 
    828  i.am_hal_itm_enable        0x0000ea14   Lc    1  Sect  De 
    829  i.am_hal_itm_print         0x0000ea5c   Lc    1  Sect  De 
    830  ..\am_hal_reset.c          0x00000000   Lc  Abs  File  De 
    831  ../am_hal_reset.c          0x00000000   Lc  Abs  File  De 
    832  .data                      0x100138bc   Lc    2  Sect  De   0x4
    833  ..\am_hal_rtc.c            0x00000000   Lc  Abs  File  De 
    834  ../am_hal_rtc.c            0x00000000   Lc  Abs  File  De 
    835  i.am_hal_rtc_osc_disable   0x0000ee36   Lc    1  Sect  De 
    836  ..\am_hal_tpiu.c           0x00000000   Lc  Abs  File  De 
    837  ../am_hal_tpiu.c           0x00000000   Lc  Abs  File  De 
    838  i.am_hal_tpiu_enable       0x0000f028   Lc    1  Sect  De 
    839  ..\am_hal_uart.c           0x00000000   Lc  Abs  File  De 
    840  ../am_hal_uart.c           0x00000000   Lc  Abs  File  De 
    841  dc.s                       0x00000000   Lc  Abs  File  De 
    842  ../clib/longlong.s         0x00000000   Lc  Abs  File  De 
    843  ../clib/scanf.c            0x00000000   Lc  Abs  File  De 
    844  ../clib/string.c           0x00000000   Lc  Abs  File  De 
    845  ../clib/string.c           0x00000000   Lc  Abs  File  De 
    846  ../clib/string.c           0x00000000   Lc  Abs  File  De 
    847  ../clib/string.c           0x00000000   Lc  Abs  File  De 
    848  ../clib/memcpset.s         0x00000000   Lc  Abs  File  De 
    849  .text                      0x0000c32c   Lc    1  Sect  De   0x8a
    850  ../clib/memcpset.s         0x00000000   Lc  Abs  File  De 
    851  ../clib/memcpset.s         0x00000000   Lc  Abs  File  De 
    852  .text                      0x0000c3b6   Lc    1  Sect  De   0x64
    853  ../clib/memcpset.s         0x00000000   Lc  Abs  File  De 
    854  .text                      0x0000c41a   Lc    1  Sect  De   0x10
    855  ../clib/memcpset.s         0x00000000   Lc  Abs  File  De 
    856  .text                      0x0000c42a   Lc    1  Sect  De   0x44
    857  ../clib/memcpset.s         0x00000000   Lc  Abs  File  De 
    858  .text                      0x0000c46e   Lc    1  Sect  De   0x4e
    859  ../clib/memcpset.s         0x00000000   Lc  Abs  File  De 
    860  ../clib/memcpset.s         0x00000000   Lc  Abs  File  De 
    861  ../clib/heapaux.c          0x00000000   Lc  Abs  File  De 
    862  .text                      0x0000c4bc   Lc    1  Sect  De 
    863  ../clib/angel/startup.s    0x00000000   Lc  Abs  File  De 
    864  !!!main                    0x0000c138   Lc    1  Sect  De   0x8
    865  ../fplib/d2f.s             0x00000000   Lc  Abs  File  De 
    866  x$fpl$d2f                  0x00011b00   Lc    1  Sect  De   0x62
    867  $v0                        0x00011b00   Lc    1   --   De 
    868  ../clib/angel/kernel.s     0x00000000   Lc  Abs  File  De 
    869  .ARM.Collect$$rtentry$$00000000
                                    0x0000c1f8   Lc    1  Sect  De 
    870  ../clib/angel/rt.s         0x00000000   Lc  Abs  File  De 
    871  ../clib/angel/rt.s         0x00000000   Lc  Abs  File  De 
    872  ../clib/scanf.c            0x00000000   Lc  Abs  File  De 
    873  ../clib/memcpset.s         0x00000000   Lc  Abs  File  De 
    874  ../fplib/dnaninf.s         0x00000000   Lc  Abs  File  De 
    875  x$fpl$dnaninf              0x00011b62   Lc    1  Sect  De   0x9c
    876  $v0                        0x00011b62   Lc    1   --   De 
    877  ../fplib/fretinf.s         0x00000000   Lc  Abs  File  De 
    878  x$fpl$fretinf              0x00011c08   Lc    1  Sect  De   0xa
    879  $v0                        0x00011c08   Lc    1   --   De 
    880  ../fplib/usenofp.s         0x00000000   Lc  Abs  File  De 
    881  x$fpl$usenofp              0x00011c12   Lc    1  Sect  De 
    882  ../clib/angel/sys.s        0x00000000   Lc  Abs  File  De 
    883  .text                      0x0000c4c4   Lc    1  Sect  De   0x8
    884  .bss                       0x10018cf4   Lc    3  Sect  De   0x60
    885  ../clib/angel/kernel.s     0x00000000   Lc  Abs  File  De 
    886  .ARM.Collect$$rtentry$$00000002
                                    0x0000c1f8   Lc    1  Sect  De 
    887  .ARM.Collect$$rtentry$$00000009
                                    0x0000c1fe   Lc    1  Sect  De 
    888  .ARM.Collect$$rtentry$$0000000A
                                    0x0000c1fe   Lc    1  Sect  De   0x4
    889  .ARM.Collect$$rtentry$$0000000C
                                    0x0000c202   Lc    1  Sect  De 
    890  .ARM.Collect$$rtentry$$0000000D
                                    0x0000c202   Lc    1  Sect  De   0x8
    891  ../clib/angel/kernel.s     0x00000000   Lc  Abs  File  De 
    892  .ARM.Collect$$rtentry$$00000004
                                    0x0000c1f8   Lc    1  Sect  De   0x6
    893  ../clib/angel/rt.s         0x00000000   Lc  Abs  File  De 
    894  ../clib/scanf.c            0x00000000   Lc  Abs  File  De 
    895  ../clib/angel/sys.s        0x00000000   Lc  Abs  File  De 
    896  .text                      0x0000c4cc   Lc    1  Sect  De   0x4a
    897  ../clib/angel/rt.s         0x00000000   Lc  Abs  File  De 
    898  ../clib/angel/rt.s         0x00000000   Lc  Abs  File  De 
    899  ../clib/scanf.c            0x00000000   Lc  Abs  File  De 
    900  ../clib/locale.s           0x00000000   Lc  Abs  File  De 
    901  ../clib/stdlib.c           0x00000000   Lc  Abs  File  De 
    902  .text                      0x0000c516   Lc    1  Sect  De 
    903  ../clib/angel/boardlib.s   0x00000000   Lc  Abs  File  De 
    904  ../clib/angel/boardlib.s   0x00000000   Lc  Abs  File  De 
    905  ../clib/angel/boardlib.s   0x00000000   Lc  Abs  File  De 
    906  ../clib/libinit.s          0x00000000   Lc  Abs  File  De 
    907  .ARM.Collect$$libinit$$00000000
                                    0x0000c1ec   Lc    1  Sect  De   0x2
    908  ../clib/angel/kernel.s     0x00000000   Lc  Abs  File  De 
    909  .ARM.Collect$$rtexit$$00000000
                                    0x0000c20a   Lc    1  Sect  De   0x2
    910  ../clib/libinit.s          0x00000000   Lc  Abs  File  De 
    911  .ARM.Collect$$libinit$$00000001
                                    0x0000c1ee   Lc    1  Sect  De   0x4
    912  .ARM.Collect$$libinit$$00000004
                                    0x0000c1f2   Lc    1  Sect  De 
    913  .ARM.Collect$$libinit$$0000000A
                                    0x0000c1f2   Lc    1  Sect  De 
    914  .ARM.Collect$$libinit$$0000000C
                                    0x0000c1f2   Lc    1  Sect  De 
    915  .ARM.Collect$$libinit$$0000000E
                                    0x0000c1f2   Lc    1  Sect  De 
    916  .ARM.Collect$$libinit$$00000011
                                    0x0000c1f2   Lc    1  Sect  De 
    917  .ARM.Collect$$libinit$$00000013
                                    0x0000c1f2   Lc    1  Sect  De 
    918  .ARM.Collect$$libinit$$00000015
                                    0x0000c1f2   Lc    1  Sect  De 
    919  .ARM.Collect$$libinit$$00000017
                                    0x0000c1f2   Lc    1  Sect  De 
    920  .ARM.Collect$$libinit$$00000019
                                    0x0000c1f2   Lc    1  Sect  De 
    921  .ARM.Collect$$libinit$$0000001B
                                    0x0000c1f2   Lc    1  Sect  De 
    922  .ARM.Collect$$libinit$$0000001D
                                    0x0000c1f2   Lc    1  Sect  De 
    923  .ARM.Collect$$libinit$$0000001F
                                    0x0000c1f2   Lc    1  Sect  De 
    924  .ARM.Collect$$libinit$$00000021
                                    0x0000c1f2   Lc    1  Sect  De 
    925  .ARM.Collect$$libinit$$00000023
                                    0x0000c1f2   Lc    1  Sect  De 
    926  .ARM.Collect$$libinit$$00000025
                                    0x0000c1f2   Lc    1  Sect  De 
    927  .ARM.Collect$$libinit$$0000002C
                                    0x0000c1f2   Lc    1  Sect  De 
    928  .ARM.Collect$$libinit$$0000002E
                                    0x0000c1f2   Lc    1  Sect  De 
    929  .ARM.Collect$$libinit$$00000030
                                    0x0000c1f2   Lc    1  Sect  De 
    930  .ARM.Collect$$libinit$$00000032
                                    0x0000c1f2   Lc    1  Sect  De 
    931  .ARM.Collect$$libinit$$00000033
                                    0x0000c1f2   Lc    1  Sect  De   0x2
    932  ../clib/angel/kernel.s     0x00000000   Lc  Abs  File  De 
    933  .ARM.Collect$$rtexit$$00000002
                                    0x0000c20c   Lc    1  Sect  De 
    934  .ARM.Collect$$rtexit$$00000003
                                    0x0000c20c   Lc    1  Sect  De   0x4
    935  .ARM.Collect$$rtexit$$00000004
                                    0x0000c210   Lc    1  Sect  De   0x6
    936  ../clib/armsys.c           0x00000000   Lc  Abs  File  De 
    937  ../clib/armsys.c           0x00000000   Lc  Abs  File  De 
    938  ../fplib/fpinit.s          0x00000000   Lc  Abs  File  De 
    939  x$fpl$fpinit               0x00011bfe   Lc    1  Sect  De   0xa
    940  $v0                        0x00011bfe   Lc    1   --   De 
    941  ../clib/angel/sysapp.c     0x00000000   Lc  Abs  File  De 
    942  .text                      0x0000c528   Lc    1  Sect  De 
    943  ../clib/angel/boardlib.s   0x00000000   Lc  Abs  File  De 
    944  ../clib/armsys.c           0x00000000   Lc  Abs  File  De 
    945  ../clib/armsys.c           0x00000000   Lc  Abs  File  De 
    946  ../clib/libinit.s          0x00000000   Lc  Abs  File  De 
    947  .ARM.Collect$$libshutdown$$00000000
                                    0x0000c1f4   Lc    1  Sect  De   0x2
    948  ../clib/angel/sysapp.c     0x00000000   Lc  Abs  File  De 
    949  ../clib/angel/sys.s        0x00000000   Lc  Abs  File  De 
    950  .text                      0x0000c534   Lc    1  Sect  De   0x2
    951  ../clib/angel/sys.s        0x00000000   Lc  Abs  File  De 
    952  .text                      0x0000c536   Lc    1  Sect  De 
    953  ../clib/heapalloc.c        0x00000000   Lc  Abs  File  De 
    954  ../clib/signal.c           0x00000000   Lc  Abs  File  De 
    955  ../clib/signal.c           0x00000000   Lc  Abs  File  De 
    956  ../clib/libinit.s          0x00000000   Lc  Abs  File  De 
    957  .ARM.Collect$$libshutdown$$00000002
                                    0x0000c1f6   Lc    1  Sect  De 
    958  .ARM.Collect$$libshutdown$$00000004
                                    0x0000c1f6   Lc    1  Sect  De 
    959  .ARM.Collect$$libshutdown$$00000007
                                    0x0000c1f6   Lc    1  Sect  De 
    960  .ARM.Collect$$libshutdown$$0000000A
                                    0x0000c1f6   Lc    1  Sect  De 
    961  .ARM.Collect$$libshutdown$$0000000C
                                    0x0000c1f6   Lc    1  Sect  De 
    962  .ARM.Collect$$libshutdown$$0000000F
                                    0x0000c1f6   Lc    1  Sect  De 
    963  .ARM.Collect$$libshutdown$$00000010
                                    0x0000c1f6   Lc    1  Sect  De   0x2
    964  ../clib/angel/rt.s         0x00000000   Lc  Abs  File  De 
    965  ../clib/signal.c           0x00000000   Lc  Abs  File  De 
    966  ../clib/signal.c           0x00000000   Lc  Abs  File  De 
    967  ../clib/signal.c           0x00000000   Lc  Abs  File  De 
    968  ../clib/signal.c           0x00000000   Lc  Abs  File  De 
    969  ../clib/angel/sysapp.c     0x00000000   Lc  Abs  File  De 
    970  ../clib/signal.s           0x00000000   Lc  Abs  File  De 
    971  ../clib/signal.c           0x00000000   Lc  Abs  File  De 
    972  ../clib/signal.c           0x00000000   Lc  Abs  File  De 
    973  ../clib/signal.c           0x00000000   Lc  Abs  File  De 
    974  ../clib/signal.c           0x00000000   Lc  Abs  File  De 
    975  ../clib/signal.c           0x00000000   Lc  Abs  File  De 
    976  ../clib/signal.c           0x00000000   Lc  Abs  File  De 
    977  ../clib/signal.c           0x00000000   Lc  Abs  File  De 
    978  ../clib/signal.c           0x00000000   Lc  Abs  File  De 
    979  ../clib/angel/dczerorl2.s  0x00000000   Lc  Abs  File  De 
    980  !!dczerorl2                0x0000c174   Lc    1  Sect  De   0x5a
    981  ../clib/angel/scatter.s    0x00000000   Lc  Abs  File  De 
    982  !!!scatter                 0x0000c140   Lc    1  Sect  De   0x34
    983  ../clib/angel/handlers.s   0x00000000   Lc  Abs  File  De 
    984  !!handler_zi               0x0000c1d0   Lc    1  Sect  De   0x1c
    985  BuildAttributes$$THM_ISAv4$E$P$D$K$B$S$7EM$VFPi3$EXTD16$VFPS$VFMA$PE$A:L22UL41UL21$X:L11$S22US41US21$IEEE1$IW$USESV6$~STKCKD$USESV7$~SHL$OTIME$ROPI$EBA8$UX$STANDARDLIB$REQ8$PRES8$EABIv2
                                    0x00000000   Gb  Abs   --   Hi 
    986  __ARM_use_no_argv          0x00000000   Gb  Abs   --   Hi 
    987  __Vectors                  0x0000c000   Gb    1  Data  Hi 
    988  __Patchable                0x0000c0c8   Gb    1  Data  Hi 
    989  Reset_Handler              0x0000c101   Wk    1  Code  Hi   0x1c
    990  NMI_Handler                0x0000c11f   Wk    1  Code  Hi   0x2
    991  MemManage_Handler          0x0000c121   Wk    1  Code  Hi   0x2
    992  BusFault_Handler           0x0000c123   Wk    1  Code  Hi   0x2
    993  UsageFault_Handler         0x0000c125   Wk    1  Code  Hi   0x2
    994  SecureFault_Handler        0x0000c127   Wk    1  Code  Hi   0x2
    995  DebugMon_Handler           0x0000c12b   Wk    1  Code  Hi   0x2
    996  am_adc_isr                 0x0000c131   Wk    1  Code  Hi 
    997  am_brownout_isr            0x0000c131   Wk    1  Code  Hi 
    998  am_clkgen_isr              0x0000c131   Wk    1  Code  Hi 
    999  am_ctimer_isr              0x0000c131   Wk    1  Code  Hi 
    1000  am_gpio_isr                0x0000c131   Wk    1  Code  Hi 
    1001  am_iomaster0_isr           0x0000c131   Wk    1  Code  Hi 
    1002  am_iomaster1_isr           0x0000c131   Wk    1  Code  Hi 
    1003  am_iomaster2_isr           0x0000c131   Wk    1  Code  Hi 
    1004  am_iomaster3_isr           0x0000c131   Wk    1  Code  Hi 
    1005  am_iomaster4_isr           0x0000c131   Wk    1  Code  Hi 
    1006  am_iomaster5_isr           0x0000c131   Wk    1  Code  Hi 
    1007  am_ioslave_acc_isr         0x0000c131   Wk    1  Code  Hi 
    1008  am_ioslave_ios_isr         0x0000c131   Wk    1  Code  Hi 
    1009  am_mspi0_isr               0x0000c131   Wk    1  Code  Hi 
    1010  am_mspi1_isr               0x0000c131   Wk    1  Code  Hi 
    1011  am_mspi2_isr               0x0000c131   Wk    1  Code  Hi 
    1012  am_pdm0_isr                0x0000c131   Wk    1  Code  Hi 
    1013  am_rtc_isr                 0x0000c131   Wk    1  Code  Hi 
    1014  am_scard_isr               0x0000c131   Wk    1  Code  Hi 
    1015  am_software0_isr           0x0000c131   Wk    1  Code  Hi 
    1016  am_stimer_cmpr2_isr        0x0000c131   Wk    1  Code  Hi 
    1017  am_stimer_cmpr3_isr        0x0000c131   Wk    1  Code  Hi 
    1018  am_stimer_cmpr4_isr        0x0000c131   Wk    1  Code  Hi 
    1019  am_stimer_cmpr5_isr        0x0000c131   Wk    1  Code  Hi 
    1020  am_stimer_cmpr6_isr        0x0000c131   Wk    1  Code  Hi 
    1021  am_stimer_cmpr7_isr        0x0000c131   Wk    1  Code  Hi 
    1022  am_stimer_isr              0x0000c131   Wk    1  Code  Hi 
    1023  am_uart0_isr               0x0000c131   Wk    1  Code  Hi 
    1024  am_uart1_isr               0x0000c131   Wk    1  Code  Hi 
    1025  am_uart_isr                0x0000c131   Wk    1  Code  Hi 
    1026  am_vcomp_isr               0x0000c131   Wk    1  Code  Hi 
    1027  am_watchdog_isr            0x0000c131   Wk    1  Code  Hi 
    1028  __main                     0x0000c139   Gb    1  Code  Hi   0x8
    1029  __scatterload              0x0000c141   Gb    1  Code  Hi 
    1030  __scatterload_rt2          0x0000c141   Gb    1  Code  Hi   0x2c
    1031  __scatterload_rt2_thumb_only
                                    0x0000c141   Gb    1  Code  Hi 
    1032  __scatterload_null         0x0000c14f   Gb    1  Code  Hi 
    1033  __decompress               0x0000c175   Gb    1  Code  Hi   0x5a
    1034  __decompress1              0x0000c175   Gb    1  Code  Hi 
    1035  __scatterload_zeroinit     0x0000c1d1   Gb    1  Code  Hi   0x1c
    1036  __rt_lib_init              0x0000c1ed   Gb    1  Code  De 
    1037  __rt_lib_init_fp_1         0x0000c1ef   Gb    1  Code  Hi 
    1038  __rt_lib_init_alloca_1     0x0000c1f3   Gb    1  Code  Hi 
    1039  __rt_lib_init_argv_1       0x0000c1f3   Gb    1  Code  Hi 
    1040  __rt_lib_init_atexit_1     0x0000c1f3   Gb    1  Code  Hi 
    1041  __rt_lib_init_clock_1      0x0000c1f3   Gb    1  Code  Hi 
    1042  __rt_lib_init_cpp_1        0x0000c1f3   Gb    1  Code  Hi 
    1043  __rt_lib_init_exceptions_1 0x0000c1f3   Gb    1  Code  Hi 
    1044  __rt_lib_init_fp_trap_1    0x0000c1f3   Gb    1  Code  Hi 
    1045  __rt_lib_init_getenv_1     0x0000c1f3   Gb    1  Code  Hi 
    1046  __rt_lib_init_heap_1       0x0000c1f3   Gb    1  Code  Hi 
    1047  __rt_lib_init_lc_collate_1 0x0000c1f3   Gb    1  Code  Hi 
    1048  __rt_lib_init_lc_ctype_1   0x0000c1f3   Gb    1  Code  Hi 
    1049  __rt_lib_init_lc_monetary_1
                                    0x0000c1f3   Gb    1  Code  Hi 
    1050  __rt_lib_init_lc_numeric_1 0x0000c1f3   Gb    1  Code  Hi 
    1051  __rt_lib_init_lc_time_1    0x0000c1f3   Gb    1  Code  Hi 
    1052  __rt_lib_init_preinit_1    0x0000c1f3   Gb    1  Code  Hi 
    1053  __rt_lib_init_rand_1       0x0000c1f3   Gb    1  Code  Hi 
    1054  __rt_lib_init_return       0x0000c1f3   Gb    1  Code  Hi 
    1055  __rt_lib_init_signal_1     0x0000c1f3   Gb    1  Code  Hi 
    1056  __rt_lib_init_stdio_1      0x0000c1f3   Gb    1  Code  Hi 
    1057  __rt_lib_init_user_alloc_1 0x0000c1f3   Gb    1  Code  Hi 
    1058  __rt_lib_shutdown          0x0000c1f5   Gb    1  Code  De 
    1059  __rt_lib_shutdown_cpp_1    0x0000c1f7   Gb    1  Code  Hi 
    1060  __rt_lib_shutdown_fp_trap_1
                                    0x0000c1f7   Gb    1  Code  Hi 
    1061  __rt_lib_shutdown_heap_1   0x0000c1f7   Gb    1  Code  Hi 
    1062  __rt_lib_shutdown_return   0x0000c1f7   Gb    1  Code  Hi 
    1063  __rt_lib_shutdown_signal_1 0x0000c1f7   Gb    1  Code  Hi 
    1064  __rt_lib_shutdown_stdio_1  0x0000c1f7   Gb    1  Code  Hi 
    1065  __rt_lib_shutdown_user_alloc_1
                                    0x0000c1f7   Gb    1  Code  Hi 
    1066  __rt_entry                 0x0000c1f9   Gb    1  Code  Hi 
    1067  __rt_entry_presh_1         0x0000c1f9   Gb    1  Code  Hi 
    1068  __rt_entry_sh              0x0000c1f9   Gb    1  Code  Hi 
    1069  __rt_entry_li              0x0000c1ff   Gb    1  Code  Hi 
    1070  __rt_entry_postsh_1        0x0000c1ff   Gb    1  Code  Hi 
    1071  __rt_entry_main            0x0000c203   Gb    1  Code  Hi 
    1072  __rt_entry_postli_1        0x0000c203   Gb    1  Code  Hi 
    1073  __rt_exit                  0x0000c20b   Gb    1  Code  De 
    1074  __rt_exit_ls               0x0000c20d   Gb    1  Code  Hi 
    1075  __rt_exit_prels_1          0x0000c20d   Gb    1  Code  Hi 
    1076  __rt_exit_exit             0x0000c211   Gb    1  Code  Hi 
    1077  SVC_Handler                0x0000c219   Gb    1  Code  Hi   0x1c
    1078  __asm___6_port_c_39a90d8d__prvStartFirstTask
                                    0x0000c239   Gb    1  Code  Hi   0x24
    1079  __asm___6_port_c_39a90d8d__prvEnableVFP
                                    0x0000c261   Gb    1  Code  Hi   0x10
    1080  PendSV_Handler             0x0000c275   Gb    1  Code  Hi   0x58
    1081  vPortGetIPSR               0x0000c2d1   Gb    1  Code  Hi   0x6
    1082  HardFault_Handler          0x0000c2d9   Gb    1  Code  Hi   0x1a
    1083  getStackedReg              0x0000c2f3   Gb    1  Code  Hi   0x8
    1084  am_hal_interrupt_master_enable
                                    0x0000c2fd   Gb    1  Code  Hi   0x8
    1085  am_hal_interrupt_master_disable
                                    0x0000c305   Gb    1  Code  Hi   0x8
    1086  am_hal_interrupt_master_set
                                    0x0000c30d   Gb    1  Code  Hi   0x6
    1087  __user_initial_stackheap   0x0000c315   Gb    1  Code  Hi   0xa
    1088  __aeabi_memcpy             0x0000c32d   Gb    1  Code  Hi 
    1089  __rt_memcpy                0x0000c32d   Gb    1  Code  De   0x8a
    1090  _memcpy_lastbytes          0x0000c393   Gb    1  Code  De 
    1091  __aeabi_memcpy4            0x0000c3b7   Gb    1  Code  Hi 
    1092  __aeabi_memcpy8            0x0000c3b7   Gb    1  Code  De 
    1093  __rt_memcpy_w              0x0000c3b7   Gb    1  Code  De   0x64
    1094  _memcpy_lastbytes_aligned  0x0000c3ff   Gb    1  Code  De 
    1095  __aeabi_memset             0x0000c41b   Gb    1  Code  Hi   0x10
    1096  __aeabi_memclr             0x0000c42b   Gb    1  Code  Hi 
    1097  __rt_memclr                0x0000c42b   Gb    1  Code  De   0x44
    1098  _memset                    0x0000c42f   Gb    1  Code  De 
    1099  __aeabi_memclr4            0x0000c46f   Gb    1  Code  Hi 
    1100  __aeabi_memclr8            0x0000c46f   Gb    1  Code  De 
    1101  __rt_memclr_w              0x0000c46f   Gb    1  Code  De   0x4e
    1102  _memset_w                  0x0000c473   Gb    1  Code  De 
    1103  __use_two_region_memory    0x0000c4bd   Gb    1  Code  Hi   0x2
    1104  __rt_heap_escrow$2region   0x0000c4bf   Gb    1  Code  De   0x2
    1105  __rt_heap_expand$2region   0x0000c4c1   Gb    1  Code  De   0x2
    1106  __user_libspace            0x0000c4c5   Wk    1  Code  De   0x8
    1107  __user_perproc_libspace    0x0000c4c5   Wk    1  Code  De 
    1108  __user_perthread_libspace  0x0000c4c5   Wk    1  Code  De 
    1109  __user_setup_stackheap     0x0000c4cd   Gb    1  Code  De   0x4a
    1110  exit                       0x0000c517   Gb    1  Code  De   0x12
    1111  _sys_exit                  0x0000c529   Gb    1  Code  De   0x8
    1112  __I$use$semihosting        0x0000c535   Gb    1  Code  Hi 
    1113  __use_no_semihosting_swi   0x0000c535   Gb    1  Code  Hi   0x2
    1114  __semihosting_library_function
                                    0x0000c537   Gb    1  Code  Hi 
    1115  AppUiBtnTest               0x0000c539   Gb    1  Code  Hi   0x14
    1116  HciDrvIntService           0x0000c551   Gb    1  Code  Hi   0x2e
    1117  HciDrvRadioBoot            0x0000c58d   Gb    1  Code  Hi   0x182
    1118  HciDrvRadioShutdown        0x0000c7d5   Gb    1  Code  Hi   0x96
    1119  HciVsA3_CarrierWaveMode    0x0000c8b9   Gb    1  Code  Hi   0x10
    1120  HciVsA3_ConstantTransmission
                                    0x0000c8cd   Gb    1  Code  Hi   0x10
    1121  HciVsA3_SetRfPowerLevelEx  0x0000c8e1   Gb    1  Code  Hi   0x40
    1122  SysTick_Handler            0x0000c925   Gb    1  Code  Hi   0x2e
    1123  WsfCsEnter                 0x0000c959   Gb    1  Code  Hi   0x14
    1124  WsfCsExit                  0x0000c971   Gb    1  Code  Hi   0x14
    1125  WsfQueueRemove             0x0000c989   Gb    1  Code  Hi   0x2c
    1126  WsfSetEvent                0x0000c9b5   Gb    1  Code  Hi   0x38
    1127  WsfSetOsSpecificEvent      0x0000c9f1   Gb    1  Code  Hi   0x6c
    1128  WsfTaskLock                0x0000ca69   Gb    1  Code  Hi   0x8
    1129  WsfTaskUnlock              0x0000ca71   Gb    1  Code  Hi   0x8
    1130  WsfTimerStop               0x0000ca79   Gb    1  Code  Hi   0x14
    1131  am_ble_isr                 0x0000cad9   Gb    1  Code  Hi   0x8
    1132  am_bsp_itm_printf_enable   0x0000cae1   Gb    1  Code  Hi   0x2c
    1133  am_bsp_low_power_init      0x0000cb1d   Gb    1  Code  Hi   0x3a
    1134  am_devices_button_array_init
                                    0x0000cb61   Gb    1  Code  Hi   0x1a
    1135  am_devices_button_array_tick
                                    0x0000cb7b   Gb    1  Code  Hi   0x1a
    1136  am_devices_button_init     0x0000cb95   Gb    1  Code  Hi   0x18
    1137  am_devices_button_tick     0x0000cbb1   Gb    1  Code  Hi   0x5c
    1138  am_freertos_sleep          0x0000cc15   Gb    1  Code  Hi   0xe
    1139  am_freertos_wakeup         0x0000cc23   Gb    1  Code  Hi   0x2
    1140  am_hal_ble_blocking_hci_read
                                    0x0000cc25   Gb    1  Code  Hi   0x8e
    1141  am_hal_ble_blocking_hci_write
                                    0x0000ccc1   Gb    1  Code  Hi   0x46
    1142  am_hal_ble_blocking_transfer
                                    0x0000cd11   Gb    1  Code  Hi   0x456
    1143  am_hal_ble_boot            0x0000d169   Gb    1  Code  Hi   0x160
    1144  am_hal_ble_config          0x0000d389   Gb    1  Code  Hi   0xa6
    1145  am_hal_ble_deinitialize    0x0000d43d   Gb    1  Code  Hi   0x54
    1146  am_hal_ble_initialize      0x0000d495   Gb    1  Code  Hi   0x6e
    1147  am_hal_ble_int_clear       0x0000d50d   Gb    1  Code  Hi   0x24
    1148  am_hal_ble_int_enable      0x0000d539   Gb    1  Code  Hi   0x3a
    1149  am_hal_ble_int_status      0x0000d57d   Gb    1  Code  Hi   0x18
    1150  am_hal_ble_patch_apply     0x0000d599   Gb    1  Code  Hi   0x324
    1151  am_hal_ble_patch_complete  0x0000d8d5   Gb    1  Code  Hi   0x286
    1152  am_hal_ble_plf_reg_read    0x0000db91   Gb    1  Code  Hi   0xd4
    1153  am_hal_ble_plf_reg_write   0x0000dc75   Gb    1  Code  Hi   0xd6
    1154  am_hal_ble_power_control   0x0000dd59   Gb    1  Code  Hi   0x154
    1155  am_hal_ble_sleep_set       0x0000dedd   Gb    1  Code  Hi   0x50
    1156  am_hal_ble_tx_power_set    0x0000df35   Gb    1  Code  Hi   0x8a
    1157  am_hal_ble_wakeup_set      0x0000dfd1   Gb    1  Code  Hi   0x36
    1158  am_hal_burst_mode_disable  0x0000e011   Gb    1  Code  Hi   0x54
    1159  am_hal_burst_mode_enable   0x0000e06d   Gb    1  Code  Hi   0x58
    1160  am_hal_cachectrl_config    0x0000e0cd   Gb    1  Code  Hi   0x46
    1161  am_hal_cachectrl_control   0x0000e119   Gb    1  Code  Hi   0x3a4
    1162  am_hal_cachectrl_enable    0x0000e4c5   Gb    1  Code  Hi   0xe
    1163  am_hal_clkgen_control      0x0000e4d9   Gb    1  Code  Hi   0xec
    1164  am_hal_clkgen_status_get   0x0000e5d5   Gb    1  Code  Hi   0x2c
    1165  am_hal_flash_delay         0x0000e609   Gb    1  Code  Hi   0x1e
    1166  am_hal_flash_delay_status_check
                                    0x0000e62d   Gb    1  Code  Hi   0x56
    1167  am_hal_flash_load_ui32     0x0000e689   Gb    1  Code  Hi   0x4
    1168  am_hal_flash_store_ui32    0x0000e691   Gb    1  Code  Hi   0x24
    1169  am_hal_gpio_pinconfig      0x0000e6b9   Gb    1  Code  Hi   0x24a
    1170  am_hal_gpio_state_read     0x0000e939   Gb    1  Code  Hi   0x5a
    1171  am_hal_gpio_state_write    0x0000e993   Gb    1  Code  Hi   0x80
    1172  am_hal_itm_enable          0x0000ea15   Gb    1  Code  Hi   0x2c
    1173  am_hal_itm_print           0x0000ea5d   Gb    1  Code  Hi   0x30
    1174  am_hal_mcuctrl_info_get    0x0000ea8d   Gb    1  Code  Hi   0x116
    1175  am_hal_pwrctrl_blebuck_trim
                                    0x0000ebc5   Gb    1  Code  Hi   0x48
    1176  am_hal_pwrctrl_low_power_init
                                    0x0000ec11   Gb    1  Code  Hi   0xee
    1177  am_hal_pwrctrl_memory_enable
                                    0x0000ed15   Gb    1  Code  Hi   0x62
    1178  am_hal_pwrctrl_periph_disable
                                    0x0000ed81   Gb    1  Code  Hi   0x46
    1179  am_hal_pwrctrl_periph_enable
                                    0x0000edd1   Gb    1  Code  Hi   0x48
    1180  am_hal_queue_init          0x0000ee21   Gb    1  Code  Hi   0x16
    1181  am_hal_rtc_osc_disable     0x0000ee37   Gb    1  Code  Hi   0x12
    1182  am_hal_stimer_compare_delta_set
                                    0x0000ee49   Gb    1  Code  Hi   0xa6
    1183  am_hal_stimer_config       0x0000eef5   Gb    1  Code  Hi   0xe
    1184  am_hal_stimer_counter_get  0x0000ef09   Gb    1  Code  Hi   0x8
    1185  am_hal_stimer_int_clear    0x0000ef15   Gb    1  Code  Hi   0x8
    1186  am_hal_stimer_int_enable   0x0000ef21   Gb    1  Code  Hi   0xe
    1187  am_hal_stimer_int_status_get
                                    0x0000ef35   Gb    1  Code  Hi   0x12
    1188  am_hal_sysctrl_fpu_enable  0x0000ef4d   Gb    1  Code  Hi   0xa
    1189  am_hal_sysctrl_fpu_stacking_enable
                                    0x0000ef5d   Gb    1  Code  Hi   0x2c
    1190  am_hal_sysctrl_sleep       0x0000ef8d   Gb    1  Code  Hi   0x84
    1191  am_hal_tpiu_enable         0x0000f029   Gb    1  Code  Hi   0x7a
    1192  am_stimer_cmpr0_isr        0x0000f0b9   Gb    1  Code  Hi   0x1e
    1193  am_stimer_cmpr1_isr        0x0000f0d9   Gb    1  Code  Hi   0x28
    1194  am_util_ble_set_carrier_wave_ex
                                    0x0000f105   Gb    1  Code  Hi   0xc8
    1195  am_util_ble_set_constant_transmission
                                    0x0000f1d5   Gb    1  Code  Hi   0x3a
    1196  am_util_ble_set_constant_transmission_ex
                                    0x0000f219   Gb    1  Code  Hi   0xc0
    1197  am_util_ble_transmitter_control
                                    0x0000f2e1   Gb    1  Code  Hi   0x36
    1198  am_util_ble_transmitter_control_ex
                                    0x0000f325   Gb    1  Code  Hi   0x10
    1199  am_util_delay_ms           0x0000f335   Gb    1  Code  Hi   0x20
    1200  am_util_faultisr_collect_data
                                    0x0000f355   Gb    1  Code  Hi   0xb4
    1201  am_util_stdio_printf       0x0000f40d   Gb    1  Code  Hi   0x32
    1202  am_util_stdio_printf_init  0x0000f449   Gb    1  Code  Hi   0x6
    1203  am_util_stdio_vsprintf     0x0000f455   Gb    1  Code  Hi   0x3a4
    1204  button_timer_handler       0x0000f809   Gb    1  Code  Hi   0x138
    1205  eTaskConfirmSleepModeStatus
                                    0x0000fb69   Gb    1  Code  Hi   0x2a
    1206  enable_print_interface     0x0000fba5   Gb    1  Code  Hi   0x8
    1207  main                       0x0000fd49   Gb    1  Code  Hi   0x5e
    1208  pvPortMalloc               0x00010775   Gb    1  Code  Hi   0xb0
    1209  pxPortInitialiseStack      0x00010835   Gb    1  Code  Hi   0x26
    1210  setup_buttons              0x00010861   Gb    1  Code  Hi   0x3e
    1211  uxListRemove               0x000109cf   Gb    1  Code  Hi   0x28
    1212  vApplicationMallocFailedHook
                                    0x000109f7   Gb    1  Code  Hi   0x4
    1213  vApplicationStackOverflowHook
                                    0x000109fb   Gb    1  Code  Hi   0x6
    1214  vEventGroupSetBitsCallback 0x00010a01   Gb    1  Code  Hi   0x10
    1215  vListInitialise            0x00010a11   Gb    1  Code  Hi   0x1a
    1216  vListInitialiseItem        0x00010a2b   Gb    1  Code  Hi   0x6
    1217  vListInsert                0x00010a31   Gb    1  Code  Hi   0x34
    1218  vListInsertEnd             0x00010a65   Gb    1  Code  Hi   0x18
    1219  vPortEnterCritical         0x00010a7d   Gb    1  Code  Hi   0x3a
    1220  vPortExitCritical          0x00010ac1   Gb    1  Code  Hi   0x26
    1221  vPortFree                  0x00010aed   Gb    1  Code  Hi   0x38
    1222  vPortSetupTimerInterrupt   0x00010b2d   Gb    1  Code  Hi   0x76
    1223  vPortSuppressTicksAndSleep 0x00010bb5   Gb    1  Code  Hi   0xcc
    1224  vPortValidateInterruptPriority
                                    0x00010c8d   Gb    1  Code  Hi   0x46
    1225  vQueueWaitForMessageRestricted
                                    0x00010ce1   Gb    1  Code  Hi   0x4a
    1226  vTaskInternalSetTimeOutState
                                    0x00010d2d   Gb    1  Code  Hi   0xe
    1227  vTaskMissedYield           0x00010d45   Gb    1  Code  Hi   0x8
    1228  vTaskPlaceOnEventList      0x00010d51   Gb    1  Code  Hi   0x22
    1229  vTaskPlaceOnEventListRestricted
                                    0x00010d79   Gb    1  Code  Hi   0x2a
    1230  vTaskRemoveFromUnorderedEventList
                                    0x00010da9   Gb    1  Code  Hi   0x68
    1231  vTaskStartScheduler        0x00010e25   Gb    1  Code  Hi   0x66
    1232  vTaskStepTick              0x00010ea9   Gb    1  Code  Hi   0x26
    1233  vTaskSuspendAll            0x00010ed9   Gb    1  Code  Hi   0xc
    1234  vTaskSwitchContext         0x00010ee9   Gb    1  Code  Hi   0xa0
    1235  xEventGroupSetBits         0x00010fd1   Gb    1  Code  Hi   0xaa
    1236  xPortStartScheduler        0x0001107d   Gb    1  Code  Hi   0x102
    1237  xPortStimerTickHandler     0x0001119d   Gb    1  Code  Hi   0x94
    1238  xQueueGenericCreate        0x0001123d   Gb    1  Code  Hi   0x48
    1239  xQueueGenericReset         0x00011285   Gb    1  Code  Hi   0x80
    1240  xQueueGenericSend          0x00011309   Gb    1  Code  Hi   0x15c
    1241  xQueueGenericSendFromISR   0x00011469   Gb    1  Code  Hi   0xc2
    1242  xQueueReceive              0x0001152d   Gb    1  Code  Hi   0x12e
    1243  xTaskCheckForTimeOut       0x00011661   Gb    1  Code  Hi   0x60
    1244  xTaskCreate                0x000116c9   Gb    1  Code  Hi   0x60
    1245  xTaskGetSchedulerState     0x00011729   Gb    1  Code  Hi   0x18
    1246  xTaskGetTickCount          0x00011749   Gb    1  Code  Hi   0x6
    1247  xTaskIncrementTick         0x00011755   Gb    1  Code  Hi   0xec
    1248  xTaskRemoveFromEventList   0x0001186d   Gb    1  Code  Hi   0x70
    1249  xTaskResumeAll             0x000118f5   Gb    1  Code  Hi   0xcc
    1250  xTimerCreate               0x000119e5   Gb    1  Code  Hi   0x30
    1251  xTimerCreateTimerTask      0x00011a15   Gb    1  Code  Hi   0x30
    1252  xTimerGenericCommand       0x00011a59   Gb    1  Code  Hi   0x6e
    1253  xTimerPendFunctionCallFromISR
                                    0x00011acd   Gb    1  Code  Hi   0x30
    1254  __aeabi_d2f                0x00011b01   Gb    1  Code  Hi 
    1255  _d2f                       0x00011b01   Gb    1  Code  De   0x62
    1256  __fpl_dnaninf              0x00011b63   Gb    1  Code  De   0x9c
    1257  _fp_init                   0x00011bff   Gb    1  Code  De   0xa
    1258  __fplib_config_fpu_vfp     0x00011c07   Gb    1  Code  De 
    1259  __fplib_config_pureend_doubles
                                    0x00011c07   Gb    1  Code  De 
    1260  __fpl_fretinf              0x00011c09   Gb    1  Code  De   0xa
    1261  __I$use$fp                 0x00011c12   Gb    1   --   De 
    1262  am_hal_cachectrl_defaults  0x00011e88   Gb    1  Data  Hi   0x3
    1263  g_AM_HAL_GPIO_DISABLE      0x00011e98   Gb    1  Data  Hi   0x4
    1264  g_AM_HAL_GPIO_INPUT        0x000120a4   Gb    1  Data  Hi   0x4
    1265  g_AM_HAL_GPIO_OUTPUT       0x000120a8   Gb    1  Data  Hi   0x4
    1266  g_am_hal_mcuctrl_flash_size
                                    0x000120ac   Gb    1  Data  Hi   0x40
    1267  g_am_hal_mcuctrl_sram_size 0x000120ec   Gb    1  Data  Hi   0x40
    1268  am_hal_pwrctrl_peripheral_control
                                    0x0001212c   Gb    1  Data  Hi   0xcc
    1269  am_hal_pwrctrl_memory_control
                                    0x000121f8   Gb    1  Data  Hi   0x1b0
    1270  g_AM_BSP_GPIO_ITM_SWO      0x000123a8   Gb    1  Data  Hi   0x4
    1271  am_hal_ble_num_default_patches_b0
                                    0x000123ac   Gb    1  Data  Hi   0x4
    1272  am_ble_buffer_patch_data_b0
                                    0x000123b0   Gb    1  Data  Hi   0x230
    1273  Region$$Table$$Base        0x00012674   Gb    1   --   Hi 
    1274  Region$$Table$$Limit       0x000126a4   Gb    1   --   Hi 
    1275  csNesting                  0x10013000   Gb    2  Data  Hi   0x1
    1276  xRadioTaskEventObject      0x10013004   Gb    2  Data  Hi   0x4
    1277  wsfTimerTimerQueue         0x10013008   Gb    2  Data  Hi   0x8
    1278  xWsfTimer                  0x10013010   Gb    2  Data  Hi   0x4
    1279  ulTimerCountsForOneTick    0x10013028   Gb    2  Data  Hi   0x4
    1280  gNumCmpB                   0x10013030   Gb    2  Data  Hi   0x4
    1281  BLE                        0x10013034   Gb    2  Data  Hi   0x4
    1282  g_BLEMacAddress            0x10013038   Gb    2  Data  Hi   0x6
    1283  g_HciDrvHandleID           0x1001303e   Gb    2  Data  Hi   0x1
    1284  g_pui8ReadBuffer           0x10013040   Gb    2  Data  Hi   0x4
    1285  bReadBufferInUse           0x10013044   Gb    2  Data  Hi   0x1
    1286  g_ui32NumBytes             0x10013048   Gb    2  Data  Hi   0x4
    1287  g_consumed_bytes           0x1001304c   Gb    2  Data  Hi   0x4
    1288  g_ui32InterruptsSeen       0x10013050   Gb    2  Data  Hi   0x4
    1289  g_hciDrvErrorHandler       0x10013054   Gb    2  Data  Hi   0x4
    1290  xButtonTimer               0x1001305c   Gb    2  Data  Hi   0x4
    1291  current_test_case          0x10013060   Gb    2  Data  Hi   0x1
    1292  g_pfnCharPrint             0x10013064   Gb    2  Data  Hi   0x4
    1293  pxCurrentTCB               0x10013084   Gb    2  Data  Hi   0x4
    1294  g_ui32HALflags             0x100130d0   Gb    2  Data  Hi   0x4
    1295  am_bsp_psLEDs              0x100130dc   Gb    2  Data  Hi   0x28
    1296  am_bsp_psButtons           0x1001312c   Gb    2  Data  Hi   0x30
    1297  am_hal_ble_default_patch_array_b0
                                    0x10013160   Gb    2  Data  Hi   0xc
    1298  am_hal_ble_default_patches_b0
                                    0x1001316c   Gb    2  Data  Hi   0x4
    1299  am_ble_performance_patch_data_b0
                                    0x10013170   Gb    2  Data  Hi   0x654
    1300  am_ble_performance_patch_b0
                                    0x100137c4   Gb    2  Data  Hi   0x10
    1301  am_ble_buffer_patch_b0     0x100137d4   Gb    2  Data  Hi   0x10
    1302  am_ble_buffer_nvds_data_b0 0x100137e4   Gb    2  Data  Hi   0xc4
    1303  am_ble_nvds_patch_b0       0x100138a8   Gb    2  Data  Hi   0x10
    1304  g_am_hal_burst_mode_available
                                    0x100138b8   Gb    2  Data  Hi   0x1
    1305  gAmHalResetStatus          0x100138bc   Gb    2  Data  Hi   0x4
    1306  wsfOs                      0x100138c0   Gb    3  Data  Hi   0x3c
    1307  appUiCbackTbl              0x100138fc   Gb    3  Data  Hi   0xc
    1308  g_HeartBeatTimer           0x10013908   Gb    3  Data  Hi   0x10
    1309  g_WakeTimer                0x10013918   Gb    3  Data  Hi   0x10
    1310  g_psWriteBuffers           0x10013928   Gb    3  Data  Hi   0x820
    1311  g_sWriteQueue              0x10014148   Gb    3  Data  Hi   0x18
    1312  g_pui32ReadBuffer          0x10014160   Gb    3  Data  Hi   0x100
    1313  g_sBLEState                0x10018c28   Gb    3  Data  Hi   0x48
    1314  g_psPatchBuffer            0x10018c70   Gb    3  Data  Hi   0x84
    1315  __libspace_start           0x10018cf4   Gb    3  Data  De   0x60
    1316  __temporary_stack_top$libspace
                                    0x10018d54   Gb    3  Data  De 


** Section #13 '.strtab' (SHT_STRTAB)
    Size   : 28124 bytes

            #  Offset String
        ====================================

            1      1: $d
            2      4: $t
            3      7: $d.realdata
            4     19: ../../../../../third_party/exactle/wsf/sources/port/freertos/wsf_assert.c
            5     93: ../../../../../third_party/exactle/wsf/sources/port/freertos/wsf_buf.c
            6    164: ../../../../../third_party/exactle/wsf/sources/port/freertos/wsf_efs.c
            7    235: ../../../../../third_party/exactle/wsf/sources/port/freertos/wsf_math.c
            8    307: ../../../../../third_party/exactle/wsf/sources/port/freertos/wsf_msg.c
            9    378: ../../../../../third_party/exactle/wsf/sources/port/freertos/wsf_os.c
           10    448: i.WsfCsEnter
           11    461: i.WsfCsExit
           12    473: i.WsfSetEvent
           13    487: i.WsfSetOsSpecificEvent
           14    511: i.WsfTaskLock
           15    525: i.WsfTaskUnlock
           16    541: .bss
           17    546: .data
           18    552: ../../../../../third_party/exactle/wsf/sources/port/freertos/wsf_queue.c
           19    625: i.WsfQueueRemove
           20    642: ../../../../../third_party/exactle/wsf/sources/port/freertos/wsf_timer.c
           21    715: i.WsfTimerStop
           22    730: i.wsfTimerRemove
           23    747: wsfTimerRemove
           24    762: g_ui32LastTime
           25    777: ../../../../../third_party/exactle/wsf/sources/port/freertos/wsf_trace.c
           26    850: ../../../../../third_party/exactle/ble-host/sources/sec/uecc/sec_ecc.c
           27    921: ../../../../../third_party/exactle/ble-host/sources/stack/dm/dm_adv.c
           28    991: ../../../../../third_party/exactle/ble-host/sources/stack/dm/dm_adv_ae.c
           29   1064: ../../../../../third_party/exactle/ble-host/sources/stack/dm/dm_adv_leg.c
           30   1138: ../../../../../third_party/exactle/ble-host/sources/stack/dm/dm_conn.c
           31   1209: ../../../../../third_party/exactle/ble-host/sources/stack/dm/dm_conn_cte.c
           32   1284: ../../../../../third_party/exactle/ble-host/sources/stack/dm/dm_conn_master.c
           33   1362: ../../../../../third_party/exactle/ble-host/sources/stack/dm/dm_conn_master_ae.c
           34   1443: ../../../../../third_party/exactle/ble-host/sources/stack/dm/dm_conn_master_leg.c
           35   1525: ../../../../../third_party/exactle/ble-host/sources/stack/dm/dm_conn_slave.c
           36   1602: ../../../../../third_party/exactle/ble-host/sources/stack/dm/dm_conn_slave_ae.c
           37   1682: ../../../../../third_party/exactle/ble-host/sources/stack/dm/dm_conn_slave_leg.c
           38   1763: ../../../../../third_party/exactle/ble-host/sources/stack/dm/dm_conn_sm.c
           39   1837: ../../../../../third_party/exactle/ble-host/sources/stack/dm/dm_dev.c
           40   1907: ../../../../../third_party/exactle/ble-host/sources/stack/dm/dm_dev_priv.c
           41   1982: ../../../../../third_party/exactle/ble-host/sources/stack/dm/dm_main.c
           42   2053: ../../../../../third_party/exactle/ble-host/sources/stack/dm/dm_past.c
           43   2124: ../../../../../third_party/exactle/ble-host/sources/stack/dm/dm_phy.c
           44   2194: ../../../../../third_party/exactle/ble-host/sources/stack/dm/dm_priv.c
           45   2265: ../../../../../third_party/exactle/ble-host/sources/stack/dm/dm_scan.c
           46   2336: ../../../../../third_party/exactle/ble-host/sources/stack/dm/dm_scan_ae.c
           47   2410: ../../../../../third_party/exactle/ble-host/sources/stack/dm/dm_scan_leg.c
           48   2485: ../../../../../third_party/exactle/ble-host/sources/stack/dm/dm_sec.c
           49   2555: ../../../../../third_party/exactle/ble-host/sources/stack/dm/dm_sec_lesc.c
           50   2630: ../../../../../third_party/exactle/ble-host/sources/stack/dm/dm_sec_master.c
           51   2707: ../../../../../third_party/exactle/ble-host/sources/stack/dm/dm_sec_slave.c
           52   2783: ../../../../../third_party/exactle/ble-host/sources/stack/dm/dm_sync_ae.c
           53   2857: ../../../../../third_party/exactle/ble-host/sources/stack/cfg/cfg_stack.c
           54   2931: ../../../../../third_party/exactle/ble-profiles/sources/profiles/wdxs/wdxs_au.c
           55   3011: ../../../../../third_party/exactle/ble-profiles/sources/profiles/wdxs/wdxs_dc.c
           56   3091: ../../../../../third_party/exactle/ble-profiles/sources/profiles/wdxs/wdxs_ft.c
           57   3171: ../../../../../third_party/exactle/ble-profiles/sources/profiles/wdxs/wdxs_main.c
           58   3253: ../../../../../third_party/exactle/ble-profiles/sources/profiles/wdxs/wdxs_phy.c
           59   3334: ../../../../../third_party/exactle/ble-profiles/sources/profiles/wdxs/wdxs_stream.c
           60   3418: ../../../../../third_party/exactle/ble-host/sources/stack/hci/hci_main.c
           61   3491: ../../../../../third_party/exactle/ble-host/sources/stack/att/attc_disc.c
           62   3565: ../../../../../third_party/exactle/ble-host/sources/stack/att/attc_main.c
           63   3639: ../../../../../third_party/exactle/ble-host/sources/stack/att/attc_proc.c
           64   3713: ../../../../../third_party/exactle/ble-host/sources/stack/att/attc_read.c
           65   3787: ../../../../../third_party/exactle/ble-host/sources/stack/att/attc_sign.c
           66   3861: ../../../../../third_party/exactle/ble-host/sources/stack/att/attc_write.c
           67   3936: ../../../../../third_party/exactle/ble-host/sources/stack/att/atts_ccc.c
           68   4009: ../../../../../third_party/exactle/ble-host/sources/stack/att/atts_csf.c
           69   4082: ../../../../../third_party/exactle/ble-host/sources/stack/att/atts_dyn.c
           70   4155: ../../../../../third_party/exactle/ble-host/sources/stack/att/atts_ind.c
           71   4228: ../../../../../third_party/exactle/ble-host/sources/stack/att/atts_main.c
           72   4302: ../../../../../third_party/exactle/ble-host/sources/stack/att/atts_proc.c
           73   4376: ../../../../../third_party/exactle/ble-host/sources/stack/att/atts_read.c
           74   4450: ../../../../../third_party/exactle/ble-host/sources/stack/att/atts_sign.c
           75   4524: ../../../../../third_party/exactle/ble-host/sources/stack/att/atts_write.c
           76   4599: ../../../../../third_party/exactle/ble-host/sources/stack/att/att_main.c
           77   4672: ../../../../../third_party/exactle/ble-host/sources/stack/att/att_uuid.c
           78   4745: ../../../../../third_party/exactle/ble-profiles/sources/profiles/gap/gap_main.c
           79   4825: ../../../../../third_party/exactle/ble-host/sources/sec/common/sec_aes.c
           80   4898: ../../../../../third_party/exactle/ble-host/sources/sec/common/sec_aes_rev.c
           81   4975: ../../../../../third_party/exactle/ble-host/sources/sec/common/sec_ccm_hci.c
           82   5052: ../../../../../third_party/exactle/ble-host/sources/sec/common/sec_cmac_hci.c
           83   5130: ../../../../../third_party/exactle/ble-host/sources/sec/common/sec_ecc_debug.c
           84   5209: ../../../../../third_party/exactle/ble-host/sources/sec/common/sec_ecc_hci.c
           85   5286: ../../../../../third_party/exactle/ble-host/sources/sec/common/sec_main.c
           86   5360: ..\..\..\..\..\third_party\FreeRTOSv10.1.1\Source\portable\Keil\AMapollo2\port.c
           87   5441: .emb_text
           88   5451: $v0
           89   5455: ../../../../../third_party/FreeRTOSv10.1.1/Source/portable/Keil/AMapollo2/port.c
           90   5536: i.SysTick_Handler
           91   5554: i.__NVIC_EnableIRQ
           92   5573: __NVIC_EnableIRQ
           93   5590: i.__NVIC_SetPriority
           94   5611: __NVIC_SetPriority
           95   5630: i.am_stimer_cmpr0_isr
           96   5652: i.am_stimer_cmpr1_isr
           97   5674: i.prvTaskExitError
           98   5693: prvTaskExitError
           99   5710: i.pxPortInitialiseStack
          100   5734: i.vPortEnterCritical
          101   5755: i.vPortExitCritical
          102   5775: i.vPortSetupTimerInterrupt
          103   5802: i.vPortSuppressTicksAndSleep
          104   5831: i.vPortValidateInterruptPriority
          105   5864: i.xPortStartScheduler
          106   5886: i.xPortStimerTickHandler
          107   5911: g_lastSTimerVal
          108   5927: uxCriticalNesting
          109   5945: ucMaxSysCallPriority
          110   5966: ulMaxPRIGROUPValue
          111   5985: xMaximumPossibleSuppressedTicks
          112   6017: ../../../../../third_party/exactle/ble-profiles/sources/profiles/hid/hid_main.c
          113   6097: ../../../../../third_party/exactle/ble-profiles/sources/profiles/fmpl/fmpl_main.c
          114   6179: ../../../../../third_party/exactle/ble-host/sources/stack/l2c/l2c_coc.c
          115   6251: ../../../../../third_party/exactle/ble-host/sources/stack/l2c/l2c_main.c
          116   6324: ../../../../../third_party/exactle/ble-host/sources/stack/l2c/l2c_master.c
          117   6399: ../../../../../third_party/exactle/ble-host/sources/stack/l2c/l2c_slave.c
          118   6473: ../../../../../third_party/exactle/ble-profiles/sources/profiles/gatt/gatt_main.c
          119   6555: ../../../../../third_party/exactle/wsf/sources/util/bda.c
          120   6613: ../../../../../third_party/exactle/wsf/sources/util/bstream.c
          121   6675: ../../../../../third_party/exactle/wsf/sources/util/calc128.c
          122   6737: ../../../../../third_party/exactle/wsf/sources/util/crc32.c
          123   6797: ../../../../../third_party/exactle/wsf/sources/util/print.c
          124   6857: ../../../../../third_party/exactle/wsf/sources/util/terminal.c
          125   6920: ../../../../../third_party/exactle/wsf/sources/util/wstr.c
          126   6979: ../../../../../third_party/exactle/ble-profiles/sources/apps/app/common/app_db.c
          127   7060: ../../../../../third_party/exactle/ble-profiles/sources/apps/app/common/app_hw.c
          128   7141: ../../../../../third_party/exactle/ble-profiles/sources/apps/app/common/app_ui.c
          129   7222: i.AppUiBtnTest
          130   7237: ../../../../../third_party/exactle/ble-profiles/sources/apps/app/common/ui_console.c
          131   7322: ../../../../../third_party/exactle/ble-profiles/sources/apps/app/common/ui_lcd.c
          132   7403: ../../../../../third_party/exactle/ble-profiles/sources/apps/app/common/ui_main.c
          133   7485: ../../../../../third_party/exactle/ble-profiles/sources/apps/app/common/ui_platform.c
          134   7571: ../../../../../third_party/exactle/ble-profiles/sources/apps/app/common/ui_timer.c
          135   7654: ../../../../../third_party/uecc/uECC.c
          136   7693: ../../../../../third_party/uecc/uECC_ll.c
          137   7735: ../../../../../third_party/exactle/ble-profiles/sources/profiles/bas/bas_main.c
          138   7815: ..\..\..\..\..\third_party\exactle\ble-host\sources\hci\ambiq\apollo3\hci_drv_apollo3.c
          139   7903: ../../../../../third_party/exactle/ble-host/sources/hci/ambiq/apollo3/hci_drv_apollo3.c
          140   7991: i.HciDrvIntService
          141   8010: i.HciDrvRadioBoot
          142   8028: i.HciDrvRadioShutdown
          143   8050: i.HciVsA3_CarrierWaveMode
          144   8076: i.HciVsA3_ConstantTransmission
          145   8107: i.HciVsA3_SetRfPowerLevelEx
          146   8135: i.error_check
          147   8149: error_check
          148   8161: .constdata
          149   8172: .conststring
          150   8185: g_ui32FailingStatus
          151   8205: ../../../../../third_party/exactle/ble-host/sources/stack/smp/smpi_act.c
          152   8278: ../../../../../third_party/exactle/ble-host/sources/stack/smp/smpi_sc_act.c
          153   8354: ../../../../../third_party/exactle/ble-host/sources/stack/smp/smpi_sc_sm.c
          154   8429: ../../../../../third_party/exactle/ble-host/sources/stack/smp/smpi_sm.c
          155   8501: ../../../../../third_party/exactle/ble-host/sources/stack/smp/smpr_act.c
          156   8574: ../../../../../third_party/exactle/ble-host/sources/stack/smp/smpr_sc_act.c
          157   8650: ../../../../../third_party/exactle/ble-host/sources/stack/smp/smpr_sc_sm.c
          158   8725: ../../../../../third_party/exactle/ble-host/sources/stack/smp/smpr_sm.c
          159   8797: ../../../../../third_party/exactle/ble-host/sources/stack/smp/smp_act.c
          160   8869: ../../../../../third_party/exactle/ble-host/sources/stack/smp/smp_db.c
          161   8940: ../../../../../third_party/exactle/ble-host/sources/stack/smp/smp_main.c
          162   9013: ../../../../../third_party/exactle/ble-host/sources/stack/smp/smp_non.c
          163   9085: ../../../../../third_party/exactle/ble-host/sources/stack/smp/smp_sc_act.c
          164   9160: ../../../../../third_party/exactle/ble-host/sources/stack/smp/smp_sc_main.c
          165   9236: ..\src\ble_freertos_fcc_test.c
          166   9267: ../src/ble_freertos_fcc_test.c
          167   9298: i.am_ble_isr
          168   9311: i.am_freertos_sleep
          169   9331: i.am_freertos_wakeup
          170   9352: i.button_timer_handler
          171   9375: i.enable_print_interface
          172   9400: i.main
          173   9407: i.setup_buttons
          174   9423: i.vApplicationMallocFailedHook
          175   9454: i.vApplicationStackOverflowHook
          176   9486: ..\..\..\..\..\third_party\exactle\ble-host\sources\hci\ambiq\hci_cmd.c
          177   9558: ../../../../../third_party/exactle/ble-host/sources/hci/ambiq/hci_cmd.c
          178   9630: ../../../../../third_party/exactle/ble-host/sources/hci/ambiq/hci_cmd_ae.c
          179   9705: ../../../../../third_party/exactle/ble-host/sources/hci/ambiq/hci_cmd_cte.c
          180   9781: ../../../../../third_party/exactle/ble-host/sources/hci/ambiq/hci_cmd_past.c
          181   9858: ../../../../../third_party/exactle/ble-host/sources/hci/ambiq/hci_cmd_phy.c
          182   9934: ..\..\..\..\..\third_party\exactle\ble-host\sources\hci\ambiq\hci_core.c
          183  10007: ../../../../../third_party/exactle/ble-host/sources/hci/ambiq/hci_core.c
          184  10080: ../../../../../third_party/exactle/ble-host/sources/hci/ambiq/hci_core_ps.c
          185  10156: ../../../../../third_party/exactle/ble-host/sources/hci/ambiq/hci_evt.c
          186  10228: ..\..\..\..\..\third_party\exactle\ble-host\sources\hci\ambiq\hci_tr.c
          187  10299: ../../../../../third_party/exactle/ble-host/sources/hci/ambiq/hci_tr.c
          188  10370: ..\..\..\..\..\third_party\exactle\ble-host\sources\hci\ambiq\hci_vs.c
          189  10441: ../../../../../third_party/exactle/ble-host/sources/hci/ambiq/hci_vs.c
          190  10512: ../../../../../third_party/exactle/ble-host/sources/hci/ambiq/hci_vs_ae.c
          191  10586: ../../../../../third_party/exactle/ble-profiles/sources/apps/hidapp/hidapp_main.c
          192  10668: ../../../../../third_party/exactle/ble-profiles/sources/services/svc_batt.c
          193  10744: ../../../../../third_party/exactle/ble-profiles/sources/services/svc_bps.c
          194  10819: ../../../../../third_party/exactle/ble-profiles/sources/services/svc_core.c
          195  10895: ../../../../../third_party/exactle/ble-profiles/sources/services/svc_cps.c
          196  10970: ../../../../../third_party/exactle/ble-profiles/sources/services/svc_cscs.c
          197  11046: ../../../../../third_party/exactle/ble-profiles/sources/services/svc_dis.c
          198  11121: ../../../../../third_party/exactle/ble-profiles/sources/services/svc_gls.c
          199  11196: ../../../../../third_party/exactle/ble-profiles/sources/services/svc_gyro.c
          200  11272: ../../../../../third_party/exactle/ble-profiles/sources/services/svc_hid.c
          201  11347: ../../../../../third_party/exactle/ble-profiles/sources/services/svc_hrs.c
          202  11422: ../../../../../third_party/exactle/ble-profiles/sources/services/svc_hts.c
          203  11497: ../../../../../third_party/exactle/ble-profiles/sources/services/svc_ipss.c
          204  11573: ../../../../../third_party/exactle/ble-profiles/sources/services/svc_plxs.c
          205  11649: ../../../../../third_party/exactle/ble-profiles/sources/services/svc_px.c
          206  11723: ../../../../../third_party/exactle/ble-profiles/sources/services/svc_rscs.c
          207  11799: ../../../../../third_party/exactle/ble-profiles/sources/services/svc_scpss.c
          208  11876: ../../../../../third_party/exactle/ble-profiles/sources/services/svc_temp.c
          209  11952: ../../../../../third_party/exactle/ble-profiles/sources/services/svc_uricfg.c
          210  12030: ../../../../../third_party/exactle/ble-profiles/sources/services/svc_wdxs.c
          211  12106: ../../../../../third_party/exactle/ble-profiles/sources/services/svc_wp.c
          212  12180: ../../../../../third_party/exactle/ble-profiles/sources/services/svc_wss.c
          213  12255: ..\..\..\..\..\utils\am_util_ble.c
          214  12290: ../../../../../utils/am_util_ble.c
          215  12325: i.am_util_ble_set_carrier_wave_ex
          216  12359: i.am_util_ble_set_constant_transmission
          217  12399: i.am_util_ble_set_constant_transmission_ex
          218  12442: i.am_util_ble_transmitter_control
          219  12476: i.am_util_ble_transmitter_control_ex
          220  12513: ..\..\..\..\..\utils\am_util_delay.c
          221  12550: ../../../../../utils/am_util_delay.c
          222  12587: i.am_util_delay_ms
          223  12606: ..\..\..\..\..\utils\am_util_faultisr.c
          224  12646: ../../../../../utils/am_util_faultisr.c
          225  12686: i.am_util_faultisr_collect_data
          226  12718: ../../../../../utils/am_util_stdio.c
          227  12755: i.am_util_stdio_printf
          228  12778: i.am_util_stdio_printf_init
          229  12806: i.am_util_stdio_vsprintf
          230  12831: i.decstr_to_int
          231  12847: decstr_to_int
          232  12861: i.divu64_10
          233  12873: divu64_10
          234  12883: i.ftoa
          235  12890: ftoa
          236  12895: i.ndigits_in_hex
          237  12912: ndigits_in_hex
          238  12927: i.ndigits_in_i64
          239  12944: ndigits_in_i64
          240  12959: i.ndigits_in_u64
          241  12976: ndigits_in_u64
          242  12991: i.padbuffer
          243  13003: padbuffer
          244  13013: i.simple_strlen
          245  13029: simple_strlen
          246  13043: i.uint64_to_hexstr
          247  13062: uint64_to_hexstr
          248  13079: i.uint64_to_str
          249  13095: uint64_to_str
          250  13109: g_prfbuf
          251  13118: g_bTxtXlate
          252  13130: ../../../../../third_party/FreeRTOSv10.1.1/Source/portable/MemMang/heap_2.c
          253  13206: i.prvHeapInit
          254  13220: prvHeapInit
          255  13232: i.pvPortMalloc
          256  13247: i.vPortFree
          257  13259: ucHeap
          258  13266: xStart
          259  13273: xEnd
          260  13278: xFreeBytesRemaining
          261  13298: xHeapHasBeenInitialised
          262  13322: ../../../../../third_party/exactle/ble-profiles/sources/apps/app/app_disc.c
          263  13398: ../../../../../third_party/exactle/ble-profiles/sources/apps/app/app_main.c
          264  13474: ../../../../../third_party/exactle/ble-profiles/sources/apps/app/app_master.c
          265  13552: ../../../../../third_party/exactle/ble-profiles/sources/apps/app/app_master_leg.c
          266  13634: ../../../../../third_party/exactle/ble-profiles/sources/apps/app/app_server.c
          267  13712: ../../../../../third_party/exactle/ble-profiles/sources/apps/app/app_slave.c
          268  13789: ../../../../../third_party/exactle/ble-profiles/sources/apps/app/app_slave_leg.c
          269  13870: ../../../../../third_party/exactle/ble-profiles/sources/apps/app/app_terminal.c
          270  13950: ../../../../../third_party/FreeRTOSv10.1.1/Source/event_groups.c
          271  14015: i.vEventGroupSetBitsCallback
          272  14044: i.xEventGroupSetBits
          273  14065: ../../../../../third_party/FreeRTOSv10.1.1/Source/list.c
          274  14122: i.uxListRemove
          275  14137: i.vListInitialise
          276  14155: i.vListInitialiseItem
          277  14177: i.vListInsert
          278  14191: i.vListInsertEnd
          279  14208: ../../../../../third_party/FreeRTOSv10.1.1/Source/queue.c
          280  14266: i.prvCopyDataFromQueue
          281  14289: prvCopyDataFromQueue
          282  14310: i.prvCopyDataToQueue
          283  14331: prvCopyDataToQueue
          284  14350: i.prvInitialiseNewQueue
          285  14374: prvInitialiseNewQueue
          286  14396: i.prvIsQueueEmpty
          287  14414: prvIsQueueEmpty
          288  14430: i.prvIsQueueFull
          289  14447: prvIsQueueFull
          290  14462: i.prvUnlockQueue
          291  14479: prvUnlockQueue
          292  14494: i.vQueueWaitForMessageRestricted
          293  14527: i.xQueueGenericCreate
          294  14549: i.xQueueGenericReset
          295  14570: i.xQueueGenericSend
          296  14590: i.xQueueGenericSendFromISR
          297  14617: i.xQueueReceive
          298  14633: ../../../../../third_party/FreeRTOSv10.1.1/Source/tasks.c
          299  14691: i.eTaskConfirmSleepModeStatus
          300  14721: i.prvAddCurrentTaskToDelayedList
          301  14754: prvAddCurrentTaskToDelayedList
          302  14785: i.prvAddNewTaskToReadyList
          303  14812: prvAddNewTaskToReadyList
          304  14837: i.prvCheckTasksWaitingTermination
          305  14871: prvCheckTasksWaitingTermination
          306  14903: i.prvGetExpectedIdleTime
          307  14928: prvGetExpectedIdleTime
          308  14951: i.prvIdleTask
          309  14965: prvIdleTask
          310  14977: i.prvInitialiseNewTask
          311  15000: prvInitialiseNewTask
          312  15021: i.prvInitialiseTaskLists
          313  15046: prvInitialiseTaskLists
          314  15069: i.prvResetNextTaskUnblockTime
          315  15099: prvResetNextTaskUnblockTime
          316  15127: i.vTaskInternalSetTimeOutState
          317  15158: i.vTaskMissedYield
          318  15177: i.vTaskPlaceOnEventList
          319  15201: i.vTaskPlaceOnEventListRestricted
          320  15235: i.vTaskRemoveFromUnorderedEventList
          321  15271: i.vTaskStartScheduler
          322  15293: i.vTaskStepTick
          323  15309: i.vTaskSuspendAll
          324  15327: i.vTaskSwitchContext
          325  15348: i.xTaskCheckForTimeOut
          326  15371: i.xTaskCreate
          327  15385: i.xTaskGetSchedulerState
          328  15410: i.xTaskGetTickCount
          329  15430: i.xTaskIncrementTick
          330  15451: i.xTaskRemoveFromEventList
          331  15478: i.xTaskResumeAll
          332  15495: pxReadyTasksLists
          333  15513: xDelayedTaskList1
          334  15531: xDelayedTaskList2
          335  15549: xPendingReadyList
          336  15567: xSuspendedTaskList
          337  15586: pxDelayedTaskList
          338  15604: pxOverflowDelayedTaskList
          339  15630: uxCurrentNumberOfTasks
          340  15653: xTickCount
          341  15664: uxTopReadyPriority
          342  15683: xSchedulerRunning
          343  15701: uxPendedTicks
          344  15715: xYieldPending
          345  15729: xNumOfOverflows
          346  15745: uxTaskNumber
          347  15758: xNextTaskUnblockTime
          348  15779: xIdleTaskHandle
          349  15795: uxSchedulerSuspended
          350  15816: ../../../../../third_party/FreeRTOSv10.1.1/Source/timers.c
          351  15875: i.prvCheckForValidListAndQueue
          352  15906: prvCheckForValidListAndQueue
          353  15935: i.prvGetNextExpireTime
          354  15958: prvGetNextExpireTime
          355  15979: i.prvInitialiseNewTimer
          356  16003: prvInitialiseNewTimer
          357  16025: i.prvInsertTimerInActiveList
          358  16054: prvInsertTimerInActiveList
          359  16081: i.prvProcessExpiredTimer
          360  16106: prvProcessExpiredTimer
          361  16129: i.prvProcessReceivedCommands
          362  16158: prvProcessReceivedCommands
          363  16185: i.prvProcessTimerOrBlockTask
          364  16214: prvProcessTimerOrBlockTask
          365  16241: i.prvSampleTimeNow
          366  16260: prvSampleTimeNow
          367  16277: i.prvSwitchTimerLists
          368  16299: prvSwitchTimerLists
          369  16319: i.prvTimerTask
          370  16334: prvTimerTask
          371  16347: i.xTimerCreate
          372  16362: i.xTimerCreateTimerTask
          373  16386: i.xTimerGenericCommand
          374  16409: i.xTimerPendFunctionCallFromISR
          375  16441: xActiveTimerList1
          376  16459: xActiveTimerList2
          377  16477: pxCurrentTimerList
          378  16496: pxOverflowTimerList
          379  16516: xTimerQueue
          380  16528: xTimerTaskHandle
          381  16545: xLastTime
          382  16555: ..\..\..\..\..\devices\am_devices_button.c
          383  16598: ../../../../../devices/am_devices_button.c
          384  16641: i.am_devices_button_array_init
          385  16672: i.am_devices_button_array_tick
          386  16703: i.am_devices_button_init
          387  16728: i.am_devices_button_tick
          388  16753: ../keil/startup_keil.s
          389  16776: STACK
          390  16782: StackMem
          391  16791: HEAP
          392  16796: HeapMem
          393  16804: RESET
          394  16810: .text
          395  16816: ..\am_hal_global.c
          396  16835: ../am_hal_global.c
          397  16854: ..\am_bsp.c
          398  16866: ../am_bsp.c
          399  16878: i.am_bsp_itm_printf_enable
          400  16905: i.am_bsp_low_power_init
          401  16929: pui8UartTxBuffer
          402  16946: pui8UartRxBuffer
          403  16963: g_ui32PrintInterface
          404  16984: g_sCOMUART
          405  16995: g_sBspUartBufferedConfig
          406  17020: ..\am_hal_ble.c
          407  17036: ../am_hal_ble.c
          408  17052: i.am_hal_ble_blocking_hci_read
          409  17083: i.am_hal_ble_blocking_hci_write
          410  17115: i.am_hal_ble_blocking_transfer
          411  17146: i.am_hal_ble_boot
          412  17164: i.am_hal_ble_cmd_write
          413  17187: am_hal_ble_cmd_write
          414  17208: i.am_hal_ble_config
          415  17228: i.am_hal_ble_deinitialize
          416  17254: i.am_hal_ble_initialize
          417  17278: i.am_hal_ble_int_clear
          418  17301: i.am_hal_ble_int_enable
          419  17325: i.am_hal_ble_int_status
          420  17349: i.am_hal_ble_patch_apply
          421  17374: i.am_hal_ble_patch_complete
          422  17402: i.am_hal_ble_plf_reg_read
          423  17428: i.am_hal_ble_plf_reg_write
          424  17455: i.am_hal_ble_power_control
          425  17482: i.am_hal_ble_sleep_set
          426  17505: i.am_hal_ble_tx_power_set
          427  17531: i.am_hal_ble_wakeup_set
          428  17555: ccitt_table
          429  17567: ..\am_hal_cachectrl.c
          430  17589: ../am_hal_cachectrl.c
          431  17611: i.am_hal_cachectrl_config
          432  17637: i.am_hal_cachectrl_control
          433  17664: i.am_hal_cachectrl_enable
          434  17690: ..\am_hal_clkgen.c
          435  17709: ../am_hal_clkgen.c
          436  17728: i.am_hal_clkgen_control
          437  17752: i.am_hal_clkgen_status_get
          438  17779: ..\am_hal_flash.c
          439  17797: ../am_hal_flash.c
          440  17815: i.am_hal_flash_delay
          441  17836: i.am_hal_flash_delay_status_check
          442  17870: i.am_hal_flash_load_ui32
          443  17895: i.am_hal_flash_store_ui32
          444  17921: ..\am_hal_gpio.c
          445  17938: ../am_hal_gpio.c
          446  17955: i.am_hal_gpio_pinconfig
          447  17979: i.am_hal_gpio_state_read
          448  18004: i.am_hal_gpio_state_write
          449  18030: g_ui8Inpen
          450  18041: g_ui8Bit76Capabilities
          451  18064: g_ui8nCEpins
          452  18077: g_ui8NCEtable
          453  18091: ..\am_hal_interrupt.c
          454  18113: ../am_hal_interrupt.c
          455  18135: ..\am_hal_mcuctrl.c
          456  18155: ../am_hal_mcuctrl.c
          457  18175: i.am_hal_mcuctrl_info_get
          458  18201: ..\am_hal_pwrctrl.c
          459  18221: ../am_hal_pwrctrl.c
          460  18241: i.am_hal_pwrctrl_blebuck_trim
          461  18271: i.am_hal_pwrctrl_low_power_init
          462  18303: i.am_hal_pwrctrl_memory_enable
          463  18334: i.am_hal_pwrctrl_periph_disable
          464  18366: i.am_hal_pwrctrl_periph_enable
          465  18397: ..\am_hal_queue.c
          466  18415: ../am_hal_queue.c
          467  18433: i.am_hal_queue_init
          468  18453: ..\am_hal_stimer.c
          469  18472: ../am_hal_stimer.c
          470  18491: i.am_hal_stimer_compare_delta_set
          471  18525: i.am_hal_stimer_config
          472  18548: i.am_hal_stimer_counter_get
          473  18576: i.am_hal_stimer_int_clear
          474  18602: i.am_hal_stimer_int_enable
          475  18629: i.am_hal_stimer_int_status_get
          476  18660: ..\am_hal_sysctrl.c
          477  18680: ../am_hal_sysctrl.c
          478  18700: i.am_hal_sysctrl_fpu_enable
          479  18728: i.am_hal_sysctrl_fpu_stacking_enable
          480  18765: i.am_hal_sysctrl_sleep
          481  18788: g_ui32BusWriteFlush
          482  18808: ..\am_bsp_pins.c
          483  18825: ../am_bsp_pins.c
          484  18842: ..\am_hal_ble_patch_b0.c
          485  18867: ../am_hal_ble_patch_b0.c
          486  18892: ..\am_hal_burst.c
          487  18910: ../am_hal_burst.c
          488  18928: i.am_hal_burst_mode_disable
          489  18956: i.am_hal_burst_mode_enable
          490  18983: ..\am_hal_itm.c
          491  18999: ../am_hal_itm.c
          492  19015: i.am_hal_itm_enable
          493  19035: i.am_hal_itm_print
          494  19054: ..\am_hal_reset.c
          495  19072: ../am_hal_reset.c
          496  19090: ..\am_hal_rtc.c
          497  19106: ../am_hal_rtc.c
          498  19122: i.am_hal_rtc_osc_disable
          499  19147: ..\am_hal_tpiu.c
          500  19164: ../am_hal_tpiu.c
          501  19181: i.am_hal_tpiu_enable
          502  19202: ..\am_hal_uart.c
          503  19219: ../am_hal_uart.c
          504  19236: dc.s
          505  19241: ../clib/longlong.s
          506  19260: ../clib/scanf.c
          507  19276: ../clib/string.c
          508  19293: ../clib/memcpset.s
          509  19312: ../clib/heapaux.c
          510  19330: ../clib/angel/startup.s
          511  19354: !!!main
          512  19362: ../fplib/d2f.s
          513  19377: x$fpl$d2f
          514  19387: ../clib/angel/kernel.s
          515  19410: .ARM.Collect$$rtentry$$00000000
          516  19442: ../clib/angel/rt.s
          517  19461: ../fplib/dnaninf.s
          518  19480: x$fpl$dnaninf
          519  19494: ../fplib/fretinf.s
          520  19513: x$fpl$fretinf
          521  19527: ../fplib/usenofp.s
          522  19546: x$fpl$usenofp
          523  19560: ../clib/angel/sys.s
          524  19580: .ARM.Collect$$rtentry$$00000002
          525  19612: .ARM.Collect$$rtentry$$00000009
          526  19644: .ARM.Collect$$rtentry$$0000000A
          527  19676: .ARM.Collect$$rtentry$$0000000C
          528  19708: .ARM.Collect$$rtentry$$0000000D
          529  19740: .ARM.Collect$$rtentry$$00000004
          530  19772: ../clib/locale.s
          531  19789: ../clib/stdlib.c
          532  19806: ../clib/angel/boardlib.s
          533  19831: ../clib/libinit.s
          534  19849: .ARM.Collect$$libinit$$00000000
          535  19881: .ARM.Collect$$rtexit$$00000000
          536  19912: .ARM.Collect$$libinit$$00000001
          537  19944: .ARM.Collect$$libinit$$00000004
          538  19976: .ARM.Collect$$libinit$$0000000A
          539  20008: .ARM.Collect$$libinit$$0000000C
          540  20040: .ARM.Collect$$libinit$$0000000E
          541  20072: .ARM.Collect$$libinit$$00000011
          542  20104: .ARM.Collect$$libinit$$00000013
          543  20136: .ARM.Collect$$libinit$$00000015
          544  20168: .ARM.Collect$$libinit$$00000017
          545  20200: .ARM.Collect$$libinit$$00000019
          546  20232: .ARM.Collect$$libinit$$0000001B
          547  20264: .ARM.Collect$$libinit$$0000001D
          548  20296: .ARM.Collect$$libinit$$0000001F
          549  20328: .ARM.Collect$$libinit$$00000021
          550  20360: .ARM.Collect$$libinit$$00000023
          551  20392: .ARM.Collect$$libinit$$00000025
          552  20424: .ARM.Collect$$libinit$$0000002C
          553  20456: .ARM.Collect$$libinit$$0000002E
          554  20488: .ARM.Collect$$libinit$$00000030
          555  20520: .ARM.Collect$$libinit$$00000032
          556  20552: .ARM.Collect$$libinit$$00000033
          557  20584: .ARM.Collect$$rtexit$$00000002
          558  20615: .ARM.Collect$$rtexit$$00000003
          559  20646: .ARM.Collect$$rtexit$$00000004
          560  20677: ../clib/armsys.c
          561  20694: ../fplib/fpinit.s
          562  20712: x$fpl$fpinit
          563  20725: ../clib/angel/sysapp.c
          564  20748: .ARM.Collect$$libshutdown$$00000000
          565  20784: ../clib/heapalloc.c
          566  20804: ../clib/signal.c
          567  20821: .ARM.Collect$$libshutdown$$00000002
          568  20857: .ARM.Collect$$libshutdown$$00000004
          569  20893: .ARM.Collect$$libshutdown$$00000007
          570  20929: .ARM.Collect$$libshutdown$$0000000A
          571  20965: .ARM.Collect$$libshutdown$$0000000C
          572  21001: .ARM.Collect$$libshutdown$$0000000F
          573  21037: .ARM.Collect$$libshutdown$$00000010
          574  21073: ../clib/signal.s
          575  21090: ../clib/angel/dczerorl2.s
          576  21116: !!dczerorl2
          577  21128: ../clib/angel/scatter.s
          578  21152: !!!scatter
          579  21163: ../clib/angel/handlers.s
          580  21188: !!handler_zi
          581  21201: BuildAttributes$$THM_ISAv4$E$P$D$K$B$S$7EM$VFPi3$EXTD16$VFPS$VFMA$PE$A:L22UL41UL21$X:L11$S22US41US21$IEEE1$IW$USESV6$~STKCKD$USESV7$~SHL$OTIME$ROPI$EBA8$UX$STANDARDLIB$REQ8$PRES8$EABIv2
          582  21387: __ARM_use_no_argv
          583  21405: __Vectors
          584  21415: __Patchable
          585  21427: Reset_Handler
          586  21441: NMI_Handler
          587  21453: MemManage_Handler
          588  21471: BusFault_Handler
          589  21488: UsageFault_Handler
          590  21507: SecureFault_Handler
          591  21527: DebugMon_Handler
          592  21544: am_adc_isr
          593  21555: am_brownout_isr
          594  21571: am_clkgen_isr
          595  21585: am_ctimer_isr
          596  21599: am_gpio_isr
          597  21611: am_iomaster0_isr
          598  21628: am_iomaster1_isr
          599  21645: am_iomaster2_isr
          600  21662: am_iomaster3_isr
          601  21679: am_iomaster4_isr
          602  21696: am_iomaster5_isr
          603  21713: am_ioslave_acc_isr
          604  21732: am_ioslave_ios_isr
          605  21751: am_mspi0_isr
          606  21764: am_mspi1_isr
          607  21777: am_mspi2_isr
          608  21790: am_pdm0_isr
          609  21802: am_rtc_isr
          610  21813: am_scard_isr
          611  21826: am_software0_isr
          612  21843: am_stimer_cmpr2_isr
          613  21863: am_stimer_cmpr3_isr
          614  21883: am_stimer_cmpr4_isr
          615  21903: am_stimer_cmpr5_isr
          616  21923: am_stimer_cmpr6_isr
          617  21943: am_stimer_cmpr7_isr
          618  21963: am_stimer_isr
          619  21977: am_uart0_isr
          620  21990: am_uart1_isr
          621  22003: am_uart_isr
          622  22015: am_vcomp_isr
          623  22028: am_watchdog_isr
          624  22044: __main
          625  22051: __scatterload
          626  22065: __scatterload_rt2
          627  22083: __scatterload_rt2_thumb_only
          628  22112: __scatterload_null
          629  22131: __decompress
          630  22144: __decompress1
          631  22158: __scatterload_zeroinit
          632  22181: __rt_lib_init
          633  22195: __rt_lib_init_fp_1
          634  22214: __rt_lib_init_alloca_1
          635  22237: __rt_lib_init_argv_1
          636  22258: __rt_lib_init_atexit_1
          637  22281: __rt_lib_init_clock_1
          638  22303: __rt_lib_init_cpp_1
          639  22323: __rt_lib_init_exceptions_1
          640  22350: __rt_lib_init_fp_trap_1
          641  22374: __rt_lib_init_getenv_1
          642  22397: __rt_lib_init_heap_1
          643  22418: __rt_lib_init_lc_collate_1
          644  22445: __rt_lib_init_lc_ctype_1
          645  22470: __rt_lib_init_lc_monetary_1
          646  22498: __rt_lib_init_lc_numeric_1
          647  22525: __rt_lib_init_lc_time_1
          648  22549: __rt_lib_init_preinit_1
          649  22573: __rt_lib_init_rand_1
          650  22594: __rt_lib_init_return
          651  22615: __rt_lib_init_signal_1
          652  22638: __rt_lib_init_stdio_1
          653  22660: __rt_lib_init_user_alloc_1
          654  22687: __rt_lib_shutdown
          655  22705: __rt_lib_shutdown_cpp_1
          656  22729: __rt_lib_shutdown_fp_trap_1
          657  22757: __rt_lib_shutdown_heap_1
          658  22782: __rt_lib_shutdown_return
          659  22807: __rt_lib_shutdown_signal_1
          660  22834: __rt_lib_shutdown_stdio_1
          661  22860: __rt_lib_shutdown_user_alloc_1
          662  22891: __rt_entry
          663  22902: __rt_entry_presh_1
          664  22921: __rt_entry_sh
          665  22935: __rt_entry_li
          666  22949: __rt_entry_postsh_1
          667  22969: __rt_entry_main
          668  22985: __rt_entry_postli_1
          669  23005: __rt_exit
          670  23015: __rt_exit_ls
          671  23028: __rt_exit_prels_1
          672  23046: __rt_exit_exit
          673  23061: SVC_Handler
          674  23073: __asm___6_port_c_39a90d8d__prvStartFirstTask
          675  23118: __asm___6_port_c_39a90d8d__prvEnableVFP
          676  23158: PendSV_Handler
          677  23173: vPortGetIPSR
          678  23186: HardFault_Handler
          679  23204: getStackedReg
          680  23218: am_hal_interrupt_master_enable
          681  23249: am_hal_interrupt_master_disable
          682  23281: am_hal_interrupt_master_set
          683  23309: __user_initial_stackheap
          684  23334: __aeabi_memcpy
          685  23349: __rt_memcpy
          686  23361: _memcpy_lastbytes
          687  23379: __aeabi_memcpy4
          688  23395: __aeabi_memcpy8
          689  23411: __rt_memcpy_w
          690  23425: _memcpy_lastbytes_aligned
          691  23451: __aeabi_memset
          692  23466: __aeabi_memclr
          693  23481: __rt_memclr
          694  23493: _memset
          695  23501: __aeabi_memclr4
          696  23517: __aeabi_memclr8
          697  23533: __rt_memclr_w
          698  23547: _memset_w
          699  23557: __use_two_region_memory
          700  23581: __rt_heap_escrow$2region
          701  23606: __rt_heap_expand$2region
          702  23631: __user_libspace
          703  23647: __user_perproc_libspace
          704  23671: __user_perthread_libspace
          705  23697: __user_setup_stackheap
          706  23720: exit
          707  23725: _sys_exit
          708  23735: __I$use$semihosting
          709  23755: __use_no_semihosting_swi
          710  23780: __semihosting_library_function
          711  23811: AppUiBtnTest
          712  23824: HciDrvIntService
          713  23841: HciDrvRadioBoot
          714  23857: HciDrvRadioShutdown
          715  23877: HciVsA3_CarrierWaveMode
          716  23901: HciVsA3_ConstantTransmission
          717  23930: HciVsA3_SetRfPowerLevelEx
          718  23956: SysTick_Handler
          719  23972: WsfCsEnter
          720  23983: WsfCsExit
          721  23993: WsfQueueRemove
          722  24008: WsfSetEvent
          723  24020: WsfSetOsSpecificEvent
          724  24042: WsfTaskLock
          725  24054: WsfTaskUnlock
          726  24068: WsfTimerStop
          727  24081: am_ble_isr
          728  24092: am_bsp_itm_printf_enable
          729  24117: am_bsp_low_power_init
          730  24139: am_devices_button_array_init
          731  24168: am_devices_button_array_tick
          732  24197: am_devices_button_init
          733  24220: am_devices_button_tick
          734  24243: am_freertos_sleep
          735  24261: am_freertos_wakeup
          736  24280: am_hal_ble_blocking_hci_read
          737  24309: am_hal_ble_blocking_hci_write
          738  24339: am_hal_ble_blocking_transfer
          739  24368: am_hal_ble_boot
          740  24384: am_hal_ble_config
          741  24402: am_hal_ble_deinitialize
          742  24426: am_hal_ble_initialize
          743  24448: am_hal_ble_int_clear
          744  24469: am_hal_ble_int_enable
          745  24491: am_hal_ble_int_status
          746  24513: am_hal_ble_patch_apply
          747  24536: am_hal_ble_patch_complete
          748  24562: am_hal_ble_plf_reg_read
          749  24586: am_hal_ble_plf_reg_write
          750  24611: am_hal_ble_power_control
          751  24636: am_hal_ble_sleep_set
          752  24657: am_hal_ble_tx_power_set
          753  24681: am_hal_ble_wakeup_set
          754  24703: am_hal_burst_mode_disable
          755  24729: am_hal_burst_mode_enable
          756  24754: am_hal_cachectrl_config
          757  24778: am_hal_cachectrl_control
          758  24803: am_hal_cachectrl_enable
          759  24827: am_hal_clkgen_control
          760  24849: am_hal_clkgen_status_get
          761  24874: am_hal_flash_delay
          762  24893: am_hal_flash_delay_status_check
          763  24925: am_hal_flash_load_ui32
          764  24948: am_hal_flash_store_ui32
          765  24972: am_hal_gpio_pinconfig
          766  24994: am_hal_gpio_state_read
          767  25017: am_hal_gpio_state_write
          768  25041: am_hal_itm_enable
          769  25059: am_hal_itm_print
          770  25076: am_hal_mcuctrl_info_get
          771  25100: am_hal_pwrctrl_blebuck_trim
          772  25128: am_hal_pwrctrl_low_power_init
          773  25158: am_hal_pwrctrl_memory_enable
          774  25187: am_hal_pwrctrl_periph_disable
          775  25217: am_hal_pwrctrl_periph_enable
          776  25246: am_hal_queue_init
          777  25264: am_hal_rtc_osc_disable
          778  25287: am_hal_stimer_compare_delta_set
          779  25319: am_hal_stimer_config
          780  25340: am_hal_stimer_counter_get
          781  25366: am_hal_stimer_int_clear
          782  25390: am_hal_stimer_int_enable
          783  25415: am_hal_stimer_int_status_get
          784  25444: am_hal_sysctrl_fpu_enable
          785  25470: am_hal_sysctrl_fpu_stacking_enable
          786  25505: am_hal_sysctrl_sleep
          787  25526: am_hal_tpiu_enable
          788  25545: am_stimer_cmpr0_isr
          789  25565: am_stimer_cmpr1_isr
          790  25585: am_util_ble_set_carrier_wave_ex
          791  25617: am_util_ble_set_constant_transmission
          792  25655: am_util_ble_set_constant_transmission_ex
          793  25696: am_util_ble_transmitter_control
          794  25728: am_util_ble_transmitter_control_ex
          795  25763: am_util_delay_ms
          796  25780: am_util_faultisr_collect_data
          797  25810: am_util_stdio_printf
          798  25831: am_util_stdio_printf_init
          799  25857: am_util_stdio_vsprintf
          800  25880: button_timer_handler
          801  25901: eTaskConfirmSleepModeStatus
          802  25929: enable_print_interface
          803  25952: main
          804  25957: pvPortMalloc
          805  25970: pxPortInitialiseStack
          806  25992: setup_buttons
          807  26006: uxListRemove
          808  26019: vApplicationMallocFailedHook
          809  26048: vApplicationStackOverflowHook
          810  26078: vEventGroupSetBitsCallback
          811  26105: vListInitialise
          812  26121: vListInitialiseItem
          813  26141: vListInsert
          814  26153: vListInsertEnd
          815  26168: vPortEnterCritical
          816  26187: vPortExitCritical
          817  26205: vPortFree
          818  26215: vPortSetupTimerInterrupt
          819  26240: vPortSuppressTicksAndSleep
          820  26267: vPortValidateInterruptPriority
          821  26298: vQueueWaitForMessageRestricted
          822  26329: vTaskInternalSetTimeOutState
          823  26358: vTaskMissedYield
          824  26375: vTaskPlaceOnEventList
          825  26397: vTaskPlaceOnEventListRestricted
          826  26429: vTaskRemoveFromUnorderedEventList
          827  26463: vTaskStartScheduler
          828  26483: vTaskStepTick
          829  26497: vTaskSuspendAll
          830  26513: vTaskSwitchContext
          831  26532: xEventGroupSetBits
          832  26551: xPortStartScheduler
          833  26571: xPortStimerTickHandler
          834  26594: xQueueGenericCreate
          835  26614: xQueueGenericReset
          836  26633: xQueueGenericSend
          837  26651: xQueueGenericSendFromISR
          838  26676: xQueueReceive
          839  26690: xTaskCheckForTimeOut
          840  26711: xTaskCreate
          841  26723: xTaskGetSchedulerState
          842  26746: xTaskGetTickCount
          843  26764: xTaskIncrementTick
          844  26783: xTaskRemoveFromEventList
          845  26808: xTaskResumeAll
          846  26823: xTimerCreate
          847  26836: xTimerCreateTimerTask
          848  26858: xTimerGenericCommand
          849  26879: xTimerPendFunctionCallFromISR
          850  26909: __aeabi_d2f
          851  26921: _d2f
          852  26926: __fpl_dnaninf
          853  26940: _fp_init
          854  26949: __fplib_config_fpu_vfp
          855  26972: __fplib_config_pureend_doubles
          856  27003: __fpl_fretinf
          857  27017: __I$use$fp
          858  27028: am_hal_cachectrl_defaults
          859  27054: g_AM_HAL_GPIO_DISABLE
          860  27076: g_AM_HAL_GPIO_INPUT
          861  27096: g_AM_HAL_GPIO_OUTPUT
          862  27117: g_am_hal_mcuctrl_flash_size
          863  27145: g_am_hal_mcuctrl_sram_size
          864  27172: am_hal_pwrctrl_peripheral_control
          865  27206: am_hal_pwrctrl_memory_control
          866  27236: g_AM_BSP_GPIO_ITM_SWO
          867  27258: am_hal_ble_num_default_patches_b0
          868  27292: am_ble_buffer_patch_data_b0
          869  27320: Region$$Table$$Base
          870  27340: Region$$Table$$Limit
          871  27361: csNesting
          872  27371: xRadioTaskEventObject
          873  27393: wsfTimerTimerQueue
          874  27412: xWsfTimer
          875  27422: ulTimerCountsForOneTick
          876  27446: gNumCmpB
          877  27455: BLE
          878  27459: g_BLEMacAddress
          879  27475: g_HciDrvHandleID
          880  27492: g_pui8ReadBuffer
          881  27509: bReadBufferInUse
          882  27526: g_ui32NumBytes
          883  27541: g_consumed_bytes
          884  27558: g_ui32InterruptsSeen
          885  27579: g_hciDrvErrorHandler
          886  27600: xButtonTimer
          887  27613: current_test_case
          888  27631: g_pfnCharPrint
          889  27646: pxCurrentTCB
          890  27659: g_ui32HALflags
          891  27674: am_bsp_psLEDs
          892  27688: am_bsp_psButtons
          893  27705: am_hal_ble_default_patch_array_b0
          894  27739: am_hal_ble_default_patches_b0
          895  27769: am_ble_performance_patch_data_b0
          896  27802: am_ble_performance_patch_b0
          897  27830: am_ble_buffer_patch_b0
          898  27853: am_ble_buffer_nvds_data_b0
          899  27880: am_ble_nvds_patch_b0
          900  27901: g_am_hal_burst_mode_available
          901  27931: gAmHalResetStatus
          902  27949: wsfOs
          903  27955: appUiCbackTbl
          904  27969: g_HeartBeatTimer
          905  27986: g_WakeTimer
          906  27998: g_psWriteBuffers
          907  28015: g_sWriteQueue
          908  28029: g_pui32ReadBuffer
          909  28047: g_sBLEState
          910  28059: g_psPatchBuffer
          911  28075: __libspace_start
          912  28092: __temporary_stack_top$libspace
          913  28123: 


** Section #14 '.note' (SHT_NOTE)
    Size   : 32 bytes (alignment 4)


** Section #15 '.comment' (SHT_PROGBITS)
    Size   : 508708 bytes


** Section #16 '.shstrtab' (SHT_STRTAB)
    Size   : 160 bytes

            #  Offset String
        ====================================

            1      1: ROMEM
            2      7: RWMEM
            3     13: TCM
            4     17: STACKMEM
            5     26: .debug_abbrev
            6     40: .debug_frame
            7     53: .debug_info
            8     65: .debug_line
            9     77: .debug_loc
           10     88: .debug_macinfo
           11    103: .debug_pubnames
           12    119: .symtab
           13    127: .strtab
           14    135: .note
           15    141: .comment
           16    150: .shstrtab


