
========================================================================

** ELF Header Information

    File Name: bin\spi_boot_host.axf

    Machine class: ELFCLASS32 (32-bit)
    Data encoding: ELFDATA2LSB (Little endian)
    Header version: EV_CURRENT (Current version)
    Operating System ABI: none
    ABI Version: 0
    File Type: ET_EXEC (Executable) (2)
    Machine: EM_ARM (ARM)

    Image Entry point: 0x00000099
    Flags: EF_ARM_HASENTRY + EF_ARM_ABI_FLOAT_HARD (0x05000402)

    ARM ELF revision: 5 (ABI version 2)

    Conforms to Hard float procedure-call standard

    Built with
    Component: ARM Compiler 5.06 update 6 (build 750) Tool: armasm [4d35ec]
    Component: ARM Compiler 5.06 update 6 (build 750) Tool: armlink [4d35ed]

    Header size: 52 bytes (0x34)
    Program header entry size: 32 bytes (0x20)
    Section header entry size: 40 bytes (0x28)

    Program header entries: 1
    Section header entries: 16

    Program header offset: 57660 (0x0000e13c)
    Section header offset: 57692 (0x0000e15c)

    Section header string table index: 15

========================================================================

** Program header #0 (PT_LOAD) [PF_X + PF_W + PF_R + PF_ARM_ENTRY]
    Size : 17736 bytes (12700 bytes in file)
    Virtual address: 0x00000000 (Alignment 8)


========================================================================

** Section #1 'FLASH' (SHT_PROGBITS) [SHF_ALLOC + SHF_EXECINSTR]
    Size   : 12656 bytes (alignment 4)
    Address: 0x00000000

    $d
    RESET
    __Vectors
        0x00000000:    100013d8    ....    DCD    268440536
        0x00000004:    00000071    q...    DCD    113
        0x00000008:    0000008d    ....    DCD    141
        0x0000000c:    0000008f    ....    DCD    143
        0x00000010:    0000008f    ....    DCD    143
        0x00000014:    0000008f    ....    DCD    143
        0x00000018:    0000008f    ....    DCD    143
        0x0000001c:    00000000    ....    DCD    0
        0x00000020:    00000000    ....    DCD    0
        0x00000024:    00000000    ....    DCD    0
        0x00000028:    00000000    ....    DCD    0
        0x0000002c:    00000093    ....    DCD    147
        0x00000030:    00000093    ....    DCD    147
        0x00000034:    00000000    ....    DCD    0
        0x00000038:    00000093    ....    DCD    147
        0x0000003c:    00000093    ....    DCD    147
        0x00000040:    00000093    ....    DCD    147
        0x00000044:    00000093    ....    DCD    147
        0x00000048:    00000093    ....    DCD    147
        0x0000004c:    00000093    ....    DCD    147
        0x00000050:    00000093    ....    DCD    147
        0x00000054:    00000093    ....    DCD    147
        0x00000058:    00000093    ....    DCD    147
        0x0000005c:    00000093    ....    DCD    147
        0x00000060:    00000093    ....    DCD    147
        0x00000064:    000002bb    ....    DCD    699
        0x00000068:    00000093    ....    DCD    147
        0x0000006c:    00000093    ....    DCD    147
    $t
    $v0
    Reset_Handler
        0x00000070:    f64e5088    N..P    MOV      r0,#0xed88
        0x00000074:    f2ce0000    ....    MOVT     r0,#0xe000
        0x00000078:    6801        .h      LDR      r1,[r0,#0]
        0x0000007a:    f4410170    A.p.    ORR      r1,r1,#0xf00000
        0x0000007e:    6001        .`      STR      r1,[r0,#0]
        0x00000080:    f3bf8f4f    ..O.    DSB      
        0x00000084:    f3bf8f6f    ..o.    ISB      
        0x00000088:    4802        .H      LDR      r0,[pc,#8] ; [0x94] = 0x99
        0x0000008a:    4700        .G      BX       r0
    am_nmi_isr
        0x0000008c:    e7fe        ..      B        am_nmi_isr ; 0x8c
    am_fault_isr
        0x0000008e:    e7fe        ..      B        am_fault_isr ; 0x8e
    am_memmanage_isr
        0x00000090:    e7fe        ..      B        am_memmanage_isr ; 0x90
    am_adc_isr
    am_brownout_isr
    am_clkgen_isr
    am_ctimer_isr
    am_debugmon_isr
    am_iomaster0_isr
    am_iomaster1_isr
    am_ioslave_acc_isr
    am_ioslave_ios_isr
    am_pendsv_isr
    am_svcall_isr
    am_systick_isr
    am_uart_isr
    am_vcomp_isr
    am_watchdog_isr
        0x00000092:    e7fe        ..      B        am_adc_isr ; 0x92
    $d
        0x00000094:    00000099    ....    DCD    153
    $t
    !!!main
    __main
        0x00000098:    f000f802    ....    BL       __scatterload ; 0xa0
        0x0000009c:    f000f83c    ..<.    BL       __rt_entry ; 0x118
    !!!scatter
    __scatterload
    __scatterload_rt2
    __scatterload_rt2_thumb_only
        0x000000a0:    a00a        ..      ADR      r0,{pc}+0x2c ; 0xcc
        0x000000a2:    e8900c00    ....    LDM      r0,{r10,r11}
        0x000000a6:    4482        .D      ADD      r10,r10,r0
        0x000000a8:    4483        .D      ADD      r11,r11,r0
        0x000000aa:    f1aa0701    ....    SUB      r7,r10,#1
    __scatterload_null
        0x000000ae:    45da        .E      CMP      r10,r11
        0x000000b0:    d101        ..      BNE      0xb6 ; __scatterload_null + 8
        0x000000b2:    f000f831    ..1.    BL       __rt_entry ; 0x118
        0x000000b6:    f2af0e09    ....    ADR      lr,{pc}-7 ; 0xaf
        0x000000ba:    e8ba000f    ....    LDM      r10!,{r0-r3}
        0x000000be:    f0130f01    ....    TST      r3,#1
        0x000000c2:    bf18        ..      IT       NE
        0x000000c4:    1afb        ..      SUBNE    r3,r7,r3
        0x000000c6:    f0430301    C...    ORR      r3,r3,#1
        0x000000ca:    4718        .G      BX       r3
    $d
        0x000000cc:    00003084    .0..    DCD    12420
        0x000000d0:    000030a4    .0..    DCD    12452
    $t
    !!handler_copy
    __scatterload_copy
        0x000000d4:    3a10        .:      SUBS     r2,r2,#0x10
        0x000000d6:    bf24        $.      ITT      CS
        0x000000d8:    c878        x.      LDMCS    r0!,{r3-r6}
        0x000000da:    c178        x.      STMCS    r1!,{r3-r6}
        0x000000dc:    d8fa        ..      BHI      __scatterload_copy ; 0xd4
        0x000000de:    0752        R.      LSLS     r2,r2,#29
        0x000000e0:    bf24        $.      ITT      CS
        0x000000e2:    c830        0.      LDMCS    r0!,{r4,r5}
        0x000000e4:    c130        0.      STMCS    r1!,{r4,r5}
        0x000000e6:    bf44        D.      ITT      MI
        0x000000e8:    6804        .h      LDRMI    r4,[r0,#0]
        0x000000ea:    600c        .`      STRMI    r4,[r1,#0]
        0x000000ec:    4770        pG      BX       lr
        0x000000ee:    0000        ..      MOVS     r0,r0
    !!handler_zi
    __scatterload_zeroinit
        0x000000f0:    2300        .#      MOVS     r3,#0
        0x000000f2:    2400        .$      MOVS     r4,#0
        0x000000f4:    2500        .%      MOVS     r5,#0
        0x000000f6:    2600        .&      MOVS     r6,#0
        0x000000f8:    3a10        .:      SUBS     r2,r2,#0x10
        0x000000fa:    bf28        (.      IT       CS
        0x000000fc:    c178        x.      STMCS    r1!,{r3-r6}
        0x000000fe:    d8fb        ..      BHI      0xf8 ; __scatterload_zeroinit + 8
        0x00000100:    0752        R.      LSLS     r2,r2,#29
        0x00000102:    bf28        (.      IT       CS
        0x00000104:    c130        0.      STMCS    r1!,{r4,r5}
        0x00000106:    bf48        H.      IT       MI
        0x00000108:    600b        .`      STRMI    r3,[r1,#0]
        0x0000010a:    4770        pG      BX       lr
    .ARM.Collect$$libinit$$00000000
    __rt_lib_init
        0x0000010c:    b51f        ..      PUSH     {r0-r4,lr}
    .ARM.Collect$$libinit$$00000001
    __rt_lib_init_fp_1
        0x0000010e:    f001fa3d    ..=.    BL       _fp_init ; 0x158c
    .ARM.Collect$$libinit$$00000004
    .ARM.Collect$$libinit$$0000000A
    .ARM.Collect$$libinit$$0000000C
    .ARM.Collect$$libinit$$0000000E
    .ARM.Collect$$libinit$$00000011
    .ARM.Collect$$libinit$$00000013
    .ARM.Collect$$libinit$$00000015
    .ARM.Collect$$libinit$$00000017
    .ARM.Collect$$libinit$$00000019
    .ARM.Collect$$libinit$$0000001B
    .ARM.Collect$$libinit$$0000001D
    .ARM.Collect$$libinit$$0000001F
    .ARM.Collect$$libinit$$00000021
    .ARM.Collect$$libinit$$00000023
    .ARM.Collect$$libinit$$00000025
    .ARM.Collect$$libinit$$0000002C
    .ARM.Collect$$libinit$$0000002E
    .ARM.Collect$$libinit$$00000030
    .ARM.Collect$$libinit$$00000032
    .ARM.Collect$$libinit$$00000033
    __rt_lib_init_alloca_1
    __rt_lib_init_argv_1
    __rt_lib_init_atexit_1
    __rt_lib_init_clock_1
    __rt_lib_init_cpp_1
    __rt_lib_init_exceptions_1
    __rt_lib_init_fp_trap_1
    __rt_lib_init_getenv_1
    __rt_lib_init_heap_1
    __rt_lib_init_lc_collate_1
    __rt_lib_init_lc_ctype_1
    __rt_lib_init_lc_monetary_1
    __rt_lib_init_lc_numeric_1
    __rt_lib_init_lc_time_1
    __rt_lib_init_preinit_1
    __rt_lib_init_rand_1
    __rt_lib_init_return
    __rt_lib_init_signal_1
    __rt_lib_init_stdio_1
    __rt_lib_init_user_alloc_1
        0x00000112:    bd1f        ..      POP      {r0-r4,pc}
    .ARM.Collect$$libshutdown$$00000000
    __rt_lib_shutdown
        0x00000114:    b510        ..      PUSH     {r4,lr}
    .ARM.Collect$$libshutdown$$00000002
    .ARM.Collect$$libshutdown$$00000004
    .ARM.Collect$$libshutdown$$00000007
    .ARM.Collect$$libshutdown$$0000000A
    .ARM.Collect$$libshutdown$$0000000C
    .ARM.Collect$$libshutdown$$0000000F
    .ARM.Collect$$libshutdown$$00000010
    __rt_lib_shutdown_cpp_1
    __rt_lib_shutdown_fp_trap_1
    __rt_lib_shutdown_heap_1
    __rt_lib_shutdown_return
    __rt_lib_shutdown_signal_1
    __rt_lib_shutdown_stdio_1
    __rt_lib_shutdown_user_alloc_1
        0x00000116:    bd10        ..      POP      {r4,pc}
    .ARM.Collect$$rtentry$$00000000
    .ARM.Collect$$rtentry$$00000002
    .ARM.Collect$$rtentry$$00000004
    __rt_entry
    __rt_entry_presh_1
    __rt_entry_sh
        0x00000118:    f000f82d    ..-.    BL       __user_setup_stackheap ; 0x176
        0x0000011c:    4611        .F      MOV      r1,r2
    .ARM.Collect$$rtentry$$00000009
    .ARM.Collect$$rtentry$$0000000A
    __rt_entry_li
    __rt_entry_postsh_1
        0x0000011e:    f7fffff5    ....    BL       __rt_lib_init ; 0x10c
    .ARM.Collect$$rtentry$$0000000C
    .ARM.Collect$$rtentry$$0000000D
    __rt_entry_main
    __rt_entry_postli_1
        0x00000122:    f001f8bd    ....    BL       main ; 0x12a0
        0x00000126:    f000f84b    ..K.    BL       exit ; 0x1c0
    .ARM.Collect$$rtexit$$00000000
    __rt_exit
        0x0000012a:    b403        ..      PUSH     {r0,r1}
    .ARM.Collect$$rtexit$$00000002
    .ARM.Collect$$rtexit$$00000003
    __rt_exit_ls
    __rt_exit_prels_1
        0x0000012c:    f7fffff2    ....    BL       __rt_lib_shutdown ; 0x114
    .ARM.Collect$$rtexit$$00000004
    __rt_exit_exit
        0x00000130:    bc03        ..      POP      {r0,r1}
        0x00000132:    f000f853    ..S.    BL       _sys_exit ; 0x1dc
        0x00000136:    0000        ..      MOVS     r0,r0
    .emb_text
    $v0
    am_hal_flash_delay
        0x00000138:    3801        .8      SUBS     r0,#1
        0x0000013a:    d1fd        ..      BNE      am_hal_flash_delay ; 0x138
        0x0000013c:    4770        pG      BX       lr
        0x0000013e:    0000        ..      MOVS     r0,r0
    .emb_text
    $v0
    am_hal_interrupt_master_enable
        0x00000140:    f3ef8010    ....    MRS      r0,PRIMASK
        0x00000144:    b662        b.      CPSIE    i
        0x00000146:    4770        pG      BX       lr
    am_hal_interrupt_master_disable
        0x00000148:    f3ef8010    ....    MRS      r0,PRIMASK
        0x0000014c:    b672        r.      CPSID    i
        0x0000014e:    4770        pG      BX       lr
    am_hal_interrupt_master_set
        0x00000150:    f3808810    ....    MSR      PRIMASK,r0
        0x00000154:    4770        pG      BX       lr
        0x00000156:    0000        ..      MOVS     r0,r0
    .text
    $v0
    __user_initial_stackheap
        0x00000158:    4802        .H      LDR      r0,[pc,#8] ; [0x164] = 0x100003d8
        0x0000015a:    4903        .I      LDR      r1,[pc,#12] ; [0x168] = 0x100013d8
        0x0000015c:    4a01        .J      LDR      r2,[pc,#4] ; [0x164] = 0x100003d8
        0x0000015e:    4b03        .K      LDR      r3,[pc,#12] ; [0x16c] = 0x100003d8
        0x00000160:    4770        pG      BX       lr
    $d
        0x00000162:    0000        ..      DCW    0
        0x00000164:    100003d8    ....    DCD    268436440
        0x00000168:    100013d8    ....    DCD    268440536
        0x0000016c:    100003d8    ....    DCD    268436440
    $t
    .text
    __use_two_region_memory
        0x00000170:    4770        pG      BX       lr
    __rt_heap_escrow$2region
        0x00000172:    4770        pG      BX       lr
    __rt_heap_expand$2region
        0x00000174:    4770        pG      BX       lr
    .text
    __user_setup_stackheap
        0x00000176:    4675        uF      MOV      r5,lr
        0x00000178:    f000f82c    ..,.    BL       __user_libspace ; 0x1d4
        0x0000017c:    46ae        .F      MOV      lr,r5
        0x0000017e:    0005        ..      MOVS     r5,r0
        0x00000180:    4669        iF      MOV      r1,sp
        0x00000182:    4653        SF      MOV      r3,r10
        0x00000184:    f0200007     ...    BIC      r0,r0,#7
        0x00000188:    4685        .F      MOV      sp,r0
        0x0000018a:    b018        ..      ADD      sp,sp,#0x60
        0x0000018c:    b520         .      PUSH     {r5,lr}
        0x0000018e:    f7ffffe3    ....    BL       __user_initial_stackheap ; 0x158
        0x00000192:    e8bd4020    .. @    POP      {r5,lr}
        0x00000196:    f04f0600    O...    MOV      r6,#0
        0x0000019a:    f04f0700    O...    MOV      r7,#0
        0x0000019e:    f04f0800    O...    MOV      r8,#0
        0x000001a2:    f04f0b00    O...    MOV      r11,#0
        0x000001a6:    f0210107    !...    BIC      r1,r1,#7
        0x000001aa:    46ac        .F      MOV      r12,r5
        0x000001ac:    e8ac09c0    ....    STM      r12!,{r6-r8,r11}
        0x000001b0:    e8ac09c0    ....    STM      r12!,{r6-r8,r11}
        0x000001b4:    e8ac09c0    ....    STM      r12!,{r6-r8,r11}
        0x000001b8:    e8ac09c0    ....    STM      r12!,{r6-r8,r11}
        0x000001bc:    468d        .F      MOV      sp,r1
        0x000001be:    4770        pG      BX       lr
    .text
    exit
        0x000001c0:    b510        ..      PUSH     {r4,lr}
        0x000001c2:    4604        .F      MOV      r4,r0
        0x000001c4:    f3af8000    ....    NOP.W    
        0x000001c8:    4620         F      MOV      r0,r4
        0x000001ca:    e8bd4010    ...@    POP      {r4,lr}
        0x000001ce:    f7ffbfac    ....    B.W      __rt_exit ; 0x12a
        0x000001d2:    0000        ..      MOVS     r0,r0
    .text
    __user_libspace
    __user_perproc_libspace
    __user_perthread_libspace
        0x000001d4:    4800        .H      LDR      r0,[pc,#0] ; [0x1d8] = 0x10000374
        0x000001d6:    4770        pG      BX       lr
    $d
        0x000001d8:    10000374    t...    DCD    268436340
    $t
    .text
    _sys_exit
        0x000001dc:    4901        .I      LDR      r1,[pc,#4] ; [0x1e4] = 0x20026
        0x000001de:    2018        .       MOVS     r0,#0x18
        0x000001e0:    beab        ..      BKPT     #0xab
        0x000001e2:    e7fe        ..      B        0x1e2 ; _sys_exit + 6
    $d
        0x000001e4:    00020026    &...    DCD    131110
    $t
    .text
    __I$use$semihosting
    __use_no_semihosting_swi
        0x000001e8:    4770        pG      BX       lr
    .text
    __semihosting_library_function
        0x000001ea:    0000        ..      MOVS     r0,r0
    i.am_bsp_iom_enable
    am_bsp_iom_enable
        0x000001ec:    e92d41f0    -..A    PUSH     {r4-r8,lr}
        0x000001f0:    4604        .F      MOV      r4,r0
        0x000001f2:    f000f98b    ....    BL       am_hal_iom_enable ; 0x50c
        0x000001f6:    4925        %I      LDR      r1,[pc,#148] ; [0x28c] = 0x1000001c
        0x000001f8:    4a25        %J      LDR      r2,[pc,#148] ; [0x290] = 0xdeadbeef
        0x000001fa:    f8510034    Q.4.    LDR      r0,[r1,r4,LSL #3]
        0x000001fe:    4290        .B      CMP      r0,r2
        0x00000200:    bf08        ..      IT       EQ
        0x00000202:    e8bd81f0    ....    POPEQ    {r4-r8,pc}
        0x00000206:    0322        ".      LSLS     r2,r4,#12
        0x00000208:    f10242a0    ...B    ADD      r2,r2,#0x50000000
        0x0000020c:    f5024280    ...B    ADD      r2,r2,#0x4000
        0x00000210:    f8d2211c    ...!    LDR      r2,[r2,#0x11c]
        0x00000214:    f0120f01    ....    TST      r2,#1
        0x00000218:    bf08        ..      IT       EQ
        0x0000021a:    e8bd81f0    ....    POPEQ    {r4-r8,pc}
        0x0000021e:    2800        .(      CMP      r0,#0
        0x00000220:    bfb8        ..      IT       LT
        0x00000222:    e8bd81f0    ....    POPLT    {r4-r8,pc}
        0x00000226:    2273        s"      MOVS     r2,#0x73
        0x00000228:    4b1a        .K      LDR      r3,[pc,#104] ; [0x294] = 0x40010000
        0x0000022a:    661a        .f      STR      r2,[r3,#0x60]
        0x0000022c:    eb0102c4    ....    ADD      r2,r1,r4,LSL #3
        0x00000230:    f8b2c004    ....    LDRH     r12,[r2,#4]
        0x00000234:    f3cc2502    ...%    UBFX     r5,r12,#8,#3
        0x00000238:    ea4f7c40    O.@|    LSL      r12,r0,#29
        0x0000023c:    ea4f6cdc    O..l    LSR      r12,r12,#27
        0x00000240:    fa05f60c    ....    LSL      r6,r5,r12
        0x00000244:    257c        |%      MOVS     r5,#0x7c
        0x00000246:    ea050050    ..P.    AND      r0,r5,r0,LSR #1
        0x0000024a:    4418        .D      ADD      r0,r0,r3
        0x0000024c:    6c05        .l      LDR      r5,[r0,#0x40]
        0x0000024e:    2707        .'      MOVS     r7,#7
        0x00000250:    fa07fc0c    ....    LSL      r12,r7,r12
        0x00000254:    ea250c0c    %...    BIC      r12,r5,r12
        0x00000258:    ea460c0c    F...    ORR      r12,r6,r12
        0x0000025c:    f8c0c040    ..@.    STR      r12,[r0,#0x40]
        0x00000260:    f8110034    ..4.    LDRB     r0,[r1,r4,LSL #3]
        0x00000264:    7912        .y      LDRB     r2,[r2,#4]
        0x00000266:    0781        ..      LSLS     r1,r0,#30
        0x00000268:    f00000fc    ....    AND      r0,r0,#0xfc
        0x0000026c:    4418        .D      ADD      r0,r0,r3
        0x0000026e:    0ec9        ..      LSRS     r1,r1,#27
        0x00000270:    f8d0c000    ....    LDR      r12,[r0,#0]
        0x00000274:    408a        .@      LSLS     r2,r2,r1
        0x00000276:    24ff        .$      MOVS     r4,#0xff
        0x00000278:    fa04f101    ....    LSL      r1,r4,r1
        0x0000027c:    ea2c0101    ,...    BIC      r1,r12,r1
        0x00000280:    4311        .C      ORRS     r1,r1,r2
        0x00000282:    6001        .`      STR      r1,[r0,#0]
        0x00000284:    2000        .       MOVS     r0,#0
        0x00000286:    6618        .f      STR      r0,[r3,#0x60]
        0x00000288:    e8bd81f0    ....    POP      {r4-r8,pc}
    $d
        0x0000028c:    1000001c    ....    DCD    268435484
        0x00000290:    deadbeef    ....    DCD    3735928559
        0x00000294:    40010000    ...@    DCD    1073807360
    $t
    i.am_bsp_low_power_init
    am_bsp_low_power_init
        0x00000298:    b510        ..      PUSH     {r4,lr}
        0x0000029a:    f000fefd    ....    BL       am_hal_mcuctrl_bucks_enable ; 0x1098
        0x0000029e:    f000ff8b    ....    BL       am_hal_vcomp_disable ; 0x11b8
        0x000002a2:    2001        .       MOVS     r0,#1
        0x000002a4:    f000ff62    ..b.    BL       am_hal_rtc_osc_select ; 0x116c
        0x000002a8:    2001        .       MOVS     r0,#1
        0x000002aa:    f000f811    ....    BL       am_hal_clkgen_osc_stop ; 0x2d0
        0x000002ae:    f000ff56    ..V.    BL       am_hal_rtc_osc_disable ; 0x115e
        0x000002b2:    e8bd4010    ...@    POP      {r4,lr}
        0x000002b6:    f000bee7    ....    B.W      am_hal_mcuctrl_bandgap_disable ; 0x1088
    i.am_gpio_isr
    am_gpio_isr
        0x000002ba:    b570        p.      PUSH     {r4-r6,lr}
        0x000002bc:    2000        .       MOVS     r0,#0
        0x000002be:    f000f871    ..q.    BL       am_hal_gpio_int_status_get ; 0x3a4
        0x000002c2:    4604        .F      MOV      r4,r0
        0x000002c4:    460d        .F      MOV      r5,r1
        0x000002c6:    4620         F      MOV      r0,r4
        0x000002c8:    4629        )F      MOV      r1,r5
        0x000002ca:    f000f863    ..c.    BL       am_hal_gpio_int_clear ; 0x394
        0x000002ce:    bd70        p.      POP      {r4-r6,pc}
    i.am_hal_clkgen_osc_stop
    am_hal_clkgen_osc_stop
        0x000002d0:    f0100f03    ....    TST      r0,#3
        0x000002d4:    bf08        ..      IT       EQ
        0x000002d6:    4770        pG      BXEQ     lr
        0x000002d8:    f04f2140    O.@!    MOV      r1,#0x40004000
        0x000002dc:    68ca        .h      LDR      r2,[r1,#0xc]
        0x000002de:    4310        .C      ORRS     r0,r0,r2
        0x000002e0:    60c8        .`      STR      r0,[r1,#0xc]
        0x000002e2:    4770        pG      BX       lr
    i.am_hal_clkgen_sysclk_get
    am_hal_clkgen_sysclk_get
        0x000002e4:    f04f2040    O.@     MOV      r0,#0x40004000
        0x000002e8:    6980        .i      LDR      r0,[r0,#0x18]
        0x000002ea:    f0000007    ....    AND      r0,r0,#7
        0x000002ee:    2808        .(      CMP      r0,#8
        0x000002f0:    d215        ..      BCS      0x31e ; am_hal_clkgen_sysclk_get + 58
        0x000002f2:    e8dff000    ....    TBB      [pc,r0]
    $d
        0x000002f6:    0604        ..      DCW    1540
        0x000002f8:    0e0c0a08    ....    DCD    235670024
        0x000002fc:    1210        ..      DCW    4624
    $t
        0x000002fe:    4809        .H      LDR      r0,[pc,#36] ; [0x324] = 0x16e3600
        0x00000300:    4770        pG      BX       lr
        0x00000302:    4809        .H      LDR      r0,[pc,#36] ; [0x328] = 0xb71b00
        0x00000304:    4770        pG      BX       lr
        0x00000306:    4809        .H      LDR      r0,[pc,#36] ; [0x32c] = 0x7a1200
        0x00000308:    4770        pG      BX       lr
        0x0000030a:    4809        .H      LDR      r0,[pc,#36] ; [0x330] = 0x5b8d80
        0x0000030c:    4770        pG      BX       lr
        0x0000030e:    4809        .H      LDR      r0,[pc,#36] ; [0x334] = 0x493e00
        0x00000310:    4770        pG      BX       lr
        0x00000312:    4809        .H      LDR      r0,[pc,#36] ; [0x338] = 0x3d0900
        0x00000314:    4770        pG      BX       lr
        0x00000316:    4809        .H      LDR      r0,[pc,#36] ; [0x33c] = 0x3450db
        0x00000318:    4770        pG      BX       lr
        0x0000031a:    4809        .H      LDR      r0,[pc,#36] ; [0x340] = 0x2dc6c0
        0x0000031c:    4770        pG      BX       lr
        0x0000031e:    f04f30ff    O..0    MOV      r0,#0xffffffff
        0x00000322:    4770        pG      BX       lr
    $d
        0x00000324:    016e3600    .6n.    DCD    24000000
        0x00000328:    00b71b00    ....    DCD    12000000
        0x0000032c:    007a1200    ..z.    DCD    8000000
        0x00000330:    005b8d80    ..[.    DCD    6000000
        0x00000334:    00493e00    .>I.    DCD    4800000
        0x00000338:    003d0900    ..=.    DCD    4000000
        0x0000033c:    003450db    .P4.    DCD    3428571
        0x00000340:    002dc6c0    ..-.    DCD    3000000
    $t
    i.am_hal_clkgen_sysclk_select
    am_hal_clkgen_sysclk_select
        0x00000344:    f04f2140    O.@!    MOV      r1,#0x40004000
        0x00000348:    2247        G"      MOVS     r2,#0x47
        0x0000034a:    614a        Ja      STR      r2,[r1,#0x14]
        0x0000034c:    6188        .a      STR      r0,[r1,#0x18]
        0x0000034e:    2000        .       MOVS     r0,#0
        0x00000350:    6148        Ha      STR      r0,[r1,#0x14]
        0x00000352:    4770        pG      BX       lr
    i.am_hal_debug_error
    am_hal_debug_error
        0x00000354:    e7fe        ..      B        am_hal_debug_error ; 0x354
        0x00000356:    0000        ..      MOVS     r0,r0
    i.am_hal_flash_delay_status_change
    am_hal_flash_delay_status_change
        0x00000358:    e92d41f0    -..A    PUSH     {r4-r8,lr}
        0x0000035c:    461d        .F      MOV      r5,r3
        0x0000035e:    4616        .F      MOV      r6,r2
        0x00000360:    460f        .F      MOV      r7,r1
        0x00000362:    1e44        D.      SUBS     r4,r0,#1
        0x00000364:    bf28        (.      IT       CS
        0x00000366:    f8df8028    ..(.    LDRCS    r8,[pc,#40] ; [0x390] = 0x2dc6c0
        0x0000036a:    d30e        ..      BCC      0x38a ; am_hal_flash_delay_status_change + 50
        0x0000036c:    6838        8h      LDR      r0,[r7,#0]
        0x0000036e:    4030        0@      ANDS     r0,r0,r6
        0x00000370:    42a8        .B      CMP      r0,r5
        0x00000372:    d102        ..      BNE      0x37a ; am_hal_flash_delay_status_change + 34
        0x00000374:    2001        .       MOVS     r0,#1
        0x00000376:    e8bd81f0    ....    POP      {r4-r8,pc}
        0x0000037a:    f7ffffb3    ....    BL       am_hal_clkgen_sysclk_get ; 0x2e4
        0x0000037e:    fbb0f0f8    ....    UDIV     r0,r0,r8
        0x00000382:    f7fffed9    ....    BL       am_hal_flash_delay ; 0x138
        0x00000386:    1e64        d.      SUBS     r4,r4,#1
        0x00000388:    d2f0        ..      BCS      0x36c ; am_hal_flash_delay_status_change + 20
        0x0000038a:    2000        .       MOVS     r0,#0
        0x0000038c:    e8bd81f0    ....    POP      {r4-r8,pc}
    $d
        0x00000390:    002dc6c0    ..-.    DCD    3000000
    $t
    i.am_hal_gpio_int_clear
    am_hal_gpio_int_clear
        0x00000394:    4a02        .J      LDR      r2,[pc,#8] ; [0x3a0] = 0x40010000
        0x00000396:    f8c21218    ....    STR      r1,[r2,#0x218]
        0x0000039a:    f8c20208    ....    STR      r0,[r2,#0x208]
        0x0000039e:    4770        pG      BX       lr
    $d
        0x000003a0:    40010000    ...@    DCD    1073807360
    $t
    i.am_hal_gpio_int_status_get
    am_hal_gpio_int_status_get
        0x000003a4:    4a0c        .J      LDR      r2,[pc,#48] ; [0x3d8] = 0x40010000
        0x000003a6:    2100        .!      MOVS     r1,#0
        0x000003a8:    b178        x.      CBZ      r0,0x3ca ; am_hal_gpio_int_status_get + 38
        0x000003aa:    f8d23210    ...2    LDR      r3,[r2,#0x210]
        0x000003ae:    f8d20200    ....    LDR      r0,[r2,#0x200]
        0x000003b2:    f8d2c214    ....    LDR      r12,[r2,#0x214]
        0x000003b6:    4308        .C      ORRS     r0,r0,r1
        0x000003b8:    430b        .C      ORRS     r3,r3,r1
        0x000003ba:    f8d22204    ..."    LDR      r2,[r2,#0x204]
        0x000003be:    430a        .C      ORRS     r2,r2,r1
        0x000003c0:    ea41010c    A...    ORR      r1,r1,r12
        0x000003c4:    4010        .@      ANDS     r0,r0,r2
        0x000003c6:    4019        .@      ANDS     r1,r1,r3
        0x000003c8:    4770        pG      BX       lr
        0x000003ca:    f8d23214    ...2    LDR      r3,[r2,#0x214]
        0x000003ce:    f8d20204    ....    LDR      r0,[r2,#0x204]
        0x000003d2:    4308        .C      ORRS     r0,r0,r1
        0x000003d4:    4319        .C      ORRS     r1,r1,r3
        0x000003d6:    4770        pG      BX       lr
    $d
        0x000003d8:    40010000    ...@    DCD    1073807360
    $t
    i.am_hal_iom_config
    am_hal_iom_config
        0x000003dc:    b570        p.      PUSH     {r4-r6,lr}
        0x000003de:    460c        .F      MOV      r4,r1
        0x000003e0:    6809        .h      LDR      r1,[r1,#0]
        0x000003e2:    2802        .(      CMP      r0,#2
        0x000003e4:    bf28        (.      IT       CS
        0x000003e6:    bd70        p.      POPCS    {r4-r6,pc}
        0x000003e8:    4a24        $J      LDR      r2,[pc,#144] ; [0x47c] = 0x10000004
        0x000003ea:    2800        .(      CMP      r0,#0
        0x000003ec:    bf0c        ..      ITE      EQ
        0x000003ee:    6051        Q`      STREQ    r1,[r2,#4]
        0x000003f0:    6091        .`      STRNE    r1,[r2,#8]
        0x000003f2:    7a22        "z      LDRB     r2,[r4,#8]
        0x000003f4:    2a00        .*      CMP      r2,#0
        0x000003f6:    bf18        ..      IT       NE
        0x000003f8:    f0410104    A...    ORRNE    r1,r1,#4
        0x000003fc:    7a62        bz      LDRB     r2,[r4,#9]
        0x000003fe:    2a00        .*      CMP      r2,#0
        0x00000400:    bf18        ..      IT       NE
        0x00000402:    f0410102    A...    ORRNE    r1,r1,#2
        0x00000406:    0300        ..      LSLS     r0,r0,#12
        0x00000408:    f10045a0    ...E    ADD      r5,r0,#0x50000000
        0x0000040c:    f5054580    ...E    ADD      r5,r5,#0x4000
        0x00000410:    f8c5111c    ....    STR      r1,[r5,#0x11c]
        0x00000414:    7aa0        .z      LDRB     r0,[r4,#0xa]
        0x00000416:    283c        <(      CMP      r0,#0x3c
        0x00000418:    d905        ..      BLS      0x426 ; am_hal_iom_config + 74
        0x0000041a:    a219        ..      ADR      r2,{pc}+0x66 ; 0x480
        0x0000041c:    f2401153    @.S.    MOV      r1,#0x153
        0x00000420:    a01f        ..      ADR      r0,{pc}+0x80 ; 0x4a0
        0x00000422:    f7ffff97    ....    BL       am_hal_debug_error ; 0x354
        0x00000426:    7ae0        .z      LDRB     r0,[r4,#0xb]
        0x00000428:    283c        <(      CMP      r0,#0x3c
        0x0000042a:    d905        ..      BLS      0x438 ; am_hal_iom_config + 92
        0x0000042c:    a220         .      ADR      r2,{pc}+0x84 ; 0x4b0
        0x0000042e:    f2401155    @.U.    MOV      r1,#0x155
        0x00000432:    a01b        ..      ADR      r0,{pc}+0x6e ; 0x4a0
        0x00000434:    f7ffff8e    ....    BL       am_hal_debug_error ; 0x354
        0x00000438:    7aa0        .z      LDRB     r0,[r4,#0xa]
        0x0000043a:    2804        .(      CMP      r0,#4
        0x0000043c:    d205        ..      BCS      0x44a ; am_hal_iom_config + 110
        0x0000043e:    a223        #.      ADR      r2,{pc}+0x8e ; 0x4cc
        0x00000440:    f2401157    @.W.    MOV      r1,#0x157
        0x00000444:    a016        ..      ADR      r0,{pc}+0x5c ; 0x4a0
        0x00000446:    f7ffff85    ....    BL       am_hal_debug_error ; 0x354
        0x0000044a:    7ae0        .z      LDRB     r0,[r4,#0xb]
        0x0000044c:    2804        .(      CMP      r0,#4
        0x0000044e:    d205        ..      BCS      0x45c ; am_hal_iom_config + 128
        0x00000450:    a226        &.      ADR      r2,{pc}+0x9c ; 0x4ec
        0x00000452:    f2401159    @.Y.    MOV      r1,#0x159
        0x00000456:    a012        ..      ADR      r0,{pc}+0x4a ; 0x4a0
        0x00000458:    f7ffff7c    ..|.    BL       am_hal_debug_error ; 0x354
        0x0000045c:    7aa0        .z      LDRB     r0,[r4,#0xa]
        0x0000045e:    f44f517c    O.|Q    MOV      r1,#0x3f00
        0x00000462:    ea012000    ...     AND      r0,r1,r0,LSL #8
        0x00000466:    7ae1        .z      LDRB     r1,[r4,#0xb]
        0x00000468:    f001013f    ..?.    AND      r1,r1,#0x3f
        0x0000046c:    4308        .C      ORRS     r0,r0,r1
        0x0000046e:    f8c50108    ....    STR      r0,[r5,#0x108]
        0x00000472:    6860        `h      LDR      r0,[r4,#4]
        0x00000474:    f8c5010c    ....    STR      r0,[r5,#0x10c]
        0x00000478:    bd70        p.      POP      {r4-r6,pc}
    $d
        0x0000047a:    0000        ..      DCW    0
        0x0000047c:    10000004    ....    DCD    268435460
        0x00000480:    204d4f49    IOM     DCD    541937481
        0x00000484:    74697277    writ    DCD    1953067639
        0x00000488:    68742065    e th    DCD    1752440933
        0x0000048c:    68736572    resh    DCD    1752393074
        0x00000490:    20646c6f    old     DCD    543452271
        0x00000494:    206f6f74    too     DCD    544173940
        0x00000498:    2e676962    big.    DCD    778529122
        0x0000049c:    00000000    ....    DCD    0
        0x000004a0:    685f6d61    am_h    DCD    1751084385
        0x000004a4:    695f6c61    al_i    DCD    1767861345
        0x000004a8:    632e6d6f    om.c    DCD    1663987055
        0x000004ac:    00000000    ....    DCD    0
        0x000004b0:    204d4f49    IOM     DCD    541937481
        0x000004b4:    64616572    read    DCD    1684104562
        0x000004b8:    72687420     thr    DCD    1919448096
        0x000004bc:    6f687365    esho    DCD    1869116261
        0x000004c0:    7420646c    ld t    DCD    1948279916
        0x000004c4:    62206f6f    oo b    DCD    1646292847
        0x000004c8:    002e6769    ig..    DCD    3041129
        0x000004cc:    204d4f49    IOM     DCD    541937481
        0x000004d0:    74697277    writ    DCD    1953067639
        0x000004d4:    68742065    e th    DCD    1752440933
        0x000004d8:    68736572    resh    DCD    1752393074
        0x000004dc:    20646c6f    old     DCD    543452271
        0x000004e0:    206f6f74    too     DCD    544173940
        0x000004e4:    6c616d73    smal    DCD    1818324339
        0x000004e8:    00002e6c    l...    DCD    11884
        0x000004ec:    204d4f49    IOM     DCD    541937481
        0x000004f0:    64616572    read    DCD    1684104562
        0x000004f4:    72687420     thr    DCD    1919448096
        0x000004f8:    6f687365    esho    DCD    1869116261
        0x000004fc:    7420646c    ld t    DCD    1948279916
        0x00000500:    73206f6f    oo s    DCD    1931505519
        0x00000504:    6c6c616d    mall    DCD    1819042157
        0x00000508:    0000002e    ....    DCD    46
    $t
    i.am_hal_iom_enable
    am_hal_iom_enable
        0x0000050c:    2200        ."      MOVS     r2,#0
        0x0000050e:    2802        .(      CMP      r0,#2
        0x00000510:    d20c        ..      BCS      0x52c ; am_hal_iom_enable + 32
        0x00000512:    0301        ..      LSLS     r1,r0,#12
        0x00000514:    f10141a0    ...A    ADD      r1,r1,#0x50000000
        0x00000518:    f5014180    ...A    ADD      r1,r1,#0x4000
        0x0000051c:    f8d1311c    ...1    LDR      r3,[r1,#0x11c]
        0x00000520:    f0434300    C..C    ORR      r3,r3,#0x80000000
        0x00000524:    f8c1311c    ...1    STR      r3,[r1,#0x11c]
        0x00000528:    4912        .I      LDR      r1,[pc,#72] ; [0x574] = 0x10000004
        0x0000052a:    540a        .T      STRB     r2,[r1,r0]
        0x0000052c:    4912        .I      LDR      r1,[pc,#72] ; [0x578] = 0x40010000
        0x0000052e:    f8dfc044    ..D.    LDR      r12,[pc,#68] ; [0x574] = 0x10000004
        0x00000532:    2373        s#      MOVS     r3,#0x73
        0x00000534:    b178        x.      CBZ      r0,0x556 ; am_hal_iom_enable + 74
        0x00000536:    f8dc0008    ....    LDR      r0,[r12,#8]
        0x0000053a:    2801        .(      CMP      r0,#1
        0x0000053c:    bf18        ..      IT       NE
        0x0000053e:    4770        pG      BXNE     lr
        0x00000540:    660b        .f      STR      r3,[r1,#0x60]
        0x00000542:    6888        .h      LDR      r0,[r1,#8]
        0x00000544:    f0400002    @...    ORR      r0,r0,#2
        0x00000548:    6088        .`      STR      r0,[r1,#8]
        0x0000054a:    6888        .h      LDR      r0,[r1,#8]
        0x0000054c:    f4407000    @..p    ORR      r0,r0,#0x200
        0x00000550:    6088        .`      STR      r0,[r1,#8]
        0x00000552:    660a        .f      STR      r2,[r1,#0x60]
        0x00000554:    4770        pG      BX       lr
        0x00000556:    f8dc0004    ....    LDR      r0,[r12,#4]
        0x0000055a:    2801        .(      CMP      r0,#1
        0x0000055c:    bf18        ..      IT       NE
        0x0000055e:    4770        pG      BXNE     lr
        0x00000560:    660b        .f      STR      r3,[r1,#0x60]
        0x00000562:    6848        Hh      LDR      r0,[r1,#4]
        0x00000564:    f4407000    @..p    ORR      r0,r0,#0x200
        0x00000568:    6048        H`      STR      r0,[r1,#4]
        0x0000056a:    6848        Hh      LDR      r0,[r1,#4]
        0x0000056c:    f4403000    @..0    ORR      r0,r0,#0x20000
        0x00000570:    6048        H`      STR      r0,[r1,#4]
        0x00000572:    e7ee        ..      B        0x552 ; am_hal_iom_enable + 70
    $d
        0x00000574:    10000004    ....    DCD    268435460
        0x00000578:    40010000    ...@    DCD    1073807360
    $t
    i.am_hal_iom_fifo_read
    am_hal_iom_fifo_read
        0x0000057c:    2802        .(      CMP      r0,#2
        0x0000057e:    bf24        $.      ITT      CS
        0x00000580:    2000        .       MOVCS    r0,#0
        0x00000582:    4770        pG      BXCS     lr
        0x00000584:    b5f8        ..      PUSH     {r3-r7,lr}
        0x00000586:    0300        ..      LSLS     r0,r0,#12
        0x00000588:    f10045a0    ...E    ADD      r5,r0,#0x50000000
        0x0000058c:    f5054580    ...E    ADD      r5,r5,#0x4000
        0x00000590:    4614        .F      MOV      r4,r2
        0x00000592:    f8d50100    ....    LDR      r0,[r5,#0x100]
        0x00000596:    460e        .F      MOV      r6,r1
        0x00000598:    f000007f    ....    AND      r0,r0,#0x7f
        0x0000059c:    42a0        .B      CMP      r0,r4
        0x0000059e:    d205        ..      BCS      0x5ac ; am_hal_iom_fifo_read + 48
        0x000005a0:    a218        ..      ADR      r2,{pc}+0x64 ; 0x604
        0x000005a2:    f640010f    @...    MOV      r1,#0x80f
        0x000005a6:    a025        %.      ADR      r0,{pc}+0x96 ; 0x63c
        0x000005a8:    f7fffed4    ....    BL       am_hal_debug_error ; 0x354
        0x000005ac:    08a2        ..      LSRS     r2,r4,#2
        0x000005ae:    4250        PB      RSBS     r0,r2,#0
        0x000005b0:    eb040080    ....    ADD      r0,r4,r0,LSL #2
        0x000005b4:    2a00        .*      CMP      r2,#0
        0x000005b6:    f04f0300    O...    MOV      r3,#0
        0x000005ba:    d906        ..      BLS      0x5ca ; am_hal_iom_fifo_read + 78
        0x000005bc:    6829        )h      LDR      r1,[r5,#0]
        0x000005be:    f8461023    F.#.    STR      r1,[r6,r3,LSL #2]
        0x000005c2:    f1030301    ....    ADD      r3,r3,#1
        0x000005c6:    429a        .B      CMP      r2,r3
        0x000005c8:    d8f8        ..      BHI      0x5bc ; am_hal_iom_fifo_read + 64
        0x000005ca:    b1c8        ..      CBZ      r0,0x600 ; am_hal_iom_fifo_read + 132
        0x000005cc:    6829        )h      LDR      r1,[r5,#0]
        0x000005ce:    9100        ..      STR      r1,[sp,#0]
        0x000005d0:    eb060183    ....    ADD      r1,r6,r3,LSL #2
        0x000005d4:    1e4b        K.      SUBS     r3,r1,#1
        0x000005d6:    f10d31ff    ...1    ADD      r1,sp,#0xffffffff
        0x000005da:    f0100f01    ....    TST      r0,#1
        0x000005de:    d003        ..      BEQ      0x5e8 ; am_hal_iom_fifo_read + 108
        0x000005e0:    f8112f01    .../    LDRB     r2,[r1,#1]!
        0x000005e4:    f8032f01    .../    STRB     r2,[r3,#1]!
        0x000005e8:    ea5f0c50    _.P.    LSRS     r12,r0,#1
        0x000005ec:    d008        ..      BEQ      0x600 ; am_hal_iom_fifo_read + 132
        0x000005ee:    7848        Hx      LDRB     r0,[r1,#1]
        0x000005f0:    7058        Xp      STRB     r0,[r3,#1]
        0x000005f2:    f8110f02    ....    LDRB     r0,[r1,#2]!
        0x000005f6:    f8030f02    ....    STRB     r0,[r3,#2]!
        0x000005fa:    f1bc0c01    ....    SUBS     r12,r12,#1
        0x000005fe:    d1f6        ..      BNE      0x5ee ; am_hal_iom_fifo_read + 114
        0x00000600:    4620         F      MOV      r0,r4
        0x00000602:    bdf8        ..      POP      {r3-r7,pc}
    $d
        0x00000604:    20656854    The     DCD    543516756
        0x00000608:    6f666966    fifo    DCD    1868982630
        0x0000060c:    656f6420     doe    DCD    1701798944
        0x00000610:    74276e73    sn't    DCD    1948741235
        0x00000614:    6e6f6320     con    DCD    1852793632
        0x00000618:    6e696174    tain    DCD    1852399988
        0x0000061c:    65687420     the    DCD    1701344288
        0x00000620:    71657220     req    DCD    1902473760
        0x00000624:    74736575    uest    DCD    1953719669
        0x00000628:    6e206465    ed n    DCD    1847616613
        0x0000062c:    65626d75    umbe    DCD    1700949365
        0x00000630:    666f2072    r of    DCD    1718558834
        0x00000634:    74796220     byt    DCD    1954112032
        0x00000638:    002e7365    es..    DCD    3044197
        0x0000063c:    685f6d61    am_h    DCD    1751084385
        0x00000640:    695f6c61    al_i    DCD    1767861345
        0x00000644:    632e6d6f    om.c    DCD    1663987055
        0x00000648:    00000000    ....    DCD    0
    $t
    i.am_hal_iom_fifo_write
    am_hal_iom_fifo_write
        0x0000064c:    b570        p.      PUSH     {r4-r6,lr}
        0x0000064e:    4614        .F      MOV      r4,r2
        0x00000650:    460d        .F      MOV      r5,r1
        0x00000652:    2802        .(      CMP      r0,#2
        0x00000654:    bf24        $.      ITT      CS
        0x00000656:    2000        .       MOVCS    r0,#0
        0x00000658:    bd70        p.      POPCS    {r4-r6,pc}
        0x0000065a:    0300        ..      LSLS     r0,r0,#12
        0x0000065c:    f10046a0    ...F    ADD      r6,r0,#0x50000000
        0x00000660:    f5064680    ...F    ADD      r6,r6,#0x4000
        0x00000664:    f8d60100    ....    LDR      r0,[r6,#0x100]
        0x00000668:    f000007f    ....    AND      r0,r0,#0x7f
        0x0000066c:    f1c00040    ..@.    RSB      r0,r0,#0x40
        0x00000670:    f00000fc    ....    AND      r0,r0,#0xfc
        0x00000674:    42a0        .B      CMP      r0,r4
        0x00000676:    d205        ..      BCS      0x684 ; am_hal_iom_fifo_write + 56
        0x00000678:    a21b        ..      ADR      r2,{pc}+0x70 ; 0x6e8
        0x0000067a:    f24071d7    @..q    MOV      r1,#0x7d7
        0x0000067e:    a027        '.      ADR      r0,{pc}+0x9e ; 0x71c
        0x00000680:    f7fffe68    ..h.    BL       am_hal_debug_error ; 0x354
        0x00000684:    2300        .#      MOVS     r3,#0
        0x00000686:    1ce0        ..      ADDS     r0,r4,#3
        0x00000688:    2803        .(      CMP      r0,#3
        0x0000068a:    d922        ".      BLS      0x6d2 ; am_hal_iom_fifo_write + 134
        0x0000068c:    f1b44f00    ...O    CMP      r4,#0x80000000
        0x00000690:    d21f        ..      BCS      0x6d2 ; am_hal_iom_fifo_write + 134
        0x00000692:    17c2        ..      ASRS     r2,r0,#31
        0x00000694:    eb007192    ...q    ADD      r1,r0,r2,LSR #30
        0x00000698:    2803        .(      CMP      r0,#3
        0x0000069a:    bfd8        ..      IT       LE
        0x0000069c:    2000        .       MOVLE    r0,#0
        0x0000069e:    dd05        ..      BLE      0x6ac ; am_hal_iom_fifo_write + 96
        0x000006a0:    f3c10080    ....    UBFX     r0,r1,#2,#1
        0x000006a4:    b110        ..      CBZ      r0,0x6ac ; am_hal_iom_fifo_write + 96
        0x000006a6:    682a        *h      LDR      r2,[r5,#0]
        0x000006a8:    6032        2`      STR      r2,[r6,#0]
        0x000006aa:    2301        .#      MOVS     r3,#1
        0x000006ac:    2201        ."      MOVS     r2,#1
        0x000006ae:    eb0202a1    ....    ADD      r2,r2,r1,ASR #2
        0x000006b2:    1c40        @.      ADDS     r0,r0,#1
        0x000006b4:    e009        ..      B        0x6ca ; am_hal_iom_fifo_write + 126
        0x000006b6:    bf00        ..      NOP      
        0x000006b8:    f8551023    U.#.    LDR      r1,[r5,r3,LSL #2]
        0x000006bc:    6031        1`      STR      r1,[r6,#0]
        0x000006be:    1c59        Y.      ADDS     r1,r3,#1
        0x000006c0:    f8553021    U.!0    LDR      r3,[r5,r1,LSL #2]
        0x000006c4:    6033        3`      STR      r3,[r6,#0]
        0x000006c6:    1c4b        K.      ADDS     r3,r1,#1
        0x000006c8:    1c80        ..      ADDS     r0,r0,#2
        0x000006ca:    4282        .B      CMP      r2,r0
        0x000006cc:    dcf4        ..      BGT      0x6b8 ; am_hal_iom_fifo_write + 108
        0x000006ce:    4620         F      MOV      r0,r4
        0x000006d0:    bd70        p.      POP      {r4-r6,pc}
        0x000006d2:    2c00        .,      CMP      r4,#0
        0x000006d4:    d9fb        ..      BLS      0x6ce ; am_hal_iom_fifo_write + 130
        0x000006d6:    bf00        ..      NOP      
        0x000006d8:    f8550023    U.#.    LDR      r0,[r5,r3,LSL #2]
        0x000006dc:    6030        0`      STR      r0,[r6,#0]
        0x000006de:    1c5b        [.      ADDS     r3,r3,#1
        0x000006e0:    ebb40f83    ....    CMP      r4,r3,LSL #2
        0x000006e4:    d8f8        ..      BHI      0x6d8 ; am_hal_iom_fifo_write + 140
        0x000006e6:    e7f2        ..      B        0x6ce ; am_hal_iom_fifo_write + 130
    $d
        0x000006e8:    20656854    The     DCD    543516756
        0x000006ec:    6f666966    fifo    DCD    1868982630
        0x000006f0:    756f6320     cou    DCD    1970234144
        0x000006f4:    276e646c    ldn'    DCD    661546092
        0x000006f8:    69662074    t fi    DCD    1768300660
        0x000006fc:    68742074    t th    DCD    1752440948
        0x00000700:    65722065    e re    DCD    1701978213
        0x00000704:    73657571    ques    DCD    1936029041
        0x00000708:    20646574    ted     DCD    543450484
        0x0000070c:    626d756e    numb    DCD    1651340654
        0x00000710:    6f207265    er o    DCD    1864397413
        0x00000714:    79622066    f by    DCD    2036473958
        0x00000718:    00736574    tes.    DCD    7562612
        0x0000071c:    685f6d61    am_h    DCD    1751084385
        0x00000720:    695f6c61    al_i    DCD    1767861345
        0x00000724:    632e6d6f    om.c    DCD    1663987055
        0x00000728:    00000000    ....    DCD    0
    $t
    i.am_hal_iom_int_clear
    am_hal_iom_int_clear
        0x0000072c:    2802        .(      CMP      r0,#2
        0x0000072e:    bf28        (.      IT       CS
        0x00000730:    4770        pG      BXCS     lr
        0x00000732:    0300        ..      LSLS     r0,r0,#12
        0x00000734:    f10040a0    ...@    ADD      r0,r0,#0x50000000
        0x00000738:    f5004080    ...@    ADD      r0,r0,#0x4000
        0x0000073c:    f8c01208    ....    STR      r1,[r0,#0x208]
        0x00000740:    4770        pG      BX       lr
        0x00000742:    0000        ..      MOVS     r0,r0
    i.am_hal_iom_sleeping_queue_flush
    am_hal_iom_sleeping_queue_flush
        0x00000744:    e92d41f0    -..A    PUSH     {r4-r8,lr}
        0x00000748:    2501        .%      MOVS     r5,#1
        0x0000074a:    4604        .F      MOV      r4,r0
        0x0000074c:    2802        .(      CMP      r0,#2
        0x0000074e:    bf28        (.      IT       CS
        0x00000750:    e8bd81f0    ....    POPCS    {r4-r8,pc}
        0x00000754:    4f0f        .O      LDR      r7,[pc,#60] ; [0x794] = 0x10000004
        0x00000756:    4810        .H      LDR      r0,[pc,#64] ; [0x798] = 0x10000344
        0x00000758:    eb040144    ..D.    ADD      r1,r4,r4,LSL #1
        0x0000075c:    eb0006c1    ....    ADD      r6,r0,r1,LSL #3
        0x00000760:    f7fffcf2    ....    BL       am_hal_interrupt_master_disable ; 0x148
        0x00000764:    4680        .F      MOV      r8,r0
        0x00000766:    5d38        8]      LDRB     r0,[r7,r4]
        0x00000768:    2800        .(      CMP      r0,#0
        0x0000076a:    bf04        ..      ITT      EQ
        0x0000076c:    68b0        .h      LDREQ    r0,[r6,#8]
        0x0000076e:    2800        .(      CMPEQ    r0,#0
        0x00000770:    d00a        ..      BEQ      0x788 ; am_hal_iom_sleeping_queue_flush + 68
        0x00000772:    f04f0000    O...    MOV      r0,#0
        0x00000776:    f000fd05    ....    BL       am_hal_sysctrl_sleep ; 0x1184
        0x0000077a:    4640        @F      MOV      r0,r8
        0x0000077c:    f7fffce8    ....    BL       am_hal_interrupt_master_set ; 0x150
        0x00000780:    2d00        .-      CMP      r5,#0
        0x00000782:    d1ed        ..      BNE      0x760 ; am_hal_iom_sleeping_queue_flush + 28
        0x00000784:    e8bd81f0    ....    POP      {r4-r8,pc}
        0x00000788:    4640        @F      MOV      r0,r8
        0x0000078a:    e8bd41f0    ...A    POP      {r4-r8,lr}
        0x0000078e:    f7ffbcdf    ....    B.W      am_hal_interrupt_master_set ; 0x150
    $d
        0x00000792:    0000        ..      DCW    0
        0x00000794:    10000004    ....    DCD    268435460
        0x00000798:    10000344    D...    DCD    268436292
    $t
    i.am_hal_iom_spi_cmd_run
    am_hal_iom_spi_cmd_run
        0x0000079c:    e92d41f0    -..A    PUSH     {r4-r8,lr}
        0x000007a0:    001c        ..      MOVS     r4,r3
        0x000007a2:    9f06        ..      LDR      r7,[sp,#0x18]
        0x000007a4:    4616        .F      MOV      r6,r2
        0x000007a6:    4688        .F      MOV      r8,r1
        0x000007a8:    4605        .F      MOV      r5,r0
        0x000007aa:    d105        ..      BNE      0x7b8 ; am_hal_iom_spi_cmd_run + 28
        0x000007ac:    a20e        ..      ADR      r2,{pc}+0x3c ; 0x7e8
        0x000007ae:    f2404103    @..A    MOV      r1,#0x403
        0x000007b2:    a016        ..      ADR      r0,{pc}+0x5a ; 0x80c
        0x000007b4:    f7fffdce    ....    BL       am_hal_debug_error ; 0x354
        0x000007b8:    f4046070    ..p`    AND      r0,r4,#0xf00
        0x000007bc:    ea4530c0    E..0    ORR      r0,r5,r0,LSL #15
        0x000007c0:    b2e1        ..      UXTB     r1,r4
        0x000007c2:    4308        .C      ORRS     r0,r0,r1
        0x000007c4:    f44f21e0    O..!    MOV      r1,#0x70000
        0x000007c8:    ea014106    ...A    AND      r1,r1,r6,LSL #16
        0x000007cc:    4308        .C      ORRS     r0,r0,r1
        0x000007ce:    4913        .I      LDR      r1,[pc,#76] ; [0x81c] = 0x5c00ff00
        0x000007d0:    4039        9@      ANDS     r1,r1,r7
        0x000007d2:    4308        .C      ORRS     r0,r0,r1
        0x000007d4:    ea4f3108    O..1    LSL      r1,r8,#12
        0x000007d8:    f10141a0    ...A    ADD      r1,r1,#0x50000000
        0x000007dc:    f5014180    ...A    ADD      r1,r1,#0x4000
        0x000007e0:    f8c10110    ....    STR      r0,[r1,#0x110]
        0x000007e4:    e8bd81f0    ....    POP      {r4-r8,pc}
    $d
        0x000007e8:    69797254    Tryi    DCD    1769566804
        0x000007ec:    7420676e    ng t    DCD    1948280686
        0x000007f0:    6f64206f    o do    DCD    1868832879
        0x000007f4:    30206120     a 0    DCD    807428384
        0x000007f8:    74796220     byt    DCD    1954112032
        0x000007fc:    72742065    e tr    DCD    1920213093
        0x00000800:    61736e61    ansa    DCD    1634954849
        0x00000804:    6f697463    ctio    DCD    1869182051
        0x00000808:    0000006e    n...    DCD    110
        0x0000080c:    685f6d61    am_h    DCD    1751084385
        0x00000810:    695f6c61    al_i    DCD    1767861345
        0x00000814:    632e6d6f    om.c    DCD    1663987055
        0x00000818:    00000000    ....    DCD    0
        0x0000081c:    5c00ff00    ...\    DCD    1543569152
    $t
    i.am_hal_iom_spi_read
    am_hal_iom_spi_read
        0x00000820:    e92d4ff0    -..O    PUSH     {r4-r11,lr}
        0x00000824:    b087        ..      SUB      sp,sp,#0x1c
        0x00000826:    461d        .F      MOV      r5,r3
        0x00000828:    9e10        ..      LDR      r6,[sp,#0x40]
        0x0000082a:    4690        .F      MOV      r8,r2
        0x0000082c:    4689        .F      MOV      r9,r1
        0x0000082e:    4604        .F      MOV      r4,r0
        0x00000830:    2802        .(      CMP      r0,#2
        0x00000832:    d305        ..      BCC      0x840 ; am_hal_iom_spi_read + 32
        0x00000834:    a235        5.      ADR      r2,{pc}+0xd8 ; 0x90c
        0x00000836:    f24011d1    @...    MOV      r1,#0x1d1
        0x0000083a:    a040        @.      ADR      r0,{pc}+0x102 ; 0x93c
        0x0000083c:    f7fffd8a    ....    BL       am_hal_debug_error ; 0x354
        0x00000840:    b1b5        ..      CBZ      r5,0x870 ; am_hal_iom_spi_read + 80
        0x00000842:    f5b55f80    ..._    CMP      r5,#0x1000
        0x00000846:    d305        ..      BCC      0x854 ; am_hal_iom_spi_read + 52
        0x00000848:    a240        @.      ADR      r2,{pc}+0x104 ; 0x94c
        0x0000084a:    f24011d9    @...    MOV      r1,#0x1d9
        0x0000084e:    a03b        ;.      ADR      r0,{pc}+0xee ; 0x93c
        0x00000850:    f7fffd80    ....    BL       am_hal_debug_error ; 0x354
        0x00000854:    4843        CH      LDR      r0,[pc,#268] ; [0x964] = 0x10000344
        0x00000856:    eb040144    ..D.    ADD      r1,r4,r4,LSL #1
        0x0000085a:    eb0007c1    ....    ADD      r7,r0,r1,LSL #3
        0x0000085e:    6978        xi      LDR      r0,[r7,#0x14]
        0x00000860:    2800        .(      CMP      r0,#0
        0x00000862:    d048        H.      BEQ      0x8f6 ; am_hal_iom_spi_read + 214
        0x00000864:    f04f0a00    O...    MOV      r10,#0
        0x00000868:    2c02        .,      CMP      r4,#2
        0x0000086a:    d23d        =.      BCS      0x8e8 ; am_hal_iom_spi_read + 200
        0x0000086c:    b975        u.      CBNZ     r5,0x88c ; am_hal_iom_spi_read + 108
        0x0000086e:    e006        ..      B        0x87e ; am_hal_iom_spi_read + 94
        0x00000870:    a23d        =.      ADR      r2,{pc}+0xf8 ; 0x968
        0x00000872:    f24011d3    @...    MOV      r1,#0x1d3
        0x00000876:    a031        1.      ADR      r0,{pc}+0xc6 ; 0x93c
        0x00000878:    f7fffd6c    ..l.    BL       am_hal_debug_error ; 0x354
        0x0000087c:    e7ea        ..      B        0x854 ; am_hal_iom_spi_read + 52
        0x0000087e:    4a43        CJ      LDR      r2,[pc,#268] ; [0x98c] = 0x7e8
        0x00000880:    f64021f9    @..!    MOV      r1,#0xaf9
        0x00000884:    f1020024    ..$.    ADD      r0,r2,#0x24
        0x00000888:    f7fffd64    ..d.    BL       am_hal_debug_error ; 0x354
        0x0000088c:    f7fffc5c    ..\.    BL       am_hal_interrupt_master_disable ; 0x148
        0x00000890:    493f        ?I      LDR      r1,[pc,#252] ; [0x990] = 0x10000004
        0x00000892:    4683        .F      MOV      r11,r0
        0x00000894:    5d08        .]      LDRB     r0,[r1,r4]
        0x00000896:    2800        .(      CMP      r0,#0
        0x00000898:    bf04        ..      ITT      EQ
        0x0000089a:    68b8        .h      LDREQ    r0,[r7,#8]
        0x0000089c:    2800        .(      CMPEQ    r0,#0
        0x0000089e:    d011        ..      BEQ      0x8c4 ; am_hal_iom_spi_read + 164
        0x000008a0:    f04f0001    O...    MOV      r0,#1
        0x000008a4:    f8cda018    ....    STR      r10,[sp,#0x18]
        0x000008a8:    e9cd0400    ....    STRD     r0,r4,[sp,#0]
        0x000008ac:    e9cd5604    ...V    STRD     r5,r6,[sp,#0x10]
        0x000008b0:    e9cd9802    ....    STRD     r9,r8,[sp,#8]
        0x000008b4:    4638        8F      MOV      r0,r7
        0x000008b6:    f04f0201    O...    MOV      r2,#1
        0x000008ba:    4669        iF      MOV      r1,sp
        0x000008bc:    f000fc00    ....    BL       am_hal_queue_item_add ; 0x10c0
        0x000008c0:    b148        H.      CBZ      r0,0x8d6 ; am_hal_iom_spi_read + 182
        0x000008c2:    e00e        ..      B        0x8e2 ; am_hal_iom_spi_read + 194
        0x000008c4:    e9cd6a00    ...j    STRD     r6,r10,[sp,#0]
        0x000008c8:    462b        +F      MOV      r3,r5
        0x000008ca:    4642        BF      MOV      r2,r8
        0x000008cc:    4649        IF      MOV      r1,r9
        0x000008ce:    4620         F      MOV      r0,r4
        0x000008d0:    f000f864    ..d.    BL       am_hal_iom_spi_read_nb ; 0x99c
        0x000008d4:    e005        ..      B        0x8e2 ; am_hal_iom_spi_read + 194
        0x000008d6:    4a2f        /J      LDR      r2,[pc,#188] ; [0x994] = 0x30dc
        0x000008d8:    f6403127    @.'1    MOV      r1,#0xb27
        0x000008dc:    482e        .H      LDR      r0,[pc,#184] ; [0x998] = 0x80c
        0x000008de:    f7fffd39    ..9.    BL       am_hal_debug_error ; 0x354
        0x000008e2:    4658        XF      MOV      r0,r11
        0x000008e4:    f7fffc34    ..4.    BL       am_hal_interrupt_master_set ; 0x150
        0x000008e8:    4929        )I      LDR      r1,[pc,#164] ; [0x990] = 0x10000004
        0x000008ea:    4620         F      MOV      r0,r4
        0x000008ec:    68c9        .h      LDR      r1,[r1,#0xc]
        0x000008ee:    b007        ..      ADD      sp,sp,#0x1c
        0x000008f0:    e8bd4ff0    ...O    POP      {r4-r11,lr}
        0x000008f4:    4708        .G      BX       r1
        0x000008f6:    462b        +F      MOV      r3,r5
        0x000008f8:    4642        BF      MOV      r2,r8
        0x000008fa:    4649        IF      MOV      r1,r9
        0x000008fc:    4620         F      MOV      r0,r4
        0x000008fe:    9600        ..      STR      r6,[sp,#0]
        0x00000900:    f000f8f4    ....    BL       am_hal_iom_spi_read_nq ; 0xaec
        0x00000904:    b007        ..      ADD      sp,sp,#0x1c
        0x00000906:    e8bd8ff0    ....    POP      {r4-r11,pc}
    $d
        0x0000090a:    0000        ..      DCW    0
        0x0000090c:    69797254    Tryi    DCD    1769566804
        0x00000910:    7420676e    ng t    DCD    1948280686
        0x00000914:    7375206f    o us    DCD    1937055855
        0x00000918:    6e612065    e an    DCD    1851859045
        0x0000091c:    4d4f4920     IOM    DCD    1297041696
        0x00000920:    646f6d20     mod    DCD    1685024032
        0x00000924:    20656c75    ule     DCD    543517813
        0x00000928:    74616874    that    DCD    1952540788
        0x0000092c:    656f6420     doe    DCD    1701798944
        0x00000930:    74276e73    sn't    DCD    1948741235
        0x00000934:    69786520     exi    DCD    1769497888
        0x00000938:    002e7473    st..    DCD    3044467
        0x0000093c:    685f6d61    am_h    DCD    1751084385
        0x00000940:    695f6c61    al_i    DCD    1767861345
        0x00000944:    632e6d6f    om.c    DCD    1663987055
        0x00000948:    00000000    ....    DCD    0
        0x0000094c:    20495053    SPI     DCD    541675603
        0x00000950:    6e617274    tran    DCD    1851880052
        0x00000954:    72656673    sfer    DCD    1919247987
        0x00000958:    6f6f7420     too    DCD    1869575200
        0x0000095c:    67696220     big    DCD    1734959648
        0x00000960:    0000002e    ....    DCD    46
        0x00000964:    10000344    D...    DCD    268436292
        0x00000968:    69797254    Tryi    DCD    1769566804
        0x0000096c:    7420676e    ng t    DCD    1948280686
        0x00000970:    6f64206f    o do    DCD    1868832879
        0x00000974:    30206120     a 0    DCD    807428384
        0x00000978:    74796220     byt    DCD    1954112032
        0x0000097c:    72742065    e tr    DCD    1920213093
        0x00000980:    61736e61    ansa    DCD    1634954849
        0x00000984:    6f697463    ctio    DCD    1869182051
        0x00000988:    0000006e    n...    DCD    110
        0x0000098c:    000007e8    ....    DCD    2024
        0x00000990:    10000004    ....    DCD    268435460
        0x00000994:    000030dc    .0..    DCD    12508
        0x00000998:    0000080c    ....    DCD    2060
    $t
    i.am_hal_iom_spi_read_nb
    am_hal_iom_spi_read_nb
        0x0000099c:    e92d5ff0    -.._    PUSH     {r4-r12,lr}
        0x000009a0:    461d        .F      MOV      r5,r3
        0x000009a2:    e9dd6b0a    ...k    LDRD     r6,r11,[sp,#0x28]
        0x000009a6:    4692        .F      MOV      r10,r2
        0x000009a8:    460f        .F      MOV      r7,r1
        0x000009aa:    4604        .F      MOV      r4,r0
        0x000009ac:    f04f0901    O...    MOV      r9,#1
        0x000009b0:    2802        .(      CMP      r0,#2
        0x000009b2:    d305        ..      BCC      0x9c0 ; am_hal_iom_spi_read_nb + 36
        0x000009b4:    a22a        *.      ADR      r2,{pc}+0xac ; 0xa60
        0x000009b6:    f44f7167    O.gq    MOV      r1,#0x39c
        0x000009ba:    a035        5.      ADR      r0,{pc}+0xd6 ; 0xa90
        0x000009bc:    f7fffcca    ....    BL       am_hal_debug_error ; 0x354
        0x000009c0:    2d00        .-      CMP      r5,#0
        0x000009c2:    d02c        ,.      BEQ      0xa1e ; am_hal_iom_spi_read_nb + 130
        0x000009c4:    f5b55f80    ..._    CMP      r5,#0x1000
        0x000009c8:    d305        ..      BCC      0x9d6 ; am_hal_iom_spi_read_nb + 58
        0x000009ca:    a235        5.      ADR      r2,{pc}+0xd6 ; 0xaa0
        0x000009cc:    f44f7169    O.iq    MOV      r1,#0x3a4
        0x000009d0:    a02f        /.      ADR      r0,{pc}+0xc0 ; 0xa90
        0x000009d2:    f7fffcbf    ....    BL       am_hal_debug_error ; 0x354
        0x000009d6:    4938        8I      LDR      r1,[pc,#224] ; [0xab8] = 0x10000004
        0x000009d8:    2c02        .,      CMP      r4,#2
        0x000009da:    d202        ..      BCS      0x9e2 ; am_hal_iom_spi_read_nb + 70
        0x000009dc:    5d08        .]      LDRB     r0,[r1,r4]
        0x000009de:    2800        .(      CMP      r0,#0
        0x000009e0:    d1fc        ..      BNE      0x9dc ; am_hal_iom_spi_read_nb + 64
        0x000009e2:    2001        .       MOVS     r0,#1
        0x000009e4:    5508        .U      STRB     r0,[r1,r4]
        0x000009e6:    0320         .      LSLS     r0,r4,#12
        0x000009e8:    f10048a0    ...H    ADD      r8,r0,#0x50000000
        0x000009ec:    f5084880    ...H    ADD      r8,r8,#0x4000
        0x000009f0:    f8d80208    ....    LDR      r0,[r8,#0x208]
        0x000009f4:    f0400001    @...    ORR      r0,r0,#1
        0x000009f8:    f8c80208    ....    STR      r0,[r8,#0x208]
        0x000009fc:    eb040184    ....    ADD      r1,r4,r4,LSL #2
        0x00000a00:    482e        .H      LDR      r0,[pc,#184] ; [0xabc] = 0x1000031c
        0x00000a02:    2202        ."      MOVS     r2,#2
        0x00000a04:    0794        ..      LSLS     r4,r2,#30
        0x00000a06:    f8402021    @.!     STR      r2,[r0,r1,LSL #2]
        0x00000a0a:    eb000081    ....    ADD      r0,r0,r1,LSL #2
        0x00000a0e:    f8c0b010    ....    STR      r11,[r0,#0x10]
        0x00000a12:    f8c0a004    ....    STR      r10,[r0,#4]
        0x00000a16:    e9c05602    ...V    STRD     r5,r6,[r0,#8]
        0x00000a1a:    b975        u.      CBNZ     r5,0xa3a ; am_hal_iom_spi_read_nb + 158
        0x00000a1c:    e006        ..      B        0xa2c ; am_hal_iom_spi_read_nb + 144
        0x00000a1e:    a228        (.      ADR      r2,{pc}+0xa2 ; 0xac0
        0x00000a20:    f240319e    @..1    MOV      r1,#0x39e
        0x00000a24:    a01a        ..      ADR      r0,{pc}+0x6c ; 0xa90
        0x00000a26:    f7fffc95    ....    BL       am_hal_debug_error ; 0x354
        0x00000a2a:    e7d4        ..      B        0x9d6 ; am_hal_iom_spi_read_nb + 58
        0x00000a2c:    4a2d        -J      LDR      r2,[pc,#180] ; [0xae4] = 0x7e8
        0x00000a2e:    f2404103    @..A    MOV      r1,#0x403
        0x00000a32:    f1020024    ..$.    ADD      r0,r2,#0x24
        0x00000a36:    f7fffc8d    ....    BL       am_hal_debug_error ; 0x354
        0x00000a3a:    f4056070    ..p`    AND      r0,r5,#0xf00
        0x00000a3e:    ea4430c0    D..0    ORR      r0,r4,r0,LSL #15
        0x00000a42:    b2e9        ..      UXTB     r1,r5
        0x00000a44:    4308        .C      ORRS     r0,r0,r1
        0x00000a46:    f44f21e0    O..!    MOV      r1,#0x70000
        0x00000a4a:    ea014107    ...A    AND      r1,r1,r7,LSL #16
        0x00000a4e:    4308        .C      ORRS     r0,r0,r1
        0x00000a50:    4925        %I      LDR      r1,[pc,#148] ; [0xae8] = 0x5c00ff00
        0x00000a52:    4031        1@      ANDS     r1,r1,r6
        0x00000a54:    4308        .C      ORRS     r0,r0,r1
        0x00000a56:    f8c80110    ....    STR      r0,[r8,#0x110]
        0x00000a5a:    4648        HF      MOV      r0,r9
        0x00000a5c:    e8bd9ff0    ....    POP      {r4-r12,pc}
    $d
        0x00000a60:    69797254    Tryi    DCD    1769566804
        0x00000a64:    7420676e    ng t    DCD    1948280686
        0x00000a68:    7375206f    o us    DCD    1937055855
        0x00000a6c:    6e612065    e an    DCD    1851859045
        0x00000a70:    4d4f4920     IOM    DCD    1297041696
        0x00000a74:    646f6d20     mod    DCD    1685024032
        0x00000a78:    20656c75    ule     DCD    543517813
        0x00000a7c:    74616874    that    DCD    1952540788
        0x00000a80:    656f6420     doe    DCD    1701798944
        0x00000a84:    74276e73    sn't    DCD    1948741235
        0x00000a88:    69786520     exi    DCD    1769497888
        0x00000a8c:    002e7473    st..    DCD    3044467
        0x00000a90:    685f6d61    am_h    DCD    1751084385
        0x00000a94:    695f6c61    al_i    DCD    1767861345
        0x00000a98:    632e6d6f    om.c    DCD    1663987055
        0x00000a9c:    00000000    ....    DCD    0
        0x00000aa0:    20495053    SPI     DCD    541675603
        0x00000aa4:    6e617274    tran    DCD    1851880052
        0x00000aa8:    72656673    sfer    DCD    1919247987
        0x00000aac:    6f6f7420     too    DCD    1869575200
        0x00000ab0:    67696220     big    DCD    1734959648
        0x00000ab4:    0000002e    ....    DCD    46
        0x00000ab8:    10000004    ....    DCD    268435460
        0x00000abc:    1000031c    ....    DCD    268436252
        0x00000ac0:    69797254    Tryi    DCD    1769566804
        0x00000ac4:    7420676e    ng t    DCD    1948280686
        0x00000ac8:    6f64206f    o do    DCD    1868832879
        0x00000acc:    30206120     a 0    DCD    807428384
        0x00000ad0:    74796220     byt    DCD    1954112032
        0x00000ad4:    72742065    e tr    DCD    1920213093
        0x00000ad8:    61736e61    ansa    DCD    1634954849
        0x00000adc:    6f697463    ctio    DCD    1869182051
        0x00000ae0:    0000006e    n...    DCD    110
        0x00000ae4:    000007e8    ....    DCD    2024
        0x00000ae8:    5c00ff00    ...\    DCD    1543569152
    $t
    i.am_hal_iom_spi_read_nq
    am_hal_iom_spi_read_nq
        0x00000aec:    e92d4ff8    -..O    PUSH     {r3-r11,lr}
        0x00000af0:    461c        .F      MOV      r4,r3
        0x00000af2:    4690        .F      MOV      r8,r2
        0x00000af4:    460f        .F      MOV      r7,r1
        0x00000af6:    4605        .F      MOV      r5,r0
        0x00000af8:    f04f0900    O...    MOV      r9,#0
        0x00000afc:    2802        .(      CMP      r0,#2
        0x00000afe:    d305        ..      BCC      0xb0c ; am_hal_iom_spi_read_nq + 32
        0x00000b00:    4a47        GJ      LDR      r2,[pc,#284] ; [0xc20] = 0x1010
        0x00000b02:    f24021ad    @..!    MOV      r1,#0x2ad
        0x00000b06:    4847        GH      LDR      r0,[pc,#284] ; [0xc24] = 0x80c
        0x00000b08:    f7fffc24    ..$.    BL       am_hal_debug_error ; 0x354
        0x00000b0c:    2c00        .,      CMP      r4,#0
        0x00000b0e:    d025        %.      BEQ      0xb5c ; am_hal_iom_spi_read_nq + 112
        0x00000b10:    f5b45f80    ..._    CMP      r4,#0x1000
        0x00000b14:    d305        ..      BCC      0xb22 ; am_hal_iom_spi_read_nq + 54
        0x00000b16:    4a44        DJ      LDR      r2,[pc,#272] ; [0xc28] = 0x1044
        0x00000b18:    f24021b5    @..!    MOV      r1,#0x2b5
        0x00000b1c:    4841        AH      LDR      r0,[pc,#260] ; [0xc24] = 0x80c
        0x00000b1e:    f7fffc19    ....    BL       am_hal_debug_error ; 0x354
        0x00000b22:    2d02        .-      CMP      r5,#2
        0x00000b24:    bf38        8.      IT       CC
        0x00000b26:    4841        AH      LDRCC    r0,[pc,#260] ; [0xc2c] = 0x10000004
        0x00000b28:    d202        ..      BCS      0xb30 ; am_hal_iom_spi_read_nq + 68
        0x00000b2a:    5d41        A]      LDRB     r1,[r0,r5]
        0x00000b2c:    2900        .)      CMP      r1,#0
        0x00000b2e:    d1fc        ..      BNE      0xb2a ; am_hal_iom_spi_read_nq + 62
        0x00000b30:    0328        (.      LSLS     r0,r5,#12
        0x00000b32:    f10046a0    ...F    ADD      r6,r0,#0x50000000
        0x00000b36:    f5064680    ...F    ADD      r6,r6,#0x4000
        0x00000b3a:    f8d6a200    ....    LDR      r10,[r6,#0x200]
        0x00000b3e:    2000        .       MOVS     r0,#0
        0x00000b40:    f8c60200    ....    STR      r0,[r6,#0x200]
        0x00000b44:    f8d60208    ....    LDR      r0,[r6,#0x208]
        0x00000b48:    f0400001    @...    ORR      r0,r0,#1
        0x00000b4c:    f8c60208    ....    STR      r0,[r6,#0x208]
        0x00000b50:    980a        ..      LDR      r0,[sp,#0x28]
        0x00000b52:    f04f4b00    O..K    MOV      r11,#0x80000000
        0x00000b56:    9000        ..      STR      r0,[sp,#0]
        0x00000b58:    b97c        |.      CBNZ     r4,0xb7a ; am_hal_iom_spi_read_nq + 142
        0x00000b5a:    e007        ..      B        0xb6c ; am_hal_iom_spi_read_nq + 128
        0x00000b5c:    4a34        4J      LDR      r2,[pc,#208] ; [0xc30] = 0x7e8
        0x00000b5e:    f24021af    @..!    MOV      r1,#0x2af
        0x00000b62:    f1020024    ..$.    ADD      r0,r2,#0x24
        0x00000b66:    f7fffbf5    ....    BL       am_hal_debug_error ; 0x354
        0x00000b6a:    e7da        ..      B        0xb22 ; am_hal_iom_spi_read_nq + 54
        0x00000b6c:    4a30        0J      LDR      r2,[pc,#192] ; [0xc30] = 0x7e8
        0x00000b6e:    f2404103    @..A    MOV      r1,#0x403
        0x00000b72:    f1020024    ..$.    ADD      r0,r2,#0x24
        0x00000b76:    f7fffbed    ....    BL       am_hal_debug_error ; 0x354
        0x00000b7a:    f4046270    ..pb    AND      r2,r4,#0xf00
        0x00000b7e:    ea4b32c2    K..2    ORR      r2,r11,r2,LSL #15
        0x00000b82:    b2e0        ..      UXTB     r0,r4
        0x00000b84:    4310        .C      ORRS     r0,r0,r2
        0x00000b86:    f44f22e0    O.."    MOV      r2,#0x70000
        0x00000b8a:    ea024207    ...B    AND      r2,r2,r7,LSL #16
        0x00000b8e:    4310        .C      ORRS     r0,r0,r2
        0x00000b90:    4a28        (J      LDR      r2,[pc,#160] ; [0xc34] = 0x5c00ff00
        0x00000b92:    9900        ..      LDR      r1,[sp,#0]
        0x00000b94:    4011        .@      ANDS     r1,r1,r2
        0x00000b96:    4308        .C      ORRS     r0,r0,r1
        0x00000b98:    f8c60110    ....    STR      r0,[r6,#0x110]
        0x00000b9c:    b324        $.      CBZ      r4,0xbe8 ; am_hal_iom_spi_read_nq + 252
        0x00000b9e:    2d02        .-      CMP      r5,#2
        0x00000ba0:    bf2e        ..      ITEE     CS
        0x00000ba2:    2700        .'      MOVCS    r7,#0
        0x00000ba4:    f8d60100    ....    LDRCC    r0,[r6,#0x100]
        0x00000ba8:    f000077f    ....    ANDCC    r7,r0,#0x7f
        0x00000bac:    42a7        .B      CMP      r7,r4
        0x00000bae:    d306        ..      BCC      0xbbe ; am_hal_iom_spi_read_nq + 210
        0x00000bb0:    4622        "F      MOV      r2,r4
        0x00000bb2:    4641        AF      MOV      r1,r8
        0x00000bb4:    4628        (F      MOV      r0,r5
        0x00000bb6:    f7fffce1    ....    BL       am_hal_iom_fifo_read ; 0x57c
        0x00000bba:    2400        .$      MOVS     r4,#0
        0x00000bbc:    e00b        ..      B        0xbd6 ; am_hal_iom_spi_read_nq + 234
        0x00000bbe:    2f04        ./      CMP      r7,#4
        0x00000bc0:    d309        ..      BCC      0xbd6 ; am_hal_iom_spi_read_nq + 234
        0x00000bc2:    f0270203    '...    BIC      r2,r7,#3
        0x00000bc6:    4641        AF      MOV      r1,r8
        0x00000bc8:    4628        (F      MOV      r0,r5
        0x00000bca:    f7fffcd7    ....    BL       am_hal_iom_fifo_read ; 0x57c
        0x00000bce:    f0270003    '...    BIC      r0,r7,#3
        0x00000bd2:    1a24        $.      SUBS     r4,r4,r0
        0x00000bd4:    4480        .D      ADD      r8,r8,r0
        0x00000bd6:    f1b90f01    ....    CMP      r9,#1
        0x00000bda:    d005        ..      BEQ      0xbe8 ; am_hal_iom_spi_read_nq + 252
        0x00000bdc:    f8d60204    ....    LDR      r0,[r6,#0x204]
        0x00000be0:    2c00        .,      CMP      r4,#0
        0x00000be2:    f0000901    ....    AND      r9,r0,#1
        0x00000be6:    d1da        ..      BNE      0xb9e ; am_hal_iom_spi_read_nq + 178
        0x00000be8:    4813        .H      LDR      r0,[pc,#76] ; [0xc38] = 0x50004204
        0x00000bea:    2301        .#      MOVS     r3,#1
        0x00000bec:    eb003105    ...1    ADD      r1,r0,r5,LSL #12
        0x00000bf0:    4812        .H      LDR      r0,[pc,#72] ; [0xc3c] = 0x10000014
        0x00000bf2:    461a        .F      MOV      r2,r3
        0x00000bf4:    f8500025    P.%.    LDR      r0,[r0,r5,LSL #2]
        0x00000bf8:    f7fffbae    ....    BL       am_hal_flash_delay_status_change ; 0x358
        0x00000bfc:    4604        .F      MOV      r4,r0
        0x00000bfe:    f04a0001    J...    ORR      r0,r10,#1
        0x00000c02:    f8c60208    ....    STR      r0,[r6,#0x208]
        0x00000c06:    f8c6a200    ....    STR      r10,[r6,#0x200]
        0x00000c0a:    2c01        .,      CMP      r4,#1
        0x00000c0c:    d005        ..      BEQ      0xc1a ; am_hal_iom_spi_read_nq + 302
        0x00000c0e:    4a0c        .J      LDR      r2,[pc,#48] ; [0xc40] = 0x1070
        0x00000c10:    f2403101    @..1    MOV      r1,#0x301
        0x00000c14:    4803        .H      LDR      r0,[pc,#12] ; [0xc24] = 0x80c
        0x00000c16:    f7fffb9d    ....    BL       am_hal_debug_error ; 0x354
        0x00000c1a:    4620         F      MOV      r0,r4
        0x00000c1c:    e8bd8ff8    ....    POP      {r3-r11,pc}
    $d
        0x00000c20:    00001010    ....    DCD    4112
        0x00000c24:    0000080c    ....    DCD    2060
        0x00000c28:    00001044    D...    DCD    4164
        0x00000c2c:    10000004    ....    DCD    268435460
        0x00000c30:    000007e8    ....    DCD    2024
        0x00000c34:    5c00ff00    ...\    DCD    1543569152
        0x00000c38:    50004204    .B.P    DCD    1342194180
        0x00000c3c:    10000014    ....    DCD    268435476
        0x00000c40:    00001070    p...    DCD    4208
    $t
    i.am_hal_iom_spi_write
    am_hal_iom_spi_write
        0x00000c44:    e92d4ff0    -..O    PUSH     {r4-r11,lr}
        0x00000c48:    b087        ..      SUB      sp,sp,#0x1c
        0x00000c4a:    461d        .F      MOV      r5,r3
        0x00000c4c:    9e10        ..      LDR      r6,[sp,#0x40]
        0x00000c4e:    4690        .F      MOV      r8,r2
        0x00000c50:    4689        .F      MOV      r9,r1
        0x00000c52:    4604        .F      MOV      r4,r0
        0x00000c54:    2802        .(      CMP      r0,#2
        0x00000c56:    d305        ..      BCC      0xc64 ; am_hal_iom_spi_write + 32
        0x00000c58:    a22f        /.      ADR      r2,{pc}+0xc0 ; 0xd18
        0x00000c5a:    f44f71c7    O..q    MOV      r1,#0x18e
        0x00000c5e:    a03a        :.      ADR      r0,{pc}+0xea ; 0xd48
        0x00000c60:    f7fffb78    ..x.    BL       am_hal_debug_error ; 0x354
        0x00000c64:    b92d        -.      CBNZ     r5,0xc72 ; am_hal_iom_spi_write + 46
        0x00000c66:    a23c        <.      ADR      r2,{pc}+0xf2 ; 0xd58
        0x00000c68:    f44f71c8    O..q    MOV      r1,#0x190
        0x00000c6c:    a036        6.      ADR      r0,{pc}+0xdc ; 0xd48
        0x00000c6e:    f7fffb71    ..q.    BL       am_hal_debug_error ; 0x354
        0x00000c72:    4842        BH      LDR      r0,[pc,#264] ; [0xd7c] = 0x10000344
        0x00000c74:    eb040144    ..D.    ADD      r1,r4,r4,LSL #1
        0x00000c78:    eb0007c1    ....    ADD      r7,r0,r1,LSL #3
        0x00000c7c:    6978        xi      LDR      r0,[r7,#0x14]
        0x00000c7e:    2800        .(      CMP      r0,#0
        0x00000c80:    d040        @.      BEQ      0xd04 ; am_hal_iom_spi_write + 192
        0x00000c82:    f04f0a00    O...    MOV      r10,#0
        0x00000c86:    2c02        .,      CMP      r4,#2
        0x00000c88:    d235        5.      BCS      0xcf6 ; am_hal_iom_spi_write + 178
        0x00000c8a:    b935        5.      CBNZ     r5,0xc9a ; am_hal_iom_spi_write + 86
        0x00000c8c:    4a3c        <J      LDR      r2,[pc,#240] ; [0xd80] = 0x7e8
        0x00000c8e:    f640218d    @..!    MOV      r1,#0xa8d
        0x00000c92:    f1020024    ..$.    ADD      r0,r2,#0x24
        0x00000c96:    f7fffb5d    ..].    BL       am_hal_debug_error ; 0x354
        0x00000c9a:    f7fffa55    ..U.    BL       am_hal_interrupt_master_disable ; 0x148
        0x00000c9e:    4939        9I      LDR      r1,[pc,#228] ; [0xd84] = 0x10000004
        0x00000ca0:    4683        .F      MOV      r11,r0
        0x00000ca2:    5d08        .]      LDRB     r0,[r1,r4]
        0x00000ca4:    2800        .(      CMP      r0,#0
        0x00000ca6:    bf04        ..      ITT      EQ
        0x00000ca8:    68b8        .h      LDREQ    r0,[r7,#8]
        0x00000caa:    2800        .(      CMPEQ    r0,#0
        0x00000cac:    d011        ..      BEQ      0xcd2 ; am_hal_iom_spi_write + 142
        0x00000cae:    f04f0000    O...    MOV      r0,#0
        0x00000cb2:    e9cd0400    ....    STRD     r0,r4,[sp,#0]
        0x00000cb6:    f8cd9008    ....    STR      r9,[sp,#8]
        0x00000cba:    e9cd6005    ...`    STRD     r6,r0,[sp,#0x14]
        0x00000cbe:    e9cd8503    ....    STRD     r8,r5,[sp,#0xc]
        0x00000cc2:    4638        8F      MOV      r0,r7
        0x00000cc4:    f04f0201    O...    MOV      r2,#1
        0x00000cc8:    4669        iF      MOV      r1,sp
        0x00000cca:    f000f9f9    ....    BL       am_hal_queue_item_add ; 0x10c0
        0x00000cce:    b148        H.      CBZ      r0,0xce4 ; am_hal_iom_spi_write + 160
        0x00000cd0:    e00e        ..      B        0xcf0 ; am_hal_iom_spi_write + 172
        0x00000cd2:    e9cd6a00    ...j    STRD     r6,r10,[sp,#0]
        0x00000cd6:    462b        +F      MOV      r3,r5
        0x00000cd8:    4642        BF      MOV      r2,r8
        0x00000cda:    4649        IF      MOV      r1,r9
        0x00000cdc:    4620         F      MOV      r0,r4
        0x00000cde:    f000f857    ..W.    BL       am_hal_iom_spi_write_nb ; 0xd90
        0x00000ce2:    e005        ..      B        0xcf0 ; am_hal_iom_spi_write + 172
        0x00000ce4:    4a28        (J      LDR      r2,[pc,#160] ; [0xd88] = 0x30dc
        0x00000ce6:    f64021bc    @..!    MOV      r1,#0xabc
        0x00000cea:    4828        (H      LDR      r0,[pc,#160] ; [0xd8c] = 0x80c
        0x00000cec:    f7fffb32    ..2.    BL       am_hal_debug_error ; 0x354
        0x00000cf0:    4658        XF      MOV      r0,r11
        0x00000cf2:    f7fffa2d    ..-.    BL       am_hal_interrupt_master_set ; 0x150
        0x00000cf6:    4923        #I      LDR      r1,[pc,#140] ; [0xd84] = 0x10000004
        0x00000cf8:    4620         F      MOV      r0,r4
        0x00000cfa:    68c9        .h      LDR      r1,[r1,#0xc]
        0x00000cfc:    b007        ..      ADD      sp,sp,#0x1c
        0x00000cfe:    e8bd4ff0    ...O    POP      {r4-r11,lr}
        0x00000d02:    4708        .G      BX       r1
        0x00000d04:    462b        +F      MOV      r3,r5
        0x00000d06:    4642        BF      MOV      r2,r8
        0x00000d08:    4649        IF      MOV      r1,r9
        0x00000d0a:    4620         F      MOV      r0,r4
        0x00000d0c:    9600        ..      STR      r6,[sp,#0]
        0x00000d0e:    f000f8db    ....    BL       am_hal_iom_spi_write_nq ; 0xec8
        0x00000d12:    b007        ..      ADD      sp,sp,#0x1c
        0x00000d14:    e8bd8ff0    ....    POP      {r4-r11,pc}
    $d
        0x00000d18:    69797254    Tryi    DCD    1769566804
        0x00000d1c:    7420676e    ng t    DCD    1948280686
        0x00000d20:    7375206f    o us    DCD    1937055855
        0x00000d24:    6e612065    e an    DCD    1851859045
        0x00000d28:    4d4f4920     IOM    DCD    1297041696
        0x00000d2c:    646f6d20     mod    DCD    1685024032
        0x00000d30:    20656c75    ule     DCD    543517813
        0x00000d34:    74616874    that    DCD    1952540788
        0x00000d38:    656f6420     doe    DCD    1701798944
        0x00000d3c:    74276e73    sn't    DCD    1948741235
        0x00000d40:    69786520     exi    DCD    1769497888
        0x00000d44:    002e7473    st..    DCD    3044467
        0x00000d48:    685f6d61    am_h    DCD    1751084385
        0x00000d4c:    695f6c61    al_i    DCD    1767861345
        0x00000d50:    632e6d6f    om.c    DCD    1663987055
        0x00000d54:    00000000    ....    DCD    0
        0x00000d58:    69797254    Tryi    DCD    1769566804
        0x00000d5c:    7420676e    ng t    DCD    1948280686
        0x00000d60:    6f64206f    o do    DCD    1868832879
        0x00000d64:    30206120     a 0    DCD    807428384
        0x00000d68:    74796220     byt    DCD    1954112032
        0x00000d6c:    72742065    e tr    DCD    1920213093
        0x00000d70:    61736e61    ansa    DCD    1634954849
        0x00000d74:    6f697463    ctio    DCD    1869182051
        0x00000d78:    0000006e    n...    DCD    110
        0x00000d7c:    10000344    D...    DCD    268436292
        0x00000d80:    000007e8    ....    DCD    2024
        0x00000d84:    10000004    ....    DCD    268435460
        0x00000d88:    000030dc    .0..    DCD    12508
        0x00000d8c:    0000080c    ....    DCD    2060
    $t
    i.am_hal_iom_spi_write_nb
    am_hal_iom_spi_write_nb
        0x00000d90:    e92d5fff    -.._    PUSH     {r0-r12,lr}
        0x00000d94:    461c        .F      MOV      r4,r3
        0x00000d96:    e9dd790e    ...y    LDRD     r7,r9,[sp,#0x38]
        0x00000d9a:    4616        .F      MOV      r6,r2
        0x00000d9c:    4605        .F      MOV      r5,r0
        0x00000d9e:    2802        .(      CMP      r0,#2
        0x00000da0:    bf24        $.      ITT      CS
        0x00000da2:    b004        ..      ADDCS    sp,sp,#0x10
        0x00000da4:    e8bd9ff0    ....    POPCS    {r4-r12,pc}
        0x00000da8:    f5b45f80    ..._    CMP      r4,#0x1000
        0x00000dac:    d305        ..      BCC      0xdba ; am_hal_iom_spi_write_nb + 42
        0x00000dae:    a22f        /.      ADR      r2,{pc}+0xbe ; 0xe6c
        0x00000db0:    f240313d    @.=1    MOV      r1,#0x33d
        0x00000db4:    a033        3.      ADR      r0,{pc}+0xd0 ; 0xe84
        0x00000db6:    f7fffacd    ....    BL       am_hal_debug_error ; 0x354
        0x00000dba:    b92c        ,.      CBNZ     r4,0xdc8 ; am_hal_iom_spi_write_nb + 56
        0x00000dbc:    a235        5.      ADR      r2,{pc}+0xd8 ; 0xe94
        0x00000dbe:    f240313e    @.>1    MOV      r1,#0x33e
        0x00000dc2:    a030        0.      ADR      r0,{pc}+0xc2 ; 0xe84
        0x00000dc4:    f7fffac6    ....    BL       am_hal_debug_error ; 0x354
        0x00000dc8:    493b        ;I      LDR      r1,[pc,#236] ; [0xeb8] = 0x10000004
        0x00000dca:    462a        *F      MOV      r2,r5
        0x00000dcc:    5c88        .\      LDRB     r0,[r1,r2]
        0x00000dce:    2800        .(      CMP      r0,#0
        0x00000dd0:    d1fc        ..      BNE      0xdcc ; am_hal_iom_spi_write_nb + 60
        0x00000dd2:    f04f0b01    O...    MOV      r11,#1
        0x00000dd6:    f801b005    ....    STRB     r11,[r1,r5]
        0x00000dda:    0328        (.      LSLS     r0,r5,#12
        0x00000ddc:    f10048a0    ...H    ADD      r8,r0,#0x50000000
        0x00000de0:    f5084880    ...H    ADD      r8,r8,#0x4000
        0x00000de4:    f8d80208    ....    LDR      r0,[r8,#0x208]
        0x00000de8:    f0400001    @...    ORR      r0,r0,#1
        0x00000dec:    f8c80208    ....    STR      r0,[r8,#0x208]
        0x00000df0:    2c40        @,      CMP      r4,#0x40
        0x00000df2:    bf94        ..      ITE      LS
        0x00000df4:    46a2        .F      MOVLS    r10,r4
        0x00000df6:    f04f0a40    O.@.    MOVHI    r10,#0x40
        0x00000dfa:    4652        RF      MOV      r2,r10
        0x00000dfc:    4631        1F      MOV      r1,r6
        0x00000dfe:    4628        (F      MOV      r0,r5
        0x00000e00:    f7fffc24    ..$.    BL       am_hal_iom_fifo_write ; 0x64c
        0x00000e04:    2800        .(      CMP      r0,#0
        0x00000e06:    bf04        ..      ITT      EQ
        0x00000e08:    b004        ..      ADDEQ    sp,sp,#0x10
        0x00000e0a:    e8bd9ff0    ....    POPEQ    {r4-r12,pc}
        0x00000e0e:    eb050185    ....    ADD      r1,r5,r5,LSL #2
        0x00000e12:    482a        *H      LDR      r0,[pc,#168] ; [0xebc] = 0x1000031c
        0x00000e14:    2500        .%      MOVS     r5,#0
        0x00000e16:    f840b021    @.!.    STR      r11,[r0,r1,LSL #2]
        0x00000e1a:    eb000081    ....    ADD      r0,r0,r1,LSL #2
        0x00000e1e:    eba4010a    ....    SUB      r1,r4,r10
        0x00000e22:    f8c09010    ....    STR      r9,[r0,#0x10]
        0x00000e26:    e9c01702    ....    STRD     r1,r7,[r0,#8]
        0x00000e2a:    f02a0103    *...    BIC      r1,r10,#3
        0x00000e2e:    4431        1D      ADD      r1,r1,r6
        0x00000e30:    6041        A`      STR      r1,[r0,#4]
        0x00000e32:    9e01        ..      LDR      r6,[sp,#4]
        0x00000e34:    b934        4.      CBNZ     r4,0xe44 ; am_hal_iom_spi_write_nb + 180
        0x00000e36:    4a22        "J      LDR      r2,[pc,#136] ; [0xec0] = 0x7e8
        0x00000e38:    f2404103    @..A    MOV      r1,#0x403
        0x00000e3c:    f1020024    ..$.    ADD      r0,r2,#0x24
        0x00000e40:    f7fffa88    ....    BL       am_hal_debug_error ; 0x354
        0x00000e44:    f4046070    ..p`    AND      r0,r4,#0xf00
        0x00000e48:    ea4530c0    E..0    ORR      r0,r5,r0,LSL #15
        0x00000e4c:    b2e1        ..      UXTB     r1,r4
        0x00000e4e:    4308        .C      ORRS     r0,r0,r1
        0x00000e50:    f44f21e0    O..!    MOV      r1,#0x70000
        0x00000e54:    ea014106    ...A    AND      r1,r1,r6,LSL #16
        0x00000e58:    4308        .C      ORRS     r0,r0,r1
        0x00000e5a:    491a        .I      LDR      r1,[pc,#104] ; [0xec4] = 0x5c00ff00
        0x00000e5c:    4039        9@      ANDS     r1,r1,r7
        0x00000e5e:    4308        .C      ORRS     r0,r0,r1
        0x00000e60:    f8c80110    ....    STR      r0,[r8,#0x110]
        0x00000e64:    b004        ..      ADD      sp,sp,#0x10
        0x00000e66:    e8bd9ff0    ....    POP      {r4-r12,pc}
    $d
        0x00000e6a:    0000        ..      DCW    0
        0x00000e6c:    20495053    SPI     DCD    541675603
        0x00000e70:    6e617274    tran    DCD    1851880052
        0x00000e74:    72656673    sfer    DCD    1919247987
        0x00000e78:    6f6f7420     too    DCD    1869575200
        0x00000e7c:    67696220     big    DCD    1734959648
        0x00000e80:    0000002e    ....    DCD    46
        0x00000e84:    685f6d61    am_h    DCD    1751084385
        0x00000e88:    695f6c61    al_i    DCD    1767861345
        0x00000e8c:    632e6d6f    om.c    DCD    1663987055
        0x00000e90:    00000000    ....    DCD    0
        0x00000e94:    69797254    Tryi    DCD    1769566804
        0x00000e98:    7420676e    ng t    DCD    1948280686
        0x00000e9c:    6f64206f    o do    DCD    1868832879
        0x00000ea0:    30206120     a 0    DCD    807428384
        0x00000ea4:    74796220     byt    DCD    1954112032
        0x00000ea8:    72742065    e tr    DCD    1920213093
        0x00000eac:    61736e61    ansa    DCD    1634954849
        0x00000eb0:    6f697463    ctio    DCD    1869182051
        0x00000eb4:    0000006e    n...    DCD    110
        0x00000eb8:    10000004    ....    DCD    268435460
        0x00000ebc:    1000031c    ....    DCD    268436252
        0x00000ec0:    000007e8    ....    DCD    2024
        0x00000ec4:    5c00ff00    ...\    DCD    1543569152
    $t
    i.am_hal_iom_spi_write_nq
    am_hal_iom_spi_write_nq
        0x00000ec8:    e92d5fff    -.._    PUSH     {r0-r12,lr}
        0x00000ecc:    461d        .F      MOV      r5,r3
        0x00000ece:    f8dd9038    ..8.    LDR      r9,[sp,#0x38]
        0x00000ed2:    460f        .F      MOV      r7,r1
        0x00000ed4:    4604        .F      MOV      r4,r0
        0x00000ed6:    2802        .(      CMP      r0,#2
        0x00000ed8:    d305        ..      BCC      0xee6 ; am_hal_iom_spi_write_nq + 30
        0x00000eda:    a24d        M.      ADR      r2,{pc}+0x136 ; 0x1010
        0x00000edc:    f44f7108    O..q    MOV      r1,#0x220
        0x00000ee0:    4857        WH      LDR      r0,[pc,#348] ; [0x1040] = 0x80c
        0x00000ee2:    f7fffa37    ..7.    BL       am_hal_debug_error ; 0x354
        0x00000ee6:    2d00        .-      CMP      r5,#0
        0x00000ee8:    d02d        -.      BEQ      0xf46 ; am_hal_iom_spi_write_nq + 126
        0x00000eea:    f5b55f80    ..._    CMP      r5,#0x1000
        0x00000eee:    d305        ..      BCC      0xefc ; am_hal_iom_spi_write_nq + 52
        0x00000ef0:    a254        T.      ADR      r2,{pc}+0x154 ; 0x1044
        0x00000ef2:    f44f710a    O..q    MOV      r1,#0x228
        0x00000ef6:    4852        RH      LDR      r0,[pc,#328] ; [0x1040] = 0x80c
        0x00000ef8:    f7fffa2c    ..,.    BL       am_hal_debug_error ; 0x354
        0x00000efc:    2c02        .,      CMP      r4,#2
        0x00000efe:    bf38        8.      IT       CC
        0x00000f00:    4856        VH      LDRCC    r0,[pc,#344] ; [0x105c] = 0x10000004
        0x00000f02:    d202        ..      BCS      0xf0a ; am_hal_iom_spi_write_nq + 66
        0x00000f04:    5d01        .]      LDRB     r1,[r0,r4]
        0x00000f06:    2900        .)      CMP      r1,#0
        0x00000f08:    d1fc        ..      BNE      0xf04 ; am_hal_iom_spi_write_nq + 60
        0x00000f0a:    0320         .      LSLS     r0,r4,#12
        0x00000f0c:    f10046a0    ...F    ADD      r6,r0,#0x50000000
        0x00000f10:    f5064680    ...F    ADD      r6,r6,#0x4000
        0x00000f14:    f8d6b200    ....    LDR      r11,[r6,#0x200]
        0x00000f18:    2000        .       MOVS     r0,#0
        0x00000f1a:    f8c60200    ....    STR      r0,[r6,#0x200]
        0x00000f1e:    f8d60208    ....    LDR      r0,[r6,#0x208]
        0x00000f22:    f0400001    @...    ORR      r0,r0,#1
        0x00000f26:    f8c60208    ....    STR      r0,[r6,#0x208]
        0x00000f2a:    2d40        @-      CMP      r5,#0x40
        0x00000f2c:    bf94        ..      ITE      LS
        0x00000f2e:    46aa        .F      MOVLS    r10,r5
        0x00000f30:    f04f0a40    O.@.    MOVHI    r10,#0x40
        0x00000f34:    4652        RF      MOV      r2,r10
        0x00000f36:    4620         F      MOV      r0,r4
        0x00000f38:    9902        ..      LDR      r1,[sp,#8]
        0x00000f3a:    f7fffb87    ....    BL       am_hal_iom_fifo_write ; 0x64c
        0x00000f3e:    f04f0800    O...    MOV      r8,#0
        0x00000f42:    b97d        }.      CBNZ     r5,0xf64 ; am_hal_iom_spi_write_nq + 156
        0x00000f44:    e007        ..      B        0xf56 ; am_hal_iom_spi_write_nq + 142
        0x00000f46:    4a46        FJ      LDR      r2,[pc,#280] ; [0x1060] = 0x7e8
        0x00000f48:    f2402122    @."!    MOV      r1,#0x222
        0x00000f4c:    f1020024    ..$.    ADD      r0,r2,#0x24
        0x00000f50:    f7fffa00    ....    BL       am_hal_debug_error ; 0x354
        0x00000f54:    e7d2        ..      B        0xefc ; am_hal_iom_spi_write_nq + 52
        0x00000f56:    4a42        BJ      LDR      r2,[pc,#264] ; [0x1060] = 0x7e8
        0x00000f58:    f2404103    @..A    MOV      r1,#0x403
        0x00000f5c:    f1020024    ..$.    ADD      r0,r2,#0x24
        0x00000f60:    f7fff9f8    ....    BL       am_hal_debug_error ; 0x354
        0x00000f64:    f4056170    ..pa    AND      r1,r5,#0xf00
        0x00000f68:    ea4831c1    H..1    ORR      r1,r8,r1,LSL #15
        0x00000f6c:    b2e8        ..      UXTB     r0,r5
        0x00000f6e:    4308        .C      ORRS     r0,r0,r1
        0x00000f70:    f44f21e0    O..!    MOV      r1,#0x70000
        0x00000f74:    ea014107    ...A    AND      r1,r1,r7,LSL #16
        0x00000f78:    4308        .C      ORRS     r0,r0,r1
        0x00000f7a:    493a        :I      LDR      r1,[pc,#232] ; [0x1064] = 0x5c00ff00
        0x00000f7c:    ea090101    ....    AND      r1,r9,r1
        0x00000f80:    4308        .C      ORRS     r0,r0,r1
        0x00000f82:    f8c60110    ....    STR      r0,[r6,#0x110]
        0x00000f86:    9802        ..      LDR      r0,[sp,#8]
        0x00000f88:    f02a0103    *...    BIC      r1,r10,#3
        0x00000f8c:    eba5050a    ....    SUB      r5,r5,r10
        0x00000f90:    eb010800    ....    ADD      r8,r1,r0
        0x00000f94:    e019        ..      B        0xfca ; am_hal_iom_spi_write_nq + 258
        0x00000f96:    2c02        .,      CMP      r4,#2
        0x00000f98:    bf2f        /.      ITEEE    CS
        0x00000f9a:    2000        .       MOVCS    r0,#0
        0x00000f9c:    f8d60100    ....    LDRCC    r0,[r6,#0x100]
        0x00000fa0:    f000007f    ....    ANDCC    r0,r0,#0x7f
        0x00000fa4:    f1c00040    ..@.    RSBCC    r0,r0,#0x40
        0x00000fa8:    bf38        8.      IT       CC
        0x00000faa:    f00000fc    ....    ANDCC    r0,r0,#0xfc
        0x00000fae:    4285        .B      CMP      r5,r0
        0x00000fb0:    bf94        ..      ITE      LS
        0x00000fb2:    462f        /F      MOVLS    r7,r5
        0x00000fb4:    f0200703     ...    BICHI    r7,r0,#3
        0x00000fb8:    463a        :F      MOV      r2,r7
        0x00000fba:    4641        AF      MOV      r1,r8
        0x00000fbc:    4620         F      MOV      r0,r4
        0x00000fbe:    f7fffb45    ..E.    BL       am_hal_iom_fifo_write ; 0x64c
        0x00000fc2:    f0270003    '...    BIC      r0,r7,#3
        0x00000fc6:    1bed        ..      SUBS     r5,r5,r7
        0x00000fc8:    4480        .D      ADD      r8,r8,r0
        0x00000fca:    b125        %.      CBZ      r5,0xfd6 ; am_hal_iom_spi_write_nq + 270
        0x00000fcc:    f8d60204    ....    LDR      r0,[r6,#0x204]
        0x00000fd0:    f0100f01    ....    TST      r0,#1
        0x00000fd4:    d0df        ..      BEQ      0xf96 ; am_hal_iom_spi_write_nq + 206
        0x00000fd6:    4824        $H      LDR      r0,[pc,#144] ; [0x1068] = 0x50004204
        0x00000fd8:    2301        .#      MOVS     r3,#1
        0x00000fda:    eb003104    ...1    ADD      r1,r0,r4,LSL #12
        0x00000fde:    4823        #H      LDR      r0,[pc,#140] ; [0x106c] = 0x10000014
        0x00000fe0:    461a        .F      MOV      r2,r3
        0x00000fe2:    f8500024    P.$.    LDR      r0,[r0,r4,LSL #2]
        0x00000fe6:    f7fff9b7    ....    BL       am_hal_flash_delay_status_change ; 0x358
        0x00000fea:    4604        .F      MOV      r4,r0
        0x00000fec:    f04b0001    K...    ORR      r0,r11,#1
        0x00000ff0:    f8c60208    ....    STR      r0,[r6,#0x208]
        0x00000ff4:    f8c6b200    ....    STR      r11,[r6,#0x200]
        0x00000ff8:    2c01        .,      CMP      r4,#1
        0x00000ffa:    d005        ..      BEQ      0x1008 ; am_hal_iom_spi_write_nq + 320
        0x00000ffc:    a21c        ..      ADR      r2,{pc}+0x74 ; 0x1070
        0x00000ffe:    f2402181    @..!    MOV      r1,#0x281
        0x00001002:    480f        .H      LDR      r0,[pc,#60] ; [0x1040] = 0x80c
        0x00001004:    f7fff9a6    ....    BL       am_hal_debug_error ; 0x354
        0x00001008:    b004        ..      ADD      sp,sp,#0x10
        0x0000100a:    4620         F      MOV      r0,r4
        0x0000100c:    e8bd9ff0    ....    POP      {r4-r12,pc}
    $d
        0x00001010:    69797254    Tryi    DCD    1769566804
        0x00001014:    7420676e    ng t    DCD    1948280686
        0x00001018:    7375206f    o us    DCD    1937055855
        0x0000101c:    6e612065    e an    DCD    1851859045
        0x00001020:    4d4f4920     IOM    DCD    1297041696
        0x00001024:    646f6d20     mod    DCD    1685024032
        0x00001028:    20656c75    ule     DCD    543517813
        0x0000102c:    74616874    that    DCD    1952540788
        0x00001030:    656f6420     doe    DCD    1701798944
        0x00001034:    74276e73    sn't    DCD    1948741235
        0x00001038:    69786520     exi    DCD    1769497888
        0x0000103c:    002e7473    st..    DCD    3044467
        0x00001040:    0000080c    ....    DCD    2060
        0x00001044:    20495053    SPI     DCD    541675603
        0x00001048:    6e617274    tran    DCD    1851880052
        0x0000104c:    72656673    sfer    DCD    1919247987
        0x00001050:    6f6f7420     too    DCD    1869575200
        0x00001054:    67696220     big    DCD    1734959648
        0x00001058:    0000002e    ....    DCD    46
        0x0000105c:    10000004    ....    DCD    268435460
        0x00001060:    000007e8    ....    DCD    2024
        0x00001064:    5c00ff00    ...\    DCD    1543569152
        0x00001068:    50004204    .B.P    DCD    1342194180
        0x0000106c:    10000014    ....    DCD    268435476
        0x00001070:    204d4f49    IOM     DCD    541937481
        0x00001074:    43444d43    CMDC    DCD    1128549699
        0x00001078:    7720504d    MP w    DCD    1998606413
        0x0000107c:    6e207361    as n    DCD    1847620449
        0x00001080:    7320746f    ot s    DCD    1931506799
        0x00001084:    006e6565    een.    DCD    7234917
    $t
    i.am_hal_mcuctrl_bandgap_disable
    am_hal_mcuctrl_bandgap_disable
        0x00001088:    4902        .I      LDR      r1,[pc,#8] ; [0x1094] = 0x40020000
        0x0000108a:    f06f0001    o...    MVN      r0,#1
        0x0000108e:    f8c100fc    ....    STR      r0,[r1,#0xfc]
        0x00001092:    4770        pG      BX       lr
    $d
        0x00001094:    40020000    ...@    DCD    1073872896
    $t
    i.am_hal_mcuctrl_bucks_enable
    am_hal_mcuctrl_bucks_enable
        0x00001098:    4808        .H      LDR      r0,[pc,#32] ; [0x10bc] = 0x40020000
        0x0000109a:    6901        .i      LDR      r1,[r0,#0x10]
        0x0000109c:    f0410102    A...    ORR      r1,r1,#2
        0x000010a0:    6101        .a      STR      r1,[r0,#0x10]
        0x000010a2:    6901        .i      LDR      r1,[r0,#0x10]
        0x000010a4:    f0410101    A...    ORR      r1,r1,#1
        0x000010a8:    6101        .a      STR      r1,[r0,#0x10]
        0x000010aa:    6941        Ai      LDR      r1,[r0,#0x14]
        0x000010ac:    f0110f02    ....    TST      r1,#2
        0x000010b0:    d0fb        ..      BEQ      0x10aa ; am_hal_mcuctrl_bucks_enable + 18
        0x000010b2:    6941        Ai      LDR      r1,[r0,#0x14]
        0x000010b4:    f0110f01    ....    TST      r1,#1
        0x000010b8:    d0fb        ..      BEQ      0x10b2 ; am_hal_mcuctrl_bucks_enable + 26
        0x000010ba:    4770        pG      BX       lr
    $d
        0x000010bc:    40020000    ...@    DCD    1073872896
    $t
    i.am_hal_queue_item_add
    am_hal_queue_item_add
        0x000010c0:    e92d41f0    -..A    PUSH     {r4-r8,lr}
        0x000010c4:    4604        .F      MOV      r4,r0
        0x000010c6:    6900        .i      LDR      r0,[r0,#0x10]
        0x000010c8:    2600        .&      MOVS     r6,#0
        0x000010ca:    fb00f502    ....    MUL      r5,r0,r2
        0x000010ce:    460f        .F      MOV      r7,r1
        0x000010d0:    f7fff83a    ..:.    BL       am_hal_interrupt_master_disable ; 0x148
        0x000010d4:    4603        .F      MOV      r3,r0
        0x000010d6:    e9d41002    ....    LDRD     r1,r0,[r4,#8]
        0x000010da:    1a40        @.      SUBS     r0,r0,r1
        0x000010dc:    42a8        .B      CMP      r0,r5
        0x000010de:    d338        8.      BCC      0x1152 ; am_hal_queue_item_add + 146
        0x000010e0:    b39d        ..      CBZ      r5,0x114a ; am_hal_queue_item_add + 138
        0x000010e2:    1e78        x.      SUBS     r0,r7,#1
        0x000010e4:    f0150f01    ....    TST      r5,#1
        0x000010e8:    d00e        ..      BEQ      0x1108 ; am_hal_queue_item_add + 72
        0x000010ea:    f8d4c000    ....    LDR      r12,[r4,#0]
        0x000010ee:    6962        bi      LDR      r2,[r4,#0x14]
        0x000010f0:    f8101f01    ....    LDRB     r1,[r0,#1]!
        0x000010f4:    f802100c    ....    STRB     r1,[r2,r12]
        0x000010f8:    6821        !h      LDR      r1,[r4,#0]
        0x000010fa:    68e2        .h      LDR      r2,[r4,#0xc]
        0x000010fc:    1c49        I.      ADDS     r1,r1,#1
        0x000010fe:    fbb1fcf2    ....    UDIV     r12,r1,r2
        0x00001102:    fb02111c    ....    MLS      r1,r2,r12,r1
        0x00001106:    6021        !`      STR      r1,[r4,#0]
        0x00001108:    0869        i.      LSRS     r1,r5,#1
        0x0000110a:    d01e        ..      BEQ      0x114a ; am_hal_queue_item_add + 138
        0x0000110c:    f8d4c014    ....    LDR      r12,[r4,#0x14]
        0x00001110:    6826        &h      LDR      r6,[r4,#0]
        0x00001112:    7842        Bx      LDRB     r2,[r0,#1]
        0x00001114:    f80c2006    ...     STRB     r2,[r12,r6]
        0x00001118:    6822        "h      LDR      r2,[r4,#0]
        0x0000111a:    f8d4c00c    ....    LDR      r12,[r4,#0xc]
        0x0000111e:    1c52        R.      ADDS     r2,r2,#1
        0x00001120:    fbb2f6fc    ....    UDIV     r6,r2,r12
        0x00001124:    fb0c2216    ..."    MLS      r2,r12,r6,r2
        0x00001128:    6022        "`      STR      r2,[r4,#0]
        0x0000112a:    6966        fi      LDR      r6,[r4,#0x14]
        0x0000112c:    f810cf02    ....    LDRB     r12,[r0,#2]!
        0x00001130:    f806c002    ....    STRB     r12,[r6,r2]
        0x00001134:    6822        "h      LDR      r2,[r4,#0]
        0x00001136:    f8d4c00c    ....    LDR      r12,[r4,#0xc]
        0x0000113a:    1c52        R.      ADDS     r2,r2,#1
        0x0000113c:    fbb2f6fc    ....    UDIV     r6,r2,r12
        0x00001140:    fb0c2216    ..."    MLS      r2,r12,r6,r2
        0x00001144:    6022        "`      STR      r2,[r4,#0]
        0x00001146:    1e49        I.      SUBS     r1,r1,#1
        0x00001148:    d1e0        ..      BNE      0x110c ; am_hal_queue_item_add + 76
        0x0000114a:    68a0        .h      LDR      r0,[r4,#8]
        0x0000114c:    2601        .&      MOVS     r6,#1
        0x0000114e:    4428        (D      ADD      r0,r0,r5
        0x00001150:    60a0        .`      STR      r0,[r4,#8]
        0x00001152:    4618        .F      MOV      r0,r3
        0x00001154:    f7fefffc    ....    BL       am_hal_interrupt_master_set ; 0x150
        0x00001158:    4630        0F      MOV      r0,r6
        0x0000115a:    e8bd81f0    ....    POP      {r4-r8,pc}
    i.am_hal_rtc_osc_disable
    am_hal_rtc_osc_disable
        0x0000115e:    f04f2040    O.@     MOV      r0,#0x40004000
        0x00001162:    6d01        .m      LDR      r1,[r0,#0x50]
        0x00001164:    f0410110    A...    ORR      r1,r1,#0x10
        0x00001168:    6501        .e      STR      r1,[r0,#0x50]
        0x0000116a:    4770        pG      BX       lr
    i.am_hal_rtc_osc_select
    am_hal_rtc_osc_select
        0x0000116c:    f04f2140    O.@!    MOV      r1,#0x40004000
        0x00001170:    2800        .(      CMP      r0,#0
        0x00001172:    68c8        .h      LDR      r0,[r1,#0xc]
        0x00001174:    bf14        ..      ITE      NE
        0x00001176:    f0400080    @...    ORRNE    r0,r0,#0x80
        0x0000117a:    f0200080     ...    BICEQ    r0,r0,#0x80
        0x0000117e:    60c8        .`      STR      r0,[r1,#0xc]
        0x00001180:    4770        pG      BX       lr
        0x00001182:    0000        ..      MOVS     r0,r0
    i.am_hal_sysctrl_sleep
    am_hal_sysctrl_sleep
        0x00001184:    490a        .I      LDR      r1,[pc,#40] ; [0x11b0] = 0xe000ed10
        0x00001186:    b148        H.      CBZ      r0,0x119c ; am_hal_sysctrl_sleep + 24
        0x00001188:    480a        .H      LDR      r0,[pc,#40] ; [0x11b4] = 0x40020000
        0x0000118a:    f8d00250    ..P.    LDR      r0,[r0,#0x250]
        0x0000118e:    f0100f01    ....    TST      r0,#1
        0x00001192:    bf04        ..      ITT      EQ
        0x00001194:    6808        .h      LDREQ    r0,[r1,#0]
        0x00001196:    f0400004    @...    ORREQ    r0,r0,#4
        0x0000119a:    d002        ..      BEQ      0x11a2 ; am_hal_sysctrl_sleep + 30
        0x0000119c:    6808        .h      LDR      r0,[r1,#0]
        0x0000119e:    f0200004     ...    BIC      r0,r0,#4
        0x000011a2:    6008        .`      STR      r0,[r1,#0]
        0x000011a4:    f3bf8f4f    ..O.    DSB      
        0x000011a8:    bf30        0.      WFI      
        0x000011aa:    f3bf8f6f    ..o.    ISB      
        0x000011ae:    4770        pG      BX       lr
    $d
        0x000011b0:    e000ed10    ....    DCD    3758157072
        0x000011b4:    40020000    ...@    DCD    1073872896
    $t
    i.am_hal_vcomp_disable
    am_hal_vcomp_disable
        0x000011b8:    4901        .I      LDR      r1,[pc,#4] ; [0x11c0] = 0x4000c000
        0x000011ba:    2037        7       MOVS     r0,#0x37
        0x000011bc:    6088        .`      STR      r0,[r1,#8]
        0x000011be:    4770        pG      BX       lr
    $d
        0x000011c0:    4000c000    ...@    DCD    1073790976
    $t
    i.am_util_delay_us
    am_util_delay_us
        0x000011c4:    b570        p.      PUSH     {r4-r6,lr}
        0x000011c6:    4604        .F      MOV      r4,r0
        0x000011c8:    f7fff88c    ....    BL       am_hal_clkgen_sysclk_get ; 0x2e4
        0x000011cc:    4606        .F      MOV      r6,r0
        0x000011ce:    4804        .H      LDR      r0,[pc,#16] ; [0x11e0] = 0x2dc6c0
        0x000011d0:    fbb6f0f0    ....    UDIV     r0,r6,r0
        0x000011d4:    fb00f504    ....    MUL      r5,r0,r4
        0x000011d8:    4628        (F      MOV      r0,r5
        0x000011da:    f7feffad    ....    BL       am_hal_flash_delay ; 0x138
        0x000011de:    bd70        p.      POP      {r4-r6,pc}
    $d
        0x000011e0:    002dc6c0    ..-.    DCD    3000000
    $t
    i.configure_pins
    configure_pins
        0x000011e4:    bf00        ..      NOP      
        0x000011e6:    2073        s       MOVS     r0,#0x73
        0x000011e8:    492c        ,I      LDR      r1,[pc,#176] ; [0x129c] = 0x40010000
        0x000011ea:    6608        .f      STR      r0,[r1,#0x60]
        0x000011ec:    4608        .F      MOV      r0,r1
        0x000011ee:    6c00        .l      LDR      r0,[r0,#0x40]
        0x000011f0:    f42000e0     ...    BIC      r0,r0,#0x700000
        0x000011f4:    6408        .d      STR      r0,[r1,#0x40]
        0x000011f6:    4608        .F      MOV      r0,r1
        0x000011f8:    6840        @h      LDR      r0,[r0,#4]
        0x000011fa:    f420407f     ..@    BIC      r0,r0,#0xff00
        0x000011fe:    f4406020    @. `    ORR      r0,r0,#0xa00
        0x00001202:    6048        H`      STR      r0,[r1,#4]
        0x00001204:    2000        .       MOVS     r0,#0
        0x00001206:    6608        .f      STR      r0,[r1,#0x60]
        0x00001208:    bf00        ..      NOP      
        0x0000120a:    bf00        ..      NOP      
        0x0000120c:    2073        s       MOVS     r0,#0x73
        0x0000120e:    6608        .f      STR      r0,[r1,#0x60]
        0x00001210:    4608        .F      MOV      r0,r1
        0x00001212:    6c00        .l      LDR      r0,[r0,#0x40]
        0x00001214:    f02060e0     ..`    BIC      r0,r0,#0x7000000
        0x00001218:    6408        .d      STR      r0,[r1,#0x40]
        0x0000121a:    4608        .F      MOV      r0,r1
        0x0000121c:    6840        @h      LDR      r0,[r0,#4]
        0x0000121e:    f420007f     ...    BIC      r0,r0,#0xff0000
        0x00001222:    f4402020    @.      ORR      r0,r0,#0xa0000
        0x00001226:    6048        H`      STR      r0,[r1,#4]
        0x00001228:    2000        .       MOVS     r0,#0
        0x0000122a:    6608        .f      STR      r0,[r1,#0x60]
        0x0000122c:    bf00        ..      NOP      
        0x0000122e:    bf00        ..      NOP      
        0x00001230:    2073        s       MOVS     r0,#0x73
        0x00001232:    6608        .f      STR      r0,[r1,#0x60]
        0x00001234:    4608        .F      MOV      r0,r1
        0x00001236:    6c00        .l      LDR      r0,[r0,#0x40]
        0x00001238:    f02040e0     ..@    BIC      r0,r0,#0x70000000
        0x0000123c:    6408        .d      STR      r0,[r1,#0x40]
        0x0000123e:    4608        .F      MOV      r0,r1
        0x00001240:    6840        @h      LDR      r0,[r0,#4]
        0x00001242:    f020407f     ..@    BIC      r0,r0,#0xff000000
        0x00001246:    f0406000    @..`    ORR      r0,r0,#0x8000000
        0x0000124a:    6048        H`      STR      r0,[r1,#4]
        0x0000124c:    2000        .       MOVS     r0,#0
        0x0000124e:    6608        .f      STR      r0,[r1,#0x60]
        0x00001250:    bf00        ..      NOP      
        0x00001252:    bf00        ..      NOP      
        0x00001254:    2073        s       MOVS     r0,#0x73
        0x00001256:    6608        .f      STR      r0,[r1,#0x60]
        0x00001258:    4608        .F      MOV      r0,r1
        0x0000125a:    6c40        @l      LDR      r0,[r0,#0x44]
        0x0000125c:    f42040e0     ..@    BIC      r0,r0,#0x7000
        0x00001260:    6448        Hd      STR      r0,[r1,#0x44]
        0x00001262:    4608        .F      MOV      r0,r1
        0x00001264:    6880        .h      LDR      r0,[r0,#8]
        0x00001266:    f020407f     ..@    BIC      r0,r0,#0xff000000
        0x0000126a:    f0406000    @..`    ORR      r0,r0,#0x8000000
        0x0000126e:    6088        .`      STR      r0,[r1,#8]
        0x00001270:    2000        .       MOVS     r0,#0
        0x00001272:    6608        .f      STR      r0,[r1,#0x60]
        0x00001274:    bf00        ..      NOP      
        0x00001276:    bf00        ..      NOP      
        0x00001278:    2073        s       MOVS     r0,#0x73
        0x0000127a:    6608        .f      STR      r0,[r1,#0x60]
        0x0000127c:    4608        .F      MOV      r0,r1
        0x0000127e:    6c00        .l      LDR      r0,[r0,#0x40]
        0x00001280:    f42060e0     ..`    BIC      r0,r0,#0x700
        0x00001284:    6408        .d      STR      r0,[r1,#0x40]
        0x00001286:    4608        .F      MOV      r0,r1
        0x00001288:    6800        .h      LDR      r0,[r0,#0]
        0x0000128a:    f420007f     ...    BIC      r0,r0,#0xff0000
        0x0000128e:    f44010d8    @...    ORR      r0,r0,#0x1b0000
        0x00001292:    6008        .`      STR      r0,[r1,#0]
        0x00001294:    2000        .       MOVS     r0,#0
        0x00001296:    6608        .f      STR      r0,[r1,#0x60]
        0x00001298:    bf00        ..      NOP      
        0x0000129a:    4770        pG      BX       lr
    $d
        0x0000129c:    40010000    ...@    DCD    1073807360
    $t
    i.main
    main
        0x000012a0:    b508        ..      PUSH     {r3,lr}
        0x000012a2:    2000        .       MOVS     r0,#0
        0x000012a4:    f7fff84e    ..N.    BL       am_hal_clkgen_sysclk_select ; 0x344
        0x000012a8:    f7fefff6    ....    BL       am_bsp_low_power_init ; 0x298
        0x000012ac:    f7ffff9a    ....    BL       configure_pins ; 0x11e4
        0x000012b0:    4917        .I      LDR      r1,[pc,#92] ; [0x1310] = 0x30d0
        0x000012b2:    2000        .       MOVS     r0,#0
        0x000012b4:    f7fff892    ....    BL       am_hal_iom_config ; 0x3dc
        0x000012b8:    2000        .       MOVS     r0,#0
        0x000012ba:    f7feff97    ....    BL       am_bsp_iom_enable ; 0x1ec
        0x000012be:    f000f871    ..q.    BL       start_boot_mode ; 0x13a4
        0x000012c2:    f000f8b7    ....    BL       start_new_image ; 0x1434
        0x000012c6:    2100        .!      MOVS     r1,#0
        0x000012c8:    2012        .       MOVS     r0,#0x12
        0x000012ca:    f000f829    ..).    BL       override_pin_set ; 0x1320
        0x000012ce:    f000f903    ....    BL       transfer_image ; 0x14d8
        0x000012d2:    bf00        ..      NOP      
        0x000012d4:    480f        .H      LDR      r0,[pc,#60] ; [0x1314] = 0x40010080
        0x000012d6:    6800        .h      LDR      r0,[r0,#0]
        0x000012d8:    f0000004    ....    AND      r0,r0,#4
        0x000012dc:    2800        .(      CMP      r0,#0
        0x000012de:    d1f9        ..      BNE      0x12d4 ; main + 52
        0x000012e0:    2304        .#      MOVS     r3,#4
        0x000012e2:    4a0d        .J      LDR      r2,[pc,#52] ; [0x1318] = 0x1000012c
        0x000012e4:    4601        .F      MOV      r1,r0
        0x000012e6:    9000        ..      STR      r0,[sp,#0]
        0x000012e8:    f7fffa9a    ....    BL       am_hal_iom_spi_read ; 0x820
        0x000012ec:    480a        .H      LDR      r0,[pc,#40] ; [0x1318] = 0x1000012c
        0x000012ee:    6800        .h      LDR      r0,[r0,#0]
        0x000012f0:    2803        .(      CMP      r0,#3
        0x000012f2:    d10a        ..      BNE      0x130a ; main + 106
        0x000012f4:    2004        .       MOVS     r0,#4
        0x000012f6:    4909        .I      LDR      r1,[pc,#36] ; [0x131c] = 0x1000002c
        0x000012f8:    6008        .`      STR      r0,[r1,#0]
        0x000012fa:    0340        @.      LSLS     r0,r0,#13
        0x000012fc:    2304        .#      MOVS     r3,#4
        0x000012fe:    460a        .F      MOV      r2,r1
        0x00001300:    2100        .!      MOVS     r1,#0
        0x00001302:    9000        ..      STR      r0,[sp,#0]
        0x00001304:    4608        .F      MOV      r0,r1
        0x00001306:    f7fffc9d    ....    BL       am_hal_iom_spi_write ; 0xc44
        0x0000130a:    bf00        ..      NOP      
        0x0000130c:    e7fe        ..      B        0x130c ; main + 108
    $d
        0x0000130e:    0000        ..      DCW    0
        0x00001310:    000030d0    .0..    DCD    12496
        0x00001314:    40010080    ...@    DCD    1073807488
        0x00001318:    1000012c    ,...    DCD    268435756
        0x0000131c:    1000002c    ,...    DCD    268435500
    $t
    i.override_pin_set
    override_pin_set
        0x00001320:    b538        8.      PUSH     {r3-r5,lr}
        0x00001322:    4605        .F      MOV      r5,r0
        0x00001324:    460c        .F      MOV      r4,r1
        0x00001326:    bf00        ..      NOP      
        0x00001328:    481b        .H      LDR      r0,[pc,#108] ; [0x1398] = 0x40010080
        0x0000132a:    6800        .h      LDR      r0,[r0,#0]
        0x0000132c:    f0000004    ....    AND      r0,r0,#4
        0x00001330:    2800        .(      CMP      r0,#0
        0x00001332:    d1f9        ..      BNE      0x1328 ; override_pin_set + 8
        0x00001334:    2304        .#      MOVS     r3,#4
        0x00001336:    4a19        .J      LDR      r2,[pc,#100] ; [0x139c] = 0x1000012c
        0x00001338:    4601        .F      MOV      r1,r0
        0x0000133a:    9000        ..      STR      r0,[sp,#0]
        0x0000133c:    f7fffa70    ..p.    BL       am_hal_iom_spi_read ; 0x820
        0x00001340:    2000        .       MOVS     r0,#0
        0x00001342:    4917        .I      LDR      r1,[pc,#92] ; [0x13a0] = 0x1000002c
        0x00001344:    6008        .`      STR      r0,[r1,#0]
        0x00001346:    f44f4000    O..@    MOV      r0,#0x8000
        0x0000134a:    2304        .#      MOVS     r3,#4
        0x0000134c:    460a        .F      MOV      r2,r1
        0x0000134e:    2100        .!      MOVS     r1,#0
        0x00001350:    9000        ..      STR      r0,[sp,#0]
        0x00001352:    4608        .F      MOV      r0,r1
        0x00001354:    f7fffc76    ..v.    BL       am_hal_iom_spi_write ; 0xc44
        0x00001358:    bf00        ..      NOP      
        0x0000135a:    480f        .H      LDR      r0,[pc,#60] ; [0x1398] = 0x40010080
        0x0000135c:    6800        .h      LDR      r0,[r0,#0]
        0x0000135e:    f0000004    ....    AND      r0,r0,#4
        0x00001362:    2800        .(      CMP      r0,#0
        0x00001364:    d0f9        ..      BEQ      0x135a ; override_pin_set + 58
        0x00001366:    480e        .H      LDR      r0,[pc,#56] ; [0x13a0] = 0x1000002c
        0x00001368:    6005        .`      STR      r5,[r0,#0]
        0x0000136a:    6044        D`      STR      r4,[r0,#4]
        0x0000136c:    f44f4004    O..@    MOV      r0,#0x8400
        0x00001370:    2308        .#      MOVS     r3,#8
        0x00001372:    4a0b        .J      LDR      r2,[pc,#44] ; [0x13a0] = 0x1000002c
        0x00001374:    2100        .!      MOVS     r1,#0
        0x00001376:    9000        ..      STR      r0,[sp,#0]
        0x00001378:    4608        .F      MOV      r0,r1
        0x0000137a:    f7fffc63    ..c.    BL       am_hal_iom_spi_write ; 0xc44
        0x0000137e:    2005        .       MOVS     r0,#5
        0x00001380:    4907        .I      LDR      r1,[pc,#28] ; [0x13a0] = 0x1000002c
        0x00001382:    6008        .`      STR      r0,[r1,#0]
        0x00001384:    f44f4000    O..@    MOV      r0,#0x8000
        0x00001388:    2304        .#      MOVS     r3,#4
        0x0000138a:    460a        .F      MOV      r2,r1
        0x0000138c:    2100        .!      MOVS     r1,#0
        0x0000138e:    9000        ..      STR      r0,[sp,#0]
        0x00001390:    4608        .F      MOV      r0,r1
        0x00001392:    f7fffc57    ..W.    BL       am_hal_iom_spi_write ; 0xc44
        0x00001396:    bd38        8.      POP      {r3-r5,pc}
    $d
        0x00001398:    40010080    ...@    DCD    1073807488
        0x0000139c:    1000012c    ,...    DCD    268435756
        0x000013a0:    1000002c    ,...    DCD    268435500
    $t
    i.start_boot_mode
    start_boot_mode
        0x000013a4:    b510        ..      PUSH     {r4,lr}
        0x000013a6:    f44f3000    O..0    MOV      r0,#0x20000
        0x000013aa:    4921        !I      LDR      r1,[pc,#132] ; [0x1430] = 0x40010098
        0x000013ac:    6008        .`      STR      r0,[r1,#0]
        0x000013ae:    bf00        ..      NOP      
        0x000013b0:    2073        s       MOVS     r0,#0x73
        0x000013b2:    491f        .I      LDR      r1,[pc,#124] ; [0x1430] = 0x40010098
        0x000013b4:    3998        .9      SUBS     r1,r1,#0x98
        0x000013b6:    6608        .f      STR      r0,[r1,#0x60]
        0x000013b8:    4608        .F      MOV      r0,r1
        0x000013ba:    6c80        .l      LDR      r0,[r0,#0x48]
        0x000013bc:    f0200070     .p.    BIC      r0,r0,#0x70
        0x000013c0:    f0400020    @. .    ORR      r0,r0,#0x20
        0x000013c4:    6488        .d      STR      r0,[r1,#0x48]
        0x000013c6:    4608        .F      MOV      r0,r1
        0x000013c8:    6900        .i      LDR      r0,[r0,#0x10]
        0x000013ca:    f420407f     ..@    BIC      r0,r0,#0xff00
        0x000013ce:    f44050c0    @..P    ORR      r0,r0,#0x1800
        0x000013d2:    6108        .a      STR      r0,[r1,#0x10]
        0x000013d4:    2000        .       MOVS     r0,#0
        0x000013d6:    6608        .f      STR      r0,[r1,#0x60]
        0x000013d8:    bf00        ..      NOP      
        0x000013da:    2010        .       MOVS     r0,#0x10
        0x000013dc:    4914        .I      LDR      r1,[pc,#80] ; [0x1430] = 0x40010098
        0x000013de:    6008        .`      STR      r0,[r1,#0]
        0x000013e0:    bf00        ..      NOP      
        0x000013e2:    2073        s       MOVS     r0,#0x73
        0x000013e4:    4912        .I      LDR      r1,[pc,#72] ; [0x1430] = 0x40010098
        0x000013e6:    3998        .9      SUBS     r1,r1,#0x98
        0x000013e8:    6608        .f      STR      r0,[r1,#0x60]
        0x000013ea:    4608        .F      MOV      r0,r1
        0x000013ec:    6c00        .l      LDR      r0,[r0,#0x40]
        0x000013ee:    f42020e0     ..     BIC      r0,r0,#0x70000
        0x000013f2:    f4403000    @..0    ORR      r0,r0,#0x20000
        0x000013f6:    6408        .d      STR      r0,[r1,#0x40]
        0x000013f8:    4608        .F      MOV      r0,r1
        0x000013fa:    6840        @h      LDR      r0,[r0,#4]
        0x000013fc:    f02000ff     ...    BIC      r0,r0,#0xff
        0x00001400:    f0400018    @...    ORR      r0,r0,#0x18
        0x00001404:    6048        H`      STR      r0,[r1,#4]
        0x00001406:    2000        .       MOVS     r0,#0
        0x00001408:    6608        .f      STR      r0,[r1,#0x60]
        0x0000140a:    bf00        ..      NOP      
        0x0000140c:    2005        .       MOVS     r0,#5
        0x0000140e:    f7fffed9    ....    BL       am_util_delay_us ; 0x11c4
        0x00001412:    f44f3000    O..0    MOV      r0,#0x20000
        0x00001416:    4906        .I      LDR      r1,[pc,#24] ; [0x1430] = 0x40010098
        0x00001418:    3908        .9      SUBS     r1,r1,#8
        0x0000141a:    6008        .`      STR      r0,[r1,#0]
        0x0000141c:    bf00        ..      NOP      
        0x0000141e:    4804        .H      LDR      r0,[pc,#16] ; [0x1430] = 0x40010098
        0x00001420:    3818        .8      SUBS     r0,r0,#0x18
        0x00001422:    6800        .h      LDR      r0,[r0,#0]
        0x00001424:    f0000004    ....    AND      r0,r0,#4
        0x00001428:    2800        .(      CMP      r0,#0
        0x0000142a:    d0f8        ..      BEQ      0x141e ; start_boot_mode + 122
        0x0000142c:    bd10        ..      POP      {r4,pc}
    $d
        0x0000142e:    0000        ..      DCW    0
        0x00001430:    40010098    ...@    DCD    1073807512
    $t
    i.start_new_image
    start_new_image
        0x00001434:    b508        ..      PUSH     {r3,lr}
        0x00001436:    bf00        ..      NOP      
        0x00001438:    4823        #H      LDR      r0,[pc,#140] ; [0x14c8] = 0x40010080
        0x0000143a:    6800        .h      LDR      r0,[r0,#0]
        0x0000143c:    f0000004    ....    AND      r0,r0,#4
        0x00001440:    2800        .(      CMP      r0,#0
        0x00001442:    d1f9        ..      BNE      0x1438 ; start_new_image + 4
        0x00001444:    2010        .       MOVS     r0,#0x10
        0x00001446:    4920         I      LDR      r1,[pc,#128] ; [0x14c8] = 0x40010080
        0x00001448:    3110        .1      ADDS     r1,r1,#0x10
        0x0000144a:    6008        .`      STR      r0,[r1,#0]
        0x0000144c:    f04f31ff    O..1    MOV      r1,#0xffffffff
        0x00001450:    2000        .       MOVS     r0,#0
        0x00001452:    f7fff96b    ..k.    BL       am_hal_iom_int_clear ; 0x72c
        0x00001456:    2000        .       MOVS     r0,#0
        0x00001458:    2304        .#      MOVS     r3,#4
        0x0000145a:    4a1c        .J      LDR      r2,[pc,#112] ; [0x14cc] = 0x1000012c
        0x0000145c:    4601        .F      MOV      r1,r0
        0x0000145e:    9000        ..      STR      r0,[sp,#0]
        0x00001460:    f7fff9de    ....    BL       am_hal_iom_spi_read ; 0x820
        0x00001464:    2000        .       MOVS     r0,#0
        0x00001466:    491a        .I      LDR      r1,[pc,#104] ; [0x14d0] = 0x1000002c
        0x00001468:    6008        .`      STR      r0,[r1,#0]
        0x0000146a:    f44f4000    O..@    MOV      r0,#0x8000
        0x0000146e:    2304        .#      MOVS     r3,#4
        0x00001470:    460a        .F      MOV      r2,r1
        0x00001472:    2100        .!      MOVS     r1,#0
        0x00001474:    9000        ..      STR      r0,[sp,#0]
        0x00001476:    4608        .F      MOV      r0,r1
        0x00001478:    f7fffbe4    ....    BL       am_hal_iom_spi_write ; 0xc44
        0x0000147c:    bf00        ..      NOP      
        0x0000147e:    4812        .H      LDR      r0,[pc,#72] ; [0x14c8] = 0x40010080
        0x00001480:    6800        .h      LDR      r0,[r0,#0]
        0x00001482:    f0000004    ....    AND      r0,r0,#4
        0x00001486:    2800        .(      CMP      r0,#0
        0x00001488:    d0f9        ..      BEQ      0x147e ; start_new_image + 74
        0x0000148a:    f44f4000    O..@    MOV      r0,#0x8000
        0x0000148e:    4910        .I      LDR      r1,[pc,#64] ; [0x14d0] = 0x1000002c
        0x00001490:    6008        .`      STR      r0,[r1,#0]
        0x00001492:    f6413038    A.80    MOV      r0,#0x1b38
        0x00001496:    6048        H`      STR      r0,[r1,#4]
        0x00001498:    480e        .H      LDR      r0,[pc,#56] ; [0x14d4] = 0xf4a03140
        0x0000149a:    6088        .`      STR      r0,[r1,#8]
        0x0000149c:    f44f4004    O..@    MOV      r0,#0x8400
        0x000014a0:    230c        .#      MOVS     r3,#0xc
        0x000014a2:    460a        .F      MOV      r2,r1
        0x000014a4:    2100        .!      MOVS     r1,#0
        0x000014a6:    9000        ..      STR      r0,[sp,#0]
        0x000014a8:    4608        .F      MOV      r0,r1
        0x000014aa:    f7fffbcb    ....    BL       am_hal_iom_spi_write ; 0xc44
        0x000014ae:    2002        .       MOVS     r0,#2
        0x000014b0:    4907        .I      LDR      r1,[pc,#28] ; [0x14d0] = 0x1000002c
        0x000014b2:    6008        .`      STR      r0,[r1,#0]
        0x000014b4:    0380        ..      LSLS     r0,r0,#14
        0x000014b6:    2304        .#      MOVS     r3,#4
        0x000014b8:    460a        .F      MOV      r2,r1
        0x000014ba:    2100        .!      MOVS     r1,#0
        0x000014bc:    9000        ..      STR      r0,[sp,#0]
        0x000014be:    4608        .F      MOV      r0,r1
        0x000014c0:    f7fffbc0    ....    BL       am_hal_iom_spi_write ; 0xc44
        0x000014c4:    bd08        ..      POP      {r3,pc}
    $d
        0x000014c6:    0000        ..      DCW    0
        0x000014c8:    40010080    ...@    DCD    1073807488
        0x000014cc:    1000012c    ,...    DCD    268435756
        0x000014d0:    1000002c    ,...    DCD    268435500
        0x000014d4:    f4a03140    @1..    DCD    4104139072
    $t
    i.transfer_image
    transfer_image
        0x000014d8:    b5f8        ..      PUSH     {r3-r7,lr}
        0x000014da:    f6413638    A.86    MOV      r6,#0x1b38
        0x000014de:    2700        .'      MOVS     r7,#0
        0x000014e0:    e049        I.      B        0x1576 ; transfer_image + 158
        0x000014e2:    bf00        ..      NOP      
        0x000014e4:    4825        %H      LDR      r0,[pc,#148] ; [0x157c] = 0x40010080
        0x000014e6:    6800        .h      LDR      r0,[r0,#0]
        0x000014e8:    f0000004    ....    AND      r0,r0,#4
        0x000014ec:    2800        .(      CMP      r0,#0
        0x000014ee:    d1f9        ..      BNE      0x14e4 ; transfer_image + 12
        0x000014f0:    2304        .#      MOVS     r3,#4
        0x000014f2:    4a23        #J      LDR      r2,[pc,#140] ; [0x1580] = 0x1000012c
        0x000014f4:    4601        .F      MOV      r1,r0
        0x000014f6:    9000        ..      STR      r0,[sp,#0]
        0x000014f8:    f7fff992    ....    BL       am_hal_iom_spi_read ; 0x820
        0x000014fc:    2000        .       MOVS     r0,#0
        0x000014fe:    4921        !I      LDR      r1,[pc,#132] ; [0x1584] = 0x1000002c
        0x00001500:    6008        .`      STR      r0,[r1,#0]
        0x00001502:    f44f4000    O..@    MOV      r0,#0x8000
        0x00001506:    2304        .#      MOVS     r3,#4
        0x00001508:    460a        .F      MOV      r2,r1
        0x0000150a:    2100        .!      MOVS     r1,#0
        0x0000150c:    9000        ..      STR      r0,[sp,#0]
        0x0000150e:    4608        .F      MOV      r0,r1
        0x00001510:    f7fffb98    ....    BL       am_hal_iom_spi_write ; 0xc44
        0x00001514:    bf00        ..      NOP      
        0x00001516:    4819        .H      LDR      r0,[pc,#100] ; [0x157c] = 0x40010080
        0x00001518:    6800        .h      LDR      r0,[r0,#0]
        0x0000151a:    f0000004    ....    AND      r0,r0,#4
        0x0000151e:    2800        .(      CMP      r0,#0
        0x00001520:    d0f9        ..      BEQ      0x1516 ; transfer_image + 62
        0x00001522:    2e70        p.      CMP      r6,#0x70
        0x00001524:    d901        ..      BLS      0x152a ; transfer_image + 82
        0x00001526:    2070        p       MOVS     r0,#0x70
        0x00001528:    e000        ..      B        0x152c ; transfer_image + 84
        0x0000152a:    4630        0F      MOV      r0,r6
        0x0000152c:    4604        .F      MOV      r4,r0
        0x0000152e:    4815        .H      LDR      r0,[pc,#84] ; [0x1584] = 0x1000002c
        0x00001530:    6004        .`      STR      r4,[r0,#0]
        0x00001532:    2500        .%      MOVS     r5,#0
        0x00001534:    e006        ..      B        0x1544 ; transfer_image + 108
        0x00001536:    1978        x.      ADDS     r0,r7,r5
        0x00001538:    4913        .I      LDR      r1,[pc,#76] ; [0x1588] = 0x1598
        0x0000153a:    5c09        .\      LDRB     r1,[r1,r0]
        0x0000153c:    1d28        (.      ADDS     r0,r5,#4
        0x0000153e:    4a11        .J      LDR      r2,[pc,#68] ; [0x1584] = 0x1000002c
        0x00001540:    5411        .T      STRB     r1,[r2,r0]
        0x00001542:    1c6d        m.      ADDS     r5,r5,#1
        0x00001544:    42a5        .B      CMP      r5,r4
        0x00001546:    d3f6        ..      BCC      0x1536 ; transfer_image + 94
        0x00001548:    f44f4004    O..@    MOV      r0,#0x8400
        0x0000154c:    1d23        #.      ADDS     r3,r4,#4
        0x0000154e:    4a0d        .J      LDR      r2,[pc,#52] ; [0x1584] = 0x1000002c
        0x00001550:    2100        .!      MOVS     r1,#0
        0x00001552:    9000        ..      STR      r0,[sp,#0]
        0x00001554:    4608        .F      MOV      r0,r1
        0x00001556:    f7fffb75    ..u.    BL       am_hal_iom_spi_write ; 0xc44
        0x0000155a:    2003        .       MOVS     r0,#3
        0x0000155c:    4909        .I      LDR      r1,[pc,#36] ; [0x1584] = 0x1000002c
        0x0000155e:    6008        .`      STR      r0,[r1,#0]
        0x00001560:    f44f4000    O..@    MOV      r0,#0x8000
        0x00001564:    2304        .#      MOVS     r3,#4
        0x00001566:    460a        .F      MOV      r2,r1
        0x00001568:    2100        .!      MOVS     r1,#0
        0x0000156a:    9000        ..      STR      r0,[sp,#0]
        0x0000156c:    4608        .F      MOV      r0,r1
        0x0000156e:    f7fffb69    ..i.    BL       am_hal_iom_spi_write ; 0xc44
        0x00001572:    1b36        6.      SUBS     r6,r6,r4
        0x00001574:    4427        'D      ADD      r7,r7,r4
        0x00001576:    2e00        ..      CMP      r6,#0
        0x00001578:    d1b3        ..      BNE      0x14e2 ; transfer_image + 10
        0x0000157a:    bdf8        ..      POP      {r3-r7,pc}
    $d
        0x0000157c:    40010080    ...@    DCD    1073807488
        0x00001580:    1000012c    ,...    DCD    268435756
        0x00001584:    1000002c    ,...    DCD    268435500
        0x00001588:    00001598    ....    DCD    5528
    $t
    x$fpl$fpinit
    $v0
    _fp_init
        0x0000158c:    f04f7040    O.@p    MOV      r0,#0x3000000
        0x00001590:    eee10a10    ....    VMSR     FPSCR,r0
    __fplib_config_fpu_vfp
    __fplib_config_pureend_doubles
        0x00001594:    4770        pG      BX       lr
        0x00001596:    0000        ..      MOVS     r0,r0
    $d.realdata
    .constdata
    g_pui8ApolloBootDemo
        0x00001598:    10001000    ....    DCD    268439552
        0x0000159c:    000094a5    ....    DCD    38053
        0x000015a0:    00009511    ....    DCD    38161
        0x000015a4:    00008195    ....    DCD    33173
        0x000015a8:    00000000    ....    DCD    0
        0x000015ac:    00000000    ....    DCD    0
        0x000015b0:    00009519    ....    DCD    38169
        0x000015b4:    00000000    ....    DCD    0
        0x000015b8:    00000000    ....    DCD    0
        0x000015bc:    00000000    ....    DCD    0
        0x000015c0:    00000000    ....    DCD    0
        0x000015c4:    00009519    ....    DCD    38169
        0x000015c8:    00009519    ....    DCD    38169
        0x000015cc:    00000000    ....    DCD    0
        0x000015d0:    00009519    ....    DCD    38169
        0x000015d4:    00009519    ....    DCD    38169
        0x000015d8:    00009519    ....    DCD    38169
        0x000015dc:    00009519    ....    DCD    38169
        0x000015e0:    00009519    ....    DCD    38169
        0x000015e4:    00009519    ....    DCD    38169
        0x000015e8:    00009519    ....    DCD    38169
        0x000015ec:    00009519    ....    DCD    38169
        0x000015f0:    00009519    ....    DCD    38169
        0x000015f4:    00009519    ....    DCD    38169
        0x000015f8:    00009519    ....    DCD    38169
        0x000015fc:    00009519    ....    DCD    38169
        0x00001600:    000080c5    ....    DCD    32965
        0x00001604:    00009519    ....    DCD    38169
        0x00001608:    00009519    ....    DCD    38169
        0x0000160c:    00009519    ....    DCD    38169
        0x00001610:    00009519    ....    DCD    38169
        0x00001614:    00009519    ....    DCD    38169
        0x00001618:    b082b580    ....    DCD    2961356160
        0x0000161c:    2002af00    ...     DCD    537046784
        0x00001620:    fad0f001    ....    DCD    4207996929
        0x00001624:    f64f2000    . O.    DCD    4132380672
        0x00001628:    f00171ff    .q..    DCD    4026626559
        0x0000162c:    2000fb01    ...     DCD    536935169
        0x00001630:    f0014909    .I..    DCD    4026616073
        0x00001634:    2308fad7    ...#    DCD    587791063
        0x00001638:    687b607b    {`{h    DCD    1752916091
        0x0000163c:    2000085b    [..     DCD    536873051
        0x00001640:    71fff64f    O..q    DCD    1912600143
        0x00001644:    f001687a    zh..    DCD    4026624122
        0x00001648:    2001fafd    ...     DCD    537000701
        0x0000164c:    fb42f001    ..B.    DCD    4215468033
        0x00001650:    46bd3708    .7.F    DCD    1186805512
        0x00001654:    bf00bd80    ....    DCD    3204496768
        0x00001658:    10001000    ....    DCD    268439552
        0x0000165c:    af00b580    ....    DCD    2936059264
        0x00001660:    f0012001    . ..    DCD    4026605569
        0x00001664:    4b05fb37    7..K    DCD    1258683191
        0x00001668:    3301681b    .h.3    DCD    855730203
        0x0000166c:    60134a03    .J.`    DCD    1611876867
        0x00001670:    d9022b1f    .+..    DCD    3640797983
        0x00001674:    22004b01    .K."    DCD    570444545
        0x00001678:    bd80601a    .`..    DCD    3179307034
        0x0000167c:    10001034    4...    DCD    268439604
        0x00001680:    af00b580    ....    DCD    2936059264
        0x00001684:    f0012000    . ..    DCD    4026605568
        0x00001688:    f001fa81    ....    DCD    4026661505
        0x0000168c:    4820fa15    .. H    DCD    1210120725
        0x00001690:    f8d6f000    ....    DCD    4174835712
        0x00001694:    22734b1f    .Ks"    DCD    577981215
        0x00001698:    4b1f601a    .`.K    DCD    1260347418
        0x0000169c:    68124a1e    .J.h    DCD    1746029086
        0x000016a0:    0270f022    ".p.    DCD    40955938
        0x000016a4:    4b1d601a    .`.K    DCD    1260216346
        0x000016a8:    68124a1c    .J.h    DCD    1746029084
        0x000016ac:    427ff422    "..B    DCD    1115681826
        0x000016b0:    5280f442    B..R    DCD    1384182850
        0x000016b4:    4b17601a    .`.K    DCD    1259823130
        0x000016b8:    601a2200    .".`    DCD    1612325376
        0x000016bc:    21054818    .H.!    DCD    553994264
        0x000016c0:    f89cf001    ....    DCD    4171034625
        0x000016c4:    fb4cf001    ..L.    DCD    4216123393
        0x000016c8:    fa0af001    ....    DCD    4195020801
        0x000016cc:    ff4ef000    ..N.    DCD    4283363328
        0x000016d0:    f0004814    .H..    DCD    4026550292
        0x000016d4:    f7ffff2d    -...    DCD    4160749357
        0x000016d8:    2001ff9f    ...     DCD    537001887
        0x000016dc:    faf2f001    ....    DCD    4210225153
        0x000016e0:    f001201a    . ..    DCD    4026605594
        0x000016e4:    f001fb01    ....    DCD    4026661633
        0x000016e8:    2000fb27    '..     DCD    536935207
        0x000016ec:    71fff64f    O..q    DCD    1912600143
        0x000016f0:    fa8cf001    ....    DCD    4203540481
        0x000016f4:    fa20f001    .. .    DCD    4196462593
        0x000016f8:    f0012001    . ..    DCD    4026605569
        0x000016fc:    4b0afbe3    ...K    DCD    1259011043
        0x00001700:    4807681b    .h.H    DCD    1208444955
        0x00001704:    461a2105    .!.F    DCD    1176117509
        0x00001708:    f972f001    ..r.    DCD    4185059329
        0x0000170c:    bf00e7f4    ....    DCD    3204507636
        0x00001710:    000095f1    ....    DCD    38385
        0x00001714:    40010060    `..@    DCD    1073807456
        0x00001718:    40010054    T..@    DCD    1073807444
        0x0000171c:    40010028    (..@    DCD    1073807400
        0x00001720:    1000100c    ....    DCD    268439564
        0x00001724:    00009ac0    ....    DCD    39616
        0x00001728:    10001034    4...    DCD    268439604
        0x0000172c:    4668b580    ..hF    DCD    1181267328
        0x00001730:    f0003008    .0..    DCD    4026544136
        0x00001734:    bd01f809    ....    DCD    3171022857
        0x00001738:    bf004618    .F..    DCD    3204466200
        0x0000173c:    18400080    ..@.    DCD    406847616
        0x00001740:    47706800    .hpG    DCD    1198548992
        0x00001744:    bf004618    .F..    DCD    3204466200
        0x00001748:    b096b580    ....    DCD    2962666880
        0x0000174c:    6078af00    ..x`    DCD    1618521856
        0x00001750:    030cf107    ....    DCD    51179783
        0x00001754:    601a2200    .".`    DCD    1612325376
        0x00001758:    22003304    .3."    DCD    570438404
        0x0000175c:    3304601a    .`.3    DCD    855924762
        0x00001760:    601a2200    .".`    DCD    1612325376
        0x00001764:    22003304    .3."    DCD    570438404
        0x00001768:    3304601a    .`.3    DCD    855924762
        0x0000176c:    601a2200    .".`    DCD    1612325376
        0x00001770:    22003304    .3."    DCD    570438404
        0x00001774:    3304601a    .`.3    DCD    855924762
        0x00001778:    657b2300    .#{e    DCD    1702568704
        0x0000177c:    64fb6d7b    {m.d    DCD    1694199163
        0x00001780:    681b4b2d    -K.h    DCD    1746619181
        0x00001784:    6cfb64fb    .d.l    DCD    1828414715
        0x00001788:    f887b2db    ....    DCD    4169642715
        0x0000178c:    6cfb3050    P0.l    DCD    1828401232
        0x00001790:    b2db0a1b    ....    DCD    3000699419
        0x00001794:    3051f887    ..Q0    DCD    810678407
        0x00001798:    0c1b6cfb    .l..    DCD    203123963
        0x0000179c:    f8a7b29b    ....    DCD    4171739803
        0x000017a0:    4b263052    R0&K    DCD    1260793938
        0x000017a4:    64bb681b    .h.d    DCD    1690003483
        0x000017a8:    3051f897    ..Q0    DCD    810678423
        0x000017ac:    f003b2db    ....    DCD    4026774235
        0x000017b0:    2b000302    ...+    DCD    721421058
        0x000017b4:    2006d005    ...     DCD    537317381
        0x000017b8:    f7ff6879    yh..    DCD    4160710777
        0x000017bc:    4603ffbf    ...F    DCD    1174667199
        0x000017c0:    f04fe001    ..O.    DCD    4031766529
        0x000017c4:    647b33ff    .3{d    DCD    1685795839
        0x000017c8:    68792000    . yh    DCD    1752768512
        0x000017cc:    ffb6f7ff    ....    DCD    4290181119
        0x000017d0:    627b4603    .F{b    DCD    1652246019
        0x000017d4:    68792001    . yh    DCD    1752768513
        0x000017d8:    ffb0f7ff    ....    DCD    4289787903
        0x000017dc:    62bb4603    .F.b    DCD    1656440323
        0x000017e0:    68792002    . yh    DCD    1752768514
        0x000017e4:    ffaaf7ff    ....    DCD    4289394687
        0x000017e8:    62fb4603    .F.b    DCD    1660634627
        0x000017ec:    68792003    . yh    DCD    1752768515
        0x000017f0:    ffa4f7ff    ....    DCD    4289001471
        0x000017f4:    633b4603    .F;c    DCD    1664828931
        0x000017f8:    68792004    . yh    DCD    1752768516
        0x000017fc:    ff9ef7ff    ....    DCD    4288608255
        0x00001800:    637b4603    .F{c    DCD    1669023235
        0x00001804:    68792005    . yh    DCD    1752768517
        0x00001808:    ff98f7ff    ....    DCD    4288215039
        0x0000180c:    63bb4603    .F.c    DCD    1673217539
        0x00001810:    68792006    . yh    DCD    1752768518
        0x00001814:    ff92f7ff    ....    DCD    4287821823
        0x00001818:    63fb4603    .F.c    DCD    1677411843
        0x0000181c:    68792007    . yh    DCD    1752768519
        0x00001820:    ff8cf7ff    ....    DCD    4287428607
        0x00001824:    643b4603    .F;d    DCD    1681606147
        0x00001828:    030cf107    ....    DCD    51179783
        0x0000182c:    f0014618    .F..    DCD    4026615320
        0x00001830:    2300faf1    ...#    DCD    587266801
        0x00001834:    e7fe657b    {e..    DCD    3892209019
        0x00001838:    e000ed28    (...    DCD    3758157096
        0x0000183c:    e000ed38    8...    DCD    3758157112
        0x00001840:    b083b480    ....    DCD    2961421440
        0x00001844:    6078af00    ..x`    DCD    1618521856
        0x00001848:    687a4b03    .Kzh    DCD    1752845059
        0x0000184c:    370c601a    .`.7    DCD    923557914
        0x00001850:    f85d46bd    .F].    DCD    4166862525
        0x00001854:    47707b04    .{pG    DCD    1198553860
        0x00001858:    10001140    @...    DCD    268439872
        0x0000185c:    0fb0e92d    -...    DCD    263252269
        0x00001860:    af00b097    ....    DCD    2936058007
        0x00001864:    010ce9c7    ....    DCD    17623495
        0x00001868:    230ce9d7    ...#    DCD    588048855
        0x0000186c:    2500001c    ...%    DCD    620757020
        0x00001870:    0005ea54    T...    DCD    387668
        0x00001874:    8094f000    ....    DCD    2157244416
        0x00001878:    230ce9d7    ...#    DCD    588048855
        0x0000187c:    ea4f0859    Y.O.    DCD    3931048025
        0x00001880:    e9d70032    2...    DCD    3923181618
        0x00001884:    ea4f230c    .#O.    DCD    3931054860
        0x00001888:    ea480892    ..H.    DCD    3930589330
        0x0000188c:    ea4f7883    .xO.    DCD    3931076739
        0x00001890:    eb100993    ....    DCD    3943696787
        0x00001894:    eb410208    ..A.    DCD    3946906120
        0x00001898:    e9c70309    ....    DCD    3922133769
        0x0000189c:    e9d72314    .#..    DCD    3923190548
        0x000018a0:    ea4f2314    .#O.    DCD    3931054868
        0x000018a4:    ea4a1a12    ..J.    DCD    3930724882
        0x000018a8:    ea4f7a03    .zO.    DCD    3931077123
        0x000018ac:    e9d71b13    ....    DCD    3923188499
        0x000018b0:    eb122314    .#..    DCD    3943834388
        0x000018b4:    eb43020a    ..C.    DCD    3947037194
        0x000018b8:    e9c7030b    ....    DCD    3922133771
        0x000018bc:    e9d72314    .#..    DCD    3923190548
        0x000018c0:    0a112314    .#..    DCD    168895252
        0x000018c4:    6ab862b9    .b.j    DCD    1790468793
        0x000018c8:    6003ea40    @..`    DCD    1610869312
        0x000018cc:    0a1962b8    .b..    DCD    169435832
        0x000018d0:    e9d762f9    .b..    DCD    3923206905
        0x000018d4:    e9d72314    .#..    DCD    3923190548
        0x000018d8:    1812010a    ....    DCD    403833098
        0x000018dc:    0301eb43    C...    DCD    50457411
        0x000018e0:    2314e9c7    ...#    DCD    588573127
        0x000018e4:    2314e9d7    ...#    DCD    588573143
        0x000018e8:    62390c11    ..9b    DCD    1647905809
        0x000018ec:    ea406a38    8j@.    DCD    3930090040
        0x000018f0:    62384003    .@8b    DCD    1647853571
        0x000018f4:    62790c19    ..yb    DCD    1652100121
        0x000018f8:    2314e9d7    ...#    DCD    588573143
        0x000018fc:    0108e9d7    ....    DCD    17361367
        0x00001900:    eb431812    ..C.    DCD    3947042834
        0x00001904:    e9c70301    ....    DCD    3922133761
        0x00001908:    e9d72314    .#..    DCD    3923190548
        0x0000190c:    00192314    .#..    DCD    1647380
        0x00001910:    220061b9    .a."    DCD    570450361
        0x00001914:    e9d761fa    .a..    DCD    3923206650
        0x00001918:    e9d72314    .#..    DCD    3923190548
        0x0000191c:    18120106    ....    DCD    403833094
        0x00001920:    0301eb43    C...    DCD    50457411
        0x00001924:    2314e9c7    ...#    DCD    588573127
        0x00001928:    2314e9d7    ...#    DCD    588573143
        0x0000192c:    60b908d1    ...`    DCD    1622739153
        0x00001930:    ea4068b8    .h@.    DCD    3930089656
        0x00001934:    60b87043    Cp.`    DCD    1622700099
        0x00001938:    60f908d9    ...`    DCD    1626933465
        0x0000193c:    2302e9d7    ...#    DCD    587393495
        0x00001940:    2314e9c7    ...#    DCD    588573127
        0x00001944:    2314e9d7    ...#    DCD    588573143
        0x00001948:    eb431892    ..C.    DCD    3947042962
        0x0000194c:    00980303    ....    DCD    9962243
        0x00001950:    68796078    x`yh    DCD    1752785016
        0x00001954:    7192ea41    A..q    DCD    1905453633
        0x00001958:    00906079    y`..    DCD    9461881
        0x0000195c:    e9d76038    8`..    DCD    3923206200
        0x00001960:    18120100    ....    DCD    403833088
        0x00001964:    0301eb43    C...    DCD    50457411
        0x00001968:    010ce9d7    ....    DCD    17623511
        0x0000196c:    eb611a82    ..a.    DCD    3949009538
        0x00001970:    e9c70303    ....    DCD    3922133763
        0x00001974:    e9d72312    .#..    DCD    3923190546
        0x00001978:    32062312    .#.2    DCD    839262994
        0x0000197c:    0300f143    C...    DCD    50393411
        0x00001980:    61390911    ..9a    DCD    1631127825
        0x00001984:    ea406938    8i@.    DCD    3930089784
        0x00001988:    61387003    .p8a    DCD    1631088643
        0x0000198c:    61790919    ..ya    DCD    1635322137
        0x00001990:    2314e9d7    ...#    DCD    588573143
        0x00001994:    0104e9d7    ....    DCD    17099223
        0x00001998:    eb431812    ..C.    DCD    3947042834
        0x0000199c:    e0290301    ..).    DCD    3760784129
        0x000019a0:    647b6b3b    ;k{d    DCD    1685809979
        0x000019a4:    085a6c7b    {lZ.    DCD    140143739
        0x000019a8:    089b6c7b    {l..    DCD    144403579
        0x000019ac:    643b4413    .D;d    DCD    1681605651
        0x000019b0:    091b6c3b    ;l..    DCD    152792123
        0x000019b4:    44136c3a    :l.D    DCD    1142123578
        0x000019b8:    6c3b643b    ;d;l    DCD    1815831611
        0x000019bc:    6c3a0a1b    ..:l    DCD    1815743003
        0x000019c0:    643b4413    .D;d    DCD    1681605651
        0x000019c4:    0c1b6c3b    ;l..    DCD    203123771
        0x000019c8:    44136c3a    :l.D    DCD    1142123578
        0x000019cc:    6c3b643b    ;d;l    DCD    1815831611
        0x000019d0:    643b08db    ..;d    DCD    1681590491
        0x000019d4:    46136c3a    :l.F    DCD    1175678010
        0x000019d8:    4413009b    ...D    DCD    1142096027
        0x000019dc:    6c7a005b    [.zl    DCD    1819934811
        0x000019e0:    63fb1ad3    ...c    DCD    1677400787
        0x000019e4:    33066bfb    .k.3    DCD    856058875
        0x000019e8:    6c3b091a    ..;l    DCD    1815808282
        0x000019ec:    461a4413    .D.F    DCD    1176126483
        0x000019f0:    0300f04f    O...    DCD    50393167
        0x000019f4:    46194610    .F.F    DCD    1176061456
        0x000019f8:    46bd375c    \7.F    DCD    1186805596
        0x000019fc:    0fb0e8bd    ....    DCD    263252157
        0x00001a00:    bf004770    pG..    DCD    3204466544
        0x00001a04:    b084b580    ....    DCD    2961487232
        0x00001a08:    e9c7af00    ....    DCD    3922177792
        0x00001a0c:    683a0100    ..:h    DCD    1748631808
        0x00001a10:    4313687b    {h.C    DCD    1125345403
        0x00001a14:    bf142b00    .+..    DCD    3205769984
        0x00001a18:    23012300    .#.#    DCD    587277056
        0x00001a1c:    60fbb2db    ...`    DCD    1627108059
        0x00001a20:    e9d7e008    ....    DCD    3923238920
        0x00001a24:    f7ff0100    ....    DCD    4160684288
        0x00001a28:    e9c7ff19    ....    DCD    3922198297
        0x00001a2c:    68fb0100    ...h    DCD    1761280256
        0x00001a30:    60fb3301    .3.`    DCD    1627075329
        0x00001a34:    2300e9d7    ...#    DCD    587262423
        0x00001a38:    0103ea52    R...    DCD    17033810
        0x00001a3c:    68fbd1f1    ...h    DCD    1761333745
        0x00001a40:    37104618    .F.7    DCD    923813400
        0x00001a44:    bd8046bd    .F..    DCD    3179300541
        0x00001a48:    b082b580    ....    DCD    2961356160
        0x00001a4c:    e9c7af00    ....    DCD    3922177792
        0x00001a50:    e9d70100    ....    DCD    3923181824
        0x00001a54:    2a002300    .#.*    DCD    704652032
        0x00001a58:    0100f173    s...    DCD    16839027
        0x00001a5c:    e9d7da06    ....    DCD    3923237382
        0x00001a60:    42522300    .#RB    DCD    1112679168
        0x00001a64:    0343eb63    c.C.    DCD    54782819
        0x00001a68:    2300e9c7    ...#    DCD    587262407
        0x00001a6c:    2300e9d7    ...#    DCD    587262423
        0x00001a70:    46194610    .F.F    DCD    1176061456
        0x00001a74:    ffc6f7ff    ....    DCD    4291229695
        0x00001a78:    46184603    .F.F    DCD    1175995907
        0x00001a7c:    46bd3708    .7.F    DCD    1186805512
        0x00001a80:    bf00bd80    ....    DCD    3204496768
        0x00001a84:    b085b480    ....    DCD    2961552512
        0x00001a88:    e9c7af00    ....    DCD    3922177792
        0x00001a8c:    68380100    ..8h    DCD    1748500736
        0x00001a90:    43016879    yh.C    DCD    1124165753
        0x00001a94:    bf142900    .)..    DCD    3205769472
        0x00001a98:    21012100    .!.!    DCD    553722112
        0x00001a9c:    60f9b2c9    ...`    DCD    1626976969
        0x00001aa0:    e9d7e00a    ....    DCD    3923238922
        0x00001aa4:    09020100    ....    DCD    151126272
        0x00001aa8:    7201ea42    B..r    DCD    1912728130
        0x00001aac:    e9c7090b    ....    DCD    3922135307
        0x00001ab0:    68f92300    .#.h    DCD    1761157888
        0x00001ab4:    60f93101    .1.`    DCD    1626943745
        0x00001ab8:    0100e9d7    ....    DCD    16837079
        0x00001abc:    0c01ea50    P...    DCD    201452112
        0x00001ac0:    68fbd1ef    ...h    DCD    1761333743
        0x00001ac4:    37144618    .F.7    DCD    924075544
        0x00001ac8:    f85d46bd    .F].    DCD    4166862525
        0x00001acc:    47707b04    .{pG    DCD    1198553860
        0x00001ad0:    b087b480    ....    DCD    2961683584
        0x00001ad4:    6078af00    ..x`    DCD    1618521856
        0x00001ad8:    23006039    9`.#    DCD    587227193
        0x00001adc:    230075fb    .u.#    DCD    587232763
        0x00001ae0:    2300613b    ;a.#    DCD    587227451
        0x00001ae4:    687b60fb    .`{h    DCD    1752916219
        0x00001ae8:    2b2d781b    .x-+    DCD    724400155
        0x00001aec:    2301d108    ...#    DCD    587321608
        0x00001af0:    687b75fb    .u{h    DCD    1752921595
        0x00001af4:    607b3301    .3{`    DCD    1618686721
        0x00001af8:    330168fb    .h.3    DCD    855730427
        0x00001afc:    e01360fb    .`..    DCD    3759366395
        0x00001b00:    68fbe012    ...h    DCD    1761337362
        0x00001b04:    60fb3301    .3.`    DCD    1627075329
        0x00001b08:    4613693a    :i.F    DCD    1175677242
        0x00001b0c:    4413009b    ...D    DCD    1142096027
        0x00001b10:    613b005b    [.;a    DCD    1631256667
        0x00001b14:    781b687b    {h.x    DCD    2015062139
        0x00001b18:    693b461a    .F;i    DCD    1765492250
        0x00001b1c:    3b304413    .D0;    DCD    993018899
        0x00001b20:    687b613b    ;a{h    DCD    1752916283
        0x00001b24:    607b3301    .3{`    DCD    1618686721
        0x00001b28:    781b687b    {h.x    DCD    2015062139
        0x00001b2c:    d9032b2f    /+..    DCD    3640863535
        0x00001b30:    781b687b    {h.x    DCD    2015062139
        0x00001b34:    d9e42b39    9+..    DCD    3655609145
        0x00001b38:    2b00683b    ;h.+    DCD    721446971
        0x00001b3c:    683bd002    ..;h    DCD    1748750338
        0x00001b40:    601a68fa    .h.`    DCD    1612343546
        0x00001b44:    2b007dfb    .}.+    DCD    721452539
        0x00001b48:    693bd002    ..;i    DCD    1765527554
        0x00001b4c:    e000425b    [B..    DCD    3758113371
        0x00001b50:    4618693b    ;i.F    DCD    1176004923
        0x00001b54:    46bd371c    .7.F    DCD    1186805532
        0x00001b58:    7b04f85d    ]..{    DCD    2063923293
        0x00001b5c:    bf004770    pG..    DCD    3204466544
        0x00001b60:    b090b580    ....    DCD    2962273664
        0x00001b64:    e9c7af00    ....    DCD    3922177792
        0x00001b68:    607a0102    ..z`    DCD    1618608386
        0x00001b6c:    63fb2300    .#.c    DCD    1677402880
        0x00001b70:    63bb2300    .#.c    DCD    1673208576
        0x00001b74:    0102e9d7    ....    DCD    16968151
        0x00001b78:    fe70f7ff    ..p.    DCD    4268816383
        0x00001b7c:    010ce9c7    ....    DCD    17623495
        0x00001b80:    6b3a68b9    .h:k    DCD    1798990009
        0x00001b84:    009b4613    .F..    DCD    10176019
        0x00001b88:    005b4413    .D[.    DCD    5981203
        0x00001b8c:    62fb1acb    ...b    DCD    1660623563
        0x00001b90:    1c5a6bfb    .kZ.    DCD    475687931
        0x00001b94:    6afa63fa    .c.j    DCD    1794794490
        0x00001b98:    3230b2d2    ..02    DCD    842052306
        0x00001b9c:    f107b2d2    ....    DCD    4043813586
        0x00001ba0:    440b0140    @..D    DCD    1141571904
        0x00001ba4:    2c30f803    ..0,    DCD    741406723
        0x00001ba8:    230ce9d7    ...#    DCD    588048855
        0x00001bac:    2302e9c7    ...#    DCD    587393479
        0x00001bb0:    2302e9d7    ...#    DCD    587393495
        0x00001bb4:    0103ea52    R...    DCD    17033810
        0x00001bb8:    6bfbd1dc    ...k    DCD    1811665372
        0x00001bbc:    687b63bb    .c{h    DCD    1752916923
        0x00001bc0:    d0112b00    .+..    DCD    3490786048
        0x00001bc4:    687be008    ..{h    DCD    1752948744
        0x00001bc8:    607a1c5a    Z.z`    DCD    1618615386
        0x00001bcc:    0110f107    ....    DCD    17887495
        0x00001bd0:    440a6bfa    .k.D    DCD    1141533690
        0x00001bd4:    701a7812    .x.p    DCD    1880782866
        0x00001bd8:    1e5a6bfb    .kZ.    DCD    509242363
        0x00001bdc:    2b0063fa    .c.+    DCD    721445882
        0x00001be0:    687bd1f1    ..{h    DCD    1752945137
        0x00001be4:    701a2200    .".p    DCD    1880760832
        0x00001be8:    46186bbb    .k.F    DCD    1176005563
        0x00001bec:    46bd3740    @7.F    DCD    1186805568
        0x00001bf0:    bf00bd80    ....    DCD    3204496768
        0x00001bf4:    b08db4b0    ....    DCD    2962076848
        0x00001bf8:    e9c7af00    ....    DCD    3922177792
        0x00001bfc:    607a0102    ..z`    DCD    1618608386
        0x00001c00:    230070fb    .p.#    DCD    587231483
        0x00001c04:    e9d762fb    .b..    DCD    3923206907
        0x00001c08:    ea522302    .#R.    DCD    3931251458
        0x00001c0c:    d1090103    ....    DCD    3507028227
        0x00001c10:    1c5a6afb    .jZ.    DCD    475687675
        0x00001c14:    f10762fa    .b..    DCD    4043793146
        0x00001c18:    44130230    0..D    DCD    1142096432
        0x00001c1c:    f8032230    0"..    DCD    4160954928
        0x00001c20:    e0282c20     ,(.    DCD    3760729120
        0x00001c24:    7a3be027    '.;z    DCD    2050744359
        0x00001c28:    030ff003    ....    DCD    51376131
        0x00001c2c:    302bf887    ..+0    DCD    808188039
        0x00001c30:    302bf897    ..+0    DCD    808188055
        0x00001c34:    d90a2b09    .+..    DCD    3641322249
        0x00001c38:    2b0078fb    .x.+    DCD    721451259
        0x00001c3c:    2327d001    ..'#    DCD    589811713
        0x00001c40:    2307e000    ...#    DCD    587718656
        0x00001c44:    202bf897    ..+     DCD    539752599
        0x00001c48:    f8874413    .D..    DCD    4169614355
        0x00001c4c:    6afb302b    +0.j    DCD    1794846763
        0x00001c50:    62fa1c5a    Z..b    DCD    1660558426
        0x00001c54:    202bf897    ..+     DCD    539752599
        0x00001c58:    b2d23230    02..    DCD    3000119856
        0x00001c5c:    0130f107    ..0.    DCD    19984647
        0x00001c60:    f803440b    .D..    DCD    4160963595
        0x00001c64:    e9d72c20     ,..    DCD    3923192864
        0x00001c68:    09142302    .#..    DCD    152314626
        0x00001c6c:    7403ea44    D..t    DCD    1946413636
        0x00001c70:    e9c7091d    ....    DCD    3922135325
        0x00001c74:    e9d74502    .E..    DCD    3923199234
        0x00001c78:    ea522302    .#R.    DCD    3931251458
        0x00001c7c:    d1d20103    ....    DCD    3520200963
        0x00001c80:    627b6afb    .j{b    DCD    1652255483
        0x00001c84:    2b00687b    {h.+    DCD    721447035
        0x00001c88:    e008d011    ....    DCD    3758673937
        0x00001c8c:    1c5a687b    {hZ.    DCD    475687035
        0x00001c90:    f107607a    z`..    DCD    4043792506
        0x00001c94:    6afa0110    ...j    DCD    1794769168
        0x00001c98:    7812440a    .D.x    DCD    2014462986
        0x00001c9c:    6afb701a    .p.j    DCD    1794863130
        0x00001ca0:    62fa1e5a    Z..b    DCD    1660558938
        0x00001ca4:    d1f12b00    .+..    DCD    3522243328
        0x00001ca8:    2200687b    {h."    DCD    570452091
        0x00001cac:    6a7b701a    .p{j    DCD    1786474522
        0x00001cb0:    37344618    .F47    DCD    926172696
        0x00001cb4:    bcb046bd    .F..    DCD    3165669053
        0x00001cb8:    bf004770    pG..    DCD    3204466544
        0x00001cbc:    b085b480    ....    DCD    2961552512
        0x00001cc0:    6078af00    ..x`    DCD    1618521856
        0x00001cc4:    60fb2300    .#.`    DCD    1627071232
        0x00001cc8:    2b00687b    {h.+    DCD    721447035
        0x00001ccc:    68fbd101    ...h    DCD    1761333505
        0x00001cd0:    e002e00a    ....    DCD    3758284810
        0x00001cd4:    330168fb    .h.3    DCD    855730427
        0x00001cd8:    687b60fb    .`{h    DCD    1752916219
        0x00001cdc:    607a1c5a    Z.z`    DCD    1618615386
        0x00001ce0:    2b00781b    .x.+    DCD    721451035
        0x00001ce4:    68fbd1f6    ...h    DCD    1761333750
        0x00001ce8:    37144618    .F.7    DCD    924075544
        0x00001cec:    f85d46bd    .F].    DCD    4166862525
        0x00001cf0:    47707b04    .{pG    DCD    1198553860
        0x00001cf4:    b087b480    ....    DCD    2961683584
        0x00001cf8:    60f8af00    ...`    DCD    1626910464
        0x00001cfc:    607a460b    .Fz`    DCD    1618626059
        0x00001d00:    230072fb    .r.#    DCD    587231995
        0x00001d04:    687b617b    {a{h    DCD    1752916347
        0x00001d08:    dc012b00    .+..    DCD    3691064064
        0x00001d0c:    e011697b    {i..    DCD    3759237499
        0x00001d10:    68fbe00a    ...h    DCD    1761337354
        0x00001d14:    d0042b00    .+..    DCD    3489934080
        0x00001d18:    1c5a68fb    .hZ.    DCD    475687163
        0x00001d1c:    7afa60fa    .`.z    DCD    2063229178
        0x00001d20:    697b701a    .p{i    DCD    1769697306
        0x00001d24:    617b3301    .3{a    DCD    1635463937
        0x00001d28:    1e5a687b    {hZ.    DCD    509241467
        0x00001d2c:    2b00607a    z`.+    DCD    721444986
        0x00001d30:    697bd1ef    ..{i    DCD    1769722351
        0x00001d34:    371c4618    .F.7    DCD    924599832
        0x00001d38:    f85d46bd    .F].    DCD    4166862525
        0x00001d3c:    47707b04    .{pG    DCD    1198553860
        0x00001d40:    b08eb580    ....    DCD    2962142592
        0x00001d44:    60f8af00    ...`    DCD    1626910464
        0x00001d48:    607a60b9    .`z`    DCD    1618632889
        0x00001d4c:    681b68bb    .h.h    DCD    1746626747
        0x00001d50:    6abb62bb    .b.j    DCD    1790665403
        0x00001d54:    dc022b03    .+..    DCD    3691129603
        0x00001d58:    0302f06f    o...    DCD    50524271
        0x00001d5c:    edd7e0d6    ....    DCD    3990347990
        0x00001d60:    eef57a03    .z..    DCD    4009064963
        0x00001d64:    eef17a40    @z..    DCD    4008802880
        0x00001d68:    d104fa10    ....    DCD    3506764304
        0x00001d6c:    4a6968bb    .hiJ    DCD    1248422075
        0x00001d70:    2303601a    .`.#    DCD    587423770
        0x00001d74:    68bbe0ca    ...h    DCD    1757143242
        0x00001d78:    68fb627b    {b.h    DCD    1761305211
        0x00001d7c:    697b617b    {a{i    DCD    1769693563
        0x00001d80:    b2db15db    ....    DCD    3000702427
        0x00001d84:    623b3b7f    .;;b    DCD    1648049023
        0x00001d88:    f3c3697b    {i..    DCD    4089670011
        0x00001d8c:    f4430316    ..C.    DCD    4098032406
        0x00001d90:    61fb0300    ...a    DCD    1643840256
        0x00001d94:    633b2300    .#;c    DCD    1664819968
        0x00001d98:    637b2300    .#{c    DCD    1669014272
        0x00001d9c:    2b1e6a3b    ;j.+    DCD    723413563
        0x00001da0:    f06fdd02    ..o.    DCD    4033862914
        0x00001da4:    e0b10301    ....    DCD    3769697025
        0x00001da8:    f1136a3b    ;j..    DCD    4044581435
        0x00001dac:    da020f17    ....    DCD    3657568023
        0x00001db0:    33fff04f    O..3    DCD    872411215
        0x00001db4:    6a3be0aa    ..;j    DCD    1782309034
        0x00001db8:    dd062b16    .+..    DCD    3708168982
        0x00001dbc:    3b176a3b    ;j.;    DCD    991390267
        0x00001dc0:    fa0269fa    .i..    DCD    4194462202
        0x00001dc4:    637bf303    ..{c    DCD    1669067523
        0x00001dc8:    6a3be01a    ..;j    DCD    1782308890
        0x00001dcc:    db0f2b00    .+..    DCD    3675204352
        0x00001dd0:    f1c36a3b    ;j..    DCD    4056115771
        0x00001dd4:    69fa0317    ...i    DCD    1777992471
        0x00001dd8:    f303fa42    B...    DCD    4077124162
        0x00001ddc:    6a3b637b    {c;j    DCD    1782276987
        0x00001de0:    69fa3301    .3.i    DCD    1778004737
        0x00001de4:    f303fa02    ....    DCD    4077124098
        0x00001de8:    437ff023    #..C    DCD    1132458019
        0x00001dec:    e007633b    ;c..    DCD    3758580539
        0x00001df0:    f02369fb    .i#.    DCD    4028852731
        0x00001df4:    6a3b427f    .B;j    DCD    1782268543
        0x00001df8:    fa4243db    .CB.    DCD    4198646747
        0x00001dfc:    633bf303    ..;c    DCD    1664873219
        0x00001e00:    2b00697b    {i.+    DCD    721447291
        0x00001e04:    68bbda04    ...h    DCD    1757141508
        0x00001e08:    60ba1c5a    Z..`    DCD    1622809690
        0x00001e0c:    701a222d    -".p    DCD    1880760877
        0x00001e10:    2b006b7b    {k.+    DCD    721447803
        0x00001e14:    68bbd105    ...h    DCD    1757139205
        0x00001e18:    60ba1c5a    Z..`    DCD    1622809690
        0x00001e1c:    701a2230    0".p    DCD    1880760880
        0x00001e20:    6b7be023    #.{k    DCD    1803280419
        0x00001e24:    dd092b00    .+..    DCD    3708365568
        0x00001e28:    461a6b7b    {k.F    DCD    1176136571
        0x00001e2c:    73e2ea4f    O..s    DCD    1944250959
        0x00001e30:    46194610    .F.F    DCD    1176061456
        0x00001e34:    f7ff68ba    .h..    DCD    4160710842
        0x00001e38:    e012fe93    ....    DCD    3759341203
        0x00001e3c:    1c5a68bb    .hZ.    DCD    475687099
        0x00001e40:    222d60ba    .`-"    DCD    573399226
        0x00001e44:    6b7b701a    .p{k    DCD    1803251738
        0x00001e48:    461a425b    [B.F    DCD    1176126043
        0x00001e4c:    73e2ea4f    O..s    DCD    1944250959
        0x00001e50:    46194610    .F.F    DCD    1176061456
        0x00001e54:    f7ff68ba    .h..    DCD    4160710842
        0x00001e58:    e002fe83    ....    DCD    3758292611
        0x00001e5c:    330168bb    .h.3    DCD    855730363
        0x00001e60:    68bb60bb    .`.h    DCD    1757110459
        0x00001e64:    2b00781b    .x.+    DCD    721451035
        0x00001e68:    68bbd1f8    ...h    DCD    1757139448
        0x00001e6c:    60ba1c5a    Z..`    DCD    1622809690
        0x00001e70:    701a222e    .".p    DCD    1880760878
        0x00001e74:    2b006b3b    ;k.+    DCD    721447739
        0x00001e78:    68bbd105    ...h    DCD    1757139205
        0x00001e7c:    60ba1c5a    Z..`    DCD    1622809690
        0x00001e80:    701a2230    0".p    DCD    1880760880
        0x00001e84:    6a7ae03c    <.zj    DCD    1786437692
        0x00001e88:    1ad268bb    .h..    DCD    449996987
        0x00001e8c:    44136abb    .j.D    DCD    1142123195
        0x00001e90:    61bb3b01    .;.a    DCD    1639660289
        0x00001e94:    687b69ba    .i{h    DCD    1752918458
        0x00001e98:    bfb8429a    .B..    DCD    3216523930
        0x00001e9c:    61bb4613    .F.a    DCD    1639663123
        0x00001ea0:    62fb2300    .#.b    DCD    1660625664
        0x00001ea4:    6b3ae015    ..:k    DCD    1799020565
        0x00001ea8:    009b4613    .F..    DCD    10176019
        0x00001eac:    005b4413    .D[.    DCD    5981203
        0x00001eb0:    68bb633b    ;c.h    DCD    1757111099
        0x00001eb4:    60ba1c5a    Z..`    DCD    1622809690
        0x00001eb8:    16126b3a    :k..    DCD    370305850
        0x00001ebc:    3230b2d2    ..02    DCD    842052306
        0x00001ec0:    701ab2d2    ...p    DCD    1880797906
        0x00001ec4:    f0236b3b    ;k#.    DCD    4028853051
        0x00001ec8:    633b437f    .C;c    DCD    1664828287
        0x00001ecc:    33016afb    .j.3    DCD    855730939
        0x00001ed0:    6afa62fb    .b.j    DCD    1794794235
        0x00001ed4:    429a69bb    .i.B    DCD    1117415867
        0x00001ed8:    68bbdbe5    ...h    DCD    1757141989
        0x00001edc:    60bb3b01    .;.`    DCD    1622883073
        0x00001ee0:    68bbe002    ...h    DCD    1757143042
        0x00001ee4:    60bb3b01    .;.`    DCD    1622883073
        0x00001ee8:    781b68bb    .h.x    DCD    2015062203
        0x00001eec:    d1042b30    0+..    DCD    3506711344
        0x00001ef0:    3b0168bb    .h.;    DCD    989948091
        0x00001ef4:    2b2e781b    .x.+    DCD    724465691
        0x00001ef8:    68bbd1f3    ...h    DCD    1757139443
        0x00001efc:    60bb3301    .3.`    DCD    1622881025
        0x00001f00:    220068bb    .h."    DCD    570452155
        0x00001f04:    68ba701a    .p.h    DCD    1757048858
        0x00001f08:    1ad36a7b    {j..    DCD    450062971
        0x00001f0c:    37384618    .F87    DCD    926434840
        0x00001f10:    bd8046bd    .F..    DCD    3179300541
        0x00001f14:    00302e30    0.0.    DCD    3157552
        0x00001f18:    b094b580    ....    DCD    2962535808
        0x00001f1c:    60f8af00    ...`    DCD    1626910464
        0x00001f20:    607a60b9    .`z`    DCD    1618632889
        0x00001f24:    63fb2300    .#.c    DCD    1677402880
        0x00001f28:    627b2300    .#{b    DCD    1652237056
        0x00001f2c:    2306e2e9    ...#    DCD    587653865
        0x00001f30:    68bb633b    ;c.h    DCD    1757111099
        0x00001f34:    2b25781b    .x%+    DCD    723875867
        0x00001f38:    68fbd01f    ...h    DCD    1761333279
        0x00001f3c:    d0152b00    .+..    DCD    3491048192
        0x00001f40:    781b68bb    .h.x    DCD    2015062203
        0x00001f44:    d10b2b0a    .+..    DCD    3507170058
        0x00001f48:    781b4bb2    .K.x    DCD    2015054770
        0x00001f4c:    d0072b00    .+..    DCD    3490130688
        0x00001f50:    1c5a68fb    .hZ.    DCD    475687163
        0x00001f54:    220d60fa    .`."    DCD    571302138
        0x00001f58:    6bfb701a    .p.k    DCD    1811640346
        0x00001f5c:    63fb3301    .3.c    DCD    1677406977
        0x00001f60:    1c5a68fb    .hZ.    DCD    475687163
        0x00001f64:    68ba60fa    .`.h    DCD    1757044986
        0x00001f68:    701a7812    .x.p    DCD    1880782866
        0x00001f6c:    330168bb    .h.3    DCD    855730363
        0x00001f70:    6bfb60bb    .`.k    DCD    1811636411
        0x00001f74:    63fb3301    .3.c    DCD    1677406977
        0x00001f78:    68bbe2c3    ...h    DCD    1757143747
        0x00001f7c:    60bb3301    .3.`    DCD    1622881025
        0x00001f80:    f8872300    .#..    DCD    4169605888
        0x00001f84:    f897302d    -0..    DCD    4170657837
        0x00001f88:    f887302d    -0..    DCD    4169609261
        0x00001f8c:    2320302e    .0 #    DCD    589312046
        0x00001f90:    302ff887    ../0    DCD    808450183
        0x00001f94:    781b68bb    .h.x    DCD    2015062203
        0x00001f98:    d1052b30    0+..    DCD    3506776880
        0x00001f9c:    f8872330    0#..    DCD    4169605936
        0x00001fa0:    68bb302f    /0.h    DCD    1757098031
        0x00001fa4:    60bb3301    .3.`    DCD    1622881025
        0x00001fa8:    0310f107    ....    DCD    51441927
        0x00001fac:    461968b8    .h.F    DCD    1176070328
        0x00001fb0:    fd8ef7ff    ....    DCD    4254005247
        0x00001fb4:    63bb4603    .F.c    DCD    1673217539
        0x00001fb8:    68ba693b    ;i.h    DCD    1757047099
        0x00001fbc:    60bb4413    .D.`    DCD    1622885395
        0x00001fc0:    781b68bb    .h.x    DCD    2015062203
        0x00001fc4:    d0052b73    s+..    DCD    3489999731
        0x00001fc8:    2b006bbb    .k.+    DCD    721447867
        0x00001fcc:    6bbbda02    ...k    DCD    1807473154
        0x00001fd0:    63bb425b    [B.c    DCD    1673216603
        0x00001fd4:    781b68bb    .h.x    DCD    2015062203
        0x00001fd8:    d10e2b2e    .+..    DCD    3507366702
        0x00001fdc:    330168bb    .h.3    DCD    855730363
        0x00001fe0:    f10760bb    .`..    DCD    4043792571
        0x00001fe4:    68b80310    ...h    DCD    1756889872
        0x00001fe8:    f7ff4619    .F..    DCD    4160701977
        0x00001fec:    4603fd71    q..F    DCD    1174666609
        0x00001ff0:    693b633b    ;c;i    DCD    1765499707
        0x00001ff4:    441368ba    .h.D    DCD    1142122682
        0x00001ff8:    68bb60bb    .`.h    DCD    1757110459
        0x00001ffc:    2b6c781b    .xl+    DCD    728528923
        0x00002000:    68bbd10c    ...h    DCD    1757139212
        0x00002004:    60bb3301    .3.`    DCD    1622881025
        0x00002008:    781b68bb    .h.x    DCD    2015062203
        0x0000200c:    d1052b6c    l+..    DCD    3506776940
        0x00002010:    330168bb    .h.3    DCD    855730363
        0x00002014:    230160bb    .`.#    DCD    587292859
        0x00002018:    302df887    ..-0    DCD    808319111
        0x0000201c:    781b68bb    .h.x    DCD    2015062203
        0x00002020:    2b323b46    F;2+    DCD    724712262
        0x00002024:    825df200    ..].    DCD    2187194880
        0x00002028:    f851a101    ..Q.    DCD    4166099201
        0x0000202c:    bf00f023    #...    DCD    3204509731
        0x00002030:    00008ed1    ....    DCD    36561
        0x00002034:    00008f4b    K...    DCD    36683
        0x00002038:    00008f4b    K...    DCD    36683
        0x0000203c:    00008f4b    K...    DCD    36683
        0x00002040:    00008f4b    K...    DCD    36683
        0x00002044:    00008f4b    K...    DCD    36683
        0x00002048:    00008f4b    K...    DCD    36683
        0x0000204c:    00008f4b    K...    DCD    36683
        0x00002050:    00008f4b    K...    DCD    36683
        0x00002054:    00008f4b    K...    DCD    36683
        0x00002058:    00008f4b    K...    DCD    36683
        0x0000205c:    00008f4b    K...    DCD    36683
        0x00002060:    00008f4b    K...    DCD    36683
        0x00002064:    00008f4b    K...    DCD    36683
        0x00002068:    00008f4b    K...    DCD    36683
        0x0000206c:    00008f4b    K...    DCD    36683
        0x00002070:    00008f4b    K...    DCD    36683
        0x00002074:    00008f4b    K...    DCD    36683
        0x00002078:    00008c5f    _...    DCD    35935
        0x0000207c:    00008f4b    K...    DCD    36683
        0x00002080:    00008f4b    K...    DCD    36683
        0x00002084:    00008f4b    K...    DCD    36683
        0x00002088:    00008f4b    K...    DCD    36683
        0x0000208c:    00008f4b    K...    DCD    36683
        0x00002090:    00008f4b    K...    DCD    36683
        0x00002094:    00008f4b    K...    DCD    36683
        0x00002098:    00008f4b    K...    DCD    36683
        0x0000209c:    00008f4b    K...    DCD    36683
        0x000020a0:    00008f4b    K...    DCD    36683
        0x000020a4:    00008b65    e...    DCD    35685
        0x000020a8:    00008d95    ....    DCD    36245
        0x000020ac:    00008f4b    K...    DCD    36683
        0x000020b0:    00008ed1    ....    DCD    36561
        0x000020b4:    00008f4b    K...    DCD    36683
        0x000020b8:    00008f4b    K...    DCD    36683
        0x000020bc:    00008d95    ....    DCD    36245
        0x000020c0:    00008f4b    K...    DCD    36683
        0x000020c4:    00008f4b    K...    DCD    36683
        0x000020c8:    00008f4b    K...    DCD    36683
        0x000020cc:    00008f4b    K...    DCD    36683
        0x000020d0:    00008f4b    K...    DCD    36683
        0x000020d4:    00008f4b    K...    DCD    36683
        0x000020d8:    00008f4b    K...    DCD    36683
        0x000020dc:    00008f4b    K...    DCD    36683
        0x000020e0:    00008f4b    K...    DCD    36683
        0x000020e4:    00008b8b    ....    DCD    35723
        0x000020e8:    00008f4b    K...    DCD    36683
        0x000020ec:    00008cff    ....    DCD    36095
        0x000020f0:    00008f4b    K...    DCD    36683
        0x000020f4:    00008f4b    K...    DCD    36683
        0x000020f8:    00008c59    Y...    DCD    35929
        0x000020fc:    1d1a687b    {h..    DCD    488269947
        0x00002100:    681b607a    z`.h    DCD    1746624634
        0x00002104:    3023f887    ..#0    DCD    807663751
        0x00002108:    2b0068fb    .h.+    DCD    721447163
        0x0000210c:    68fbd005    ...h    DCD    1761333253
        0x00002110:    60fa1c5a    Z..`    DCD    1627003994
        0x00002114:    2023f897    ..#     DCD    539228311
        0x00002118:    6bfb701a    .p.k    DCD    1811640346
        0x0000211c:    63fb3301    .3.c    DCD    1677406977
        0x00002120:    687be1ec    ..{h    DCD    1752949228
        0x00002124:    607a1d1a    ..z`    DCD    1618615578
        0x00002128:    64fb681b    .h.d    DCD    1694197787
        0x0000212c:    f7ff6cf8    .l..    DCD    4160711928
        0x00002130:    6278fdc5    ..xb    DCD    1652096453
        0x00002134:    2b006bbb    .k.+    DCD    721447867
        0x00002138:    6bbadd1f    ...k    DCD    1807408415
        0x0000213c:    429a6a7b    {j.B    DCD    1117416059
        0x00002140:    6bbad91b    ...k    DCD    1807407387
        0x00002144:    1ad36a7b    {j..    DCD    450062971
        0x00002148:    f89763bb    .c..    DCD    4170671035
        0x0000214c:    68f8302f    /0.h    DCD    1761095727
        0x00002150:    6bba4619    .F.k    DCD    1807369753
        0x00002154:    fdcef7ff    ....    DCD    4258199551
        0x00002158:    68fb63b8    .c.h    DCD    1761305528
        0x0000215c:    d0012b00    .+..    DCD    3489737472
        0x00002160:    e0006bbb    .k..    DCD    3758123963
        0x00002164:    68fa2300    .#.h    DCD    1761223424
        0x00002168:    60fb4413    .D.`    DCD    1627079699
        0x0000216c:    6bfa6bbb    .k.k    DCD    1811573691
        0x00002170:    63fb4413    .D.c    DCD    1677411347
        0x00002174:    63bb2300    .#.c    DCD    1673208576
        0x00002178:    e00ee00f    ....    DCD    3759071247
        0x0000217c:    2b0068fb    .h.+    DCD    721447163
        0x00002180:    68fbd005    ...h    DCD    1761333253
        0x00002184:    60fa1c5a    Z..`    DCD    1627003994
        0x00002188:    78126cfa    .l.x    DCD    2014473466
        0x0000218c:    6cfb701a    .p.l    DCD    1828417562
        0x00002190:    64fb3301    .3.d    DCD    1694184193
        0x00002194:    33016bfb    .k.3    DCD    855731195
        0x00002198:    6cfb63fb    .c.l    DCD    1828414459
        0x0000219c:    2b00781b    .x.+    DCD    721451035
        0x000021a0:    6bbbd1ec    ...k    DCD    1807471084
        0x000021a4:    d0222b00    .+".    DCD    3491900160
        0x000021a8:    425b6bbb    .k[B    DCD    1113287611
        0x000021ac:    6bba63bb    .c.k    DCD    1807377339
        0x000021b0:    429a6a7b    {j.B    DCD    1117416059
        0x000021b4:    6bbad91b    ...k    DCD    1807407387
        0x000021b8:    1ad36a7b    {j..    DCD    450062971
        0x000021bc:    f89763bb    .c..    DCD    4170671035
        0x000021c0:    68f8302f    /0.h    DCD    1761095727
        0x000021c4:    6bba4619    .F.k    DCD    1807369753
        0x000021c8:    fd94f7ff    ....    DCD    4254398463
        0x000021cc:    68fb63b8    .c.h    DCD    1761305528
        0x000021d0:    d0012b00    .+..    DCD    3489737472
        0x000021d4:    e0006bbb    .k..    DCD    3758123963
        0x000021d8:    68fa2300    .#.h    DCD    1761223424
        0x000021dc:    60fb4413    .D.`    DCD    1627079699
        0x000021e0:    6bfa6bbb    .k.k    DCD    1811573691
        0x000021e4:    63fb4413    .D.c    DCD    1677411347
        0x000021e8:    63bb2300    .#.c    DCD    1673208576
        0x000021ec:    e185e186    ....    DCD    3783647622
        0x000021f0:    f8872301    .#..    DCD    4169605889
        0x000021f4:    f897302e    .0..    DCD    4170657838
        0x000021f8:    2b00302d    -0.+    DCD    721432621
        0x000021fc:    687bd00c    ..{h    DCD    1752944652
        0x00002200:    f0233307    .3#.    DCD    4028838663
        0x00002204:    f1030307    ....    DCD    4043506439
        0x00002208:    607a0208    ..z`    DCD    1618608648
        0x0000220c:    2300e9d3    ...#    DCD    587262419
        0x00002210:    bf00e009    ....    DCD    3204505609
        0x00002214:    10001138    8...    DCD    268439864
        0x00002218:    1d1a687b    {h..    DCD    488269947
        0x0000221c:    681b607a    z`.h    DCD    1746624634
        0x00002220:    f04f461a    .FO.    DCD    4031727130
        0x00002224:    e9c70300    ....    DCD    3922133760
        0x00002228:    6bbb2310    .#.k    DCD    1807426320
        0x0000222c:    d01e2b00    .+..    DCD    3491638016
        0x00002230:    0110e9d7    ....    DCD    17885655
        0x00002234:    fc26f7ff    ..&.    DCD    4230412287
        0x00002238:    6bba4603    .F.k    DCD    1807369731
        0x0000223c:    63bb1ad3    ...c    DCD    1673206483
        0x00002240:    302ff897    ../0    DCD    808450199
        0x00002244:    461968f8    .h.F    DCD    1176070392
        0x00002248:    f7ff6bba    .k..    DCD    4160711610
        0x0000224c:    63b8fd53    S..c    DCD    1673067859
        0x00002250:    2b0068fb    .h.+    DCD    721447163
        0x00002254:    6bbbd001    ...k    DCD    1807470593
        0x00002258:    2300e000    ...#    DCD    587259904
        0x0000225c:    441368fa    .h.D    DCD    1142122746
        0x00002260:    6bbb60fb    .`.k    DCD    1807442171
        0x00002264:    44136bfa    .k.D    DCD    1142123514
        0x00002268:    230063fb    .c.#    DCD    587228155
        0x0000226c:    f89763bb    .c..    DCD    4170671035
        0x00002270:    e9d7302e    .0..    DCD    3923193902
        0x00002274:    68fa0110    ...h    DCD    1761214736
        0x00002278:    fcbcf7ff    ....    DCD    4240242687
        0x0000227c:    68fb6378    xc.h    DCD    1761305464
        0x00002280:    d0032b00    .+..    DCD    3489868544
        0x00002284:    68fa6b7b    {k.h    DCD    1761241979
        0x00002288:    60fb4413    .D.`    DCD    1627079699
        0x0000228c:    6bfa6b7b    {k.k    DCD    1811573627
        0x00002290:    63fb4413    .D.c    DCD    1677411347
        0x00002294:    f897e132    2...    DCD    4170703154
        0x00002298:    2b00302d    -0.+    DCD    721432621
        0x0000229c:    687bd009    ..{h    DCD    1752944649
        0x000022a0:    f0233307    .3#.    DCD    4028838663
        0x000022a4:    f1030307    ....    DCD    4043506439
        0x000022a8:    607a0208    ..z`    DCD    1618608648
        0x000022ac:    2300e9d3    ...#    DCD    587262419
        0x000022b0:    687be006    ..{h    DCD    1752948742
        0x000022b4:    607a1d1a    ..z`    DCD    1618615578
        0x000022b8:    461a681b    .h.F    DCD    1176135707
        0x000022bc:    0300f04f    O...    DCD    50393167
        0x000022c0:    2310e9c7    ...#    DCD    588310983
        0x000022c4:    2b006bbb    .k.+    DCD    721447867
        0x000022c8:    e9d7d01e    ....    DCD    3923234846
        0x000022cc:    f7ff0110    ....    DCD    4160684304
        0x000022d0:    4603fb99    ...F    DCD    1174666137
        0x000022d4:    1ad36bba    .k..    DCD    450063290
        0x000022d8:    f89763bb    .c..    DCD    4170671035
        0x000022dc:    68f8302f    /0.h    DCD    1761095727
        0x000022e0:    6bba4619    .F.k    DCD    1807369753
        0x000022e4:    fd06f7ff    ....    DCD    4245092351
        0x000022e8:    68fb63b8    .c.h    DCD    1761305528
        0x000022ec:    d0012b00    .+..    DCD    3489737472
        0x000022f0:    e0006bbb    .k..    DCD    3758123963
        0x000022f4:    68fa2300    .#.h    DCD    1761223424
        0x000022f8:    60fb4413    .D.`    DCD    1627079699
        0x000022fc:    6bfa6bbb    .k.k    DCD    1811573691
        0x00002300:    63fb4413    .D.c    DCD    1677411347
        0x00002304:    63bb2300    .#.c    DCD    1673208576
        0x00002308:    0110e9d7    ....    DCD    17885655
        0x0000230c:    f7ff68fa    .h..    DCD    4160710906
        0x00002310:    6378fc27    '.xc    DCD    1668873255
        0x00002314:    2b0068fb    .h.+    DCD    721447163
        0x00002318:    6b7bd003    ..{k    DCD    1803276291
        0x0000231c:    441368fa    .h.D    DCD    1142122746
        0x00002320:    6b7b60fb    .`{k    DCD    1803247867
        0x00002324:    44136bfa    .k.D    DCD    1142123514
        0x00002328:    e0e763fb    .c..    DCD    3773260795
        0x0000232c:    302df897    ..-0    DCD    808319127
        0x00002330:    d0092b00    .+..    DCD    3490261760
        0x00002334:    3307687b    {h.3    DCD    856123515
        0x00002338:    0307f023    #...    DCD    50851875
        0x0000233c:    0208f103    ....    DCD    34140419
        0x00002340:    e9d3607a    z`..    DCD    3922944122
        0x00002344:    e0062300    .#..    DCD    3758498560
        0x00002348:    1d1a687b    {h..    DCD    488269947
        0x0000234c:    681b607a    z`.h    DCD    1746624634
        0x00002350:    ea4f461a    .FO.    DCD    3931063834
        0x00002354:    e9c773e2    .s..    DCD    3922162658
        0x00002358:    e9d72306    .#..    DCD    3923190534
        0x0000235c:    2a002306    .#.*    DCD    704652038
        0x00002360:    0100f173    s...    DCD    16839027
        0x00002364:    e9d7da0a    ....    DCD    3923237386
        0x00002368:    42522306    .#RB    DCD    1112679174
        0x0000236c:    0343eb63    c.C.    DCD    54782819
        0x00002370:    2310e9c7    ...#    DCD    588310983
        0x00002374:    f8872301    .#..    DCD    4169605889
        0x00002378:    e006302c    ,0..    DCD    3758501932
        0x0000237c:    2306e9d7    ...#    DCD    587655639
        0x00002380:    2310e9c7    ...#    DCD    588310983
        0x00002384:    f8872300    .#..    DCD    4169605888
        0x00002388:    6bbb302c    ,0.k    DCD    1807429676
        0x0000238c:    d04a2b00    .+J.    DCD    3494521600
        0x00002390:    2310e9d7    ...#    DCD    588310999
        0x00002394:    46194610    .F.F    DCD    1176061456
        0x00002398:    fb56f7ff    ..V.    DCD    4216780799
        0x0000239c:    6bba4603    .F.k    DCD    1807369731
        0x000023a0:    63bb1ad3    ...c    DCD    1673206483
        0x000023a4:    302cf897    ..,0    DCD    808253591
        0x000023a8:    d0112b00    .+..    DCD    3490786048
        0x000023ac:    3b016bbb    .k.;    DCD    989948859
        0x000023b0:    f89763bb    .c..    DCD    4170671035
        0x000023b4:    2b30302f    /00+    DCD    724578351
        0x000023b8:    68fbd10a    ...h    DCD    1761333514
        0x000023bc:    d0042b00    .+..    DCD    3489934080
        0x000023c0:    1c5a68fb    .hZ.    DCD    475687163
        0x000023c4:    222d60fa    .`-"    DCD    573399290
        0x000023c8:    6bfb701a    .p.k    DCD    1811640346
        0x000023cc:    63fb3301    .3.c    DCD    1677406977
        0x000023d0:    302ff897    ../0    DCD    808450199
        0x000023d4:    461968f8    .h.F    DCD    1176070392
        0x000023d8:    f7ff6bba    .k..    DCD    4160711610
        0x000023dc:    63b8fc8b    ...c    DCD    1673067659
        0x000023e0:    2b0068fb    .h.+    DCD    721447163
        0x000023e4:    6bbbd001    ...k    DCD    1807470593
        0x000023e8:    2300e000    ...#    DCD    587259904
        0x000023ec:    441368fa    .h.D    DCD    1142122746
        0x000023f0:    6bbb60fb    .`.k    DCD    1807442171
        0x000023f4:    44136bfa    .k.D    DCD    1142123514
        0x000023f8:    230063fb    .c.#    DCD    587228155
        0x000023fc:    f89763bb    .c..    DCD    4170671035
        0x00002400:    2b00302c    ,0.+    DCD    721432620
        0x00002404:    f897d01e    ....    DCD    4170698782
        0x00002408:    2b20302f    /0 +    DCD    723529775
        0x0000240c:    68fbd11a    ...h    DCD    1761333530
        0x00002410:    d0042b00    .+..    DCD    3489934080
        0x00002414:    1c5a68fb    .hZ.    DCD    475687163
        0x00002418:    222d60fa    .`-"    DCD    573399290
        0x0000241c:    6bfb701a    .p.k    DCD    1811640346
        0x00002420:    63fb3301    .3.c    DCD    1677406977
        0x00002424:    f897e00e    ....    DCD    4170702862
        0x00002428:    2b00302c    ,0.+    DCD    721432620
        0x0000242c:    68fbd00a    ...h    DCD    1761333258
        0x00002430:    d0042b00    .+..    DCD    3489934080
        0x00002434:    1c5a68fb    .hZ.    DCD    475687163
        0x00002438:    222d60fa    .`-"    DCD    573399290
        0x0000243c:    6bfb701a    .p.k    DCD    1811640346
        0x00002440:    63fb3301    .3.c    DCD    1677406977
        0x00002444:    0110e9d7    ....    DCD    17885655
        0x00002448:    f7ff68fa    .h..    DCD    4160710906
        0x0000244c:    6378fb89    ..xc    DCD    1668873097
        0x00002450:    2b0068fb    .h.+    DCD    721447163
        0x00002454:    6b7bd003    ..{k    DCD    1803276291
        0x00002458:    441368fa    .h.D    DCD    1142122746
        0x0000245c:    6b7b60fb    .`{k    DCD    1803247867
        0x00002460:    44136bfa    .k.D    DCD    1142123514
        0x00002464:    e04963fb    .cI.    DCD    3762906107
        0x00002468:    2b0068fb    .h.+    DCD    721447163
        0x0000246c:    687bd038    8.{h    DCD    1752944696
        0x00002470:    f0233307    .3#.    DCD    4028838663
        0x00002474:    f1030307    ....    DCD    4043506439
        0x00002478:    607a0208    ..z`    DCD    1618608648
        0x0000247c:    2300e9d3    ...#    DCD    587262419
        0x00002480:    46194610    .F.F    DCD    1176061456
        0x00002484:    fd98f000    ....    DCD    4254658560
        0x00002488:    617b4603    .F{a    DCD    1635468803
        0x0000248c:    221468fb    .h."    DCD    571762939
        0x00002490:    6978601a    .`xi    DCD    1769496602
        0x00002494:    6b3a68f9    .h:k    DCD    1798990073
        0x00002498:    fc52f7ff    ..R.    DCD    4233295871
        0x0000249c:    6b7b6378    xc{k    DCD    1803248504
        0x000024a0:    da142b00    .+..    DCD    3658754816
        0x000024a4:    f1b36b7b    {k..    DCD    4055067515
        0x000024a8:    d1023fff    .?..    DCD    3506585599
        0x000024ac:    62bb4b1d    .K.b    DCD    1656441629
        0x000024b0:    6b7be008    ..{k    DCD    1803280392
        0x000024b4:    0f02f113    ....    DCD    251851027
        0x000024b8:    4b1bd102    ...K    DCD    1260114178
        0x000024bc:    e00162bb    .b..    DCD    3758187195
        0x000024c0:    62bb4b1a    .K.b    DCD    1656441626
        0x000024c4:    6aba68fb    .h.j    DCD    1790601467
        0x000024c8:    2303601a    .`.#    DCD    587423770
        0x000024cc:    6b7b637b    {c{k    DCD    1803248507
        0x000024d0:    44136bfa    .k.D    DCD    1142123514
        0x000024d4:    6b7b63fb    .c{k    DCD    1803248635
        0x000024d8:    441368fa    .h.D    DCD    1142122746
        0x000024dc:    e00d60fb    .`..    DCD    3758973179
        0x000024e0:    68fbe00c    ...h    DCD    1761337356
        0x000024e4:    d0052b00    .+..    DCD    3489999616
        0x000024e8:    1c5a68fb    .hZ.    DCD    475687163
        0x000024ec:    68ba60fa    .`.h    DCD    1757044986
        0x000024f0:    701a7812    .x.p    DCD    1880782866
        0x000024f4:    33016bfb    .k.3    DCD    855731195
        0x000024f8:    bf0063fb    .c..    DCD    3204473851
        0x000024fc:    330168bb    .h.3    DCD    855730363
        0x00002500:    68bb60bb    .`.h    DCD    1757110459
        0x00002504:    2b00781b    .x.+    DCD    721451035
        0x00002508:    ad11f47f    ....    DCD    2903635071
        0x0000250c:    2b0068fb    .h.+    DCD    721447163
        0x00002510:    68fbd002    ...h    DCD    1761333250
        0x00002514:    701a2200    .".p    DCD    1880760832
        0x00002518:    46186bfb    .k.F    DCD    1176005627
        0x0000251c:    46bd3750    P7.F    DCD    1186805584
        0x00002520:    bf00bd80    ....    DCD    3204496768
        0x00002524:    00302e30    0.0.    DCD    3157552
        0x00002528:    00232e23    #.#.    DCD    2305571
        0x0000252c:    003f2e3f    ?.?.    DCD    4140607
        0x00002530:    b580b40f    ....    DCD    3045110799
        0x00002534:    af00b082    ....    DCD    2936057986
        0x00002538:    0314f107    ....    DCD    51704071
        0x0000253c:    4809603b    ;`.H    DCD    1208574011
        0x00002540:    683a6939    9i:h    DCD    1748658489
        0x00002544:    fce8f7ff    ....    DCD    4243126271
        0x00002548:    4b076078    x`.K    DCD    1258774648
        0x0000254c:    4805681b    .h.H    DCD    1208313883
        0x00002550:    687b4798    .G{h    DCD    1752909720
        0x00002554:    37084618    .F.7    DCD    923289112
        0x00002558:    e8bd46bd    .F..    DCD    3904718525
        0x0000255c:    b0044080    .@..    DCD    2953068672
        0x00002560:    bf004770    pG..    DCD    3204466544
        0x00002564:    10001038    8...    DCD    268439608
        0x00002568:    10001140    @...    DCD    268439872
        0x0000256c:    af00b580    ....    DCD    2936059264
        0x00002570:    f7ff4801    .H..    DCD    4160702465
        0x00002574:    bd80ffdd    ....    DCD    3179347933
        0x00002578:    00009ad8    ....    DCD    39640
        0x0000257c:    b082b490    ....    DCD    2961355920
        0x00002580:    6078af00    ..x`    DCD    1618521856
        0x00002584:    685b687b    {h[h    DCD    1750820987
        0x00002588:    0302f003    ....    DCD    50524163
        0x0000258c:    f0002b00    .+..    DCD    4026542848
        0x00002590:    687b8094    ..{h    DCD    1752924308
        0x00002594:    2b00681b    .h.+    DCD    721446939
        0x00002598:    e04dda00    ..M.    DCD    3763198464
        0x0000259c:    22734b92    .Ks"    DCD    577981330
        0x000025a0:    687b601a    .`{h    DCD    1752915994
        0x000025a4:    f003681b    .h..    DCD    4026755099
        0x000025a8:    085a03f8    ..Z.    DCD    140116984
        0x000025ac:    44134b8f    .K.D    DCD    1142115215
        0x000025b0:    687b461a    .F{h    DCD    1752909338
        0x000025b4:    f003681b    .h..    DCD    4026755099
        0x000025b8:    009b0307    ....    DCD    10158855
        0x000025bc:    40992102    .!.@    DCD    1083777282
        0x000025c0:    681b687b    {h.h    DCD    1746626683
        0x000025c4:    03f8f003    ....    DCD    66646019
        0x000025c8:    4b880858    X..K    DCD    1267206232
        0x000025cc:    68184403    .D.h    DCD    1746420739
        0x000025d0:    681b687b    {h.h    DCD    1746626683
        0x000025d4:    0307f003    ....    DCD    50851843
        0x000025d8:    2407009b    ...$    DCD    604438683
        0x000025dc:    f303fa04    ....    DCD    4077124100
        0x000025e0:    400343db    .C.@    DCD    1073955803
        0x000025e4:    6013430b    .C.`    DCD    1611875083
        0x000025e8:    681b687b    {h.h    DCD    1746626683
        0x000025ec:    03fcf003    ....    DCD    66908163
        0x000025f0:    4380f103    ...C    DCD    1132523779
        0x000025f4:    3380f503    ...3    DCD    864089347
        0x000025f8:    687b461a    .F{h    DCD    1752909338
        0x000025fc:    f003681b    .h..    DCD    4026755099
        0x00002600:    00db0303    ....    DCD    14353155
        0x00002604:    40992118    .!.@    DCD    1083777304
        0x00002608:    681b687b    {h.h    DCD    1746626683
        0x0000260c:    03fcf003    ....    DCD    66908163
        0x00002610:    4380f103    ...C    DCD    1132523779
        0x00002614:    3380f503    ...3    DCD    864089347
        0x00002618:    687b6818    .h{h    DCD    1752918040
        0x0000261c:    f003681b    .h..    DCD    4026755099
        0x00002620:    00db0303    ....    DCD    14353155
        0x00002624:    fa0424ff    .$..    DCD    4194575615
        0x00002628:    43dbf303    ...C    DCD    1138488067
        0x0000262c:    430b4003    .@.C    DCD    1124810755
        0x00002630:    4b6d6013    .`mK    DCD    1265459219
        0x00002634:    601a2200    .".`    DCD    1612325376
        0x00002638:    681b687b    {h.h    DCD    1746626683
        0x0000263c:    0320f003    .. .    DCD    52490243
        0x00002640:    4b6b08da    ..kK    DCD    1265305818
        0x00002644:    687a4413    .Dzh    DCD    1752843283
        0x00002648:    f0026812    .h..    DCD    4026689554
        0x0000264c:    2101021f    ...!    DCD    553714207
        0x00002650:    f202fa01    ....    DCD    4060281345
        0x00002654:    687b601a    .`{h    DCD    1752915994
        0x00002658:    f003681b    .h..    DCD    4026755099
        0x0000265c:    08da0320     ...    DCD    148505376
        0x00002660:    44134b64    dK.D    DCD    1142115172
        0x00002664:    687b461a    .F{h    DCD    1752909338
        0x00002668:    f003685b    [h..    DCD    4026755163
        0x0000266c:    2b000301    ...+    DCD    721421057
        0x00002670:    687bd010    ..{h    DCD    1752944656
        0x00002674:    f003681b    .h..    DCD    4026755099
        0x00002678:    08d90320     ...    DCD    148439840
        0x0000267c:    440b4b5d    ]K.D    DCD    1141590877
        0x00002680:    687b6819    .h{h    DCD    1752918041
        0x00002684:    f003681b    .h..    DCD    4026755099
        0x00002688:    2001031f    ...     DCD    536937247
        0x0000268c:    f303fa00    ....    DCD    4077124096
        0x00002690:    e010430b    .C..    DCD    3759162123
        0x00002694:    681b687b    {h.h    DCD    1746626683
        0x00002698:    0320f003    .. .    DCD    52490243
        0x0000269c:    4b5508d9    ..UK    DCD    1263864025
        0x000026a0:    6819440b    .D.h    DCD    1746486283
        0x000026a4:    681b687b    {h.h    DCD    1746626683
        0x000026a8:    031ff003    ....    DCD    52424707
        0x000026ac:    fa002001    . ..    DCD    4194312193
        0x000026b0:    43dbf303    ...C    DCD    1138488067
        0x000026b4:    6013400b    .@.`    DCD    1611874315
        0x000026b8:    687be092    ..{h    DCD    1752948882
        0x000026bc:    2b00681b    .h.+    DCD    721446939
        0x000026c0:    e04dda00    ..M.    DCD    3763198464
        0x000026c4:    22734b48    HKs"    DCD    577981256
        0x000026c8:    687b601a    .`{h    DCD    1752915994
        0x000026cc:    f003681b    .h..    DCD    4026755099
        0x000026d0:    085a03f8    ..Z.    DCD    140116984
        0x000026d4:    44134b45    EK.D    DCD    1142115141
        0x000026d8:    687b461a    .F{h    DCD    1752909338
        0x000026dc:    f003681b    .h..    DCD    4026755099
        0x000026e0:    009b0307    ....    DCD    10158855
        0x000026e4:    40992106    .!.@    DCD    1083777286
        0x000026e8:    681b687b    {h.h    DCD    1746626683
        0x000026ec:    03f8f003    ....    DCD    66646019
        0x000026f0:    4b3e0858    X.>K    DCD    1262356568
        0x000026f4:    68184403    .D.h    DCD    1746420739
        0x000026f8:    681b687b    {h.h    DCD    1746626683
        0x000026fc:    0307f003    ....    DCD    50851843
        0x00002700:    2407009b    ...$    DCD    604438683
        0x00002704:    f303fa04    ....    DCD    4077124100
        0x00002708:    400343db    .C.@    DCD    1073955803
        0x0000270c:    6013430b    .C.`    DCD    1611875083
        0x00002710:    681b687b    {h.h    DCD    1746626683
        0x00002714:    03fcf003    ....    DCD    66908163
        0x00002718:    4380f103    ...C    DCD    1132523779
        0x0000271c:    3380f503    ...3    DCD    864089347
        0x00002720:    687b461a    .F{h    DCD    1752909338
        0x00002724:    f003681b    .h..    DCD    4026755099
        0x00002728:    00db0303    ....    DCD    14353155
        0x0000272c:    40992118    .!.@    DCD    1083777304
        0x00002730:    681b687b    {h.h    DCD    1746626683
        0x00002734:    03fcf003    ....    DCD    66908163
        0x00002738:    4380f103    ...C    DCD    1132523779
        0x0000273c:    3380f503    ...3    DCD    864089347
        0x00002740:    687b6818    .h{h    DCD    1752918040
        0x00002744:    f003681b    .h..    DCD    4026755099
        0x00002748:    00db0303    ....    DCD    14353155
        0x0000274c:    fa0424ff    .$..    DCD    4194575615
        0x00002750:    43dbf303    ...C    DCD    1138488067
        0x00002754:    430b4003    .@.C    DCD    1124810755
        0x00002758:    4b236013    .`#K    DCD    1260609555
        0x0000275c:    601a2200    .".`    DCD    1612325376
        0x00002760:    681b687b    {h.h    DCD    1746626683
        0x00002764:    0320f003    .. .    DCD    52490243
        0x00002768:    4b2308da    ..#K    DCD    1260587226
        0x0000276c:    687a4413    .Dzh    DCD    1752843283
        0x00002770:    f0026812    .h..    DCD    4026689554
        0x00002774:    2101021f    ...!    DCD    553714207
        0x00002778:    f202fa01    ....    DCD    4060281345
        0x0000277c:    687b601a    .`{h    DCD    1752915994
        0x00002780:    f003681b    .h..    DCD    4026755099
        0x00002784:    08da0320     ...    DCD    148505376
        0x00002788:    44134b1a    .K.D    DCD    1142115098
        0x0000278c:    687b461a    .F{h    DCD    1752909338
        0x00002790:    f003685b    [h..    DCD    4026755163
        0x00002794:    2b000301    ...+    DCD    721421057
        0x00002798:    687bd010    ..{h    DCD    1752944656
        0x0000279c:    f003681b    .h..    DCD    4026755099
        0x000027a0:    08d90320     ...    DCD    148439840
        0x000027a4:    440b4b13    .K.D    DCD    1141590803
        0x000027a8:    687b6819    .h{h    DCD    1752918041
        0x000027ac:    f003681b    .h..    DCD    4026755099
        0x000027b0:    2001031f    ...     DCD    536937247
        0x000027b4:    f303fa00    ....    DCD    4077124096
        0x000027b8:    e010430b    .C..    DCD    3759162123
        0x000027bc:    681b687b    {h.h    DCD    1746626683
        0x000027c0:    0320f003    .. .    DCD    52490243
        0x000027c4:    4b0b08d9    ...K    DCD    1259014361
        0x000027c8:    6819440b    .D.h    DCD    1746486283
        0x000027cc:    681b687b    {h.h    DCD    1746626683
        0x000027d0:    031ff003    ....    DCD    52424707
        0x000027d4:    fa002001    . ..    DCD    4194312193
        0x000027d8:    43dbf303    ...C    DCD    1138488067
        0x000027dc:    6013400b    .@.`    DCD    1611874315
        0x000027e0:    46bd3708    .7.F    DCD    1186805512
        0x000027e4:    4770bc90    ..pG    DCD    1198570640
        0x000027e8:    40010060    `..@    DCD    1073807456
        0x000027ec:    40010040    @..@    DCD    1073807424
        0x000027f0:    400100a8    ...@    DCD    1073807528
        0x000027f4:    40010088    ...@    DCD    1073807496
        0x000027f8:    400100b4    ...@    DCD    1073807540
        0x000027fc:    b084b580    ....    DCD    2961487232
        0x00002800:    6078af00    ..x`    DCD    1618521856
        0x00002804:    23006039    9`.#    DCD    587227193
        0x00002808:    e00960fb    .`..    DCD    3758711035
        0x0000280c:    00db68fb    .h..    DCD    14379259
        0x00002810:    4413687a    zh.D    DCD    1142122618
        0x00002814:    f7ff4618    .F..    DCD    4160701976
        0x00002818:    68fbfeb1    ...h    DCD    1761345201
        0x0000281c:    60fb3301    .3.`    DCD    1627075329
        0x00002820:    683b68fa    .h;h    DCD    1748723962
        0x00002824:    d3f1429a    .B..    DCD    3555803802
        0x00002828:    46bd3710    .7.F    DCD    1186805520
        0x0000282c:    bf00bd80    ....    DCD    3204496768
        0x00002830:    b083b480    ....    DCD    2961421440
        0x00002834:    6078af00    ..x`    DCD    1618521856
        0x00002838:    683b6039    9`;h    DCD    1748721721
        0x0000283c:    687a00db    ..zh    DCD    1752826075
        0x00002840:    685b4413    .D[h    DCD    1750811667
        0x00002844:    0302f003    ....    DCD    50524163
        0x00002848:    d0432b00    .+C.    DCD    3494062848
        0x0000284c:    00db683b    ;h..    DCD    14379067
        0x00002850:    4413687a    zh.D    DCD    1142122618
        0x00002854:    f003681b    .h..    DCD    4026755099
        0x00002858:    08da0320     ...    DCD    148505376
        0x0000285c:    44134b2a    *K.D    DCD    1142115114
        0x00002860:    683b461a    .F;h    DCD    1748715034
        0x00002864:    687900db    ..yh    DCD    1752760539
        0x00002868:    685b440b    .D[h    DCD    1750811659
        0x0000286c:    0301f003    ....    DCD    50458627
        0x00002870:    d0162b00    .+..    DCD    3491113728
        0x00002874:    00db683b    ;h..    DCD    14379067
        0x00002878:    440b6879    yh.D    DCD    1141598329
        0x0000287c:    f003681b    .h..    DCD    4026755099
        0x00002880:    08d90320     ...    DCD    148439840
        0x00002884:    440b4b20     K.D    DCD    1141590816
        0x00002888:    683b6819    .h;h    DCD    1748723737
        0x0000288c:    687800db    ..xh    DCD    1752695003
        0x00002890:    681b4403    .D.h    DCD    1746617347
        0x00002894:    031ff003    ....    DCD    52424707
        0x00002898:    fa002001    . ..    DCD    4194312193
        0x0000289c:    430bf303    ...C    DCD    1124856579
        0x000028a0:    683be016    ..;h    DCD    1748754454
        0x000028a4:    687900db    ..yh    DCD    1752760539
        0x000028a8:    681b440b    .D.h    DCD    1746617355
        0x000028ac:    0320f003    .. .    DCD    52490243
        0x000028b0:    4b1508d9    ...K    DCD    1259669721
        0x000028b4:    6819440b    .D.h    DCD    1746486283
        0x000028b8:    00db683b    ;h..    DCD    14379067
        0x000028bc:    44036878    xh.D    DCD    1141074040
        0x000028c0:    f003681b    .h..    DCD    4026755099
        0x000028c4:    2001031f    ...     DCD    536937247
        0x000028c8:    f303fa00    ....    DCD    4077124096
        0x000028cc:    400b43db    .C.@    DCD    1074480091
        0x000028d0:    e0146013    .`..    DCD    3759431699
        0x000028d4:    00db683b    ;h..    DCD    14379067
        0x000028d8:    4413687a    zh.D    DCD    1142122618
        0x000028dc:    f003681b    .h..    DCD    4026755099
        0x000028e0:    08da0320     ...    DCD    148505376
        0x000028e4:    44134b09    .K.D    DCD    1142115081
        0x000028e8:    00d2683a    :h..    DCD    13789242
        0x000028ec:    440a6879    yh.D    DCD    1141532793
        0x000028f0:    f0026812    .h..    DCD    4026689554
        0x000028f4:    2101021f    ...!    DCD    553714207
        0x000028f8:    f202fa01    ....    DCD    4060281345
        0x000028fc:    370c601a    .`.7    DCD    923557914
        0x00002900:    f85d46bd    .F].    DCD    4166862525
        0x00002904:    47707b04    .{pG    DCD    1198553860
        0x00002908:    40010088    ...@    DCD    1073807496
        0x0000290c:    400100a8    ...@    DCD    1073807528
        0x00002910:    b083b480    ....    DCD    2961421440
        0x00002914:    6078af00    ..x`    DCD    1618521856
        0x00002918:    683b6039    9`;h    DCD    1748721721
        0x0000291c:    687a00db    ..zh    DCD    1752826075
        0x00002920:    685b4413    .D[h    DCD    1750811667
        0x00002924:    0302f003    ....    DCD    50524163
        0x00002928:    d0432b00    .+C.    DCD    3494062848
        0x0000292c:    00db683b    ;h..    DCD    14379067
        0x00002930:    4413687a    zh.D    DCD    1142122618
        0x00002934:    f003681b    .h..    DCD    4026755099
        0x00002938:    08da0320     ...    DCD    148505376
        0x0000293c:    44134b2a    *K.D    DCD    1142115114
        0x00002940:    683b461a    .F;h    DCD    1748715034
        0x00002944:    687900db    ..yh    DCD    1752760539
        0x00002948:    685b440b    .D[h    DCD    1750811659
        0x0000294c:    0301f003    ....    DCD    50458627
        0x00002950:    d1162b00    .+..    DCD    3507890944
        0x00002954:    00db683b    ;h..    DCD    14379067
        0x00002958:    440b6879    yh.D    DCD    1141598329
        0x0000295c:    f003681b    .h..    DCD    4026755099
        0x00002960:    08d90320     ...    DCD    148439840
        0x00002964:    440b4b20     K.D    DCD    1141590816
        0x00002968:    683b6819    .h;h    DCD    1748723737
        0x0000296c:    687800db    ..xh    DCD    1752695003
        0x00002970:    681b4403    .D.h    DCD    1746617347
        0x00002974:    031ff003    ....    DCD    52424707
        0x00002978:    fa002001    . ..    DCD    4194312193
        0x0000297c:    430bf303    ...C    DCD    1124856579
        0x00002980:    683be016    ..;h    DCD    1748754454
        0x00002984:    687900db    ..yh    DCD    1752760539
        0x00002988:    681b440b    .D.h    DCD    1746617355
        0x0000298c:    0320f003    .. .    DCD    52490243
        0x00002990:    4b1508d9    ...K    DCD    1259669721
        0x00002994:    6819440b    .D.h    DCD    1746486283
        0x00002998:    00db683b    ;h..    DCD    14379067
        0x0000299c:    44036878    xh.D    DCD    1141074040
        0x000029a0:    f003681b    .h..    DCD    4026755099
        0x000029a4:    2001031f    ...     DCD    536937247
        0x000029a8:    f303fa00    ....    DCD    4077124096
        0x000029ac:    400b43db    .C.@    DCD    1074480091
        0x000029b0:    e0146013    .`..    DCD    3759431699
        0x000029b4:    00db683b    ;h..    DCD    14379067
        0x000029b8:    4413687a    zh.D    DCD    1142122618
        0x000029bc:    f003681b    .h..    DCD    4026755099
        0x000029c0:    08da0320     ...    DCD    148505376
        0x000029c4:    44134b09    .K.D    DCD    1142115081
        0x000029c8:    00d2683a    :h..    DCD    13789242
        0x000029cc:    440a6879    yh.D    DCD    1141532793
        0x000029d0:    f0026812    .h..    DCD    4026689554
        0x000029d4:    2101021f    ...!    DCD    553714207
        0x000029d8:    f202fa01    ....    DCD    4060281345
        0x000029dc:    370c601a    .`.7    DCD    923557914
        0x000029e0:    f85d46bd    .F].    DCD    4166862525
        0x000029e4:    47707b04    .{pG    DCD    1198553860
        0x000029e8:    40010088    ...@    DCD    1073807496
        0x000029ec:    400100b4    ...@    DCD    1073807540
        0x000029f0:    b086b580    ....    DCD    2961618304
        0x000029f4:    60f8af00    ...`    DCD    1626910464
        0x000029f8:    607a60b9    .`z`    DCD    1618632889
        0x000029fc:    617b2300    .#{a    DCD    1635459840
        0x00002a00:    697be014    ..{i    DCD    1769725972
        0x00002a04:    fa022201    ."..    DCD    4194443777
        0x00002a08:    461af303    ...F    DCD    1176171267
        0x00002a0c:    4013687b    {h.@    DCD    1075013755
        0x00002a10:    d0042b00    .+..    DCD    3489934080
        0x00002a14:    697968f8    .hyi    DCD    1769564408
        0x00002a18:    ff0af7ff    ....    DCD    4278908927
        0x00002a1c:    68f8e003    ...h    DCD    1761140739
        0x00002a20:    f7ff6979    yi..    DCD    4160711033
        0x00002a24:    697bff75    u.{i    DCD    1769734005
        0x00002a28:    617b3301    .3{a    DCD    1635463937
        0x00002a2c:    68bb697a    zi.h    DCD    1757112698
        0x00002a30:    d3e6429a    .B..    DCD    3555082906
        0x00002a34:    46bd3718    .7.F    DCD    1186805528
        0x00002a38:    bf00bd80    ....    DCD    3204496768
        0x00002a3c:    49134812    .H.I    DCD    1226000402
        0x00002a40:    f8d16001    .`..    DCD    4174471169
        0x00002a44:    4812d000    ...H    DCD    1209192448
        0x00002a48:    f4416801    .hA.    DCD    4097927169
        0x00002a4c:    60010170    p..`    DCD    1610678640
        0x00002a50:    8f4ff3bf    ..O.    DCD    2404381631
        0x00002a54:    8f6ff3bf    ..o.    DCD    2406478783
        0x00002a58:    490f480e    .H.I    DCD    1225738254
        0x00002a5c:    f8504a0f    .JP.    DCD    4166011407
        0x00002a60:    f8413b04    .;A.    DCD    4165024516
        0x00002a64:    42913b04    .;.B    DCD    1116814084
        0x00002a68:    aff9f77f    ....    DCD    2952394623
        0x00002a6c:    490d480c    .H.I    DCD    1225607180
        0x00002a70:    0200f04f    O...    DCD    33615951
        0x00002a74:    bfb84288    .B..    DCD    3216523912
        0x00002a78:    2b04f840    @..+    DCD    721745984
        0x00002a7c:    affaf6ff    ....    DCD    2952460031
        0x00002a80:    fdfef7fe    ....    DCD    4261345278
        0x00002a84:    0000be00    ....    DCD    48640
        0x00002a88:    e000ed08    ....    DCD    3758157064
        0x00002a8c:    00008000    ....    DCD    32768
        0x00002a90:    e000ed88    ....    DCD    3758157192
        0x00002a94:    00009b04    ....    DCD    39684
        0x00002a98:    10001000    ....    DCD    268439552
        0x00002a9c:    10001034    4...    DCD    268439604
        0x00002aa0:    10001034    4...    DCD    268439604
        0x00002aa4:    10001144    D...    DCD    268439876
        0x00002aa8:    af00b480    ....    DCD    2936059008
        0x00002aac:    bf00e7fe    ....    DCD    3204507646
        0x00002ab0:    af00b480    ....    DCD    2936059008
        0x00002ab4:    bf00e7fe    ....    DCD    3204507646
        0x00002ab8:    f000b508    ....    DCD    4026578184
        0x00002abc:    f000f9d7    ....    DCD    4026595799
        0x00002ac0:    2001fa75    u..     DCD    537000565
        0x00002ac4:    f9e8f000    ....    DCD    4192792576
        0x00002ac8:    f0002001    . ..    DCD    4026540033
        0x00002acc:    2002f883    ...     DCD    537065603
        0x00002ad0:    f880f000    ....    DCD    4169199616
        0x00002ad4:    f9eef000    ....    DCD    4193185792
        0x00002ad8:    4008e8bd    ...@    DCD    1074325693
        0x00002adc:    b9bef000    ....    DCD    3116298240
        0x00002ae0:    4b10b510    ...K    DCD    1259386128
        0x00002ae4:    f013681b    .h..    DCD    4027803675
        0x00002ae8:    b0860401    ....    DCD    2961572865
        0x00002aec:    b006d001    ....    DCD    2953236481
        0x00002af0:    a806bd10    ....    DCD    2819013904
        0x00002af4:    f8404b0c    .K@.    DCD    4164963084
        0x00002af8:    f0003d14    .=..    DCD    4026547476
        0x00002afc:    4b0bf9fd    ...K    DCD    1259076093
        0x00002b00:    4a0c490b    .I.J    DCD    1242319115
        0x00002b04:    60182073    s .`    DCD    1612193907
        0x00002b08:    f0206808    .h .    DCD    4028655624
        0x00002b0c:    60080070    p..`    DCD    1611137136
        0x00002b10:    f4216811    .h!.    DCD    4095830033
        0x00002b14:    f441417f    .AA.    DCD    4097917311
        0x00002b18:    60115180    .Q.`    DCD    1611747712
        0x00002b1c:    b006601c    .`..    DCD    2953207836
        0x00002b20:    bf00bd10    ....    DCD    3204496656
        0x00002b24:    1000113c    <...    DCD    268439868
        0x00002b28:    000f4240    @B..    DCD    1000000
        0x00002b2c:    40010060    `..@    DCD    1073807456
        0x00002b30:    40010054    T..@    DCD    1073807444
        0x00002b34:    40010028    (..@    DCD    1073807400
        0x00002b38:    681b4b0f    .K.h    DCD    1746619151
        0x00002b3c:    f013b510    ....    DCD    4027823376
        0x00002b40:    d0000401    ....    DCD    3489661953
        0x00002b44:    f000bd10    ....    DCD    4026580240
        0x00002b48:    4b0cf937    7..K    DCD    1259141431
        0x00002b4c:    4a0d490c    .I.J    DCD    1242384652
        0x00002b50:    60182073    s .`    DCD    1612193907
        0x00002b54:    f0206808    .h .    DCD    4028655624
        0x00002b58:    f0400070    p.@.    DCD    4030726256
        0x00002b5c:    60080020     ..`    DCD    1611137056
        0x00002b60:    f4216811    .h!.    DCD    4095830033
        0x00002b64:    f441417f    .AA.    DCD    4097917311
        0x00002b68:    601151c0    .Q.`    DCD    1611747776
        0x00002b6c:    e8bd601c    .`..    DCD    3904725020
        0x00002b70:    f0004010    .@..    DCD    4026548240
        0x00002b74:    bf00ba15    ....    DCD    3204495893
        0x00002b78:    1000113c    <...    DCD    268439868
        0x00002b7c:    40010060    `..@    DCD    1073807456
        0x00002b80:    40010054    T..@    DCD    1073807444
        0x00002b84:    40010028    (..@    DCD    1073807400
        0x00002b88:    b92cf000    ..,.    DCD    3106729984
        0x00002b8c:    4a064b05    .K.J    DCD    1241926405
        0x00002b90:    2100b410    ...!    DCD    553694224
        0x00002b94:    601c2447    G$.`    DCD    1612457031
        0x00002b98:    f85d6010    .`].    DCD    4166869008
        0x00002b9c:    60194b04    .K.`    DCD    1612270340
        0x00002ba0:    bf004770    pG..    DCD    3204466544
        0x00002ba4:    40004014    .@.@    DCD    1073758228
        0x00002ba8:    40004018    .@.@    DCD    1073758232
        0x00002bac:    4b044a03    .J.K    DCD    1258572291
        0x00002bb0:    f0026812    .h..    DCD    4026689554
        0x00002bb4:    f8530207    ..S.    DCD    4166189575
        0x00002bb8:    47700022    ".pG    DCD    1198522402
        0x00002bbc:    40004018    .@.@    DCD    1073758232
        0x00002bc0:    00009ae4    ....    DCD    39652
        0x00002bc4:    681a4b02    .K.h    DCD    1746553602
        0x00002bc8:    0000ea22    "...    DCD    59938
        0x00002bcc:    47706018    .`pG    DCD    1198546968
        0x00002bd0:    4000400c    .@.@    DCD    1073758220
        0x00002bd4:    681a4b02    .K.h    DCD    1746553602
        0x00002bd8:    60184310    .C.`    DCD    1612202768
        0x00002bdc:    bf004770    pG..    DCD    3204466544
        0x00002be0:    4000400c    .@.@    DCD    1073758220
        0x00002be4:    680db430    0..h    DCD    1745728560
        0x00002be8:    684a688c    .hJh    DCD    1749706892
        0x00002bec:    2d004b06    .K.-    DCD    754993926
        0x00002bf0:    4204ea42    B..B    DCD    1107618370
        0x00002bf4:    1000ea4f    O...    DCD    268495439
        0x00002bf8:    2100bf0c    ...!    DCD    553697036
        0x00002bfc:    4100f04f    O..A    DCD    1090580559
        0x00002c00:    50c2430a    .C.P    DCD    1354908426
        0x00002c04:    4770bc30    0.pG    DCD    1198570544
        0x00002c08:    4000800c    ...@    DCD    1073774604
        0x00002c0c:    4b070100    ...K    DCD    1258750208
        0x00002c10:    b41058c2    .X..    DCD    3020970178
        0x00002c14:    2408f001    ...$    DCD    604565505
        0x00002c18:    0204ea22    "...    DCD    33876514
        0x00002c1c:    1101f001    ....    DCD    285339649
        0x00002c20:    50c14311    .C.P    DCD    1354842897
        0x00002c24:    4b04f85d    ]..K    DCD    1258616925
        0x00002c28:    bf004770    pG..    DCD    3204466544
        0x00002c2c:    4000800c    ...@    DCD    1073774604
        0x00002c30:    4b030100    ...K    DCD    1258488064
        0x00002c34:    f00158c2    .X..    DCD    4026620098
        0x00002c38:    430a2108    .!.C    DCD    1124737288
        0x00002c3c:    477050c2    .PpG    DCD    1198543042
        0x00002c40:    4000800c    ...@    DCD    1073774604
        0x00002c44:    0100b4f0    ....    DCD    16823536
        0x00002c48:    59044c1b    .L.Y    DCD    1493453851
        0x00002c4c:    3f80f511    ...?    DCD    1065415953
        0x00002c50:    0c24bf08    ..$.    DCD    203734792
        0x00002c54:    74c0f404    ...t    DCD    1958802436
        0x00002c58:    d0162c80    .,..    DCD    3491114112
        0x00002c5c:    75fff64f    O..u    DCD    1979709007
        0x00002c60:    42a92400    .$.B    DCD    1118381056
        0x00002c64:    4f154626    &F.O    DCD    1326794278
        0x00002c68:    c054f8df    ..T.    DCD    3226794207
        0x00002c6c:    f511d019    ....    DCD    4111585305
        0x00002c70:    d01b3f80    .?..    DCD    3491446656
        0x00002c74:    b2910c33    3...    DCD    2995850291
        0x00002c78:    430c041b    ...C    DCD    1124860955
        0x00002c7c:    4212ea43    C..B    DCD    1108535875
        0x00002c80:    f84051c4    .Q@.    DCD    4164964804
        0x00002c84:    bcf0200c    . ..    DCD    3169853452
        0x00002c88:    f64f4770    pGO.    DCD    4132390768
        0x00002c8c:    42a975ff    .u.B    DCD    1118402047
        0x00002c90:    4402ea4f    O..D    DCD    1141041743
        0x00002c94:    4f094616    .F.O    DCD    1326007830
        0x00002c98:    c024f8df    ..$.    DCD    3223648479
        0x00002c9c:    0202ebc3    ....    DCD    33745859
        0x00002ca0:    b292d1e5    ....    DCD    2995966437
        0x00002ca4:    51c44314    .C.Q    DCD    1371816724
        0x00002ca8:    4770bcf0    ..pG    DCD    1198570736
        0x00002cac:    4314b292    ...C    DCD    1125429906
        0x00002cb0:    400cf840    @..@    DCD    1074591808
        0x00002cb4:    4770bcf0    ..pG    DCD    1198570736
        0x00002cb8:    4000800c    ...@    DCD    1073774604
        0x00002cbc:    40008004    ...@    DCD    1073774596
        0x00002cc0:    40008008    ...@    DCD    1073774600
        0x00002cc4:    681a4b02    .K.h    DCD    1746553602
        0x00002cc8:    60184310    .C.`    DCD    1612202768
        0x00002ccc:    bf004770    pG..    DCD    3204466544
        0x00002cd0:    40008200    ...@    DCD    1073775104
        0x00002cd4:    60184b01    .K.`    DCD    1612204801
        0x00002cd8:    bf004770    pG..    DCD    3204466544
        0x00002cdc:    40008208    ...@    DCD    1073775112
        0x00002ce0:    f47f3801    .8..    DCD    4101978113
        0x00002ce4:    4770affd    ..pG    DCD    1198567421
        0x00002ce8:    d80b280f    .(..    DCD    3624609807
        0x00002cec:    d0122805    .(..    DCD    3490850821
        0x00002cf0:    d0162806    .(..    DCD    3491112966
        0x00002cf4:    d1042804    .(..    DCD    3506710532
        0x00002cf8:    681a4b0d    .K.h    DCD    1746553613
        0x00002cfc:    3280f442    B..2    DCD    847311938
        0x00002d00:    4770601a    .`pG    DCD    1198546970
        0x00002d04:    f0003810    .8..    DCD    4026546192
        0x00002d08:    2201001f    ..."    DCD    570490911
        0x00002d0c:    fa024b09    .K..    DCD    4194454281
        0x00002d10:    6018f000    ...`    DCD    1612247040
        0x00002d14:    4b064770    pG.K    DCD    1258702704
        0x00002d18:    f442681a    .hB.    DCD    4097992730
        0x00002d1c:    601a3200    .2.`    DCD    1612329472
        0x00002d20:    4b034770    pG.K    DCD    1258506096
        0x00002d24:    f442681a    .hB.    DCD    4097992730
        0x00002d28:    601a2280    .".`    DCD    1612325504
        0x00002d2c:    bf004770    pG..    DCD    3204466544
        0x00002d30:    e000ed24    $...    DCD    3758157092
        0x00002d34:    e000e100    ....    DCD    3758153984
        0x00002d38:    8010f3ef    ....    DCD    2148594671
        0x00002d3c:    4770b662    b.pG    DCD    1198569058
        0x00002d40:    4604b510    ...F    DCD    1174713616
        0x00002d44:    ff32f7ff    ..2.    DCD    4281530367
        0x00002d48:    fba34b04    .K..    DCD    4221782788
        0x00002d4c:    0c802000    . ..    DCD    209723392
        0x00002d50:    f000fb04    ....    DCD    4026596100
        0x00002d54:    4010e8bd    ...@    DCD    1074849981
        0x00002d58:    bfc2f7ff    ....    DCD    3217225727
        0x00002d5c:    165e9f81    ..^.    DCD    375299969
        0x00002d60:    681b4b0d    .K.h    DCD    1746619149
        0x00002d64:    b43007da    ..0.    DCD    3023046618
        0x00002d68:    4a0cd414    ...J    DCD    1242354708
        0x00002d6c:    f0436813    .hC.    DCD    4030949395
        0x00002d70:    60137380    .s.`    DCD    1611887488
        0x00002d74:    01db6813    .h..    DCD    31156243
        0x00002d78:    4809d5fc    ...H    DCD    1208604156
        0x00002d7c:    4c0a4d09    .M.L    DCD    1275743497
        0x00002d80:    4b0b490a    .I.K    DCD    1259030794
        0x00002d84:    4a0b6005    .`.J    DCD    1242259461
        0x00002d88:    f04f250f    .%O.    DCD    4031718671
        0x00002d8c:    602530ff    .0%`    DCD    1613050111
        0x00002d90:    601a6008    .`.`    DCD    1612341256
        0x00002d94:    4770bc30    0.pG    DCD    1198570544
        0x00002d98:    1000113c    <...    DCD    268439868
        0x00002d9c:    e000edfc    ....    DCD    3758157308
        0x00002da0:    e0000fb0    ....    DCD    3758100400
        0x00002da4:    c5acce55    U...    DCD    3316436565
        0x00002da8:    e0000e40    @...    DCD    3758100032
        0x00002dac:    e0000e00    ....    DCD    3758099968
        0x00002db0:    e0000e80    ....    DCD    3758100096
        0x00002db4:    00150511    ....    DCD    1377553
        0x00002db8:    4a08b508    ...J    DCD    1242084616
        0x00002dbc:    021b6813    .h..    DCD    35350547
        0x00002dc0:    f7ffd4fc    ....    DCD    4160738556
        0x00002dc4:    4b06fef3    ...K    DCD    1258749683
        0x00002dc8:    2000fba3    ...     DCD    536935331
        0x00002dcc:    23320c80    ..2#    DCD    590482560
        0x00002dd0:    f000fb03    ....    DCD    4026596099
        0x00002dd4:    4008e8bd    ...@    DCD    1074325693
        0x00002dd8:    bf82f7ff    ....    DCD    3213031423
        0x00002ddc:    e0000e80    ....    DCD    3758100096
        0x00002de0:    165e9f81    ..^.    DCD    375299969
        0x00002de4:    b4307803    .x0.    DCD    3023075331
        0x00002de8:    4602b193    ...F    DCD    1174581651
        0x00002dec:    f8122300    .#..    DCD    4161938176
        0x00002df0:    33011f01    ...3    DCD    855711489
        0x00002df4:    d1fa2900    .)..    DCD    3522832640
        0x00002df8:    4260f04f    O.`B    DCD    1113649231
        0x00002dfc:    461418c5    ...F    DCD    1175722181
        0x00002e00:    1b01f810    ....    DCD    453113872
        0x00002e04:    2b006813    .h.+    DCD    721446931
        0x00002e08:    42a8d0fc    ...B    DCD    1118359804
        0x00002e0c:    d1f77021    !p..    DCD    3522654241
        0x00002e10:    4770bc30    0.pG    DCD    1198570544
        0x00002e14:    490e4b0d    .K.I    DCD    1225673485
        0x00002e18:    4a0e681b    .h.J    DCD    1242458139
        0x00002e1c:    60c16809    .h.`    DCD    1623287817
        0x00002e20:    6841b470    p.Ah    DCD    1749136496
        0x00002e24:    4c0c6815    .h.L    DCD    1275881493
        0x00002e28:    43296942    Bi)C    DCD    1126787394
        0x00002e2c:    68246041    A`$h    DCD    1747214401
        0x00002e30:    0601f003    ....    DCD    100790275
        0x00002e34:    0140f3c3    ..@.    DCD    21033923
        0x00002e38:    f3c34322    "C..    DCD    4089660194
        0x00002e3c:    70060380    ...p    DCD    1879442304
        0x00002e40:    74037201    .r.t    DCD    1946382849
        0x00002e44:    bc706142    Bap.    DCD    3161481538
        0x00002e48:    bf004770    pG..    DCD    3204466544
        0x00002e4c:    400201cc    ...@    DCD    1073873356
        0x00002e50:    400201c4    ...@    DCD    1073873348
        0x00002e54:    400201c0    ...@    DCD    1073873344
        0x00002e58:    400201c8    ...@    DCD    1073873352
        0x00002e5c:    f06f4b02    .Ko.    DCD    4033825538
        0x00002e60:    601a0201    ...`    DCD    1612317185
        0x00002e64:    bf004770    pG..    DCD    3204466544
        0x00002e68:    400200fc    ...@    DCD    1073873148
        0x00002e6c:    4a094b08    .K.J    DCD    1242123016
        0x00002e70:    f0416819    .hA.    DCD    4030818329
        0x00002e74:    60190102    ...`    DCD    1612251394
        0x00002e78:    f0416819    .hA.    DCD    4030818329
        0x00002e7c:    60190101    ...`    DCD    1612251393
        0x00002e80:    07996813    .h..    DCD    127494163
        0x00002e84:    4a03d5fc    ...J    DCD    1241765372
        0x00002e88:    07db6813    .h..    DCD    131819539
        0x00002e8c:    4770d5fc    ..pG    DCD    1198577148
        0x00002e90:    40020010    ...@    DCD    1073872912
        0x00002e94:    40020014    ...@    DCD    1073872916
        0x00002e98:    681a4b05    .K.h    DCD    1746553605
        0x00002e9c:    f022b918    ..".    DCD    4028807448
        0x00002ea0:    601a0280    ...`    DCD    1612317312
        0x00002ea4:    f0424770    pGB.    DCD    4030875504
        0x00002ea8:    601a0280    ...`    DCD    1612317312
        0x00002eac:    bf004770    pG..    DCD    3204466544
        0x00002eb0:    4000400c    .@.@    DCD    1073758220
        0x00002eb4:    681a4b02    .K.h    DCD    1746553602
        0x00002eb8:    0210f042    B...    DCD    34664514
        0x00002ebc:    4770601a    .`pG    DCD    1198546970
        0x00002ec0:    40004050    P@.@    DCD    1073758288
        0x00002ec4:    4b0ab158    X..K    DCD    1258991960
        0x00002ec8:    f033681b    .h3.    DCD    4029900827
        0x00002ecc:    4b090201    ...K    DCD    1258881537
        0x00002ed0:    d007681a    .h..    DCD    3490146330
        0x00002ed4:    0204f022    "...    DCD    33878050
        0x00002ed8:    bf30601a    .`0.    DCD    3207618586
        0x00002edc:    4b054770    pG.K    DCD    1258637168
        0x00002ee0:    e7f7681a    .h..    DCD    3891750938
        0x00002ee4:    0204f042    B...    DCD    33878082
        0x00002ee8:    bf30601a    .`0.    DCD    3207618586
        0x00002eec:    bf004770    pG..    DCD    3204466544
        0x00002ef0:    40020250    P..@    DCD    1073873488
        0x00002ef4:    e000ed10    ....    DCD    3758157072
        0x00002ef8:    4b21b538    8.!K    DCD    1260500280
        0x00002efc:    22006804    .h."    DCD    570451972
        0x00002f00:    b31c601a    .`..    DCD    3004981274
        0x00002f04:    4b20491f    .I K    DCD    1260407071
        0x00002f08:    20014a20     J.     DCD    536955424
        0x00002f0c:    f5a46008    .`..    DCD    4121190408
        0x00002f10:    42914161    aA.B    DCD    1116815713
        0x00002f14:    461cbf88    ...F    DCD    1176289160
        0x00002f18:    fe48f7ff    ..H.    DCD    4266194943
        0x00002f1c:    d02c1c43    C.,.    DCD    3492551747
        0x00002f20:    fbb008c0    ....    DCD    4222617792
        0x00002f24:    3c01f4f4    ...<    DCD    1006761204
        0x00002f28:    4a19b2a4    ...J    DCD    1243198116
        0x00002f2c:    4b1a4d19    .M.K    DCD    1260014873
        0x00002f30:    6014491a    .I.`    DCD    1611942170
        0x00002f34:    24022000    . .$    DCD    604119040
        0x00002f38:    2201f240    @.."    DCD    570552896
        0x00002f3c:    6008602c    ,`.`    DCD    1611161644
        0x00002f40:    2032601a    .`2     DCD    540172314
        0x00002f44:    4038e8bd    ..8@    DCD    1077471421
        0x00002f48:    befaf7ff    ....    DCD    3204118527
        0x00002f4c:    69034a10    .J.i    DCD    1761823248
        0x00002f50:    68836013    .`.h    DCD    1753440275
        0x00002f54:    30e0f8c2    ...0    DCD    820050114
        0x00002f58:    490a68c2    .h.I    DCD    1225418946
        0x00002f5c:    24014b0e    .K.$    DCD    604064526
        0x00002f60:    fa043a01    .:..    DCD    4194580993
        0x00002f64:    600af202    ...`    DCD    1611330050
        0x00002f68:    68196842    Bh.h    DCD    1746495554
        0x00002f6c:    601a430a    .C.`    DCD    1612333834
        0x00002f70:    e8bd2032    2 ..    DCD    3904708658
        0x00002f74:    f7ff4038    8@..    DCD    4160700472
        0x00002f78:    2402bee3    ...$    DCD    604159715
        0x00002f7c:    bf00e7d5    ....    DCD    3204507605
        0x00002f80:    e0040304    ....    DCD    3758359300
        0x00002f84:    e0040004    ....    DCD    3758358532
        0x00002f88:    000f4240    @B..    DCD    1000000
        0x00002f8c:    001da380    ....    DCD    1942400
        0x00002f90:    e0040010    ....    DCD    3758358544
        0x00002f94:    e00400f0    ....    DCD    3758358768
        0x00002f98:    40020250    P..@    DCD    1073873488
        0x00002f9c:    e0040f00    ....    DCD    3758362368
        0x00002fa0:    22004b01    .K."    DCD    570444545
        0x00002fa4:    4770601a    .`pG    DCD    1198546970
        0x00002fa8:    40020250    P..@    DCD    1073873488
        0x00002fac:    22374b01    .K7"    DCD    574049025
        0x00002fb0:    4770601a    .`pG    DCD    1198546970
        0x00002fb4:    4000c008    ...@    DCD    1073790984
        0x00002fb8:    0241ea4f    O.A.    DCD    37874255
        0x00002fbc:    43e0f1b2    ...C    DCD    1138815410
        0x00002fc0:    f5b3bf24    $...    DCD    4122197796
        0x00002fc4:    f1dc1c00    ....    DCD    4057734144
        0x00002fc8:    d90d5cfe    .\..    DCD    3641531646
        0x00002fcc:    4c00f001    ...L    DCD    1275129857
        0x00002fd0:    02c0ea4f    O...    DCD    46197327
        0x00002fd4:    7050ea4c    L.Pp    DCD    1884351052
        0x00002fd8:    4f00f1b2    ...O    DCD    1325461938
        0x00002fdc:    0083eb40    @...    DCD    8645440
        0x00002fe0:    f020bf08    .. .    DCD    4028677896
        0x00002fe4:    47700001    ..pG    DCD    1198522369
        0x00002fe8:    4f80f011    ...O    DCD    1333850129
        0x00002fec:    f113d121    !...    DCD    4044607777
        0x00002ff0:    bfbc7238    8r..    DCD    3216798264
        0x00002ff4:    4000f001    ...@    DCD    1073803265
        0x00002ff8:    f4414770    pGA.    DCD    4097918832
        0x00002ffc:    ea4f1180    ..O.    DCD    3931050368
        0x00003000:    f1c25252    RR..    DCD    4056044114
        0x00003004:    f1c20218    ....    DCD    4056023576
        0x00003008:    fa100c20     ...    DCD    4195355680
        0x0000300c:    fa20f30c    .. .    DCD    4196463372
        0x00003010:    bf18f002    ....    DCD    3206082562
        0x00003014:    0001f040    @...    DCD    127040
        0x00003018:    23c1ea4f    O..#    DCD    599910991
        0x0000301c:    23d3ea4f    O..#    DCD    601090639
        0x00003020:    fc0cfa03    ....    DCD    4228708867
        0x00003024:    000cea40    @...    DCD    846400
        0x00003028:    f302fa23    #...    DCD    4077058595
        0x0000302c:    0343ea4f    O.C.    DCD    54782543
        0x00003030:    ea7fe7cc    ....    DCD    3934250956
        0x00003034:    d1075362    bS..    DCD    3506918242
        0x00003038:    3301ea50    P..3    DCD    855763536
        0x0000303c:    f04fbf1e    ..O.    DCD    4031758110
        0x00003040:    f44040fe    .@@.    DCD    4097851646
        0x00003044:    47700040    @.pG    DCD    1198522432
        0x00003048:    4000f001    ...@    DCD    1073803265
        0x0000304c:    40fef040    @..@    DCD    1090449472
        0x00003050:    0000f440    @...    DCD    62528
        0x00003054:    bf004770    pG..    DCD    3204466544
        0x00003058:    616e6942    Bina    DCD    1634625858
        0x0000305c:    43207972    ry C    DCD    1126201714
        0x00003060:    746e756f    ount    DCD    1953396079
        0x00003064:    45207265    er E    DCD    1159754341
        0x00003068:    706d6178    xamp    DCD    1886216568
        0x0000306c:    000a656c    le..    DCD    681324
        0x00003070:    3e3e3e3e    >>>>    DCD    1044266558
        0x00003074:    203e3e3e    >>>     DCD    540950078
        0x00003078:    00000000    ....    DCD    0
        0x0000307c:    016e3600    .6n.    DCD    24000000
        0x00003080:    00b71b00    ....    DCD    12000000
        0x00003084:    007a1200    ..z.    DCD    8000000
        0x00003088:    005b8d80    ..[.    DCD    6000000
        0x0000308c:    00493e00    .>I.    DCD    4800000
        0x00003090:    003d0900    ..=.    DCD    4000000
        0x00003094:    003450db    .P4.    DCD    3428571
        0x00003098:    002dc6c0    ..-.    DCD    3000000
        0x0000309c:    00000000    ....    DCD    0
        0x000030a0:    00000256    V...    DCD    598
        0x000030a4:    00000000    ....    DCD    0
        0x000030a8:    00000022    "...    DCD    34
        0x000030ac:    00000000    ....    DCD    0
        0x000030b0:    00000021    !...    DCD    33
        0x000030b4:    00000000    ....    DCD    0
        0x000030b8:    0000001c    ....    DCD    28
        0x000030bc:    00000000    ....    DCD    0
        0x000030c0:    0000001a    ....    DCD    26
        0x000030c4:    00000000    ....    DCD    0
        0x000030c8:    00000019    ....    DCD    25
        0x000030cc:    00000000    ....    DCD    0
    g_sIOMConfig
        0x000030d0:    00000001    ....    DCD    1
        0x000030d4:    09041c00    ....    DCD    151264256
        0x000030d8:    3c040000    ...<    DCD    1006895104
    .conststring
        0x000030dc:    20656854    The     DCD    543516756
        0x000030e0:    204d4f49    IOM     DCD    541937481
        0x000030e4:    75657571    queu    DCD    1969583473
        0x000030e8:    73692065    e is    DCD    1936269413
        0x000030ec:    6c756620     ful    DCD    1819633184
        0x000030f0:    41202e6c    l. A    DCD    1092628076
        0x000030f4:    636f6c6c    lloc    DCD    1668246636
        0x000030f8:    20657461    ate     DCD    543519841
        0x000030fc:    65726f6d    more    DCD    1701998445
        0x00003100:    6f6d656d    memo    DCD    1869440365
        0x00003104:    74207972    ry t    DCD    1948285298
        0x00003108:    6874206f    o th    DCD    1752440943
        0x0000310c:    4f492065    e IO    DCD    1330192485
        0x00003110:    7571204d    M qu    DCD    1970348109
        0x00003114:    2c657565    eue,    DCD    744846693
        0x00003118:    20726f20     or     DCD    544370464
        0x0000311c:    6f6c6c61    allo    DCD    1869376609
        0x00003120:    74692077    w it    DCD    1953046647
        0x00003124:    726f6d20     mor    DCD    1919905056
        0x00003128:    6d697465    etim    DCD    1835627621
        0x0000312c:    6f742065    e to    DCD    1869881445
        0x00003130:    706d6520     emp    DCD    1886217504
        0x00003134:    62207974    ty b    DCD    1646295412
        0x00003138:    65777465    etwe    DCD    1702327397
        0x0000313c:    74206e65    en t    DCD    1948282469
        0x00003140:    736e6172    rans    DCD    1936613746
        0x00003144:    69746361    acti    DCD    1769235297
        0x00003148:    2e736e6f    ons.    DCD    779316847
        0x0000314c:    00000000    ....    DCD    0
    Region$$Table$$Base
        0x00003150:    00003170    p1..    DCD    12656
        0x00003154:    10000000    ....    DCD    268435456
        0x00003158:    0000002c    ,...    DCD    44
        0x0000315c:    000000d4    ....    DCD    212
        0x00003160:    0000319c    .1..    DCD    12700
        0x00003164:    1000002c    ,...    DCD    268435500
        0x00003168:    000013ac    ....    DCD    5036
        0x0000316c:    000000f0    ....    DCD    240
    Region$$Table$$Limit

** Section #2 'SRAM' (SHT_PROGBITS) [SHF_ALLOC + SHF_WRITE]
    Size   : 44 bytes (alignment 4)
    Address: 0x10000000

    0x10000000:   00 00 00 00 00 00 00 00 00 00 00 00 00 00 00 00    ................
    0x10000010:   45 07 00 00 a0 86 01 00 a0 86 01 00 06 00 00 00    E...............
    0x10000020:   0a 00 00 00 09 00 00 00 0a 00 00 00                ............


** Section #3 'SRAM' (SHT_NOBITS) [SHF_ALLOC + SHF_WRITE]
    Size   : 5036 bytes (alignment 8)
    Address: 0x1000002c


** Section #4 '.debug_abbrev' (SHT_PROGBITS)
    Size   : 1476 bytes


** Section #5 '.debug_frame' (SHT_PROGBITS)
    Size   : 2320 bytes


** Section #6 '.debug_info' (SHT_PROGBITS)
    Size   : 5184 bytes


** Section #7 '.debug_line' (SHT_PROGBITS)
    Size   : 1792 bytes


** Section #8 '.debug_loc' (SHT_PROGBITS)
    Size   : 368 bytes


** Section #9 '.debug_macinfo' (SHT_PROGBITS)
    Size   : 6724 bytes


** Section #10 '.debug_pubnames' (SHT_PROGBITS)
    Size   : 472 bytes


** Section #11 '.symtab' (SHT_SYMTAB)
    Size   : 6496 bytes (alignment 4)
    String table #12 '.strtab'
    Last local symbol no. 261

    Symbol table .symtab (405 symbols, 261 local)

      #  Symbol Name                Value      Bind  Sec  Type  Vis  Size
    ========================================================================

      1  $d                         0x00000000   Lc    1   --   De 
      2  $t                         0x00000070   Lc    1   --   De 
      3  $d                         0x00000094   Lc    1   --   De 
      4  $t                         0x00000098   Lc    1   --   De 
      5  $d                         0x000000cc   Lc    1   --   De 
      6  $t                         0x000000d4   Lc    1   --   De 
      7  $d                         0x00000162   Lc    1   --   De 
      8  $t                         0x00000170   Lc    1   --   De 
      9  $d                         0x000001d8   Lc    1   --   De 
     10  $t                         0x000001dc   Lc    1   --   De 
     11  $d                         0x000001e4   Lc    1   --   De 
     12  $t                         0x000001e8   Lc    1   --   De 
     13  $d                         0x0000028c   Lc    1   --   De 
     14  $t                         0x00000298   Lc    1   --   De 
     15  $d                         0x000002f6   Lc    1   --   De 
     16  $t                         0x000002fe   Lc    1   --   De 
     17  $d                         0x00000324   Lc    1   --   De 
     18  $t                         0x00000344   Lc    1   --   De 
     19  $d                         0x00000390   Lc    1   --   De 
     20  $t                         0x00000394   Lc    1   --   De 
     21  $d                         0x000003a0   Lc    1   --   De 
     22  $t                         0x000003a4   Lc    1   --   De 
     23  $d                         0x000003d8   Lc    1   --   De 
     24  $t                         0x000003dc   Lc    1   --   De 
     25  $d                         0x0000047a   Lc    1   --   De 
     26  $t                         0x0000050c   Lc    1   --   De 
     27  $d                         0x00000574   Lc    1   --   De 
     28  $t                         0x0000057c   Lc    1   --   De 
     29  $d                         0x00000604   Lc    1   --   De 
     30  $t                         0x0000064c   Lc    1   --   De 
     31  $d                         0x000006e8   Lc    1   --   De 
     32  $t                         0x0000072c   Lc    1   --   De 
     33  $d                         0x00000792   Lc    1   --   De 
     34  $t                         0x0000079c   Lc    1   --   De 
     35  $d                         0x000007e8   Lc    1   --   De 
     36  $t                         0x00000820   Lc    1   --   De 
     37  $d                         0x0000090a   Lc    1   --   De 
     38  $t                         0x0000099c   Lc    1   --   De 
     39  $d                         0x00000a60   Lc    1   --   De 
     40  $t                         0x00000aec   Lc    1   --   De 
     41  $d                         0x00000c20   Lc    1   --   De 
     42  $t                         0x00000c44   Lc    1   --   De 
     43  $d                         0x00000d18   Lc    1   --   De 
     44  $t                         0x00000d90   Lc    1   --   De 
     45  $d                         0x00000e6a   Lc    1   --   De 
     46  $t                         0x00000ec8   Lc    1   --   De 
     47  $d                         0x00001010   Lc    1   --   De 
     48  $t                         0x00001088   Lc    1   --   De 
     49  $d                         0x00001094   Lc    1   --   De 
     50  $t                         0x00001098   Lc    1   --   De 
     51  $d                         0x000010bc   Lc    1   --   De 
     52  $t                         0x000010c0   Lc    1   --   De 
     53  $d                         0x000011b0   Lc    1   --   De 
     54  $t                         0x000011b8   Lc    1   --   De 
     55  $d                         0x000011c0   Lc    1   --   De 
     56  $t                         0x000011c4   Lc    1   --   De 
     57  $d                         0x000011e0   Lc    1   --   De 
     58  $t                         0x000011e4   Lc    1   --   De 
     59  $d                         0x0000129c   Lc    1   --   De 
     60  $t                         0x000012a0   Lc    1   --   De 
     61  $d                         0x0000130e   Lc    1   --   De 
     62  $t                         0x00001320   Lc    1   --   De 
     63  $d                         0x00001398   Lc    1   --   De 
     64  $t                         0x000013a4   Lc    1   --   De 
     65  $d                         0x0000142e   Lc    1   --   De 
     66  $t                         0x00001434   Lc    1   --   De 
     67  $d                         0x000014c6   Lc    1   --   De 
     68  $t                         0x000014d8   Lc    1   --   De 
     69  $d                         0x0000157c   Lc    1   --   De 
     70  $t                         0x0000158c   Lc    1   --   De 
     71  $d.realdata                0x00001598   Lc    1   --   De 
     72  $d.realdata                0x10000000   Lc    2   --   De 
     73  ../src/spi_boot_host.c     0x00000000   Lc  Abs  File  De 
     74  i.am_gpio_isr              0x000002ba   Lc    1  Sect  De 
     75  i.configure_pins           0x000011e4   Lc    1  Sect  De 
     76  i.main                     0x000012a0   Lc    1  Sect  De 
     77  i.override_pin_set         0x00001320   Lc    1  Sect  De 
     78  i.start_boot_mode          0x000013a4   Lc    1  Sect  De 
     79  i.start_new_image          0x00001434   Lc    1  Sect  De 
     80  i.transfer_image           0x000014d8   Lc    1  Sect  De 
     81  .bss                       0x1000002c   Lc    3  Sect  De   0x2f0
     82  .constdata                 0x00001598   Lc    1  Sect  De   0x1b44
     83  ../../../../../utils/am_util_delay.c
                                    0x00000000   Lc  Abs  File  De 
     84  i.am_util_delay_us         0x000011c4   Lc    1  Sect  De 
     85  ../../../../../utils/am_util_stdio.c
                                    0x00000000   Lc  Abs  File  De 
     86  ../keil/startup_keil.s     0x00000000   Lc  Abs  File  De 
     87  STACK                      0x100003d8   Lc    3  Sect  De   0x1000
     88  StackMem                   0x100003d8   Lc    3  Data  De 
     89  HEAP                       0x100003d8   Lc    3  Sect  De 
     90  HeapMem                    0x100003d8   Lc    3  Data  De 
     91  RESET                      0x00000000   Lc    1  Sect  De   0x98
     92  $v0                        0x00000070   Lc    1   --   De 
     93  .text                      0x00000158   Lc    1  Sect  De   0x18
     94  $v0                        0x00000158   Lc    1   --   De 
     95  ..\am_hal_global.c         0x00000000   Lc  Abs  File  De 
     96  ../am_hal_global.c         0x00000000   Lc  Abs  File  De 
     97  .data                      0x10000000   Lc    2  Sect  De   0x4
     98  ../am_hal_clkgen.c         0x00000000   Lc  Abs  File  De 
     99  i.am_hal_clkgen_osc_stop   0x000002d0   Lc    1  Sect  De 
    100  i.am_hal_clkgen_sysclk_get 0x000002e4   Lc    1  Sect  De 
    101  i.am_hal_clkgen_sysclk_select
                                    0x00000344   Lc    1  Sect  De 
    102  ..\am_hal_flash.c          0x00000000   Lc  Abs  File  De 
    103  .emb_text                  0x00000138   Lc    1  Sect  De   0x6
    104  $v0                        0x00000138   Lc    1   --   De 
    105  ../am_hal_flash.c          0x00000000   Lc  Abs  File  De 
    106  i.am_hal_flash_delay_status_change
                                    0x00000358   Lc    1  Sect  De 
    107  ../am_hal_gpio.c           0x00000000   Lc  Abs  File  De 
    108  i.am_hal_gpio_int_clear    0x00000394   Lc    1  Sect  De 
    109  i.am_hal_gpio_int_status_get
                                    0x000003a4   Lc    1  Sect  De 
    110  ../am_hal_iom.c            0x00000000   Lc  Abs  File  De 
    111  i.am_hal_iom_config        0x000003dc   Lc    1  Sect  De 
    112  i.am_hal_iom_enable        0x0000050c   Lc    1  Sect  De 
    113  i.am_hal_iom_fifo_read     0x0000057c   Lc    1  Sect  De 
    114  i.am_hal_iom_fifo_write    0x0000064c   Lc    1  Sect  De 
    115  i.am_hal_iom_int_clear     0x0000072c   Lc    1  Sect  De 
    116  i.am_hal_iom_sleeping_queue_flush
                                    0x00000744   Lc    1  Sect  De 
    117  i.am_hal_iom_spi_cmd_run   0x0000079c   Lc    1  Sect  De 
    118  i.am_hal_iom_spi_read      0x00000820   Lc    1  Sect  De 
    119  i.am_hal_iom_spi_read_nb   0x0000099c   Lc    1  Sect  De 
    120  i.am_hal_iom_spi_read_nq   0x00000aec   Lc    1  Sect  De 
    121  i.am_hal_iom_spi_write     0x00000c44   Lc    1  Sect  De 
    122  i.am_hal_iom_spi_write_nb  0x00000d90   Lc    1  Sect  De 
    123  i.am_hal_iom_spi_write_nq  0x00000ec8   Lc    1  Sect  De 
    124  .bss                       0x1000031c   Lc    3  Sect  De   0x58
    125  .conststring               0x000030dc   Lc    1  Sect  De   0x71
    126  .data                      0x10000004   Lc    2  Sect  De   0x18
    127  ../am_bsp.c                0x00000000   Lc  Abs  File  De 
    128  i.am_bsp_iom_enable        0x000001ec   Lc    1  Sect  De 
    129  i.am_bsp_low_power_init    0x00000298   Lc    1  Sect  De 
    130  .data                      0x1000001c   Lc    2  Sect  De   0x10
    131  g_SPIpins                  0x1000001c   Lc    2  Data  De   0x10
    132  ../am_hal_debug.c          0x00000000   Lc  Abs  File  De 
    133  i.am_hal_debug_error       0x00000354   Lc    1  Sect  De 
    134  ../am_hal_i2c_bit_bang.c   0x00000000   Lc  Abs  File  De 
    135  ..\am_hal_interrupt.c      0x00000000   Lc  Abs  File  De 
    136  .emb_text                  0x00000140   Lc    1  Sect  De   0x16
    137  $v0                        0x00000140   Lc    1   --   De 
    138  ../am_hal_interrupt.c      0x00000000   Lc  Abs  File  De 
    139  ../am_hal_itm.c            0x00000000   Lc  Abs  File  De 
    140  ../am_hal_mcuctrl.c        0x00000000   Lc  Abs  File  De 
    141  i.am_hal_mcuctrl_bandgap_disable
                                    0x00001088   Lc    1  Sect  De 
    142  i.am_hal_mcuctrl_bucks_enable
                                    0x00001098   Lc    1  Sect  De 
    143  ../am_hal_queue.c          0x00000000   Lc  Abs  File  De 
    144  i.am_hal_queue_item_add    0x000010c0   Lc    1  Sect  De 
    145  ../am_hal_rtc.c            0x00000000   Lc  Abs  File  De 
    146  i.am_hal_rtc_osc_disable   0x0000115e   Lc    1  Sect  De 
    147  i.am_hal_rtc_osc_select    0x0000116c   Lc    1  Sect  De 
    148  ../am_hal_sysctrl.c        0x00000000   Lc  Abs  File  De 
    149  i.am_hal_sysctrl_sleep     0x00001184   Lc    1  Sect  De 
    150  ../am_hal_tpiu.c           0x00000000   Lc  Abs  File  De 
    151  ../am_hal_uart.c           0x00000000   Lc  Abs  File  De 
    152  ../am_hal_vcomp.c          0x00000000   Lc  Abs  File  De 
    153  i.am_hal_vcomp_disable     0x000011b8   Lc    1  Sect  De 
    154  dc.s                       0x00000000   Lc  Abs  File  De 
    155  ../clib/heapaux.c          0x00000000   Lc  Abs  File  De 
    156  .text                      0x00000170   Lc    1  Sect  De 
    157  ../clib/angel/startup.s    0x00000000   Lc  Abs  File  De 
    158  !!!main                    0x00000098   Lc    1  Sect  De   0x8
    159  ../fplib/d2f.s             0x00000000   Lc  Abs  File  De 
    160  ../clib/angel/kernel.s     0x00000000   Lc  Abs  File  De 
    161  .ARM.Collect$$rtentry$$00000000
                                    0x00000118   Lc    1  Sect  De 
    162  ../fplib/dnaninf.s         0x00000000   Lc  Abs  File  De 
    163  ../fplib/fretinf.s         0x00000000   Lc  Abs  File  De 
    164  ../fplib/usenofp.s         0x00000000   Lc  Abs  File  De 
    165  ../clib/angel/kernel.s     0x00000000   Lc  Abs  File  De 
    166  .ARM.Collect$$rtentry$$00000002
                                    0x00000118   Lc    1  Sect  De 
    167  .ARM.Collect$$rtentry$$00000009
                                    0x0000011e   Lc    1  Sect  De 
    168  .ARM.Collect$$rtentry$$0000000A
                                    0x0000011e   Lc    1  Sect  De   0x4
    169  .ARM.Collect$$rtentry$$0000000C
                                    0x00000122   Lc    1  Sect  De 
    170  .ARM.Collect$$rtentry$$0000000D
                                    0x00000122   Lc    1  Sect  De   0x8
    171  ../clib/angel/kernel.s     0x00000000   Lc  Abs  File  De 
    172  .ARM.Collect$$rtentry$$00000004
                                    0x00000118   Lc    1  Sect  De   0x6
    173  ../clib/angel/sys.s        0x00000000   Lc  Abs  File  De 
    174  .text                      0x00000176   Lc    1  Sect  De   0x4a
    175  ../clib/stdlib.c           0x00000000   Lc  Abs  File  De 
    176  .text                      0x000001c0   Lc    1  Sect  De 
    177  ../clib/angel/boardlib.s   0x00000000   Lc  Abs  File  De 
    178  ../clib/angel/boardlib.s   0x00000000   Lc  Abs  File  De 
    179  ../clib/angel/boardlib.s   0x00000000   Lc  Abs  File  De 
    180  ../clib/libinit.s          0x00000000   Lc  Abs  File  De 
    181  .ARM.Collect$$libinit$$00000000
                                    0x0000010c   Lc    1  Sect  De   0x2
    182  ../clib/angel/sys.s        0x00000000   Lc  Abs  File  De 
    183  .text                      0x000001d4   Lc    1  Sect  De   0x8
    184  .bss                       0x10000374   Lc    3  Sect  De   0x60
    185  ../clib/angel/kernel.s     0x00000000   Lc  Abs  File  De 
    186  .ARM.Collect$$rtexit$$00000000
                                    0x0000012a   Lc    1  Sect  De   0x2
    187  ../clib/libinit.s          0x00000000   Lc  Abs  File  De 
    188  .ARM.Collect$$libinit$$00000001
                                    0x0000010e   Lc    1  Sect  De   0x4
    189  .ARM.Collect$$libinit$$00000004
                                    0x00000112   Lc    1  Sect  De 
    190  .ARM.Collect$$libinit$$0000000A
                                    0x00000112   Lc    1  Sect  De 
    191  .ARM.Collect$$libinit$$0000000C
                                    0x00000112   Lc    1  Sect  De 
    192  .ARM.Collect$$libinit$$0000000E
                                    0x00000112   Lc    1  Sect  De 
    193  .ARM.Collect$$libinit$$00000011
                                    0x00000112   Lc    1  Sect  De 
    194  .ARM.Collect$$libinit$$00000013
                                    0x00000112   Lc    1  Sect  De 
    195  .ARM.Collect$$libinit$$00000015
                                    0x00000112   Lc    1  Sect  De 
    196  .ARM.Collect$$libinit$$00000017
                                    0x00000112   Lc    1  Sect  De 
    197  .ARM.Collect$$libinit$$00000019
                                    0x00000112   Lc    1  Sect  De 
    198  .ARM.Collect$$libinit$$0000001B
                                    0x00000112   Lc    1  Sect  De 
    199  .ARM.Collect$$libinit$$0000001D
                                    0x00000112   Lc    1  Sect  De 
    200  .ARM.Collect$$libinit$$0000001F
                                    0x00000112   Lc    1  Sect  De 
    201  .ARM.Collect$$libinit$$00000021
                                    0x00000112   Lc    1  Sect  De 
    202  .ARM.Collect$$libinit$$00000023
                                    0x00000112   Lc    1  Sect  De 
    203  .ARM.Collect$$libinit$$00000025
                                    0x00000112   Lc    1  Sect  De 
    204  .ARM.Collect$$libinit$$0000002C
                                    0x00000112   Lc    1  Sect  De 
    205  .ARM.Collect$$libinit$$0000002E
                                    0x00000112   Lc    1  Sect  De 
    206  .ARM.Collect$$libinit$$00000030
                                    0x00000112   Lc    1  Sect  De 
    207  .ARM.Collect$$libinit$$00000032
                                    0x00000112   Lc    1  Sect  De 
    208  .ARM.Collect$$libinit$$00000033
                                    0x00000112   Lc    1  Sect  De   0x2
    209  ../clib/angel/kernel.s     0x00000000   Lc  Abs  File  De 
    210  .ARM.Collect$$rtexit$$00000002
                                    0x0000012c   Lc    1  Sect  De 
    211  .ARM.Collect$$rtexit$$00000003
                                    0x0000012c   Lc    1  Sect  De   0x4
    212  .ARM.Collect$$rtexit$$00000004
                                    0x00000130   Lc    1  Sect  De   0x6
    213  ../clib/armsys.c           0x00000000   Lc  Abs  File  De 
    214  ../clib/armsys.c           0x00000000   Lc  Abs  File  De 
    215  ../fplib/fpinit.s          0x00000000   Lc  Abs  File  De 
    216  x$fpl$fpinit               0x0000158c   Lc    1  Sect  De   0xa
    217  $v0                        0x0000158c   Lc    1   --   De 
    218  ../clib/angel/sysapp.c     0x00000000   Lc  Abs  File  De 
    219  .text                      0x000001dc   Lc    1  Sect  De 
    220  ../clib/angel/boardlib.s   0x00000000   Lc  Abs  File  De 
    221  ../clib/armsys.c           0x00000000   Lc  Abs  File  De 
    222  ../clib/armsys.c           0x00000000   Lc  Abs  File  De 
    223  ../clib/libinit.s          0x00000000   Lc  Abs  File  De 
    224  .ARM.Collect$$libshutdown$$00000000
                                    0x00000114   Lc    1  Sect  De   0x2
    225  ../clib/angel/sysapp.c     0x00000000   Lc  Abs  File  De 
    226  ../clib/angel/sys.s        0x00000000   Lc  Abs  File  De 
    227  .text                      0x000001e8   Lc    1  Sect  De   0x2
    228  ../clib/angel/sys.s        0x00000000   Lc  Abs  File  De 
    229  .text                      0x000001ea   Lc    1  Sect  De 
    230  ../clib/heapalloc.c        0x00000000   Lc  Abs  File  De 
    231  ../clib/signal.c           0x00000000   Lc  Abs  File  De 
    232  ../clib/signal.c           0x00000000   Lc  Abs  File  De 
    233  ../clib/libinit.s          0x00000000   Lc  Abs  File  De 
    234  .ARM.Collect$$libshutdown$$00000002
                                    0x00000116   Lc    1  Sect  De 
    235  .ARM.Collect$$libshutdown$$00000004
                                    0x00000116   Lc    1  Sect  De 
    236  .ARM.Collect$$libshutdown$$00000007
                                    0x00000116   Lc    1  Sect  De 
    237  .ARM.Collect$$libshutdown$$0000000A
                                    0x00000116   Lc    1  Sect  De 
    238  .ARM.Collect$$libshutdown$$0000000C
                                    0x00000116   Lc    1  Sect  De 
    239  .ARM.Collect$$libshutdown$$0000000F
                                    0x00000116   Lc    1  Sect  De 
    240  .ARM.Collect$$libshutdown$$00000010
                                    0x00000116   Lc    1  Sect  De   0x2
    241  ../clib/angel/rt.s         0x00000000   Lc  Abs  File  De 
    242  ../clib/signal.c           0x00000000   Lc  Abs  File  De 
    243  ../clib/signal.c           0x00000000   Lc  Abs  File  De 
    244  ../clib/signal.c           0x00000000   Lc  Abs  File  De 
    245  ../clib/signal.c           0x00000000   Lc  Abs  File  De 
    246  ../clib/angel/sysapp.c     0x00000000   Lc  Abs  File  De 
    247  ../clib/signal.s           0x00000000   Lc  Abs  File  De 
    248  ../clib/signal.c           0x00000000   Lc  Abs  File  De 
    249  ../clib/signal.c           0x00000000   Lc  Abs  File  De 
    250  ../clib/signal.c           0x00000000   Lc  Abs  File  De 
    251  ../clib/signal.c           0x00000000   Lc  Abs  File  De 
    252  ../clib/signal.c           0x00000000   Lc  Abs  File  De 
    253  ../clib/signal.c           0x00000000   Lc  Abs  File  De 
    254  ../clib/signal.c           0x00000000   Lc  Abs  File  De 
    255  ../clib/signal.c           0x00000000   Lc  Abs  File  De 
    256  ../clib/angel/scatter.s    0x00000000   Lc  Abs  File  De 
    257  !!!scatter                 0x000000a0   Lc    1  Sect  De   0x34
    258  ../clib/angel/handlers.s   0x00000000   Lc  Abs  File  De 
    259  !!handler_copy             0x000000d4   Lc    1  Sect  De   0x1a
    260  ../clib/angel/handlers.s   0x00000000   Lc  Abs  File  De 
    261  !!handler_zi               0x000000f0   Lc    1  Sect  De   0x1c
    262  BuildAttributes$$THM_ISAv4$E$P$D$K$B$S$7EM$VFPi3$EXTD16$VFPS$VFMA$PE$A:L22UL41UL21$X:L11$S22US41US21$IEEE1$IW$USESV6$~STKCKD$USESV7$~SHL$OTIME$ROPI$EBA8$UX$STANDARDLIB$REQ8$PRES8$EABIv2
                                    0x00000000   Gb  Abs   --   Hi 
    263  __ARM_use_no_argv          0x00000000   Gb  Abs   --   Hi 
    264  __Vectors                  0x00000000   Gb    1  Data  Hi 
    265  Reset_Handler              0x00000071   Wk    1  Code  Hi   0x1c
    266  am_nmi_isr                 0x0000008d   Wk    1  Code  Hi   0x2
    267  am_fault_isr               0x0000008f   Wk    1  Code  Hi   0x2
    268  am_memmanage_isr           0x00000091   Wk    1  Code  Hi   0x2
    269  am_adc_isr                 0x00000093   Wk    1  Code  Hi 
    270  am_brownout_isr            0x00000093   Wk    1  Code  Hi 
    271  am_clkgen_isr              0x00000093   Wk    1  Code  Hi 
    272  am_ctimer_isr              0x00000093   Wk    1  Code  Hi 
    273  am_debugmon_isr            0x00000093   Wk    1  Code  Hi 
    274  am_iomaster0_isr           0x00000093   Wk    1  Code  Hi 
    275  am_iomaster1_isr           0x00000093   Wk    1  Code  Hi 
    276  am_ioslave_acc_isr         0x00000093   Wk    1  Code  Hi 
    277  am_ioslave_ios_isr         0x00000093   Wk    1  Code  Hi 
    278  am_pendsv_isr              0x00000093   Wk    1  Code  Hi 
    279  am_svcall_isr              0x00000093   Wk    1  Code  Hi 
    280  am_systick_isr             0x00000093   Wk    1  Code  Hi 
    281  am_uart_isr                0x00000093   Wk    1  Code  Hi 
    282  am_vcomp_isr               0x00000093   Wk    1  Code  Hi 
    283  am_watchdog_isr            0x00000093   Wk    1  Code  Hi 
    284  __main                     0x00000099   Gb    1  Code  Hi   0x8
    285  __scatterload              0x000000a1   Gb    1  Code  Hi 
    286  __scatterload_rt2          0x000000a1   Gb    1  Code  Hi   0x2c
    287  __scatterload_rt2_thumb_only
                                    0x000000a1   Gb    1  Code  Hi 
    288  __scatterload_null         0x000000af   Gb    1  Code  Hi 
    289  __scatterload_copy         0x000000d5   Gb    1  Code  Hi   0x1a
    290  __scatterload_zeroinit     0x000000f1   Gb    1  Code  Hi   0x1c
    291  __rt_lib_init              0x0000010d   Gb    1  Code  De 
    292  __rt_lib_init_fp_1         0x0000010f   Gb    1  Code  Hi 
    293  __rt_lib_init_alloca_1     0x00000113   Gb    1  Code  Hi 
    294  __rt_lib_init_argv_1       0x00000113   Gb    1  Code  Hi 
    295  __rt_lib_init_atexit_1     0x00000113   Gb    1  Code  Hi 
    296  __rt_lib_init_clock_1      0x00000113   Gb    1  Code  Hi 
    297  __rt_lib_init_cpp_1        0x00000113   Gb    1  Code  Hi 
    298  __rt_lib_init_exceptions_1 0x00000113   Gb    1  Code  Hi 
    299  __rt_lib_init_fp_trap_1    0x00000113   Gb    1  Code  Hi 
    300  __rt_lib_init_getenv_1     0x00000113   Gb    1  Code  Hi 
    301  __rt_lib_init_heap_1       0x00000113   Gb    1  Code  Hi 
    302  __rt_lib_init_lc_collate_1 0x00000113   Gb    1  Code  Hi 
    303  __rt_lib_init_lc_ctype_1   0x00000113   Gb    1  Code  Hi 
    304  __rt_lib_init_lc_monetary_1
                                    0x00000113   Gb    1  Code  Hi 
    305  __rt_lib_init_lc_numeric_1 0x00000113   Gb    1  Code  Hi 
    306  __rt_lib_init_lc_time_1    0x00000113   Gb    1  Code  Hi 
    307  __rt_lib_init_preinit_1    0x00000113   Gb    1  Code  Hi 
    308  __rt_lib_init_rand_1       0x00000113   Gb    1  Code  Hi 
    309  __rt_lib_init_return       0x00000113   Gb    1  Code  Hi 
    310  __rt_lib_init_signal_1     0x00000113   Gb    1  Code  Hi 
    311  __rt_lib_init_stdio_1      0x00000113   Gb    1  Code  Hi 
    312  __rt_lib_init_user_alloc_1 0x00000113   Gb    1  Code  Hi 
    313  __rt_lib_shutdown          0x00000115   Gb    1  Code  De 
    314  __rt_lib_shutdown_cpp_1    0x00000117   Gb    1  Code  Hi 
    315  __rt_lib_shutdown_fp_trap_1
                                    0x00000117   Gb    1  Code  Hi 
    316  __rt_lib_shutdown_heap_1   0x00000117   Gb    1  Code  Hi 
    317  __rt_lib_shutdown_return   0x00000117   Gb    1  Code  Hi 
    318  __rt_lib_shutdown_signal_1 0x00000117   Gb    1  Code  Hi 
    319  __rt_lib_shutdown_stdio_1  0x00000117   Gb    1  Code  Hi 
    320  __rt_lib_shutdown_user_alloc_1
                                    0x00000117   Gb    1  Code  Hi 
    321  __rt_entry                 0x00000119   Gb    1  Code  Hi 
    322  __rt_entry_presh_1         0x00000119   Gb    1  Code  Hi 
    323  __rt_entry_sh              0x00000119   Gb    1  Code  Hi 
    324  __rt_entry_li              0x0000011f   Gb    1  Code  Hi 
    325  __rt_entry_postsh_1        0x0000011f   Gb    1  Code  Hi 
    326  __rt_entry_main            0x00000123   Gb    1  Code  Hi 
    327  __rt_entry_postli_1        0x00000123   Gb    1  Code  Hi 
    328  __rt_exit                  0x0000012b   Gb    1  Code  De 
    329  __rt_exit_ls               0x0000012d   Gb    1  Code  Hi 
    330  __rt_exit_prels_1          0x0000012d   Gb    1  Code  Hi 
    331  __rt_exit_exit             0x00000131   Gb    1  Code  Hi 
    332  am_hal_flash_delay         0x00000139   Gb    1  Code  Hi   0x6
    333  am_hal_interrupt_master_enable
                                    0x00000141   Gb    1  Code  Hi   0x8
    334  am_hal_interrupt_master_disable
                                    0x00000149   Gb    1  Code  Hi   0x8
    335  am_hal_interrupt_master_set
                                    0x00000151   Gb    1  Code  Hi   0x6
    336  __user_initial_stackheap   0x00000159   Gb    1  Code  Hi   0xa
    337  __use_two_region_memory    0x00000171   Gb    1  Code  Hi   0x2
    338  __rt_heap_escrow$2region   0x00000173   Gb    1  Code  De   0x2
    339  __rt_heap_expand$2region   0x00000175   Gb    1  Code  De   0x2
    340  __user_setup_stackheap     0x00000177   Gb    1  Code  De   0x4a
    341  exit                       0x000001c1   Gb    1  Code  De   0x12
    342  __user_libspace            0x000001d5   Wk    1  Code  De   0x8
    343  __user_perproc_libspace    0x000001d5   Wk    1  Code  De 
    344  __user_perthread_libspace  0x000001d5   Wk    1  Code  De 
    345  _sys_exit                  0x000001dd   Gb    1  Code  De   0x8
    346  __I$use$semihosting        0x000001e9   Gb    1  Code  Hi 
    347  __use_no_semihosting_swi   0x000001e9   Gb    1  Code  Hi   0x2
    348  __semihosting_library_function
                                    0x000001eb   Gb    1  Code  Hi 
    349  am_bsp_iom_enable          0x000001ed   Gb    1  Code  Hi   0xa0
    350  am_bsp_low_power_init      0x00000299   Gb    1  Code  Hi   0x22
    351  am_gpio_isr                0x000002bb   Gb    1  Code  Hi   0x16
    352  am_hal_clkgen_osc_stop     0x000002d1   Gb    1  Code  Hi   0x14
    353  am_hal_clkgen_sysclk_get   0x000002e5   Gb    1  Code  Hi   0x40
    354  am_hal_clkgen_sysclk_select
                                    0x00000345   Gb    1  Code  Hi   0x10
    355  am_hal_debug_error         0x00000355   Wk    1  Code  Hi   0x2
    356  am_hal_flash_delay_status_change
                                    0x00000359   Gb    1  Code  Hi   0x38
    357  am_hal_gpio_int_clear      0x00000395   Gb    1  Code  Hi   0xc
    358  am_hal_gpio_int_status_get 0x000003a5   Gb    1  Code  Hi   0x34
    359  am_hal_iom_config          0x000003dd   Gb    1  Code  Hi   0x9e
    360  am_hal_iom_enable          0x0000050d   Gb    1  Code  Hi   0x68
    361  am_hal_iom_fifo_read       0x0000057d   Gb    1  Code  Hi   0x88
    362  am_hal_iom_fifo_write      0x0000064d   Gb    1  Code  Hi   0x9c
    363  am_hal_iom_int_clear       0x0000072d   Gb    1  Code  Hi   0x16
    364  am_hal_iom_sleeping_queue_flush
                                    0x00000745   Gb    1  Code  Hi   0x4e
    365  am_hal_iom_spi_cmd_run     0x0000079d   Gb    1  Code  Hi   0x4c
    366  am_hal_iom_spi_read        0x00000821   Gb    1  Code  Hi   0xea
    367  am_hal_iom_spi_read_nb     0x0000099d   Gb    1  Code  Hi   0xc4
    368  am_hal_iom_spi_read_nq     0x00000aed   Gb    1  Code  Hi   0x134
    369  am_hal_iom_spi_write       0x00000c45   Gb    1  Code  Hi   0xd4
    370  am_hal_iom_spi_write_nb    0x00000d91   Gb    1  Code  Hi   0xda
    371  am_hal_iom_spi_write_nq    0x00000ec9   Gb    1  Code  Hi   0x148
    372  am_hal_mcuctrl_bandgap_disable
                                    0x00001089   Gb    1  Code  Hi   0xc
    373  am_hal_mcuctrl_bucks_enable
                                    0x00001099   Gb    1  Code  Hi   0x24
    374  am_hal_queue_item_add      0x000010c1   Gb    1  Code  Hi   0x9e
    375  am_hal_rtc_osc_disable     0x0000115f   Gb    1  Code  Hi   0xe
    376  am_hal_rtc_osc_select      0x0000116d   Gb    1  Code  Hi   0x16
    377  am_hal_sysctrl_sleep       0x00001185   Gb    1  Code  Hi   0x2c
    378  am_hal_vcomp_disable       0x000011b9   Gb    1  Code  Hi   0x8
    379  am_util_delay_us           0x000011c5   Gb    1  Code  Hi   0x1c
    380  configure_pins             0x000011e5   Gb    1  Code  Hi   0xb8
    381  main                       0x000012a1   Gb    1  Code  Hi   0x6e
    382  override_pin_set           0x00001321   Gb    1  Code  Hi   0x78
    383  start_boot_mode            0x000013a5   Gb    1  Code  Hi   0x8a
    384  start_new_image            0x00001435   Gb    1  Code  Hi   0x92
    385  transfer_image             0x000014d9   Gb    1  Code  Hi   0xa4
    386  _fp_init                   0x0000158d   Gb    1  Code  De   0xa
    387  __fplib_config_fpu_vfp     0x00001595   Gb    1  Code  De 
    388  __fplib_config_pureend_doubles
                                    0x00001595   Gb    1  Code  De 
    389  g_pui8ApolloBootDemo       0x00001598   Gb    1  Data  Hi   0x1b38
    390  g_sIOMConfig               0x000030d0   Gb    1  Data  Hi   0xc
    391  Region$$Table$$Base        0x00003150   Gb    1   --   Hi 
    392  Region$$Table$$Limit       0x00003170   Gb    1   --   Hi 
    393  g_ui32HALflags             0x10000000   Gb    2  Data  Hi   0x4
    394  g_bIomBusy                 0x10000004   Gb    2  Data  Hi   0x2
    395  g_ui32Mod0Interface        0x10000008   Gb    2  Data  Hi   0x4
    396  g_ui32Mod1Interface        0x1000000c   Gb    2  Data  Hi   0x4
    397  am_hal_iom_queue_flush     0x10000010   Gb    2  Data  Hi   0x4
    398  ui32StatusTimeout          0x10000014   Gb    2  Data  Hi   0x8
    399  g_psTxBuffer               0x1000002c   Gb    3  Data  Hi   0x100
    400  g_psRxBuffer               0x1000012c   Gb    3  Data  Hi   0x100
    401  pui32ExpandedKey           0x1000022c   Gb    3  Data  Hi   0xf0
    402  g_psIOMBuffers             0x1000031c   Gb    3  Data  Hi   0x28
    403  g_psIOMQueue               0x10000344   Gb    3  Data  Hi   0x30
    404  __libspace_start           0x10000374   Gb    3  Data  De   0x60
    405  __temporary_stack_top$libspace
                                    0x100003d4   Gb    3  Data  De 


** Section #12 '.strtab' (SHT_STRTAB)
    Size   : 6316 bytes

            #  Offset String
        ====================================

            1      1: $d
            2      4: $t
            3      7: $d.realdata
            4     19: ../src/spi_boot_host.c
            5     42: i.am_gpio_isr
            6     56: i.configure_pins
            7     73: i.main
            8     80: i.override_pin_set
            9     99: i.start_boot_mode
           10    117: i.start_new_image
           11    135: i.transfer_image
           12    152: .bss
           13    157: .constdata
           14    168: ../../../../../utils/am_util_delay.c
           15    205: i.am_util_delay_us
           16    224: ../../../../../utils/am_util_stdio.c
           17    261: ../keil/startup_keil.s
           18    284: STACK
           19    290: StackMem
           20    299: HEAP
           21    304: HeapMem
           22    312: RESET
           23    318: $v0
           24    322: .text
           25    328: ..\am_hal_global.c
           26    347: ../am_hal_global.c
           27    366: .data
           28    372: ../am_hal_clkgen.c
           29    391: i.am_hal_clkgen_osc_stop
           30    416: i.am_hal_clkgen_sysclk_get
           31    443: i.am_hal_clkgen_sysclk_select
           32    473: ..\am_hal_flash.c
           33    491: .emb_text
           34    501: ../am_hal_flash.c
           35    519: i.am_hal_flash_delay_status_change
           36    554: ../am_hal_gpio.c
           37    571: i.am_hal_gpio_int_clear
           38    595: i.am_hal_gpio_int_status_get
           39    624: ../am_hal_iom.c
           40    640: i.am_hal_iom_config
           41    660: i.am_hal_iom_enable
           42    680: i.am_hal_iom_fifo_read
           43    703: i.am_hal_iom_fifo_write
           44    727: i.am_hal_iom_int_clear
           45    750: i.am_hal_iom_sleeping_queue_flush
           46    784: i.am_hal_iom_spi_cmd_run
           47    809: i.am_hal_iom_spi_read
           48    831: i.am_hal_iom_spi_read_nb
           49    856: i.am_hal_iom_spi_read_nq
           50    881: i.am_hal_iom_spi_write
           51    904: i.am_hal_iom_spi_write_nb
           52    930: i.am_hal_iom_spi_write_nq
           53    956: .conststring
           54    969: ../am_bsp.c
           55    981: i.am_bsp_iom_enable
           56   1001: i.am_bsp_low_power_init
           57   1025: g_SPIpins
           58   1035: ../am_hal_debug.c
           59   1053: i.am_hal_debug_error
           60   1074: ../am_hal_i2c_bit_bang.c
           61   1099: ..\am_hal_interrupt.c
           62   1121: ../am_hal_interrupt.c
           63   1143: ../am_hal_itm.c
           64   1159: ../am_hal_mcuctrl.c
           65   1179: i.am_hal_mcuctrl_bandgap_disable
           66   1212: i.am_hal_mcuctrl_bucks_enable
           67   1242: ../am_hal_queue.c
           68   1260: i.am_hal_queue_item_add
           69   1284: ../am_hal_rtc.c
           70   1300: i.am_hal_rtc_osc_disable
           71   1325: i.am_hal_rtc_osc_select
           72   1349: ../am_hal_sysctrl.c
           73   1369: i.am_hal_sysctrl_sleep
           74   1392: ../am_hal_tpiu.c
           75   1409: ../am_hal_uart.c
           76   1426: ../am_hal_vcomp.c
           77   1444: i.am_hal_vcomp_disable
           78   1467: dc.s
           79   1472: ../clib/heapaux.c
           80   1490: ../clib/angel/startup.s
           81   1514: !!!main
           82   1522: ../fplib/d2f.s
           83   1537: ../clib/angel/kernel.s
           84   1560: .ARM.Collect$$rtentry$$00000000
           85   1592: ../fplib/dnaninf.s
           86   1611: ../fplib/fretinf.s
           87   1630: ../fplib/usenofp.s
           88   1649: .ARM.Collect$$rtentry$$00000002
           89   1681: .ARM.Collect$$rtentry$$00000009
           90   1713: .ARM.Collect$$rtentry$$0000000A
           91   1745: .ARM.Collect$$rtentry$$0000000C
           92   1777: .ARM.Collect$$rtentry$$0000000D
           93   1809: .ARM.Collect$$rtentry$$00000004
           94   1841: ../clib/angel/sys.s
           95   1861: ../clib/stdlib.c
           96   1878: ../clib/angel/boardlib.s
           97   1903: ../clib/libinit.s
           98   1921: .ARM.Collect$$libinit$$00000000
           99   1953: .ARM.Collect$$rtexit$$00000000
          100   1984: .ARM.Collect$$libinit$$00000001
          101   2016: .ARM.Collect$$libinit$$00000004
          102   2048: .ARM.Collect$$libinit$$0000000A
          103   2080: .ARM.Collect$$libinit$$0000000C
          104   2112: .ARM.Collect$$libinit$$0000000E
          105   2144: .ARM.Collect$$libinit$$00000011
          106   2176: .ARM.Collect$$libinit$$00000013
          107   2208: .ARM.Collect$$libinit$$00000015
          108   2240: .ARM.Collect$$libinit$$00000017
          109   2272: .ARM.Collect$$libinit$$00000019
          110   2304: .ARM.Collect$$libinit$$0000001B
          111   2336: .ARM.Collect$$libinit$$0000001D
          112   2368: .ARM.Collect$$libinit$$0000001F
          113   2400: .ARM.Collect$$libinit$$00000021
          114   2432: .ARM.Collect$$libinit$$00000023
          115   2464: .ARM.Collect$$libinit$$00000025
          116   2496: .ARM.Collect$$libinit$$0000002C
          117   2528: .ARM.Collect$$libinit$$0000002E
          118   2560: .ARM.Collect$$libinit$$00000030
          119   2592: .ARM.Collect$$libinit$$00000032
          120   2624: .ARM.Collect$$libinit$$00000033
          121   2656: .ARM.Collect$$rtexit$$00000002
          122   2687: .ARM.Collect$$rtexit$$00000003
          123   2718: .ARM.Collect$$rtexit$$00000004
          124   2749: ../clib/armsys.c
          125   2766: ../fplib/fpinit.s
          126   2784: x$fpl$fpinit
          127   2797: ../clib/angel/sysapp.c
          128   2820: .ARM.Collect$$libshutdown$$00000000
          129   2856: ../clib/heapalloc.c
          130   2876: ../clib/signal.c
          131   2893: .ARM.Collect$$libshutdown$$00000002
          132   2929: .ARM.Collect$$libshutdown$$00000004
          133   2965: .ARM.Collect$$libshutdown$$00000007
          134   3001: .ARM.Collect$$libshutdown$$0000000A
          135   3037: .ARM.Collect$$libshutdown$$0000000C
          136   3073: .ARM.Collect$$libshutdown$$0000000F
          137   3109: .ARM.Collect$$libshutdown$$00000010
          138   3145: ../clib/angel/rt.s
          139   3164: ../clib/signal.s
          140   3181: ../clib/angel/scatter.s
          141   3205: !!!scatter
          142   3216: ../clib/angel/handlers.s
          143   3241: !!handler_copy
          144   3256: !!handler_zi
          145   3269: BuildAttributes$$THM_ISAv4$E$P$D$K$B$S$7EM$VFPi3$EXTD16$VFPS$VFMA$PE$A:L22UL41UL21$X:L11$S22US41US21$IEEE1$IW$USESV6$~STKCKD$USESV7$~SHL$OTIME$ROPI$EBA8$UX$STANDARDLIB$REQ8$PRES8$EABIv2
          146   3455: __ARM_use_no_argv
          147   3473: __Vectors
          148   3483: Reset_Handler
          149   3497: am_nmi_isr
          150   3508: am_fault_isr
          151   3521: am_memmanage_isr
          152   3538: am_adc_isr
          153   3549: am_brownout_isr
          154   3565: am_clkgen_isr
          155   3579: am_ctimer_isr
          156   3593: am_debugmon_isr
          157   3609: am_iomaster0_isr
          158   3626: am_iomaster1_isr
          159   3643: am_ioslave_acc_isr
          160   3662: am_ioslave_ios_isr
          161   3681: am_pendsv_isr
          162   3695: am_svcall_isr
          163   3709: am_systick_isr
          164   3724: am_uart_isr
          165   3736: am_vcomp_isr
          166   3749: am_watchdog_isr
          167   3765: __main
          168   3772: __scatterload
          169   3786: __scatterload_rt2
          170   3804: __scatterload_rt2_thumb_only
          171   3833: __scatterload_null
          172   3852: __scatterload_copy
          173   3871: __scatterload_zeroinit
          174   3894: __rt_lib_init
          175   3908: __rt_lib_init_fp_1
          176   3927: __rt_lib_init_alloca_1
          177   3950: __rt_lib_init_argv_1
          178   3971: __rt_lib_init_atexit_1
          179   3994: __rt_lib_init_clock_1
          180   4016: __rt_lib_init_cpp_1
          181   4036: __rt_lib_init_exceptions_1
          182   4063: __rt_lib_init_fp_trap_1
          183   4087: __rt_lib_init_getenv_1
          184   4110: __rt_lib_init_heap_1
          185   4131: __rt_lib_init_lc_collate_1
          186   4158: __rt_lib_init_lc_ctype_1
          187   4183: __rt_lib_init_lc_monetary_1
          188   4211: __rt_lib_init_lc_numeric_1
          189   4238: __rt_lib_init_lc_time_1
          190   4262: __rt_lib_init_preinit_1
          191   4286: __rt_lib_init_rand_1
          192   4307: __rt_lib_init_return
          193   4328: __rt_lib_init_signal_1
          194   4351: __rt_lib_init_stdio_1
          195   4373: __rt_lib_init_user_alloc_1
          196   4400: __rt_lib_shutdown
          197   4418: __rt_lib_shutdown_cpp_1
          198   4442: __rt_lib_shutdown_fp_trap_1
          199   4470: __rt_lib_shutdown_heap_1
          200   4495: __rt_lib_shutdown_return
          201   4520: __rt_lib_shutdown_signal_1
          202   4547: __rt_lib_shutdown_stdio_1
          203   4573: __rt_lib_shutdown_user_alloc_1
          204   4604: __rt_entry
          205   4615: __rt_entry_presh_1
          206   4634: __rt_entry_sh
          207   4648: __rt_entry_li
          208   4662: __rt_entry_postsh_1
          209   4682: __rt_entry_main
          210   4698: __rt_entry_postli_1
          211   4718: __rt_exit
          212   4728: __rt_exit_ls
          213   4741: __rt_exit_prels_1
          214   4759: __rt_exit_exit
          215   4774: am_hal_flash_delay
          216   4793: am_hal_interrupt_master_enable
          217   4824: am_hal_interrupt_master_disable
          218   4856: am_hal_interrupt_master_set
          219   4884: __user_initial_stackheap
          220   4909: __use_two_region_memory
          221   4933: __rt_heap_escrow$2region
          222   4958: __rt_heap_expand$2region
          223   4983: __user_setup_stackheap
          224   5006: exit
          225   5011: __user_libspace
          226   5027: __user_perproc_libspace
          227   5051: __user_perthread_libspace
          228   5077: _sys_exit
          229   5087: __I$use$semihosting
          230   5107: __use_no_semihosting_swi
          231   5132: __semihosting_library_function
          232   5163: am_bsp_iom_enable
          233   5181: am_bsp_low_power_init
          234   5203: am_gpio_isr
          235   5215: am_hal_clkgen_osc_stop
          236   5238: am_hal_clkgen_sysclk_get
          237   5263: am_hal_clkgen_sysclk_select
          238   5291: am_hal_debug_error
          239   5310: am_hal_flash_delay_status_change
          240   5343: am_hal_gpio_int_clear
          241   5365: am_hal_gpio_int_status_get
          242   5392: am_hal_iom_config
          243   5410: am_hal_iom_enable
          244   5428: am_hal_iom_fifo_read
          245   5449: am_hal_iom_fifo_write
          246   5471: am_hal_iom_int_clear
          247   5492: am_hal_iom_sleeping_queue_flush
          248   5524: am_hal_iom_spi_cmd_run
          249   5547: am_hal_iom_spi_read
          250   5567: am_hal_iom_spi_read_nb
          251   5590: am_hal_iom_spi_read_nq
          252   5613: am_hal_iom_spi_write
          253   5634: am_hal_iom_spi_write_nb
          254   5658: am_hal_iom_spi_write_nq
          255   5682: am_hal_mcuctrl_bandgap_disable
          256   5713: am_hal_mcuctrl_bucks_enable
          257   5741: am_hal_queue_item_add
          258   5763: am_hal_rtc_osc_disable
          259   5786: am_hal_rtc_osc_select
          260   5808: am_hal_sysctrl_sleep
          261   5829: am_hal_vcomp_disable
          262   5850: am_util_delay_us
          263   5867: configure_pins
          264   5882: main
          265   5887: override_pin_set
          266   5904: start_boot_mode
          267   5920: start_new_image
          268   5936: transfer_image
          269   5951: _fp_init
          270   5960: __fplib_config_fpu_vfp
          271   5983: __fplib_config_pureend_doubles
          272   6014: g_pui8ApolloBootDemo
          273   6035: g_sIOMConfig
          274   6048: Region$$Table$$Base
          275   6068: Region$$Table$$Limit
          276   6089: g_ui32HALflags
          277   6104: g_bIomBusy
          278   6115: g_ui32Mod0Interface
          279   6135: g_ui32Mod1Interface
          280   6155: am_hal_iom_queue_flush
          281   6178: ui32StatusTimeout
          282   6196: g_psTxBuffer
          283   6209: g_psRxBuffer
          284   6222: pui32ExpandedKey
          285   6239: g_psIOMBuffers
          286   6254: g_psIOMQueue
          287   6267: __libspace_start
          288   6284: __temporary_stack_top$libspace
          289   6315: 


** Section #13 '.note' (SHT_NOTE)
    Size   : 28 bytes (alignment 4)


** Section #14 '.comment' (SHT_PROGBITS)
    Size   : 13584 bytes


** Section #15 '.shstrtab' (SHT_STRTAB)
    Size   : 148 bytes

            #  Offset String
        ====================================

            1      1: FLASH
            2      7: SRAM
            3     12: .debug_abbrev
            4     26: .debug_frame
            5     39: .debug_info
            6     51: .debug_line
            7     63: .debug_loc
            8     74: .debug_macinfo
            9     89: .debug_pubnames
           10    105: .symtab
           11    113: .strtab
           12    121: .note
           13    127: .comment
           14    136: .shstrtab
           15    146: 
           16    147: 


