
========================================================================

** ELF Header Information

    File Name: bin\freertos_lowpower.axf

    Machine class: ELFCLASS32 (32-bit)
    Data encoding: ELFDATA2LSB (Little endian)
    Header version: EV_CURRENT (Current version)
    Operating System ABI: none
    ABI Version: 0
    File Type: ET_EXEC (Executable) (2)
    Machine: EM_ARM (ARM)

    Image Entry point: 0x00000099
    Flags: EF_ARM_HASENTRY + EF_ARM_ABI_FLOAT_HARD (0x05000402)

    ARM ELF revision: 5 (ABI version 2)

    Conforms to Hard float procedure-call standard

    Built with
    Component: ARM Compiler 5.06 update 6 (build 750) Tool: armasm [4d35ec]
    Component: ARM Compiler 5.06 update 6 (build 750) Tool: armlink [4d35ed]

    Header size: 52 bytes (0x34)
    Program header entry size: 32 bytes (0x20)
    Section header entry size: 40 bytes (0x28)

    Program header entries: 1
    Section header entries: 16

    Program header offset: 219864 (0x00035ad8)
    Section header offset: 219896 (0x00035af8)

    Section header string table index: 15

========================================================================

** Program header #0 (PT_LOAD) [PF_X + PF_W + PF_R + PF_ARM_ENTRY]
    Size : 41736 bytes (15552 bytes in file)
    Virtual address: 0x00000000 (Alignment 8)


========================================================================

** Section #1 'FLASH' (SHT_PROGBITS) [SHF_ALLOC + SHF_EXECINSTR]
    Size   : 15368 bytes (alignment 4)
    Address: 0x00000000

    $d
    RESET
    __Vectors
        0x00000000:    10006700    .g..    DCD    268461824
        0x00000004:    00000071    q...    DCD    113
        0x00000008:    0000008d    ....    DCD    141
        0x0000000c:    000001f9    ....    DCD    505
        0x00000010:    000001f9    ....    DCD    505
        0x00000014:    000001f9    ....    DCD    505
        0x00000018:    000001f9    ....    DCD    505
        0x0000001c:    00000000    ....    DCD    0
        0x00000020:    00000000    ....    DCD    0
        0x00000024:    00000000    ....    DCD    0
        0x00000028:    00000000    ....    DCD    0
        0x0000002c:    00000139    9...    DCD    313
        0x00000030:    00000093    ....    DCD    147
        0x00000034:    00000000    ....    DCD    0
        0x00000038:    00000195    ....    DCD    405
        0x0000003c:    00001321    !...    DCD    4897
        0x00000040:    00000093    ....    DCD    147
        0x00000044:    00000093    ....    DCD    147
        0x00000048:    00000093    ....    DCD    147
        0x0000004c:    00000093    ....    DCD    147
        0x00000050:    00000093    ....    DCD    147
        0x00000054:    00000093    ....    DCD    147
        0x00000058:    00000093    ....    DCD    147
        0x0000005c:    00000093    ....    DCD    147
        0x00000060:    00000093    ....    DCD    147
        0x00000064:    00000a99    ....    DCD    2713
        0x00000068:    00000713    ....    DCD    1811
        0x0000006c:    00000093    ....    DCD    147
    $t
    $v0
    Reset_Handler
        0x00000070:    f64e5088    N..P    MOV      r0,#0xed88
        0x00000074:    f2ce0000    ....    MOVT     r0,#0xe000
        0x00000078:    6801        .h      LDR      r1,[r0,#0]
        0x0000007a:    f4410170    A.p.    ORR      r1,r1,#0xf00000
        0x0000007e:    6001        .`      STR      r1,[r0,#0]
        0x00000080:    f3bf8f4f    ..O.    DSB      
        0x00000084:    f3bf8f6f    ..o.    ISB      
        0x00000088:    4802        .H      LDR      r0,[pc,#8] ; [0x94] = 0x99
        0x0000008a:    4700        .G      BX       r0
    am_nmi_isr
        0x0000008c:    e7fe        ..      B        am_nmi_isr ; 0x8c
        0x0000008e:    e7fe        ..      B        0x8e ; am_nmi_isr + 2
    am_memmanage_isr
        0x00000090:    e7fe        ..      B        am_memmanage_isr ; 0x90
    am_adc_isr
    am_brownout_isr
    am_clkgen_isr
    am_debugmon_isr
    am_iomaster0_isr
    am_iomaster1_isr
    am_ioslave_acc_isr
    am_ioslave_ios_isr
    am_uart_isr
    am_vcomp_isr
    am_watchdog_isr
        0x00000092:    e7fe        ..      B        am_adc_isr ; 0x92
    $d
        0x00000094:    00000099    ....    DCD    153
    $t
    !!!main
    __main
        0x00000098:    f000f802    ....    BL       __scatterload ; 0xa0
        0x0000009c:    f000f83c    ..<.    BL       __rt_entry ; 0x118
    !!!scatter
    __scatterload
    __scatterload_rt2
    __scatterload_rt2_thumb_only
        0x000000a0:    a00a        ..      ADR      r0,{pc}+0x2c ; 0xcc
        0x000000a2:    e8900c00    ....    LDM      r0,{r10,r11}
        0x000000a6:    4482        .D      ADD      r10,r10,r0
        0x000000a8:    4483        .D      ADD      r11,r11,r0
        0x000000aa:    f1aa0701    ....    SUB      r7,r10,#1
    __scatterload_null
        0x000000ae:    45da        .E      CMP      r10,r11
        0x000000b0:    d101        ..      BNE      0xb6 ; __scatterload_null + 8
        0x000000b2:    f000f831    ..1.    BL       __rt_entry ; 0x118
        0x000000b6:    f2af0e09    ....    ADR      lr,{pc}-7 ; 0xaf
        0x000000ba:    e8ba000f    ....    LDM      r10!,{r0-r3}
        0x000000be:    f0130f01    ....    TST      r3,#1
        0x000000c2:    bf18        ..      IT       NE
        0x000000c4:    1afb        ..      SUBNE    r3,r7,r3
        0x000000c6:    f0430301    C...    ORR      r3,r3,#1
        0x000000ca:    4718        .G      BX       r3
    $d
        0x000000cc:    00003b1c    .;..    DCD    15132
        0x000000d0:    00003b3c    <;..    DCD    15164
    $t
    !!handler_copy
    __scatterload_copy
        0x000000d4:    3a10        .:      SUBS     r2,r2,#0x10
        0x000000d6:    bf24        $.      ITT      CS
        0x000000d8:    c878        x.      LDMCS    r0!,{r3-r6}
        0x000000da:    c178        x.      STMCS    r1!,{r3-r6}
        0x000000dc:    d8fa        ..      BHI      __scatterload_copy ; 0xd4
        0x000000de:    0752        R.      LSLS     r2,r2,#29
        0x000000e0:    bf24        $.      ITT      CS
        0x000000e2:    c830        0.      LDMCS    r0!,{r4,r5}
        0x000000e4:    c130        0.      STMCS    r1!,{r4,r5}
        0x000000e6:    bf44        D.      ITT      MI
        0x000000e8:    6804        .h      LDRMI    r4,[r0,#0]
        0x000000ea:    600c        .`      STRMI    r4,[r1,#0]
        0x000000ec:    4770        pG      BX       lr
        0x000000ee:    0000        ..      MOVS     r0,r0
    !!handler_zi
    __scatterload_zeroinit
        0x000000f0:    2300        .#      MOVS     r3,#0
        0x000000f2:    2400        .$      MOVS     r4,#0
        0x000000f4:    2500        .%      MOVS     r5,#0
        0x000000f6:    2600        .&      MOVS     r6,#0
        0x000000f8:    3a10        .:      SUBS     r2,r2,#0x10
        0x000000fa:    bf28        (.      IT       CS
        0x000000fc:    c178        x.      STMCS    r1!,{r3-r6}
        0x000000fe:    d8fb        ..      BHI      0xf8 ; __scatterload_zeroinit + 8
        0x00000100:    0752        R.      LSLS     r2,r2,#29
        0x00000102:    bf28        (.      IT       CS
        0x00000104:    c130        0.      STMCS    r1!,{r4,r5}
        0x00000106:    bf48        H.      IT       MI
        0x00000108:    600b        .`      STRMI    r3,[r1,#0]
        0x0000010a:    4770        pG      BX       lr
    .ARM.Collect$$libinit$$00000000
    __rt_lib_init
        0x0000010c:    b51f        ..      PUSH     {r0-r4,lr}
    .ARM.Collect$$libinit$$00000001
    __rt_lib_init_fp_1
        0x0000010e:    f003fd52    ..R.    BL       _fp_init ; 0x3bb6
    .ARM.Collect$$libinit$$00000004
    .ARM.Collect$$libinit$$0000000A
    .ARM.Collect$$libinit$$0000000C
    .ARM.Collect$$libinit$$0000000E
    .ARM.Collect$$libinit$$00000011
    .ARM.Collect$$libinit$$00000013
    .ARM.Collect$$libinit$$00000015
    .ARM.Collect$$libinit$$00000017
    .ARM.Collect$$libinit$$00000019
    .ARM.Collect$$libinit$$0000001B
    .ARM.Collect$$libinit$$0000001D
    .ARM.Collect$$libinit$$0000001F
    .ARM.Collect$$libinit$$00000021
    .ARM.Collect$$libinit$$00000023
    .ARM.Collect$$libinit$$00000025
    .ARM.Collect$$libinit$$0000002C
    .ARM.Collect$$libinit$$0000002E
    .ARM.Collect$$libinit$$00000030
    .ARM.Collect$$libinit$$00000032
    .ARM.Collect$$libinit$$00000033
    __rt_lib_init_alloca_1
    __rt_lib_init_argv_1
    __rt_lib_init_atexit_1
    __rt_lib_init_clock_1
    __rt_lib_init_cpp_1
    __rt_lib_init_exceptions_1
    __rt_lib_init_fp_trap_1
    __rt_lib_init_getenv_1
    __rt_lib_init_heap_1
    __rt_lib_init_lc_collate_1
    __rt_lib_init_lc_ctype_1
    __rt_lib_init_lc_monetary_1
    __rt_lib_init_lc_numeric_1
    __rt_lib_init_lc_time_1
    __rt_lib_init_preinit_1
    __rt_lib_init_rand_1
    __rt_lib_init_return
    __rt_lib_init_signal_1
    __rt_lib_init_stdio_1
    __rt_lib_init_user_alloc_1
        0x00000112:    bd1f        ..      POP      {r0-r4,pc}
    .ARM.Collect$$libshutdown$$00000000
    __rt_lib_shutdown
        0x00000114:    b510        ..      PUSH     {r4,lr}
    .ARM.Collect$$libshutdown$$00000002
    .ARM.Collect$$libshutdown$$00000004
    .ARM.Collect$$libshutdown$$00000007
    .ARM.Collect$$libshutdown$$0000000A
    .ARM.Collect$$libshutdown$$0000000C
    .ARM.Collect$$libshutdown$$0000000F
    .ARM.Collect$$libshutdown$$00000010
    __rt_lib_shutdown_cpp_1
    __rt_lib_shutdown_fp_trap_1
    __rt_lib_shutdown_heap_1
    __rt_lib_shutdown_return
    __rt_lib_shutdown_signal_1
    __rt_lib_shutdown_stdio_1
    __rt_lib_shutdown_user_alloc_1
        0x00000116:    bd10        ..      POP      {r4,pc}
    .ARM.Collect$$rtentry$$00000000
    .ARM.Collect$$rtentry$$00000002
    .ARM.Collect$$rtentry$$00000004
    __rt_entry
    __rt_entry_presh_1
    __rt_entry_sh
        0x00000118:    f000f979    ..y.    BL       __user_setup_stackheap ; 0x40e
        0x0000011c:    4611        .F      MOV      r1,r2
    .ARM.Collect$$rtentry$$00000009
    .ARM.Collect$$rtentry$$0000000A
    __rt_entry_li
    __rt_entry_postsh_1
        0x0000011e:    f7fffff5    ....    BL       __rt_lib_init ; 0x10c
    .ARM.Collect$$rtentry$$0000000C
    .ARM.Collect$$rtentry$$0000000D
    __rt_entry_main
    __rt_entry_postli_1
        0x00000122:    f001fd69    ..i.    BL       main ; 0x1bf8
        0x00000126:    f000f997    ....    BL       exit ; 0x458
    .ARM.Collect$$rtexit$$00000000
    __rt_exit
        0x0000012a:    b403        ..      PUSH     {r0,r1}
    .ARM.Collect$$rtexit$$00000002
    .ARM.Collect$$rtexit$$00000003
    __rt_exit_ls
    __rt_exit_prels_1
        0x0000012c:    f7fffff2    ....    BL       __rt_lib_shutdown ; 0x114
    .ARM.Collect$$rtexit$$00000004
    __rt_exit_exit
        0x00000130:    bc03        ..      POP      {r0,r1}
        0x00000132:    f000f99f    ....    BL       _sys_exit ; 0x474
        0x00000136:    0000        ..      MOVS     r0,r0
    .emb_text
    $v0
    am_svcall_isr
        0x00000138:    4b2c        ,K      LDR      r3,[pc,#176] ; [0x1ec] = 0x10000038
        0x0000013a:    6819        .h      LDR      r1,[r3,#0]
        0x0000013c:    6808        .h      LDR      r0,[r1,#0]
        0x0000013e:    e8b04ff0    ...O    LDM      r0!,{r4-r11,lr}
        0x00000142:    f3808809    ....    MSR      PSP,r0
        0x00000146:    f3bf8f6f    ..o.    ISB      
        0x0000014a:    f04f0000    O...    MOV      r0,#0
        0x0000014e:    f3808811    ....    MSR      BASEPRI,r0
        0x00000152:    4770        pG      BX       lr
    $d
        0x00000154:    00000000    ....    DCD    0
    $t
    __asm___6_port_c_39a90d8d__prvStartFirstTask
        0x00000158:    4808        .H      LDR      r0,[pc,#32] ; [0x17c] = 0xe000ed08
        0x0000015a:    6800        .h      LDR      r0,[r0,#0]
        0x0000015c:    6800        .h      LDR      r0,[r0,#0]
        0x0000015e:    f3808808    ....    MSR      MSP,r0
        0x00000162:    f04f0000    O...    MOV      r0,#0
        0x00000166:    f3808814    ....    MSR      CONTROL,r0
        0x0000016a:    b662        b.      CPSIE    i
        0x0000016c:    b661        a.      CPSIE    f
        0x0000016e:    f3bf8f4f    ..O.    DSB      
        0x00000172:    f3bf8f6f    ..o.    ISB      
        0x00000176:    df00        ..      SVC      #0x0 ; formerly SWI
        0x00000178:    bf00        ..      NOP      
        0x0000017a:    bf00        ..      NOP      
    $d
        0x0000017c:    e000ed08    ....    DCD    3758157064
    $t
    __asm___6_port_c_39a90d8d__prvEnableVFP
        0x00000180:    f8df000c    ....    LDR.W    r0,[pc,#12] ; [0x190] = 0xe000ed88
        0x00000184:    6801        .h      LDR      r1,[r0,#0]
        0x00000186:    f4410170    A.p.    ORR      r1,r1,#0xf00000
        0x0000018a:    6001        .`      STR      r1,[r0,#0]
        0x0000018c:    4770        pG      BX       lr
        0x0000018e:    bf00        ..      NOP      
    $d
        0x00000190:    e000ed88    ....    DCD    3758157192
    $t
    am_pendsv_isr
        0x00000194:    f3ef8009    ....    MRS      r0,PSP
        0x00000198:    f3bf8f6f    ..o.    ISB      
        0x0000019c:    4b13        .K      LDR      r3,[pc,#76] ; [0x1ec] = 0x10000038
        0x0000019e:    681a        .h      LDR      r2,[r3,#0]
        0x000001a0:    f01e0f10    ....    TST      lr,#0x10
        0x000001a4:    bf08        ..      IT       EQ
        0x000001a6:    ed208a10     ...    VSTMDBEQ r0!,{s16-s31}
        0x000001aa:    e9204ff0     ..O    STMDB    r0!,{r4-r11,lr}
        0x000001ae:    6010        .`      STR      r0,[r2,#0]
        0x000001b0:    b409        ..      PUSH     {r0,r3}
        0x000001b2:    f04f0080    O...    MOV      r0,#0x80
        0x000001b6:    f3808811    ....    MSR      BASEPRI,r0
        0x000001ba:    f3bf8f4f    ..O.    DSB      
        0x000001be:    f3bf8f6f    ..o.    ISB      
        0x000001c2:    f002fe39    ..9.    BL       vTaskSwitchContext ; 0x2e38
        0x000001c6:    f04f0000    O...    MOV      r0,#0
        0x000001ca:    f3808811    ....    MSR      BASEPRI,r0
        0x000001ce:    bc09        ..      POP      {r0,r3}
        0x000001d0:    6819        .h      LDR      r1,[r3,#0]
        0x000001d2:    6808        .h      LDR      r0,[r1,#0]
        0x000001d4:    e8b04ff0    ...O    LDM      r0!,{r4-r11,lr}
        0x000001d8:    f01e0f10    ....    TST      lr,#0x10
        0x000001dc:    bf08        ..      IT       EQ
        0x000001de:    ecb08a10    ....    VLDMEQ   r0!,{s16-s31}
        0x000001e2:    f3808809    ....    MSR      PSP,r0
        0x000001e6:    f3bf8f6f    ..o.    ISB      
        0x000001ea:    4770        pG      BX       lr
    $d
        0x000001ec:    10000038    8...    DCD    268435512
    $t
    vPortGetIPSR
        0x000001f0:    f3ef8005    ....    MRS      r0,IPSR
        0x000001f4:    4770        pG      BX       lr
        0x000001f6:    0000        ..      MOVS     r0,r0
    .emb_text
    $v0
    am_fault_isr
        0x000001f8:    b501        ..      PUSH     {r0,lr}
        0x000001fa:    f01e0f04    ....    TST      lr,#4
        0x000001fe:    bf0a        ..      ITET     EQ
        0x00000200:    f3ef8008    ....    MRSEQ    r0,MSP
        0x00000204:    f3ef8009    ....    MRSNE    r0,PSP
        0x00000208:    f1100008    ....    ADDSEQ   r0,r0,#8
        0x0000020c:    f001f8b2    ....    BL       am_util_faultisr_collect_data ; 0x1374
        0x00000210:    bd01        ..      POP      {r0,pc}
    getStackedReg
        0x00000212:    0080        ..      LSLS     r0,r0,#2
        0x00000214:    1840        @.      ADDS     r0,r0,r1
        0x00000216:    6800        .h      LDR      r0,[r0,#0]
        0x00000218:    4770        pG      BX       lr
        0x0000021a:    0000        ..      MOVS     r0,r0
    .emb_text
    $v0
    __asm___15_am_hal_ctimer_c_5490335f__back2back_reads
        0x0000021c:    b410        ..      PUSH     {r4}
        0x0000021e:    b402        ..      PUSH     {r1}
        0x00000220:    4602        .F      MOV      r2,r0
        0x00000222:    f3ef8410    ....    MRS      r4,PRIMASK
        0x00000226:    b672        r.      CPSID    i
        0x00000228:    bf00        ..      NOP      
        0x0000022a:    6810        .h      LDR      r0,[r2,#0]
        0x0000022c:    6811        .h      LDR      r1,[r2,#0]
        0x0000022e:    6813        .h      LDR      r3,[r2,#0]
        0x00000230:    f3848810    ....    MSR      PRIMASK,r4
        0x00000234:    bc04        ..      POP      {r2}
        0x00000236:    6010        .`      STR      r0,[r2,#0]
        0x00000238:    6051        Q`      STR      r1,[r2,#4]
        0x0000023a:    6093        .`      STR      r3,[r2,#8]
        0x0000023c:    bc10        ..      POP      {r4}
        0x0000023e:    4770        pG      BX       lr
    .emb_text
    $v0
    am_hal_flash_delay
        0x00000240:    3801        .8      SUBS     r0,#1
        0x00000242:    d1fd        ..      BNE      am_hal_flash_delay ; 0x240
        0x00000244:    4770        pG      BX       lr
        0x00000246:    0000        ..      MOVS     r0,r0
    .emb_text
    $v0
    am_hal_interrupt_master_enable
        0x00000248:    f3ef8010    ....    MRS      r0,PRIMASK
        0x0000024c:    b662        b.      CPSIE    i
        0x0000024e:    4770        pG      BX       lr
    am_hal_interrupt_master_disable
        0x00000250:    f3ef8010    ....    MRS      r0,PRIMASK
        0x00000254:    b672        r.      CPSID    i
        0x00000256:    4770        pG      BX       lr
    am_hal_interrupt_master_set
        0x00000258:    f3808810    ....    MSR      PRIMASK,r0
        0x0000025c:    4770        pG      BX       lr
        0x0000025e:    0000        ..      MOVS     r0,r0
    .text
    $v0
    __user_initial_stackheap
        0x00000260:    4802        .H      LDR      r0,[pc,#8] ; [0x26c] = 0x10004400
        0x00000262:    4903        .I      LDR      r1,[pc,#12] ; [0x270] = 0x10006700
        0x00000264:    4a01        .J      LDR      r2,[pc,#4] ; [0x26c] = 0x10004400
        0x00000266:    4b03        .K      LDR      r3,[pc,#12] ; [0x274] = 0x10004400
        0x00000268:    4770        pG      BX       lr
    $d
        0x0000026a:    0000        ..      DCW    0
        0x0000026c:    10004400    .D..    DCD    268452864
        0x00000270:    10006700    .g..    DCD    268461824
        0x00000274:    10004400    .D..    DCD    268452864
    $t
    .text
    __aeabi_memcpy
    __rt_memcpy
        0x00000278:    2a03        .*      CMP      r2,#3
        0x0000027a:    f2408030    @.0.    BLS.W    _memcpy_lastbytes ; 0x2de
        0x0000027e:    f0100c03    ....    ANDS     r12,r0,#3
        0x00000282:    f0008015    ....    BEQ.W    0x2b0 ; __aeabi_memcpy + 56
        0x00000286:    f8113b01    ...;    LDRB     r3,[r1],#1
        0x0000028a:    f1bc0f02    ....    CMP      r12,#2
        0x0000028e:    4462        bD      ADD      r2,r2,r12
        0x00000290:    bf98        ..      IT       LS
        0x00000292:    f811cb01    ....    LDRBLS   r12,[r1],#1
        0x00000296:    f8003b01    ...;    STRB     r3,[r0],#1
        0x0000029a:    bf38        8.      IT       CC
        0x0000029c:    f8113b01    ...;    LDRBCC   r3,[r1],#1
        0x000002a0:    f1a20204    ....    SUB      r2,r2,#4
        0x000002a4:    bf98        ..      IT       LS
        0x000002a6:    f800cb01    ....    STRBLS   r12,[r0],#1
        0x000002aa:    bf38        8.      IT       CC
        0x000002ac:    f8003b01    ...;    STRBCC   r3,[r0],#1
        0x000002b0:    f0110303    ....    ANDS     r3,r1,#3
        0x000002b4:    f0008057    ..W.    BEQ.W    __aeabi_memcpy4 ; 0x366
        0x000002b8:    3a08        .:      SUBS     r2,r2,#8
        0x000002ba:    f0c08008    ....    BCC.W    0x2ce ; __aeabi_memcpy + 86
        0x000002be:    f8513b04    Q..;    LDR      r3,[r1],#4
        0x000002c2:    3a08        .:      SUBS     r2,r2,#8
        0x000002c4:    f851cb04    Q...    LDR      r12,[r1],#4
        0x000002c8:    e8a01008    ....    STM      r0!,{r3,r12}
        0x000002cc:    e7f5        ..      B        0x2ba ; __aeabi_memcpy + 66
        0x000002ce:    1d12        ..      ADDS     r2,r2,#4
        0x000002d0:    bf5c        \.      ITT      PL
        0x000002d2:    f8513b04    Q..;    LDRPL    r3,[r1],#4
        0x000002d6:    f8403b04    @..;    STRPL    r3,[r0],#4
        0x000002da:    f3af8000    ....    NOP.W    
    _memcpy_lastbytes
        0x000002de:    07d2        ..      LSLS     r2,r2,#31
        0x000002e0:    bf24        $.      ITT      CS
        0x000002e2:    f8113b01    ...;    LDRBCS   r3,[r1],#1
        0x000002e6:    f811cb01    ....    LDRBCS   r12,[r1],#1
        0x000002ea:    bf48        H.      IT       MI
        0x000002ec:    f8112b01    ...+    LDRBMI   r2,[r1],#1
        0x000002f0:    bf24        $.      ITT      CS
        0x000002f2:    f8003b01    ...;    STRBCS   r3,[r0],#1
        0x000002f6:    f800cb01    ....    STRBCS   r12,[r0],#1
        0x000002fa:    bf48        H.      IT       MI
        0x000002fc:    f8002b01    ...+    STRBMI   r2,[r0],#1
        0x00000300:    4770        pG      BX       lr
    .text
    __aeabi_memset
        0x00000302:    f00203ff    ....    AND      r3,r2,#0xff
        0x00000306:    ea432203    C.."    ORR      r2,r3,r3,LSL #8
        0x0000030a:    ea424202    B..B    ORR      r2,r2,r2,LSL #16
        0x0000030e:    f000b85e    ..^.    B.W      _memset ; 0x3ce
    .text
    __aeabi_memclr4
    __aeabi_memclr8
    __rt_memclr_w
        0x00000312:    f04f0200    O...    MOV      r2,#0
    _memset_w
        0x00000316:    b500        ..      PUSH     {lr}
        0x00000318:    4613        .F      MOV      r3,r2
        0x0000031a:    4694        .F      MOV      r12,r2
        0x0000031c:    4696        .F      MOV      lr,r2
        0x0000031e:    3920         9      SUBS     r1,r1,#0x20
        0x00000320:    bf22        ".      ITTT     CS
        0x00000322:    e8a0500c    ...P    STMCS    r0!,{r2,r3,r12,lr}
        0x00000326:    e8a0500c    ...P    STMCS    r0!,{r2,r3,r12,lr}
        0x0000032a:    f1b10120    .. .    SUBSCS   r1,r1,#0x20
        0x0000032e:    f4bfaff7    ....    BCS.W    0x320 ; _memset_w + 10
        0x00000332:    0709        ..      LSLS     r1,r1,#28
        0x00000334:    bf28        (.      IT       CS
        0x00000336:    e8a0500c    ...P    STMCS    r0!,{r2,r3,r12,lr}
        0x0000033a:    bf48        H.      IT       MI
        0x0000033c:    c00c        ..      STMMI    r0!,{r2,r3}
        0x0000033e:    f85deb04    ]...    POP      {lr}
        0x00000342:    0089        ..      LSLS     r1,r1,#2
        0x00000344:    bf28        (.      IT       CS
        0x00000346:    f8402b04    @..+    STRCS    r2,[r0],#4
        0x0000034a:    bf08        ..      IT       EQ
        0x0000034c:    4770        pG      BXEQ     lr
        0x0000034e:    bf48        H.      IT       MI
        0x00000350:    f8202b02     ..+    STRHMI   r2,[r0],#2
        0x00000354:    f0114f80    ...O    TST      r1,#0x40000000
        0x00000358:    bf18        ..      IT       NE
        0x0000035a:    f8002b01    ...+    STRBNE   r2,[r0],#1
        0x0000035e:    4770        pG      BX       lr
    .text
    __use_two_region_memory
        0x00000360:    4770        pG      BX       lr
    __rt_heap_escrow$2region
        0x00000362:    4770        pG      BX       lr
    __rt_heap_expand$2region
        0x00000364:    4770        pG      BX       lr
    .text
    __aeabi_memcpy4
    __aeabi_memcpy8
    __rt_memcpy_w
        0x00000366:    b510        ..      PUSH     {r4,lr}
        0x00000368:    3a20         :      SUBS     r2,r2,#0x20
        0x0000036a:    f0c0800b    ....    BCC.W    0x384 ; __aeabi_memcpy4 + 30
        0x0000036e:    e8b15018    ...P    LDM      r1!,{r3,r4,r12,lr}
        0x00000372:    3a20         :      SUBS     r2,r2,#0x20
        0x00000374:    e8a05018    ...P    STM      r0!,{r3,r4,r12,lr}
        0x00000378:    e8b15018    ...P    LDM      r1!,{r3,r4,r12,lr}
        0x0000037c:    e8a05018    ...P    STM      r0!,{r3,r4,r12,lr}
        0x00000380:    f4bfaff5    ....    BCS.W    0x36e ; __aeabi_memcpy4 + 8
        0x00000384:    ea5f7c02    _..|    LSLS     r12,r2,#28
        0x00000388:    bf24        $.      ITT      CS
        0x0000038a:    e8b15018    ...P    LDMCS    r1!,{r3,r4,r12,lr}
        0x0000038e:    e8a05018    ...P    STMCS    r0!,{r3,r4,r12,lr}
        0x00000392:    bf44        D.      ITT      MI
        0x00000394:    c918        ..      LDMMI    r1!,{r3,r4}
        0x00000396:    c018        ..      STMMI    r0!,{r3,r4}
        0x00000398:    e8bd4010    ...@    POP      {r4,lr}
        0x0000039c:    ea5f7c82    _..|    LSLS     r12,r2,#30
        0x000003a0:    bf24        $.      ITT      CS
        0x000003a2:    f8513b04    Q..;    LDRCS    r3,[r1],#4
        0x000003a6:    f8403b04    @..;    STRCS    r3,[r0],#4
        0x000003aa:    bf08        ..      IT       EQ
        0x000003ac:    4770        pG      BXEQ     lr
    _memcpy_lastbytes_aligned
        0x000003ae:    07d2        ..      LSLS     r2,r2,#31
        0x000003b0:    bf28        (.      IT       CS
        0x000003b2:    f8313b02    1..;    LDRHCS   r3,[r1],#2
        0x000003b6:    bf48        H.      IT       MI
        0x000003b8:    f8112b01    ...+    LDRBMI   r2,[r1],#1
        0x000003bc:    bf28        (.      IT       CS
        0x000003be:    f8203b02     ..;    STRHCS   r3,[r0],#2
        0x000003c2:    bf48        H.      IT       MI
        0x000003c4:    f8002b01    ...+    STRBMI   r2,[r0],#1
        0x000003c8:    4770        pG      BX       lr
    .text
    __aeabi_memclr
    __rt_memclr
        0x000003ca:    f04f0200    O...    MOV      r2,#0
    _memset
        0x000003ce:    2904        .)      CMP      r1,#4
        0x000003d0:    f0c08012    ....    BCC.W    0x3f8 ; _memset + 42
        0x000003d4:    f0100c03    ....    ANDS     r12,r0,#3
        0x000003d8:    f43faf9d    ?...    BEQ.W    _memset_w ; 0x316
        0x000003dc:    f1cc0c04    ....    RSB      r12,r12,#4
        0x000003e0:    f1bc0f02    ....    CMP      r12,#2
        0x000003e4:    bf18        ..      IT       NE
        0x000003e6:    f8002b01    ...+    STRBNE   r2,[r0],#1
        0x000003ea:    bfa8        ..      IT       GE
        0x000003ec:    f8202b02     ..+    STRHGE   r2,[r0],#2
        0x000003f0:    eba1010c    ....    SUB      r1,r1,r12
        0x000003f4:    f7ffbf8f    ....    B.W      _memset_w ; 0x316
        0x000003f8:    ea5f7cc1    _..|    LSLS     r12,r1,#31
        0x000003fc:    bf24        $.      ITT      CS
        0x000003fe:    f8002b01    ...+    STRBCS   r2,[r0],#1
        0x00000402:    f8002b01    ...+    STRBCS   r2,[r0],#1
        0x00000406:    bf48        H.      IT       MI
        0x00000408:    f8002b01    ...+    STRBMI   r2,[r0],#1
        0x0000040c:    4770        pG      BX       lr
    .text
    __user_setup_stackheap
        0x0000040e:    4675        uF      MOV      r5,lr
        0x00000410:    f000f82c    ..,.    BL       __user_libspace ; 0x46c
        0x00000414:    46ae        .F      MOV      lr,r5
        0x00000416:    0005        ..      MOVS     r5,r0
        0x00000418:    4669        iF      MOV      r1,sp
        0x0000041a:    4653        SF      MOV      r3,r10
        0x0000041c:    f0200007     ...    BIC      r0,r0,#7
        0x00000420:    4685        .F      MOV      sp,r0
        0x00000422:    b018        ..      ADD      sp,sp,#0x60
        0x00000424:    b520         .      PUSH     {r5,lr}
        0x00000426:    f7ffff1b    ....    BL       __user_initial_stackheap ; 0x260
        0x0000042a:    e8bd4020    .. @    POP      {r5,lr}
        0x0000042e:    f04f0600    O...    MOV      r6,#0
        0x00000432:    f04f0700    O...    MOV      r7,#0
        0x00000436:    f04f0800    O...    MOV      r8,#0
        0x0000043a:    f04f0b00    O...    MOV      r11,#0
        0x0000043e:    f0210107    !...    BIC      r1,r1,#7
        0x00000442:    46ac        .F      MOV      r12,r5
        0x00000444:    e8ac09c0    ....    STM      r12!,{r6-r8,r11}
        0x00000448:    e8ac09c0    ....    STM      r12!,{r6-r8,r11}
        0x0000044c:    e8ac09c0    ....    STM      r12!,{r6-r8,r11}
        0x00000450:    e8ac09c0    ....    STM      r12!,{r6-r8,r11}
        0x00000454:    468d        .F      MOV      sp,r1
        0x00000456:    4770        pG      BX       lr
    .text
    exit
        0x00000458:    b510        ..      PUSH     {r4,lr}
        0x0000045a:    4604        .F      MOV      r4,r0
        0x0000045c:    f3af8000    ....    NOP.W    
        0x00000460:    4620         F      MOV      r0,r4
        0x00000462:    e8bd4010    ...@    POP      {r4,lr}
        0x00000466:    f7ffbe60    ..`.    B.W      __rt_exit ; 0x12a
        0x0000046a:    0000        ..      MOVS     r0,r0
    .text
    __user_libspace
    __user_perproc_libspace
    __user_perthread_libspace
        0x0000046c:    4800        .H      LDR      r0,[pc,#0] ; [0x470] = 0x100043a0
        0x0000046e:    4770        pG      BX       lr
    $d
        0x00000470:    100043a0    .C..    DCD    268452768
    $t
    .text
    _sys_exit
        0x00000474:    4901        .I      LDR      r1,[pc,#4] ; [0x47c] = 0x20026
        0x00000476:    2018        .       MOVS     r0,#0x18
        0x00000478:    beab        ..      BKPT     #0xab
        0x0000047a:    e7fe        ..      B        0x47a ; _sys_exit + 6
    $d
        0x0000047c:    00020026    &...    DCD    131110
    $t
    .text
    __I$use$semihosting
    __use_no_semihosting_swi
        0x00000480:    4770        pG      BX       lr
    .text
    __semihosting_library_function
        0x00000482:    0000        ..      MOVS     r0,r0
    i.LedTask
    LedTask
        0x00000484:    b508        ..      PUSH     {r3,lr}
        0x00000486:    e020         .      B        0x4ca ; LedTask + 70
        0x00000488:    f04f30ff    O..0    MOV      r0,#0xffffffff
        0x0000048c:    2300        .#      MOVS     r3,#0
        0x0000048e:    2201        ."      MOVS     r2,#1
        0x00000490:    2107        .!      MOVS     r1,#7
        0x00000492:    9000        ..      STR      r0,[sp,#0]
        0x00000494:    480d        .H      LDR      r0,[pc,#52] ; [0x4cc] = 0x10000018
        0x00000496:    6800        .h      LDR      r0,[r0,#0]
        0x00000498:    f002fd8a    ....    BL       xEventGroupWaitBits ; 0x2fb0
        0x0000049c:    4604        .F      MOV      r4,r0
        0x0000049e:    b1a4        ..      CBZ      r4,0x4ca ; LedTask + 70
        0x000004a0:    f0040001    ....    AND      r0,r4,#1
        0x000004a4:    b118        ..      CBZ      r0,0x4ae ; LedTask + 42
        0x000004a6:    2100        .!      MOVS     r1,#0
        0x000004a8:    4809        .H      LDR      r0,[pc,#36] ; [0x4d0] = 0x10000090
        0x000004aa:    f000fa99    ....    BL       am_devices_led_toggle ; 0x9e0
        0x000004ae:    f0040002    ....    AND      r0,r4,#2
        0x000004b2:    b118        ..      CBZ      r0,0x4bc ; LedTask + 56
        0x000004b4:    2101        .!      MOVS     r1,#1
        0x000004b6:    4806        .H      LDR      r0,[pc,#24] ; [0x4d0] = 0x10000090
        0x000004b8:    f000fa92    ....    BL       am_devices_led_toggle ; 0x9e0
        0x000004bc:    f0040004    ....    AND      r0,r4,#4
        0x000004c0:    b118        ..      CBZ      r0,0x4ca ; LedTask + 70
        0x000004c2:    2102        .!      MOVS     r1,#2
        0x000004c4:    4802        .H      LDR      r0,[pc,#8] ; [0x4d0] = 0x10000090
        0x000004c6:    f000fa8b    ....    BL       am_devices_led_toggle ; 0x9e0
        0x000004ca:    e7dd        ..      B        0x488 ; LedTask + 4
    $d
        0x000004cc:    10000018    ....    DCD    268435480
        0x000004d0:    10000090    ....    DCD    268435600
    $t
    i.LedTaskSetup
    LedTaskSetup
        0x000004d4:    b510        ..      PUSH     {r4,lr}
        0x000004d6:    a058        X.      ADR      r0,{pc}+0x162 ; 0x638
        0x000004d8:    f000ffa8    ....    BL       am_util_stdio_printf ; 0x142c
        0x000004dc:    f002fd06    ....    BL       xEventGroupCreate ; 0x2eec
        0x000004e0:    495a        ZI      LDR      r1,[pc,#360] ; [0x64c] = 0x10000018
        0x000004e2:    6008        .`      STR      r0,[r1,#0]
        0x000004e4:    bf00        ..      NOP      
        0x000004e6:    4859        YH      LDR      r0,[pc,#356] ; [0x64c] = 0x10000018
        0x000004e8:    6800        .h      LDR      r0,[r0,#0]
        0x000004ea:    2800        .(      CMP      r0,#0
        0x000004ec:    d0fb        ..      BEQ      0x4e6 ; LedTaskSetup + 18
        0x000004ee:    2105        .!      MOVS     r1,#5
        0x000004f0:    4857        WH      LDR      r0,[pc,#348] ; [0x650] = 0x10000090
        0x000004f2:    f000f91a    ....    BL       am_devices_led_array_init ; 0x72a
        0x000004f6:    2100        .!      MOVS     r1,#0
        0x000004f8:    4855        UH      LDR      r0,[pc,#340] ; [0x650] = 0x10000090
        0x000004fa:    f000fa1d    ....    BL       am_devices_led_off ; 0x938
        0x000004fe:    2101        .!      MOVS     r1,#1
        0x00000500:    4853        SH      LDR      r0,[pc,#332] ; [0x650] = 0x10000090
        0x00000502:    f000fa19    ....    BL       am_devices_led_off ; 0x938
        0x00000506:    2102        .!      MOVS     r1,#2
        0x00000508:    4851        QH      LDR      r0,[pc,#324] ; [0x650] = 0x10000090
        0x0000050a:    f000fa15    ....    BL       am_devices_led_off ; 0x938
        0x0000050e:    2103        .!      MOVS     r1,#3
        0x00000510:    484f        OH      LDR      r0,[pc,#316] ; [0x650] = 0x10000090
        0x00000512:    f000fa11    ....    BL       am_devices_led_off ; 0x938
        0x00000516:    2104        .!      MOVS     r1,#4
        0x00000518:    484d        MH      LDR      r0,[pc,#308] ; [0x650] = 0x10000090
        0x0000051a:    f000fa0d    ....    BL       am_devices_led_off ; 0x938
        0x0000051e:    2180        .!      MOVS     r1,#0x80
        0x00000520:    2019        .       MOVS     r0,#0x19
        0x00000522:    f000fd6b    ..k.    BL       am_hal_interrupt_priority_set ; 0xffc
        0x00000526:    494b        KI      LDR      r1,[pc,#300] ; [0x654] = 0x1849
        0x00000528:    2011        .       MOVS     r0,#0x11
        0x0000052a:    f000fcb9    ....    BL       am_hal_gpio_int_register ; 0xea0
        0x0000052e:    494a        JI      LDR      r1,[pc,#296] ; [0x658] = 0x1875
        0x00000530:    2012        .       MOVS     r0,#0x12
        0x00000532:    f000fcb5    ....    BL       am_hal_gpio_int_register ; 0xea0
        0x00000536:    4949        II      LDR      r1,[pc,#292] ; [0x65c] = 0x18a1
        0x00000538:    2013        .       MOVS     r0,#0x13
        0x0000053a:    f000fcb1    ....    BL       am_hal_gpio_int_register ; 0xea0
        0x0000053e:    bf00        ..      NOP      
        0x00000540:    2073        s       MOVS     r0,#0x73
        0x00000542:    4947        GI      LDR      r1,[pc,#284] ; [0x660] = 0x40010000
        0x00000544:    6608        .f      STR      r0,[r1,#0x60]
        0x00000546:    4608        .F      MOV      r0,r1
        0x00000548:    6c80        .l      LDR      r0,[r0,#0x48]
        0x0000054a:    f0200070     .p.    BIC      r0,r0,#0x70
        0x0000054e:    6488        .d      STR      r0,[r1,#0x48]
        0x00000550:    4608        .F      MOV      r0,r1
        0x00000552:    6900        .i      LDR      r0,[r0,#0x10]
        0x00000554:    f420407f     ..@    BIC      r0,r0,#0xff00
        0x00000558:    f44050d0    @..P    ORR      r0,r0,#0x1a00
        0x0000055c:    6108        .a      STR      r0,[r1,#0x10]
        0x0000055e:    2000        .       MOVS     r0,#0
        0x00000560:    6608        .f      STR      r0,[r1,#0x60]
        0x00000562:    bf00        ..      NOP      
        0x00000564:    bf00        ..      NOP      
        0x00000566:    2073        s       MOVS     r0,#0x73
        0x00000568:    6608        .f      STR      r0,[r1,#0x60]
        0x0000056a:    4608        .F      MOV      r0,r1
        0x0000056c:    6c80        .l      LDR      r0,[r0,#0x48]
        0x0000056e:    f42060e0     ..`    BIC      r0,r0,#0x700
        0x00000572:    6488        .d      STR      r0,[r1,#0x48]
        0x00000574:    4608        .F      MOV      r0,r1
        0x00000576:    6900        .i      LDR      r0,[r0,#0x10]
        0x00000578:    f420007f     ...    BIC      r0,r0,#0xff0000
        0x0000057c:    f44010d0    @...    ORR      r0,r0,#0x1a0000
        0x00000580:    6108        .a      STR      r0,[r1,#0x10]
        0x00000582:    2000        .       MOVS     r0,#0
        0x00000584:    6608        .f      STR      r0,[r1,#0x60]
        0x00000586:    bf00        ..      NOP      
        0x00000588:    bf00        ..      NOP      
        0x0000058a:    2073        s       MOVS     r0,#0x73
        0x0000058c:    6608        .f      STR      r0,[r1,#0x60]
        0x0000058e:    4608        .F      MOV      r0,r1
        0x00000590:    6c80        .l      LDR      r0,[r0,#0x48]
        0x00000592:    f42040e0     ..@    BIC      r0,r0,#0x7000
        0x00000596:    6488        .d      STR      r0,[r1,#0x48]
        0x00000598:    4608        .F      MOV      r0,r1
        0x0000059a:    6900        .i      LDR      r0,[r0,#0x10]
        0x0000059c:    f020407f     ..@    BIC      r0,r0,#0xff000000
        0x000005a0:    f04050d0    @..P    ORR      r0,r0,#0x1a000000
        0x000005a4:    6108        .a      STR      r0,[r1,#0x10]
        0x000005a6:    2000        .       MOVS     r0,#0
        0x000005a8:    6608        .f      STR      r0,[r1,#0x60]
        0x000005aa:    bf00        ..      NOP      
        0x000005ac:    bf00        ..      NOP      
        0x000005ae:    2073        s       MOVS     r0,#0x73
        0x000005b0:    6608        .f      STR      r0,[r1,#0x60]
        0x000005b2:    4608        .F      MOV      r0,r1
        0x000005b4:    6c80        .l      LDR      r0,[r0,#0x48]
        0x000005b6:    f0200080     ...    BIC      r0,r0,#0x80
        0x000005ba:    6488        .d      STR      r0,[r1,#0x48]
        0x000005bc:    2000        .       MOVS     r0,#0
        0x000005be:    6608        .f      STR      r0,[r1,#0x60]
        0x000005c0:    bf00        ..      NOP      
        0x000005c2:    bf00        ..      NOP      
        0x000005c4:    2073        s       MOVS     r0,#0x73
        0x000005c6:    6608        .f      STR      r0,[r1,#0x60]
        0x000005c8:    4608        .F      MOV      r0,r1
        0x000005ca:    6c80        .l      LDR      r0,[r0,#0x48]
        0x000005cc:    f4206000     ..`    BIC      r0,r0,#0x800
        0x000005d0:    6488        .d      STR      r0,[r1,#0x48]
        0x000005d2:    2000        .       MOVS     r0,#0
        0x000005d4:    6608        .f      STR      r0,[r1,#0x60]
        0x000005d6:    bf00        ..      NOP      
        0x000005d8:    bf00        ..      NOP      
        0x000005da:    2073        s       MOVS     r0,#0x73
        0x000005dc:    6608        .f      STR      r0,[r1,#0x60]
        0x000005de:    4608        .F      MOV      r0,r1
        0x000005e0:    6c80        .l      LDR      r0,[r0,#0x48]
        0x000005e2:    f4204000     ..@    BIC      r0,r0,#0x8000
        0x000005e6:    6488        .d      STR      r0,[r1,#0x48]
        0x000005e8:    2000        .       MOVS     r0,#0
        0x000005ea:    6608        .f      STR      r0,[r1,#0x60]
        0x000005ec:    bf00        ..      NOP      
        0x000005ee:    f44f3000    O..0    MOV      r0,#0x20000
        0x000005f2:    2100        .!      MOVS     r1,#0
        0x000005f4:    f000fc3e    ..>.    BL       am_hal_gpio_int_clear ; 0xe74
        0x000005f8:    f44f2080    O..     MOV      r0,#0x40000
        0x000005fc:    2100        .!      MOVS     r1,#0
        0x000005fe:    f000fc39    ..9.    BL       am_hal_gpio_int_clear ; 0xe74
        0x00000602:    f44f2000    O..     MOV      r0,#0x80000
        0x00000606:    2100        .!      MOVS     r1,#0
        0x00000608:    f000fc34    ..4.    BL       am_hal_gpio_int_clear ; 0xe74
        0x0000060c:    f44f3000    O..0    MOV      r0,#0x20000
        0x00000610:    2100        .!      MOVS     r1,#0
        0x00000612:    f000fc37    ..7.    BL       am_hal_gpio_int_enable ; 0xe84
        0x00000616:    f44f2080    O..     MOV      r0,#0x40000
        0x0000061a:    2100        .!      MOVS     r1,#0
        0x0000061c:    f000fc32    ..2.    BL       am_hal_gpio_int_enable ; 0xe84
        0x00000620:    f44f2000    O..     MOV      r0,#0x80000
        0x00000624:    2100        .!      MOVS     r1,#0
        0x00000626:    f000fc2d    ..-.    BL       am_hal_gpio_int_enable ; 0xe84
        0x0000062a:    2019        .       MOVS     r0,#0x19
        0x0000062c:    f000fcc0    ....    BL       am_hal_interrupt_enable ; 0xfb0
        0x00000630:    f7fffe0a    ....    BL       am_hal_interrupt_master_enable ; 0x248
        0x00000634:    bd10        ..      POP      {r4,pc}
    $d
        0x00000636:    0000        ..      DCW    0
        0x00000638:    5444454c    LEDT    DCD    1413760332
        0x0000063c:    3a6b7361    ask:    DCD    980120417
        0x00000640:    74657320     set    DCD    1952805664
        0x00000644:    0a0d7075    up..    DCD    168652917
        0x00000648:    00000000    ....    DCD    0
        0x0000064c:    10000018    ....    DCD    268435480
        0x00000650:    10000090    ....    DCD    268435600
        0x00000654:    00001849    I...    DCD    6217
        0x00000658:    00001875    u...    DCD    6261
        0x0000065c:    000018a1    ....    DCD    6305
        0x00000660:    40010000    ...@    DCD    1073807360
    $t
    i.am_bsp_debug_printf_disable
    am_bsp_debug_printf_disable
        0x00000664:    480e        .H      LDR      r0,[pc,#56] ; [0x6a0] = 0x1000008c
        0x00000666:    6800        .h      LDR      r0,[r0,#0]
        0x00000668:    f0100f01    ....    TST      r0,#1
        0x0000066c:    bf18        ..      IT       NE
        0x0000066e:    4770        pG      BXNE     lr
        0x00000670:    b510        ..      PUSH     {r4,lr}
        0x00000672:    f000fd3b    ..;.    BL       am_hal_itm_not_busy ; 0x10ec
        0x00000676:    480b        .H      LDR      r0,[pc,#44] ; [0x6a4] = 0x40010000
        0x00000678:    2173        s!      MOVS     r1,#0x73
        0x0000067a:    6601        .f      STR      r1,[r0,#0x60]
        0x0000067c:    6d41        Am      LDR      r1,[r0,#0x54]
        0x0000067e:    f0210170    !.p.    BIC      r1,r1,#0x70
        0x00000682:    f0410120    A. .    ORR      r1,r1,#0x20
        0x00000686:    6541        Ae      STR      r1,[r0,#0x54]
        0x00000688:    6a81        .j      LDR      r1,[r0,#0x28]
        0x0000068a:    f421417f    !..A    BIC      r1,r1,#0xff00
        0x0000068e:    f44151c0    A..Q    ORR      r1,r1,#0x1800
        0x00000692:    6281        .b      STR      r1,[r0,#0x28]
        0x00000694:    2100        .!      MOVS     r1,#0
        0x00000696:    6601        .f      STR      r1,[r0,#0x60]
        0x00000698:    e8bd4010    ...@    POP      {r4,lr}
        0x0000069c:    f000bde6    ....    B.W      am_hal_tpiu_disable ; 0x126c
    $d
        0x000006a0:    1000008c    ....    DCD    268435596
        0x000006a4:    40010000    ...@    DCD    1073807360
    $t
    i.am_bsp_debug_printf_enable
    am_bsp_debug_printf_enable
        0x000006a8:    480e        .H      LDR      r0,[pc,#56] ; [0x6e4] = 0x1000008c
        0x000006aa:    6800        .h      LDR      r0,[r0,#0]
        0x000006ac:    f0100f01    ....    TST      r0,#1
        0x000006b0:    bf18        ..      IT       NE
        0x000006b2:    4770        pG      BXNE     lr
        0x000006b4:    b500        ..      PUSH     {lr}
        0x000006b6:    b085        ..      SUB      sp,sp,#0x14
        0x000006b8:    480b        .H      LDR      r0,[pc,#44] ; [0x6e8] = 0xf4240
        0x000006ba:    9000        ..      STR      r0,[sp,#0]
        0x000006bc:    4668        hF      MOV      r0,sp
        0x000006be:    f000fddd    ....    BL       am_hal_tpiu_enable ; 0x127c
        0x000006c2:    480a        .H      LDR      r0,[pc,#40] ; [0x6ec] = 0x40010000
        0x000006c4:    2173        s!      MOVS     r1,#0x73
        0x000006c6:    6601        .f      STR      r1,[r0,#0x60]
        0x000006c8:    6d41        Am      LDR      r1,[r0,#0x54]
        0x000006ca:    f0210170    !.p.    BIC      r1,r1,#0x70
        0x000006ce:    6541        Ae      STR      r1,[r0,#0x54]
        0x000006d0:    6a81        .j      LDR      r1,[r0,#0x28]
        0x000006d2:    f421417f    !..A    BIC      r1,r1,#0xff00
        0x000006d6:    f4415180    A..Q    ORR      r1,r1,#0x1000
        0x000006da:    6281        .b      STR      r1,[r0,#0x28]
        0x000006dc:    2100        .!      MOVS     r1,#0
        0x000006de:    6601        .f      STR      r1,[r0,#0x60]
        0x000006e0:    b005        ..      ADD      sp,sp,#0x14
        0x000006e2:    bd00        ..      POP      {pc}
    $d
        0x000006e4:    1000008c    ....    DCD    268435596
        0x000006e8:    000f4240    @B..    DCD    1000000
        0x000006ec:    40010000    ...@    DCD    1073807360
    $t
    i.am_bsp_low_power_init
    am_bsp_low_power_init
        0x000006f0:    b510        ..      PUSH     {r4,lr}
        0x000006f2:    f000fd31    ..1.    BL       am_hal_mcuctrl_bucks_enable ; 0x1158
        0x000006f6:    f000fe0d    ....    BL       am_hal_vcomp_disable ; 0x1314
        0x000006fa:    2001        .       MOVS     r0,#1
        0x000006fc:    f000fd71    ..q.    BL       am_hal_rtc_osc_select ; 0x11e2
        0x00000700:    2001        .       MOVS     r0,#1
        0x00000702:    f000f9d8    ....    BL       am_hal_clkgen_osc_stop ; 0xab6
        0x00000706:    f000fd65    ..e.    BL       am_hal_rtc_osc_disable ; 0x11d4
        0x0000070a:    e8bd4010    ...@    POP      {r4,lr}
        0x0000070e:    f000bd1b    ....    B.W      am_hal_mcuctrl_bandgap_disable ; 0x1148
    i.am_ctimer_isr
    am_ctimer_isr
        0x00000712:    b510        ..      PUSH     {r4,lr}
        0x00000714:    2000        .       MOVS     r0,#0
        0x00000716:    f000fb0b    ....    BL       am_hal_ctimer_int_status_get ; 0xd30
        0x0000071a:    4604        .F      MOV      r4,r0
        0x0000071c:    4620         F      MOV      r0,r4
        0x0000071e:    f000fa89    ....    BL       am_hal_ctimer_int_clear ; 0xc34
        0x00000722:    4620         F      MOV      r0,r4
        0x00000724:    f000faea    ....    BL       am_hal_ctimer_int_service ; 0xcfc
        0x00000728:    bd10        ..      POP      {r4,pc}
    i.am_devices_led_array_init
    am_devices_led_array_init
        0x0000072a:    b570        p.      PUSH     {r4-r6,lr}
        0x0000072c:    4605        .F      MOV      r5,r0
        0x0000072e:    460e        .F      MOV      r6,r1
        0x00000730:    b10d        ..      CBZ      r5,0x736 ; am_devices_led_array_init + 12
        0x00000732:    2e1f        ..      CMP      r6,#0x1f
        0x00000734:    d900        ..      BLS      0x738 ; am_devices_led_array_init + 14
        0x00000736:    bd70        p.      POP      {r4-r6,pc}
        0x00000738:    2400        .$      MOVS     r4,#0
        0x0000073a:    e004        ..      B        0x746 ; am_devices_led_array_init + 28
        0x0000073c:    eb0500c4    ....    ADD      r0,r5,r4,LSL #3
        0x00000740:    f000f806    ....    BL       am_devices_led_init ; 0x750
        0x00000744:    1c64        d.      ADDS     r4,r4,#1
        0x00000746:    42b4        .B      CMP      r4,r6
        0x00000748:    d3f8        ..      BCC      0x73c ; am_devices_led_array_init + 18
        0x0000074a:    bf00        ..      NOP      
        0x0000074c:    e7f3        ..      B        0x736 ; am_devices_led_array_init + 12
        0x0000074e:    0000        ..      MOVS     r0,r0
    i.am_devices_led_init
    am_devices_led_init
        0x00000750:    b110        ..      CBZ      r0,0x758 ; am_devices_led_init + 8
        0x00000752:    6801        .h      LDR      r1,[r0,#0]
        0x00000754:    2932        2)      CMP      r1,#0x32
        0x00000756:    d300        ..      BCC      0x75a ; am_devices_led_init + 10
        0x00000758:    4770        pG      BX       lr
        0x0000075a:    7901        .y      LDRB     r1,[r0,#4]
        0x0000075c:    f0010102    ....    AND      r1,r1,#2
        0x00000760:    2900        .)      CMP      r1,#0
        0x00000762:    d073        s.      BEQ      0x84c ; am_devices_led_init + 252
        0x00000764:    bf00        ..      NOP      
        0x00000766:    6801        .h      LDR      r1,[r0,#0]
        0x00000768:    2900        .)      CMP      r1,#0
        0x0000076a:    da00        ..      BGE      0x76e ; am_devices_led_init + 30
        0x0000076c:    e035        5.      B        0x7da ; am_devices_led_init + 138
        0x0000076e:    2173        s!      MOVS     r1,#0x73
        0x00000770:    4a70        pJ      LDR      r2,[pc,#448] ; [0x934] = 0x40010000
        0x00000772:    6611        .f      STR      r1,[r2,#0x60]
        0x00000774:    7801        .x      LDRB     r1,[r0,#0]
        0x00000776:    f00101f8    ....    AND      r1,r1,#0xf8
        0x0000077a:    eb020151    ..Q.    ADD      r1,r2,r1,LSR #1
        0x0000077e:    6c09        .l      LDR      r1,[r1,#0x40]
        0x00000780:    7802        .x      LDRB     r2,[r0,#0]
        0x00000782:    0752        R.      LSLS     r2,r2,#29
        0x00000784:    0ed3        ..      LSRS     r3,r2,#27
        0x00000786:    2207        ."      MOVS     r2,#7
        0x00000788:    409a        .@      LSLS     r2,r2,r3
        0x0000078a:    4391        .C      BICS     r1,r1,r2
        0x0000078c:    7802        .x      LDRB     r2,[r0,#0]
        0x0000078e:    0752        R.      LSLS     r2,r2,#29
        0x00000790:    0ed3        ..      LSRS     r3,r2,#27
        0x00000792:    2202        ."      MOVS     r2,#2
        0x00000794:    409a        .@      LSLS     r2,r2,r3
        0x00000796:    4311        .C      ORRS     r1,r1,r2
        0x00000798:    7802        .x      LDRB     r2,[r0,#0]
        0x0000079a:    f00202f8    ....    AND      r2,r2,#0xf8
        0x0000079e:    4b65        eK      LDR      r3,[pc,#404] ; [0x934] = 0x40010000
        0x000007a0:    eb030252    ..R.    ADD      r2,r3,r2,LSR #1
        0x000007a4:    6411        .d      STR      r1,[r2,#0x40]
        0x000007a6:    7801        .x      LDRB     r1,[r0,#0]
        0x000007a8:    f00101fc    ....    AND      r1,r1,#0xfc
        0x000007ac:    461a        .F      MOV      r2,r3
        0x000007ae:    5889        .X      LDR      r1,[r1,r2]
        0x000007b0:    7802        .x      LDRB     r2,[r0,#0]
        0x000007b2:    0792        ..      LSLS     r2,r2,#30
        0x000007b4:    0ed3        ..      LSRS     r3,r2,#27
        0x000007b6:    22ff        ."      MOVS     r2,#0xff
        0x000007b8:    409a        .@      LSLS     r2,r2,r3
        0x000007ba:    4391        .C      BICS     r1,r1,r2
        0x000007bc:    7802        .x      LDRB     r2,[r0,#0]
        0x000007be:    0792        ..      LSLS     r2,r2,#30
        0x000007c0:    0ed3        ..      LSRS     r3,r2,#27
        0x000007c2:    2218        ."      MOVS     r2,#0x18
        0x000007c4:    409a        .@      LSLS     r2,r2,r3
        0x000007c6:    4311        .C      ORRS     r1,r1,r2
        0x000007c8:    7802        .x      LDRB     r2,[r0,#0]
        0x000007ca:    f00202fc    ....    AND      r2,r2,#0xfc
        0x000007ce:    4b59        YK      LDR      r3,[pc,#356] ; [0x934] = 0x40010000
        0x000007d0:    50d1        .P      STR      r1,[r2,r3]
        0x000007d2:    2100        .!      MOVS     r1,#0
        0x000007d4:    461a        .F      MOV      r2,r3
        0x000007d6:    6611        .f      STR      r1,[r2,#0x60]
        0x000007d8:    bf00        ..      NOP      
        0x000007da:    bf00        ..      NOP      
        0x000007dc:    7801        .x      LDRB     r1,[r0,#0]
        0x000007de:    f001021f    ....    AND      r2,r1,#0x1f
        0x000007e2:    2101        .!      MOVS     r1,#1
        0x000007e4:    4091        .@      LSLS     r1,r1,r2
        0x000007e6:    7802        .x      LDRB     r2,[r0,#0]
        0x000007e8:    f0020220    .. .    AND      r2,r2,#0x20
        0x000007ec:    4b51        QK      LDR      r3,[pc,#324] ; [0x934] = 0x40010000
        0x000007ee:    eb0302d2    ....    ADD      r2,r3,r2,LSR #3
        0x000007f2:    f8c210b4    ....    STR      r1,[r2,#0xb4]
        0x000007f6:    7901        .y      LDRB     r1,[r0,#4]
        0x000007f8:    f0010101    ....    AND      r1,r1,#1
        0x000007fc:    b171        q.      CBZ      r1,0x81c ; am_devices_led_init + 204
        0x000007fe:    7801        .x      LDRB     r1,[r0,#0]
        0x00000800:    f0010120    .. .    AND      r1,r1,#0x20
        0x00000804:    461a        .F      MOV      r2,r3
        0x00000806:    eb0201d1    ....    ADD      r1,r2,r1,LSR #3
        0x0000080a:    f8d11088    ....    LDR      r1,[r1,#0x88]
        0x0000080e:    7802        .x      LDRB     r2,[r0,#0]
        0x00000810:    f002031f    ....    AND      r3,r2,#0x1f
        0x00000814:    2201        ."      MOVS     r2,#1
        0x00000816:    409a        .@      LSLS     r2,r2,r3
        0x00000818:    4311        .C      ORRS     r1,r1,r2
        0x0000081a:    e00d        ..      B        0x838 ; am_devices_led_init + 232
        0x0000081c:    7801        .x      LDRB     r1,[r0,#0]
        0x0000081e:    f0010120    .. .    AND      r1,r1,#0x20
        0x00000822:    4a44        DJ      LDR      r2,[pc,#272] ; [0x934] = 0x40010000
        0x00000824:    eb0201d1    ....    ADD      r1,r2,r1,LSR #3
        0x00000828:    f8d11088    ....    LDR      r1,[r1,#0x88]
        0x0000082c:    7802        .x      LDRB     r2,[r0,#0]
        0x0000082e:    f002031f    ....    AND      r3,r2,#0x1f
        0x00000832:    2201        ."      MOVS     r2,#1
        0x00000834:    409a        .@      LSLS     r2,r2,r3
        0x00000836:    4391        .C      BICS     r1,r1,r2
        0x00000838:    7802        .x      LDRB     r2,[r0,#0]
        0x0000083a:    f0020220    .. .    AND      r2,r2,#0x20
        0x0000083e:    4b3d        =K      LDR      r3,[pc,#244] ; [0x934] = 0x40010000
        0x00000840:    eb0302d2    ....    ADD      r2,r3,r2,LSR #3
        0x00000844:    f8c21088    ....    STR      r1,[r2,#0x88]
        0x00000848:    e072        r.      B        0x930 ; am_devices_led_init + 480
        0x0000084a:    e7ff        ..      B        0x84c ; am_devices_led_init + 252
        0x0000084c:    bf00        ..      NOP      
        0x0000084e:    6801        .h      LDR      r1,[r0,#0]
        0x00000850:    2900        .)      CMP      r1,#0
        0x00000852:    da00        ..      BGE      0x856 ; am_devices_led_init + 262
        0x00000854:    e035        5.      B        0x8c2 ; am_devices_led_init + 370
        0x00000856:    2173        s!      MOVS     r1,#0x73
        0x00000858:    4a36        6J      LDR      r2,[pc,#216] ; [0x934] = 0x40010000
        0x0000085a:    6611        .f      STR      r1,[r2,#0x60]
        0x0000085c:    7801        .x      LDRB     r1,[r0,#0]
        0x0000085e:    f00101f8    ....    AND      r1,r1,#0xf8
        0x00000862:    eb020151    ..Q.    ADD      r1,r2,r1,LSR #1
        0x00000866:    6c09        .l      LDR      r1,[r1,#0x40]
        0x00000868:    7802        .x      LDRB     r2,[r0,#0]
        0x0000086a:    0752        R.      LSLS     r2,r2,#29
        0x0000086c:    0ed3        ..      LSRS     r3,r2,#27
        0x0000086e:    2207        ."      MOVS     r2,#7
        0x00000870:    409a        .@      LSLS     r2,r2,r3
        0x00000872:    4391        .C      BICS     r1,r1,r2
        0x00000874:    7802        .x      LDRB     r2,[r0,#0]
        0x00000876:    0752        R.      LSLS     r2,r2,#29
        0x00000878:    0ed3        ..      LSRS     r3,r2,#27
        0x0000087a:    2206        ."      MOVS     r2,#6
        0x0000087c:    409a        .@      LSLS     r2,r2,r3
        0x0000087e:    4311        .C      ORRS     r1,r1,r2
        0x00000880:    7802        .x      LDRB     r2,[r0,#0]
        0x00000882:    f00202f8    ....    AND      r2,r2,#0xf8
        0x00000886:    4b2b        +K      LDR      r3,[pc,#172] ; [0x934] = 0x40010000
        0x00000888:    eb030252    ..R.    ADD      r2,r3,r2,LSR #1
        0x0000088c:    6411        .d      STR      r1,[r2,#0x40]
        0x0000088e:    7801        .x      LDRB     r1,[r0,#0]
        0x00000890:    f00101fc    ....    AND      r1,r1,#0xfc
        0x00000894:    461a        .F      MOV      r2,r3
        0x00000896:    5889        .X      LDR      r1,[r1,r2]
        0x00000898:    7802        .x      LDRB     r2,[r0,#0]
        0x0000089a:    0792        ..      LSLS     r2,r2,#30
        0x0000089c:    0ed3        ..      LSRS     r3,r2,#27
        0x0000089e:    22ff        ."      MOVS     r2,#0xff
        0x000008a0:    409a        .@      LSLS     r2,r2,r3
        0x000008a2:    4391        .C      BICS     r1,r1,r2
        0x000008a4:    7802        .x      LDRB     r2,[r0,#0]
        0x000008a6:    0792        ..      LSLS     r2,r2,#30
        0x000008a8:    0ed3        ..      LSRS     r3,r2,#27
        0x000008aa:    2218        ."      MOVS     r2,#0x18
        0x000008ac:    409a        .@      LSLS     r2,r2,r3
        0x000008ae:    4311        .C      ORRS     r1,r1,r2
        0x000008b0:    7802        .x      LDRB     r2,[r0,#0]
        0x000008b2:    f00202fc    ....    AND      r2,r2,#0xfc
        0x000008b6:    4b1f        .K      LDR      r3,[pc,#124] ; [0x934] = 0x40010000
        0x000008b8:    50d1        .P      STR      r1,[r2,r3]
        0x000008ba:    2100        .!      MOVS     r1,#0
        0x000008bc:    461a        .F      MOV      r2,r3
        0x000008be:    6611        .f      STR      r1,[r2,#0x60]
        0x000008c0:    bf00        ..      NOP      
        0x000008c2:    bf00        ..      NOP      
        0x000008c4:    7801        .x      LDRB     r1,[r0,#0]
        0x000008c6:    f001021f    ....    AND      r2,r1,#0x1f
        0x000008ca:    2101        .!      MOVS     r1,#1
        0x000008cc:    4091        .@      LSLS     r1,r1,r2
        0x000008ce:    7802        .x      LDRB     r2,[r0,#0]
        0x000008d0:    f0020220    .. .    AND      r2,r2,#0x20
        0x000008d4:    4b17        .K      LDR      r3,[pc,#92] ; [0x934] = 0x40010000
        0x000008d6:    eb0302d2    ....    ADD      r2,r3,r2,LSR #3
        0x000008da:    f8c210b4    ....    STR      r1,[r2,#0xb4]
        0x000008de:    7901        .y      LDRB     r1,[r0,#4]
        0x000008e0:    f0010101    ....    AND      r1,r1,#1
        0x000008e4:    b171        q.      CBZ      r1,0x904 ; am_devices_led_init + 436
        0x000008e6:    7801        .x      LDRB     r1,[r0,#0]
        0x000008e8:    f0010120    .. .    AND      r1,r1,#0x20
        0x000008ec:    461a        .F      MOV      r2,r3
        0x000008ee:    eb0201d1    ....    ADD      r1,r2,r1,LSR #3
        0x000008f2:    f8d11088    ....    LDR      r1,[r1,#0x88]
        0x000008f6:    7802        .x      LDRB     r2,[r0,#0]
        0x000008f8:    f002031f    ....    AND      r3,r2,#0x1f
        0x000008fc:    2201        ."      MOVS     r2,#1
        0x000008fe:    409a        .@      LSLS     r2,r2,r3
        0x00000900:    4311        .C      ORRS     r1,r1,r2
        0x00000902:    e00d        ..      B        0x920 ; am_devices_led_init + 464
        0x00000904:    7801        .x      LDRB     r1,[r0,#0]
        0x00000906:    f0010120    .. .    AND      r1,r1,#0x20
        0x0000090a:    4a0a        .J      LDR      r2,[pc,#40] ; [0x934] = 0x40010000
        0x0000090c:    eb0201d1    ....    ADD      r1,r2,r1,LSR #3
        0x00000910:    f8d11088    ....    LDR      r1,[r1,#0x88]
        0x00000914:    7802        .x      LDRB     r2,[r0,#0]
        0x00000916:    f002031f    ....    AND      r3,r2,#0x1f
        0x0000091a:    2201        ."      MOVS     r2,#1
        0x0000091c:    409a        .@      LSLS     r2,r2,r3
        0x0000091e:    4391        .C      BICS     r1,r1,r2
        0x00000920:    7802        .x      LDRB     r2,[r0,#0]
        0x00000922:    f0020220    .. .    AND      r2,r2,#0x20
        0x00000926:    4b03        .K      LDR      r3,[pc,#12] ; [0x934] = 0x40010000
        0x00000928:    eb0302d2    ....    ADD      r2,r3,r2,LSR #3
        0x0000092c:    f8c21088    ....    STR      r1,[r2,#0x88]
        0x00000930:    bf00        ..      NOP      
        0x00000932:    e711        ..      B        0x758 ; am_devices_led_init + 8
    $d
        0x00000934:    40010000    ...@    DCD    1073807360
    $t
    i.am_devices_led_off
    am_devices_led_off
        0x00000938:    b510        ..      PUSH     {r4,lr}
        0x0000093a:    b128        (.      CBZ      r0,0x948 ; am_devices_led_off + 16
        0x0000093c:    291f        .)      CMP      r1,#0x1f
        0x0000093e:    d203        ..      BCS      0x948 ; am_devices_led_off + 16
        0x00000940:    f8502031    P.1     LDR      r2,[r0,r1,LSL #3]
        0x00000944:    2a32        2*      CMP      r2,#0x32
        0x00000946:    d300        ..      BCC      0x94a ; am_devices_led_off + 18
        0x00000948:    bd10        ..      POP      {r4,pc}
        0x0000094a:    eb0002c1    ....    ADD      r2,r0,r1,LSL #3
        0x0000094e:    7912        .y      LDRB     r2,[r2,#4]
        0x00000950:    f0020202    ....    AND      r2,r2,#2
        0x00000954:    b382        ..      CBZ      r2,0x9b8 ; am_devices_led_off + 128
        0x00000956:    eb0002c1    ....    ADD      r2,r0,r1,LSL #3
        0x0000095a:    7912        .y      LDRB     r2,[r2,#4]
        0x0000095c:    f0020201    ....    AND      r2,r2,#1
        0x00000960:    b982        ..      CBNZ     r2,0x984 ; am_devices_led_off + 76
        0x00000962:    f8102031    ..1     LDRB     r2,[r0,r1,LSL #3]
        0x00000966:    f0020220    .. .    AND      r2,r2,#0x20
        0x0000096a:    4b1c        .K      LDR      r3,[pc,#112] ; [0x9dc] = 0x40010000
        0x0000096c:    eb0302d2    ....    ADD      r2,r3,r2,LSR #3
        0x00000970:    f8d22088    ...     LDR      r2,[r2,#0x88]
        0x00000974:    f8103031    ..10    LDRB     r3,[r0,r1,LSL #3]
        0x00000978:    f003041f    ....    AND      r4,r3,#0x1f
        0x0000097c:    2301        .#      MOVS     r3,#1
        0x0000097e:    40a3        .@      LSLS     r3,r3,r4
        0x00000980:    431a        .C      ORRS     r2,r2,r3
        0x00000982:    e00f        ..      B        0x9a4 ; am_devices_led_off + 108
        0x00000984:    f8102031    ..1     LDRB     r2,[r0,r1,LSL #3]
        0x00000988:    f0020220    .. .    AND      r2,r2,#0x20
        0x0000098c:    4b13        .K      LDR      r3,[pc,#76] ; [0x9dc] = 0x40010000
        0x0000098e:    eb0302d2    ....    ADD      r2,r3,r2,LSR #3
        0x00000992:    f8d22088    ...     LDR      r2,[r2,#0x88]
        0x00000996:    f8103031    ..10    LDRB     r3,[r0,r1,LSL #3]
        0x0000099a:    f003041f    ....    AND      r4,r3,#0x1f
        0x0000099e:    2301        .#      MOVS     r3,#1
        0x000009a0:    40a3        .@      LSLS     r3,r3,r4
        0x000009a2:    439a        .C      BICS     r2,r2,r3
        0x000009a4:    f8103031    ..10    LDRB     r3,[r0,r1,LSL #3]
        0x000009a8:    f0030320    .. .    AND      r3,r3,#0x20
        0x000009ac:    4c0b        .L      LDR      r4,[pc,#44] ; [0x9dc] = 0x40010000
        0x000009ae:    eb0403d3    ....    ADD      r3,r4,r3,LSR #3
        0x000009b2:    f8c32088    ...     STR      r2,[r3,#0x88]
        0x000009b6:    e00f        ..      B        0x9d8 ; am_devices_led_off + 160
        0x000009b8:    e7ff        ..      B        0x9ba ; am_devices_led_off + 130
        0x000009ba:    f8102031    ..1     LDRB     r2,[r0,r1,LSL #3]
        0x000009be:    f002031f    ....    AND      r3,r2,#0x1f
        0x000009c2:    2201        ."      MOVS     r2,#1
        0x000009c4:    409a        .@      LSLS     r2,r2,r3
        0x000009c6:    f8103031    ..10    LDRB     r3,[r0,r1,LSL #3]
        0x000009ca:    f0030320    .. .    AND      r3,r3,#0x20
        0x000009ce:    4c03        .L      LDR      r4,[pc,#12] ; [0x9dc] = 0x40010000
        0x000009d0:    eb0403d3    ....    ADD      r3,r4,r3,LSR #3
        0x000009d4:    f8c320b4    ...     STR      r2,[r3,#0xb4]
        0x000009d8:    bf00        ..      NOP      
        0x000009da:    e7b5        ..      B        0x948 ; am_devices_led_off + 16
    $d
        0x000009dc:    40010000    ...@    DCD    1073807360
    $t
    i.am_devices_led_toggle
    am_devices_led_toggle
        0x000009e0:    b570        p.      PUSH     {r4-r6,lr}
        0x000009e2:    4604        .F      MOV      r4,r0
        0x000009e4:    460d        .F      MOV      r5,r1
        0x000009e6:    b12c        ,.      CBZ      r4,0x9f4 ; am_devices_led_toggle + 20
        0x000009e8:    2d1f        .-      CMP      r5,#0x1f
        0x000009ea:    d203        ..      BCS      0x9f4 ; am_devices_led_toggle + 20
        0x000009ec:    f8540035    T.5.    LDR      r0,[r4,r5,LSL #3]
        0x000009f0:    2832        2(      CMP      r0,#0x32
        0x000009f2:    d300        ..      BCC      0x9f6 ; am_devices_led_toggle + 22
        0x000009f4:    bd70        p.      POP      {r4-r6,pc}
        0x000009f6:    eb0400c5    ....    ADD      r0,r4,r5,LSL #3
        0x000009fa:    7900        .y      LDRB     r0,[r0,#4]
        0x000009fc:    f0000002    ....    AND      r0,r0,#2
        0x00000a00:    b1c8        ..      CBZ      r0,0xa36 ; am_devices_led_toggle + 86
        0x00000a02:    f8140035    ..5.    LDRB     r0,[r4,r5,LSL #3]
        0x00000a06:    f0000020    .. .    AND      r0,r0,#0x20
        0x00000a0a:    491e        .I      LDR      r1,[pc,#120] ; [0xa84] = 0x40010000
        0x00000a0c:    eb0100d0    ....    ADD      r0,r1,r0,LSR #3
        0x00000a10:    f8d00088    ....    LDR      r0,[r0,#0x88]
        0x00000a14:    f8141035    ..5.    LDRB     r1,[r4,r5,LSL #3]
        0x00000a18:    f001021f    ....    AND      r2,r1,#0x1f
        0x00000a1c:    2101        .!      MOVS     r1,#1
        0x00000a1e:    4091        .@      LSLS     r1,r1,r2
        0x00000a20:    4048        H@      EORS     r0,r0,r1
        0x00000a22:    f8141035    ..5.    LDRB     r1,[r4,r5,LSL #3]
        0x00000a26:    f0010120    .. .    AND      r1,r1,#0x20
        0x00000a2a:    4a16        .J      LDR      r2,[pc,#88] ; [0xa84] = 0x40010000
        0x00000a2c:    eb0201d1    ....    ADD      r1,r2,r1,LSR #3
        0x00000a30:    f8c10088    ....    STR      r0,[r1,#0x88]
        0x00000a34:    e023        #.      B        0xa7e ; am_devices_led_toggle + 158
        0x00000a36:    f8540035    T.5.    LDR      r0,[r4,r5,LSL #3]
        0x00000a3a:    f000faa1    ....    BL       am_hal_gpio_out_enable_bit_get ; 0xf80
        0x00000a3e:    b178        x.      CBZ      r0,0xa60 ; am_devices_led_toggle + 128
        0x00000a40:    f8140035    ..5.    LDRB     r0,[r4,r5,LSL #3]
        0x00000a44:    f000011f    ....    AND      r1,r0,#0x1f
        0x00000a48:    2001        .       MOVS     r0,#1
        0x00000a4a:    4088        .@      LSLS     r0,r0,r1
        0x00000a4c:    f8141035    ..5.    LDRB     r1,[r4,r5,LSL #3]
        0x00000a50:    f0010120    .. .    AND      r1,r1,#0x20
        0x00000a54:    4a0b        .J      LDR      r2,[pc,#44] ; [0xa84] = 0x40010000
        0x00000a56:    eb0201d1    ....    ADD      r1,r2,r1,LSR #3
        0x00000a5a:    f8c100b4    ....    STR      r0,[r1,#0xb4]
        0x00000a5e:    e00e        ..      B        0xa7e ; am_devices_led_toggle + 158
        0x00000a60:    f8140035    ..5.    LDRB     r0,[r4,r5,LSL #3]
        0x00000a64:    f000011f    ....    AND      r1,r0,#0x1f
        0x00000a68:    2001        .       MOVS     r0,#1
        0x00000a6a:    4088        .@      LSLS     r0,r0,r1
        0x00000a6c:    f8141035    ..5.    LDRB     r1,[r4,r5,LSL #3]
        0x00000a70:    f0010120    .. .    AND      r1,r1,#0x20
        0x00000a74:    4a03        .J      LDR      r2,[pc,#12] ; [0xa84] = 0x40010000
        0x00000a76:    eb0201d1    ....    ADD      r1,r2,r1,LSR #3
        0x00000a7a:    f8c100a8    ....    STR      r0,[r1,#0xa8]
        0x00000a7e:    bf00        ..      NOP      
        0x00000a80:    e7b8        ..      B        0x9f4 ; am_devices_led_toggle + 20
    $d
        0x00000a82:    0000        ..      DCW    0
        0x00000a84:    40010000    ...@    DCD    1073807360
    $t
    i.am_freertos_sleep
    am_freertos_sleep
        0x00000a88:    b510        ..      PUSH     {r4,lr}
        0x00000a8a:    4604        .F      MOV      r4,r0
        0x00000a8c:    2001        .       MOVS     r0,#1
        0x00000a8e:    f000fbd3    ....    BL       am_hal_sysctrl_sleep ; 0x1238
        0x00000a92:    2000        .       MOVS     r0,#0
        0x00000a94:    bd10        ..      POP      {r4,pc}
    i.am_freertos_wakeup
    am_freertos_wakeup
        0x00000a96:    4770        pG      BX       lr
    i.am_gpio_isr
    am_gpio_isr
        0x00000a98:    b570        p.      PUSH     {r4-r6,lr}
        0x00000a9a:    2000        .       MOVS     r0,#0
        0x00000a9c:    f000fa54    ..T.    BL       am_hal_gpio_int_status_get ; 0xf48
        0x00000aa0:    4604        .F      MOV      r4,r0
        0x00000aa2:    460d        .F      MOV      r5,r1
        0x00000aa4:    4620         F      MOV      r0,r4
        0x00000aa6:    4629        )F      MOV      r1,r5
        0x00000aa8:    f000f9e4    ....    BL       am_hal_gpio_int_clear ; 0xe74
        0x00000aac:    4620         F      MOV      r0,r4
        0x00000aae:    4629        )F      MOV      r1,r5
        0x00000ab0:    f000fa1e    ....    BL       am_hal_gpio_int_service ; 0xef0
        0x00000ab4:    bd70        p.      POP      {r4-r6,pc}
    i.am_hal_clkgen_osc_stop
    am_hal_clkgen_osc_stop
        0x00000ab6:    f0100f03    ....    TST      r0,#3
        0x00000aba:    bf08        ..      IT       EQ
        0x00000abc:    4770        pG      BXEQ     lr
        0x00000abe:    f04f2140    O.@!    MOV      r1,#0x40004000
        0x00000ac2:    68ca        .h      LDR      r2,[r1,#0xc]
        0x00000ac4:    4310        .C      ORRS     r0,r0,r2
        0x00000ac6:    60c8        .`      STR      r0,[r1,#0xc]
        0x00000ac8:    4770        pG      BX       lr
        0x00000aca:    0000        ..      MOVS     r0,r0
    i.am_hal_clkgen_sysclk_get
    am_hal_clkgen_sysclk_get
        0x00000acc:    f04f2040    O.@     MOV      r0,#0x40004000
        0x00000ad0:    6980        .i      LDR      r0,[r0,#0x18]
        0x00000ad2:    f0000007    ....    AND      r0,r0,#7
        0x00000ad6:    2808        .(      CMP      r0,#8
        0x00000ad8:    d215        ..      BCS      0xb06 ; am_hal_clkgen_sysclk_get + 58
        0x00000ada:    e8dff000    ....    TBB      [pc,r0]
    $d
        0x00000ade:    0604        ..      DCW    1540
        0x00000ae0:    0e0c0a08    ....    DCD    235670024
        0x00000ae4:    1210        ..      DCW    4624
    $t
        0x00000ae6:    4809        .H      LDR      r0,[pc,#36] ; [0xb0c] = 0x16e3600
        0x00000ae8:    4770        pG      BX       lr
        0x00000aea:    4809        .H      LDR      r0,[pc,#36] ; [0xb10] = 0xb71b00
        0x00000aec:    4770        pG      BX       lr
        0x00000aee:    4809        .H      LDR      r0,[pc,#36] ; [0xb14] = 0x7a1200
        0x00000af0:    4770        pG      BX       lr
        0x00000af2:    4809        .H      LDR      r0,[pc,#36] ; [0xb18] = 0x5b8d80
        0x00000af4:    4770        pG      BX       lr
        0x00000af6:    4809        .H      LDR      r0,[pc,#36] ; [0xb1c] = 0x493e00
        0x00000af8:    4770        pG      BX       lr
        0x00000afa:    4809        .H      LDR      r0,[pc,#36] ; [0xb20] = 0x3d0900
        0x00000afc:    4770        pG      BX       lr
        0x00000afe:    4809        .H      LDR      r0,[pc,#36] ; [0xb24] = 0x3450db
        0x00000b00:    4770        pG      BX       lr
        0x00000b02:    4809        .H      LDR      r0,[pc,#36] ; [0xb28] = 0x2dc6c0
        0x00000b04:    4770        pG      BX       lr
        0x00000b06:    f04f30ff    O..0    MOV      r0,#0xffffffff
        0x00000b0a:    4770        pG      BX       lr
    $d
        0x00000b0c:    016e3600    .6n.    DCD    24000000
        0x00000b10:    00b71b00    ....    DCD    12000000
        0x00000b14:    007a1200    ..z.    DCD    8000000
        0x00000b18:    005b8d80    ..[.    DCD    6000000
        0x00000b1c:    00493e00    .>I.    DCD    4800000
        0x00000b20:    003d0900    ..=.    DCD    4000000
        0x00000b24:    003450db    .P4.    DCD    3428571
        0x00000b28:    002dc6c0    ..-.    DCD    3000000
    $t
    i.am_hal_clkgen_sysclk_select
    am_hal_clkgen_sysclk_select
        0x00000b2c:    f04f2140    O.@!    MOV      r1,#0x40004000
        0x00000b30:    2247        G"      MOVS     r2,#0x47
        0x00000b32:    614a        Ja      STR      r2,[r1,#0x14]
        0x00000b34:    6188        .a      STR      r0,[r1,#0x18]
        0x00000b36:    2000        .       MOVS     r0,#0
        0x00000b38:    6148        Ha      STR      r0,[r1,#0x14]
        0x00000b3a:    4770        pG      BX       lr
    i.am_hal_ctimer_clear
    am_hal_ctimer_clear
        0x00000b3c:    b538        8.      PUSH     {r3-r5,lr}
        0x00000b3e:    460d        .F      MOV      r5,r1
        0x00000b40:    4907        .I      LDR      r1,[pc,#28] ; [0xb60] = 0x4000800c
        0x00000b42:    eb011400    ....    ADD      r4,r1,r0,LSL #4
        0x00000b46:    f7fffb83    ....    BL       am_hal_interrupt_master_disable ; 0x250
        0x00000b4a:    9000        ..      STR      r0,[sp,#0]
        0x00000b4c:    6820         h      LDR      r0,[r4,#0]
        0x00000b4e:    f0052108    ...!    AND      r1,r5,#0x8000800
        0x00000b52:    4308        .C      ORRS     r0,r0,r1
        0x00000b54:    6020         `      STR      r0,[r4,#0]
        0x00000b56:    9800        ..      LDR      r0,[sp,#0]
        0x00000b58:    e8bd4038    ..8@    POP      {r3-r5,lr}
        0x00000b5c:    f7ffbb7c    ..|.    B        am_hal_interrupt_master_set ; 0x258
    $d
        0x00000b60:    4000800c    ...@    DCD    1073774604
    $t
    i.am_hal_ctimer_compare_set
    am_hal_ctimer_compare_set
        0x00000b64:    e92d43f8    -..C    PUSH     {r3-r9,lr}
        0x00000b68:    4688        .F      MOV      r8,r1
        0x00000b6a:    491e        .I      LDR      r1,[pc,#120] ; [0xbe4] = 0x40008008
        0x00000b6c:    461f        .F      MOV      r7,r3
        0x00000b6e:    eb011500    ....    ADD      r5,r1,r0,LSL #4
        0x00000b72:    1f09        ..      SUBS     r1,r1,#4
        0x00000b74:    4691        .F      MOV      r9,r2
        0x00000b76:    eb011400    ....    ADD      r4,r1,r0,LSL #4
        0x00000b7a:    f5183f80    ...?    CMN      r8,#0x10000
        0x00000b7e:    bf0c        ..      ITE      EQ
        0x00000b80:    462e        .F      MOVEQ    r6,r5
        0x00000b82:    4626        &F      MOVNE    r6,r4
        0x00000b84:    f7fffb64    ..d.    BL       am_hal_interrupt_master_disable ; 0x250
        0x00000b88:    9000        ..      STR      r0,[sp,#0]
        0x00000b8a:    f1b90f01    ....    CMP      r9,#1
        0x00000b8e:    d00d        ..      BEQ      0xbac ; am_hal_ctimer_compare_set + 72
        0x00000b90:    f1b83fff    ...?    CMP      r8,#0xffffffff
        0x00000b94:    b2b8        ..      UXTH     r0,r7
        0x00000b96:    bf1c        ..      ITT      NE
        0x00000b98:    6831        1h      LDRNE    r1,[r6,#0]
        0x00000b9a:    eac00001    ....    PKHBTNE  r0,r0,r1
        0x00000b9e:    d016        ..      BEQ      0xbce ; am_hal_ctimer_compare_set + 106
        0x00000ba0:    6030        0`      STR      r0,[r6,#0]
        0x00000ba2:    9800        ..      LDR      r0,[sp,#0]
        0x00000ba4:    e8bd43f8    ...C    POP      {r3-r9,lr}
        0x00000ba8:    f7ffbb56    ..V.    B        am_hal_interrupt_master_set ; 0x258
        0x00000bac:    f1b83fff    ...?    CMP      r8,#0xffffffff
        0x00000bb0:    bf1c        ..      ITT      NE
        0x00000bb2:    6830        0h      LDRNE    r0,[r6,#0]
        0x00000bb4:    eac04007    ...@    PKHBTNE  r0,r0,r7,LSL #16
        0x00000bb8:    d1f2        ..      BNE      0xba0 ; am_hal_ctimer_compare_set + 60
        0x00000bba:    6820         h      LDR      r0,[r4,#0]
        0x00000bbc:    eac04007    ...@    PKHBT    r0,r0,r7,LSL #16
        0x00000bc0:    6020         `      STR      r0,[r4,#0]
        0x00000bc2:    6828        (h      LDR      r0,[r5,#0]
        0x00000bc4:    f36f070f    o...    BFC      r7,#0,#16
        0x00000bc8:    eac00007    ....    PKHBT    r0,r0,r7
        0x00000bcc:    e007        ..      B        0xbde ; am_hal_ctimer_compare_set + 122
        0x00000bce:    6821        !h      LDR      r1,[r4,#0]
        0x00000bd0:    eac00001    ....    PKHBT    r0,r0,r1
        0x00000bd4:    6020         `      STR      r0,[r4,#0]
        0x00000bd6:    6829        )h      LDR      r1,[r5,#0]
        0x00000bd8:    0c38        8.      LSRS     r0,r7,#16
        0x00000bda:    eac00001    ....    PKHBT    r0,r0,r1
        0x00000bde:    6028        (`      STR      r0,[r5,#0]
        0x00000be0:    e7df        ..      B        0xba2 ; am_hal_ctimer_compare_set + 62
    $d
        0x00000be2:    0000        ..      DCW    0
        0x00000be4:    40008008    ...@    DCD    1073774600
    $t
    i.am_hal_ctimer_config
    am_hal_ctimer_config
        0x00000be8:    b538        8.      PUSH     {r3-r5,lr}
        0x00000bea:    460d        .F      MOV      r5,r1
        0x00000bec:    4910        .I      LDR      r1,[pc,#64] ; [0xc30] = 0x4000800c
        0x00000bee:    eb011400    ....    ADD      r4,r1,r0,LSL #4
        0x00000bf2:    f7fffb2d    ..-.    BL       am_hal_interrupt_master_disable ; 0x250
        0x00000bf6:    9000        ..      STR      r0,[sp,#0]
        0x00000bf8:    6820         h      LDR      r0,[r4,#0]
        0x00000bfa:    f0402008    @..     ORR      r0,r0,#0x8000800
        0x00000bfe:    6020         `      STR      r0,[r4,#0]
        0x00000c00:    9800        ..      LDR      r0,[sp,#0]
        0x00000c02:    f7fffb29    ..).    BL       am_hal_interrupt_master_set ; 0x258
        0x00000c06:    8929        ).      LDRH     r1,[r5,#8]
        0x00000c08:    6868        hh      LDR      r0,[r5,#4]
        0x00000c0a:    ea404001    @..@    ORR      r0,r0,r1,LSL #16
        0x00000c0e:    6829        )h      LDR      r1,[r5,#0]
        0x00000c10:    2900        .)      CMP      r1,#0
        0x00000c12:    bf18        ..      IT       NE
        0x00000c14:    f04f4100    O..A    MOVNE    r1,#0x80000000
        0x00000c18:    ea410500    A...    ORR      r5,r1,r0
        0x00000c1c:    f7fffb18    ....    BL       am_hal_interrupt_master_disable ; 0x250
        0x00000c20:    9000        ..      STR      r0,[sp,#0]
        0x00000c22:    6025        %`      STR      r5,[r4,#0]
        0x00000c24:    9800        ..      LDR      r0,[sp,#0]
        0x00000c26:    e8bd4038    ..8@    POP      {r3-r5,lr}
        0x00000c2a:    f7ffbb15    ....    B        am_hal_interrupt_master_set ; 0x258
    $d
        0x00000c2e:    0000        ..      DCW    0
        0x00000c30:    4000800c    ...@    DCD    1073774604
    $t
    i.am_hal_ctimer_int_clear
    am_hal_ctimer_int_clear
        0x00000c34:    4901        .I      LDR      r1,[pc,#4] ; [0xc3c] = 0x40008000
        0x00000c36:    f8c10208    ....    STR      r0,[r1,#0x208]
        0x00000c3a:    4770        pG      BX       lr
    $d
        0x00000c3c:    40008000    ...@    DCD    1073774592
    $t
    i.am_hal_ctimer_int_enable
    am_hal_ctimer_int_enable
        0x00000c40:    b538        8.      PUSH     {r3-r5,lr}
        0x00000c42:    4604        .F      MOV      r4,r0
        0x00000c44:    f7fffb04    ....    BL       am_hal_interrupt_master_disable ; 0x250
        0x00000c48:    9000        ..      STR      r0,[sp,#0]
        0x00000c4a:    4805        .H      LDR      r0,[pc,#20] ; [0xc60] = 0x40008000
        0x00000c4c:    f8d01200    ....    LDR      r1,[r0,#0x200]
        0x00000c50:    4321        !C      ORRS     r1,r1,r4
        0x00000c52:    f8c01200    ....    STR      r1,[r0,#0x200]
        0x00000c56:    9800        ..      LDR      r0,[sp,#0]
        0x00000c58:    e8bd4038    ..8@    POP      {r3-r5,lr}
        0x00000c5c:    f7ffbafc    ....    B        am_hal_interrupt_master_set ; 0x258
    $d
        0x00000c60:    40008000    ...@    DCD    1073774592
    $t
    i.am_hal_ctimer_int_register
    am_hal_ctimer_int_register
        0x00000c64:    b570        p.      PUSH     {r4-r6,lr}
        0x00000c66:    2400        .$      MOVS     r4,#0
        0x00000c68:    460d        .F      MOV      r5,r1
        0x00000c6a:    2810        .(      CMP      r0,#0x10
        0x00000c6c:    bf08        ..      IT       EQ
        0x00000c6e:    2404        .$      MOVEQ    r4,#4
        0x00000c70:    d021        !.      BEQ      0xcb6 ; am_hal_ctimer_int_register + 82
        0x00000c72:    dc0e        ..      BGT      0xc92 ; am_hal_ctimer_int_register + 46
        0x00000c74:    2801        .(      CMP      r0,#1
        0x00000c76:    d01e        ..      BEQ      0xcb6 ; am_hal_ctimer_int_register + 82
        0x00000c78:    2802        .(      CMP      r0,#2
        0x00000c7a:    bf08        ..      IT       EQ
        0x00000c7c:    2401        .$      MOVEQ    r4,#1
        0x00000c7e:    d01a        ..      BEQ      0xcb6 ; am_hal_ctimer_int_register + 82
        0x00000c80:    2804        .(      CMP      r0,#4
        0x00000c82:    bf08        ..      IT       EQ
        0x00000c84:    2402        .$      MOVEQ    r4,#2
        0x00000c86:    d016        ..      BEQ      0xcb6 ; am_hal_ctimer_int_register + 82
        0x00000c88:    2808        .(      CMP      r0,#8
        0x00000c8a:    bf08        ..      IT       EQ
        0x00000c8c:    2403        .$      MOVEQ    r4,#3
        0x00000c8e:    d012        ..      BEQ      0xcb6 ; am_hal_ctimer_int_register + 82
        0x00000c90:    e00b        ..      B        0xcaa ; am_hal_ctimer_int_register + 70
        0x00000c92:    2820         (      CMP      r0,#0x20
        0x00000c94:    bf08        ..      IT       EQ
        0x00000c96:    2405        .$      MOVEQ    r4,#5
        0x00000c98:    d00d        ..      BEQ      0xcb6 ; am_hal_ctimer_int_register + 82
        0x00000c9a:    2840        @(      CMP      r0,#0x40
        0x00000c9c:    bf08        ..      IT       EQ
        0x00000c9e:    2406        .$      MOVEQ    r4,#6
        0x00000ca0:    d009        ..      BEQ      0xcb6 ; am_hal_ctimer_int_register + 82
        0x00000ca2:    2880        .(      CMP      r0,#0x80
        0x00000ca4:    bf08        ..      IT       EQ
        0x00000ca6:    2407        .$      MOVEQ    r4,#7
        0x00000ca8:    d005        ..      BEQ      0xcb6 ; am_hal_ctimer_int_register + 82
        0x00000caa:    a205        ..      ADR      r2,{pc}+0x16 ; 0xcc0
        0x00000cac:    f2401159    @.Y.    MOV      r1,#0x159
        0x00000cb0:    a00d        ..      ADR      r0,{pc}+0x38 ; 0xce8
        0x00000cb2:    f000f8dd    ....    BL       am_hal_debug_error ; 0xe70
        0x00000cb6:    4810        .H      LDR      r0,[pc,#64] ; [0xcf8] = 0x10004280
        0x00000cb8:    f8405024    @.$P    STR      r5,[r0,r4,LSL #2]
        0x00000cbc:    bd70        p.      POP      {r4-r6,pc}
    $d
        0x00000cbe:    0000        ..      DCW    0
        0x00000cc0:    6d695443    CTim    DCD    1835619395
        0x00000cc4:    69207265    er i    DCD    1763734117
        0x00000cc8:    7265746e    nter    DCD    1919251566
        0x00000ccc:    74707572    rupt    DCD    1953527154
        0x00000cd0:    6d756e20     num    DCD    1836412448
        0x00000cd4:    20726562    ber     DCD    544367970
        0x00000cd8:    2074756f    out     DCD    544503151
        0x00000cdc:    7220666f    of r    DCD    1914725999
        0x00000ce0:    65676e61    ange    DCD    1701277281
        0x00000ce4:    0000002e    ....    DCD    46
        0x00000ce8:    685f6d61    am_h    DCD    1751084385
        0x00000cec:    635f6c61    al_c    DCD    1667198049
        0x00000cf0:    656d6974    time    DCD    1701669236
        0x00000cf4:    00632e72    r.c.    DCD    6499954
        0x00000cf8:    10004280    .B..    DCD    268452480
    $t
    i.am_hal_ctimer_int_service
    am_hal_ctimer_int_service
        0x00000cfc:    b570        p.      PUSH     {r4-r6,lr}
        0x00000cfe:    0404        ..      LSLS     r4,r0,#16
        0x00000d00:    0c24        $.      LSRS     r4,r4,#16
        0x00000d02:    bf1a        ..      ITTE     NE
        0x00000d04:    f04f4500    O..E    MOVNE    r5,#0x80000000
        0x00000d08:    4e08        .N      LDRNE    r6,[pc,#32] ; [0xd2c] = 0x10004280
        0x00000d0a:    bd70        p.      POPEQ    {r4-r6,pc}
        0x00000d0c:    fab4f084    ....    CLZ      r0,r4
        0x00000d10:    fa25f100    %...    LSR      r1,r5,r0
        0x00000d14:    f1c0001f    ....    RSB      r0,r0,#0x1f
        0x00000d18:    438c        .C      BICS     r4,r4,r1
        0x00000d1a:    f8560020    V. .    LDR      r0,[r6,r0,LSL #2]
        0x00000d1e:    2800        .(      CMP      r0,#0
        0x00000d20:    bf18        ..      IT       NE
        0x00000d22:    4780        .G      BLXNE    r0
        0x00000d24:    2c00        .,      CMP      r4,#0
        0x00000d26:    d1f1        ..      BNE      0xd0c ; am_hal_ctimer_int_service + 16
        0x00000d28:    bd70        p.      POP      {r4-r6,pc}
    $d
        0x00000d2a:    0000        ..      DCW    0
        0x00000d2c:    10004280    .B..    DCD    268452480
    $t
    i.am_hal_ctimer_int_status_get
    am_hal_ctimer_int_status_get
        0x00000d30:    b538        8.      PUSH     {r3-r5,lr}
        0x00000d32:    4c0a        .L      LDR      r4,[pc,#40] ; [0xd5c] = 0x40008000
        0x00000d34:    2800        .(      CMP      r0,#0
        0x00000d36:    bf04        ..      ITT      EQ
        0x00000d38:    f8d40204    ....    LDREQ    r0,[r4,#0x204]
        0x00000d3c:    bd38        8.      POPEQ    {r3-r5,pc}
        0x00000d3e:    f7fffa87    ....    BL       am_hal_interrupt_master_disable ; 0x250
        0x00000d42:    9000        ..      STR      r0,[sp,#0]
        0x00000d44:    f8d40204    ....    LDR      r0,[r4,#0x204]
        0x00000d48:    f8d41200    ....    LDR      r1,[r4,#0x200]
        0x00000d4c:    ea010400    ....    AND      r4,r1,r0
        0x00000d50:    9800        ..      LDR      r0,[sp,#0]
        0x00000d52:    f7fffa81    ....    BL       am_hal_interrupt_master_set ; 0x258
        0x00000d56:    4620         F      MOV      r0,r4
        0x00000d58:    bd38        8.      POP      {r3-r5,pc}
    $d
        0x00000d5a:    0000        ..      DCW    0
        0x00000d5c:    40008000    ...@    DCD    1073774592
    $t
    i.am_hal_ctimer_read
    am_hal_ctimer_read
        0x00000d60:    b510        ..      PUSH     {r4,lr}
        0x00000d62:    b088        ..      SUB      sp,sp,#0x20
        0x00000d64:    460c        .F      MOV      r4,r1
        0x00000d66:    2100        .!      MOVS     r1,#0
        0x00000d68:    9103        ..      STR      r1,[sp,#0xc]
        0x00000d6a:    4922        "I      LDR      r1,[pc,#136] ; [0xdf4] = 0x3bd8
        0x00000d6c:    f10d0e10    ....    ADD      lr,sp,#0x10
        0x00000d70:    e891100e    ....    LDM      r1,{r1-r3,r12}
        0x00000d74:    e88e100e    ....    STM      lr,{r1-r3,r12}
        0x00000d78:    a904        ..      ADD      r1,sp,#0x10
        0x00000d7a:    f8510020    Q. .    LDR      r0,[r1,r0,LSL #2]
        0x00000d7e:    4669        iF      MOV      r1,sp
        0x00000d80:    f7fffa4c    ..L.    BL       __asm___15_am_hal_ctimer_c_5490335f__back2back_reads ; 0x21c
        0x00000d84:    f5143f80    ...?    CMN      r4,#0x10000
        0x00000d88:    d02b        +.      BEQ      0xde2 ; am_hal_ctimer_read + 130
        0x00000d8a:    f5a4407f    ...@    SUB      r0,r4,#0xff00
        0x00000d8e:    38ff        .8      SUBS     r0,r0,#0xff
        0x00000d90:    d108        ..      BNE      0xda4 ; am_hal_ctimer_read + 68
        0x00000d92:    9800        ..      LDR      r0,[sp,#0]
        0x00000d94:    b280        ..      UXTH     r0,r0
        0x00000d96:    9000        ..      STR      r0,[sp,#0]
        0x00000d98:    9801        ..      LDR      r0,[sp,#4]
        0x00000d9a:    b280        ..      UXTH     r0,r0
        0x00000d9c:    9001        ..      STR      r0,[sp,#4]
        0x00000d9e:    9802        ..      LDR      r0,[sp,#8]
        0x00000da0:    b280        ..      UXTH     r0,r0
        0x00000da2:    9002        ..      STR      r0,[sp,#8]
        0x00000da4:    e9dd0100    ....    LDRD     r0,r1,[sp,#0]
        0x00000da8:    4288        .B      CMP      r0,r1
        0x00000daa:    bf08        ..      IT       EQ
        0x00000dac:    9103        ..      STREQ    r1,[sp,#0xc]
        0x00000dae:    d015        ..      BEQ      0xddc ; am_hal_ctimer_read + 124
        0x00000db0:    9802        ..      LDR      r0,[sp,#8]
        0x00000db2:    9003        ..      STR      r0,[sp,#0xc]
        0x00000db4:    4608        .F      MOV      r0,r1
        0x00000db6:    9902        ..      LDR      r1,[sp,#8]
        0x00000db8:    4288        .B      CMP      r0,r1
        0x00000dba:    bf1c        ..      ITT      NE
        0x00000dbc:    1c40        @.      ADDNE    r0,r0,#1
        0x00000dbe:    4288        .B      CMPNE    r0,r1
        0x00000dc0:    d00c        ..      BEQ      0xddc ; am_hal_ctimer_read + 124
        0x00000dc2:    2900        .)      CMP      r1,#0
        0x00000dc4:    bf1f        ..      ITTTT    NE
        0x00000dc6:    9800        ..      LDRNE    r0,[sp,#0]
        0x00000dc8:    4288        .B      CMPNE    r0,r1
        0x00000dca:    1c40        @.      ADDNE    r0,r0,#1
        0x00000dcc:    4288        .B      CMPNE    r0,r1
        0x00000dce:    d005        ..      BEQ      0xddc ; am_hal_ctimer_read + 124
        0x00000dd0:    a209        ..      ADR      r2,{pc}+0x28 ; 0xdf8
        0x00000dd2:    f44f7156    O.Vq    MOV      r1,#0x358
        0x00000dd6:    a00c        ..      ADR      r0,{pc}+0x32 ; 0xe08
        0x00000dd8:    f000f84a    ..J.    BL       am_hal_debug_error ; 0xe70
        0x00000ddc:    9803        ..      LDR      r0,[sp,#0xc]
        0x00000dde:    b008        ..      ADD      sp,sp,#0x20
        0x00000de0:    bd10        ..      POP      {r4,pc}
        0x00000de2:    9800        ..      LDR      r0,[sp,#0]
        0x00000de4:    0c00        ..      LSRS     r0,r0,#16
        0x00000de6:    9000        ..      STR      r0,[sp,#0]
        0x00000de8:    9801        ..      LDR      r0,[sp,#4]
        0x00000dea:    0c00        ..      LSRS     r0,r0,#16
        0x00000dec:    9001        ..      STR      r0,[sp,#4]
        0x00000dee:    9802        ..      LDR      r0,[sp,#8]
        0x00000df0:    0c00        ..      LSRS     r0,r0,#16
        0x00000df2:    e7d6        ..      B        0xda2 ; am_hal_ctimer_read + 66
    $d
        0x00000df4:    00003bd8    .;..    DCD    15320
        0x00000df8:    20646142    Bad     DCD    543449410
        0x00000dfc:    4d495443    CTIM    DCD    1296651331
        0x00000e00:    72205245    ER r    DCD    1914720837
        0x00000e04:    00646165    ead.    DCD    6578533
        0x00000e08:    685f6d61    am_h    DCD    1751084385
        0x00000e0c:    635f6c61    al_c    DCD    1667198049
        0x00000e10:    656d6974    time    DCD    1701669236
        0x00000e14:    00632e72    r.c.    DCD    6499954
    $t
    i.am_hal_ctimer_start
    am_hal_ctimer_start
        0x00000e18:    b538        8.      PUSH     {r3-r5,lr}
        0x00000e1a:    460c        .F      MOV      r4,r1
        0x00000e1c:    4909        .I      LDR      r1,[pc,#36] ; [0xe44] = 0x4000800c
        0x00000e1e:    eb011500    ....    ADD      r5,r1,r0,LSL #4
        0x00000e22:    f7fffa15    ....    BL       am_hal_interrupt_master_disable ; 0x250
        0x00000e26:    9000        ..      STR      r0,[sp,#0]
        0x00000e28:    6828        (h      LDR      r0,[r5,#0]
        0x00000e2a:    f0042108    ...!    AND      r1,r4,#0x8000800
        0x00000e2e:    4388        .C      BICS     r0,r0,r1
        0x00000e30:    f0041101    ....    AND      r1,r4,#0x10001
        0x00000e34:    4308        .C      ORRS     r0,r0,r1
        0x00000e36:    6028        (`      STR      r0,[r5,#0]
        0x00000e38:    9800        ..      LDR      r0,[sp,#0]
        0x00000e3a:    e8bd4038    ..8@    POP      {r3-r5,lr}
        0x00000e3e:    f7ffba0b    ....    B        am_hal_interrupt_master_set ; 0x258
    $d
        0x00000e42:    0000        ..      DCW    0
        0x00000e44:    4000800c    ...@    DCD    1073774604
    $t
    i.am_hal_ctimer_stop
    am_hal_ctimer_stop
        0x00000e48:    b538        8.      PUSH     {r3-r5,lr}
        0x00000e4a:    460d        .F      MOV      r5,r1
        0x00000e4c:    4907        .I      LDR      r1,[pc,#28] ; [0xe6c] = 0x4000800c
        0x00000e4e:    eb011400    ....    ADD      r4,r1,r0,LSL #4
        0x00000e52:    f7fff9fd    ....    BL       am_hal_interrupt_master_disable ; 0x250
        0x00000e56:    9000        ..      STR      r0,[sp,#0]
        0x00000e58:    6820         h      LDR      r0,[r4,#0]
        0x00000e5a:    f0051101    ....    AND      r1,r5,#0x10001
        0x00000e5e:    4388        .C      BICS     r0,r0,r1
        0x00000e60:    6020         `      STR      r0,[r4,#0]
        0x00000e62:    9800        ..      LDR      r0,[sp,#0]
        0x00000e64:    e8bd4038    ..8@    POP      {r3-r5,lr}
        0x00000e68:    f7ffb9f6    ....    B        am_hal_interrupt_master_set ; 0x258
    $d
        0x00000e6c:    4000800c    ...@    DCD    1073774604
    $t
    i.am_hal_debug_error
    am_hal_debug_error
        0x00000e70:    e7fe        ..      B        am_hal_debug_error ; 0xe70
        0x00000e72:    0000        ..      MOVS     r0,r0
    i.am_hal_gpio_int_clear
    am_hal_gpio_int_clear
        0x00000e74:    4a02        .J      LDR      r2,[pc,#8] ; [0xe80] = 0x40010000
        0x00000e76:    f8c21218    ....    STR      r1,[r2,#0x218]
        0x00000e7a:    f8c20208    ....    STR      r0,[r2,#0x208]
        0x00000e7e:    4770        pG      BX       lr
    $d
        0x00000e80:    40010000    ...@    DCD    1073807360
    $t
    i.am_hal_gpio_int_enable
    am_hal_gpio_int_enable
        0x00000e84:    4a05        .J      LDR      r2,[pc,#20] ; [0xe9c] = 0x40010000
        0x00000e86:    f8d23210    ...2    LDR      r3,[r2,#0x210]
        0x00000e8a:    4319        .C      ORRS     r1,r1,r3
        0x00000e8c:    f8c21210    ....    STR      r1,[r2,#0x210]
        0x00000e90:    f8d21200    ....    LDR      r1,[r2,#0x200]
        0x00000e94:    4308        .C      ORRS     r0,r0,r1
        0x00000e96:    f8c20200    ....    STR      r0,[r2,#0x200]
        0x00000e9a:    4770        pG      BX       lr
    $d
        0x00000e9c:    40010000    ...@    DCD    1073807360
    $t
    i.am_hal_gpio_int_register
    am_hal_gpio_int_register
        0x00000ea0:    b570        p.      PUSH     {r4-r6,lr}
        0x00000ea2:    460d        .F      MOV      r5,r1
        0x00000ea4:    4604        .F      MOV      r4,r0
        0x00000ea6:    2840        @(      CMP      r0,#0x40
        0x00000ea8:    d905        ..      BLS      0xeb6 ; am_hal_gpio_int_register + 22
        0x00000eaa:    a205        ..      ADR      r2,{pc}+0x16 ; 0xec0
        0x00000eac:    f44f71e6    O..q    MOV      r1,#0x1cc
        0x00000eb0:    a00a        ..      ADR      r0,{pc}+0x2c ; 0xedc
        0x00000eb2:    f7ffffdd    ....    BL       am_hal_debug_error ; 0xe70
        0x00000eb6:    480d        .H      LDR      r0,[pc,#52] ; [0xeec] = 0x100042a0
        0x00000eb8:    f8405024    @.$P    STR      r5,[r0,r4,LSL #2]
        0x00000ebc:    bd70        p.      POP      {r4-r6,pc}
    $d
        0x00000ebe:    0000        ..      DCW    0
        0x00000ec0:    4f495047    GPIO    DCD    1330204743
        0x00000ec4:    6d756e20     num    DCD    1836412448
        0x00000ec8:    20726562    ber     DCD    544367970
        0x00000ecc:    2074756f    out     DCD    544503151
        0x00000ed0:    7220666f    of r    DCD    1914725999
        0x00000ed4:    65676e61    ange    DCD    1701277281
        0x00000ed8:    0000002e    ....    DCD    46
        0x00000edc:    685f6d61    am_h    DCD    1751084385
        0x00000ee0:    675f6c61    al_g    DCD    1734306913
        0x00000ee4:    2e6f6970    pio.    DCD    779053424
        0x00000ee8:    00000063    c...    DCD    99
        0x00000eec:    100042a0    .B..    DCD    268452512
    $t
    i.am_hal_gpio_int_service
    am_hal_gpio_int_service
        0x00000ef0:    e92d41f0    -..A    PUSH     {r4-r8,lr}
        0x00000ef4:    4f13        .O      LDR      r7,[pc,#76] ; [0xf44] = 0x100042a0
        0x00000ef6:    460d        .F      MOV      r5,r1
        0x00000ef8:    0004        ..      MOVS     r4,r0
        0x00000efa:    f04f4600    O..F    MOV      r6,#0x80000000
        0x00000efe:    d00d        ..      BEQ      0xf1c ; am_hal_gpio_int_service + 44
        0x00000f00:    fab4f084    ....    CLZ      r0,r4
        0x00000f04:    fa26f100    &...    LSR      r1,r6,r0
        0x00000f08:    f1c0001f    ....    RSB      r0,r0,#0x1f
        0x00000f0c:    438c        .C      BICS     r4,r4,r1
        0x00000f0e:    f8570020    W. .    LDR      r0,[r7,r0,LSL #2]
        0x00000f12:    2800        .(      CMP      r0,#0
        0x00000f14:    bf18        ..      IT       NE
        0x00000f16:    4780        .G      BLXNE    r0
        0x00000f18:    2c00        .,      CMP      r4,#0
        0x00000f1a:    d1f1        ..      BNE      0xf00 ; am_hal_gpio_int_service + 16
        0x00000f1c:    2d00        .-      CMP      r5,#0
        0x00000f1e:    bf08        ..      IT       EQ
        0x00000f20:    e8bd81f0    ....    POPEQ    {r4-r8,pc}
        0x00000f24:    fab5f085    ....    CLZ      r0,r5
        0x00000f28:    fa26f100    &...    LSR      r1,r6,r0
        0x00000f2c:    f1c0003f    ..?.    RSB      r0,r0,#0x3f
        0x00000f30:    438d        .C      BICS     r5,r5,r1
        0x00000f32:    f8570020    W. .    LDR      r0,[r7,r0,LSL #2]
        0x00000f36:    2800        .(      CMP      r0,#0
        0x00000f38:    bf18        ..      IT       NE
        0x00000f3a:    4780        .G      BLXNE    r0
        0x00000f3c:    2d00        .-      CMP      r5,#0
        0x00000f3e:    d1f1        ..      BNE      0xf24 ; am_hal_gpio_int_service + 52
        0x00000f40:    e8bd81f0    ....    POP      {r4-r8,pc}
    $d
        0x00000f44:    100042a0    .B..    DCD    268452512
    $t
    i.am_hal_gpio_int_status_get
    am_hal_gpio_int_status_get
        0x00000f48:    4a0c        .J      LDR      r2,[pc,#48] ; [0xf7c] = 0x40010000
        0x00000f4a:    2100        .!      MOVS     r1,#0
        0x00000f4c:    b178        x.      CBZ      r0,0xf6e ; am_hal_gpio_int_status_get + 38
        0x00000f4e:    f8d23210    ...2    LDR      r3,[r2,#0x210]
        0x00000f52:    f8d20200    ....    LDR      r0,[r2,#0x200]
        0x00000f56:    f8d2c214    ....    LDR      r12,[r2,#0x214]
        0x00000f5a:    4308        .C      ORRS     r0,r0,r1
        0x00000f5c:    430b        .C      ORRS     r3,r3,r1
        0x00000f5e:    f8d22204    ..."    LDR      r2,[r2,#0x204]
        0x00000f62:    430a        .C      ORRS     r2,r2,r1
        0x00000f64:    ea41010c    A...    ORR      r1,r1,r12
        0x00000f68:    4010        .@      ANDS     r0,r0,r2
        0x00000f6a:    4019        .@      ANDS     r1,r1,r3
        0x00000f6c:    4770        pG      BX       lr
        0x00000f6e:    f8d23214    ...2    LDR      r3,[r2,#0x214]
        0x00000f72:    f8d20204    ....    LDR      r0,[r2,#0x204]
        0x00000f76:    4308        .C      ORRS     r0,r0,r1
        0x00000f78:    4319        .C      ORRS     r1,r1,r3
        0x00000f7a:    4770        pG      BX       lr
    $d
        0x00000f7c:    40010000    ...@    DCD    1073807360
    $t
    i.am_hal_gpio_out_enable_bit_get
    am_hal_gpio_out_enable_bit_get
        0x00000f80:    490a        .I      LDR      r1,[pc,#40] ; [0xfac] = 0x40010000
        0x00000f82:    2201        ."      MOVS     r2,#1
        0x00000f84:    281f        .(      CMP      r0,#0x1f
        0x00000f86:    d908        ..      BLS      0xf9a ; am_hal_gpio_out_enable_bit_get + 26
        0x00000f88:    f8d110a4    ....    LDR      r1,[r1,#0xa4]
        0x00000f8c:    3820         8      SUBS     r0,r0,#0x20
        0x00000f8e:    fa02f000    ....    LSL      r0,r2,r0
        0x00000f92:    4008        .@      ANDS     r0,r0,r1
        0x00000f94:    bf08        ..      IT       EQ
        0x00000f96:    4770        pG      BXEQ     lr
        0x00000f98:    e006        ..      B        0xfa8 ; am_hal_gpio_out_enable_bit_get + 40
        0x00000f9a:    f8d110a0    ....    LDR      r1,[r1,#0xa0]
        0x00000f9e:    fa02f000    ....    LSL      r0,r2,r0
        0x00000fa2:    4008        .@      ANDS     r0,r0,r1
        0x00000fa4:    bf08        ..      IT       EQ
        0x00000fa6:    4770        pG      BXEQ     lr
        0x00000fa8:    2001        .       MOVS     r0,#1
        0x00000faa:    4770        pG      BX       lr
    $d
        0x00000fac:    40010000    ...@    DCD    1073807360
    $t
    i.am_hal_interrupt_enable
    am_hal_interrupt_enable
        0x00000fb0:    280f        .(      CMP      r0,#0xf
        0x00000fb2:    d90a        ..      BLS      0xfca ; am_hal_interrupt_enable + 26
        0x00000fb4:    3810        .8      SUBS     r0,r0,#0x10
        0x00000fb6:    f000001f    ....    AND      r0,r0,#0x1f
        0x00000fba:    2101        .!      MOVS     r1,#1
        0x00000fbc:    fa01f000    ....    LSL      r0,r1,r0
        0x00000fc0:    f04f21e0    O..!    MOV      r1,#0xe000e000
        0x00000fc4:    f8c10100    ....    STR      r0,[r1,#0x100]
        0x00000fc8:    4770        pG      BX       lr
        0x00000fca:    490b        .I      LDR      r1,[pc,#44] ; [0xff8] = 0xe000ed24
        0x00000fcc:    2804        .(      CMP      r0,#4
        0x00000fce:    d00d        ..      BEQ      0xfec ; am_hal_interrupt_enable + 60
        0x00000fd0:    2805        .(      CMP      r0,#5
        0x00000fd2:    bf04        ..      ITT      EQ
        0x00000fd4:    6808        .h      LDREQ    r0,[r1,#0]
        0x00000fd6:    f4403000    @..0    ORREQ    r0,r0,#0x20000
        0x00000fda:    d005        ..      BEQ      0xfe8 ; am_hal_interrupt_enable + 56
        0x00000fdc:    2806        .(      CMP      r0,#6
        0x00000fde:    bf06        ..      ITTE     EQ
        0x00000fe0:    6808        .h      LDREQ    r0,[r1,#0]
        0x00000fe2:    f4402080    @..     ORREQ    r0,r0,#0x40000
        0x00000fe6:    4770        pG      BXNE     lr
        0x00000fe8:    6008        .`      STR      r0,[r1,#0]
        0x00000fea:    4770        pG      BX       lr
        0x00000fec:    6808        .h      LDR      r0,[r1,#0]
        0x00000fee:    f4403080    @..0    ORR      r0,r0,#0x10000
        0x00000ff2:    6008        .`      STR      r0,[r1,#0]
        0x00000ff4:    4770        pG      BX       lr
    $d
        0x00000ff6:    0000        ..      DCW    0
        0x00000ff8:    e000ed24    $...    DCD    3758157092
    $t
    i.am_hal_interrupt_priority_set
    am_hal_interrupt_priority_set
        0x00000ffc:    4a0b        .J      LDR      r2,[pc,#44] ; [0x102c] = 0xe000e400
        0x00000ffe:    3810        .8      SUBS     r0,r0,#0x10
        0x00001000:    f0200303     ...    BIC      r3,r0,#3
        0x00001004:    441a        .D      ADD      r2,r2,r3
        0x00001006:    0780        ..      LSLS     r0,r0,#30
        0x00001008:    6813        .h      LDR      r3,[r2,#0]
        0x0000100a:    b081        ..      SUB      sp,sp,#4
        0x0000100c:    0ec0        ..      LSRS     r0,r0,#27
        0x0000100e:    9300        ..      STR      r3,[sp,#0]
        0x00001010:    23ff        .#      MOVS     r3,#0xff
        0x00001012:    4083        .@      LSLS     r3,r3,r0
        0x00001014:    f8ddc000    ....    LDR      r12,[sp,#0]
        0x00001018:    fa01f000    ....    LSL      r0,r1,r0
        0x0000101c:    ea2c0303    ,...    BIC      r3,r12,r3
        0x00001020:    4318        .C      ORRS     r0,r0,r3
        0x00001022:    9300        ..      STR      r3,[sp,#0]
        0x00001024:    6010        .`      STR      r0,[r2,#0]
        0x00001026:    b001        ..      ADD      sp,sp,#4
        0x00001028:    4770        pG      BX       lr
    $d
        0x0000102a:    0000        ..      DCW    0
        0x0000102c:    e000e400    ....    DCD    3758154752
    $t
    i.am_hal_itm_disable
    am_hal_itm_disable
        0x00001030:    4811        .H      LDR      r0,[pc,#68] ; [0x1078] = 0x1000008c
        0x00001032:    6800        .h      LDR      r0,[r0,#0]
        0x00001034:    f0100f01    ....    TST      r0,#1
        0x00001038:    bf18        ..      IT       NE
        0x0000103a:    4770        pG      BXNE     lr
        0x0000103c:    480f        .H      LDR      r0,[pc,#60] ; [0x107c] = 0xc5acce55
        0x0000103e:    4910        .I      LDR      r1,[pc,#64] ; [0x1080] = 0xe0000fb0
        0x00001040:    6008        .`      STR      r0,[r1,#0]
        0x00001042:    4810        .H      LDR      r0,[pc,#64] ; [0x1084] = 0xe0000e80
        0x00001044:    6801        .h      LDR      r1,[r0,#0]
        0x00001046:    f4110f00    ....    TST      r1,#0x800000
        0x0000104a:    d1fb        ..      BNE      0x1044 ; am_hal_itm_disable + 20
        0x0000104c:    490e        .I      LDR      r1,[pc,#56] ; [0x1088] = 0x800001
        0x0000104e:    2300        .#      MOVS     r3,#0
        0x00001050:    6802        .h      LDR      r2,[r0,#0]
        0x00001052:    f0220201    "...    BIC      r2,r2,#1
        0x00001056:    6002        .`      STR      r2,[r0,#0]
        0x00001058:    6802        .h      LDR      r2,[r0,#0]
        0x0000105a:    420a        .B      TST      r2,r1
        0x0000105c:    d1fc        ..      BNE      0x1058 ; am_hal_itm_disable + 40
        0x0000105e:    1c5b        [.      ADDS     r3,r3,#1
        0x00001060:    2b64        d+      CMP      r3,#0x64
        0x00001062:    dbf5        ..      BLT      0x1050 ; am_hal_itm_disable + 32
        0x00001064:    4809        .H      LDR      r0,[pc,#36] ; [0x108c] = 0xe000edfc
        0x00001066:    6801        .h      LDR      r1,[r0,#0]
        0x00001068:    f0217180    !..q    BIC      r1,r1,#0x1000000
        0x0000106c:    6001        .`      STR      r1,[r0,#0]
        0x0000106e:    4908        .I      LDR      r1,[pc,#32] ; [0x1090] = 0x40020000
        0x00001070:    2000        .       MOVS     r0,#0
        0x00001072:    f8c10250    ..P.    STR      r0,[r1,#0x250]
        0x00001076:    4770        pG      BX       lr
    $d
        0x00001078:    1000008c    ....    DCD    268435596
        0x0000107c:    c5acce55    U...    DCD    3316436565
        0x00001080:    e0000fb0    ....    DCD    3758100400
        0x00001084:    e0000e80    ....    DCD    3758100096
        0x00001088:    00800001    ....    DCD    8388609
        0x0000108c:    e000edfc    ....    DCD    3758157308
        0x00001090:    40020000    ...@    DCD    1073872896
    $t
    i.am_hal_itm_enable
    am_hal_itm_enable
        0x00001094:    480d        .H      LDR      r0,[pc,#52] ; [0x10cc] = 0x1000008c
        0x00001096:    6800        .h      LDR      r0,[r0,#0]
        0x00001098:    f0100f01    ....    TST      r0,#1
        0x0000109c:    bf18        ..      IT       NE
        0x0000109e:    4770        pG      BXNE     lr
        0x000010a0:    480b        .H      LDR      r0,[pc,#44] ; [0x10d0] = 0xe000edfc
        0x000010a2:    6801        .h      LDR      r1,[r0,#0]
        0x000010a4:    f0417180    A..q    ORR      r1,r1,#0x1000000
        0x000010a8:    6001        .`      STR      r1,[r0,#0]
        0x000010aa:    6801        .h      LDR      r1,[r0,#0]
        0x000010ac:    f0117f80    ....    TST      r1,#0x1000000
        0x000010b0:    d0fb        ..      BEQ      0x10aa ; am_hal_itm_enable + 22
        0x000010b2:    4909        .I      LDR      r1,[pc,#36] ; [0x10d8] = 0xe0000fb0
        0x000010b4:    4807        .H      LDR      r0,[pc,#28] ; [0x10d4] = 0xc5acce55
        0x000010b6:    6008        .`      STR      r0,[r1,#0]
        0x000010b8:    4908        .I      LDR      r1,[pc,#32] ; [0x10dc] = 0xe0000e40
        0x000010ba:    200f        .       MOVS     r0,#0xf
        0x000010bc:    6008        .`      STR      r0,[r1,#0]
        0x000010be:    1748        H.      ASRS     r0,r1,#29
        0x000010c0:    4907        .I      LDR      r1,[pc,#28] ; [0x10e0] = 0xe0000e00
        0x000010c2:    6008        .`      STR      r0,[r1,#0]
        0x000010c4:    4908        .I      LDR      r1,[pc,#32] ; [0x10e8] = 0xe0000e80
        0x000010c6:    4807        .H      LDR      r0,[pc,#28] ; [0x10e4] = 0x150511
        0x000010c8:    6008        .`      STR      r0,[r1,#0]
        0x000010ca:    4770        pG      BX       lr
    $d
        0x000010cc:    1000008c    ....    DCD    268435596
        0x000010d0:    e000edfc    ....    DCD    3758157308
        0x000010d4:    c5acce55    U...    DCD    3316436565
        0x000010d8:    e0000fb0    ....    DCD    3758100400
        0x000010dc:    e0000e40    @...    DCD    3758100032
        0x000010e0:    e0000e00    ....    DCD    3758099968
        0x000010e4:    00150511    ....    DCD    1377553
        0x000010e8:    e0000e80    ....    DCD    3758100096
    $t
    i.am_hal_itm_not_busy
    am_hal_itm_not_busy
        0x000010ec:    b510        ..      PUSH     {r4,lr}
        0x000010ee:    4808        .H      LDR      r0,[pc,#32] ; [0x1110] = 0xe0000e80
        0x000010f0:    6801        .h      LDR      r1,[r0,#0]
        0x000010f2:    f4110f00    ....    TST      r1,#0x800000
        0x000010f6:    d1fb        ..      BNE      0x10f0 ; am_hal_itm_not_busy + 4
        0x000010f8:    f7fffce8    ....    BL       am_hal_clkgen_sysclk_get ; 0xacc
        0x000010fc:    4905        .I      LDR      r1,[pc,#20] ; [0x1114] = 0x2dc6c0
        0x000010fe:    e8bd4010    ...@    POP      {r4,lr}
        0x00001102:    fbb0f0f1    ....    UDIV     r0,r0,r1
        0x00001106:    2132        2!      MOVS     r1,#0x32
        0x00001108:    4348        HC      MULS     r0,r1,r0
        0x0000110a:    f7ffb899    ....    B        am_hal_flash_delay ; 0x240
    $d
        0x0000110e:    0000        ..      DCW    0
        0x00001110:    e0000e80    ....    DCD    3758100096
        0x00001114:    002dc6c0    ..-.    DCD    3000000
    $t
    i.am_hal_itm_print
    am_hal_itm_print
        0x00001118:    7802        .x      LDRB     r2,[r0,#0]
        0x0000111a:    2100        .!      MOVS     r1,#0
        0x0000111c:    2a00        .*      CMP      r2,#0
        0x0000111e:    bf08        ..      IT       EQ
        0x00001120:    4770        pG      BXEQ     lr
        0x00001122:    1c49        I.      ADDS     r1,r1,#1
        0x00001124:    5c42        B\      LDRB     r2,[r0,r1]
        0x00001126:    2a00        .*      CMP      r2,#0
        0x00001128:    d1fb        ..      BNE      0x1122 ; am_hal_itm_print + 10
        0x0000112a:    2900        .)      CMP      r1,#0
        0x0000112c:    bf08        ..      IT       EQ
        0x0000112e:    4770        pG      BXEQ     lr
        0x00001130:    f810cb01    ....    LDRB     r12,[r0],#1
        0x00001134:    f04f4260    O.`B    MOV      r2,#0xe0000000
        0x00001138:    6813        .h      LDR      r3,[r2,#0]
        0x0000113a:    2b00        .+      CMP      r3,#0
        0x0000113c:    d0fc        ..      BEQ      0x1138 ; am_hal_itm_print + 32
        0x0000113e:    f882c000    ....    STRB     r12,[r2,#0]
        0x00001142:    1e49        I.      SUBS     r1,r1,#1
        0x00001144:    d1f4        ..      BNE      0x1130 ; am_hal_itm_print + 24
        0x00001146:    4770        pG      BX       lr
    i.am_hal_mcuctrl_bandgap_disable
    am_hal_mcuctrl_bandgap_disable
        0x00001148:    4902        .I      LDR      r1,[pc,#8] ; [0x1154] = 0x40020000
        0x0000114a:    f06f0001    o...    MVN      r0,#1
        0x0000114e:    f8c100fc    ....    STR      r0,[r1,#0xfc]
        0x00001152:    4770        pG      BX       lr
    $d
        0x00001154:    40020000    ...@    DCD    1073872896
    $t
    i.am_hal_mcuctrl_bucks_enable
    am_hal_mcuctrl_bucks_enable
        0x00001158:    4808        .H      LDR      r0,[pc,#32] ; [0x117c] = 0x40020000
        0x0000115a:    6901        .i      LDR      r1,[r0,#0x10]
        0x0000115c:    f0410102    A...    ORR      r1,r1,#2
        0x00001160:    6101        .a      STR      r1,[r0,#0x10]
        0x00001162:    6901        .i      LDR      r1,[r0,#0x10]
        0x00001164:    f0410101    A...    ORR      r1,r1,#1
        0x00001168:    6101        .a      STR      r1,[r0,#0x10]
        0x0000116a:    6941        Ai      LDR      r1,[r0,#0x14]
        0x0000116c:    f0110f02    ....    TST      r1,#2
        0x00001170:    d0fb        ..      BEQ      0x116a ; am_hal_mcuctrl_bucks_enable + 18
        0x00001172:    6941        Ai      LDR      r1,[r0,#0x14]
        0x00001174:    f0110f01    ....    TST      r1,#1
        0x00001178:    d0fb        ..      BEQ      0x1172 ; am_hal_mcuctrl_bucks_enable + 26
        0x0000117a:    4770        pG      BX       lr
    $d
        0x0000117c:    40020000    ...@    DCD    1073872896
    $t
    i.am_hal_mcuctrl_fault_status
    am_hal_mcuctrl_fault_status
        0x00001180:    490c        .I      LDR      r1,[pc,#48] ; [0x11b4] = 0x40020000
        0x00001182:    f8d121cc    ...!    LDR      r2,[r1,#0x1cc]
        0x00001186:    f0020301    ....    AND      r3,r2,#1
        0x0000118a:    7003        .p      STRB     r3,[r0,#0]
        0x0000118c:    f3c20340    ..@.    UBFX     r3,r2,#1,#1
        0x00001190:    7203        .r      STRB     r3,[r0,#8]
        0x00001192:    f3c20280    ....    UBFX     r2,r2,#2,#1
        0x00001196:    7402        .t      STRB     r2,[r0,#0x10]
        0x00001198:    f8d121c4    ...!    LDR      r2,[r1,#0x1c4]
        0x0000119c:    60c2        .`      STR      r2,[r0,#0xc]
        0x0000119e:    6842        Bh      LDR      r2,[r0,#4]
        0x000011a0:    f8d131c0    ...1    LDR      r3,[r1,#0x1c0]
        0x000011a4:    431a        .C      ORRS     r2,r2,r3
        0x000011a6:    6042        B`      STR      r2,[r0,#4]
        0x000011a8:    6942        Bi      LDR      r2,[r0,#0x14]
        0x000011aa:    f8d111c8    ....    LDR      r1,[r1,#0x1c8]
        0x000011ae:    4311        .C      ORRS     r1,r1,r2
        0x000011b0:    6141        Aa      STR      r1,[r0,#0x14]
        0x000011b2:    4770        pG      BX       lr
    $d
        0x000011b4:    40020000    ...@    DCD    1073872896
    $t
    i.am_hal_mcuctrl_flash_power_set
    am_hal_mcuctrl_flash_power_set
        0x000011b8:    4901        .I      LDR      r1,[pc,#4] ; [0x11c0] = 0x40020000
        0x000011ba:    f8c10148    ..H.    STR      r0,[r1,#0x148]
        0x000011be:    4770        pG      BX       lr
    $d
        0x000011c0:    40020000    ...@    DCD    1073872896
    $t
    i.am_hal_mcuctrl_sram_power_set
    am_hal_mcuctrl_sram_power_set
        0x000011c4:    4a02        .J      LDR      r2,[pc,#8] ; [0x11d0] = 0x40020000
        0x000011c6:    f8c20144    ..D.    STR      r0,[r2,#0x144]
        0x000011ca:    f8c21140    ..@.    STR      r1,[r2,#0x140]
        0x000011ce:    4770        pG      BX       lr
    $d
        0x000011d0:    40020000    ...@    DCD    1073872896
    $t
    i.am_hal_rtc_osc_disable
    am_hal_rtc_osc_disable
        0x000011d4:    f04f2040    O.@     MOV      r0,#0x40004000
        0x000011d8:    6d01        .m      LDR      r1,[r0,#0x50]
        0x000011da:    f0410110    A...    ORR      r1,r1,#0x10
        0x000011de:    6501        .e      STR      r1,[r0,#0x50]
        0x000011e0:    4770        pG      BX       lr
    i.am_hal_rtc_osc_select
    am_hal_rtc_osc_select
        0x000011e2:    f04f2140    O.@!    MOV      r1,#0x40004000
        0x000011e6:    2800        .(      CMP      r0,#0
        0x000011e8:    68c8        .h      LDR      r0,[r1,#0xc]
        0x000011ea:    bf14        ..      ITE      NE
        0x000011ec:    f0400080    @...    ORRNE    r0,r0,#0x80
        0x000011f0:    f0200080     ...    BICEQ    r0,r0,#0x80
        0x000011f4:    60c8        .`      STR      r0,[r1,#0xc]
        0x000011f6:    4770        pG      BX       lr
    i.am_hal_sysctrl_fpu_enable
    am_hal_sysctrl_fpu_enable
        0x000011f8:    4902        .I      LDR      r1,[pc,#8] ; [0x1204] = 0xe000ed88
        0x000011fa:    f44f0070    O.p.    MOV      r0,#0xf00000
        0x000011fe:    6008        .`      STR      r0,[r1,#0]
        0x00001200:    4770        pG      BX       lr
    $d
        0x00001202:    0000        ..      DCW    0
        0x00001204:    e000ed88    ....    DCD    3758157192
    $t
    i.am_hal_sysctrl_fpu_stacking_enable
    am_hal_sysctrl_fpu_stacking_enable
        0x00001208:    b538        8.      PUSH     {r3-r5,lr}
        0x0000120a:    4604        .F      MOV      r4,r0
        0x0000120c:    f7fff820    .. .    BL       am_hal_interrupt_master_disable ; 0x250
        0x00001210:    9000        ..      STR      r0,[sp,#0]
        0x00001212:    4808        .H      LDR      r0,[pc,#32] ; [0x1234] = 0xe000ef34
        0x00001214:    6801        .h      LDR      r1,[r0,#0]
        0x00001216:    2c00        .,      CMP      r4,#0
        0x00001218:    f0214140    !.@A    BIC      r1,r1,#0xc0000000
        0x0000121c:    bf14        ..      ITE      NE
        0x0000121e:    f04f4240    O.@B    MOVNE    r2,#0xc0000000
        0x00001222:    f04f4200    O..B    MOVEQ    r2,#0x80000000
        0x00001226:    4311        .C      ORRS     r1,r1,r2
        0x00001228:    6001        .`      STR      r1,[r0,#0]
        0x0000122a:    9800        ..      LDR      r0,[sp,#0]
        0x0000122c:    e8bd4038    ..8@    POP      {r3-r5,lr}
        0x00001230:    f7ffb812    ....    B        am_hal_interrupt_master_set ; 0x258
    $d
        0x00001234:    e000ef34    4...    DCD    3758157620
    $t
    i.am_hal_sysctrl_sleep
    am_hal_sysctrl_sleep
        0x00001238:    490a        .I      LDR      r1,[pc,#40] ; [0x1264] = 0xe000ed10
        0x0000123a:    b148        H.      CBZ      r0,0x1250 ; am_hal_sysctrl_sleep + 24
        0x0000123c:    480a        .H      LDR      r0,[pc,#40] ; [0x1268] = 0x40020000
        0x0000123e:    f8d00250    ..P.    LDR      r0,[r0,#0x250]
        0x00001242:    f0100f01    ....    TST      r0,#1
        0x00001246:    bf04        ..      ITT      EQ
        0x00001248:    6808        .h      LDREQ    r0,[r1,#0]
        0x0000124a:    f0400004    @...    ORREQ    r0,r0,#4
        0x0000124e:    d002        ..      BEQ      0x1256 ; am_hal_sysctrl_sleep + 30
        0x00001250:    6808        .h      LDR      r0,[r1,#0]
        0x00001252:    f0200004     ...    BIC      r0,r0,#4
        0x00001256:    6008        .`      STR      r0,[r1,#0]
        0x00001258:    f3bf8f4f    ..O.    DSB      
        0x0000125c:    bf30        0.      WFI      
        0x0000125e:    f3bf8f6f    ..o.    ISB      
        0x00001262:    4770        pG      BX       lr
    $d
        0x00001264:    e000ed10    ....    DCD    3758157072
        0x00001268:    40020000    ...@    DCD    1073872896
    $t
    i.am_hal_tpiu_disable
    am_hal_tpiu_disable
        0x0000126c:    4902        .I      LDR      r1,[pc,#8] ; [0x1278] = 0x40020000
        0x0000126e:    2000        .       MOVS     r0,#0
        0x00001270:    f8c10250    ..P.    STR      r0,[r1,#0x250]
        0x00001274:    4770        pG      BX       lr
    $d
        0x00001276:    0000        ..      DCW    0
        0x00001278:    40020000    ...@    DCD    1073872896
    $t
    i.am_hal_tpiu_enable
    am_hal_tpiu_enable
        0x0000127c:    e92d41f0    -..A    PUSH     {r4-r8,lr}
        0x00001280:    4c1e        .L      LDR      r4,[pc,#120] ; [0x12fc] = 0xe0040000
        0x00001282:    2600        .&      MOVS     r6,#0
        0x00001284:    6805        .h      LDR      r5,[r0,#0]
        0x00001286:    f8c46304    ...c    STR      r6,[r4,#0x304]
        0x0000128a:    4f1d        .O      LDR      r7,[pc,#116] ; [0x1300] = 0xe0040f00
        0x0000128c:    f8df8074    ..t.    LDR      r8,[pc,#116] ; [0x1304] = 0x40020000
        0x00001290:    2101        .!      MOVS     r1,#1
        0x00001292:    b335        5.      CBZ      r5,0x12e2 ; am_hal_tpiu_enable + 102
        0x00001294:    6061        a`      STR      r1,[r4,#4]
        0x00001296:    491c        .I      LDR      r1,[pc,#112] ; [0x1308] = 0x1da381
        0x00001298:    f5a54061    ..a@    SUB      r0,r5,#0xe100
        0x0000129c:    4288        .B      CMP      r0,r1
        0x0000129e:    bf28        (.      IT       CS
        0x000012a0:    4d1a        .M      LDRCS    r5,[pc,#104] ; [0x130c] = 0xf4240
        0x000012a2:    f7fffc13    ....    BL       am_hal_clkgen_sysclk_get ; 0xacc
        0x000012a6:    f1b03fff    ...?    CMP      r0,#0xffffffff
        0x000012aa:    bf1d        ..      ITTTE    NE
        0x000012ac:    08c0        ..      LSRNE    r0,r0,#3
        0x000012ae:    fbb0f0f5    ....    UDIVNE   r0,r0,r5
        0x000012b2:    1e40        @.      SUBNE    r0,r0,#1
        0x000012b4:    2002        .       MOVEQ    r0,#2
        0x000012b6:    b280        ..      UXTH     r0,r0
        0x000012b8:    6120         a      STR      r0,[r4,#0x10]
        0x000012ba:    2002        .       MOVS     r0,#2
        0x000012bc:    f8c400f0    ....    STR      r0,[r4,#0xf0]
        0x000012c0:    603e        >`      STR      r6,[r7,#0]
        0x000012c2:    f2402001    @..     MOV      r0,#0x201
        0x000012c6:    bf00        ..      NOP      
        0x000012c8:    f8c80250    ..P.    STR      r0,[r8,#0x250]
        0x000012cc:    f7fffbfe    ....    BL       am_hal_clkgen_sysclk_get ; 0xacc
        0x000012d0:    490f        .I      LDR      r1,[pc,#60] ; [0x1310] = 0x2dc6c0
        0x000012d2:    e8bd41f0    ...A    POP      {r4-r8,lr}
        0x000012d6:    fbb0f0f1    ....    UDIV     r0,r0,r1
        0x000012da:    2132        2!      MOVS     r1,#0x32
        0x000012dc:    4348        HC      MULS     r0,r1,r0
        0x000012de:    f7febfaf    ....    B        am_hal_flash_delay ; 0x240
        0x000012e2:    6902        .i      LDR      r2,[r0,#0x10]
        0x000012e4:    6122        "a      STR      r2,[r4,#0x10]
        0x000012e6:    6882        .h      LDR      r2,[r0,#8]
        0x000012e8:    f8c420f0    ...     STR      r2,[r4,#0xf0]
        0x000012ec:    7b02        .{      LDRB     r2,[r0,#0xc]
        0x000012ee:    1e52        R.      SUBS     r2,r2,#1
        0x000012f0:    4091        .@      LSLS     r1,r1,r2
        0x000012f2:    6061        a`      STR      r1,[r4,#4]
        0x000012f4:    603e        >`      STR      r6,[r7,#0]
        0x000012f6:    6840        @h      LDR      r0,[r0,#4]
        0x000012f8:    e7e6        ..      B        0x12c8 ; am_hal_tpiu_enable + 76
    $d
        0x000012fa:    0000        ..      DCW    0
        0x000012fc:    e0040000    ....    DCD    3758358528
        0x00001300:    e0040f00    ....    DCD    3758362368
        0x00001304:    40020000    ...@    DCD    1073872896
        0x00001308:    001da381    ....    DCD    1942401
        0x0000130c:    000f4240    @B..    DCD    1000000
        0x00001310:    002dc6c0    ..-.    DCD    3000000
    $t
    i.am_hal_vcomp_disable
    am_hal_vcomp_disable
        0x00001314:    4901        .I      LDR      r1,[pc,#4] ; [0x131c] = 0x4000c000
        0x00001316:    2037        7       MOVS     r0,#0x37
        0x00001318:    6088        .`      STR      r0,[r1,#8]
        0x0000131a:    4770        pG      BX       lr
    $d
        0x0000131c:    4000c000    ...@    DCD    1073790976
    $t
    i.am_systick_isr
    am_systick_isr
        0x00001320:    b510        ..      PUSH     {r4,lr}
        0x00001322:    bf00        ..      NOP      
        0x00001324:    2080        .       MOVS     r0,#0x80
        0x00001326:    f3808811    ....    MSR      BASEPRI,r0
        0x0000132a:    f3bf8f4f    ..O.    DSB      
        0x0000132e:    f3bf8f6f    ..o.    ISB      
        0x00001332:    bf00        ..      NOP      
        0x00001334:    f002fa02    ....    BL       xTaskIncrementTick ; 0x373c
        0x00001338:    b118        ..      CBZ      r0,0x1342 ; am_systick_isr + 34
        0x0000133a:    f04f5080    O..P    MOV      r0,#0x10000000
        0x0000133e:    4904        .I      LDR      r1,[pc,#16] ; [0x1350] = 0xe000ed04
        0x00001340:    6008        .`      STR      r0,[r1,#0]
        0x00001342:    bf00        ..      NOP      
        0x00001344:    2000        .       MOVS     r0,#0
        0x00001346:    f3808811    ....    MSR      BASEPRI,r0
        0x0000134a:    bf00        ..      NOP      
        0x0000134c:    bd10        ..      POP      {r4,pc}
    $d
        0x0000134e:    0000        ..      DCW    0
        0x00001350:    e000ed04    ....    DCD    3758157060
    $t
    i.am_util_delay_ms
    am_util_delay_ms
        0x00001354:    b570        p.      PUSH     {r4-r6,lr}
        0x00001356:    4604        .F      MOV      r4,r0
        0x00001358:    f7fffbb8    ....    BL       am_hal_clkgen_sysclk_get ; 0xacc
        0x0000135c:    4606        .F      MOV      r6,r0
        0x0000135e:    f64030b8    @..0    MOV      r0,#0xbb8
        0x00001362:    fbb6f0f0    ....    UDIV     r0,r6,r0
        0x00001366:    fb00f504    ....    MUL      r5,r0,r4
        0x0000136a:    4628        (F      MOV      r0,r5
        0x0000136c:    f7feff68    ..h.    BL       am_hal_flash_delay ; 0x240
        0x00001370:    bd70        p.      POP      {r4-r6,pc}
        0x00001372:    0000        ..      MOVS     r0,r0
    i.am_util_faultisr_collect_data
    am_util_faultisr_collect_data
        0x00001374:    b092        ..      SUB      sp,sp,#0x48
        0x00001376:    4604        .F      MOV      r4,r0
        0x00001378:    2118        .!      MOVS     r1,#0x18
        0x0000137a:    4668        hF      MOV      r0,sp
        0x0000137c:    f7feffc9    ....    BL       __aeabi_memclr4 ; 0x312
        0x00001380:    2500        .%      MOVS     r5,#0
        0x00001382:    9510        ..      STR      r5,[sp,#0x40]
        0x00001384:    4828        (H      LDR      r0,[pc,#160] ; [0x1428] = 0xe000ed28
        0x00001386:    6800        .h      LDR      r0,[r0,#0]
        0x00001388:    9010        ..      STR      r0,[sp,#0x40]
        0x0000138a:    9810        ..      LDR      r0,[sp,#0x40]
        0x0000138c:    b2c0        ..      UXTB     r0,r0
        0x0000138e:    f88d0044    ..D.    STRB     r0,[sp,#0x44]
        0x00001392:    9810        ..      LDR      r0,[sp,#0x40]
        0x00001394:    0a00        ..      LSRS     r0,r0,#8
        0x00001396:    f88d0045    ..E.    STRB     r0,[sp,#0x45]
        0x0000139a:    9810        ..      LDR      r0,[sp,#0x40]
        0x0000139c:    f64f71ff    O..q    MOV      r1,#0xffff
        0x000013a0:    ea014010    ...@    AND      r0,r1,r0,LSR #16
        0x000013a4:    f8ad0046    ..F.    STRH     r0,[sp,#0x46]
        0x000013a8:    481f        .H      LDR      r0,[pc,#124] ; [0x1428] = 0xe000ed28
        0x000013aa:    3010        .0      ADDS     r0,r0,#0x10
        0x000013ac:    6800        .h      LDR      r0,[r0,#0]
        0x000013ae:    900f        ..      STR      r0,[sp,#0x3c]
        0x000013b0:    f89d0045    ..E.    LDRB     r0,[sp,#0x45]
        0x000013b4:    f0000002    ....    AND      r0,r0,#2
        0x000013b8:    b120         .      CBZ      r0,0x13c4 ; am_util_faultisr_collect_data + 80
        0x000013ba:    4621        !F      MOV      r1,r4
        0x000013bc:    2006        .       MOVS     r0,#6
        0x000013be:    f7feff28    ..(.    BL       getStackedReg ; 0x212
        0x000013c2:    e001        ..      B        0x13c8 ; am_util_faultisr_collect_data + 84
        0x000013c4:    f04f30ff    O..0    MOV      r0,#0xffffffff
        0x000013c8:    900e        ..      STR      r0,[sp,#0x38]
        0x000013ca:    4621        !F      MOV      r1,r4
        0x000013cc:    2000        .       MOVS     r0,#0
        0x000013ce:    f7feff20    .. .    BL       getStackedReg ; 0x212
        0x000013d2:    9006        ..      STR      r0,[sp,#0x18]
        0x000013d4:    4621        !F      MOV      r1,r4
        0x000013d6:    2001        .       MOVS     r0,#1
        0x000013d8:    f7feff1b    ....    BL       getStackedReg ; 0x212
        0x000013dc:    9007        ..      STR      r0,[sp,#0x1c]
        0x000013de:    4621        !F      MOV      r1,r4
        0x000013e0:    2002        .       MOVS     r0,#2
        0x000013e2:    f7feff16    ....    BL       getStackedReg ; 0x212
        0x000013e6:    9008        ..      STR      r0,[sp,#0x20]
        0x000013e8:    4621        !F      MOV      r1,r4
        0x000013ea:    2003        .       MOVS     r0,#3
        0x000013ec:    f7feff11    ....    BL       getStackedReg ; 0x212
        0x000013f0:    9009        ..      STR      r0,[sp,#0x24]
        0x000013f2:    4621        !F      MOV      r1,r4
        0x000013f4:    2004        .       MOVS     r0,#4
        0x000013f6:    f7feff0c    ....    BL       getStackedReg ; 0x212
        0x000013fa:    900a        ..      STR      r0,[sp,#0x28]
        0x000013fc:    4621        !F      MOV      r1,r4
        0x000013fe:    2005        .       MOVS     r0,#5
        0x00001400:    f7feff07    ....    BL       getStackedReg ; 0x212
        0x00001404:    900b        ..      STR      r0,[sp,#0x2c]
        0x00001406:    4621        !F      MOV      r1,r4
        0x00001408:    2006        .       MOVS     r0,#6
        0x0000140a:    f7feff02    ....    BL       getStackedReg ; 0x212
        0x0000140e:    900c        ..      STR      r0,[sp,#0x30]
        0x00001410:    4621        !F      MOV      r1,r4
        0x00001412:    2007        .       MOVS     r0,#7
        0x00001414:    f7fefefd    ....    BL       getStackedReg ; 0x212
        0x00001418:    900d        ..      STR      r0,[sp,#0x34]
        0x0000141a:    4668        hF      MOV      r0,sp
        0x0000141c:    f7fffeb0    ....    BL       am_hal_mcuctrl_fault_status ; 0x1180
        0x00001420:    bf00        ..      NOP      
        0x00001422:    bf00        ..      NOP      
        0x00001424:    e7fe        ..      B        0x1424 ; am_util_faultisr_collect_data + 176
    $d
        0x00001426:    0000        ..      DCW    0
        0x00001428:    e000ed28    (...    DCD    3758157096
    $t
    i.am_util_stdio_printf
    am_util_stdio_printf
        0x0000142c:    b40f        ..      PUSH     {r0-r3}
        0x0000142e:    b538        8.      PUSH     {r3-r5,lr}
        0x00001430:    480b        .H      LDR      r0,[pc,#44] ; [0x1460] = 0x10000084
        0x00001432:    6800        .h      LDR      r0,[r0,#0]
        0x00001434:    b918        ..      CBNZ     r0,0x143e ; am_util_stdio_printf + 18
        0x00001436:    2000        .       MOVS     r0,#0
        0x00001438:    bc38        8.      POP      {r3-r5}
        0x0000143a:    f85dfb14    ]...    LDR      pc,[sp],#0x14
        0x0000143e:    a805        ..      ADD      r0,sp,#0x14
        0x00001440:    9000        ..      STR      r0,[sp,#0]
        0x00001442:    4808        .H      LDR      r0,[pc,#32] ; [0x1464] = 0x10004180
        0x00001444:    9a00        ..      LDR      r2,[sp,#0]
        0x00001446:    9904        ..      LDR      r1,[sp,#0x10]
        0x00001448:    f000f824    ..$.    BL       am_util_stdio_vsprintf ; 0x1494
        0x0000144c:    4604        .F      MOV      r4,r0
        0x0000144e:    2000        .       MOVS     r0,#0
        0x00001450:    9000        ..      STR      r0,[sp,#0]
        0x00001452:    4804        .H      LDR      r0,[pc,#16] ; [0x1464] = 0x10004180
        0x00001454:    4902        .I      LDR      r1,[pc,#8] ; [0x1460] = 0x10000084
        0x00001456:    6809        .h      LDR      r1,[r1,#0]
        0x00001458:    4788        .G      BLX      r1
        0x0000145a:    4620         F      MOV      r0,r4
        0x0000145c:    e7ec        ..      B        0x1438 ; am_util_stdio_printf + 12
    $d
        0x0000145e:    0000        ..      DCW    0
        0x00001460:    10000084    ....    DCD    268435588
        0x00001464:    10004180    .A..    DCD    268452224
    $t
    i.am_util_stdio_printf_init
    am_util_stdio_printf_init
        0x00001468:    4901        .I      LDR      r1,[pc,#4] ; [0x1470] = 0x10000084
        0x0000146a:    6008        .`      STR      r0,[r1,#0]
        0x0000146c:    4770        pG      BX       lr
    $d
        0x0000146e:    0000        ..      DCW    0
        0x00001470:    10000084    ....    DCD    268435588
    $t
    i.am_util_stdio_terminal_clear
    am_util_stdio_terminal_clear
        0x00001474:    b510        ..      PUSH     {r4,lr}
        0x00001476:    a002        ..      ADR      r0,{pc}+0xa ; 0x1480
        0x00001478:    f7ffffd8    ....    BL       am_util_stdio_printf ; 0x142c
        0x0000147c:    bd10        ..      POP      {r4,pc}
    $d
        0x0000147e:    0000        ..      DCW    0
        0x00001480:    0a0a0a0a    ....    DCD    168430090
        0x00001484:    0a0a0a0a    ....    DCD    168430090
        0x00001488:    0a0a0a0a    ....    DCD    168430090
        0x0000148c:    0a0a0a0a    ....    DCD    168430090
        0x00001490:    00000a0a    ....    DCD    2570
    $t
    i.am_util_stdio_vsprintf
    am_util_stdio_vsprintf
        0x00001494:    e92d4ff7    -..O    PUSH     {r0-r2,r4-r11,lr}
        0x00001498:    ed2d8b02    -...    VPUSH    {d8}
        0x0000149c:    b08a        ..      SUB      sp,sp,#0x28
        0x0000149e:    4604        .F      MOV      r4,r0
        0x000014a0:    460d        .F      MOV      r5,r1
        0x000014a2:    f04f0900    O...    MOV      r9,#0
        0x000014a6:    2000        .       MOVS     r0,#0
        0x000014a8:    9000        ..      STR      r0,[sp,#0]
        0x000014aa:    e1b9        ..      B        0x1820 ; am_util_stdio_vsprintf + 908
        0x000014ac:    2006        .       MOVS     r0,#6
        0x000014ae:    9006        ..      STR      r0,[sp,#0x18]
        0x000014b0:    7828        (x      LDRB     r0,[r5,#0]
        0x000014b2:    2825        %(      CMP      r0,#0x25
        0x000014b4:    d012        ..      BEQ      0x14dc ; am_util_stdio_vsprintf + 72
        0x000014b6:    b16c        l.      CBZ      r4,0x14d4 ; am_util_stdio_vsprintf + 64
        0x000014b8:    7828        (x      LDRB     r0,[r5,#0]
        0x000014ba:    280a        .(      CMP      r0,#0xa
        0x000014bc:    d107        ..      BNE      0x14ce ; am_util_stdio_vsprintf + 58
        0x000014be:    48de        .H      LDR      r0,[pc,#888] ; [0x1838] = 0x10000088
        0x000014c0:    7800        .x      LDRB     r0,[r0,#0]
        0x000014c2:    b120         .      CBZ      r0,0x14ce ; am_util_stdio_vsprintf + 58
        0x000014c4:    200d        .       MOVS     r0,#0xd
        0x000014c6:    f8040b01    ....    STRB     r0,[r4],#1
        0x000014ca:    f1090901    ....    ADD      r9,r9,#1
        0x000014ce:    7828        (x      LDRB     r0,[r5,#0]
        0x000014d0:    f8040b01    ....    STRB     r0,[r4],#1
        0x000014d4:    1c6d        m.      ADDS     r5,r5,#1
        0x000014d6:    f1090901    ....    ADD      r9,r9,#1
        0x000014da:    e1a1        ..      B        0x1820 ; am_util_stdio_vsprintf + 908
        0x000014dc:    1c6d        m.      ADDS     r5,r5,#1
        0x000014de:    2000        .       MOVS     r0,#0
        0x000014e0:    9002        ..      STR      r0,[sp,#8]
        0x000014e2:    9003        ..      STR      r0,[sp,#0xc]
        0x000014e4:    2020                MOVS     r0,#0x20
        0x000014e6:    9004        ..      STR      r0,[sp,#0x10]
        0x000014e8:    7828        (x      LDRB     r0,[r5,#0]
        0x000014ea:    2830        0(      CMP      r0,#0x30
        0x000014ec:    d101        ..      BNE      0x14f2 ; am_util_stdio_vsprintf + 94
        0x000014ee:    9004        ..      STR      r0,[sp,#0x10]
        0x000014f0:    1c6d        m.      ADDS     r5,r5,#1
        0x000014f2:    a907        ..      ADD      r1,sp,#0x1c
        0x000014f4:    4628        (F      MOV      r0,r5
        0x000014f6:    f000fa09    ....    BL       decstr_to_int ; 0x190c
        0x000014fa:    4606        .F      MOV      r6,r0
        0x000014fc:    9807        ..      LDR      r0,[sp,#0x1c]
        0x000014fe:    4405        .D      ADD      r5,r5,r0
        0x00001500:    7828        (x      LDRB     r0,[r5,#0]
        0x00001502:    2873        s(      CMP      r0,#0x73
        0x00001504:    d002        ..      BEQ      0x150c ; am_util_stdio_vsprintf + 120
        0x00001506:    2e00        ..      CMP      r6,#0
        0x00001508:    da00        ..      BGE      0x150c ; am_util_stdio_vsprintf + 120
        0x0000150a:    4276        vB      RSBS     r6,r6,#0
        0x0000150c:    7828        (x      LDRB     r0,[r5,#0]
        0x0000150e:    282e        .(      CMP      r0,#0x2e
        0x00001510:    d107        ..      BNE      0x1522 ; am_util_stdio_vsprintf + 142
        0x00001512:    1c6d        m.      ADDS     r5,r5,#1
        0x00001514:    a907        ..      ADD      r1,sp,#0x1c
        0x00001516:    4628        (F      MOV      r0,r5
        0x00001518:    f000f9f8    ....    BL       decstr_to_int ; 0x190c
        0x0000151c:    9006        ..      STR      r0,[sp,#0x18]
        0x0000151e:    9807        ..      LDR      r0,[sp,#0x1c]
        0x00001520:    4405        .D      ADD      r5,r5,r0
        0x00001522:    7828        (x      LDRB     r0,[r5,#0]
        0x00001524:    286c        l(      CMP      r0,#0x6c
        0x00001526:    d106        ..      BNE      0x1536 ; am_util_stdio_vsprintf + 162
        0x00001528:    1c6d        m.      ADDS     r5,r5,#1
        0x0000152a:    7828        (x      LDRB     r0,[r5,#0]
        0x0000152c:    286c        l(      CMP      r0,#0x6c
        0x0000152e:    d102        ..      BNE      0x1536 ; am_util_stdio_vsprintf + 162
        0x00001530:    1c6d        m.      ADDS     r5,r5,#1
        0x00001532:    2001        .       MOVS     r0,#1
        0x00001534:    9002        ..      STR      r0,[sp,#8]
        0x00001536:    7828        (x      LDRB     r0,[r5,#0]
        0x00001538:    2866        f(      CMP      r0,#0x66
        0x0000153a:    d06f        o.      BEQ      0x161c ; am_util_stdio_vsprintf + 392
        0x0000153c:    dc08        ..      BGT      0x1550 ; am_util_stdio_vsprintf + 188
        0x0000153e:    2846        F(      CMP      r0,#0x46
        0x00001540:    d06d        m.      BEQ      0x161e ; am_util_stdio_vsprintf + 394
        0x00001542:    2858        X(      CMP      r0,#0x58
        0x00001544:    d05c        \.      BEQ      0x1600 ; am_util_stdio_vsprintf + 364
        0x00001546:    2863        c(      CMP      r0,#0x63
        0x00001548:    d00b        ..      BEQ      0x1562 ; am_util_stdio_vsprintf + 206
        0x0000154a:    2864        d(      CMP      r0,#0x64
        0x0000154c:    d168        h.      BNE      0x1620 ; am_util_stdio_vsprintf + 396
        0x0000154e:    e0c3        ..      B        0x16d8 ; am_util_stdio_vsprintf + 580
        0x00001550:    2869        i(      CMP      r0,#0x69
        0x00001552:    d07d        }.      BEQ      0x1650 ; am_util_stdio_vsprintf + 444
        0x00001554:    2873        s(      CMP      r0,#0x73
        0x00001556:    d011        ..      BEQ      0x157c ; am_util_stdio_vsprintf + 232
        0x00001558:    2875        u(      CMP      r0,#0x75
        0x0000155a:    d07a        z.      BEQ      0x1652 ; am_util_stdio_vsprintf + 446
        0x0000155c:    2878        x(      CMP      r0,#0x78
        0x0000155e:    d1f5        ..      BNE      0x154c ; am_util_stdio_vsprintf + 184
        0x00001560:    e04b        K.      B        0x15fa ; am_util_stdio_vsprintf + 358
        0x00001562:    980e        ..      LDR      r0,[sp,#0x38]
        0x00001564:    f8101b04    ....    LDRB     r1,[r0],#4
        0x00001568:    900e        ..      STR      r0,[sp,#0x38]
        0x0000156a:    b2c8        ..      UXTB     r0,r1
        0x0000156c:    9005        ..      STR      r0,[sp,#0x14]
        0x0000156e:    b114        ..      CBZ      r4,0x1576 ; am_util_stdio_vsprintf + 226
        0x00001570:    9805        ..      LDR      r0,[sp,#0x14]
        0x00001572:    f8040b01    ....    STRB     r0,[r4],#1
        0x00001576:    f1090901    ....    ADD      r9,r9,#1
        0x0000157a:    e14e        N.      B        0x181a ; am_util_stdio_vsprintf + 902
        0x0000157c:    980e        ..      LDR      r0,[sp,#0x38]
        0x0000157e:    f850bb04    P...    LDR      r11,[r0],#4
        0x00001582:    900e        ..      STR      r0,[sp,#0x38]
        0x00001584:    4658        XF      MOV      r0,r11
        0x00001586:    f001f8a1    ....    BL       simple_strlen ; 0x26cc
        0x0000158a:    9000        ..      STR      r0,[sp,#0]
        0x0000158c:    2e00        ..      CMP      r6,#0
        0x0000158e:    dd11        ..      BLE      0x15b4 ; am_util_stdio_vsprintf + 288
        0x00001590:    9800        ..      LDR      r0,[sp,#0]
        0x00001592:    42b0        .B      CMP      r0,r6
        0x00001594:    d20e        ..      BCS      0x15b4 ; am_util_stdio_vsprintf + 288
        0x00001596:    9800        ..      LDR      r0,[sp,#0]
        0x00001598:    1a36        6.      SUBS     r6,r6,r0
        0x0000159a:    4632        2F      MOV      r2,r6
        0x0000159c:    4620         F      MOV      r0,r4
        0x0000159e:    9904        ..      LDR      r1,[sp,#0x10]
        0x000015a0:    f000fb9b    ....    BL       padbuffer ; 0x1cda
        0x000015a4:    4606        .F      MOV      r6,r0
        0x000015a6:    b10c        ..      CBZ      r4,0x15ac ; am_util_stdio_vsprintf + 280
        0x000015a8:    4630        0F      MOV      r0,r6
        0x000015aa:    e000        ..      B        0x15ae ; am_util_stdio_vsprintf + 282
        0x000015ac:    2000        .       MOVS     r0,#0
        0x000015ae:    4404        .D      ADD      r4,r4,r0
        0x000015b0:    44b1        .D      ADD      r9,r9,r6
        0x000015b2:    2600        .&      MOVS     r6,#0
        0x000015b4:    e008        ..      B        0x15c8 ; am_util_stdio_vsprintf + 308
        0x000015b6:    b11c        ..      CBZ      r4,0x15c0 ; am_util_stdio_vsprintf + 300
        0x000015b8:    f89b0000    ....    LDRB     r0,[r11,#0]
        0x000015bc:    f8040b01    ....    STRB     r0,[r4],#1
        0x000015c0:    f10b0b01    ....    ADD      r11,r11,#1
        0x000015c4:    f1090901    ....    ADD      r9,r9,#1
        0x000015c8:    f89b0000    ....    LDRB     r0,[r11,#0]
        0x000015cc:    2800        .(      CMP      r0,#0
        0x000015ce:    d1f2        ..      BNE      0x15b6 ; am_util_stdio_vsprintf + 290
        0x000015d0:    b196        ..      CBZ      r6,0x15f8 ; am_util_stdio_vsprintf + 356
        0x000015d2:    4276        vB      RSBS     r6,r6,#0
        0x000015d4:    9800        ..      LDR      r0,[sp,#0]
        0x000015d6:    42b0        .B      CMP      r0,r6
        0x000015d8:    d20e        ..      BCS      0x15f8 ; am_util_stdio_vsprintf + 356
        0x000015da:    9800        ..      LDR      r0,[sp,#0]
        0x000015dc:    1a36        6.      SUBS     r6,r6,r0
        0x000015de:    4632        2F      MOV      r2,r6
        0x000015e0:    4620         F      MOV      r0,r4
        0x000015e2:    9904        ..      LDR      r1,[sp,#0x10]
        0x000015e4:    f000fb79    ..y.    BL       padbuffer ; 0x1cda
        0x000015e8:    4606        .F      MOV      r6,r0
        0x000015ea:    b10c        ..      CBZ      r4,0x15f0 ; am_util_stdio_vsprintf + 348
        0x000015ec:    4630        0F      MOV      r0,r6
        0x000015ee:    e000        ..      B        0x15f2 ; am_util_stdio_vsprintf + 350
        0x000015f0:    2000        .       MOVS     r0,#0
        0x000015f2:    4404        .D      ADD      r4,r4,r0
        0x000015f4:    44b1        .D      ADD      r9,r9,r6
        0x000015f6:    2600        .&      MOVS     r6,#0
        0x000015f8:    e10f        ..      B        0x181a ; am_util_stdio_vsprintf + 902
        0x000015fa:    2001        .       MOVS     r0,#1
        0x000015fc:    9003        ..      STR      r0,[sp,#0xc]
        0x000015fe:    bf00        ..      NOP      
        0x00001600:    9802        ..      LDR      r0,[sp,#8]
        0x00001602:    b170        p.      CBZ      r0,0x1622 ; am_util_stdio_vsprintf + 398
        0x00001604:    980e        ..      LDR      r0,[sp,#0x38]
        0x00001606:    1dc0        ..      ADDS     r0,r0,#7
        0x00001608:    f0200007     ...    BIC      r0,r0,#7
        0x0000160c:    4601        .F      MOV      r1,r0
        0x0000160e:    900e        ..      STR      r0,[sp,#0x38]
        0x00001610:    6800        .h      LDR      r0,[r0,#0]
        0x00001612:    6849        Ih      LDR      r1,[r1,#4]
        0x00001614:    9a0e        ..      LDR      r2,[sp,#0x38]
        0x00001616:    3208        .2      ADDS     r2,r2,#8
        0x00001618:    920e        ..      STR      r2,[sp,#0x38]
        0x0000161a:    e008        ..      B        0x162e ; am_util_stdio_vsprintf + 410
        0x0000161c:    e0c3        ..      B        0x17a6 ; am_util_stdio_vsprintf + 786
        0x0000161e:    e0c3        ..      B        0x17a8 ; am_util_stdio_vsprintf + 788
        0x00001620:    e0f4        ..      B        0x180c ; am_util_stdio_vsprintf + 888
        0x00001622:    980e        ..      LDR      r0,[sp,#0x38]
        0x00001624:    6800        .h      LDR      r0,[r0,#0]
        0x00001626:    990e        ..      LDR      r1,[sp,#0x38]
        0x00001628:    1d09        ..      ADDS     r1,r1,#4
        0x0000162a:    910e        ..      STR      r1,[sp,#0x38]
        0x0000162c:    2100        .!      MOVS     r1,#0
        0x0000162e:    4607        .F      MOV      r7,r0
        0x00001630:    4688        .F      MOV      r8,r1
        0x00001632:    b19e        ..      CBZ      r6,0x165c ; am_util_stdio_vsprintf + 456
        0x00001634:    4638        8F      MOV      r0,r7
        0x00001636:    4641        AF      MOV      r1,r8
        0x00001638:    f000fb06    ....    BL       ndigits_in_hex ; 0x1c48
        0x0000163c:    1a36        6.      SUBS     r6,r6,r0
        0x0000163e:    4632        2F      MOV      r2,r6
        0x00001640:    4620         F      MOV      r0,r4
        0x00001642:    9904        ..      LDR      r1,[sp,#0x10]
        0x00001644:    f000fb49    ..I.    BL       padbuffer ; 0x1cda
        0x00001648:    4606        .F      MOV      r6,r0
        0x0000164a:    b11c        ..      CBZ      r4,0x1654 ; am_util_stdio_vsprintf + 448
        0x0000164c:    4630        0F      MOV      r0,r6
        0x0000164e:    e002        ..      B        0x1656 ; am_util_stdio_vsprintf + 450
        0x00001650:    e043        C.      B        0x16da ; am_util_stdio_vsprintf + 582
        0x00001652:    e00e        ..      B        0x1672 ; am_util_stdio_vsprintf + 478
        0x00001654:    2000        .       MOVS     r0,#0
        0x00001656:    4404        .D      ADD      r4,r4,r0
        0x00001658:    44b1        .D      ADD      r9,r9,r6
        0x0000165a:    2600        .&      MOVS     r6,#0
        0x0000165c:    4622        "F      MOV      r2,r4
        0x0000165e:    4638        8F      MOV      r0,r7
        0x00001660:    4641        AF      MOV      r1,r8
        0x00001662:    9b03        ..      LDR      r3,[sp,#0xc]
        0x00001664:    f001f83e    ..>.    BL       uint64_to_hexstr ; 0x26e4
        0x00001668:    4682        .F      MOV      r10,r0
        0x0000166a:    b104        ..      CBZ      r4,0x166e ; am_util_stdio_vsprintf + 474
        0x0000166c:    4454        TD      ADD      r4,r4,r10
        0x0000166e:    44d1        .D      ADD      r9,r9,r10
        0x00001670:    e0d3        ..      B        0x181a ; am_util_stdio_vsprintf + 902
        0x00001672:    9802        ..      LDR      r0,[sp,#8]
        0x00001674:    b158        X.      CBZ      r0,0x168e ; am_util_stdio_vsprintf + 506
        0x00001676:    980e        ..      LDR      r0,[sp,#0x38]
        0x00001678:    1dc0        ..      ADDS     r0,r0,#7
        0x0000167a:    f0200007     ...    BIC      r0,r0,#7
        0x0000167e:    4601        .F      MOV      r1,r0
        0x00001680:    900e        ..      STR      r0,[sp,#0x38]
        0x00001682:    6800        .h      LDR      r0,[r0,#0]
        0x00001684:    6849        Ih      LDR      r1,[r1,#4]
        0x00001686:    9a0e        ..      LDR      r2,[sp,#0x38]
        0x00001688:    3208        .2      ADDS     r2,r2,#8
        0x0000168a:    920e        ..      STR      r2,[sp,#0x38]
        0x0000168c:    e005        ..      B        0x169a ; am_util_stdio_vsprintf + 518
        0x0000168e:    980e        ..      LDR      r0,[sp,#0x38]
        0x00001690:    6800        .h      LDR      r0,[r0,#0]
        0x00001692:    990e        ..      LDR      r1,[sp,#0x38]
        0x00001694:    1d09        ..      ADDS     r1,r1,#4
        0x00001696:    910e        ..      STR      r1,[sp,#0x38]
        0x00001698:    2100        .!      MOVS     r1,#0
        0x0000169a:    4607        .F      MOV      r7,r0
        0x0000169c:    4688        .F      MOV      r8,r1
        0x0000169e:    b18e        ..      CBZ      r6,0x16c4 ; am_util_stdio_vsprintf + 560
        0x000016a0:    4638        8F      MOV      r0,r7
        0x000016a2:    4641        AF      MOV      r1,r8
        0x000016a4:    f000fafc    ....    BL       ndigits_in_u64 ; 0x1ca0
        0x000016a8:    1a36        6.      SUBS     r6,r6,r0
        0x000016aa:    4632        2F      MOV      r2,r6
        0x000016ac:    4620         F      MOV      r0,r4
        0x000016ae:    9904        ..      LDR      r1,[sp,#0x10]
        0x000016b0:    f000fb13    ....    BL       padbuffer ; 0x1cda
        0x000016b4:    4606        .F      MOV      r6,r0
        0x000016b6:    b10c        ..      CBZ      r4,0x16bc ; am_util_stdio_vsprintf + 552
        0x000016b8:    4630        0F      MOV      r0,r6
        0x000016ba:    e000        ..      B        0x16be ; am_util_stdio_vsprintf + 554
        0x000016bc:    2000        .       MOVS     r0,#0
        0x000016be:    4404        .D      ADD      r4,r4,r0
        0x000016c0:    44b1        .D      ADD      r9,r9,r6
        0x000016c2:    2600        .&      MOVS     r6,#0
        0x000016c4:    4622        "F      MOV      r2,r4
        0x000016c6:    4638        8F      MOV      r0,r7
        0x000016c8:    4641        AF      MOV      r1,r8
        0x000016ca:    f001f850    ..P.    BL       uint64_to_str ; 0x276e
        0x000016ce:    4682        .F      MOV      r10,r0
        0x000016d0:    b104        ..      CBZ      r4,0x16d4 ; am_util_stdio_vsprintf + 576
        0x000016d2:    4454        TD      ADD      r4,r4,r10
        0x000016d4:    44d1        .D      ADD      r9,r9,r10
        0x000016d6:    e0a0        ..      B        0x181a ; am_util_stdio_vsprintf + 902
        0x000016d8:    bf00        ..      NOP      
        0x000016da:    9802        ..      LDR      r0,[sp,#8]
        0x000016dc:    b158        X.      CBZ      r0,0x16f6 ; am_util_stdio_vsprintf + 610
        0x000016de:    980e        ..      LDR      r0,[sp,#0x38]
        0x000016e0:    1dc0        ..      ADDS     r0,r0,#7
        0x000016e2:    f0200007     ...    BIC      r0,r0,#7
        0x000016e6:    4601        .F      MOV      r1,r0
        0x000016e8:    900e        ..      STR      r0,[sp,#0x38]
        0x000016ea:    6800        .h      LDR      r0,[r0,#0]
        0x000016ec:    6849        Ih      LDR      r1,[r1,#4]
        0x000016ee:    9a0e        ..      LDR      r2,[sp,#0x38]
        0x000016f0:    3208        .2      ADDS     r2,r2,#8
        0x000016f2:    920e        ..      STR      r2,[sp,#0x38]
        0x000016f4:    e005        ..      B        0x1702 ; am_util_stdio_vsprintf + 622
        0x000016f6:    980e        ..      LDR      r0,[sp,#0x38]
        0x000016f8:    6800        .h      LDR      r0,[r0,#0]
        0x000016fa:    990e        ..      LDR      r1,[sp,#0x38]
        0x000016fc:    1d09        ..      ADDS     r1,r1,#4
        0x000016fe:    910e        ..      STR      r1,[sp,#0x38]
        0x00001700:    17c1        ..      ASRS     r1,r0,#31
        0x00001702:    e9cd0108    ....    STRD     r0,r1,[sp,#0x20]
        0x00001706:    2300        .#      MOVS     r3,#0
        0x00001708:    e9dd0108    ....    LDRD     r0,r1,[sp,#0x20]
        0x0000170c:    1ac0        ..      SUBS     r0,r0,r3
        0x0000170e:    4199        .A      SBCS     r1,r1,r3
        0x00001710:    da08        ..      BGE      0x1724 ; am_util_stdio_vsprintf + 656
        0x00001712:    2200        ."      MOVS     r2,#0
        0x00001714:    e9dd1008    ....    LDRD     r1,r0,[sp,#0x20]
        0x00001718:    424f        OB      RSBS     r7,r1,#0
        0x0000171a:    eb620800    b...    SBC      r8,r2,r0
        0x0000171e:    2001        .       MOVS     r0,#1
        0x00001720:    9001        ..      STR      r0,[sp,#4]
        0x00001722:    e003        ..      B        0x172c ; am_util_stdio_vsprintf + 664
        0x00001724:    e9dd7808    ...x    LDRD     r7,r8,[sp,#0x20]
        0x00001728:    2000        .       MOVS     r0,#0
        0x0000172a:    9001        ..      STR      r0,[sp,#4]
        0x0000172c:    b34e        N.      CBZ      r6,0x1782 ; am_util_stdio_vsprintf + 750
        0x0000172e:    4638        8F      MOV      r0,r7
        0x00001730:    4641        AF      MOV      r1,r8
        0x00001732:    f000faa3    ....    BL       ndigits_in_i64 ; 0x1c7c
        0x00001736:    1a36        6.      SUBS     r6,r6,r0
        0x00001738:    9801        ..      LDR      r0,[sp,#4]
        0x0000173a:    b148        H.      CBZ      r0,0x1750 ; am_util_stdio_vsprintf + 700
        0x0000173c:    1e76        v.      SUBS     r6,r6,#1
        0x0000173e:    9804        ..      LDR      r0,[sp,#0x10]
        0x00001740:    2830        0(      CMP      r0,#0x30
        0x00001742:    d105        ..      BNE      0x1750 ; am_util_stdio_vsprintf + 700
        0x00001744:    b114        ..      CBZ      r4,0x174c ; am_util_stdio_vsprintf + 696
        0x00001746:    202d        -       MOVS     r0,#0x2d
        0x00001748:    f8040b01    ....    STRB     r0,[r4],#1
        0x0000174c:    f1090901    ....    ADD      r9,r9,#1
        0x00001750:    4632        2F      MOV      r2,r6
        0x00001752:    4620         F      MOV      r0,r4
        0x00001754:    9904        ..      LDR      r1,[sp,#0x10]
        0x00001756:    f000fac0    ....    BL       padbuffer ; 0x1cda
        0x0000175a:    4606        .F      MOV      r6,r0
        0x0000175c:    b10c        ..      CBZ      r4,0x1762 ; am_util_stdio_vsprintf + 718
        0x0000175e:    4630        0F      MOV      r0,r6
        0x00001760:    e000        ..      B        0x1764 ; am_util_stdio_vsprintf + 720
        0x00001762:    2000        .       MOVS     r0,#0
        0x00001764:    4404        .D      ADD      r4,r4,r0
        0x00001766:    44b1        .D      ADD      r9,r9,r6
        0x00001768:    2600        .&      MOVS     r6,#0
        0x0000176a:    9801        ..      LDR      r0,[sp,#4]
        0x0000176c:    b188        ..      CBZ      r0,0x1792 ; am_util_stdio_vsprintf + 766
        0x0000176e:    9804        ..      LDR      r0,[sp,#0x10]
        0x00001770:    2820         (      CMP      r0,#0x20
        0x00001772:    d10e        ..      BNE      0x1792 ; am_util_stdio_vsprintf + 766
        0x00001774:    b114        ..      CBZ      r4,0x177c ; am_util_stdio_vsprintf + 744
        0x00001776:    202d        -       MOVS     r0,#0x2d
        0x00001778:    f8040b01    ....    STRB     r0,[r4],#1
        0x0000177c:    f1090901    ....    ADD      r9,r9,#1
        0x00001780:    e007        ..      B        0x1792 ; am_util_stdio_vsprintf + 766
        0x00001782:    9801        ..      LDR      r0,[sp,#4]
        0x00001784:    b128        (.      CBZ      r0,0x1792 ; am_util_stdio_vsprintf + 766
        0x00001786:    b114        ..      CBZ      r4,0x178e ; am_util_stdio_vsprintf + 762
        0x00001788:    202d        -       MOVS     r0,#0x2d
        0x0000178a:    f8040b01    ....    STRB     r0,[r4],#1
        0x0000178e:    f1090901    ....    ADD      r9,r9,#1
        0x00001792:    4622        "F      MOV      r2,r4
        0x00001794:    4638        8F      MOV      r0,r7
        0x00001796:    4641        AF      MOV      r1,r8
        0x00001798:    f000ffe9    ....    BL       uint64_to_str ; 0x276e
        0x0000179c:    4682        .F      MOV      r10,r0
        0x0000179e:    b104        ..      CBZ      r4,0x17a2 ; am_util_stdio_vsprintf + 782
        0x000017a0:    4454        TD      ADD      r4,r4,r10
        0x000017a2:    44d1        .D      ADD      r9,r9,r10
        0x000017a4:    e039        9.      B        0x181a ; am_util_stdio_vsprintf + 902
        0x000017a6:    bf00        ..      NOP      
        0x000017a8:    b37c        |.      CBZ      r4,0x180a ; am_util_stdio_vsprintf + 886
        0x000017aa:    980e        ..      LDR      r0,[sp,#0x38]
        0x000017ac:    1dc0        ..      ADDS     r0,r0,#7
        0x000017ae:    f0200007     ...    BIC      r0,r0,#7
        0x000017b2:    900e        ..      STR      r0,[sp,#0x38]
        0x000017b4:    ecb01b02    ....    VLDM     r0!,{d1}
        0x000017b8:    eeb00a41    ..A.    VMOV.F32 s0,s2
        0x000017bc:    eef00a61    ..a.    VMOV.F32 s1,s3
        0x000017c0:    900e        ..      STR      r0,[sp,#0x38]
        0x000017c2:    ec510b10    Q...    VMOV     r0,r1,d0
        0x000017c6:    f002f977    ..w.    BL       __aeabi_d2f ; 0x3ab8
        0x000017ca:    ee080a10    ....    VMOV     s16,r0
        0x000017ce:    2014        .       MOVS     r0,#0x14
        0x000017d0:    6020         `      STR      r0,[r4,#0]
        0x000017d2:    4620         F      MOV      r0,r4
        0x000017d4:    eeb00a48    ..H.    VMOV.F32 s0,s16
        0x000017d8:    9906        ..      LDR      r1,[sp,#0x18]
        0x000017da:    f000f951    ..Q.    BL       ftoa ; 0x1a80
        0x000017de:    4682        .F      MOV      r10,r0
        0x000017e0:    f1ba0f00    ....    CMP      r10,#0
        0x000017e4:    da0e        ..      BGE      0x1804 ; am_util_stdio_vsprintf + 880
        0x000017e6:    f10a0101    ....    ADD      r1,r10,#1
        0x000017ea:    b909        ..      CBNZ     r1,0x17f0 ; am_util_stdio_vsprintf + 860
        0x000017ec:    4813        .H      LDR      r0,[pc,#76] ; [0x183c] = 0x302e30
        0x000017ee:    e005        ..      B        0x17fc ; am_util_stdio_vsprintf + 872
        0x000017f0:    f10a0102    ....    ADD      r1,r10,#2
        0x000017f4:    b909        ..      CBNZ     r1,0x17fa ; am_util_stdio_vsprintf + 870
        0x000017f6:    4812        .H      LDR      r0,[pc,#72] ; [0x1840] = 0x232e23
        0x000017f8:    e000        ..      B        0x17fc ; am_util_stdio_vsprintf + 872
        0x000017fa:    4812        .H      LDR      r0,[pc,#72] ; [0x1844] = 0x3f2e3f
        0x000017fc:    6020         `      STR      r0,[r4,#0]
        0x000017fe:    f04f0a03    O...    MOV      r10,#3
        0x00001802:    bf00        ..      NOP      
        0x00001804:    44d1        .D      ADD      r9,r9,r10
        0x00001806:    4454        TD      ADD      r4,r4,r10
        0x00001808:    bf00        ..      NOP      
        0x0000180a:    e006        ..      B        0x181a ; am_util_stdio_vsprintf + 902
        0x0000180c:    b114        ..      CBZ      r4,0x1814 ; am_util_stdio_vsprintf + 896
        0x0000180e:    7828        (x      LDRB     r0,[r5,#0]
        0x00001810:    f8040b01    ....    STRB     r0,[r4],#1
        0x00001814:    f1090901    ....    ADD      r9,r9,#1
        0x00001818:    bf00        ..      NOP      
        0x0000181a:    bf00        ..      NOP      
        0x0000181c:    1c6d        m.      ADDS     r5,r5,#1
        0x0000181e:    bf00        ..      NOP      
        0x00001820:    7828        (x      LDRB     r0,[r5,#0]
        0x00001822:    2800        .(      CMP      r0,#0
        0x00001824:    f47fae42    ..B.    BNE      0x14ac ; am_util_stdio_vsprintf + 24
        0x00001828:    b104        ..      CBZ      r4,0x182c ; am_util_stdio_vsprintf + 920
        0x0000182a:    7020         p      STRB     r0,[r4,#0]
        0x0000182c:    4648        HF      MOV      r0,r9
        0x0000182e:    b00a        ..      ADD      sp,sp,#0x28
        0x00001830:    ecbd8b02    ....    VPOP     {d8}
        0x00001834:    e8bd8ffe    ....    POP      {r1-r11,pc}
    $d
        0x00001838:    10000088    ....    DCD    268435592
        0x0000183c:    00302e30    0.0.    DCD    3157552
        0x00001840:    00232e23    #.#.    DCD    2305571
        0x00001844:    003f2e3f    ?.?.    DCD    4140607
    $t
    i.button0_handler
    button0_handler
        0x00001848:    b570        p.      PUSH     {r4-r6,lr}
        0x0000184a:    2400        .$      MOVS     r4,#0
        0x0000184c:    e009        ..      B        0x1862 ; button0_handler + 26
        0x0000184e:    4808        .H      LDR      r0,[pc,#32] ; [0x1870] = 0x40010080
        0x00001850:    6800        .h      LDR      r0,[r0,#0]
        0x00001852:    f3c04540    ..@E    UBFX     r5,r0,#17,#1
        0x00001856:    b905        ..      CBNZ     r5,0x185a ; button0_handler + 18
        0x00001858:    bd70        p.      POP      {r4-r6,pc}
        0x0000185a:    2002        .       MOVS     r0,#2
        0x0000185c:    f7fffd7a    ..z.    BL       am_util_delay_ms ; 0x1354
        0x00001860:    1c64        d.      ADDS     r4,r4,#1
        0x00001862:    2c0a        .,      CMP      r4,#0xa
        0x00001864:    d3f3        ..      BCC      0x184e ; button0_handler + 6
        0x00001866:    2000        .       MOVS     r0,#0
        0x00001868:    f000f830    ..0.    BL       button_handler ; 0x18cc
        0x0000186c:    bf00        ..      NOP      
        0x0000186e:    e7f3        ..      B        0x1858 ; button0_handler + 16
    $d
        0x00001870:    40010080    ...@    DCD    1073807488
    $t
    i.button1_handler
    button1_handler
        0x00001874:    b570        p.      PUSH     {r4-r6,lr}
        0x00001876:    2400        .$      MOVS     r4,#0
        0x00001878:    e009        ..      B        0x188e ; button1_handler + 26
        0x0000187a:    4808        .H      LDR      r0,[pc,#32] ; [0x189c] = 0x40010080
        0x0000187c:    6800        .h      LDR      r0,[r0,#0]
        0x0000187e:    f3c04580    ...E    UBFX     r5,r0,#18,#1
        0x00001882:    b905        ..      CBNZ     r5,0x1886 ; button1_handler + 18
        0x00001884:    bd70        p.      POP      {r4-r6,pc}
        0x00001886:    2002        .       MOVS     r0,#2
        0x00001888:    f7fffd64    ..d.    BL       am_util_delay_ms ; 0x1354
        0x0000188c:    1c64        d.      ADDS     r4,r4,#1
        0x0000188e:    2c0a        .,      CMP      r4,#0xa
        0x00001890:    d3f3        ..      BCC      0x187a ; button1_handler + 6
        0x00001892:    2001        .       MOVS     r0,#1
        0x00001894:    f000f81a    ....    BL       button_handler ; 0x18cc
        0x00001898:    bf00        ..      NOP      
        0x0000189a:    e7f3        ..      B        0x1884 ; button1_handler + 16
    $d
        0x0000189c:    40010080    ...@    DCD    1073807488
    $t
    i.button2_handler
    button2_handler
        0x000018a0:    b570        p.      PUSH     {r4-r6,lr}
        0x000018a2:    2400        .$      MOVS     r4,#0
        0x000018a4:    e009        ..      B        0x18ba ; button2_handler + 26
        0x000018a6:    4808        .H      LDR      r0,[pc,#32] ; [0x18c8] = 0x40010080
        0x000018a8:    6800        .h      LDR      r0,[r0,#0]
        0x000018aa:    f3c045c0    ...E    UBFX     r5,r0,#19,#1
        0x000018ae:    b905        ..      CBNZ     r5,0x18b2 ; button2_handler + 18
        0x000018b0:    bd70        p.      POP      {r4-r6,pc}
        0x000018b2:    2002        .       MOVS     r0,#2
        0x000018b4:    f7fffd4e    ..N.    BL       am_util_delay_ms ; 0x1354
        0x000018b8:    1c64        d.      ADDS     r4,r4,#1
        0x000018ba:    2c0a        .,      CMP      r4,#0xa
        0x000018bc:    d3f3        ..      BCC      0x18a6 ; button2_handler + 6
        0x000018be:    2002        .       MOVS     r0,#2
        0x000018c0:    f000f804    ....    BL       button_handler ; 0x18cc
        0x000018c4:    bf00        ..      NOP      
        0x000018c6:    e7f3        ..      B        0x18b0 ; button2_handler + 16
    $d
        0x000018c8:    40010080    ...@    DCD    1073807488
    $t
    i.button_handler
    button_handler
        0x000018cc:    b538        8.      PUSH     {r3-r5,lr}
        0x000018ce:    4604        .F      MOV      r4,r0
        0x000018d0:    2000        .       MOVS     r0,#0
        0x000018d2:    9000        ..      STR      r0,[sp,#0]
        0x000018d4:    2001        .       MOVS     r0,#1
        0x000018d6:    fa00f204    ....    LSL      r2,r0,r4
        0x000018da:    466b        kF      MOV      r3,sp
        0x000018dc:    4808        .H      LDR      r0,[pc,#32] ; [0x1900] = 0x10000018
        0x000018de:    6801        .h      LDR      r1,[r0,#0]
        0x000018e0:    4808        .H      LDR      r0,[pc,#32] ; [0x1904] = 0x282f
        0x000018e2:    f002f8cf    ....    BL       xTimerPendFunctionCallFromISR ; 0x3a84
        0x000018e6:    4605        .F      MOV      r5,r0
        0x000018e8:    b14d        M.      CBZ      r5,0x18fe ; button_handler + 50
        0x000018ea:    9800        ..      LDR      r0,[sp,#0]
        0x000018ec:    b138        8.      CBZ      r0,0x18fe ; button_handler + 50
        0x000018ee:    f04f5080    O..P    MOV      r0,#0x10000000
        0x000018f2:    4905        .I      LDR      r1,[pc,#20] ; [0x1908] = 0xe000ed04
        0x000018f4:    6008        .`      STR      r0,[r1,#0]
        0x000018f6:    f3bf8f4f    ..O.    DSB      
        0x000018fa:    f3bf8f6f    ..o.    ISB      
        0x000018fe:    bd38        8.      POP      {r3-r5,pc}
    $d
        0x00001900:    10000018    ....    DCD    268435480
        0x00001904:    0000282f    /(..    DCD    10287
        0x00001908:    e000ed04    ....    DCD    3758157060
    $t
    i.decstr_to_int
    decstr_to_int
        0x0000190c:    b530        0.      PUSH     {r4,r5,lr}
        0x0000190e:    4602        .F      MOV      r2,r0
        0x00001910:    2500        .%      MOVS     r5,#0
        0x00001912:    2300        .#      MOVS     r3,#0
        0x00001914:    2400        .$      MOVS     r4,#0
        0x00001916:    7810        .x      LDRB     r0,[r2,#0]
        0x00001918:    282d        -(      CMP      r0,#0x2d
        0x0000191a:    d102        ..      BNE      0x1922 ; decstr_to_int + 22
        0x0000191c:    2501        .%      MOVS     r5,#1
        0x0000191e:    1c52        R.      ADDS     r2,r2,#1
        0x00001920:    1c64        d.      ADDS     r4,r4,#1
        0x00001922:    e007        ..      B        0x1934 ; decstr_to_int + 40
        0x00001924:    1c64        d.      ADDS     r4,r4,#1
        0x00001926:    eb030083    ....    ADD      r0,r3,r3,LSL #2
        0x0000192a:    0043        C.      LSLS     r3,r0,#1
        0x0000192c:    7810        .x      LDRB     r0,[r2,#0]
        0x0000192e:    3830        08      SUBS     r0,r0,#0x30
        0x00001930:    4403        .D      ADD      r3,r3,r0
        0x00001932:    1c52        R.      ADDS     r2,r2,#1
        0x00001934:    7810        .x      LDRB     r0,[r2,#0]
        0x00001936:    2830        0(      CMP      r0,#0x30
        0x00001938:    db02        ..      BLT      0x1940 ; decstr_to_int + 52
        0x0000193a:    7810        .x      LDRB     r0,[r2,#0]
        0x0000193c:    2839        9(      CMP      r0,#0x39
        0x0000193e:    ddf1        ..      BLE      0x1924 ; decstr_to_int + 24
        0x00001940:    b101        ..      CBZ      r1,0x1944 ; decstr_to_int + 56
        0x00001942:    600c        .`      STR      r4,[r1,#0]
        0x00001944:    b10d        ..      CBZ      r5,0x194a ; decstr_to_int + 62
        0x00001946:    4258        XB      RSBS     r0,r3,#0
        0x00001948:    bd30        0.      POP      {r4,r5,pc}
        0x0000194a:    4618        .F      MOV      r0,r3
        0x0000194c:    e7fc        ..      B        0x1948 ; decstr_to_int + 60
    i.disable_print_interface
    disable_print_interface
        0x0000194e:    b510        ..      PUSH     {r4,lr}
        0x00001950:    f7fefe88    ....    BL       am_bsp_debug_printf_disable ; 0x664
        0x00001954:    f7fffb6c    ..l.    BL       am_hal_itm_disable ; 0x1030
        0x00001958:    bd10        ..      POP      {r4,pc}
    i.divu64_10
    divu64_10
        0x0000195a:    e92d4ff0    -..O    PUSH     {r4-r11,lr}
        0x0000195e:    4604        .F      MOV      r4,r0
        0x00001960:    460d        .F      MOV      r5,r1
        0x00001962:    2000        .       MOVS     r0,#0
        0x00001964:    ea850100    ....    EOR      r1,r5,r0
        0x00001968:    4040        @@      EORS     r0,r0,r0
        0x0000196a:    4301        .C      ORRS     r1,r1,r0
        0x0000196c:    d044        D.      BEQ      0x19f8 ; divu64_10 + 158
        0x0000196e:    ea5f0a55    _.U.    LSRS     r10,r5,#1
        0x00001972:    ea4f0134    O.4.    RRX      r1,r4
        0x00001976:    ea4f0b94    O...    LSR      r11,r4,#2
        0x0000197a:    ea4b7085    K..p    ORR      r0,r11,r5,LSL #30
        0x0000197e:    180a        ..      ADDS     r2,r1,r0
        0x00001980:    eb4a0395    J...    ADC      r3,r10,r5,LSR #2
        0x00001984:    ea4f1012    O...    LSR      r0,r2,#4
        0x00001988:    ea407a03    @..z    ORR      r10,r0,r3,LSL #28
        0x0000198c:    eb1a0202    ....    ADDS     r2,r10,r2
        0x00001990:    eb431313    C...    ADC      r3,r3,r3,LSR #4
        0x00001994:    ea4f2012    O..     LSR      r0,r2,#8
        0x00001998:    ea406a03    @..j    ORR      r10,r0,r3,LSL #24
        0x0000199c:    eb1a0202    ....    ADDS     r2,r10,r2
        0x000019a0:    eb432313    C..#    ADC      r3,r3,r3,LSR #8
        0x000019a4:    ea4f4012    O..@    LSR      r0,r2,#16
        0x000019a8:    ea404a03    @..J    ORR      r10,r0,r3,LSL #16
        0x000019ac:    eb1a0202    ....    ADDS     r2,r10,r2
        0x000019b0:    eb434313    C..C    ADC      r3,r3,r3,LSR #16
        0x000019b4:    189a        ..      ADDS     r2,r3,r2
        0x000019b6:    f1430300    C...    ADC      r3,r3,#0
        0x000019ba:    08d0        ..      LSRS     r0,r2,#3
        0x000019bc:    ea407243    @.Cr    ORR      r2,r0,r3,LSL #29
        0x000019c0:    08db        ..      LSRS     r3,r3,#3
        0x000019c2:    210a        .!      MOVS     r1,#0xa
        0x000019c4:    f04f0a00    O...    MOV      r10,#0
        0x000019c8:    fba20b01    ....    UMULL    r0,r11,r2,r1
        0x000019cc:    fb03b101    ....    MLA      r1,r3,r1,r11
        0x000019d0:    fb02110a    ....    MLA      r1,r2,r10,r1
        0x000019d4:    1a26        &.      SUBS     r6,r4,r0
        0x000019d6:    eb650701    e...    SBC      r7,r5,r1
        0x000019da:    2106        .!      MOVS     r1,#6
        0x000019dc:    eb160a01    ....    ADDS     r10,r6,r1
        0x000019e0:    f1470100    G...    ADC      r1,r7,#0
        0x000019e4:    ea4f101a    O...    LSR      r0,r10,#4
        0x000019e8:    ea407a01    @..z    ORR      r10,r0,r1,LSL #28
        0x000019ec:    eb1a0002    ....    ADDS     r0,r10,r2
        0x000019f0:    eb431111    C...    ADC      r1,r3,r1,LSR #4
        0x000019f4:    e8bd8ff0    ....    POP      {r4-r11,pc}
        0x000019f8:    46a0        .F      MOV      r8,r4
        0x000019fa:    ea4f0058    O.X.    LSR      r0,r8,#1
        0x000019fe:    eb000c98    ....    ADD      r12,r0,r8,LSR #2
        0x00001a02:    eb0c1c1c    ....    ADD      r12,r12,r12,LSR #4
        0x00001a06:    eb0c2c1c    ...,    ADD      r12,r12,r12,LSR #8
        0x00001a0a:    eb0c4c1c    ...L    ADD      r12,r12,r12,LSR #16
        0x00001a0e:    ea4f0cdc    O...    LSR      r12,r12,#3
        0x00001a12:    eb0c008c    ....    ADD      r0,r12,r12,LSL #2
        0x00001a16:    eba80940    ..@.    SUB      r9,r8,r0,LSL #1
        0x00001a1a:    f1090006    ....    ADD      r0,r9,#6
        0x00001a1e:    eb0c1010    ....    ADD      r0,r12,r0,LSR #4
        0x00001a22:    2100        .!      MOVS     r1,#0
        0x00001a24:    e7e6        ..      B        0x19f4 ; divu64_10 + 154
        0x00001a26:    0000        ..      MOVS     r0,r0
    i.eTaskConfirmSleepModeStatus
    eTaskConfirmSleepModeStatus
        0x00001a28:    2101        .!      MOVS     r1,#1
        0x00001a2a:    2001        .       MOVS     r0,#1
        0x00001a2c:    4a09        .J      LDR      r2,[pc,#36] ; [0x1a54] = 0x10004130
        0x00001a2e:    6812        .h      LDR      r2,[r2,#0]
        0x00001a30:    b10a        ..      CBZ      r2,0x1a36 ; eTaskConfirmSleepModeStatus + 14
        0x00001a32:    2000        .       MOVS     r0,#0
        0x00001a34:    e00c        ..      B        0x1a50 ; eTaskConfirmSleepModeStatus + 40
        0x00001a36:    4a08        .J      LDR      r2,[pc,#32] ; [0x1a58] = 0x10000058
        0x00001a38:    6812        .h      LDR      r2,[r2,#0]
        0x00001a3a:    b10a        ..      CBZ      r2,0x1a40 ; eTaskConfirmSleepModeStatus + 24
        0x00001a3c:    2000        .       MOVS     r0,#0
        0x00001a3e:    e007        ..      B        0x1a50 ; eTaskConfirmSleepModeStatus + 40
        0x00001a40:    4a06        .J      LDR      r2,[pc,#24] ; [0x1a5c] = 0x10004144
        0x00001a42:    6813        .h      LDR      r3,[r2,#0]
        0x00001a44:    4a06        .J      LDR      r2,[pc,#24] ; [0x1a60] = 0x10000044
        0x00001a46:    6812        .h      LDR      r2,[r2,#0]
        0x00001a48:    1e52        R.      SUBS     r2,r2,#1
        0x00001a4a:    4293        .B      CMP      r3,r2
        0x00001a4c:    d100        ..      BNE      0x1a50 ; eTaskConfirmSleepModeStatus + 40
        0x00001a4e:    2002        .       MOVS     r0,#2
        0x00001a50:    4770        pG      BX       lr
    $d
        0x00001a52:    0000        ..      DCW    0
        0x00001a54:    10004130    0A..    DCD    268452144
        0x00001a58:    10000058    X...    DCD    268435544
        0x00001a5c:    10004144    DA..    DCD    268452164
        0x00001a60:    10000044    D...    DCD    268435524
    $t
    i.enable_print_interface
    enable_print_interface
        0x00001a64:    b510        ..      PUSH     {r4,lr}
        0x00001a66:    f7fffb15    ....    BL       am_hal_itm_enable ; 0x1094
        0x00001a6a:    f7fefe1d    ....    BL       am_bsp_debug_printf_enable ; 0x6a8
        0x00001a6e:    4803        .H      LDR      r0,[pc,#12] ; [0x1a7c] = 0x1119
        0x00001a70:    f7fffcfa    ....    BL       am_util_stdio_printf_init ; 0x1468
        0x00001a74:    f7fffcfe    ....    BL       am_util_stdio_terminal_clear ; 0x1474
        0x00001a78:    bd10        ..      POP      {r4,pc}
    $d
        0x00001a7a:    0000        ..      DCW    0
        0x00001a7c:    00001119    ....    DCD    4377
    $t
    i.ftoa
    ftoa
        0x00001a80:    e92d4ff3    -..O    PUSH     {r0,r1,r4-r11,lr}
        0x00001a84:    ed2d0b02    -...    VPUSH    {d0}
        0x00001a88:    ed2d8b02    -...    VPUSH    {d8}
        0x00001a8c:    b081        ..      SUB      sp,sp,#4
        0x00001a8e:    eeb08a40    ..@.    VMOV.F32 s16,s0
        0x00001a92:    4604        .F      MOV      r4,r0
        0x00001a94:    f8d4b000    ....    LDR      r11,[r4,#0]
        0x00001a98:    f1bb0f04    ....    CMP      r11,#4
        0x00001a9c:    da07        ..      BGE      0x1aae ; ftoa + 46
        0x00001a9e:    f06f0002    o...    MVN      r0,#2
        0x00001aa2:    b001        ..      ADD      sp,sp,#4
        0x00001aa4:    ecbd8b02    ....    VPOP     {d8}
        0x00001aa8:    b004        ..      ADD      sp,sp,#0x10
        0x00001aaa:    e8bd8ff0    ....    POP      {r4-r11,pc}
        0x00001aae:    eeb58ac0    ....    VCMPE.F32 s16,#0.0
        0x00001ab2:    eef1fa10    ....    VMRS     APSR_nzcv,FPSCR
        0x00001ab6:    d103        ..      BNE      0x1ac0 ; ftoa + 64
        0x00001ab8:    484e        NH      LDR      r0,[pc,#312] ; [0x1bf4] = 0x302e30
        0x00001aba:    6020         `      STR      r0,[r4,#0]
        0x00001abc:    2003        .       MOVS     r0,#3
        0x00001abe:    e7f0        ..      B        0x1aa2 ; ftoa + 34
        0x00001ac0:    46a2        .F      MOV      r10,r4
        0x00001ac2:    ed8d8a00    ....    VSTR     s16,[sp,#0]
        0x00001ac6:    9800        ..      LDR      r0,[sp,#0]
        0x00001ac8:    f3c050c7    ...P    UBFX     r0,r0,#23,#8
        0x00001acc:    f1a0057f    ....    SUB      r5,r0,#0x7f
        0x00001ad0:    9800        ..      LDR      r0,[sp,#0]
        0x00001ad2:    f020407f     ..@    BIC      r0,r0,#0xff000000
        0x00001ad6:    f4400900    @...    ORR      r9,r0,#0x800000
        0x00001ada:    f04f0800    O...    MOV      r8,#0
        0x00001ade:    2700        .'      MOVS     r7,#0
        0x00001ae0:    2d1f        .-      CMP      r5,#0x1f
        0x00001ae2:    db01        ..      BLT      0x1ae8 ; ftoa + 104
        0x00001ae4:    1eb8        ..      SUBS     r0,r7,#2
        0x00001ae6:    e7dc        ..      B        0x1aa2 ; ftoa + 34
        0x00001ae8:    f1150f17    ....    CMN      r5,#0x17
        0x00001aec:    da02        ..      BGE      0x1af4 ; ftoa + 116
        0x00001aee:    f04f30ff    O..0    MOV      r0,#0xffffffff
        0x00001af2:    e7d6        ..      B        0x1aa2 ; ftoa + 34
        0x00001af4:    2d17        .-      CMP      r5,#0x17
        0x00001af6:    db04        ..      BLT      0x1b02 ; ftoa + 130
        0x00001af8:    f1a50017    ....    SUB      r0,r5,#0x17
        0x00001afc:    fa09f700    ....    LSL      r7,r9,r0
        0x00001b00:    e011        ..      B        0x1b26 ; ftoa + 166
        0x00001b02:    2d00        .-      CMP      r5,#0
        0x00001b04:    db09        ..      BLT      0x1b1a ; ftoa + 154
        0x00001b06:    f1c50017    ....    RSB      r0,r5,#0x17
        0x00001b0a:    fa49f700    I...    ASR      r7,r9,r0
        0x00001b0e:    1c68        h.      ADDS     r0,r5,#1
        0x00001b10:    fa09f000    ....    LSL      r0,r9,r0
        0x00001b14:    f020487f     ..H    BIC      r8,r0,#0xff000000
        0x00001b18:    e005        ..      B        0x1b26 ; ftoa + 166
        0x00001b1a:    f029407f    )..@    BIC      r0,r9,#0xff000000
        0x00001b1e:    1c69        i.      ADDS     r1,r5,#1
        0x00001b20:    4249        IB      RSBS     r1,r1,#0
        0x00001b22:    fa40f801    @...    ASR      r8,r0,r1
        0x00001b26:    9800        ..      LDR      r0,[sp,#0]
        0x00001b28:    2800        .(      CMP      r0,#0
        0x00001b2a:    da02        ..      BGE      0x1b32 ; ftoa + 178
        0x00001b2c:    202d        -       MOVS     r0,#0x2d
        0x00001b2e:    f8040b01    ....    STRB     r0,[r4],#1
        0x00001b32:    b91f        ..      CBNZ     r7,0x1b3c ; ftoa + 188
        0x00001b34:    2030        0       MOVS     r0,#0x30
        0x00001b36:    f8040b01    ....    STRB     r0,[r4],#1
        0x00001b3a:    e014        ..      B        0x1b66 ; ftoa + 230
        0x00001b3c:    2f00        ./      CMP      r7,#0
        0x00001b3e:    dd05        ..      BLE      0x1b4c ; ftoa + 204
        0x00001b40:    4622        "F      MOV      r2,r4
        0x00001b42:    4638        8F      MOV      r0,r7
        0x00001b44:    17f9        ..      ASRS     r1,r7,#31
        0x00001b46:    f000fe12    ....    BL       uint64_to_str ; 0x276e
        0x00001b4a:    e007        ..      B        0x1b5c ; ftoa + 220
        0x00001b4c:    202d        -       MOVS     r0,#0x2d
        0x00001b4e:    f8040b01    ....    STRB     r0,[r4],#1
        0x00001b52:    4622        "F      MOV      r2,r4
        0x00001b54:    4278        xB      RSBS     r0,r7,#0
        0x00001b56:    17c1        ..      ASRS     r1,r0,#31
        0x00001b58:    f000fe09    ....    BL       uint64_to_str ; 0x276e
        0x00001b5c:    e000        ..      B        0x1b60 ; ftoa + 224
        0x00001b5e:    1c64        d.      ADDS     r4,r4,#1
        0x00001b60:    7820         x      LDRB     r0,[r4,#0]
        0x00001b62:    2800        .(      CMP      r0,#0
        0x00001b64:    d1fb        ..      BNE      0x1b5e ; ftoa + 222
        0x00001b66:    202e        .       MOVS     r0,#0x2e
        0x00001b68:    f8040b01    ....    STRB     r0,[r4],#1
        0x00001b6c:    f1b80f00    ....    CMP      r8,#0
        0x00001b70:    d103        ..      BNE      0x1b7a ; ftoa + 250
        0x00001b72:    2030        0       MOVS     r0,#0x30
        0x00001b74:    f8040b01    ....    STRB     r0,[r4],#1
        0x00001b78:    e036        6.      B        0x1be8 ; ftoa + 360
        0x00001b7a:    eba4020a    ....    SUB      r2,r4,r10
        0x00001b7e:    ebab0202    ....    SUB      r2,r11,r2
        0x00001b82:    1e51        Q.      SUBS     r1,r2,#1
        0x00001b84:    9a06        ..      LDR      r2,[sp,#0x18]
        0x00001b86:    4291        .B      CMP      r1,r2
        0x00001b88:    dd01        ..      BLE      0x1b8e ; ftoa + 270
        0x00001b8a:    9a06        ..      LDR      r2,[sp,#0x18]
        0x00001b8c:    e000        ..      B        0x1b90 ; ftoa + 272
        0x00001b8e:    460a        .F      MOV      r2,r1
        0x00001b90:    4611        .F      MOV      r1,r2
        0x00001b92:    2000        .       MOVS     r0,#0
        0x00001b94:    e00b        ..      B        0x1bae ; ftoa + 302
        0x00001b96:    eb080288    ....    ADD      r2,r8,r8,LSL #2
        0x00001b9a:    ea4f0842    O.B.    LSL      r8,r2,#1
        0x00001b9e:    2230        0"      MOVS     r2,#0x30
        0x00001ba0:    eb026228    ..(b    ADD      r2,r2,r8,ASR #24
        0x00001ba4:    f8042b01    ...+    STRB     r2,[r4],#1
        0x00001ba8:    f028487f    (..H    BIC      r8,r8,#0xff000000
        0x00001bac:    1c40        @.      ADDS     r0,r0,#1
        0x00001bae:    4288        .B      CMP      r0,r1
        0x00001bb0:    dbf1        ..      BLT      0x1b96 ; ftoa + 278
        0x00001bb2:    eb080288    ....    ADD      r2,r8,r8,LSL #2
        0x00001bb6:    0052        R.      LSLS     r2,r2,#1
        0x00001bb8:    2305        .#      MOVS     r3,#5
        0x00001bba:    ebb36f22    .."o    CMP      r3,r2,ASR #24
        0x00001bbe:    dc12        ..      BGT      0x1be6 ; ftoa + 358
        0x00001bc0:    1e66        f.      SUBS     r6,r4,#1
        0x00001bc2:    e00d        ..      B        0x1be0 ; ftoa + 352
        0x00001bc4:    7832        2x      LDRB     r2,[r6,#0]
        0x00001bc6:    2a2e        .*      CMP      r2,#0x2e
        0x00001bc8:    d009        ..      BEQ      0x1bde ; ftoa + 350
        0x00001bca:    7832        2x      LDRB     r2,[r6,#0]
        0x00001bcc:    2a39        9*      CMP      r2,#0x39
        0x00001bce:    d102        ..      BNE      0x1bd6 ; ftoa + 342
        0x00001bd0:    2230        0"      MOVS     r2,#0x30
        0x00001bd2:    7032        2p      STRB     r2,[r6,#0]
        0x00001bd4:    e003        ..      B        0x1bde ; ftoa + 350
        0x00001bd6:    7832        2x      LDRB     r2,[r6,#0]
        0x00001bd8:    1c52        R.      ADDS     r2,r2,#1
        0x00001bda:    7032        2p      STRB     r2,[r6,#0]
        0x00001bdc:    e002        ..      B        0x1be4 ; ftoa + 356
        0x00001bde:    1e76        v.      SUBS     r6,r6,#1
        0x00001be0:    4556        VE      CMP      r6,r10
        0x00001be2:    d2ef        ..      BCS      0x1bc4 ; ftoa + 324
        0x00001be4:    bf00        ..      NOP      
        0x00001be6:    bf00        ..      NOP      
        0x00001be8:    2000        .       MOVS     r0,#0
        0x00001bea:    7020         p      STRB     r0,[r4,#0]
        0x00001bec:    eba4000a    ....    SUB      r0,r4,r10
        0x00001bf0:    e757        W.      B        0x1aa2 ; ftoa + 34
    $d
        0x00001bf2:    0000        ..      DCW    0
        0x00001bf4:    00302e30    0.0.    DCD    3157552
    $t
    i.main
    main
        0x00001bf8:    2000        .       MOVS     r0,#0
        0x00001bfa:    f7feff97    ....    BL       am_hal_clkgen_sysclk_select ; 0xb2c
        0x00001bfe:    f7fefd77    ..w.    BL       am_bsp_low_power_init ; 0x6f0
        0x00001c02:    f7fffaf9    ....    BL       am_hal_sysctrl_fpu_enable ; 0x11f8
        0x00001c06:    2001        .       MOVS     r0,#1
        0x00001c08:    f7fffafe    ....    BL       am_hal_sysctrl_fpu_stacking_enable ; 0x1208
        0x00001c0c:    21f0        .!      MOVS     r1,#0xf0
        0x00001c0e:    4608        .F      MOV      r0,r1
        0x00001c10:    f7fffad8    ....    BL       am_hal_mcuctrl_sram_power_set ; 0x11c4
        0x00001c14:    2002        .       MOVS     r0,#2
        0x00001c16:    f7fffacf    ....    BL       am_hal_mcuctrl_flash_power_set ; 0x11b8
        0x00001c1a:    f7ffff23    ..#.    BL       enable_print_interface ; 0x1a64
        0x00001c1e:    a003        ..      ADR      r0,{pc}+0xe ; 0x1c2c
        0x00001c20:    f7fffc04    ....    BL       am_util_stdio_printf ; 0x142c
        0x00001c24:    f000fd0e    ....    BL       run_tasks ; 0x2644
        0x00001c28:    bf00        ..      NOP      
        0x00001c2a:    e7fe        ..      B        0x1c2a ; main + 50
    $d
        0x00001c2c:    65657246    Free    DCD    1701147206
        0x00001c30:    534f5452    RTOS    DCD    1397707858
        0x00001c34:    776f4c20     Low    DCD    2003782688
        0x00001c38:    776f5020     Pow    DCD    2003783712
        0x00001c3c:    45207265    er E    DCD    1159754341
        0x00001c40:    706d6178    xamp    DCD    1886216568
        0x00001c44:    000a656c    le..    DCD    681324
    $t
    i.ndigits_in_hex
    ndigits_in_hex
        0x00001c48:    b530        0.      PUSH     {r4,r5,lr}
        0x00001c4a:    4602        .F      MOV      r2,r0
        0x00001c4c:    460b        .F      MOV      r3,r1
        0x00001c4e:    2400        .$      MOVS     r4,#0
        0x00001c50:    ea820104    ....    EOR      r1,r2,r4
        0x00001c54:    405c        \@      EORS     r4,r4,r3
        0x00001c56:    4321        !C      ORRS     r1,r1,r4
        0x00001c58:    d101        ..      BNE      0x1c5e ; ndigits_in_hex + 22
        0x00001c5a:    2101        .!      MOVS     r1,#1
        0x00001c5c:    e000        ..      B        0x1c60 ; ndigits_in_hex + 24
        0x00001c5e:    2100        .!      MOVS     r1,#0
        0x00001c60:    4608        .F      MOV      r0,r1
        0x00001c62:    e004        ..      B        0x1c6e ; ndigits_in_hex + 38
        0x00001c64:    0911        ..      LSRS     r1,r2,#4
        0x00001c66:    ea417203    A..r    ORR      r2,r1,r3,LSL #28
        0x00001c6a:    091b        ..      LSRS     r3,r3,#4
        0x00001c6c:    1c40        @.      ADDS     r0,r0,#1
        0x00001c6e:    2400        .$      MOVS     r4,#0
        0x00001c70:    ea820104    ....    EOR      r1,r2,r4
        0x00001c74:    405c        \@      EORS     r4,r4,r3
        0x00001c76:    4321        !C      ORRS     r1,r1,r4
        0x00001c78:    d1f4        ..      BNE      0x1c64 ; ndigits_in_hex + 28
        0x00001c7a:    bd30        0.      POP      {r4,r5,pc}
    i.ndigits_in_i64
    ndigits_in_i64
        0x00001c7c:    b570        p.      PUSH     {r4-r6,lr}
        0x00001c7e:    4604        .F      MOV      r4,r0
        0x00001c80:    460d        .F      MOV      r5,r1
        0x00001c82:    2100        .!      MOVS     r1,#0
        0x00001c84:    4608        .F      MOV      r0,r1
        0x00001c86:    1a61        a.      SUBS     r1,r4,r1
        0x00001c88:    eb750000    u...    SBCS     r0,r5,r0
        0x00001c8c:    da03        ..      BGE      0x1c96 ; ndigits_in_i64 + 26
        0x00001c8e:    2200        ."      MOVS     r2,#0
        0x00001c90:    4264        dB      RSBS     r4,r4,#0
        0x00001c92:    eb620505    b...    SBC      r5,r2,r5
        0x00001c96:    4620         F      MOV      r0,r4
        0x00001c98:    4629        )F      MOV      r1,r5
        0x00001c9a:    f000f801    ....    BL       ndigits_in_u64 ; 0x1ca0
        0x00001c9e:    bd70        p.      POP      {r4-r6,pc}
    i.ndigits_in_u64
    ndigits_in_u64
        0x00001ca0:    b570        p.      PUSH     {r4-r6,lr}
        0x00001ca2:    4604        .F      MOV      r4,r0
        0x00001ca4:    460d        .F      MOV      r5,r1
        0x00001ca6:    2100        .!      MOVS     r1,#0
        0x00001ca8:    ea840001    ....    EOR      r0,r4,r1
        0x00001cac:    4069        i@      EORS     r1,r1,r5
        0x00001cae:    4308        .C      ORRS     r0,r0,r1
        0x00001cb0:    d101        ..      BNE      0x1cb6 ; ndigits_in_u64 + 22
        0x00001cb2:    2001        .       MOVS     r0,#1
        0x00001cb4:    e000        ..      B        0x1cb8 ; ndigits_in_u64 + 24
        0x00001cb6:    2000        .       MOVS     r0,#0
        0x00001cb8:    4606        .F      MOV      r6,r0
        0x00001cba:    e006        ..      B        0x1cca ; ndigits_in_u64 + 42
        0x00001cbc:    4620         F      MOV      r0,r4
        0x00001cbe:    4629        )F      MOV      r1,r5
        0x00001cc0:    f7fffe4b    ..K.    BL       divu64_10 ; 0x195a
        0x00001cc4:    4604        .F      MOV      r4,r0
        0x00001cc6:    460d        .F      MOV      r5,r1
        0x00001cc8:    1c76        v.      ADDS     r6,r6,#1
        0x00001cca:    2100        .!      MOVS     r1,#0
        0x00001ccc:    ea840001    ....    EOR      r0,r4,r1
        0x00001cd0:    4069        i@      EORS     r1,r1,r5
        0x00001cd2:    4308        .C      ORRS     r0,r0,r1
        0x00001cd4:    d1f2        ..      BNE      0x1cbc ; ndigits_in_u64 + 28
        0x00001cd6:    4630        0F      MOV      r0,r6
        0x00001cd8:    bd70        p.      POP      {r4-r6,pc}
    i.padbuffer
    padbuffer
        0x00001cda:    b530        0.      PUSH     {r4,r5,lr}
        0x00001cdc:    4603        .F      MOV      r3,r0
        0x00001cde:    2000        .       MOVS     r0,#0
        0x00001ce0:    2a00        .*      CMP      r2,#0
        0x00001ce2:    dc00        ..      BGT      0x1ce6 ; padbuffer + 12
        0x00001ce4:    bd30        0.      POP      {r4,r5,pc}
        0x00001ce6:    e003        ..      B        0x1cf0 ; padbuffer + 22
        0x00001ce8:    b10b        ..      CBZ      r3,0x1cee ; padbuffer + 20
        0x00001cea:    f8031b01    ....    STRB     r1,[r3],#1
        0x00001cee:    1c40        @.      ADDS     r0,r0,#1
        0x00001cf0:    1e14        ..      SUBS     r4,r2,#0
        0x00001cf2:    f1a20201    ....    SUB      r2,r2,#1
        0x00001cf6:    d1f7        ..      BNE      0x1ce8 ; padbuffer + 14
        0x00001cf8:    bf00        ..      NOP      
        0x00001cfa:    e7f3        ..      B        0x1ce4 ; padbuffer + 10
    i.prvAddCurrentTaskToDelayedList
    prvAddCurrentTaskToDelayedList
        0x00001cfc:    e92d41f0    -..A    PUSH     {r4-r8,lr}
        0x00001d00:    4605        .F      MOV      r5,r0
        0x00001d02:    460e        .F      MOV      r6,r1
        0x00001d04:    4816        .H      LDR      r0,[pc,#88] ; [0x1d60] = 0x10000048
        0x00001d06:    6807        .h      LDR      r7,[r0,#0]
        0x00001d08:    4816        .H      LDR      r0,[pc,#88] ; [0x1d64] = 0x10000038
        0x00001d0a:    6800        .h      LDR      r0,[r0,#0]
        0x00001d0c:    1d00        ..      ADDS     r0,r0,#4
        0x00001d0e:    f000fd66    ..f.    BL       uxListRemove ; 0x27de
        0x00001d12:    1c68        h.      ADDS     r0,r5,#1
        0x00001d14:    b938        8.      CBNZ     r0,0x1d26 ; prvAddCurrentTaskToDelayedList + 42
        0x00001d16:    b136        6.      CBZ      r6,0x1d26 ; prvAddCurrentTaskToDelayedList + 42
        0x00001d18:    4812        .H      LDR      r0,[pc,#72] ; [0x1d64] = 0x10000038
        0x00001d1a:    6801        .h      LDR      r1,[r0,#0]
        0x00001d1c:    1d09        ..      ADDS     r1,r1,#4
        0x00001d1e:    4812        .H      LDR      r0,[pc,#72] ; [0x1d68] = 0x10004144
        0x00001d20:    f000fdb7    ....    BL       vListInsertEnd ; 0x2892
        0x00001d24:    e01a        ..      B        0x1d5c ; prvAddCurrentTaskToDelayedList + 96
        0x00001d26:    197c        |.      ADDS     r4,r7,r5
        0x00001d28:    480e        .H      LDR      r0,[pc,#56] ; [0x1d64] = 0x10000038
        0x00001d2a:    6800        .h      LDR      r0,[r0,#0]
        0x00001d2c:    6044        D`      STR      r4,[r0,#4]
        0x00001d2e:    42bc        .B      CMP      r4,r7
        0x00001d30:    d207        ..      BCS      0x1d42 ; prvAddCurrentTaskToDelayedList + 70
        0x00001d32:    480c        .H      LDR      r0,[pc,#48] ; [0x1d64] = 0x10000038
        0x00001d34:    6801        .h      LDR      r1,[r0,#0]
        0x00001d36:    1d09        ..      ADDS     r1,r1,#4
        0x00001d38:    480c        .H      LDR      r0,[pc,#48] ; [0x1d6c] = 0x10000040
        0x00001d3a:    6800        .h      LDR      r0,[r0,#0]
        0x00001d3c:    f000fd8f    ....    BL       vListInsert ; 0x285e
        0x00001d40:    e00c        ..      B        0x1d5c ; prvAddCurrentTaskToDelayedList + 96
        0x00001d42:    4808        .H      LDR      r0,[pc,#32] ; [0x1d64] = 0x10000038
        0x00001d44:    6801        .h      LDR      r1,[r0,#0]
        0x00001d46:    1d09        ..      ADDS     r1,r1,#4
        0x00001d48:    4809        .H      LDR      r0,[pc,#36] ; [0x1d70] = 0x1000003c
        0x00001d4a:    6800        .h      LDR      r0,[r0,#0]
        0x00001d4c:    f000fd87    ....    BL       vListInsert ; 0x285e
        0x00001d50:    4808        .H      LDR      r0,[pc,#32] ; [0x1d74] = 0x10000064
        0x00001d52:    6800        .h      LDR      r0,[r0,#0]
        0x00001d54:    4284        .B      CMP      r4,r0
        0x00001d56:    d201        ..      BCS      0x1d5c ; prvAddCurrentTaskToDelayedList + 96
        0x00001d58:    4806        .H      LDR      r0,[pc,#24] ; [0x1d74] = 0x10000064
        0x00001d5a:    6004        .`      STR      r4,[r0,#0]
        0x00001d5c:    e8bd81f0    ....    POP      {r4-r8,pc}
    $d
        0x00001d60:    10000048    H...    DCD    268435528
        0x00001d64:    10000038    8...    DCD    268435512
        0x00001d68:    10004144    DA..    DCD    268452164
        0x00001d6c:    10000040    @...    DCD    268435520
        0x00001d70:    1000003c    <...    DCD    268435516
        0x00001d74:    10000064    d...    DCD    268435556
    $t
    i.prvAddNewTaskToReadyList
    prvAddNewTaskToReadyList
        0x00001d78:    b510        ..      PUSH     {r4,lr}
        0x00001d7a:    4604        .F      MOV      r4,r0
        0x00001d7c:    f000fd96    ....    BL       vPortEnterCritical ; 0x28ac
        0x00001d80:    4822        "H      LDR      r0,[pc,#136] ; [0x1e0c] = 0x10000044
        0x00001d82:    6800        .h      LDR      r0,[r0,#0]
        0x00001d84:    1c40        @.      ADDS     r0,r0,#1
        0x00001d86:    4921        !I      LDR      r1,[pc,#132] ; [0x1e0c] = 0x10000044
        0x00001d88:    6008        .`      STR      r0,[r1,#0]
        0x00001d8a:    4821        !H      LDR      r0,[pc,#132] ; [0x1e10] = 0x10000038
        0x00001d8c:    6800        .h      LDR      r0,[r0,#0]
        0x00001d8e:    b940        @.      CBNZ     r0,0x1da2 ; prvAddNewTaskToReadyList + 42
        0x00001d90:    481f        .H      LDR      r0,[pc,#124] ; [0x1e10] = 0x10000038
        0x00001d92:    6004        .`      STR      r4,[r0,#0]
        0x00001d94:    4608        .F      MOV      r0,r1
        0x00001d96:    6800        .h      LDR      r0,[r0,#0]
        0x00001d98:    2801        .(      CMP      r0,#1
        0x00001d9a:    d10d        ..      BNE      0x1db8 ; prvAddNewTaskToReadyList + 64
        0x00001d9c:    f000f9a6    ....    BL       prvInitialiseTaskLists ; 0x20ec
        0x00001da0:    e00a        ..      B        0x1db8 ; prvAddNewTaskToReadyList + 64
        0x00001da2:    481c        .H      LDR      r0,[pc,#112] ; [0x1e14] = 0x10000050
        0x00001da4:    6800        .h      LDR      r0,[r0,#0]
        0x00001da6:    b938        8.      CBNZ     r0,0x1db8 ; prvAddNewTaskToReadyList + 64
        0x00001da8:    4819        .H      LDR      r0,[pc,#100] ; [0x1e10] = 0x10000038
        0x00001daa:    6800        .h      LDR      r0,[r0,#0]
        0x00001dac:    6ac0        .j      LDR      r0,[r0,#0x2c]
        0x00001dae:    6ae1        .j      LDR      r1,[r4,#0x2c]
        0x00001db0:    4288        .B      CMP      r0,r1
        0x00001db2:    d801        ..      BHI      0x1db8 ; prvAddNewTaskToReadyList + 64
        0x00001db4:    4816        .H      LDR      r0,[pc,#88] ; [0x1e10] = 0x10000038
        0x00001db6:    6004        .`      STR      r4,[r0,#0]
        0x00001db8:    4817        .H      LDR      r0,[pc,#92] ; [0x1e18] = 0x10000060
        0x00001dba:    6800        .h      LDR      r0,[r0,#0]
        0x00001dbc:    1c40        @.      ADDS     r0,r0,#1
        0x00001dbe:    4916        .I      LDR      r1,[pc,#88] ; [0x1e18] = 0x10000060
        0x00001dc0:    6008        .`      STR      r0,[r1,#0]
        0x00001dc2:    4916        .I      LDR      r1,[pc,#88] ; [0x1e1c] = 0x1000004c
        0x00001dc4:    6ae0        .j      LDR      r0,[r4,#0x2c]
        0x00001dc6:    6809        .h      LDR      r1,[r1,#0]
        0x00001dc8:    4288        .B      CMP      r0,r1
        0x00001dca:    d902        ..      BLS      0x1dd2 ; prvAddNewTaskToReadyList + 90
        0x00001dcc:    4913        .I      LDR      r1,[pc,#76] ; [0x1e1c] = 0x1000004c
        0x00001dce:    6ae0        .j      LDR      r0,[r4,#0x2c]
        0x00001dd0:    6008        .`      STR      r0,[r1,#0]
        0x00001dd2:    6ae1        .j      LDR      r1,[r4,#0x2c]
        0x00001dd4:    eb010181    ....    ADD      r1,r1,r1,LSL #2
        0x00001dd8:    4a11        .J      LDR      r2,[pc,#68] ; [0x1e20] = 0x100040b8
        0x00001dda:    eb020081    ....    ADD      r0,r2,r1,LSL #2
        0x00001dde:    1d21        !.      ADDS     r1,r4,#4
        0x00001de0:    f000fd57    ..W.    BL       vListInsertEnd ; 0x2892
        0x00001de4:    f000fd84    ....    BL       vPortExitCritical ; 0x28f0
        0x00001de8:    480a        .H      LDR      r0,[pc,#40] ; [0x1e14] = 0x10000050
        0x00001dea:    6800        .h      LDR      r0,[r0,#0]
        0x00001dec:    b168        h.      CBZ      r0,0x1e0a ; prvAddNewTaskToReadyList + 146
        0x00001dee:    4808        .H      LDR      r0,[pc,#32] ; [0x1e10] = 0x10000038
        0x00001df0:    6800        .h      LDR      r0,[r0,#0]
        0x00001df2:    6ac0        .j      LDR      r0,[r0,#0x2c]
        0x00001df4:    6ae1        .j      LDR      r1,[r4,#0x2c]
        0x00001df6:    4288        .B      CMP      r0,r1
        0x00001df8:    d207        ..      BCS      0x1e0a ; prvAddNewTaskToReadyList + 146
        0x00001dfa:    f04f5080    O..P    MOV      r0,#0x10000000
        0x00001dfe:    4909        .I      LDR      r1,[pc,#36] ; [0x1e24] = 0xe000ed04
        0x00001e00:    6008        .`      STR      r0,[r1,#0]
        0x00001e02:    f3bf8f4f    ..O.    DSB      
        0x00001e06:    f3bf8f6f    ..o.    ISB      
        0x00001e0a:    bd10        ..      POP      {r4,pc}
    $d
        0x00001e0c:    10000044    D...    DCD    268435524
        0x00001e10:    10000038    8...    DCD    268435512
        0x00001e14:    10000050    P...    DCD    268435536
        0x00001e18:    10000060    `...    DCD    268435552
        0x00001e1c:    1000004c    L...    DCD    268435532
        0x00001e20:    100040b8    .@..    DCD    268452024
        0x00001e24:    e000ed04    ....    DCD    3758157060
    $t
    i.prvCheckForValidListAndQueue
    prvCheckForValidListAndQueue
        0x00001e28:    b510        ..      PUSH     {r4,lr}
        0x00001e2a:    f000fd3f    ..?.    BL       vPortEnterCritical ; 0x28ac
        0x00001e2e:    480c        .H      LDR      r0,[pc,#48] ; [0x1e60] = 0x10000078
        0x00001e30:    6800        .h      LDR      r0,[r0,#0]
        0x00001e32:    b990        ..      CBNZ     r0,0x1e5a ; prvCheckForValidListAndQueue + 50
        0x00001e34:    480b        .H      LDR      r0,[pc,#44] ; [0x1e64] = 0x10004158
        0x00001e36:    f000fd02    ....    BL       vListInitialise ; 0x283e
        0x00001e3a:    480b        .H      LDR      r0,[pc,#44] ; [0x1e68] = 0x1000416c
        0x00001e3c:    f000fcff    ....    BL       vListInitialise ; 0x283e
        0x00001e40:    4808        .H      LDR      r0,[pc,#32] ; [0x1e64] = 0x10004158
        0x00001e42:    490a        .I      LDR      r1,[pc,#40] ; [0x1e6c] = 0x10000070
        0x00001e44:    6008        .`      STR      r0,[r1,#0]
        0x00001e46:    4808        .H      LDR      r0,[pc,#32] ; [0x1e68] = 0x1000416c
        0x00001e48:    4909        .I      LDR      r1,[pc,#36] ; [0x1e70] = 0x10000074
        0x00001e4a:    6008        .`      STR      r0,[r1,#0]
        0x00001e4c:    2200        ."      MOVS     r2,#0
        0x00001e4e:    2110        .!      MOVS     r1,#0x10
        0x00001e50:    2005        .       MOVS     r0,#5
        0x00001e52:    f001f9e7    ....    BL       xQueueGenericCreate ; 0x3224
        0x00001e56:    4902        .I      LDR      r1,[pc,#8] ; [0x1e60] = 0x10000078
        0x00001e58:    6008        .`      STR      r0,[r1,#0]
        0x00001e5a:    f000fd49    ..I.    BL       vPortExitCritical ; 0x28f0
        0x00001e5e:    bd10        ..      POP      {r4,pc}
    $d
        0x00001e60:    10000078    x...    DCD    268435576
        0x00001e64:    10004158    XA..    DCD    268452184
        0x00001e68:    1000416c    lA..    DCD    268452204
        0x00001e6c:    10000070    p...    DCD    268435568
        0x00001e70:    10000074    t...    DCD    268435572
    $t
    i.prvCheckTasksWaitingTermination
    prvCheckTasksWaitingTermination
        0x00001e74:    4770        pG      BX       lr
    i.prvCopyDataFromQueue
    prvCopyDataFromQueue
        0x00001e76:    b570        p.      PUSH     {r4-r6,lr}
        0x00001e78:    4604        .F      MOV      r4,r0
        0x00001e7a:    460d        .F      MOV      r5,r1
        0x00001e7c:    6c20         l      LDR      r0,[r4,#0x40]
        0x00001e7e:    b170        p.      CBZ      r0,0x1e9e ; prvCopyDataFromQueue + 40
        0x00001e80:    6c21        !l      LDR      r1,[r4,#0x40]
        0x00001e82:    68e0        .h      LDR      r0,[r4,#0xc]
        0x00001e84:    4401        .D      ADD      r1,r1,r0
        0x00001e86:    60e1        .`      STR      r1,[r4,#0xc]
        0x00001e88:    e9d41002    ....    LDRD     r1,r0,[r4,#8]
        0x00001e8c:    4288        .B      CMP      r0,r1
        0x00001e8e:    d301        ..      BCC      0x1e94 ; prvCopyDataFromQueue + 30
        0x00001e90:    6821        !h      LDR      r1,[r4,#0]
        0x00001e92:    60e1        .`      STR      r1,[r4,#0xc]
        0x00001e94:    4628        (F      MOV      r0,r5
        0x00001e96:    6c22        "l      LDR      r2,[r4,#0x40]
        0x00001e98:    68e1        .h      LDR      r1,[r4,#0xc]
        0x00001e9a:    f7fef9ed    ....    BL       __aeabi_memcpy ; 0x278
        0x00001e9e:    bd70        p.      POP      {r4-r6,pc}
    i.prvCopyDataToQueue
    prvCopyDataToQueue
        0x00001ea0:    e92d41f0    -..A    PUSH     {r4-r8,lr}
        0x00001ea4:    4604        .F      MOV      r4,r0
        0x00001ea6:    460f        .F      MOV      r7,r1
        0x00001ea8:    4615        .F      MOV      r5,r2
        0x00001eaa:    f04f0800    O...    MOV      r8,#0
        0x00001eae:    6ba6        .k      LDR      r6,[r4,#0x38]
        0x00001eb0:    6c20         l      LDR      r0,[r4,#0x40]
        0x00001eb2:    b328        (.      CBZ      r0,0x1f00 ; prvCopyDataToQueue + 96
        0x00001eb4:    b97d        }.      CBNZ     r5,0x1ed6 ; prvCopyDataToQueue + 54
        0x00001eb6:    4639        9F      MOV      r1,r7
        0x00001eb8:    6c22        "l      LDR      r2,[r4,#0x40]
        0x00001eba:    6860        `h      LDR      r0,[r4,#4]
        0x00001ebc:    f7fef9dc    ....    BL       __aeabi_memcpy ; 0x278
        0x00001ec0:    6c21        !l      LDR      r1,[r4,#0x40]
        0x00001ec2:    6860        `h      LDR      r0,[r4,#4]
        0x00001ec4:    4408        .D      ADD      r0,r0,r1
        0x00001ec6:    6060        ``      STR      r0,[r4,#4]
        0x00001ec8:    e9d40101    ....    LDRD     r0,r1,[r4,#4]
        0x00001ecc:    4288        .B      CMP      r0,r1
        0x00001ece:    d317        ..      BCC      0x1f00 ; prvCopyDataToQueue + 96
        0x00001ed0:    6820         h      LDR      r0,[r4,#0]
        0x00001ed2:    6060        ``      STR      r0,[r4,#4]
        0x00001ed4:    e014        ..      B        0x1f00 ; prvCopyDataToQueue + 96
        0x00001ed6:    4639        9F      MOV      r1,r7
        0x00001ed8:    6c22        "l      LDR      r2,[r4,#0x40]
        0x00001eda:    68e0        .h      LDR      r0,[r4,#0xc]
        0x00001edc:    f7fef9cc    ....    BL       __aeabi_memcpy ; 0x278
        0x00001ee0:    6c21        !l      LDR      r1,[r4,#0x40]
        0x00001ee2:    68e0        .h      LDR      r0,[r4,#0xc]
        0x00001ee4:    1a41        A.      SUBS     r1,r0,r1
        0x00001ee6:    60e1        .`      STR      r1,[r4,#0xc]
        0x00001ee8:    6821        !h      LDR      r1,[r4,#0]
        0x00001eea:    68e0        .h      LDR      r0,[r4,#0xc]
        0x00001eec:    4288        .B      CMP      r0,r1
        0x00001eee:    d203        ..      BCS      0x1ef8 ; prvCopyDataToQueue + 88
        0x00001ef0:    6c21        !l      LDR      r1,[r4,#0x40]
        0x00001ef2:    68a0        .h      LDR      r0,[r4,#8]
        0x00001ef4:    1a41        A.      SUBS     r1,r0,r1
        0x00001ef6:    60e1        .`      STR      r1,[r4,#0xc]
        0x00001ef8:    2d02        .-      CMP      r5,#2
        0x00001efa:    d101        ..      BNE      0x1f00 ; prvCopyDataToQueue + 96
        0x00001efc:    b106        ..      CBZ      r6,0x1f00 ; prvCopyDataToQueue + 96
        0x00001efe:    1e76        v.      SUBS     r6,r6,#1
        0x00001f00:    1c70        p.      ADDS     r0,r6,#1
        0x00001f02:    63a0        .c      STR      r0,[r4,#0x38]
        0x00001f04:    4640        @F      MOV      r0,r8
        0x00001f06:    e8bd81f0    ....    POP      {r4-r8,pc}
        0x00001f0a:    0000        ..      MOVS     r0,r0
    i.prvGetExpectedIdleTime
    prvGetExpectedIdleTime
        0x00001f0c:    2100        .!      MOVS     r1,#0
        0x00001f0e:    4a0c        .J      LDR      r2,[pc,#48] ; [0x1f40] = 0x1000004c
        0x00001f10:    6812        .h      LDR      r2,[r2,#0]
        0x00001f12:    b102        ..      CBZ      r2,0x1f16 ; prvGetExpectedIdleTime + 10
        0x00001f14:    2101        .!      MOVS     r1,#1
        0x00001f16:    4a0b        .J      LDR      r2,[pc,#44] ; [0x1f44] = 0x10000038
        0x00001f18:    6812        .h      LDR      r2,[r2,#0]
        0x00001f1a:    6ad2        .j      LDR      r2,[r2,#0x2c]
        0x00001f1c:    b10a        ..      CBZ      r2,0x1f22 ; prvGetExpectedIdleTime + 22
        0x00001f1e:    2000        .       MOVS     r0,#0
        0x00001f20:    e00d        ..      B        0x1f3e ; prvGetExpectedIdleTime + 50
        0x00001f22:    4a09        .J      LDR      r2,[pc,#36] ; [0x1f48] = 0x100040b8
        0x00001f24:    6812        .h      LDR      r2,[r2,#0]
        0x00001f26:    2a01        .*      CMP      r2,#1
        0x00001f28:    d901        ..      BLS      0x1f2e ; prvGetExpectedIdleTime + 34
        0x00001f2a:    2000        .       MOVS     r0,#0
        0x00001f2c:    e007        ..      B        0x1f3e ; prvGetExpectedIdleTime + 50
        0x00001f2e:    b109        ..      CBZ      r1,0x1f34 ; prvGetExpectedIdleTime + 40
        0x00001f30:    2000        .       MOVS     r0,#0
        0x00001f32:    e004        ..      B        0x1f3e ; prvGetExpectedIdleTime + 50
        0x00001f34:    4a05        .J      LDR      r2,[pc,#20] ; [0x1f4c] = 0x10000064
        0x00001f36:    6812        .h      LDR      r2,[r2,#0]
        0x00001f38:    4b05        .K      LDR      r3,[pc,#20] ; [0x1f50] = 0x10000048
        0x00001f3a:    681b        .h      LDR      r3,[r3,#0]
        0x00001f3c:    1ad0        ..      SUBS     r0,r2,r3
        0x00001f3e:    4770        pG      BX       lr
    $d
        0x00001f40:    1000004c    L...    DCD    268435532
        0x00001f44:    10000038    8...    DCD    268435512
        0x00001f48:    100040b8    .@..    DCD    268452024
        0x00001f4c:    10000064    d...    DCD    268435556
        0x00001f50:    10000048    H...    DCD    268435528
    $t
    i.prvGetNextExpireTime
    prvGetNextExpireTime
        0x00001f54:    4601        .F      MOV      r1,r0
        0x00001f56:    4a08        .J      LDR      r2,[pc,#32] ; [0x1f78] = 0x10000070
        0x00001f58:    6812        .h      LDR      r2,[r2,#0]
        0x00001f5a:    6812        .h      LDR      r2,[r2,#0]
        0x00001f5c:    b90a        ..      CBNZ     r2,0x1f62 ; prvGetNextExpireTime + 14
        0x00001f5e:    2201        ."      MOVS     r2,#1
        0x00001f60:    e000        ..      B        0x1f64 ; prvGetNextExpireTime + 16
        0x00001f62:    2200        ."      MOVS     r2,#0
        0x00001f64:    600a        .`      STR      r2,[r1,#0]
        0x00001f66:    680a        .h      LDR      r2,[r1,#0]
        0x00001f68:    b922        ".      CBNZ     r2,0x1f74 ; prvGetNextExpireTime + 32
        0x00001f6a:    4a03        .J      LDR      r2,[pc,#12] ; [0x1f78] = 0x10000070
        0x00001f6c:    6812        .h      LDR      r2,[r2,#0]
        0x00001f6e:    68d2        .h      LDR      r2,[r2,#0xc]
        0x00001f70:    6810        .h      LDR      r0,[r2,#0]
        0x00001f72:    e000        ..      B        0x1f76 ; prvGetNextExpireTime + 34
        0x00001f74:    2000        .       MOVS     r0,#0
        0x00001f76:    4770        pG      BX       lr
    $d
        0x00001f78:    10000070    p...    DCD    268435568
    $t
    i.prvHeapInit
    prvHeapInit
        0x00001f7c:    4a0a        .J      LDR      r2,[pc,#40] ; [0x1fa8] = 0x100000c0
        0x00001f7e:    f0220007    "...    BIC      r0,r2,#7
        0x00001f82:    4a0a        .J      LDR      r2,[pc,#40] ; [0x1fac] = 0x10000020
        0x00001f84:    6010        .`      STR      r0,[r2,#0]
        0x00001f86:    2200        ."      MOVS     r2,#0
        0x00001f88:    4b08        .K      LDR      r3,[pc,#32] ; [0x1fac] = 0x10000020
        0x00001f8a:    605a        Z`      STR      r2,[r3,#4]
        0x00001f8c:    f64372f8    C..r    MOV      r2,#0x3ff8
        0x00001f90:    4b07        .K      LDR      r3,[pc,#28] ; [0x1fb0] = 0x10000028
        0x00001f92:    605a        Z`      STR      r2,[r3,#4]
        0x00001f94:    2200        ."      MOVS     r2,#0
        0x00001f96:    601a        .`      STR      r2,[r3,#0]
        0x00001f98:    4601        .F      MOV      r1,r0
        0x00001f9a:    f64372f8    C..r    MOV      r2,#0x3ff8
        0x00001f9e:    604a        J`      STR      r2,[r1,#4]
        0x00001fa0:    461a        .F      MOV      r2,r3
        0x00001fa2:    600a        .`      STR      r2,[r1,#0]
        0x00001fa4:    4770        pG      BX       lr
    $d
        0x00001fa6:    0000        ..      DCW    0
        0x00001fa8:    100000c0    ....    DCD    268435648
        0x00001fac:    10000020     ...    DCD    268435488
        0x00001fb0:    10000028    (...    DCD    268435496
    $t
    i.prvIdleTask
    prvIdleTask
        0x00001fb4:    bf00        ..      NOP      
        0x00001fb6:    f7ffff5d    ..].    BL       prvCheckTasksWaitingTermination ; 0x1e74
        0x00001fba:    4815        .H      LDR      r0,[pc,#84] ; [0x2010] = 0x100040b8
        0x00001fbc:    6800        .h      LDR      r0,[r0,#0]
        0x00001fbe:    2801        .(      CMP      r0,#1
        0x00001fc0:    d907        ..      BLS      0x1fd2 ; prvIdleTask + 30
        0x00001fc2:    f04f5080    O..P    MOV      r0,#0x10000000
        0x00001fc6:    4913        .I      LDR      r1,[pc,#76] ; [0x2014] = 0xe000ed04
        0x00001fc8:    6008        .`      STR      r0,[r1,#0]
        0x00001fca:    f3bf8f4f    ..O.    DSB      
        0x00001fce:    f3bf8f6f    ..o.    ISB      
        0x00001fd2:    f7ffff9b    ....    BL       prvGetExpectedIdleTime ; 0x1f0c
        0x00001fd6:    4604        .F      MOV      r4,r0
        0x00001fd8:    2c02        .,      CMP      r4,#2
        0x00001fda:    d317        ..      BCC      0x200c ; prvIdleTask + 88
        0x00001fdc:    f000ff24    ..$.    BL       vTaskSuspendAll ; 0x2e28
        0x00001fe0:    480d        .H      LDR      r0,[pc,#52] ; [0x2018] = 0x10000064
        0x00001fe2:    6800        .h      LDR      r0,[r0,#0]
        0x00001fe4:    490d        .I      LDR      r1,[pc,#52] ; [0x201c] = 0x10000048
        0x00001fe6:    6809        .h      LDR      r1,[r1,#0]
        0x00001fe8:    4288        .B      CMP      r0,r1
        0x00001fea:    d301        ..      BCC      0x1ff0 ; prvIdleTask + 60
        0x00001fec:    2001        .       MOVS     r0,#1
        0x00001fee:    e000        ..      B        0x1ff2 ; prvIdleTask + 62
        0x00001ff0:    2000        .       MOVS     r0,#0
        0x00001ff2:    b908        ..      CBNZ     r0,0x1ff8 ; prvIdleTask + 68
        0x00001ff4:    bf00        ..      NOP      
        0x00001ff6:    e7fe        ..      B        0x1ff6 ; prvIdleTask + 66
        0x00001ff8:    f7ffff88    ....    BL       prvGetExpectedIdleTime ; 0x1f0c
        0x00001ffc:    4604        .F      MOV      r4,r0
        0x00001ffe:    2c02        .,      CMP      r4,#2
        0x00002000:    d302        ..      BCC      0x2008 ; prvIdleTask + 84
        0x00002002:    4620         F      MOV      r0,r4
        0x00002004:    f000fce2    ....    BL       vPortSuppressTicksAndSleep ; 0x29cc
        0x00002008:    f001fc68    ..h.    BL       xTaskResumeAll ; 0x38dc
        0x0000200c:    e7d3        ..      B        0x1fb6 ; prvIdleTask + 2
    $d
        0x0000200e:    0000        ..      DCW    0
        0x00002010:    100040b8    .@..    DCD    268452024
        0x00002014:    e000ed04    ....    DCD    3758157060
        0x00002018:    10000064    d...    DCD    268435556
        0x0000201c:    10000048    H...    DCD    268435528
    $t
    i.prvInitialiseNewQueue
    prvInitialiseNewQueue
        0x00002020:    e92d41f0    -..A    PUSH     {r4-r8,lr}
        0x00002024:    4606        .F      MOV      r6,r0
        0x00002026:    460d        .F      MOV      r5,r1
        0x00002028:    4617        .F      MOV      r7,r2
        0x0000202a:    4698        .F      MOV      r8,r3
        0x0000202c:    9c06        ..      LDR      r4,[sp,#0x18]
        0x0000202e:    b90d        ..      CBNZ     r5,0x2034 ; prvInitialiseNewQueue + 20
        0x00002030:    6024        $`      STR      r4,[r4,#0]
        0x00002032:    e000        ..      B        0x2036 ; prvInitialiseNewQueue + 22
        0x00002034:    6027        '`      STR      r7,[r4,#0]
        0x00002036:    63e6        .c      STR      r6,[r4,#0x3c]
        0x00002038:    6425        %d      STR      r5,[r4,#0x40]
        0x0000203a:    2101        .!      MOVS     r1,#1
        0x0000203c:    4620         F      MOV      r0,r4
        0x0000203e:    f001f915    ....    BL       xQueueGenericReset ; 0x326c
        0x00002042:    e8bd81f0    ....    POP      {r4-r8,pc}
    i.prvInitialiseNewTask
    prvInitialiseNewTask
        0x00002046:    e92d5ff0    -.._    PUSH     {r4-r12,lr}
        0x0000204a:    4682        .F      MOV      r10,r0
        0x0000204c:    460e        .F      MOV      r6,r1
        0x0000204e:    4617        .F      MOV      r7,r2
        0x00002050:    469b        .F      MOV      r11,r3
        0x00002052:    f8dd8028    ..(.    LDR      r8,[sp,#0x28]
        0x00002056:    9c0c        ..      LDR      r4,[sp,#0x30]
        0x00002058:    b90e        ..      CBNZ     r6,0x205e ; prvInitialiseNewTask + 24
        0x0000205a:    bf00        ..      NOP      
        0x0000205c:    e7fe        ..      B        0x205c ; prvInitialiseNewTask + 22
        0x0000205e:    00b9        ..      LSLS     r1,r7,#2
        0x00002060:    22a5        ."      MOVS     r2,#0xa5
        0x00002062:    6b20         k      LDR      r0,[r4,#0x30]
        0x00002064:    f7fef94d    ..M.    BL       __aeabi_memset ; 0x302
        0x00002068:    1e78        x.      SUBS     r0,r7,#1
        0x0000206a:    6b21        !k      LDR      r1,[r4,#0x30]
        0x0000206c:    eb010980    ....    ADD      r9,r1,r0,LSL #2
        0x00002070:    f0290907    )...    BIC      r9,r9,#7
        0x00002074:    f0090007    ....    AND      r0,r9,#7
        0x00002078:    b908        ..      CBNZ     r0,0x207e ; prvInitialiseNewTask + 56
        0x0000207a:    2001        .       MOVS     r0,#1
        0x0000207c:    e000        ..      B        0x2080 ; prvInitialiseNewTask + 58
        0x0000207e:    2000        .       MOVS     r0,#0
        0x00002080:    b908        ..      CBNZ     r0,0x2086 ; prvInitialiseNewTask + 64
        0x00002082:    bf00        ..      NOP      
        0x00002084:    e7fe        ..      B        0x2084 ; prvInitialiseNewTask + 62
        0x00002086:    2500        .%      MOVS     r5,#0
        0x00002088:    e007        ..      B        0x209a ; prvInitialiseNewTask + 84
        0x0000208a:    5d71        q]      LDRB     r1,[r6,r5]
        0x0000208c:    f1040034    ..4.    ADD      r0,r4,#0x34
        0x00002090:    5541        AU      STRB     r1,[r0,r5]
        0x00002092:    5d70        p]      LDRB     r0,[r6,r5]
        0x00002094:    b900        ..      CBNZ     r0,0x2098 ; prvInitialiseNewTask + 82
        0x00002096:    e002        ..      B        0x209e ; prvInitialiseNewTask + 88
        0x00002098:    1c6d        m.      ADDS     r5,r5,#1
        0x0000209a:    2d10        .-      CMP      r5,#0x10
        0x0000209c:    d3f5        ..      BCC      0x208a ; prvInitialiseNewTask + 68
        0x0000209e:    bf00        ..      NOP      
        0x000020a0:    2100        .!      MOVS     r1,#0
        0x000020a2:    2043        C       MOVS     r0,#0x43
        0x000020a4:    5501        .U      STRB     r1,[r0,r4]
        0x000020a6:    f1b80f04    ....    CMP      r8,#4
        0x000020aa:    d301        ..      BCC      0x20b0 ; prvInitialiseNewTask + 106
        0x000020ac:    f04f0803    O...    MOV      r8,#3
        0x000020b0:    f8c4802c    ..,.    STR      r8,[r4,#0x2c]
        0x000020b4:    1d20         .      ADDS     r0,r4,#4
        0x000020b6:    f000fbcf    ....    BL       vListInitialiseItem ; 0x2858
        0x000020ba:    f1040018    ....    ADD      r0,r4,#0x18
        0x000020be:    f000fbcb    ....    BL       vListInitialiseItem ; 0x2858
        0x000020c2:    6124        $a      STR      r4,[r4,#0x10]
        0x000020c4:    f1c80004    ....    RSB      r0,r8,#4
        0x000020c8:    61a0        .a      STR      r0,[r4,#0x18]
        0x000020ca:    6264        db      STR      r4,[r4,#0x24]
        0x000020cc:    2000        .       MOVS     r0,#0
        0x000020ce:    6460        `d      STR      r0,[r4,#0x44]
        0x000020d0:    f8840048    ..H.    STRB     r0,[r4,#0x48]
        0x000020d4:    465a        ZF      MOV      r2,r11
        0x000020d6:    4651        QF      MOV      r1,r10
        0x000020d8:    4648        HF      MOV      r0,r9
        0x000020da:    f000fa9d    ....    BL       pxPortInitialiseStack ; 0x2618
        0x000020de:    6020         `      STR      r0,[r4,#0]
        0x000020e0:    980b        ..      LDR      r0,[sp,#0x2c]
        0x000020e2:    b108        ..      CBZ      r0,0x20e8 ; prvInitialiseNewTask + 162
        0x000020e4:    980b        ..      LDR      r0,[sp,#0x2c]
        0x000020e6:    6004        .`      STR      r4,[r0,#0]
        0x000020e8:    e8bd9ff0    ....    POP      {r4-r12,pc}
    i.prvInitialiseTaskLists
    prvInitialiseTaskLists
        0x000020ec:    b510        ..      PUSH     {r4,lr}
        0x000020ee:    2400        .$      MOVS     r4,#0
        0x000020f0:    e007        ..      B        0x2102 ; prvInitialiseTaskLists + 22
        0x000020f2:    eb040184    ....    ADD      r1,r4,r4,LSL #2
        0x000020f6:    4a0d        .J      LDR      r2,[pc,#52] ; [0x212c] = 0x100040b8
        0x000020f8:    eb020081    ....    ADD      r0,r2,r1,LSL #2
        0x000020fc:    f000fb9f    ....    BL       vListInitialise ; 0x283e
        0x00002100:    1c64        d.      ADDS     r4,r4,#1
        0x00002102:    2c04        .,      CMP      r4,#4
        0x00002104:    d3f5        ..      BCC      0x20f2 ; prvInitialiseTaskLists + 6
        0x00002106:    480a        .H      LDR      r0,[pc,#40] ; [0x2130] = 0x10004108
        0x00002108:    f000fb99    ....    BL       vListInitialise ; 0x283e
        0x0000210c:    4809        .H      LDR      r0,[pc,#36] ; [0x2134] = 0x1000411c
        0x0000210e:    f000fb96    ....    BL       vListInitialise ; 0x283e
        0x00002112:    4809        .H      LDR      r0,[pc,#36] ; [0x2138] = 0x10004130
        0x00002114:    f000fb93    ....    BL       vListInitialise ; 0x283e
        0x00002118:    4808        .H      LDR      r0,[pc,#32] ; [0x213c] = 0x10004144
        0x0000211a:    f000fb90    ....    BL       vListInitialise ; 0x283e
        0x0000211e:    4804        .H      LDR      r0,[pc,#16] ; [0x2130] = 0x10004108
        0x00002120:    4907        .I      LDR      r1,[pc,#28] ; [0x2140] = 0x1000003c
        0x00002122:    6008        .`      STR      r0,[r1,#0]
        0x00002124:    4803        .H      LDR      r0,[pc,#12] ; [0x2134] = 0x1000411c
        0x00002126:    4907        .I      LDR      r1,[pc,#28] ; [0x2144] = 0x10000040
        0x00002128:    6008        .`      STR      r0,[r1,#0]
        0x0000212a:    bd10        ..      POP      {r4,pc}
    $d
        0x0000212c:    100040b8    .@..    DCD    268452024
        0x00002130:    10004108    .A..    DCD    268452104
        0x00002134:    1000411c    .A..    DCD    268452124
        0x00002138:    10004130    0A..    DCD    268452144
        0x0000213c:    10004144    DA..    DCD    268452164
        0x00002140:    1000003c    <...    DCD    268435516
        0x00002144:    10000040    @...    DCD    268435520
    $t
    i.prvInsertTimerInActiveList
    prvInsertTimerInActiveList
        0x00002148:    e92d41f0    -..A    PUSH     {r4-r8,lr}
        0x0000214c:    4604        .F      MOV      r4,r0
        0x0000214e:    460d        .F      MOV      r5,r1
        0x00002150:    4616        .F      MOV      r6,r2
        0x00002152:    461f        .F      MOV      r7,r3
        0x00002154:    f04f0800    O...    MOV      r8,#0
        0x00002158:    6065        e`      STR      r5,[r4,#4]
        0x0000215a:    6124        $a      STR      r4,[r4,#0x10]
        0x0000215c:    42b5        .B      CMP      r5,r6
        0x0000215e:    d80c        ..      BHI      0x217a ; prvInsertTimerInActiveList + 50
        0x00002160:    1bf0        ..      SUBS     r0,r6,r7
        0x00002162:    69a1        .i      LDR      r1,[r4,#0x18]
        0x00002164:    4288        .B      CMP      r0,r1
        0x00002166:    d302        ..      BCC      0x216e ; prvInsertTimerInActiveList + 38
        0x00002168:    f04f0801    O...    MOV      r8,#1
        0x0000216c:    e011        ..      B        0x2192 ; prvInsertTimerInActiveList + 74
        0x0000216e:    1d21        !.      ADDS     r1,r4,#4
        0x00002170:    4809        .H      LDR      r0,[pc,#36] ; [0x2198] = 0x10000074
        0x00002172:    6800        .h      LDR      r0,[r0,#0]
        0x00002174:    f000fb73    ..s.    BL       vListInsert ; 0x285e
        0x00002178:    e00b        ..      B        0x2192 ; prvInsertTimerInActiveList + 74
        0x0000217a:    42be        .B      CMP      r6,r7
        0x0000217c:    d204        ..      BCS      0x2188 ; prvInsertTimerInActiveList + 64
        0x0000217e:    42bd        .B      CMP      r5,r7
        0x00002180:    d302        ..      BCC      0x2188 ; prvInsertTimerInActiveList + 64
        0x00002182:    f04f0801    O...    MOV      r8,#1
        0x00002186:    e004        ..      B        0x2192 ; prvInsertTimerInActiveList + 74
        0x00002188:    1d21        !.      ADDS     r1,r4,#4
        0x0000218a:    4804        .H      LDR      r0,[pc,#16] ; [0x219c] = 0x10000070
        0x0000218c:    6800        .h      LDR      r0,[r0,#0]
        0x0000218e:    f000fb66    ..f.    BL       vListInsert ; 0x285e
        0x00002192:    4640        @F      MOV      r0,r8
        0x00002194:    e8bd81f0    ....    POP      {r4-r8,pc}
    $d
        0x00002198:    10000074    t...    DCD    268435572
        0x0000219c:    10000070    p...    DCD    268435568
    $t
    i.prvIsQueueEmpty
    prvIsQueueEmpty
        0x000021a0:    b570        p.      PUSH     {r4-r6,lr}
        0x000021a2:    4605        .F      MOV      r5,r0
        0x000021a4:    f000fb82    ....    BL       vPortEnterCritical ; 0x28ac
        0x000021a8:    6ba8        .k      LDR      r0,[r5,#0x38]
        0x000021aa:    b908        ..      CBNZ     r0,0x21b0 ; prvIsQueueEmpty + 16
        0x000021ac:    2401        .$      MOVS     r4,#1
        0x000021ae:    e000        ..      B        0x21b2 ; prvIsQueueEmpty + 18
        0x000021b0:    2400        .$      MOVS     r4,#0
        0x000021b2:    f000fb9d    ....    BL       vPortExitCritical ; 0x28f0
        0x000021b6:    4620         F      MOV      r0,r4
        0x000021b8:    bd70        p.      POP      {r4-r6,pc}
    i.prvIsQueueFull
    prvIsQueueFull
        0x000021ba:    b570        p.      PUSH     {r4-r6,lr}
        0x000021bc:    4605        .F      MOV      r5,r0
        0x000021be:    f000fb75    ..u.    BL       vPortEnterCritical ; 0x28ac
        0x000021c2:    6ba8        .k      LDR      r0,[r5,#0x38]
        0x000021c4:    6be9        .k      LDR      r1,[r5,#0x3c]
        0x000021c6:    4288        .B      CMP      r0,r1
        0x000021c8:    d101        ..      BNE      0x21ce ; prvIsQueueFull + 20
        0x000021ca:    2401        .$      MOVS     r4,#1
        0x000021cc:    e000        ..      B        0x21d0 ; prvIsQueueFull + 22
        0x000021ce:    2400        .$      MOVS     r4,#0
        0x000021d0:    f000fb8e    ....    BL       vPortExitCritical ; 0x28f0
        0x000021d4:    4620         F      MOV      r0,r4
        0x000021d6:    bd70        p.      POP      {r4-r6,pc}
    i.prvProcessExpiredTimer
    prvProcessExpiredTimer
        0x000021d8:    b5f8        ..      PUSH     {r3-r7,lr}
        0x000021da:    4605        .F      MOV      r5,r0
        0x000021dc:    460f        .F      MOV      r7,r1
        0x000021de:    4811        .H      LDR      r0,[pc,#68] ; [0x2224] = 0x10000070
        0x000021e0:    6800        .h      LDR      r0,[r0,#0]
        0x000021e2:    68c0        .h      LDR      r0,[r0,#0xc]
        0x000021e4:    68c4        .h      LDR      r4,[r0,#0xc]
        0x000021e6:    1d20         .      ADDS     r0,r4,#4
        0x000021e8:    f000faf9    ....    BL       uxListRemove ; 0x27de
        0x000021ec:    69e0        .i      LDR      r0,[r4,#0x1c]
        0x000021ee:    2801        .(      CMP      r0,#1
        0x000021f0:    d114        ..      BNE      0x221c ; prvProcessExpiredTimer + 68
        0x000021f2:    69a0        .i      LDR      r0,[r4,#0x18]
        0x000021f4:    1941        A.      ADDS     r1,r0,r5
        0x000021f6:    462b        +F      MOV      r3,r5
        0x000021f8:    463a        :F      MOV      r2,r7
        0x000021fa:    4620         F      MOV      r0,r4
        0x000021fc:    f7ffffa4    ....    BL       prvInsertTimerInActiveList ; 0x2148
        0x00002200:    b160        `.      CBZ      r0,0x221c ; prvProcessExpiredTimer + 68
        0x00002202:    2000        .       MOVS     r0,#0
        0x00002204:    4603        .F      MOV      r3,r0
        0x00002206:    462a        *F      MOV      r2,r5
        0x00002208:    4601        .F      MOV      r1,r0
        0x0000220a:    9000        ..      STR      r0,[sp,#0]
        0x0000220c:    4620         F      MOV      r0,r4
        0x0000220e:    f001fbff    ....    BL       xTimerGenericCommand ; 0x3a10
        0x00002212:    4606        .F      MOV      r6,r0
        0x00002214:    b90e        ..      CBNZ     r6,0x221a ; prvProcessExpiredTimer + 66
        0x00002216:    bf00        ..      NOP      
        0x00002218:    e7fe        ..      B        0x2218 ; prvProcessExpiredTimer + 64
        0x0000221a:    bf00        ..      NOP      
        0x0000221c:    4620         F      MOV      r0,r4
        0x0000221e:    6a61        aj      LDR      r1,[r4,#0x24]
        0x00002220:    4788        .G      BLX      r1
        0x00002222:    bdf8        ..      POP      {r3-r7,pc}
    $d
        0x00002224:    10000070    p...    DCD    268435568
    $t
    i.prvProcessReceivedCommands
    prvProcessReceivedCommands
        0x00002228:    b5f0        ..      PUSH     {r4-r7,lr}
        0x0000222a:    b087        ..      SUB      sp,sp,#0x1c
        0x0000222c:    e064        d.      B        0x22f8 ; prvProcessReceivedCommands + 208
        0x0000222e:    9803        ..      LDR      r0,[sp,#0xc]
        0x00002230:    2800        .(      CMP      r0,#0
        0x00002232:    da08        ..      BGE      0x2246 ; prvProcessReceivedCommands + 30
        0x00002234:    ae04        ..      ADD      r6,sp,#0x10
        0x00002236:    b90e        ..      CBNZ     r6,0x223c ; prvProcessReceivedCommands + 20
        0x00002238:    bf00        ..      NOP      
        0x0000223a:    e7fe        ..      B        0x223a ; prvProcessReceivedCommands + 18
        0x0000223c:    e9d62000    ...     LDRD     r2,r0,[r6,#0]
        0x00002240:    68b1        .h      LDR      r1,[r6,#8]
        0x00002242:    4790        .G      BLX      r2
        0x00002244:    bf00        ..      NOP      
        0x00002246:    9803        ..      LDR      r0,[sp,#0xc]
        0x00002248:    2800        .(      CMP      r0,#0
        0x0000224a:    db55        U.      BLT      0x22f8 ; prvProcessReceivedCommands + 208
        0x0000224c:    9c05        ..      LDR      r4,[sp,#0x14]
        0x0000224e:    6960        `i      LDR      r0,[r4,#0x14]
        0x00002250:    b908        ..      CBNZ     r0,0x2256 ; prvProcessReceivedCommands + 46
        0x00002252:    2001        .       MOVS     r0,#1
        0x00002254:    e000        ..      B        0x2258 ; prvProcessReceivedCommands + 48
        0x00002256:    2000        .       MOVS     r0,#0
        0x00002258:    b910        ..      CBNZ     r0,0x2260 ; prvProcessReceivedCommands + 56
        0x0000225a:    1d20         .      ADDS     r0,r4,#4
        0x0000225c:    f000fabf    ....    BL       uxListRemove ; 0x27de
        0x00002260:    a802        ..      ADD      r0,sp,#8
        0x00002262:    f000f8a9    ....    BL       prvSampleTimeNow ; 0x23b8
        0x00002266:    4605        .F      MOV      r5,r0
        0x00002268:    9803        ..      LDR      r0,[sp,#0xc]
        0x0000226a:    280a        .(      CMP      r0,#0xa
        0x0000226c:    d242        B.      BCS      0x22f4 ; prvProcessReceivedCommands + 204
        0x0000226e:    e8dff000    ....    TBB      [pc,r0]
    $d
        0x00002272:    0509        ..      DCW    1289
        0x00002274:    3d2a2807    .(*=    DCD    1026172935
        0x00002278:    2b290806    ..)+    DCD    724109318
    $t
        0x0000227c:    bf00        ..      NOP      
        0x0000227e:    bf00        ..      NOP      
        0x00002280:    bf00        ..      NOP      
        0x00002282:    bf00        ..      NOP      
        0x00002284:    9804        ..      LDR      r0,[sp,#0x10]
        0x00002286:    69a2        .i      LDR      r2,[r4,#0x18]
        0x00002288:    1881        ..      ADDS     r1,r0,r2
        0x0000228a:    4603        .F      MOV      r3,r0
        0x0000228c:    462a        *F      MOV      r2,r5
        0x0000228e:    4620         F      MOV      r0,r4
        0x00002290:    f7ffff5a    ..Z.    BL       prvInsertTimerInActiveList ; 0x2148
        0x00002294:    b1a0        ..      CBZ      r0,0x22c0 ; prvProcessReceivedCommands + 152
        0x00002296:    4620         F      MOV      r0,r4
        0x00002298:    6a61        aj      LDR      r1,[r4,#0x24]
        0x0000229a:    4788        .G      BLX      r1
        0x0000229c:    69e0        .i      LDR      r0,[r4,#0x1c]
        0x0000229e:    2801        .(      CMP      r0,#1
        0x000022a0:    d10e        ..      BNE      0x22c0 ; prvProcessReceivedCommands + 152
        0x000022a2:    2000        .       MOVS     r0,#0
        0x000022a4:    9000        ..      STR      r0,[sp,#0]
        0x000022a6:    9804        ..      LDR      r0,[sp,#0x10]
        0x000022a8:    69a1        .i      LDR      r1,[r4,#0x18]
        0x000022aa:    1842        B.      ADDS     r2,r0,r1
        0x000022ac:    2300        .#      MOVS     r3,#0
        0x000022ae:    4619        .F      MOV      r1,r3
        0x000022b0:    4620         F      MOV      r0,r4
        0x000022b2:    f001fbad    ....    BL       xTimerGenericCommand ; 0x3a10
        0x000022b6:    4607        .F      MOV      r7,r0
        0x000022b8:    b90f        ..      CBNZ     r7,0x22be ; prvProcessReceivedCommands + 150
        0x000022ba:    bf00        ..      NOP      
        0x000022bc:    e7fe        ..      B        0x22bc ; prvProcessReceivedCommands + 148
        0x000022be:    bf00        ..      NOP      
        0x000022c0:    e019        ..      B        0x22f6 ; prvProcessReceivedCommands + 206
        0x000022c2:    bf00        ..      NOP      
        0x000022c4:    e017        ..      B        0x22f6 ; prvProcessReceivedCommands + 206
        0x000022c6:    bf00        ..      NOP      
        0x000022c8:    9804        ..      LDR      r0,[sp,#0x10]
        0x000022ca:    61a0        .a      STR      r0,[r4,#0x18]
        0x000022cc:    69a0        .i      LDR      r0,[r4,#0x18]
        0x000022ce:    b108        ..      CBZ      r0,0x22d4 ; prvProcessReceivedCommands + 172
        0x000022d0:    2001        .       MOVS     r0,#1
        0x000022d2:    e000        ..      B        0x22d6 ; prvProcessReceivedCommands + 174
        0x000022d4:    2000        .       MOVS     r0,#0
        0x000022d6:    b908        ..      CBNZ     r0,0x22dc ; prvProcessReceivedCommands + 180
        0x000022d8:    bf00        ..      NOP      
        0x000022da:    e7fe        ..      B        0x22da ; prvProcessReceivedCommands + 178
        0x000022dc:    69a0        .i      LDR      r0,[r4,#0x18]
        0x000022de:    1941        A.      ADDS     r1,r0,r5
        0x000022e0:    462b        +F      MOV      r3,r5
        0x000022e2:    462a        *F      MOV      r2,r5
        0x000022e4:    4620         F      MOV      r0,r4
        0x000022e6:    f7ffff2f    ../.    BL       prvInsertTimerInActiveList ; 0x2148
        0x000022ea:    e004        ..      B        0x22f6 ; prvProcessReceivedCommands + 206
        0x000022ec:    4620         F      MOV      r0,r4
        0x000022ee:    f000fb15    ....    BL       vPortFree ; 0x291c
        0x000022f2:    e000        ..      B        0x22f6 ; prvProcessReceivedCommands + 206
        0x000022f4:    bf00        ..      NOP      
        0x000022f6:    bf00        ..      NOP      
        0x000022f8:    2200        ."      MOVS     r2,#0
        0x000022fa:    a903        ..      ADD      r1,sp,#0xc
        0x000022fc:    4803        .H      LDR      r0,[pc,#12] ; [0x230c] = 0x10000078
        0x000022fe:    6800        .h      LDR      r0,[r0,#0]
        0x00002300:    f001f908    ....    BL       xQueueReceive ; 0x3514
        0x00002304:    2800        .(      CMP      r0,#0
        0x00002306:    d192        ..      BNE      0x222e ; prvProcessReceivedCommands + 6
        0x00002308:    b007        ..      ADD      sp,sp,#0x1c
        0x0000230a:    bdf0        ..      POP      {r4-r7,pc}
    $d
        0x0000230c:    10000078    x...    DCD    268435576
    $t
    i.prvProcessTimerOrBlockTask
    prvProcessTimerOrBlockTask
        0x00002310:    b5f8        ..      PUSH     {r3-r7,lr}
        0x00002312:    4605        .F      MOV      r5,r0
        0x00002314:    460c        .F      MOV      r4,r1
        0x00002316:    f000fd87    ....    BL       vTaskSuspendAll ; 0x2e28
        0x0000231a:    4668        hF      MOV      r0,sp
        0x0000231c:    f000f84c    ..L.    BL       prvSampleTimeNow ; 0x23b8
        0x00002320:    4606        .F      MOV      r6,r0
        0x00002322:    9800        ..      LDR      r0,[sp,#0]
        0x00002324:    bb20         .      CBNZ     r0,0x2370 ; prvProcessTimerOrBlockTask + 96
        0x00002326:    b944        D.      CBNZ     r4,0x233a ; prvProcessTimerOrBlockTask + 42
        0x00002328:    42b5        .B      CMP      r5,r6
        0x0000232a:    d806        ..      BHI      0x233a ; prvProcessTimerOrBlockTask + 42
        0x0000232c:    f001fad6    ....    BL       xTaskResumeAll ; 0x38dc
        0x00002330:    4631        1F      MOV      r1,r6
        0x00002332:    4628        (F      MOV      r0,r5
        0x00002334:    f7ffff50    ..P.    BL       prvProcessExpiredTimer ; 0x21d8
        0x00002338:    e01c        ..      B        0x2374 ; prvProcessTimerOrBlockTask + 100
        0x0000233a:    b13c        <.      CBZ      r4,0x234c ; prvProcessTimerOrBlockTask + 60
        0x0000233c:    480e        .H      LDR      r0,[pc,#56] ; [0x2378] = 0x10000074
        0x0000233e:    6800        .h      LDR      r0,[r0,#0]
        0x00002340:    6800        .h      LDR      r0,[r0,#0]
        0x00002342:    b908        ..      CBNZ     r0,0x2348 ; prvProcessTimerOrBlockTask + 56
        0x00002344:    2001        .       MOVS     r0,#1
        0x00002346:    e000        ..      B        0x234a ; prvProcessTimerOrBlockTask + 58
        0x00002348:    2000        .       MOVS     r0,#0
        0x0000234a:    4604        .F      MOV      r4,r0
        0x0000234c:    1ba9        ..      SUBS     r1,r5,r6
        0x0000234e:    4622        "F      MOV      r2,r4
        0x00002350:    480a        .H      LDR      r0,[pc,#40] ; [0x237c] = 0x10000078
        0x00002352:    6800        .h      LDR      r0,[r0,#0]
        0x00002354:    f000fbec    ....    BL       vQueueWaitForMessageRestricted ; 0x2b30
        0x00002358:    f001fac0    ....    BL       xTaskResumeAll ; 0x38dc
        0x0000235c:    b950        P.      CBNZ     r0,0x2374 ; prvProcessTimerOrBlockTask + 100
        0x0000235e:    f04f5080    O..P    MOV      r0,#0x10000000
        0x00002362:    4907        .I      LDR      r1,[pc,#28] ; [0x2380] = 0xe000ed04
        0x00002364:    6008        .`      STR      r0,[r1,#0]
        0x00002366:    f3bf8f4f    ..O.    DSB      
        0x0000236a:    f3bf8f6f    ..o.    ISB      
        0x0000236e:    e001        ..      B        0x2374 ; prvProcessTimerOrBlockTask + 100
        0x00002370:    f001fab4    ....    BL       xTaskResumeAll ; 0x38dc
        0x00002374:    bdf8        ..      POP      {r3-r7,pc}
    $d
        0x00002376:    0000        ..      DCW    0
        0x00002378:    10000074    t...    DCD    268435572
        0x0000237c:    10000078    x...    DCD    268435576
        0x00002380:    e000ed04    ....    DCD    3758157060
    $t
    i.prvResetNextTaskUnblockTime
    prvResetNextTaskUnblockTime
        0x00002384:    490a        .I      LDR      r1,[pc,#40] ; [0x23b0] = 0x1000003c
        0x00002386:    6809        .h      LDR      r1,[r1,#0]
        0x00002388:    6809        .h      LDR      r1,[r1,#0]
        0x0000238a:    b909        ..      CBNZ     r1,0x2390 ; prvResetNextTaskUnblockTime + 12
        0x0000238c:    2101        .!      MOVS     r1,#1
        0x0000238e:    e000        ..      B        0x2392 ; prvResetNextTaskUnblockTime + 14
        0x00002390:    2100        .!      MOVS     r1,#0
        0x00002392:    b121        !.      CBZ      r1,0x239e ; prvResetNextTaskUnblockTime + 26
        0x00002394:    f04f31ff    O..1    MOV      r1,#0xffffffff
        0x00002398:    4a06        .J      LDR      r2,[pc,#24] ; [0x23b4] = 0x10000064
        0x0000239a:    6011        .`      STR      r1,[r2,#0]
        0x0000239c:    e006        ..      B        0x23ac ; prvResetNextTaskUnblockTime + 40
        0x0000239e:    4904        .I      LDR      r1,[pc,#16] ; [0x23b0] = 0x1000003c
        0x000023a0:    6809        .h      LDR      r1,[r1,#0]
        0x000023a2:    68c9        .h      LDR      r1,[r1,#0xc]
        0x000023a4:    68c8        .h      LDR      r0,[r1,#0xc]
        0x000023a6:    4a03        .J      LDR      r2,[pc,#12] ; [0x23b4] = 0x10000064
        0x000023a8:    6841        Ah      LDR      r1,[r0,#4]
        0x000023aa:    6011        .`      STR      r1,[r2,#0]
        0x000023ac:    4770        pG      BX       lr
    $d
        0x000023ae:    0000        ..      DCW    0
        0x000023b0:    1000003c    <...    DCD    268435516
        0x000023b4:    10000064    d...    DCD    268435556
    $t
    i.prvSampleTimeNow
    prvSampleTimeNow
        0x000023b8:    b570        p.      PUSH     {r4-r6,lr}
        0x000023ba:    4604        .F      MOV      r4,r0
        0x000023bc:    f001f9b8    ....    BL       xTaskGetTickCount ; 0x3730
        0x000023c0:    4605        .F      MOV      r5,r0
        0x000023c2:    4807        .H      LDR      r0,[pc,#28] ; [0x23e0] = 0x10000080
        0x000023c4:    6800        .h      LDR      r0,[r0,#0]
        0x000023c6:    4285        .B      CMP      r5,r0
        0x000023c8:    d204        ..      BCS      0x23d4 ; prvSampleTimeNow + 28
        0x000023ca:    f000f80b    ....    BL       prvSwitchTimerLists ; 0x23e4
        0x000023ce:    2001        .       MOVS     r0,#1
        0x000023d0:    6020         `      STR      r0,[r4,#0]
        0x000023d2:    e001        ..      B        0x23d8 ; prvSampleTimeNow + 32
        0x000023d4:    2000        .       MOVS     r0,#0
        0x000023d6:    6020         `      STR      r0,[r4,#0]
        0x000023d8:    4801        .H      LDR      r0,[pc,#4] ; [0x23e0] = 0x10000080
        0x000023da:    6005        .`      STR      r5,[r0,#0]
        0x000023dc:    4628        (F      MOV      r0,r5
        0x000023de:    bd70        p.      POP      {r4-r6,pc}
    $d
        0x000023e0:    10000080    ....    DCD    268435584
    $t
    i.prvSwitchTimerLists
    prvSwitchTimerLists
        0x000023e4:    e92d43f8    -..C    PUSH     {r3-r9,lr}
        0x000023e8:    e029        ).      B        0x243e ; prvSwitchTimerLists + 90
        0x000023ea:    481f        .H      LDR      r0,[pc,#124] ; [0x2468] = 0x10000070
        0x000023ec:    6800        .h      LDR      r0,[r0,#0]
        0x000023ee:    68c0        .h      LDR      r0,[r0,#0xc]
        0x000023f0:    6805        .h      LDR      r5,[r0,#0]
        0x000023f2:    481d        .H      LDR      r0,[pc,#116] ; [0x2468] = 0x10000070
        0x000023f4:    6800        .h      LDR      r0,[r0,#0]
        0x000023f6:    68c0        .h      LDR      r0,[r0,#0xc]
        0x000023f8:    68c4        .h      LDR      r4,[r0,#0xc]
        0x000023fa:    1d20         .      ADDS     r0,r4,#4
        0x000023fc:    f000f9ef    ....    BL       uxListRemove ; 0x27de
        0x00002400:    4620         F      MOV      r0,r4
        0x00002402:    6a61        aj      LDR      r1,[r4,#0x24]
        0x00002404:    4788        .G      BLX      r1
        0x00002406:    69e0        .i      LDR      r0,[r4,#0x1c]
        0x00002408:    2801        .(      CMP      r0,#1
        0x0000240a:    d118        ..      BNE      0x243e ; prvSwitchTimerLists + 90
        0x0000240c:    69a0        .i      LDR      r0,[r4,#0x18]
        0x0000240e:    1946        F.      ADDS     r6,r0,r5
        0x00002410:    42ae        .B      CMP      r6,r5
        0x00002412:    d907        ..      BLS      0x2424 ; prvSwitchTimerLists + 64
        0x00002414:    6066        f`      STR      r6,[r4,#4]
        0x00002416:    6124        $a      STR      r4,[r4,#0x10]
        0x00002418:    1d21        !.      ADDS     r1,r4,#4
        0x0000241a:    4813        .H      LDR      r0,[pc,#76] ; [0x2468] = 0x10000070
        0x0000241c:    6800        .h      LDR      r0,[r0,#0]
        0x0000241e:    f000fa1e    ....    BL       vListInsert ; 0x285e
        0x00002422:    e00c        ..      B        0x243e ; prvSwitchTimerLists + 90
        0x00002424:    2000        .       MOVS     r0,#0
        0x00002426:    4603        .F      MOV      r3,r0
        0x00002428:    462a        *F      MOV      r2,r5
        0x0000242a:    4601        .F      MOV      r1,r0
        0x0000242c:    9000        ..      STR      r0,[sp,#0]
        0x0000242e:    4620         F      MOV      r0,r4
        0x00002430:    f001faee    ....    BL       xTimerGenericCommand ; 0x3a10
        0x00002434:    4607        .F      MOV      r7,r0
        0x00002436:    b90f        ..      CBNZ     r7,0x243c ; prvSwitchTimerLists + 88
        0x00002438:    bf00        ..      NOP      
        0x0000243a:    e7fe        ..      B        0x243a ; prvSwitchTimerLists + 86
        0x0000243c:    bf00        ..      NOP      
        0x0000243e:    480a        .H      LDR      r0,[pc,#40] ; [0x2468] = 0x10000070
        0x00002440:    6800        .h      LDR      r0,[r0,#0]
        0x00002442:    6800        .h      LDR      r0,[r0,#0]
        0x00002444:    b908        ..      CBNZ     r0,0x244a ; prvSwitchTimerLists + 102
        0x00002446:    2001        .       MOVS     r0,#1
        0x00002448:    e000        ..      B        0x244c ; prvSwitchTimerLists + 104
        0x0000244a:    2000        .       MOVS     r0,#0
        0x0000244c:    2800        .(      CMP      r0,#0
        0x0000244e:    d0cc        ..      BEQ      0x23ea ; prvSwitchTimerLists + 6
        0x00002450:    4805        .H      LDR      r0,[pc,#20] ; [0x2468] = 0x10000070
        0x00002452:    f8d08000    ....    LDR      r8,[r0,#0]
        0x00002456:    4805        .H      LDR      r0,[pc,#20] ; [0x246c] = 0x10000074
        0x00002458:    6800        .h      LDR      r0,[r0,#0]
        0x0000245a:    4903        .I      LDR      r1,[pc,#12] ; [0x2468] = 0x10000070
        0x0000245c:    6008        .`      STR      r0,[r1,#0]
        0x0000245e:    4803        .H      LDR      r0,[pc,#12] ; [0x246c] = 0x10000074
        0x00002460:    f8c08000    ....    STR      r8,[r0,#0]
        0x00002464:    e8bd83f8    ....    POP      {r3-r9,pc}
    $d
        0x00002468:    10000070    p...    DCD    268435568
        0x0000246c:    10000074    t...    DCD    268435572
    $t
    i.prvTaskExitError
    prvTaskExitError
        0x00002470:    480a        .H      LDR      r0,[pc,#40] ; [0x249c] = 0x10000000
        0x00002472:    6800        .h      LDR      r0,[r0,#0]
        0x00002474:    1c40        @.      ADDS     r0,r0,#1
        0x00002476:    b908        ..      CBNZ     r0,0x247c ; prvTaskExitError + 12
        0x00002478:    2001        .       MOVS     r0,#1
        0x0000247a:    e000        ..      B        0x247e ; prvTaskExitError + 14
        0x0000247c:    2000        .       MOVS     r0,#0
        0x0000247e:    b908        ..      CBNZ     r0,0x2484 ; prvTaskExitError + 20
        0x00002480:    bf00        ..      NOP      
        0x00002482:    e7fe        ..      B        0x2482 ; prvTaskExitError + 18
        0x00002484:    bf00        ..      NOP      
        0x00002486:    2080        .       MOVS     r0,#0x80
        0x00002488:    f3808811    ....    MSR      BASEPRI,r0
        0x0000248c:    f3bf8f4f    ..O.    DSB      
        0x00002490:    f3bf8f6f    ..o.    ISB      
        0x00002494:    bf00        ..      NOP      
        0x00002496:    bf00        ..      NOP      
        0x00002498:    e7fe        ..      B        0x2498 ; prvTaskExitError + 40
    $d
        0x0000249a:    0000        ..      DCW    0
        0x0000249c:    10000000    ....    DCD    268435456
    $t
    i.prvTestWaitCondition
    prvTestWaitCondition
        0x000024a0:    b510        ..      PUSH     {r4,lr}
        0x000024a2:    4603        .F      MOV      r3,r0
        0x000024a4:    2000        .       MOVS     r0,#0
        0x000024a6:    b922        ".      CBNZ     r2,0x24b2 ; prvTestWaitCondition + 18
        0x000024a8:    ea030401    ....    AND      r4,r3,r1
        0x000024ac:    b134        4.      CBZ      r4,0x24bc ; prvTestWaitCondition + 28
        0x000024ae:    2001        .       MOVS     r0,#1
        0x000024b0:    e004        ..      B        0x24bc ; prvTestWaitCondition + 28
        0x000024b2:    ea030401    ....    AND      r4,r3,r1
        0x000024b6:    428c        .B      CMP      r4,r1
        0x000024b8:    d100        ..      BNE      0x24bc ; prvTestWaitCondition + 28
        0x000024ba:    2001        .       MOVS     r0,#1
        0x000024bc:    bd10        ..      POP      {r4,pc}
    i.prvTimerTask
    prvTimerTask
        0x000024be:    b508        ..      PUSH     {r3,lr}
        0x000024c0:    bf00        ..      NOP      
        0x000024c2:    4668        hF      MOV      r0,sp
        0x000024c4:    f7fffd46    ..F.    BL       prvGetNextExpireTime ; 0x1f54
        0x000024c8:    4604        .F      MOV      r4,r0
        0x000024ca:    4620         F      MOV      r0,r4
        0x000024cc:    9900        ..      LDR      r1,[sp,#0]
        0x000024ce:    f7ffff1f    ....    BL       prvProcessTimerOrBlockTask ; 0x2310
        0x000024d2:    f7fffea9    ....    BL       prvProcessReceivedCommands ; 0x2228
        0x000024d6:    e7f4        ..      B        0x24c2 ; prvTimerTask + 4
    i.prvUnlockQueue
    prvUnlockQueue
        0x000024d8:    b570        p.      PUSH     {r4-r6,lr}
        0x000024da:    4604        .F      MOV      r4,r0
        0x000024dc:    f000f9e6    ....    BL       vPortEnterCritical ; 0x28ac
        0x000024e0:    f9945045    ..EP    LDRSB    r5,[r4,#0x45]
        0x000024e4:    e010        ..      B        0x2508 ; prvUnlockQueue + 48
        0x000024e6:    6a60        `j      LDR      r0,[r4,#0x24]
        0x000024e8:    b908        ..      CBNZ     r0,0x24ee ; prvUnlockQueue + 22
        0x000024ea:    2001        .       MOVS     r0,#1
        0x000024ec:    e000        ..      B        0x24f0 ; prvUnlockQueue + 24
        0x000024ee:    2000        .       MOVS     r0,#0
        0x000024f0:    b938        8.      CBNZ     r0,0x2502 ; prvUnlockQueue + 42
        0x000024f2:    f1040024    ..$.    ADD      r0,r4,#0x24
        0x000024f6:    f001f9ad    ....    BL       xTaskRemoveFromEventList ; 0x3854
        0x000024fa:    b118        ..      CBZ      r0,0x2504 ; prvUnlockQueue + 44
        0x000024fc:    f000fb4a    ..J.    BL       vTaskMissedYield ; 0x2b94
        0x00002500:    e000        ..      B        0x2504 ; prvUnlockQueue + 44
        0x00002502:    e003        ..      B        0x250c ; prvUnlockQueue + 52
        0x00002504:    1e68        h.      SUBS     r0,r5,#1
        0x00002506:    b245        E.      SXTB     r5,r0
        0x00002508:    2d00        .-      CMP      r5,#0
        0x0000250a:    dcec        ..      BGT      0x24e6 ; prvUnlockQueue + 14
        0x0000250c:    bf00        ..      NOP      
        0x0000250e:    20ff        .       MOVS     r0,#0xff
        0x00002510:    f8840045    ..E.    STRB     r0,[r4,#0x45]
        0x00002514:    f000f9ec    ....    BL       vPortExitCritical ; 0x28f0
        0x00002518:    f000f9c8    ....    BL       vPortEnterCritical ; 0x28ac
        0x0000251c:    f9945044    ..DP    LDRSB    r5,[r4,#0x44]
        0x00002520:    e010        ..      B        0x2544 ; prvUnlockQueue + 108
        0x00002522:    6920         i      LDR      r0,[r4,#0x10]
        0x00002524:    b908        ..      CBNZ     r0,0x252a ; prvUnlockQueue + 82
        0x00002526:    2001        .       MOVS     r0,#1
        0x00002528:    e000        ..      B        0x252c ; prvUnlockQueue + 84
        0x0000252a:    2000        .       MOVS     r0,#0
        0x0000252c:    b948        H.      CBNZ     r0,0x2542 ; prvUnlockQueue + 106
        0x0000252e:    f1040010    ....    ADD      r0,r4,#0x10
        0x00002532:    f001f98f    ....    BL       xTaskRemoveFromEventList ; 0x3854
        0x00002536:    b108        ..      CBZ      r0,0x253c ; prvUnlockQueue + 100
        0x00002538:    f000fb2c    ..,.    BL       vTaskMissedYield ; 0x2b94
        0x0000253c:    1e68        h.      SUBS     r0,r5,#1
        0x0000253e:    b245        E.      SXTB     r5,r0
        0x00002540:    e000        ..      B        0x2544 ; prvUnlockQueue + 108
        0x00002542:    e001        ..      B        0x2548 ; prvUnlockQueue + 112
        0x00002544:    2d00        .-      CMP      r5,#0
        0x00002546:    dcec        ..      BGT      0x2522 ; prvUnlockQueue + 74
        0x00002548:    bf00        ..      NOP      
        0x0000254a:    20ff        .       MOVS     r0,#0xff
        0x0000254c:    f8840044    ..D.    STRB     r0,[r4,#0x44]
        0x00002550:    f000f9ce    ....    BL       vPortExitCritical ; 0x28f0
        0x00002554:    bd70        p.      POP      {r4-r6,pc}
        0x00002556:    0000        ..      MOVS     r0,r0
    i.pvPortMalloc
    pvPortMalloc
        0x00002558:    e92d41f0    -..A    PUSH     {r4-r8,lr}
        0x0000255c:    4604        .F      MOV      r4,r0
        0x0000255e:    f04f0800    O...    MOV      r8,#0
        0x00002562:    f000fc61    ..a.    BL       vTaskSuspendAll ; 0x2e28
        0x00002566:    4828        (H      LDR      r0,[pc,#160] ; [0x2608] = 0x10000034
        0x00002568:    6800        .h      LDR      r0,[r0,#0]
        0x0000256a:    b920         .      CBNZ     r0,0x2576 ; pvPortMalloc + 30
        0x0000256c:    f7fffd06    ....    BL       prvHeapInit ; 0x1f7c
        0x00002570:    2001        .       MOVS     r0,#1
        0x00002572:    4925        %I      LDR      r1,[pc,#148] ; [0x2608] = 0x10000034
        0x00002574:    6008        .`      STR      r0,[r1,#0]
        0x00002576:    b144        D.      CBZ      r4,0x258a ; pvPortMalloc + 50
        0x00002578:    3408        .4      ADDS     r4,r4,#8
        0x0000257a:    f0040007    ....    AND      r0,r4,#7
        0x0000257e:    b120         .      CBZ      r0,0x258a ; pvPortMalloc + 50
        0x00002580:    f0040007    ....    AND      r0,r4,#7
        0x00002584:    f1c00008    ....    RSB      r0,r0,#8
        0x00002588:    4404        .D      ADD      r4,r4,r0
        0x0000258a:    2c00        .,      CMP      r4,#0
        0x0000258c:    d032        2.      BEQ      0x25f4 ; pvPortMalloc + 156
        0x0000258e:    f64370f8    C..p    MOV      r0,#0x3ff8
        0x00002592:    4284        .B      CMP      r4,r0
        0x00002594:    d22e        ..      BCS      0x25f4 ; pvPortMalloc + 156
        0x00002596:    4f1d        .O      LDR      r7,[pc,#116] ; [0x260c] = 0x10000020
        0x00002598:    4638        8F      MOV      r0,r7
        0x0000259a:    6805        .h      LDR      r5,[r0,#0]
        0x0000259c:    e001        ..      B        0x25a2 ; pvPortMalloc + 74
        0x0000259e:    462f        /F      MOV      r7,r5
        0x000025a0:    682d        -h      LDR      r5,[r5,#0]
        0x000025a2:    6868        hh      LDR      r0,[r5,#4]
        0x000025a4:    42a0        .B      CMP      r0,r4
        0x000025a6:    d202        ..      BCS      0x25ae ; pvPortMalloc + 86
        0x000025a8:    6828        (h      LDR      r0,[r5,#0]
        0x000025aa:    2800        .(      CMP      r0,#0
        0x000025ac:    d1f7        ..      BNE      0x259e ; pvPortMalloc + 70
        0x000025ae:    4818        .H      LDR      r0,[pc,#96] ; [0x2610] = 0x10000028
        0x000025b0:    4285        .B      CMP      r5,r0
        0x000025b2:    d01f        ..      BEQ      0x25f4 ; pvPortMalloc + 156
        0x000025b4:    6838        8h      LDR      r0,[r7,#0]
        0x000025b6:    f1000808    ....    ADD      r8,r0,#8
        0x000025ba:    6828        (h      LDR      r0,[r5,#0]
        0x000025bc:    6038        8`      STR      r0,[r7,#0]
        0x000025be:    6868        hh      LDR      r0,[r5,#4]
        0x000025c0:    1b00        ..      SUBS     r0,r0,r4
        0x000025c2:    2810        .(      CMP      r0,#0x10
        0x000025c4:    d910        ..      BLS      0x25e8 ; pvPortMalloc + 144
        0x000025c6:    192e        ..      ADDS     r6,r5,r4
        0x000025c8:    6868        hh      LDR      r0,[r5,#4]
        0x000025ca:    1b00        ..      SUBS     r0,r0,r4
        0x000025cc:    6070        p`      STR      r0,[r6,#4]
        0x000025ce:    606c        l`      STR      r4,[r5,#4]
        0x000025d0:    6871        qh      LDR      r1,[r6,#4]
        0x000025d2:    480e        .H      LDR      r0,[pc,#56] ; [0x260c] = 0x10000020
        0x000025d4:    e000        ..      B        0x25d8 ; pvPortMalloc + 128
        0x000025d6:    6800        .h      LDR      r0,[r0,#0]
        0x000025d8:    6802        .h      LDR      r2,[r0,#0]
        0x000025da:    6852        Rh      LDR      r2,[r2,#4]
        0x000025dc:    428a        .B      CMP      r2,r1
        0x000025de:    d3fa        ..      BCC      0x25d6 ; pvPortMalloc + 126
        0x000025e0:    6802        .h      LDR      r2,[r0,#0]
        0x000025e2:    6032        2`      STR      r2,[r6,#0]
        0x000025e4:    6006        .`      STR      r6,[r0,#0]
        0x000025e6:    bf00        ..      NOP      
        0x000025e8:    490a        .I      LDR      r1,[pc,#40] ; [0x2614] = 0x10000030
        0x000025ea:    6868        hh      LDR      r0,[r5,#4]
        0x000025ec:    6809        .h      LDR      r1,[r1,#0]
        0x000025ee:    1a08        ..      SUBS     r0,r1,r0
        0x000025f0:    4908        .I      LDR      r1,[pc,#32] ; [0x2614] = 0x10000030
        0x000025f2:    6008        .`      STR      r0,[r1,#0]
        0x000025f4:    f001f972    ..r.    BL       xTaskResumeAll ; 0x38dc
        0x000025f8:    f1b80f00    ....    CMP      r8,#0
        0x000025fc:    d101        ..      BNE      0x2602 ; pvPortMalloc + 170
        0x000025fe:    f000f911    ....    BL       vApplicationMallocFailedHook ; 0x2824
        0x00002602:    4640        @F      MOV      r0,r8
        0x00002604:    e8bd81f0    ....    POP      {r4-r8,pc}
    $d
        0x00002608:    10000034    4...    DCD    268435508
        0x0000260c:    10000020     ...    DCD    268435488
        0x00002610:    10000028    (...    DCD    268435496
        0x00002614:    10000030    0...    DCD    268435504
    $t
    i.pxPortInitialiseStack
    pxPortInitialiseStack
        0x00002618:    1f00        ..      SUBS     r0,r0,#4
        0x0000261a:    f04f7380    O..s    MOV      r3,#0x1000000
        0x0000261e:    6003        .`      STR      r3,[r0,#0]
        0x00002620:    1f00        ..      SUBS     r0,r0,#4
        0x00002622:    f0210301    !...    BIC      r3,r1,#1
        0x00002626:    6003        .`      STR      r3,[r0,#0]
        0x00002628:    1f00        ..      SUBS     r0,r0,#4
        0x0000262a:    4b05        .K      LDR      r3,[pc,#20] ; [0x2640] = 0x2471
        0x0000262c:    6003        .`      STR      r3,[r0,#0]
        0x0000262e:    3814        .8      SUBS     r0,r0,#0x14
        0x00002630:    6002        .`      STR      r2,[r0,#0]
        0x00002632:    1f00        ..      SUBS     r0,r0,#4
        0x00002634:    f06f0302    o...    MVN      r3,#2
        0x00002638:    6003        .`      STR      r3,[r0,#0]
        0x0000263a:    3820         8      SUBS     r0,r0,#0x20
        0x0000263c:    4770        pG      BX       lr
    $d
        0x0000263e:    0000        ..      DCW    0
        0x00002640:    00002471    q$..    DCD    9329
    $t
    i.run_tasks
    run_tasks
        0x00002644:    b51c        ..      PUSH     {r2-r4,lr}
        0x00002646:    4806        .H      LDR      r0,[pc,#24] ; [0x2660] = 0x1000001c
        0x00002648:    2103        .!      MOVS     r1,#3
        0x0000264a:    2300        .#      MOVS     r3,#0
        0x0000264c:    2280        ."      MOVS     r2,#0x80
        0x0000264e:    e9cd1000    ....    STRD     r1,r0,[sp,#0]
        0x00002652:    a104        ..      ADR      r1,{pc}+0x12 ; 0x2664
        0x00002654:    4805        .H      LDR      r0,[pc,#20] ; [0x266c] = 0x2671
        0x00002656:    f001f82b    ..+.    BL       xTaskCreate ; 0x36b0
        0x0000265a:    f000fb2f    ../.    BL       vTaskStartScheduler ; 0x2cbc
        0x0000265e:    bd1c        ..      POP      {r2-r4,pc}
    $d
        0x00002660:    1000001c    ....    DCD    268435484
        0x00002664:    75746553    Setu    DCD    1970562387
        0x00002668:    00000070    p...    DCD    112
        0x0000266c:    00002671    q&..    DCD    9841
    $t
    i.setup_task
    setup_task
        0x00002670:    b51c        ..      PUSH     {r2-r4,lr}
        0x00002672:    a00b        ..      ADR      r0,{pc}+0x2e ; 0x26a0
        0x00002674:    f7fefeda    ....    BL       am_util_stdio_printf ; 0x142c
        0x00002678:    f7fdff2c    ..,.    BL       LedTaskSetup ; 0x4d4
        0x0000267c:    f7fff967    ..g.    BL       disable_print_interface ; 0x194e
        0x00002680:    480e        .H      LDR      r0,[pc,#56] ; [0x26bc] = 0x10000014
        0x00002682:    2103        .!      MOVS     r1,#3
        0x00002684:    2300        .#      MOVS     r3,#0
        0x00002686:    f44f7200    O..r    MOV      r2,#0x200
        0x0000268a:    e9cd1000    ....    STRD     r1,r0,[sp,#0]
        0x0000268e:    a10c        ..      ADR      r1,{pc}+0x32 ; 0x26c0
        0x00002690:    480d        .H      LDR      r0,[pc,#52] ; [0x26c8] = 0x485
        0x00002692:    f001f80d    ....    BL       xTaskCreate ; 0x36b0
        0x00002696:    2000        .       MOVS     r0,#0
        0x00002698:    f000fb6a    ..j.    BL       vTaskSuspend ; 0x2d70
        0x0000269c:    bf00        ..      NOP      
        0x0000269e:    e7fe        ..      B        0x269e ; setup_task + 46
    $d
        0x000026a0:    6e6e7552    Runn    DCD    1852732754
        0x000026a4:    20676e69    ing     DCD    543649385
        0x000026a8:    75746573    setu    DCD    1970562419
        0x000026ac:    61742070    p ta    DCD    1635000432
        0x000026b0:    2e736b73    sks.    DCD    779316083
        0x000026b4:    0a0d2e2e    ....    DCD    168635950
        0x000026b8:    00000000    ....    DCD    0
        0x000026bc:    10000014    ....    DCD    268435476
        0x000026c0:    5444454c    LEDT    DCD    1413760332
        0x000026c4:    006b7361    ask.    DCD    7041889
        0x000026c8:    00000485    ....    DCD    1157
    $t
    i.simple_strlen
    simple_strlen
        0x000026cc:    4601        .F      MOV      r1,r0
        0x000026ce:    2000        .       MOVS     r0,#0
        0x000026d0:    b901        ..      CBNZ     r1,0x26d4 ; simple_strlen + 8
        0x000026d2:    4770        pG      BX       lr
        0x000026d4:    e000        ..      B        0x26d8 ; simple_strlen + 12
        0x000026d6:    1c40        @.      ADDS     r0,r0,#1
        0x000026d8:    f8113b01    ...;    LDRB     r3,[r1],#1
        0x000026dc:    2b00        .+      CMP      r3,#0
        0x000026de:    d1fa        ..      BNE      0x26d6 ; simple_strlen + 10
        0x000026e0:    bf00        ..      NOP      
        0x000026e2:    e7f6        ..      B        0x26d2 ; simple_strlen + 6
    i.uint64_to_hexstr
    uint64_to_hexstr
        0x000026e4:    e92d41f0    -..A    PUSH     {r4-r8,lr}
        0x000026e8:    b085        ..      SUB      sp,sp,#0x14
        0x000026ea:    4604        .F      MOV      r4,r0
        0x000026ec:    460d        .F      MOV      r5,r1
        0x000026ee:    461e        .F      MOV      r6,r3
        0x000026f0:    2100        .!      MOVS     r1,#0
        0x000026f2:    468c        .F      MOV      r12,r1
        0x000026f4:    ea84070c    ....    EOR      r7,r4,r12
        0x000026f8:    ea850c0c    ....    EOR      r12,r5,r12
        0x000026fc:    ea57070c    W...    ORRS     r7,r7,r12
        0x00002700:    d105        ..      BNE      0x270e ; uint64_to_hexstr + 42
        0x00002702:    f04f0830    O.0.    MOV      r8,#0x30
        0x00002706:    460f        .F      MOV      r7,r1
        0x00002708:    1c49        I.      ADDS     r1,r1,#1
        0x0000270a:    f80d8007    ....    STRB     r8,[sp,r7]
        0x0000270e:    e016        ..      B        0x273e ; uint64_to_hexstr + 90
        0x00002710:    270f        .'      MOVS     r7,#0xf
        0x00002712:    4027        '@      ANDS     r7,r7,r4
        0x00002714:    b2fb        ..      UXTB     r3,r7
        0x00002716:    2b09        .+      CMP      r3,#9
        0x00002718:    dd05        ..      BLE      0x2726 ; uint64_to_hexstr + 66
        0x0000271a:    b10e        ..      CBZ      r6,0x2720 ; uint64_to_hexstr + 60
        0x0000271c:    2727        ''      MOVS     r7,#0x27
        0x0000271e:    e000        ..      B        0x2722 ; uint64_to_hexstr + 62
        0x00002720:    2707        .'      MOVS     r7,#7
        0x00002722:    441f        .D      ADD      r7,r7,r3
        0x00002724:    b2fb        ..      UXTB     r3,r7
        0x00002726:    f1030730    ..0.    ADD      r7,r3,#0x30
        0x0000272a:    f00708ff    ....    AND      r8,r7,#0xff
        0x0000272e:    460f        .F      MOV      r7,r1
        0x00002730:    1c49        I.      ADDS     r1,r1,#1
        0x00002732:    f80d8007    ....    STRB     r8,[sp,r7]
        0x00002736:    0927        '.      LSRS     r7,r4,#4
        0x00002738:    ea477405    G..t    ORR      r4,r7,r5,LSL #28
        0x0000273c:    092d        -.      LSRS     r5,r5,#4
        0x0000273e:    f04f0c00    O...    MOV      r12,#0
        0x00002742:    ea84070c    ....    EOR      r7,r4,r12
        0x00002746:    ea850c0c    ....    EOR      r12,r5,r12
        0x0000274a:    ea57070c    W...    ORRS     r7,r7,r12
        0x0000274e:    d1df        ..      BNE      0x2710 ; uint64_to_hexstr + 44
        0x00002750:    4608        .F      MOV      r0,r1
        0x00002752:    b14a        J.      CBZ      r2,0x2768 ; uint64_to_hexstr + 132
        0x00002754:    e003        ..      B        0x275e ; uint64_to_hexstr + 122
        0x00002756:    f81d7001    ...p    LDRB     r7,[sp,r1]
        0x0000275a:    f8027b01    ...{    STRB     r7,[r2],#1
        0x0000275e:    1e0f        ..      SUBS     r7,r1,#0
        0x00002760:    f1a10101    ....    SUB      r1,r1,#1
        0x00002764:    d1f7        ..      BNE      0x2756 ; uint64_to_hexstr + 114
        0x00002766:    7017        .p      STRB     r7,[r2,#0]
        0x00002768:    b005        ..      ADD      sp,sp,#0x14
        0x0000276a:    e8bd81f0    ....    POP      {r4-r8,pc}
    i.uint64_to_str
    uint64_to_str
        0x0000276e:    e92d4ff0    -..O    PUSH     {r4-r11,lr}
        0x00002772:    b087        ..      SUB      sp,sp,#0x1c
        0x00002774:    4607        .F      MOV      r7,r0
        0x00002776:    4688        .F      MOV      r8,r1
        0x00002778:    4616        .F      MOV      r6,r2
        0x0000277a:    f04f0900    O...    MOV      r9,#0
        0x0000277e:    46cb        .F      MOV      r11,r9
        0x00002780:    bf00        ..      NOP      
        0x00002782:    4638        8F      MOV      r0,r7
        0x00002784:    4641        AF      MOV      r1,r8
        0x00002786:    f7fff8e8    ....    BL       divu64_10 ; 0x195a
        0x0000278a:    4604        .F      MOV      r4,r0
        0x0000278c:    460d        .F      MOV      r5,r1
        0x0000278e:    210a        .!      MOVS     r1,#0xa
        0x00002790:    fba40101    ....    UMULL    r0,r1,r4,r1
        0x00002794:    ebb70a00    ....    SUBS     r10,r7,r0
        0x00002798:    f10a0030    ..0.    ADD      r0,r10,#0x30
        0x0000279c:    b2c2        ..      UXTB     r2,r0
        0x0000279e:    4648        HF      MOV      r0,r9
        0x000027a0:    f1090901    ....    ADD      r9,r9,#1
        0x000027a4:    f80d2000    ...     STRB     r2,[sp,r0]
        0x000027a8:    4627        'F      MOV      r7,r4
        0x000027aa:    46a8        .F      MOV      r8,r5
        0x000027ac:    f04f0200    O...    MOV      r2,#0
        0x000027b0:    ea870002    ....    EOR      r0,r7,r2
        0x000027b4:    ea880102    ....    EOR      r1,r8,r2
        0x000027b8:    4308        .C      ORRS     r0,r0,r1
        0x000027ba:    d1e2        ..      BNE      0x2782 ; uint64_to_str + 20
        0x000027bc:    46cb        .F      MOV      r11,r9
        0x000027be:    b156        V.      CBZ      r6,0x27d6 ; uint64_to_str + 104
        0x000027c0:    e003        ..      B        0x27ca ; uint64_to_str + 92
        0x000027c2:    f81d0009    ....    LDRB     r0,[sp,r9]
        0x000027c6:    f8060b01    ....    STRB     r0,[r6],#1
        0x000027ca:    f1b90000    ....    SUBS     r0,r9,#0
        0x000027ce:    f1a90901    ....    SUB      r9,r9,#1
        0x000027d2:    d1f6        ..      BNE      0x27c2 ; uint64_to_str + 84
        0x000027d4:    7030        0p      STRB     r0,[r6,#0]
        0x000027d6:    4658        XF      MOV      r0,r11
        0x000027d8:    b007        ..      ADD      sp,sp,#0x1c
        0x000027da:    e8bd8ff0    ....    POP      {r4-r11,pc}
    i.uxListRemove
    uxListRemove
        0x000027de:    4601        .F      MOV      r1,r0
        0x000027e0:    690a        .i      LDR      r2,[r1,#0x10]
        0x000027e2:    e9d13001    ...0    LDRD     r3,r0,[r1,#4]
        0x000027e6:    6098        .`      STR      r0,[r3,#8]
        0x000027e8:    e9d10301    ....    LDRD     r0,r3,[r1,#4]
        0x000027ec:    6058        X`      STR      r0,[r3,#4]
        0x000027ee:    6850        Ph      LDR      r0,[r2,#4]
        0x000027f0:    4288        .B      CMP      r0,r1
        0x000027f2:    d101        ..      BNE      0x27f8 ; uxListRemove + 26
        0x000027f4:    6888        .h      LDR      r0,[r1,#8]
        0x000027f6:    6050        P`      STR      r0,[r2,#4]
        0x000027f8:    2000        .       MOVS     r0,#0
        0x000027fa:    6108        .a      STR      r0,[r1,#0x10]
        0x000027fc:    6810        .h      LDR      r0,[r2,#0]
        0x000027fe:    1e40        @.      SUBS     r0,r0,#1
        0x00002800:    6010        .`      STR      r0,[r2,#0]
        0x00002802:    6810        .h      LDR      r0,[r2,#0]
        0x00002804:    4770        pG      BX       lr
        0x00002806:    0000        ..      MOVS     r0,r0
    i.uxTaskResetEventItemValue
    uxTaskResetEventItemValue
        0x00002808:    4905        .I      LDR      r1,[pc,#20] ; [0x2820] = 0x10000038
        0x0000280a:    6809        .h      LDR      r1,[r1,#0]
        0x0000280c:    6988        .i      LDR      r0,[r1,#0x18]
        0x0000280e:    4904        .I      LDR      r1,[pc,#16] ; [0x2820] = 0x10000038
        0x00002810:    6809        .h      LDR      r1,[r1,#0]
        0x00002812:    6ac9        .j      LDR      r1,[r1,#0x2c]
        0x00002814:    f1c10104    ....    RSB      r1,r1,#4
        0x00002818:    4a01        .J      LDR      r2,[pc,#4] ; [0x2820] = 0x10000038
        0x0000281a:    6812        .h      LDR      r2,[r2,#0]
        0x0000281c:    6191        .a      STR      r1,[r2,#0x18]
        0x0000281e:    4770        pG      BX       lr
    $d
        0x00002820:    10000038    8...    DCD    268435512
    $t
    i.vApplicationMallocFailedHook
    vApplicationMallocFailedHook
        0x00002824:    bf00        ..      NOP      
        0x00002826:    e7fe        ..      B        0x2826 ; vApplicationMallocFailedHook + 2
    i.vApplicationStackOverflowHook
    vApplicationStackOverflowHook
        0x00002828:    e000        ..      B        0x282c ; vApplicationStackOverflowHook + 4
        0x0000282a:    be00        ..      BKPT     #0
        0x0000282c:    e7fd        ..      B        0x282a ; vApplicationStackOverflowHook + 2
    i.vEventGroupSetBitsCallback
    vEventGroupSetBitsCallback
        0x0000282e:    b570        p.      PUSH     {r4-r6,lr}
        0x00002830:    4604        .F      MOV      r4,r0
        0x00002832:    460d        .F      MOV      r5,r1
        0x00002834:    4629        )F      MOV      r1,r5
        0x00002836:    4620         F      MOV      r0,r4
        0x00002838:    f000fb65    ..e.    BL       xEventGroupSetBits ; 0x2f06
        0x0000283c:    bd70        p.      POP      {r4-r6,pc}
    i.vListInitialise
    vListInitialise
        0x0000283e:    f1000108    ....    ADD      r1,r0,#8
        0x00002842:    6041        A`      STR      r1,[r0,#4]
        0x00002844:    f04f31ff    O..1    MOV      r1,#0xffffffff
        0x00002848:    6081        .`      STR      r1,[r0,#8]
        0x0000284a:    f1000108    ....    ADD      r1,r0,#8
        0x0000284e:    60c1        .`      STR      r1,[r0,#0xc]
        0x00002850:    6101        .a      STR      r1,[r0,#0x10]
        0x00002852:    2100        .!      MOVS     r1,#0
        0x00002854:    6001        .`      STR      r1,[r0,#0]
        0x00002856:    4770        pG      BX       lr
    i.vListInitialiseItem
    vListInitialiseItem
        0x00002858:    2100        .!      MOVS     r1,#0
        0x0000285a:    6101        .a      STR      r1,[r0,#0x10]
        0x0000285c:    4770        pG      BX       lr
    i.vListInsert
    vListInsert
        0x0000285e:    b510        ..      PUSH     {r4,lr}
        0x00002860:    4602        .F      MOV      r2,r0
        0x00002862:    680b        .h      LDR      r3,[r1,#0]
        0x00002864:    1c5c        \.      ADDS     r4,r3,#1
        0x00002866:    b90c        ..      CBNZ     r4,0x286c ; vListInsert + 14
        0x00002868:    6910        .i      LDR      r0,[r2,#0x10]
        0x0000286a:    e007        ..      B        0x287c ; vListInsert + 30
        0x0000286c:    f1020008    ....    ADD      r0,r2,#8
        0x00002870:    e000        ..      B        0x2874 ; vListInsert + 22
        0x00002872:    6840        @h      LDR      r0,[r0,#4]
        0x00002874:    6844        Dh      LDR      r4,[r0,#4]
        0x00002876:    6824        $h      LDR      r4,[r4,#0]
        0x00002878:    429c        .B      CMP      r4,r3
        0x0000287a:    d9fa        ..      BLS      0x2872 ; vListInsert + 20
        0x0000287c:    6844        Dh      LDR      r4,[r0,#4]
        0x0000287e:    604c        L`      STR      r4,[r1,#4]
        0x00002880:    684c        Lh      LDR      r4,[r1,#4]
        0x00002882:    60a1        .`      STR      r1,[r4,#8]
        0x00002884:    6088        .`      STR      r0,[r1,#8]
        0x00002886:    6041        A`      STR      r1,[r0,#4]
        0x00002888:    610a        .a      STR      r2,[r1,#0x10]
        0x0000288a:    6814        .h      LDR      r4,[r2,#0]
        0x0000288c:    1c64        d.      ADDS     r4,r4,#1
        0x0000288e:    6014        .`      STR      r4,[r2,#0]
        0x00002890:    bd10        ..      POP      {r4,pc}
    i.vListInsertEnd
    vListInsertEnd
        0x00002892:    6842        Bh      LDR      r2,[r0,#4]
        0x00002894:    604a        J`      STR      r2,[r1,#4]
        0x00002896:    6893        .h      LDR      r3,[r2,#8]
        0x00002898:    608b        .`      STR      r3,[r1,#8]
        0x0000289a:    6893        .h      LDR      r3,[r2,#8]
        0x0000289c:    6059        Y`      STR      r1,[r3,#4]
        0x0000289e:    6091        .`      STR      r1,[r2,#8]
        0x000028a0:    6108        .a      STR      r0,[r1,#0x10]
        0x000028a2:    6803        .h      LDR      r3,[r0,#0]
        0x000028a4:    1c5b        [.      ADDS     r3,r3,#1
        0x000028a6:    6003        .`      STR      r3,[r0,#0]
        0x000028a8:    4770        pG      BX       lr
        0x000028aa:    0000        ..      MOVS     r0,r0
    i.vPortEnterCritical
    vPortEnterCritical
        0x000028ac:    bf00        ..      NOP      
        0x000028ae:    2080        .       MOVS     r0,#0x80
        0x000028b0:    f3808811    ....    MSR      BASEPRI,r0
        0x000028b4:    f3bf8f4f    ..O.    DSB      
        0x000028b8:    f3bf8f6f    ..o.    ISB      
        0x000028bc:    bf00        ..      NOP      
        0x000028be:    480a        .H      LDR      r0,[pc,#40] ; [0x28e8] = 0x10000000
        0x000028c0:    6800        .h      LDR      r0,[r0,#0]
        0x000028c2:    1c40        @.      ADDS     r0,r0,#1
        0x000028c4:    4908        .I      LDR      r1,[pc,#32] ; [0x28e8] = 0x10000000
        0x000028c6:    6008        .`      STR      r0,[r1,#0]
        0x000028c8:    4608        .F      MOV      r0,r1
        0x000028ca:    6800        .h      LDR      r0,[r0,#0]
        0x000028cc:    2801        .(      CMP      r0,#1
        0x000028ce:    d109        ..      BNE      0x28e4 ; vPortEnterCritical + 56
        0x000028d0:    4806        .H      LDR      r0,[pc,#24] ; [0x28ec] = 0xe000ed04
        0x000028d2:    6800        .h      LDR      r0,[r0,#0]
        0x000028d4:    b2c0        ..      UXTB     r0,r0
        0x000028d6:    b908        ..      CBNZ     r0,0x28dc ; vPortEnterCritical + 48
        0x000028d8:    2001        .       MOVS     r0,#1
        0x000028da:    e000        ..      B        0x28de ; vPortEnterCritical + 50
        0x000028dc:    2000        .       MOVS     r0,#0
        0x000028de:    b908        ..      CBNZ     r0,0x28e4 ; vPortEnterCritical + 56
        0x000028e0:    bf00        ..      NOP      
        0x000028e2:    e7fe        ..      B        0x28e2 ; vPortEnterCritical + 54
        0x000028e4:    4770        pG      BX       lr
    $d
        0x000028e6:    0000        ..      DCW    0
        0x000028e8:    10000000    ....    DCD    268435456
        0x000028ec:    e000ed04    ....    DCD    3758157060
    $t
    i.vPortExitCritical
    vPortExitCritical
        0x000028f0:    4809        .H      LDR      r0,[pc,#36] ; [0x2918] = 0x10000000
        0x000028f2:    6800        .h      LDR      r0,[r0,#0]
        0x000028f4:    b908        ..      CBNZ     r0,0x28fa ; vPortExitCritical + 10
        0x000028f6:    bf00        ..      NOP      
        0x000028f8:    e7fe        ..      B        0x28f8 ; vPortExitCritical + 8
        0x000028fa:    4807        .H      LDR      r0,[pc,#28] ; [0x2918] = 0x10000000
        0x000028fc:    6800        .h      LDR      r0,[r0,#0]
        0x000028fe:    1e40        @.      SUBS     r0,r0,#1
        0x00002900:    4905        .I      LDR      r1,[pc,#20] ; [0x2918] = 0x10000000
        0x00002902:    6008        .`      STR      r0,[r1,#0]
        0x00002904:    4608        .F      MOV      r0,r1
        0x00002906:    6800        .h      LDR      r0,[r0,#0]
        0x00002908:    b920         .      CBNZ     r0,0x2914 ; vPortExitCritical + 36
        0x0000290a:    2000        .       MOVS     r0,#0
        0x0000290c:    f3808811    ....    MSR      BASEPRI,r0
        0x00002910:    bf00        ..      NOP      
        0x00002912:    bf00        ..      NOP      
        0x00002914:    4770        pG      BX       lr
    $d
        0x00002916:    0000        ..      DCW    0
        0x00002918:    10000000    ....    DCD    268435456
    $t
    i.vPortFree
    vPortFree
        0x0000291c:    b570        p.      PUSH     {r4-r6,lr}
        0x0000291e:    4606        .F      MOV      r6,r0
        0x00002920:    4635        5F      MOV      r5,r6
        0x00002922:    b1b6        ..      CBZ      r6,0x2952 ; vPortFree + 54
        0x00002924:    3d08        .=      SUBS     r5,r5,#8
        0x00002926:    462c        ,F      MOV      r4,r5
        0x00002928:    f000fa7e    ..~.    BL       vTaskSuspendAll ; 0x2e28
        0x0000292c:    6861        ah      LDR      r1,[r4,#4]
        0x0000292e:    4809        .H      LDR      r0,[pc,#36] ; [0x2954] = 0x10000020
        0x00002930:    e000        ..      B        0x2934 ; vPortFree + 24
        0x00002932:    6800        .h      LDR      r0,[r0,#0]
        0x00002934:    6802        .h      LDR      r2,[r0,#0]
        0x00002936:    6852        Rh      LDR      r2,[r2,#4]
        0x00002938:    428a        .B      CMP      r2,r1
        0x0000293a:    d3fa        ..      BCC      0x2932 ; vPortFree + 22
        0x0000293c:    6802        .h      LDR      r2,[r0,#0]
        0x0000293e:    6022        "`      STR      r2,[r4,#0]
        0x00002940:    6004        .`      STR      r4,[r0,#0]
        0x00002942:    4905        .I      LDR      r1,[pc,#20] ; [0x2958] = 0x10000030
        0x00002944:    6860        `h      LDR      r0,[r4,#4]
        0x00002946:    6809        .h      LDR      r1,[r1,#0]
        0x00002948:    4408        .D      ADD      r0,r0,r1
        0x0000294a:    4903        .I      LDR      r1,[pc,#12] ; [0x2958] = 0x10000030
        0x0000294c:    6008        .`      STR      r0,[r1,#0]
        0x0000294e:    f000ffc5    ....    BL       xTaskResumeAll ; 0x38dc
        0x00002952:    bd70        p.      POP      {r4-r6,pc}
    $d
        0x00002954:    10000020     ...    DCD    268435488
        0x00002958:    10000030    0...    DCD    268435504
    $t
    i.vPortSetupTimerInterrupt
    vPortSetupTimerInterrupt
        0x0000295c:    b50e        ..      PUSH     {r1-r3,lr}
        0x0000295e:    2020                MOVS     r0,#0x20
        0x00002960:    4916        .I      LDR      r1,[pc,#88] ; [0x29bc] = 0x1000000c
        0x00002962:    6008        .`      STR      r0,[r1,#0]
        0x00002964:    4608        .F      MOV      r0,r1
        0x00002966:    6800        .h      LDR      r0,[r0,#0]
        0x00002968:    f04f31ff    O..1    MOV      r1,#0xffffffff
        0x0000296c:    fbb1f0f0    ....    UDIV     r0,r1,r0
        0x00002970:    4913        .I      LDR      r1,[pc,#76] ; [0x29c0] = 0x10000010
        0x00002972:    6008        .`      STR      r0,[r1,#0]
        0x00002974:    4a13        .J      LDR      r2,[pc,#76] ; [0x29c4] = 0x3bcc
        0x00002976:    ca07        ..      LDM      r2,{r0-r2}
        0x00002978:    e88d0007    ....    STM      sp,{r0-r2}
        0x0000297c:    4669        iF      MOV      r1,sp
        0x0000297e:    2003        .       MOVS     r0,#3
        0x00002980:    f7fef932    ..2.    BL       am_hal_ctimer_config ; 0xbe8
        0x00002984:    480d        .H      LDR      r0,[pc,#52] ; [0x29bc] = 0x1000000c
        0x00002986:    2200        ."      MOVS     r2,#0
        0x00002988:    1e51        Q.      SUBS     r1,r2,#1
        0x0000298a:    6803        .h      LDR      r3,[r0,#0]
        0x0000298c:    2003        .       MOVS     r0,#3
        0x0000298e:    f7fef8e9    ....    BL       am_hal_ctimer_compare_set ; 0xb64
        0x00002992:    2040        @       MOVS     r0,#0x40
        0x00002994:    f7fef954    ..T.    BL       am_hal_ctimer_int_enable ; 0xc40
        0x00002998:    21e0        .!      MOVS     r1,#0xe0
        0x0000299a:    201a        .       MOVS     r0,#0x1a
        0x0000299c:    f7fefb2e    ....    BL       am_hal_interrupt_priority_set ; 0xffc
        0x000029a0:    4909        .I      LDR      r1,[pc,#36] ; [0x29c8] = 0x30c1
        0x000029a2:    2040        @       MOVS     r0,#0x40
        0x000029a4:    f7fef95e    ..^.    BL       am_hal_ctimer_int_register ; 0xc64
        0x000029a8:    201a        .       MOVS     r0,#0x1a
        0x000029aa:    f7fefb01    ....    BL       am_hal_interrupt_enable ; 0xfb0
        0x000029ae:    f04f31ff    O..1    MOV      r1,#0xffffffff
        0x000029b2:    2003        .       MOVS     r0,#3
        0x000029b4:    f7fefa30    ..0.    BL       am_hal_ctimer_start ; 0xe18
        0x000029b8:    bd0e        ..      POP      {r1-r3,pc}
    $d
        0x000029ba:    0000        ..      DCW    0
        0x000029bc:    1000000c    ....    DCD    268435468
        0x000029c0:    10000010    ....    DCD    268435472
        0x000029c4:    00003bcc    .;..    DCD    15308
        0x000029c8:    000030c1    .0..    DCD    12481
    $t
    i.vPortSuppressTicksAndSleep
    vPortSuppressTicksAndSleep
        0x000029cc:    e92d47f0    -..G    PUSH     {r4-r10,lr}
        0x000029d0:    4605        .F      MOV      r5,r0
        0x000029d2:    4840        @H      LDR      r0,[pc,#256] ; [0x2ad4] = 0x10000010
        0x000029d4:    6800        .h      LDR      r0,[r0,#0]
        0x000029d6:    4285        .B      CMP      r5,r0
        0x000029d8:    d901        ..      BLS      0x29de ; vPortSuppressTicksAndSleep + 18
        0x000029da:    483e        >H      LDR      r0,[pc,#248] ; [0x2ad4] = 0x10000010
        0x000029dc:    6805        .h      LDR      r5,[r0,#0]
        0x000029de:    1e68        h.      SUBS     r0,r5,#1
        0x000029e0:    493d        =I      LDR      r1,[pc,#244] ; [0x2ad8] = 0x1000000c
        0x000029e2:    6809        .h      LDR      r1,[r1,#0]
        0x000029e4:    fb00f401    ....    MUL      r4,r0,r1
        0x000029e8:    b672        r.      CPSID    i
        0x000029ea:    f3bf8f4f    ..O.    DSB      
        0x000029ee:    f3bf8f6f    ..o.    ISB      
        0x000029f2:    f04f31ff    O..1    MOV      r1,#0xffffffff
        0x000029f6:    2003        .       MOVS     r0,#3
        0x000029f8:    f7fefa26    ..&.    BL       am_hal_ctimer_stop ; 0xe48
        0x000029fc:    f04f31ff    O..1    MOV      r1,#0xffffffff
        0x00002a00:    2003        .       MOVS     r0,#3
        0x00002a02:    f7fef9ad    ....    BL       am_hal_ctimer_read ; 0xd60
        0x00002a06:    4681        .F      MOV      r9,r0
        0x00002a08:    f7fff80e    ....    BL       eTaskConfirmSleepModeStatus ; 0x1a28
        0x00002a0c:    b120         .      CBZ      r0,0x2a18 ; vPortSuppressTicksAndSleep + 76
        0x00002a0e:    4832        2H      LDR      r0,[pc,#200] ; [0x2ad8] = 0x1000000c
        0x00002a10:    6800        .h      LDR      r0,[r0,#0]
        0x00002a12:    4448        HD      ADD      r0,r0,r9
        0x00002a14:    42a0        .B      CMP      r0,r4
        0x00002a16:    d906        ..      BLS      0x2a26 ; vPortSuppressTicksAndSleep + 90
        0x00002a18:    f04f31ff    O..1    MOV      r1,#0xffffffff
        0x00002a1c:    2003        .       MOVS     r0,#3
        0x00002a1e:    f7fef9fb    ....    BL       am_hal_ctimer_start ; 0xe18
        0x00002a22:    b662        b.      CPSIE    i
        0x00002a24:    e054        T.      B        0x2ad0 ; vPortSuppressTicksAndSleep + 260
        0x00002a26:    eba40409    ....    SUB      r4,r4,r9
        0x00002a2a:    f04f31ff    O..1    MOV      r1,#0xffffffff
        0x00002a2e:    2003        .       MOVS     r0,#3
        0x00002a30:    f7fef884    ....    BL       am_hal_ctimer_clear ; 0xb3c
        0x00002a34:    4623        #F      MOV      r3,r4
        0x00002a36:    2200        ."      MOVS     r2,#0
        0x00002a38:    1e51        Q.      SUBS     r1,r2,#1
        0x00002a3a:    2003        .       MOVS     r0,#3
        0x00002a3c:    f7fef892    ....    BL       am_hal_ctimer_compare_set ; 0xb64
        0x00002a40:    f04f31ff    O..1    MOV      r1,#0xffffffff
        0x00002a44:    2003        .       MOVS     r0,#3
        0x00002a46:    f7fef9e7    ....    BL       am_hal_ctimer_start ; 0xe18
        0x00002a4a:    46a8        .F      MOV      r8,r5
        0x00002a4c:    bf00        ..      NOP      
        0x00002a4e:    4640        @F      MOV      r0,r8
        0x00002a50:    f7fef81a    ....    BL       am_freertos_sleep ; 0xa88
        0x00002a54:    4680        .F      MOV      r8,r0
        0x00002a56:    bf00        ..      NOP      
        0x00002a58:    f1b80f00    ....    CMP      r8,#0
        0x00002a5c:    d004        ..      BEQ      0x2a68 ; vPortSuppressTicksAndSleep + 156
        0x00002a5e:    f3bf8f4f    ..O.    DSB      
        0x00002a62:    bf30        0.      WFI      
        0x00002a64:    f3bf8f6f    ..o.    ISB      
        0x00002a68:    4628        (F      MOV      r0,r5
        0x00002a6a:    f7fef814    ....    BL       am_freertos_wakeup ; 0xa96
        0x00002a6e:    f04f31ff    O..1    MOV      r1,#0xffffffff
        0x00002a72:    2003        .       MOVS     r0,#3
        0x00002a74:    f7fef9e8    ....    BL       am_hal_ctimer_stop ; 0xe48
        0x00002a78:    f04f31ff    O..1    MOV      r1,#0xffffffff
        0x00002a7c:    2003        .       MOVS     r0,#3
        0x00002a7e:    f7fef96f    ..o.    BL       am_hal_ctimer_read ; 0xd60
        0x00002a82:    4606        .F      MOV      r6,r0
        0x00002a84:    b956        V.      CBNZ     r6,0x2a9c ; vPortSuppressTicksAndSleep + 208
        0x00002a86:    2000        .       MOVS     r0,#0
        0x00002a88:    f7fef952    ..R.    BL       am_hal_ctimer_int_status_get ; 0xd30
        0x00002a8c:    f0000040    ..@.    AND      r0,r0,#0x40
        0x00002a90:    b120         .      CBZ      r0,0x2a9c ; vPortSuppressTicksAndSleep + 208
        0x00002a92:    4627        'F      MOV      r7,r4
        0x00002a94:    2040        @       MOVS     r0,#0x40
        0x00002a96:    f7fef8cd    ....    BL       am_hal_ctimer_int_clear ; 0xc34
        0x00002a9a:    e000        ..      B        0x2a9e ; vPortSuppressTicksAndSleep + 210
        0x00002a9c:    4637        7F      MOV      r7,r6
        0x00002a9e:    480e        .H      LDR      r0,[pc,#56] ; [0x2ad8] = 0x1000000c
        0x00002aa0:    6800        .h      LDR      r0,[r0,#0]
        0x00002aa2:    fbb7f7f0    ....    UDIV     r7,r7,r0
        0x00002aa6:    4638        8F      MOV      r0,r7
        0x00002aa8:    f000f94a    ..J.    BL       vTaskStepTick ; 0x2d40
        0x00002aac:    f04f31ff    O..1    MOV      r1,#0xffffffff
        0x00002ab0:    2003        .       MOVS     r0,#3
        0x00002ab2:    f7fef843    ..C.    BL       am_hal_ctimer_clear ; 0xb3c
        0x00002ab6:    4808        .H      LDR      r0,[pc,#32] ; [0x2ad8] = 0x1000000c
        0x00002ab8:    2200        ."      MOVS     r2,#0
        0x00002aba:    1e51        Q.      SUBS     r1,r2,#1
        0x00002abc:    6803        .h      LDR      r3,[r0,#0]
        0x00002abe:    2003        .       MOVS     r0,#3
        0x00002ac0:    f7fef850    ..P.    BL       am_hal_ctimer_compare_set ; 0xb64
        0x00002ac4:    f04f31ff    O..1    MOV      r1,#0xffffffff
        0x00002ac8:    2003        .       MOVS     r0,#3
        0x00002aca:    f7fef9a5    ....    BL       am_hal_ctimer_start ; 0xe18
        0x00002ace:    b662        b.      CPSIE    i
        0x00002ad0:    e8bd87f0    ....    POP      {r4-r10,pc}
    $d
        0x00002ad4:    10000010    ....    DCD    268435472
        0x00002ad8:    1000000c    ....    DCD    268435468
    $t
    i.vPortValidateInterruptPriority
    vPortValidateInterruptPriority
        0x00002adc:    b570        p.      PUSH     {r4-r6,lr}
        0x00002ade:    f7fdfb87    ....    BL       vPortGetIPSR ; 0x1f0
        0x00002ae2:    4605        .F      MOV      r5,r0
        0x00002ae4:    2d10        .-      CMP      r5,#0x10
        0x00002ae6:    d30d        ..      BCC      0x2b04 ; vPortValidateInterruptPriority + 40
        0x00002ae8:    f10520e0    ...     ADD      r0,r5,#0xe000e000
        0x00002aec:    f89043f0    ...C    LDRB     r4,[r0,#0x3f0]
        0x00002af0:    480c        .H      LDR      r0,[pc,#48] ; [0x2b24] = 0x10000004
        0x00002af2:    7800        .x      LDRB     r0,[r0,#0]
        0x00002af4:    4284        .B      CMP      r4,r0
        0x00002af6:    db01        ..      BLT      0x2afc ; vPortValidateInterruptPriority + 32
        0x00002af8:    2001        .       MOVS     r0,#1
        0x00002afa:    e000        ..      B        0x2afe ; vPortValidateInterruptPriority + 34
        0x00002afc:    2000        .       MOVS     r0,#0
        0x00002afe:    b908        ..      CBNZ     r0,0x2b04 ; vPortValidateInterruptPriority + 40
        0x00002b00:    bf00        ..      NOP      
        0x00002b02:    e7fe        ..      B        0x2b02 ; vPortValidateInterruptPriority + 38
        0x00002b04:    4808        .H      LDR      r0,[pc,#32] ; [0x2b28] = 0xe000ed0c
        0x00002b06:    6800        .h      LDR      r0,[r0,#0]
        0x00002b08:    f40060e0    ...`    AND      r0,r0,#0x700
        0x00002b0c:    4907        .I      LDR      r1,[pc,#28] ; [0x2b2c] = 0x10000008
        0x00002b0e:    6809        .h      LDR      r1,[r1,#0]
        0x00002b10:    4288        .B      CMP      r0,r1
        0x00002b12:    d801        ..      BHI      0x2b18 ; vPortValidateInterruptPriority + 60
        0x00002b14:    2001        .       MOVS     r0,#1
        0x00002b16:    e000        ..      B        0x2b1a ; vPortValidateInterruptPriority + 62
        0x00002b18:    2000        .       MOVS     r0,#0
        0x00002b1a:    b908        ..      CBNZ     r0,0x2b20 ; vPortValidateInterruptPriority + 68
        0x00002b1c:    bf00        ..      NOP      
        0x00002b1e:    e7fe        ..      B        0x2b1e ; vPortValidateInterruptPriority + 66
        0x00002b20:    bd70        p.      POP      {r4-r6,pc}
    $d
        0x00002b22:    0000        ..      DCW    0
        0x00002b24:    10000004    ....    DCD    268435460
        0x00002b28:    e000ed0c    ....    DCD    3758157068
        0x00002b2c:    10000008    ....    DCD    268435464
    $t
    i.vQueueWaitForMessageRestricted
    vQueueWaitForMessageRestricted
        0x00002b30:    e92d41f0    -..A    PUSH     {r4-r8,lr}
        0x00002b34:    4605        .F      MOV      r5,r0
        0x00002b36:    460e        .F      MOV      r6,r1
        0x00002b38:    4617        .F      MOV      r7,r2
        0x00002b3a:    462c        ,F      MOV      r4,r5
        0x00002b3c:    f7fffeb6    ....    BL       vPortEnterCritical ; 0x28ac
        0x00002b40:    f9940044    ..D.    LDRSB    r0,[r4,#0x44]
        0x00002b44:    1c40        @.      ADDS     r0,r0,#1
        0x00002b46:    b910        ..      CBNZ     r0,0x2b4e ; vQueueWaitForMessageRestricted + 30
        0x00002b48:    2000        .       MOVS     r0,#0
        0x00002b4a:    f8840044    ..D.    STRB     r0,[r4,#0x44]
        0x00002b4e:    f9940045    ..E.    LDRSB    r0,[r4,#0x45]
        0x00002b52:    1c40        @.      ADDS     r0,r0,#1
        0x00002b54:    b910        ..      CBNZ     r0,0x2b5c ; vQueueWaitForMessageRestricted + 44
        0x00002b56:    2000        .       MOVS     r0,#0
        0x00002b58:    f8840045    ..E.    STRB     r0,[r4,#0x45]
        0x00002b5c:    f7fffec8    ....    BL       vPortExitCritical ; 0x28f0
        0x00002b60:    6ba0        .k      LDR      r0,[r4,#0x38]
        0x00002b62:    b928        (.      CBNZ     r0,0x2b70 ; vQueueWaitForMessageRestricted + 64
        0x00002b64:    463a        :F      MOV      r2,r7
        0x00002b66:    4631        1F      MOV      r1,r6
        0x00002b68:    f1040024    ..$.    ADD      r0,r4,#0x24
        0x00002b6c:    f000f82c    ..,.    BL       vTaskPlaceOnEventListRestricted ; 0x2bc8
        0x00002b70:    4620         F      MOV      r0,r4
        0x00002b72:    f7fffcb1    ....    BL       prvUnlockQueue ; 0x24d8
        0x00002b76:    e8bd81f0    ....    POP      {r4-r8,pc}
        0x00002b7a:    0000        ..      MOVS     r0,r0
    i.vTaskInternalSetTimeOutState
    vTaskInternalSetTimeOutState
        0x00002b7c:    4903        .I      LDR      r1,[pc,#12] ; [0x2b8c] = 0x1000005c
        0x00002b7e:    6809        .h      LDR      r1,[r1,#0]
        0x00002b80:    6001        .`      STR      r1,[r0,#0]
        0x00002b82:    4903        .I      LDR      r1,[pc,#12] ; [0x2b90] = 0x10000048
        0x00002b84:    6809        .h      LDR      r1,[r1,#0]
        0x00002b86:    6041        A`      STR      r1,[r0,#4]
        0x00002b88:    4770        pG      BX       lr
    $d
        0x00002b8a:    0000        ..      DCW    0
        0x00002b8c:    1000005c    \...    DCD    268435548
        0x00002b90:    10000048    H...    DCD    268435528
    $t
    i.vTaskMissedYield
    vTaskMissedYield
        0x00002b94:    2001        .       MOVS     r0,#1
        0x00002b96:    4901        .I      LDR      r1,[pc,#4] ; [0x2b9c] = 0x10000058
        0x00002b98:    6008        .`      STR      r0,[r1,#0]
        0x00002b9a:    4770        pG      BX       lr
    $d
        0x00002b9c:    10000058    X...    DCD    268435544
    $t
    i.vTaskPlaceOnEventList
    vTaskPlaceOnEventList
        0x00002ba0:    b570        p.      PUSH     {r4-r6,lr}
        0x00002ba2:    4604        .F      MOV      r4,r0
        0x00002ba4:    460d        .F      MOV      r5,r1
        0x00002ba6:    b90c        ..      CBNZ     r4,0x2bac ; vTaskPlaceOnEventList + 12
        0x00002ba8:    bf00        ..      NOP      
        0x00002baa:    e7fe        ..      B        0x2baa ; vTaskPlaceOnEventList + 10
        0x00002bac:    4805        .H      LDR      r0,[pc,#20] ; [0x2bc4] = 0x10000038
        0x00002bae:    6801        .h      LDR      r1,[r0,#0]
        0x00002bb0:    3118        .1      ADDS     r1,r1,#0x18
        0x00002bb2:    4620         F      MOV      r0,r4
        0x00002bb4:    f7fffe53    ..S.    BL       vListInsert ; 0x285e
        0x00002bb8:    2101        .!      MOVS     r1,#1
        0x00002bba:    4628        (F      MOV      r0,r5
        0x00002bbc:    f7fff89e    ....    BL       prvAddCurrentTaskToDelayedList ; 0x1cfc
        0x00002bc0:    bd70        p.      POP      {r4-r6,pc}
    $d
        0x00002bc2:    0000        ..      DCW    0
        0x00002bc4:    10000038    8...    DCD    268435512
    $t
    i.vTaskPlaceOnEventListRestricted
    vTaskPlaceOnEventListRestricted
        0x00002bc8:    b570        p.      PUSH     {r4-r6,lr}
        0x00002bca:    4605        .F      MOV      r5,r0
        0x00002bcc:    460e        .F      MOV      r6,r1
        0x00002bce:    4614        .F      MOV      r4,r2
        0x00002bd0:    b90d        ..      CBNZ     r5,0x2bd6 ; vTaskPlaceOnEventListRestricted + 14
        0x00002bd2:    bf00        ..      NOP      
        0x00002bd4:    e7fe        ..      B        0x2bd4 ; vTaskPlaceOnEventListRestricted + 12
        0x00002bd6:    4807        .H      LDR      r0,[pc,#28] ; [0x2bf4] = 0x10000038
        0x00002bd8:    6801        .h      LDR      r1,[r0,#0]
        0x00002bda:    3118        .1      ADDS     r1,r1,#0x18
        0x00002bdc:    4628        (F      MOV      r0,r5
        0x00002bde:    f7fffe58    ..X.    BL       vListInsertEnd ; 0x2892
        0x00002be2:    b10c        ..      CBZ      r4,0x2be8 ; vTaskPlaceOnEventListRestricted + 32
        0x00002be4:    f04f36ff    O..6    MOV      r6,#0xffffffff
        0x00002be8:    4621        !F      MOV      r1,r4
        0x00002bea:    4630        0F      MOV      r0,r6
        0x00002bec:    f7fff886    ....    BL       prvAddCurrentTaskToDelayedList ; 0x1cfc
        0x00002bf0:    bd70        p.      POP      {r4-r6,pc}
    $d
        0x00002bf2:    0000        ..      DCW    0
        0x00002bf4:    10000038    8...    DCD    268435512
    $t
    i.vTaskPlaceOnUnorderedEventList
    vTaskPlaceOnUnorderedEventList
        0x00002bf8:    b570        p.      PUSH     {r4-r6,lr}
        0x00002bfa:    4604        .F      MOV      r4,r0
        0x00002bfc:    460d        .F      MOV      r5,r1
        0x00002bfe:    4616        .F      MOV      r6,r2
        0x00002c00:    b90c        ..      CBNZ     r4,0x2c06 ; vTaskPlaceOnUnorderedEventList + 14
        0x00002c02:    bf00        ..      NOP      
        0x00002c04:    e7fe        ..      B        0x2c04 ; vTaskPlaceOnUnorderedEventList + 12
        0x00002c06:    480c        .H      LDR      r0,[pc,#48] ; [0x2c38] = 0x1000006c
        0x00002c08:    6800        .h      LDR      r0,[r0,#0]
        0x00002c0a:    b108        ..      CBZ      r0,0x2c10 ; vTaskPlaceOnUnorderedEventList + 24
        0x00002c0c:    2001        .       MOVS     r0,#1
        0x00002c0e:    e000        ..      B        0x2c12 ; vTaskPlaceOnUnorderedEventList + 26
        0x00002c10:    2000        .       MOVS     r0,#0
        0x00002c12:    b908        ..      CBNZ     r0,0x2c18 ; vTaskPlaceOnUnorderedEventList + 32
        0x00002c14:    bf00        ..      NOP      
        0x00002c16:    e7fe        ..      B        0x2c16 ; vTaskPlaceOnUnorderedEventList + 30
        0x00002c18:    f0454000    E..@    ORR      r0,r5,#0x80000000
        0x00002c1c:    4907        .I      LDR      r1,[pc,#28] ; [0x2c3c] = 0x10000038
        0x00002c1e:    6809        .h      LDR      r1,[r1,#0]
        0x00002c20:    6188        .a      STR      r0,[r1,#0x18]
        0x00002c22:    4806        .H      LDR      r0,[pc,#24] ; [0x2c3c] = 0x10000038
        0x00002c24:    6801        .h      LDR      r1,[r0,#0]
        0x00002c26:    3118        .1      ADDS     r1,r1,#0x18
        0x00002c28:    4620         F      MOV      r0,r4
        0x00002c2a:    f7fffe32    ..2.    BL       vListInsertEnd ; 0x2892
        0x00002c2e:    2101        .!      MOVS     r1,#1
        0x00002c30:    4630        0F      MOV      r0,r6
        0x00002c32:    f7fff863    ..c.    BL       prvAddCurrentTaskToDelayedList ; 0x1cfc
        0x00002c36:    bd70        p.      POP      {r4-r6,pc}
    $d
        0x00002c38:    1000006c    l...    DCD    268435564
        0x00002c3c:    10000038    8...    DCD    268435512
    $t
    i.vTaskRemoveFromUnorderedEventList
    vTaskRemoveFromUnorderedEventList
        0x00002c40:    b570        p.      PUSH     {r4-r6,lr}
        0x00002c42:    4605        .F      MOV      r5,r0
        0x00002c44:    460e        .F      MOV      r6,r1
        0x00002c46:    4818        .H      LDR      r0,[pc,#96] ; [0x2ca8] = 0x1000006c
        0x00002c48:    6800        .h      LDR      r0,[r0,#0]
        0x00002c4a:    b108        ..      CBZ      r0,0x2c50 ; vTaskRemoveFromUnorderedEventList + 16
        0x00002c4c:    2001        .       MOVS     r0,#1
        0x00002c4e:    e000        ..      B        0x2c52 ; vTaskRemoveFromUnorderedEventList + 18
        0x00002c50:    2000        .       MOVS     r0,#0
        0x00002c52:    b908        ..      CBNZ     r0,0x2c58 ; vTaskRemoveFromUnorderedEventList + 24
        0x00002c54:    bf00        ..      NOP      
        0x00002c56:    e7fe        ..      B        0x2c56 ; vTaskRemoveFromUnorderedEventList + 22
        0x00002c58:    f0464000    F..@    ORR      r0,r6,#0x80000000
        0x00002c5c:    6028        (`      STR      r0,[r5,#0]
        0x00002c5e:    68ec        .h      LDR      r4,[r5,#0xc]
        0x00002c60:    b90c        ..      CBNZ     r4,0x2c66 ; vTaskRemoveFromUnorderedEventList + 38
        0x00002c62:    bf00        ..      NOP      
        0x00002c64:    e7fe        ..      B        0x2c64 ; vTaskRemoveFromUnorderedEventList + 36
        0x00002c66:    4628        (F      MOV      r0,r5
        0x00002c68:    f7fffdb9    ....    BL       uxListRemove ; 0x27de
        0x00002c6c:    1d20         .      ADDS     r0,r4,#4
        0x00002c6e:    f7fffdb6    ....    BL       uxListRemove ; 0x27de
        0x00002c72:    490e        .I      LDR      r1,[pc,#56] ; [0x2cac] = 0x1000004c
        0x00002c74:    6ae0        .j      LDR      r0,[r4,#0x2c]
        0x00002c76:    6809        .h      LDR      r1,[r1,#0]
        0x00002c78:    4288        .B      CMP      r0,r1
        0x00002c7a:    d902        ..      BLS      0x2c82 ; vTaskRemoveFromUnorderedEventList + 66
        0x00002c7c:    490b        .I      LDR      r1,[pc,#44] ; [0x2cac] = 0x1000004c
        0x00002c7e:    6ae0        .j      LDR      r0,[r4,#0x2c]
        0x00002c80:    6008        .`      STR      r0,[r1,#0]
        0x00002c82:    6ae1        .j      LDR      r1,[r4,#0x2c]
        0x00002c84:    eb010181    ....    ADD      r1,r1,r1,LSL #2
        0x00002c88:    4a09        .J      LDR      r2,[pc,#36] ; [0x2cb0] = 0x100040b8
        0x00002c8a:    eb020081    ....    ADD      r0,r2,r1,LSL #2
        0x00002c8e:    1d21        !.      ADDS     r1,r4,#4
        0x00002c90:    f7fffdff    ....    BL       vListInsertEnd ; 0x2892
        0x00002c94:    4907        .I      LDR      r1,[pc,#28] ; [0x2cb4] = 0x10000038
        0x00002c96:    6ae0        .j      LDR      r0,[r4,#0x2c]
        0x00002c98:    6809        .h      LDR      r1,[r1,#0]
        0x00002c9a:    6ac9        .j      LDR      r1,[r1,#0x2c]
        0x00002c9c:    4288        .B      CMP      r0,r1
        0x00002c9e:    d902        ..      BLS      0x2ca6 ; vTaskRemoveFromUnorderedEventList + 102
        0x00002ca0:    2001        .       MOVS     r0,#1
        0x00002ca2:    4905        .I      LDR      r1,[pc,#20] ; [0x2cb8] = 0x10000058
        0x00002ca4:    6008        .`      STR      r0,[r1,#0]
        0x00002ca6:    bd70        p.      POP      {r4-r6,pc}
    $d
        0x00002ca8:    1000006c    l...    DCD    268435564
        0x00002cac:    1000004c    L...    DCD    268435532
        0x00002cb0:    100040b8    .@..    DCD    268452024
        0x00002cb4:    10000038    8...    DCD    268435512
        0x00002cb8:    10000058    X...    DCD    268435544
    $t
    i.vTaskStartScheduler
    vTaskStartScheduler
        0x00002cbc:    b51c        ..      PUSH     {r2-r4,lr}
        0x00002cbe:    4819        .H      LDR      r0,[pc,#100] ; [0x2d24] = 0x10000068
        0x00002cc0:    2100        .!      MOVS     r1,#0
        0x00002cc2:    460b        .F      MOV      r3,r1
        0x00002cc4:    f44f7280    O..r    MOV      r2,#0x100
        0x00002cc8:    e9cd1000    ....    STRD     r1,r0,[sp,#0]
        0x00002ccc:    a116        ..      ADR      r1,{pc}+0x5c ; 0x2d28
        0x00002cce:    4818        .H      LDR      r0,[pc,#96] ; [0x2d30] = 0x1fb5
        0x00002cd0:    f000fcee    ....    BL       xTaskCreate ; 0x36b0
        0x00002cd4:    4604        .F      MOV      r4,r0
        0x00002cd6:    2c01        .,      CMP      r4,#1
        0x00002cd8:    d102        ..      BNE      0x2ce0 ; vTaskStartScheduler + 36
        0x00002cda:    f000fe77    ..w.    BL       xTimerCreateTimerTask ; 0x39cc
        0x00002cde:    4604        .F      MOV      r4,r0
        0x00002ce0:    2c01        .,      CMP      r4,#1
        0x00002ce2:    d115        ..      BNE      0x2d10 ; vTaskStartScheduler + 84
        0x00002ce4:    bf00        ..      NOP      
        0x00002ce6:    2080        .       MOVS     r0,#0x80
        0x00002ce8:    f3808811    ....    MSR      BASEPRI,r0
        0x00002cec:    f3bf8f4f    ..O.    DSB      
        0x00002cf0:    f3bf8f6f    ..o.    ISB      
        0x00002cf4:    bf00        ..      NOP      
        0x00002cf6:    f04f30ff    O..0    MOV      r0,#0xffffffff
        0x00002cfa:    490e        .I      LDR      r1,[pc,#56] ; [0x2d34] = 0x10000064
        0x00002cfc:    6008        .`      STR      r0,[r1,#0]
        0x00002cfe:    2001        .       MOVS     r0,#1
        0x00002d00:    490d        .I      LDR      r1,[pc,#52] ; [0x2d38] = 0x10000050
        0x00002d02:    6008        .`      STR      r0,[r1,#0]
        0x00002d04:    2000        .       MOVS     r0,#0
        0x00002d06:    490d        .I      LDR      r1,[pc,#52] ; [0x2d3c] = 0x10000048
        0x00002d08:    6008        .`      STR      r0,[r1,#0]
        0x00002d0a:    f000fa07    ....    BL       xPortStartScheduler ; 0x311c
        0x00002d0e:    e007        ..      B        0x2d20 ; vTaskStartScheduler + 100
        0x00002d10:    1c60        `.      ADDS     r0,r4,#1
        0x00002d12:    b108        ..      CBZ      r0,0x2d18 ; vTaskStartScheduler + 92
        0x00002d14:    2001        .       MOVS     r0,#1
        0x00002d16:    e000        ..      B        0x2d1a ; vTaskStartScheduler + 94
        0x00002d18:    2000        .       MOVS     r0,#0
        0x00002d1a:    b908        ..      CBNZ     r0,0x2d20 ; vTaskStartScheduler + 100
        0x00002d1c:    bf00        ..      NOP      
        0x00002d1e:    e7fe        ..      B        0x2d1e ; vTaskStartScheduler + 98
        0x00002d20:    bd1c        ..      POP      {r2-r4,pc}
    $d
        0x00002d22:    0000        ..      DCW    0
        0x00002d24:    10000068    h...    DCD    268435560
        0x00002d28:    454c4449    IDLE    DCD    1162626121
        0x00002d2c:    00000000    ....    DCD    0
        0x00002d30:    00001fb5    ....    DCD    8117
        0x00002d34:    10000064    d...    DCD    268435556
        0x00002d38:    10000050    P...    DCD    268435536
        0x00002d3c:    10000048    H...    DCD    268435528
    $t
    i.vTaskStepTick
    vTaskStepTick
        0x00002d40:    4909        .I      LDR      r1,[pc,#36] ; [0x2d68] = 0x10000048
        0x00002d42:    6809        .h      LDR      r1,[r1,#0]
        0x00002d44:    4401        .D      ADD      r1,r1,r0
        0x00002d46:    4a09        .J      LDR      r2,[pc,#36] ; [0x2d6c] = 0x10000064
        0x00002d48:    6812        .h      LDR      r2,[r2,#0]
        0x00002d4a:    4291        .B      CMP      r1,r2
        0x00002d4c:    d801        ..      BHI      0x2d52 ; vTaskStepTick + 18
        0x00002d4e:    2101        .!      MOVS     r1,#1
        0x00002d50:    e000        ..      B        0x2d54 ; vTaskStepTick + 20
        0x00002d52:    2100        .!      MOVS     r1,#0
        0x00002d54:    b909        ..      CBNZ     r1,0x2d5a ; vTaskStepTick + 26
        0x00002d56:    bf00        ..      NOP      
        0x00002d58:    e7fe        ..      B        0x2d58 ; vTaskStepTick + 24
        0x00002d5a:    4903        .I      LDR      r1,[pc,#12] ; [0x2d68] = 0x10000048
        0x00002d5c:    6809        .h      LDR      r1,[r1,#0]
        0x00002d5e:    4401        .D      ADD      r1,r1,r0
        0x00002d60:    4a01        .J      LDR      r2,[pc,#4] ; [0x2d68] = 0x10000048
        0x00002d62:    6011        .`      STR      r1,[r2,#0]
        0x00002d64:    4770        pG      BX       lr
    $d
        0x00002d66:    0000        ..      DCW    0
        0x00002d68:    10000048    H...    DCD    268435528
        0x00002d6c:    10000064    d...    DCD    268435556
    $t
    i.vTaskSuspend
    vTaskSuspend
        0x00002d70:    b570        p.      PUSH     {r4-r6,lr}
        0x00002d72:    4605        .F      MOV      r5,r0
        0x00002d74:    f7fffd9a    ....    BL       vPortEnterCritical ; 0x28ac
        0x00002d78:    b915        ..      CBNZ     r5,0x2d80 ; vTaskSuspend + 16
        0x00002d7a:    4825        %H      LDR      r0,[pc,#148] ; [0x2e10] = 0x10000038
        0x00002d7c:    6800        .h      LDR      r0,[r0,#0]
        0x00002d7e:    e000        ..      B        0x2d82 ; vTaskSuspend + 18
        0x00002d80:    4628        (F      MOV      r0,r5
        0x00002d82:    4604        .F      MOV      r4,r0
        0x00002d84:    1d20         .      ADDS     r0,r4,#4
        0x00002d86:    f7fffd2a    ..*.    BL       uxListRemove ; 0x27de
        0x00002d8a:    6aa0        .j      LDR      r0,[r4,#0x28]
        0x00002d8c:    b118        ..      CBZ      r0,0x2d96 ; vTaskSuspend + 38
        0x00002d8e:    f1040018    ....    ADD      r0,r4,#0x18
        0x00002d92:    f7fffd24    ..$.    BL       uxListRemove ; 0x27de
        0x00002d96:    1d21        !.      ADDS     r1,r4,#4
        0x00002d98:    481e        .H      LDR      r0,[pc,#120] ; [0x2e14] = 0x10004144
        0x00002d9a:    f7fffd7a    ..z.    BL       vListInsertEnd ; 0x2892
        0x00002d9e:    f8940048    ..H.    LDRB     r0,[r4,#0x48]
        0x00002da2:    2801        .(      CMP      r0,#1
        0x00002da4:    d102        ..      BNE      0x2dac ; vTaskSuspend + 60
        0x00002da6:    2000        .       MOVS     r0,#0
        0x00002da8:    f8840048    ..H.    STRB     r0,[r4,#0x48]
        0x00002dac:    f7fffda0    ....    BL       vPortExitCritical ; 0x28f0
        0x00002db0:    4819        .H      LDR      r0,[pc,#100] ; [0x2e18] = 0x10000050
        0x00002db2:    6800        .h      LDR      r0,[r0,#0]
        0x00002db4:    b128        (.      CBZ      r0,0x2dc2 ; vTaskSuspend + 82
        0x00002db6:    f7fffd79    ..y.    BL       vPortEnterCritical ; 0x28ac
        0x00002dba:    f7fffae3    ....    BL       prvResetNextTaskUnblockTime ; 0x2384
        0x00002dbe:    f7fffd97    ....    BL       vPortExitCritical ; 0x28f0
        0x00002dc2:    4813        .H      LDR      r0,[pc,#76] ; [0x2e10] = 0x10000038
        0x00002dc4:    6800        .h      LDR      r0,[r0,#0]
        0x00002dc6:    4284        .B      CMP      r4,r0
        0x00002dc8:    d120         .      BNE      0x2e0c ; vTaskSuspend + 156
        0x00002dca:    4813        .H      LDR      r0,[pc,#76] ; [0x2e18] = 0x10000050
        0x00002dcc:    6800        .h      LDR      r0,[r0,#0]
        0x00002dce:    b188        ..      CBZ      r0,0x2df4 ; vTaskSuspend + 132
        0x00002dd0:    4812        .H      LDR      r0,[pc,#72] ; [0x2e1c] = 0x1000006c
        0x00002dd2:    6800        .h      LDR      r0,[r0,#0]
        0x00002dd4:    b908        ..      CBNZ     r0,0x2dda ; vTaskSuspend + 106
        0x00002dd6:    2001        .       MOVS     r0,#1
        0x00002dd8:    e000        ..      B        0x2ddc ; vTaskSuspend + 108
        0x00002dda:    2000        .       MOVS     r0,#0
        0x00002ddc:    b908        ..      CBNZ     r0,0x2de2 ; vTaskSuspend + 114
        0x00002dde:    bf00        ..      NOP      
        0x00002de0:    e7fe        ..      B        0x2de0 ; vTaskSuspend + 112
        0x00002de2:    f04f5080    O..P    MOV      r0,#0x10000000
        0x00002de6:    490e        .I      LDR      r1,[pc,#56] ; [0x2e20] = 0xe000ed04
        0x00002de8:    6008        .`      STR      r0,[r1,#0]
        0x00002dea:    f3bf8f4f    ..O.    DSB      
        0x00002dee:    f3bf8f6f    ..o.    ISB      
        0x00002df2:    e00b        ..      B        0x2e0c ; vTaskSuspend + 156
        0x00002df4:    4807        .H      LDR      r0,[pc,#28] ; [0x2e14] = 0x10004144
        0x00002df6:    6800        .h      LDR      r0,[r0,#0]
        0x00002df8:    490a        .I      LDR      r1,[pc,#40] ; [0x2e24] = 0x10000044
        0x00002dfa:    6809        .h      LDR      r1,[r1,#0]
        0x00002dfc:    4288        .B      CMP      r0,r1
        0x00002dfe:    d103        ..      BNE      0x2e08 ; vTaskSuspend + 152
        0x00002e00:    2000        .       MOVS     r0,#0
        0x00002e02:    4903        .I      LDR      r1,[pc,#12] ; [0x2e10] = 0x10000038
        0x00002e04:    6008        .`      STR      r0,[r1,#0]
        0x00002e06:    e001        ..      B        0x2e0c ; vTaskSuspend + 156
        0x00002e08:    f000f816    ....    BL       vTaskSwitchContext ; 0x2e38
        0x00002e0c:    bd70        p.      POP      {r4-r6,pc}
    $d
        0x00002e0e:    0000        ..      DCW    0
        0x00002e10:    10000038    8...    DCD    268435512
        0x00002e14:    10004144    DA..    DCD    268452164
        0x00002e18:    10000050    P...    DCD    268435536
        0x00002e1c:    1000006c    l...    DCD    268435564
        0x00002e20:    e000ed04    ....    DCD    3758157060
        0x00002e24:    10000044    D...    DCD    268435524
    $t
    i.vTaskSuspendAll
    vTaskSuspendAll
        0x00002e28:    4802        .H      LDR      r0,[pc,#8] ; [0x2e34] = 0x1000006c
        0x00002e2a:    6800        .h      LDR      r0,[r0,#0]
        0x00002e2c:    1c40        @.      ADDS     r0,r0,#1
        0x00002e2e:    4901        .I      LDR      r1,[pc,#4] ; [0x2e34] = 0x1000006c
        0x00002e30:    6008        .`      STR      r0,[r1,#0]
        0x00002e32:    4770        pG      BX       lr
    $d
        0x00002e34:    1000006c    l...    DCD    268435564
    $t
    i.vTaskSwitchContext
    vTaskSwitchContext
        0x00002e38:    b570        p.      PUSH     {r4-r6,lr}
        0x00002e3a:    4827        'H      LDR      r0,[pc,#156] ; [0x2ed8] = 0x1000006c
        0x00002e3c:    6800        .h      LDR      r0,[r0,#0]
        0x00002e3e:    b118        ..      CBZ      r0,0x2e48 ; vTaskSwitchContext + 16
        0x00002e40:    2001        .       MOVS     r0,#1
        0x00002e42:    4926        &I      LDR      r1,[pc,#152] ; [0x2edc] = 0x10000058
        0x00002e44:    6008        .`      STR      r0,[r1,#0]
        0x00002e46:    e046        F.      B        0x2ed6 ; vTaskSwitchContext + 158
        0x00002e48:    2000        .       MOVS     r0,#0
        0x00002e4a:    4924        $I      LDR      r1,[pc,#144] ; [0x2edc] = 0x10000058
        0x00002e4c:    6008        .`      STR      r0,[r1,#0]
        0x00002e4e:    4824        $H      LDR      r0,[pc,#144] ; [0x2ee0] = 0x10000038
        0x00002e50:    6800        .h      LDR      r0,[r0,#0]
        0x00002e52:    6b04        .k      LDR      r4,[r0,#0x30]
        0x00002e54:    f04f35a5    O..5    MOV      r5,#0xa5a5a5a5
        0x00002e58:    6820         h      LDR      r0,[r4,#0]
        0x00002e5a:    f1b03fa5    ...?    CMP      r0,#0xa5a5a5a5
        0x00002e5e:    d10b        ..      BNE      0x2e78 ; vTaskSwitchContext + 64
        0x00002e60:    6860        `h      LDR      r0,[r4,#4]
        0x00002e62:    f1b03fa5    ...?    CMP      r0,#0xa5a5a5a5
        0x00002e66:    d107        ..      BNE      0x2e78 ; vTaskSwitchContext + 64
        0x00002e68:    68a0        .h      LDR      r0,[r4,#8]
        0x00002e6a:    f1b03fa5    ...?    CMP      r0,#0xa5a5a5a5
        0x00002e6e:    d103        ..      BNE      0x2e78 ; vTaskSwitchContext + 64
        0x00002e70:    68e0        .h      LDR      r0,[r4,#0xc]
        0x00002e72:    f1b03fa5    ...?    CMP      r0,#0xa5a5a5a5
        0x00002e76:    d005        ..      BEQ      0x2e84 ; vTaskSwitchContext + 76
        0x00002e78:    4819        .H      LDR      r0,[pc,#100] ; [0x2ee0] = 0x10000038
        0x00002e7a:    6801        .h      LDR      r1,[r0,#0]
        0x00002e7c:    3134        41      ADDS     r1,r1,#0x34
        0x00002e7e:    6800        .h      LDR      r0,[r0,#0]
        0x00002e80:    f7fffcd2    ....    BL       vApplicationStackOverflowHook ; 0x2828
        0x00002e84:    4817        .H      LDR      r0,[pc,#92] ; [0x2ee4] = 0x1000004c
        0x00002e86:    6801        .h      LDR      r1,[r0,#0]
        0x00002e88:    e003        ..      B        0x2e92 ; vTaskSwitchContext + 90
        0x00002e8a:    b909        ..      CBNZ     r1,0x2e90 ; vTaskSwitchContext + 88
        0x00002e8c:    bf00        ..      NOP      
        0x00002e8e:    e7fe        ..      B        0x2e8e ; vTaskSwitchContext + 86
        0x00002e90:    1e49        I.      SUBS     r1,r1,#1
        0x00002e92:    eb010081    ....    ADD      r0,r1,r1,LSL #2
        0x00002e96:    4a14        .J      LDR      r2,[pc,#80] ; [0x2ee8] = 0x100040b8
        0x00002e98:    f8520020    R. .    LDR      r0,[r2,r0,LSL #2]
        0x00002e9c:    b908        ..      CBNZ     r0,0x2ea2 ; vTaskSwitchContext + 106
        0x00002e9e:    2001        .       MOVS     r0,#1
        0x00002ea0:    e000        ..      B        0x2ea4 ; vTaskSwitchContext + 108
        0x00002ea2:    2000        .       MOVS     r0,#0
        0x00002ea4:    2800        .(      CMP      r0,#0
        0x00002ea6:    d1f0        ..      BNE      0x2e8a ; vTaskSwitchContext + 82
        0x00002ea8:    eb010281    ....    ADD      r2,r1,r1,LSL #2
        0x00002eac:    4b0e        .K      LDR      r3,[pc,#56] ; [0x2ee8] = 0x100040b8
        0x00002eae:    eb030082    ....    ADD      r0,r3,r2,LSL #2
        0x00002eb2:    6842        Bh      LDR      r2,[r0,#4]
        0x00002eb4:    6852        Rh      LDR      r2,[r2,#4]
        0x00002eb6:    6042        B`      STR      r2,[r0,#4]
        0x00002eb8:    f1000208    ....    ADD      r2,r0,#8
        0x00002ebc:    6843        Ch      LDR      r3,[r0,#4]
        0x00002ebe:    4293        .B      CMP      r3,r2
        0x00002ec0:    d102        ..      BNE      0x2ec8 ; vTaskSwitchContext + 144
        0x00002ec2:    6842        Bh      LDR      r2,[r0,#4]
        0x00002ec4:    6852        Rh      LDR      r2,[r2,#4]
        0x00002ec6:    6042        B`      STR      r2,[r0,#4]
        0x00002ec8:    6842        Bh      LDR      r2,[r0,#4]
        0x00002eca:    68d2        .h      LDR      r2,[r2,#0xc]
        0x00002ecc:    4b04        .K      LDR      r3,[pc,#16] ; [0x2ee0] = 0x10000038
        0x00002ece:    601a        .`      STR      r2,[r3,#0]
        0x00002ed0:    4804        .H      LDR      r0,[pc,#16] ; [0x2ee4] = 0x1000004c
        0x00002ed2:    6001        .`      STR      r1,[r0,#0]
        0x00002ed4:    bf00        ..      NOP      
        0x00002ed6:    bd70        p.      POP      {r4-r6,pc}
    $d
        0x00002ed8:    1000006c    l...    DCD    268435564
        0x00002edc:    10000058    X...    DCD    268435544
        0x00002ee0:    10000038    8...    DCD    268435512
        0x00002ee4:    1000004c    L...    DCD    268435532
        0x00002ee8:    100040b8    .@..    DCD    268452024
    $t
    i.xEventGroupCreate
    xEventGroupCreate
        0x00002eec:    b510        ..      PUSH     {r4,lr}
        0x00002eee:    2018        .       MOVS     r0,#0x18
        0x00002ef0:    f7fffb32    ..2.    BL       pvPortMalloc ; 0x2558
        0x00002ef4:    4604        .F      MOV      r4,r0
        0x00002ef6:    b124        $.      CBZ      r4,0x2f02 ; xEventGroupCreate + 22
        0x00002ef8:    2000        .       MOVS     r0,#0
        0x00002efa:    6020         `      STR      r0,[r4,#0]
        0x00002efc:    1d20         .      ADDS     r0,r4,#4
        0x00002efe:    f7fffc9e    ....    BL       vListInitialise ; 0x283e
        0x00002f02:    4620         F      MOV      r0,r4
        0x00002f04:    bd10        ..      POP      {r4,pc}
    i.xEventGroupSetBits
    xEventGroupSetBits
        0x00002f06:    e92d4ffe    -..O    PUSH     {r1-r11,lr}
        0x00002f0a:    4607        .F      MOV      r7,r0
        0x00002f0c:    4688        .F      MOV      r8,r1
        0x00002f0e:    2000        .       MOVS     r0,#0
        0x00002f10:    9001        ..      STR      r0,[sp,#4]
        0x00002f12:    463c        <F      MOV      r4,r7
        0x00002f14:    9000        ..      STR      r0,[sp,#0]
        0x00002f16:    b90f        ..      CBNZ     r7,0x2f1c ; xEventGroupSetBits + 22
        0x00002f18:    bf00        ..      NOP      
        0x00002f1a:    e7fe        ..      B        0x2f1a ; xEventGroupSetBits + 20
        0x00002f1c:    f008407f    ...@    AND      r0,r8,#0xff000000
        0x00002f20:    b908        ..      CBNZ     r0,0x2f26 ; xEventGroupSetBits + 32
        0x00002f22:    2001        .       MOVS     r0,#1
        0x00002f24:    e000        ..      B        0x2f28 ; xEventGroupSetBits + 34
        0x00002f26:    2000        .       MOVS     r0,#0
        0x00002f28:    b908        ..      CBNZ     r0,0x2f2e ; xEventGroupSetBits + 40
        0x00002f2a:    bf00        ..      NOP      
        0x00002f2c:    e7fe        ..      B        0x2f2c ; xEventGroupSetBits + 38
        0x00002f2e:    f1040904    ....    ADD      r9,r4,#4
        0x00002f32:    f1090008    ....    ADD      r0,r9,#8
        0x00002f36:    9002        ..      STR      r0,[sp,#8]
        0x00002f38:    f7ffff76    ..v.    BL       vTaskSuspendAll ; 0x2e28
        0x00002f3c:    f8d9600c    ...`    LDR      r6,[r9,#0xc]
        0x00002f40:    6820         h      LDR      r0,[r4,#0]
        0x00002f42:    ea400008    @...    ORR      r0,r0,r8
        0x00002f46:    6020         `      STR      r0,[r4,#0]
        0x00002f48:    e026        &.      B        0x2f98 ; xEventGroupSetBits + 146
        0x00002f4a:    f8d6b004    ....    LDR      r11,[r6,#4]
        0x00002f4e:    6835        5h      LDR      r5,[r6,#0]
        0x00002f50:    2000        .       MOVS     r0,#0
        0x00002f52:    9000        ..      STR      r0,[sp,#0]
        0x00002f54:    f0054a7f    ...J    AND      r10,r5,#0xff000000
        0x00002f58:    f025457f    %..E    BIC      r5,r5,#0xff000000
        0x00002f5c:    f00a6080    ...`    AND      r0,r10,#0x4000000
        0x00002f60:    b928        (.      CBNZ     r0,0x2f6e ; xEventGroupSetBits + 104
        0x00002f62:    6820         h      LDR      r0,[r4,#0]
        0x00002f64:    4028        (@      ANDS     r0,r0,r5
        0x00002f66:    b140        @.      CBZ      r0,0x2f7a ; xEventGroupSetBits + 116
        0x00002f68:    2001        .       MOVS     r0,#1
        0x00002f6a:    9000        ..      STR      r0,[sp,#0]
        0x00002f6c:    e005        ..      B        0x2f7a ; xEventGroupSetBits + 116
        0x00002f6e:    6820         h      LDR      r0,[r4,#0]
        0x00002f70:    4028        (@      ANDS     r0,r0,r5
        0x00002f72:    42a8        .B      CMP      r0,r5
        0x00002f74:    d101        ..      BNE      0x2f7a ; xEventGroupSetBits + 116
        0x00002f76:    2001        .       MOVS     r0,#1
        0x00002f78:    9000        ..      STR      r0,[sp,#0]
        0x00002f7a:    9800        ..      LDR      r0,[sp,#0]
        0x00002f7c:    b158        X.      CBZ      r0,0x2f96 ; xEventGroupSetBits + 144
        0x00002f7e:    f00a7080    ...p    AND      r0,r10,#0x1000000
        0x00002f82:    b110        ..      CBZ      r0,0x2f8a ; xEventGroupSetBits + 132
        0x00002f84:    9801        ..      LDR      r0,[sp,#4]
        0x00002f86:    4328        (C      ORRS     r0,r0,r5
        0x00002f88:    9001        ..      STR      r0,[sp,#4]
        0x00002f8a:    6820         h      LDR      r0,[r4,#0]
        0x00002f8c:    f0407100    @..q    ORR      r1,r0,#0x2000000
        0x00002f90:    4630        0F      MOV      r0,r6
        0x00002f92:    f7fffe55    ..U.    BL       vTaskRemoveFromUnorderedEventList ; 0x2c40
        0x00002f96:    465e        ^F      MOV      r6,r11
        0x00002f98:    9802        ..      LDR      r0,[sp,#8]
        0x00002f9a:    4286        .B      CMP      r6,r0
        0x00002f9c:    d1d5        ..      BNE      0x2f4a ; xEventGroupSetBits + 68
        0x00002f9e:    6820         h      LDR      r0,[r4,#0]
        0x00002fa0:    9901        ..      LDR      r1,[sp,#4]
        0x00002fa2:    4388        .C      BICS     r0,r0,r1
        0x00002fa4:    6020         `      STR      r0,[r4,#0]
        0x00002fa6:    f000fc99    ....    BL       xTaskResumeAll ; 0x38dc
        0x00002faa:    6820         h      LDR      r0,[r4,#0]
        0x00002fac:    e8bd8ffe    ....    POP      {r1-r11,pc}
    i.xEventGroupWaitBits
    xEventGroupWaitBits
        0x00002fb0:    e92d4fff    -..O    PUSH     {r0-r11,lr}
        0x00002fb4:    b083        ..      SUB      sp,sp,#0xc
        0x00002fb6:    4681        .F      MOV      r9,r0
        0x00002fb8:    460d        .F      MOV      r5,r1
        0x00002fba:    4617        .F      MOV      r7,r2
        0x00002fbc:    f8dd8040    ..@.    LDR      r8,[sp,#0x40]
        0x00002fc0:    464c        LF      MOV      r4,r9
        0x00002fc2:    f04f0a00    O...    MOV      r10,#0
        0x00002fc6:    2000        .       MOVS     r0,#0
        0x00002fc8:    9001        ..      STR      r0,[sp,#4]
        0x00002fca:    f1b90f00    ....    CMP      r9,#0
        0x00002fce:    d101        ..      BNE      0x2fd4 ; xEventGroupWaitBits + 36
        0x00002fd0:    bf00        ..      NOP      
        0x00002fd2:    e7fe        ..      B        0x2fd2 ; xEventGroupWaitBits + 34
        0x00002fd4:    f005407f    ...@    AND      r0,r5,#0xff000000
        0x00002fd8:    b908        ..      CBNZ     r0,0x2fde ; xEventGroupWaitBits + 46
        0x00002fda:    2001        .       MOVS     r0,#1
        0x00002fdc:    e000        ..      B        0x2fe0 ; xEventGroupWaitBits + 48
        0x00002fde:    2000        .       MOVS     r0,#0
        0x00002fe0:    b908        ..      CBNZ     r0,0x2fe6 ; xEventGroupWaitBits + 54
        0x00002fe2:    bf00        ..      NOP      
        0x00002fe4:    e7fe        ..      B        0x2fe4 ; xEventGroupWaitBits + 52
        0x00002fe6:    b10d        ..      CBZ      r5,0x2fec ; xEventGroupWaitBits + 60
        0x00002fe8:    2001        .       MOVS     r0,#1
        0x00002fea:    e000        ..      B        0x2fee ; xEventGroupWaitBits + 62
        0x00002fec:    2000        .       MOVS     r0,#0
        0x00002fee:    b908        ..      CBNZ     r0,0x2ff4 ; xEventGroupWaitBits + 68
        0x00002ff0:    bf00        ..      NOP      
        0x00002ff2:    e7fe        ..      B        0x2ff2 ; xEventGroupWaitBits + 66
        0x00002ff4:    f000fb8c    ....    BL       xTaskGetSchedulerState ; 0x3710
        0x00002ff8:    b910        ..      CBNZ     r0,0x3000 ; xEventGroupWaitBits + 80
        0x00002ffa:    f1b80f00    ....    CMP      r8,#0
        0x00002ffe:    d101        ..      BNE      0x3004 ; xEventGroupWaitBits + 84
        0x00003000:    2001        .       MOVS     r0,#1
        0x00003002:    e000        ..      B        0x3006 ; xEventGroupWaitBits + 86
        0x00003004:    2000        .       MOVS     r0,#0
        0x00003006:    b908        ..      CBNZ     r0,0x300c ; xEventGroupWaitBits + 92
        0x00003008:    bf00        ..      NOP      
        0x0000300a:    e7fe        ..      B        0x300a ; xEventGroupWaitBits + 90
        0x0000300c:    f7ffff0c    ....    BL       vTaskSuspendAll ; 0x2e28
        0x00003010:    6820         h      LDR      r0,[r4,#0]
        0x00003012:    9000        ..      STR      r0,[sp,#0]
        0x00003014:    4629        )F      MOV      r1,r5
        0x00003016:    9a06        ..      LDR      r2,[sp,#0x18]
        0x00003018:    9800        ..      LDR      r0,[sp,#0]
        0x0000301a:    f7fffa41    ..A.    BL       prvTestWaitCondition ; 0x24a0
        0x0000301e:    9002        ..      STR      r0,[sp,#8]
        0x00003020:    9802        ..      LDR      r0,[sp,#8]
        0x00003022:    b138        8.      CBZ      r0,0x3034 ; xEventGroupWaitBits + 132
        0x00003024:    9e00        ..      LDR      r6,[sp,#0]
        0x00003026:    f04f0800    O...    MOV      r8,#0
        0x0000302a:    b1c7        ..      CBZ      r7,0x305e ; xEventGroupWaitBits + 174
        0x0000302c:    6820         h      LDR      r0,[r4,#0]
        0x0000302e:    43a8        .C      BICS     r0,r0,r5
        0x00003030:    6020         `      STR      r0,[r4,#0]
        0x00003032:    e014        ..      B        0x305e ; xEventGroupWaitBits + 174
        0x00003034:    f1b80f00    ....    CMP      r8,#0
        0x00003038:    d103        ..      BNE      0x3042 ; xEventGroupWaitBits + 146
        0x0000303a:    9e00        ..      LDR      r6,[sp,#0]
        0x0000303c:    2001        .       MOVS     r0,#1
        0x0000303e:    9001        ..      STR      r0,[sp,#4]
        0x00003040:    e00d        ..      B        0x305e ; xEventGroupWaitBits + 174
        0x00003042:    b10f        ..      CBZ      r7,0x3048 ; xEventGroupWaitBits + 152
        0x00003044:    f04a7a80    J..z    ORR      r10,r10,#0x1000000
        0x00003048:    9806        ..      LDR      r0,[sp,#0x18]
        0x0000304a:    b108        ..      CBZ      r0,0x3050 ; xEventGroupWaitBits + 160
        0x0000304c:    f04a6a80    J..j    ORR      r10,r10,#0x4000000
        0x00003050:    ea45010a    E...    ORR      r1,r5,r10
        0x00003054:    4642        BF      MOV      r2,r8
        0x00003056:    1d20         .      ADDS     r0,r4,#4
        0x00003058:    f7fffdce    ....    BL       vTaskPlaceOnUnorderedEventList ; 0x2bf8
        0x0000305c:    2600        .&      MOVS     r6,#0
        0x0000305e:    f000fc3d    ..=.    BL       xTaskResumeAll ; 0x38dc
        0x00003062:    4683        .F      MOV      r11,r0
        0x00003064:    f1b80f00    ....    CMP      r8,#0
        0x00003068:    d023        #.      BEQ      0x30b2 ; xEventGroupWaitBits + 258
        0x0000306a:    f1bb0f00    ....    CMP      r11,#0
        0x0000306e:    d107        ..      BNE      0x3080 ; xEventGroupWaitBits + 208
        0x00003070:    f04f5080    O..P    MOV      r0,#0x10000000
        0x00003074:    4911        .I      LDR      r1,[pc,#68] ; [0x30bc] = 0xe000ed04
        0x00003076:    6008        .`      STR      r0,[r1,#0]
        0x00003078:    f3bf8f4f    ..O.    DSB      
        0x0000307c:    f3bf8f6f    ..o.    ISB      
        0x00003080:    f7fffbc2    ....    BL       uxTaskResetEventItemValue ; 0x2808
        0x00003084:    4606        .F      MOV      r6,r0
        0x00003086:    f0067000    ...p    AND      r0,r6,#0x2000000
        0x0000308a:    b980        ..      CBNZ     r0,0x30ae ; xEventGroupWaitBits + 254
        0x0000308c:    f7fffc0e    ....    BL       vPortEnterCritical ; 0x28ac
        0x00003090:    6826        &h      LDR      r6,[r4,#0]
        0x00003092:    4629        )F      MOV      r1,r5
        0x00003094:    4630        0F      MOV      r0,r6
        0x00003096:    9a06        ..      LDR      r2,[sp,#0x18]
        0x00003098:    f7fffa02    ....    BL       prvTestWaitCondition ; 0x24a0
        0x0000309c:    b118        ..      CBZ      r0,0x30a6 ; xEventGroupWaitBits + 246
        0x0000309e:    b117        ..      CBZ      r7,0x30a6 ; xEventGroupWaitBits + 246
        0x000030a0:    6820         h      LDR      r0,[r4,#0]
        0x000030a2:    43a8        .C      BICS     r0,r0,r5
        0x000030a4:    6020         `      STR      r0,[r4,#0]
        0x000030a6:    2001        .       MOVS     r0,#1
        0x000030a8:    9001        ..      STR      r0,[sp,#4]
        0x000030aa:    f7fffc21    ..!.    BL       vPortExitCritical ; 0x28f0
        0x000030ae:    f026467f    &..F    BIC      r6,r6,#0xff000000
        0x000030b2:    4630        0F      MOV      r0,r6
        0x000030b4:    b007        ..      ADD      sp,sp,#0x1c
        0x000030b6:    e8bd8ff0    ....    POP      {r4-r11,pc}
    $d
        0x000030ba:    0000        ..      DCW    0
        0x000030bc:    e000ed04    ....    DCD    3758157060
    $t
    i.xPortCTimer0TickHandler
    xPortCTimer0TickHandler
        0x000030c0:    b510        ..      PUSH     {r4,lr}
        0x000030c2:    f04f31ff    O..1    MOV      r1,#0xffffffff
        0x000030c6:    2003        .       MOVS     r0,#3
        0x000030c8:    f7fdfd38    ..8.    BL       am_hal_ctimer_clear ; 0xb3c
        0x000030cc:    4811        .H      LDR      r0,[pc,#68] ; [0x3114] = 0x1000000c
        0x000030ce:    2200        ."      MOVS     r2,#0
        0x000030d0:    1e51        Q.      SUBS     r1,r2,#1
        0x000030d2:    6803        .h      LDR      r3,[r0,#0]
        0x000030d4:    2003        .       MOVS     r0,#3
        0x000030d6:    f7fdfd45    ..E.    BL       am_hal_ctimer_compare_set ; 0xb64
        0x000030da:    f04f31ff    O..1    MOV      r1,#0xffffffff
        0x000030de:    2003        .       MOVS     r0,#3
        0x000030e0:    f7fdfe9a    ....    BL       am_hal_ctimer_start ; 0xe18
        0x000030e4:    bf00        ..      NOP      
        0x000030e6:    2080        .       MOVS     r0,#0x80
        0x000030e8:    f3ef8111    ....    MRS      r1,BASEPRI
        0x000030ec:    f3808811    ....    MSR      BASEPRI,r0
        0x000030f0:    f3bf8f4f    ..O.    DSB      
        0x000030f4:    f3bf8f6f    ..o.    ISB      
        0x000030f8:    bf00        ..      NOP      
        0x000030fa:    f000fb1f    ....    BL       xTaskIncrementTick ; 0x373c
        0x000030fe:    b118        ..      CBZ      r0,0x3108 ; xPortCTimer0TickHandler + 72
        0x00003100:    f04f5080    O..P    MOV      r0,#0x10000000
        0x00003104:    4904        .I      LDR      r1,[pc,#16] ; [0x3118] = 0xe000ed04
        0x00003106:    6008        .`      STR      r0,[r1,#0]
        0x00003108:    2000        .       MOVS     r0,#0
        0x0000310a:    f3808811    ....    MSR      BASEPRI,r0
        0x0000310e:    bf00        ..      NOP      
        0x00003110:    bd10        ..      POP      {r4,pc}
    $d
        0x00003112:    0000        ..      DCW    0
        0x00003114:    1000000c    ....    DCD    268435468
        0x00003118:    e000ed04    ....    DCD    3758157060
    $t
    i.xPortStartScheduler
    xPortStartScheduler
        0x0000311c:    b51c        ..      PUSH     {r2-r4,lr}
        0x0000311e:    483a        :H      LDR      r0,[pc,#232] ; [0x3208] = 0xe000ed00
        0x00003120:    6800        .h      LDR      r0,[r0,#0]
        0x00003122:    493a        :I      LDR      r1,[pc,#232] ; [0x320c] = 0x410fc271
        0x00003124:    4288        .B      CMP      r0,r1
        0x00003126:    d001        ..      BEQ      0x312c ; xPortStartScheduler + 16
        0x00003128:    2001        .       MOVS     r0,#1
        0x0000312a:    e000        ..      B        0x312e ; xPortStartScheduler + 18
        0x0000312c:    2000        .       MOVS     r0,#0
        0x0000312e:    b908        ..      CBNZ     r0,0x3134 ; xPortStartScheduler + 24
        0x00003130:    bf00        ..      NOP      
        0x00003132:    e7fe        ..      B        0x3132 ; xPortStartScheduler + 22
        0x00003134:    4834        4H      LDR      r0,[pc,#208] ; [0x3208] = 0xe000ed00
        0x00003136:    6800        .h      LDR      r0,[r0,#0]
        0x00003138:    4934        4I      LDR      r1,[pc,#208] ; [0x320c] = 0x410fc271
        0x0000313a:    1e49        I.      SUBS     r1,r1,#1
        0x0000313c:    4288        .B      CMP      r0,r1
        0x0000313e:    d001        ..      BEQ      0x3144 ; xPortStartScheduler + 40
        0x00003140:    2001        .       MOVS     r0,#1
        0x00003142:    e000        ..      B        0x3146 ; xPortStartScheduler + 42
        0x00003144:    2000        .       MOVS     r0,#0
        0x00003146:    b908        ..      CBNZ     r0,0x314c ; xPortStartScheduler + 48
        0x00003148:    bf00        ..      NOP      
        0x0000314a:    e7fe        ..      B        0x314a ; xPortStartScheduler + 46
        0x0000314c:    4830        0H      LDR      r0,[pc,#192] ; [0x3210] = 0xe000e400
        0x0000314e:    4601        .F      MOV      r1,r0
        0x00003150:    7809        .x      LDRB     r1,[r1,#0]
        0x00003152:    9101        ..      STR      r1,[sp,#4]
        0x00003154:    21ff        .!      MOVS     r1,#0xff
        0x00003156:    4602        .F      MOV      r2,r0
        0x00003158:    7011        .p      STRB     r1,[r2,#0]
        0x0000315a:    4601        .F      MOV      r1,r0
        0x0000315c:    7809        .x      LDRB     r1,[r1,#0]
        0x0000315e:    9100        ..      STR      r1,[sp,#0]
        0x00003160:    f89d1000    ....    LDRB     r1,[sp,#0]
        0x00003164:    f00101e0    ....    AND      r1,r1,#0xe0
        0x00003168:    f89d2000    ...     LDRB     r2,[sp,#0]
        0x0000316c:    4291        .B      CMP      r1,r2
        0x0000316e:    d101        ..      BNE      0x3174 ; xPortStartScheduler + 88
        0x00003170:    2101        .!      MOVS     r1,#1
        0x00003172:    e000        ..      B        0x3176 ; xPortStartScheduler + 90
        0x00003174:    2100        .!      MOVS     r1,#0
        0x00003176:    b909        ..      CBNZ     r1,0x317c ; xPortStartScheduler + 96
        0x00003178:    bf00        ..      NOP      
        0x0000317a:    e7fe        ..      B        0x317a ; xPortStartScheduler + 94
        0x0000317c:    f89d1000    ....    LDRB     r1,[sp,#0]
        0x00003180:    f0010180    ....    AND      r1,r1,#0x80
        0x00003184:    4a23        #J      LDR      r2,[pc,#140] ; [0x3214] = 0x10000004
        0x00003186:    7011        .p      STRB     r1,[r2,#0]
        0x00003188:    2107        .!      MOVS     r1,#7
        0x0000318a:    4a23        #J      LDR      r2,[pc,#140] ; [0x3218] = 0x10000008
        0x0000318c:    6011        .`      STR      r1,[r2,#0]
        0x0000318e:    e009        ..      B        0x31a4 ; xPortStartScheduler + 136
        0x00003190:    4921        !I      LDR      r1,[pc,#132] ; [0x3218] = 0x10000008
        0x00003192:    6809        .h      LDR      r1,[r1,#0]
        0x00003194:    1e49        I.      SUBS     r1,r1,#1
        0x00003196:    4a20         J      LDR      r2,[pc,#128] ; [0x3218] = 0x10000008
        0x00003198:    6011        .`      STR      r1,[r2,#0]
        0x0000319a:    f89d1000    ....    LDRB     r1,[sp,#0]
        0x0000319e:    0649        I.      LSLS     r1,r1,#25
        0x000031a0:    0e09        ..      LSRS     r1,r1,#24
        0x000031a2:    9100        ..      STR      r1,[sp,#0]
        0x000031a4:    f89d1000    ....    LDRB     r1,[sp,#0]
        0x000031a8:    f0010180    ....    AND      r1,r1,#0x80
        0x000031ac:    2980        .)      CMP      r1,#0x80
        0x000031ae:    d0ef        ..      BEQ      0x3190 ; xPortStartScheduler + 116
        0x000031b0:    4919        .I      LDR      r1,[pc,#100] ; [0x3218] = 0x10000008
        0x000031b2:    6809        .h      LDR      r1,[r1,#0]
        0x000031b4:    0209        ..      LSLS     r1,r1,#8
        0x000031b6:    4a18        .J      LDR      r2,[pc,#96] ; [0x3218] = 0x10000008
        0x000031b8:    6011        .`      STR      r1,[r2,#0]
        0x000031ba:    4611        .F      MOV      r1,r2
        0x000031bc:    8809        ..      LDRH     r1,[r1,#0]
        0x000031be:    f40161e0    ...a    AND      r1,r1,#0x700
        0x000031c2:    6011        .`      STR      r1,[r2,#0]
        0x000031c4:    4a12        .J      LDR      r2,[pc,#72] ; [0x3210] = 0xe000e400
        0x000031c6:    9901        ..      LDR      r1,[sp,#4]
        0x000031c8:    7011        .p      STRB     r1,[r2,#0]
        0x000031ca:    480f        .H      LDR      r0,[pc,#60] ; [0x3208] = 0xe000ed00
        0x000031cc:    3020         0      ADDS     r0,r0,#0x20
        0x000031ce:    6800        .h      LDR      r0,[r0,#0]
        0x000031d0:    f4400060    @.`.    ORR      r0,r0,#0xe00000
        0x000031d4:    490c        .I      LDR      r1,[pc,#48] ; [0x3208] = 0xe000ed00
        0x000031d6:    3120         1      ADDS     r1,r1,#0x20
        0x000031d8:    6008        .`      STR      r0,[r1,#0]
        0x000031da:    4608        .F      MOV      r0,r1
        0x000031dc:    6800        .h      LDR      r0,[r0,#0]
        0x000031de:    f0404060    @.`@    ORR      r0,r0,#0xe0000000
        0x000031e2:    6008        .`      STR      r0,[r1,#0]
        0x000031e4:    f7fffbba    ....    BL       vPortSetupTimerInterrupt ; 0x295c
        0x000031e8:    2000        .       MOVS     r0,#0
        0x000031ea:    490c        .I      LDR      r1,[pc,#48] ; [0x321c] = 0x10000000
        0x000031ec:    6008        .`      STR      r0,[r1,#0]
        0x000031ee:    f7fcffc7    ....    BL       __asm___6_port_c_39a90d8d__prvEnableVFP ; 0x180
        0x000031f2:    480b        .H      LDR      r0,[pc,#44] ; [0x3220] = 0xe000ef34
        0x000031f4:    6800        .h      LDR      r0,[r0,#0]
        0x000031f6:    f0404040    @.@@    ORR      r0,r0,#0xc0000000
        0x000031fa:    4909        .I      LDR      r1,[pc,#36] ; [0x3220] = 0xe000ef34
        0x000031fc:    6008        .`      STR      r0,[r1,#0]
        0x000031fe:    f7fcffab    ....    BL       __asm___6_port_c_39a90d8d__prvStartFirstTask ; 0x158
        0x00003202:    2000        .       MOVS     r0,#0
        0x00003204:    bd1c        ..      POP      {r2-r4,pc}
    $d
        0x00003206:    0000        ..      DCW    0
        0x00003208:    e000ed00    ....    DCD    3758157056
        0x0000320c:    410fc271    q..A    DCD    1091551857
        0x00003210:    e000e400    ....    DCD    3758154752
        0x00003214:    10000004    ....    DCD    268435460
        0x00003218:    10000008    ....    DCD    268435464
        0x0000321c:    10000000    ....    DCD    268435456
        0x00003220:    e000ef34    4...    DCD    3758157620
    $t
    i.xQueueGenericCreate
    xQueueGenericCreate
        0x00003224:    e92d43f8    -..C    PUSH     {r3-r9,lr}
        0x00003228:    4605        .F      MOV      r5,r0
        0x0000322a:    460e        .F      MOV      r6,r1
        0x0000322c:    4690        .F      MOV      r8,r2
        0x0000322e:    b10d        ..      CBZ      r5,0x3234 ; xQueueGenericCreate + 16
        0x00003230:    2001        .       MOVS     r0,#1
        0x00003232:    e000        ..      B        0x3236 ; xQueueGenericCreate + 18
        0x00003234:    2000        .       MOVS     r0,#0
        0x00003236:    b908        ..      CBNZ     r0,0x323c ; xQueueGenericCreate + 24
        0x00003238:    bf00        ..      NOP      
        0x0000323a:    e7fe        ..      B        0x323a ; xQueueGenericCreate + 22
        0x0000323c:    b90e        ..      CBNZ     r6,0x3242 ; xQueueGenericCreate + 30
        0x0000323e:    2700        .'      MOVS     r7,#0
        0x00003240:    e001        ..      B        0x3246 ; xQueueGenericCreate + 34
        0x00003242:    fb05f706    ....    MUL      r7,r5,r6
        0x00003246:    f1070048    ..H.    ADD      r0,r7,#0x48
        0x0000324a:    f7fff985    ....    BL       pvPortMalloc ; 0x2558
        0x0000324e:    4604        .F      MOV      r4,r0
        0x00003250:    b14c        L.      CBZ      r4,0x3266 ; xQueueGenericCreate + 66
        0x00003252:    46a1        .F      MOV      r9,r4
        0x00003254:    f1090948    ..H.    ADD      r9,r9,#0x48
        0x00003258:    4643        CF      MOV      r3,r8
        0x0000325a:    464a        JF      MOV      r2,r9
        0x0000325c:    4631        1F      MOV      r1,r6
        0x0000325e:    4628        (F      MOV      r0,r5
        0x00003260:    9400        ..      STR      r4,[sp,#0]
        0x00003262:    f7fefedd    ....    BL       prvInitialiseNewQueue ; 0x2020
        0x00003266:    4620         F      MOV      r0,r4
        0x00003268:    e8bd83f8    ....    POP      {r3-r9,pc}
    i.xQueueGenericReset
    xQueueGenericReset
        0x0000326c:    b570        p.      PUSH     {r4-r6,lr}
        0x0000326e:    4605        .F      MOV      r5,r0
        0x00003270:    460e        .F      MOV      r6,r1
        0x00003272:    462c        ,F      MOV      r4,r5
        0x00003274:    b90c        ..      CBNZ     r4,0x327a ; xQueueGenericReset + 14
        0x00003276:    bf00        ..      NOP      
        0x00003278:    e7fe        ..      B        0x3278 ; xQueueGenericReset + 12
        0x0000327a:    f7fffb17    ....    BL       vPortEnterCritical ; 0x28ac
        0x0000327e:    e9d4120f    ....    LDRD     r1,r2,[r4,#0x3c]
        0x00003282:    6820         h      LDR      r0,[r4,#0]
        0x00003284:    fb010002    ....    MLA      r0,r1,r2,r0
        0x00003288:    60a0        .`      STR      r0,[r4,#8]
        0x0000328a:    2000        .       MOVS     r0,#0
        0x0000328c:    63a0        .c      STR      r0,[r4,#0x38]
        0x0000328e:    6820         h      LDR      r0,[r4,#0]
        0x00003290:    6060        ``      STR      r0,[r4,#4]
        0x00003292:    6be0        .k      LDR      r0,[r4,#0x3c]
        0x00003294:    1e40        @.      SUBS     r0,r0,#1
        0x00003296:    6c22        "l      LDR      r2,[r4,#0x40]
        0x00003298:    6821        !h      LDR      r1,[r4,#0]
        0x0000329a:    fb001102    ....    MLA      r1,r0,r2,r1
        0x0000329e:    60e1        .`      STR      r1,[r4,#0xc]
        0x000032a0:    20ff        .       MOVS     r0,#0xff
        0x000032a2:    f8840044    ..D.    STRB     r0,[r4,#0x44]
        0x000032a6:    f8840045    ..E.    STRB     r0,[r4,#0x45]
        0x000032aa:    b99e        ..      CBNZ     r6,0x32d4 ; xQueueGenericReset + 104
        0x000032ac:    6920         i      LDR      r0,[r4,#0x10]
        0x000032ae:    b908        ..      CBNZ     r0,0x32b4 ; xQueueGenericReset + 72
        0x000032b0:    2001        .       MOVS     r0,#1
        0x000032b2:    e000        ..      B        0x32b6 ; xQueueGenericReset + 74
        0x000032b4:    2000        .       MOVS     r0,#0
        0x000032b6:    b9a8        ..      CBNZ     r0,0x32e4 ; xQueueGenericReset + 120
        0x000032b8:    f1040010    ....    ADD      r0,r4,#0x10
        0x000032bc:    f000faca    ....    BL       xTaskRemoveFromEventList ; 0x3854
        0x000032c0:    b180        ..      CBZ      r0,0x32e4 ; xQueueGenericReset + 120
        0x000032c2:    f04f5080    O..P    MOV      r0,#0x10000000
        0x000032c6:    4909        .I      LDR      r1,[pc,#36] ; [0x32ec] = 0xe000ed04
        0x000032c8:    6008        .`      STR      r0,[r1,#0]
        0x000032ca:    f3bf8f4f    ..O.    DSB      
        0x000032ce:    f3bf8f6f    ..o.    ISB      
        0x000032d2:    e007        ..      B        0x32e4 ; xQueueGenericReset + 120
        0x000032d4:    f1040010    ....    ADD      r0,r4,#0x10
        0x000032d8:    f7fffab1    ....    BL       vListInitialise ; 0x283e
        0x000032dc:    f1040024    ..$.    ADD      r0,r4,#0x24
        0x000032e0:    f7fffaad    ....    BL       vListInitialise ; 0x283e
        0x000032e4:    f7fffb04    ....    BL       vPortExitCritical ; 0x28f0
        0x000032e8:    2001        .       MOVS     r0,#1
        0x000032ea:    bd70        p.      POP      {r4-r6,pc}
    $d
        0x000032ec:    e000ed04    ....    DCD    3758157060
    $t
    i.xQueueGenericSend
    xQueueGenericSend
        0x000032f0:    e92d43ff    -..C    PUSH     {r0-r9,lr}
        0x000032f4:    b083        ..      SUB      sp,sp,#0xc
        0x000032f6:    4606        .F      MOV      r6,r0
        0x000032f8:    4688        .F      MOV      r8,r1
        0x000032fa:    461d        .F      MOV      r5,r3
        0x000032fc:    f04f0900    O...    MOV      r9,#0
        0x00003300:    4634        4F      MOV      r4,r6
        0x00003302:    b90c        ..      CBNZ     r4,0x3308 ; xQueueGenericSend + 24
        0x00003304:    bf00        ..      NOP      
        0x00003306:    e7fe        ..      B        0x3306 ; xQueueGenericSend + 22
        0x00003308:    f1b80f00    ....    CMP      r8,#0
        0x0000330c:    d101        ..      BNE      0x3312 ; xQueueGenericSend + 34
        0x0000330e:    6c20         l      LDR      r0,[r4,#0x40]
        0x00003310:    b908        ..      CBNZ     r0,0x3316 ; xQueueGenericSend + 38
        0x00003312:    2001        .       MOVS     r0,#1
        0x00003314:    e000        ..      B        0x3318 ; xQueueGenericSend + 40
        0x00003316:    2000        .       MOVS     r0,#0
        0x00003318:    b908        ..      CBNZ     r0,0x331e ; xQueueGenericSend + 46
        0x0000331a:    bf00        ..      NOP      
        0x0000331c:    e7fe        ..      B        0x331c ; xQueueGenericSend + 44
        0x0000331e:    2d02        .-      CMP      r5,#2
        0x00003320:    d102        ..      BNE      0x3328 ; xQueueGenericSend + 56
        0x00003322:    6be0        .k      LDR      r0,[r4,#0x3c]
        0x00003324:    2801        .(      CMP      r0,#1
        0x00003326:    d101        ..      BNE      0x332c ; xQueueGenericSend + 60
        0x00003328:    2001        .       MOVS     r0,#1
        0x0000332a:    e000        ..      B        0x332e ; xQueueGenericSend + 62
        0x0000332c:    2000        .       MOVS     r0,#0
        0x0000332e:    b908        ..      CBNZ     r0,0x3334 ; xQueueGenericSend + 68
        0x00003330:    bf00        ..      NOP      
        0x00003332:    e7fe        ..      B        0x3332 ; xQueueGenericSend + 66
        0x00003334:    f000f9ec    ....    BL       xTaskGetSchedulerState ; 0x3710
        0x00003338:    b908        ..      CBNZ     r0,0x333e ; xQueueGenericSend + 78
        0x0000333a:    9805        ..      LDR      r0,[sp,#0x14]
        0x0000333c:    b908        ..      CBNZ     r0,0x3342 ; xQueueGenericSend + 82
        0x0000333e:    2001        .       MOVS     r0,#1
        0x00003340:    e000        ..      B        0x3344 ; xQueueGenericSend + 84
        0x00003342:    2000        .       MOVS     r0,#0
        0x00003344:    b908        ..      CBNZ     r0,0x334a ; xQueueGenericSend + 90
        0x00003346:    bf00        ..      NOP      
        0x00003348:    e7fe        ..      B        0x3348 ; xQueueGenericSend + 88
        0x0000334a:    bf00        ..      NOP      
        0x0000334c:    f7fffaae    ....    BL       vPortEnterCritical ; 0x28ac
        0x00003350:    6ba0        .k      LDR      r0,[r4,#0x38]
        0x00003352:    6be1        .k      LDR      r1,[r4,#0x3c]
        0x00003354:    4288        .B      CMP      r0,r1
        0x00003356:    d301        ..      BCC      0x335c ; xQueueGenericSend + 108
        0x00003358:    2d02        .-      CMP      r5,#2
        0x0000335a:    d128        (.      BNE      0x33ae ; xQueueGenericSend + 190
        0x0000335c:    462a        *F      MOV      r2,r5
        0x0000335e:    4641        AF      MOV      r1,r8
        0x00003360:    4620         F      MOV      r0,r4
        0x00003362:    f7fefd9d    ....    BL       prvCopyDataToQueue ; 0x1ea0
        0x00003366:    4607        .F      MOV      r7,r0
        0x00003368:    6a60        `j      LDR      r0,[r4,#0x24]
        0x0000336a:    b908        ..      CBNZ     r0,0x3370 ; xQueueGenericSend + 128
        0x0000336c:    2001        .       MOVS     r0,#1
        0x0000336e:    e000        ..      B        0x3372 ; xQueueGenericSend + 130
        0x00003370:    2000        .       MOVS     r0,#0
        0x00003372:    b968        h.      CBNZ     r0,0x3390 ; xQueueGenericSend + 160
        0x00003374:    f1040024    ..$.    ADD      r0,r4,#0x24
        0x00003378:    f000fa6c    ..l.    BL       xTaskRemoveFromEventList ; 0x3854
        0x0000337c:    b188        ..      CBZ      r0,0x33a2 ; xQueueGenericSend + 178
        0x0000337e:    f04f5080    O..P    MOV      r0,#0x10000000
        0x00003382:    4932        2I      LDR      r1,[pc,#200] ; [0x344c] = 0xe000ed04
        0x00003384:    6008        .`      STR      r0,[r1,#0]
        0x00003386:    f3bf8f4f    ..O.    DSB      
        0x0000338a:    f3bf8f6f    ..o.    ISB      
        0x0000338e:    e008        ..      B        0x33a2 ; xQueueGenericSend + 178
        0x00003390:    b13f        ?.      CBZ      r7,0x33a2 ; xQueueGenericSend + 178
        0x00003392:    f04f5080    O..P    MOV      r0,#0x10000000
        0x00003396:    492d        -I      LDR      r1,[pc,#180] ; [0x344c] = 0xe000ed04
        0x00003398:    6008        .`      STR      r0,[r1,#0]
        0x0000339a:    f3bf8f4f    ..O.    DSB      
        0x0000339e:    f3bf8f6f    ..o.    ISB      
        0x000033a2:    f7fffaa5    ....    BL       vPortExitCritical ; 0x28f0
        0x000033a6:    2001        .       MOVS     r0,#1
        0x000033a8:    b007        ..      ADD      sp,sp,#0x1c
        0x000033aa:    e8bd83f0    ....    POP      {r4-r9,pc}
        0x000033ae:    9805        ..      LDR      r0,[sp,#0x14]
        0x000033b0:    b918        ..      CBNZ     r0,0x33ba ; xQueueGenericSend + 202
        0x000033b2:    f7fffa9d    ....    BL       vPortExitCritical ; 0x28f0
        0x000033b6:    2000        .       MOVS     r0,#0
        0x000033b8:    e7f6        ..      B        0x33a8 ; xQueueGenericSend + 184
        0x000033ba:    f1b90f00    ....    CMP      r9,#0
        0x000033be:    d104        ..      BNE      0x33ca ; xQueueGenericSend + 218
        0x000033c0:    a801        ..      ADD      r0,sp,#4
        0x000033c2:    f7fffbdb    ....    BL       vTaskInternalSetTimeOutState ; 0x2b7c
        0x000033c6:    f04f0901    O...    MOV      r9,#1
        0x000033ca:    f7fffa91    ....    BL       vPortExitCritical ; 0x28f0
        0x000033ce:    f7fffd2b    ..+.    BL       vTaskSuspendAll ; 0x2e28
        0x000033d2:    f7fffa6b    ..k.    BL       vPortEnterCritical ; 0x28ac
        0x000033d6:    f9940044    ..D.    LDRSB    r0,[r4,#0x44]
        0x000033da:    1c40        @.      ADDS     r0,r0,#1
        0x000033dc:    b910        ..      CBNZ     r0,0x33e4 ; xQueueGenericSend + 244
        0x000033de:    2000        .       MOVS     r0,#0
        0x000033e0:    f8840044    ..D.    STRB     r0,[r4,#0x44]
        0x000033e4:    f9940045    ..E.    LDRSB    r0,[r4,#0x45]
        0x000033e8:    1c40        @.      ADDS     r0,r0,#1
        0x000033ea:    b910        ..      CBNZ     r0,0x33f2 ; xQueueGenericSend + 258
        0x000033ec:    2000        .       MOVS     r0,#0
        0x000033ee:    f8840045    ..E.    STRB     r0,[r4,#0x45]
        0x000033f2:    f7fffa7d    ..}.    BL       vPortExitCritical ; 0x28f0
        0x000033f6:    a905        ..      ADD      r1,sp,#0x14
        0x000033f8:    a801        ..      ADD      r0,sp,#4
        0x000033fa:    f000f925    ..%.    BL       xTaskCheckForTimeOut ; 0x3648
        0x000033fe:    b9f0        ..      CBNZ     r0,0x343e ; xQueueGenericSend + 334
        0x00003400:    4620         F      MOV      r0,r4
        0x00003402:    f7fefeda    ....    BL       prvIsQueueFull ; 0x21ba
        0x00003406:    b1a0        ..      CBZ      r0,0x3432 ; xQueueGenericSend + 322
        0x00003408:    f1040010    ....    ADD      r0,r4,#0x10
        0x0000340c:    9905        ..      LDR      r1,[sp,#0x14]
        0x0000340e:    f7fffbc7    ....    BL       vTaskPlaceOnEventList ; 0x2ba0
        0x00003412:    4620         F      MOV      r0,r4
        0x00003414:    f7fff860    ..`.    BL       prvUnlockQueue ; 0x24d8
        0x00003418:    f000fa60    ..`.    BL       xTaskResumeAll ; 0x38dc
        0x0000341c:    2800        .(      CMP      r0,#0
        0x0000341e:    d195        ..      BNE      0x334c ; xQueueGenericSend + 92
        0x00003420:    f04f5080    O..P    MOV      r0,#0x10000000
        0x00003424:    4909        .I      LDR      r1,[pc,#36] ; [0x344c] = 0xe000ed04
        0x00003426:    6008        .`      STR      r0,[r1,#0]
        0x00003428:    f3bf8f4f    ..O.    DSB      
        0x0000342c:    f3bf8f6f    ..o.    ISB      
        0x00003430:    e78c        ..      B        0x334c ; xQueueGenericSend + 92
        0x00003432:    4620         F      MOV      r0,r4
        0x00003434:    f7fff850    ..P.    BL       prvUnlockQueue ; 0x24d8
        0x00003438:    f000fa50    ..P.    BL       xTaskResumeAll ; 0x38dc
        0x0000343c:    e786        ..      B        0x334c ; xQueueGenericSend + 92
        0x0000343e:    4620         F      MOV      r0,r4
        0x00003440:    f7fff84a    ..J.    BL       prvUnlockQueue ; 0x24d8
        0x00003444:    f000fa4a    ..J.    BL       xTaskResumeAll ; 0x38dc
        0x00003448:    2000        .       MOVS     r0,#0
        0x0000344a:    e7ad        ..      B        0x33a8 ; xQueueGenericSend + 184
    $d
        0x0000344c:    e000ed04    ....    DCD    3758157060
    $t
    i.xQueueGenericSendFromISR
    xQueueGenericSendFromISR
        0x00003450:    e92d5ff0    -.._    PUSH     {r4-r12,lr}
        0x00003454:    4607        .F      MOV      r7,r0
        0x00003456:    468a        .F      MOV      r10,r1
        0x00003458:    4690        .F      MOV      r8,r2
        0x0000345a:    461e        .F      MOV      r6,r3
        0x0000345c:    463c        <F      MOV      r4,r7
        0x0000345e:    b90c        ..      CBNZ     r4,0x3464 ; xQueueGenericSendFromISR + 20
        0x00003460:    bf00        ..      NOP      
        0x00003462:    e7fe        ..      B        0x3462 ; xQueueGenericSendFromISR + 18
        0x00003464:    f1ba0f00    ....    CMP      r10,#0
        0x00003468:    d101        ..      BNE      0x346e ; xQueueGenericSendFromISR + 30
        0x0000346a:    6c20         l      LDR      r0,[r4,#0x40]
        0x0000346c:    b908        ..      CBNZ     r0,0x3472 ; xQueueGenericSendFromISR + 34
        0x0000346e:    2001        .       MOVS     r0,#1
        0x00003470:    e000        ..      B        0x3474 ; xQueueGenericSendFromISR + 36
        0x00003472:    2000        .       MOVS     r0,#0
        0x00003474:    b908        ..      CBNZ     r0,0x347a ; xQueueGenericSendFromISR + 42
        0x00003476:    bf00        ..      NOP      
        0x00003478:    e7fe        ..      B        0x3478 ; xQueueGenericSendFromISR + 40
        0x0000347a:    2e02        ..      CMP      r6,#2
        0x0000347c:    d102        ..      BNE      0x3484 ; xQueueGenericSendFromISR + 52
        0x0000347e:    6be0        .k      LDR      r0,[r4,#0x3c]
        0x00003480:    2801        .(      CMP      r0,#1
        0x00003482:    d101        ..      BNE      0x3488 ; xQueueGenericSendFromISR + 56
        0x00003484:    2001        .       MOVS     r0,#1
        0x00003486:    e000        ..      B        0x348a ; xQueueGenericSendFromISR + 58
        0x00003488:    2000        .       MOVS     r0,#0
        0x0000348a:    b908        ..      CBNZ     r0,0x3490 ; xQueueGenericSendFromISR + 64
        0x0000348c:    bf00        ..      NOP      
        0x0000348e:    e7fe        ..      B        0x348e ; xQueueGenericSendFromISR + 62
        0x00003490:    f7fffb24    ..$.    BL       vPortValidateInterruptPriority ; 0x2adc
        0x00003494:    bf00        ..      NOP      
        0x00003496:    2180        .!      MOVS     r1,#0x80
        0x00003498:    f3ef8011    ....    MRS      r0,BASEPRI
        0x0000349c:    f3818811    ....    MSR      BASEPRI,r1
        0x000034a0:    f3bf8f4f    ..O.    DSB      
        0x000034a4:    f3bf8f6f    ..o.    ISB      
        0x000034a8:    bf00        ..      NOP      
        0x000034aa:    4605        .F      MOV      r5,r0
        0x000034ac:    6ba0        .k      LDR      r0,[r4,#0x38]
        0x000034ae:    6be1        .k      LDR      r1,[r4,#0x3c]
        0x000034b0:    4288        .B      CMP      r0,r1
        0x000034b2:    d301        ..      BCC      0x34b8 ; xQueueGenericSendFromISR + 104
        0x000034b4:    2e02        ..      CMP      r6,#2
        0x000034b6:    d123        #.      BNE      0x3500 ; xQueueGenericSendFromISR + 176
        0x000034b8:    f994b045    ..E.    LDRSB    r11,[r4,#0x45]
        0x000034bc:    4632        2F      MOV      r2,r6
        0x000034be:    4651        QF      MOV      r1,r10
        0x000034c0:    4620         F      MOV      r0,r4
        0x000034c2:    f7fefced    ....    BL       prvCopyDataToQueue ; 0x1ea0
        0x000034c6:    f10b0001    ....    ADD      r0,r11,#1
        0x000034ca:    b988        ..      CBNZ     r0,0x34f0 ; xQueueGenericSendFromISR + 160
        0x000034cc:    6a60        `j      LDR      r0,[r4,#0x24]
        0x000034ce:    b908        ..      CBNZ     r0,0x34d4 ; xQueueGenericSendFromISR + 132
        0x000034d0:    2001        .       MOVS     r0,#1
        0x000034d2:    e000        ..      B        0x34d6 ; xQueueGenericSendFromISR + 134
        0x000034d4:    2000        .       MOVS     r0,#0
        0x000034d6:    b980        ..      CBNZ     r0,0x34fa ; xQueueGenericSendFromISR + 170
        0x000034d8:    f1040024    ..$.    ADD      r0,r4,#0x24
        0x000034dc:    f000f9ba    ....    BL       xTaskRemoveFromEventList ; 0x3854
        0x000034e0:    b158        X.      CBZ      r0,0x34fa ; xQueueGenericSendFromISR + 170
        0x000034e2:    f1b80f00    ....    CMP      r8,#0
        0x000034e6:    d008        ..      BEQ      0x34fa ; xQueueGenericSendFromISR + 170
        0x000034e8:    2001        .       MOVS     r0,#1
        0x000034ea:    f8c80000    ....    STR      r0,[r8,#0]
        0x000034ee:    e004        ..      B        0x34fa ; xQueueGenericSendFromISR + 170
        0x000034f0:    f10b0001    ....    ADD      r0,r11,#1
        0x000034f4:    b240        @.      SXTB     r0,r0
        0x000034f6:    f8840045    ..E.    STRB     r0,[r4,#0x45]
        0x000034fa:    f04f0901    O...    MOV      r9,#1
        0x000034fe:    e001        ..      B        0x3504 ; xQueueGenericSendFromISR + 180
        0x00003500:    f04f0900    O...    MOV      r9,#0
        0x00003504:    bf00        ..      NOP      
        0x00003506:    f3858811    ....    MSR      BASEPRI,r5
        0x0000350a:    bf00        ..      NOP      
        0x0000350c:    4648        HF      MOV      r0,r9
        0x0000350e:    e8bd9ff0    ....    POP      {r4-r12,pc}
        0x00003512:    0000        ..      MOVS     r0,r0
    i.xQueueReceive
    xQueueReceive
        0x00003514:    e92d41f7    -..A    PUSH     {r0-r2,r4-r8,lr}
        0x00003518:    b083        ..      SUB      sp,sp,#0xc
        0x0000351a:    4605        .F      MOV      r5,r0
        0x0000351c:    460e        .F      MOV      r6,r1
        0x0000351e:    f04f0800    O...    MOV      r8,#0
        0x00003522:    462c        ,F      MOV      r4,r5
        0x00003524:    b90c        ..      CBNZ     r4,0x352a ; xQueueReceive + 22
        0x00003526:    bf00        ..      NOP      
        0x00003528:    e7fe        ..      B        0x3528 ; xQueueReceive + 20
        0x0000352a:    b90e        ..      CBNZ     r6,0x3530 ; xQueueReceive + 28
        0x0000352c:    6c20         l      LDR      r0,[r4,#0x40]
        0x0000352e:    b908        ..      CBNZ     r0,0x3534 ; xQueueReceive + 32
        0x00003530:    2001        .       MOVS     r0,#1
        0x00003532:    e000        ..      B        0x3536 ; xQueueReceive + 34
        0x00003534:    2000        .       MOVS     r0,#0
        0x00003536:    b908        ..      CBNZ     r0,0x353c ; xQueueReceive + 40
        0x00003538:    bf00        ..      NOP      
        0x0000353a:    e7fe        ..      B        0x353a ; xQueueReceive + 38
        0x0000353c:    f000f8e8    ....    BL       xTaskGetSchedulerState ; 0x3710
        0x00003540:    b908        ..      CBNZ     r0,0x3546 ; xQueueReceive + 50
        0x00003542:    9805        ..      LDR      r0,[sp,#0x14]
        0x00003544:    b908        ..      CBNZ     r0,0x354a ; xQueueReceive + 54
        0x00003546:    2001        .       MOVS     r0,#1
        0x00003548:    e000        ..      B        0x354c ; xQueueReceive + 56
        0x0000354a:    2000        .       MOVS     r0,#0
        0x0000354c:    b908        ..      CBNZ     r0,0x3552 ; xQueueReceive + 62
        0x0000354e:    bf00        ..      NOP      
        0x00003550:    e7fe        ..      B        0x3550 ; xQueueReceive + 60
        0x00003552:    bf00        ..      NOP      
        0x00003554:    f7fff9aa    ....    BL       vPortEnterCritical ; 0x28ac
        0x00003558:    6ba7        .k      LDR      r7,[r4,#0x38]
        0x0000355a:    b1f7        ..      CBZ      r7,0x359a ; xQueueReceive + 134
        0x0000355c:    4631        1F      MOV      r1,r6
        0x0000355e:    4620         F      MOV      r0,r4
        0x00003560:    f7fefc89    ....    BL       prvCopyDataFromQueue ; 0x1e76
        0x00003564:    1e78        x.      SUBS     r0,r7,#1
        0x00003566:    63a0        .c      STR      r0,[r4,#0x38]
        0x00003568:    6920         i      LDR      r0,[r4,#0x10]
        0x0000356a:    b908        ..      CBNZ     r0,0x3570 ; xQueueReceive + 92
        0x0000356c:    2001        .       MOVS     r0,#1
        0x0000356e:    e000        ..      B        0x3572 ; xQueueReceive + 94
        0x00003570:    2000        .       MOVS     r0,#0
        0x00003572:    b960        `.      CBNZ     r0,0x358e ; xQueueReceive + 122
        0x00003574:    f1040010    ....    ADD      r0,r4,#0x10
        0x00003578:    f000f96c    ..l.    BL       xTaskRemoveFromEventList ; 0x3854
        0x0000357c:    b138        8.      CBZ      r0,0x358e ; xQueueReceive + 122
        0x0000357e:    f04f5080    O..P    MOV      r0,#0x10000000
        0x00003582:    4930        0I      LDR      r1,[pc,#192] ; [0x3644] = 0xe000ed04
        0x00003584:    6008        .`      STR      r0,[r1,#0]
        0x00003586:    f3bf8f4f    ..O.    DSB      
        0x0000358a:    f3bf8f6f    ..o.    ISB      
        0x0000358e:    f7fff9af    ....    BL       vPortExitCritical ; 0x28f0
        0x00003592:    2001        .       MOVS     r0,#1
        0x00003594:    b006        ..      ADD      sp,sp,#0x18
        0x00003596:    e8bd81f0    ....    POP      {r4-r8,pc}
        0x0000359a:    9805        ..      LDR      r0,[sp,#0x14]
        0x0000359c:    b918        ..      CBNZ     r0,0x35a6 ; xQueueReceive + 146
        0x0000359e:    f7fff9a7    ....    BL       vPortExitCritical ; 0x28f0
        0x000035a2:    2000        .       MOVS     r0,#0
        0x000035a4:    e7f6        ..      B        0x3594 ; xQueueReceive + 128
        0x000035a6:    f1b80f00    ....    CMP      r8,#0
        0x000035aa:    d104        ..      BNE      0x35b6 ; xQueueReceive + 162
        0x000035ac:    a801        ..      ADD      r0,sp,#4
        0x000035ae:    f7fffae5    ....    BL       vTaskInternalSetTimeOutState ; 0x2b7c
        0x000035b2:    f04f0801    O...    MOV      r8,#1
        0x000035b6:    f7fff99b    ....    BL       vPortExitCritical ; 0x28f0
        0x000035ba:    f7fffc35    ..5.    BL       vTaskSuspendAll ; 0x2e28
        0x000035be:    f7fff975    ..u.    BL       vPortEnterCritical ; 0x28ac
        0x000035c2:    f9940044    ..D.    LDRSB    r0,[r4,#0x44]
        0x000035c6:    1c40        @.      ADDS     r0,r0,#1
        0x000035c8:    b910        ..      CBNZ     r0,0x35d0 ; xQueueReceive + 188
        0x000035ca:    2000        .       MOVS     r0,#0
        0x000035cc:    f8840044    ..D.    STRB     r0,[r4,#0x44]
        0x000035d0:    f9940045    ..E.    LDRSB    r0,[r4,#0x45]
        0x000035d4:    1c40        @.      ADDS     r0,r0,#1
        0x000035d6:    b910        ..      CBNZ     r0,0x35de ; xQueueReceive + 202
        0x000035d8:    2000        .       MOVS     r0,#0
        0x000035da:    f8840045    ..E.    STRB     r0,[r4,#0x45]
        0x000035de:    f7fff987    ....    BL       vPortExitCritical ; 0x28f0
        0x000035e2:    a905        ..      ADD      r1,sp,#0x14
        0x000035e4:    a801        ..      ADD      r0,sp,#4
        0x000035e6:    f000f82f    ../.    BL       xTaskCheckForTimeOut ; 0x3648
        0x000035ea:    b9f0        ..      CBNZ     r0,0x362a ; xQueueReceive + 278
        0x000035ec:    4620         F      MOV      r0,r4
        0x000035ee:    f7fefdd7    ....    BL       prvIsQueueEmpty ; 0x21a0
        0x000035f2:    b1a0        ..      CBZ      r0,0x361e ; xQueueReceive + 266
        0x000035f4:    f1040024    ..$.    ADD      r0,r4,#0x24
        0x000035f8:    9905        ..      LDR      r1,[sp,#0x14]
        0x000035fa:    f7fffad1    ....    BL       vTaskPlaceOnEventList ; 0x2ba0
        0x000035fe:    4620         F      MOV      r0,r4
        0x00003600:    f7feff6a    ..j.    BL       prvUnlockQueue ; 0x24d8
        0x00003604:    f000f96a    ..j.    BL       xTaskResumeAll ; 0x38dc
        0x00003608:    2800        .(      CMP      r0,#0
        0x0000360a:    d1a3        ..      BNE      0x3554 ; xQueueReceive + 64
        0x0000360c:    f04f5080    O..P    MOV      r0,#0x10000000
        0x00003610:    490c        .I      LDR      r1,[pc,#48] ; [0x3644] = 0xe000ed04
        0x00003612:    6008        .`      STR      r0,[r1,#0]
        0x00003614:    f3bf8f4f    ..O.    DSB      
        0x00003618:    f3bf8f6f    ..o.    ISB      
        0x0000361c:    e79a        ..      B        0x3554 ; xQueueReceive + 64
        0x0000361e:    4620         F      MOV      r0,r4
        0x00003620:    f7feff5a    ..Z.    BL       prvUnlockQueue ; 0x24d8
        0x00003624:    f000f95a    ..Z.    BL       xTaskResumeAll ; 0x38dc
        0x00003628:    e794        ..      B        0x3554 ; xQueueReceive + 64
        0x0000362a:    4620         F      MOV      r0,r4
        0x0000362c:    f7feff54    ..T.    BL       prvUnlockQueue ; 0x24d8
        0x00003630:    f000f954    ..T.    BL       xTaskResumeAll ; 0x38dc
        0x00003634:    4620         F      MOV      r0,r4
        0x00003636:    f7fefdb3    ....    BL       prvIsQueueEmpty ; 0x21a0
        0x0000363a:    2800        .(      CMP      r0,#0
        0x0000363c:    d08a        ..      BEQ      0x3554 ; xQueueReceive + 64
        0x0000363e:    2000        .       MOVS     r0,#0
        0x00003640:    e7a8        ..      B        0x3594 ; xQueueReceive + 128
    $d
        0x00003642:    0000        ..      DCW    0
        0x00003644:    e000ed04    ....    DCD    3758157060
    $t
    i.xTaskCheckForTimeOut
    xTaskCheckForTimeOut
        0x00003648:    b570        p.      PUSH     {r4-r6,lr}
        0x0000364a:    4605        .F      MOV      r5,r0
        0x0000364c:    460c        .F      MOV      r4,r1
        0x0000364e:    b90d        ..      CBNZ     r5,0x3654 ; xTaskCheckForTimeOut + 12
        0x00003650:    bf00        ..      NOP      
        0x00003652:    e7fe        ..      B        0x3652 ; xTaskCheckForTimeOut + 10
        0x00003654:    b90c        ..      CBNZ     r4,0x365a ; xTaskCheckForTimeOut + 18
        0x00003656:    bf00        ..      NOP      
        0x00003658:    e7fe        ..      B        0x3658 ; xTaskCheckForTimeOut + 16
        0x0000365a:    f7fff927    ..'.    BL       vPortEnterCritical ; 0x28ac
        0x0000365e:    4812        .H      LDR      r0,[pc,#72] ; [0x36a8] = 0x10000048
        0x00003660:    6802        .h      LDR      r2,[r0,#0]
        0x00003662:    6868        hh      LDR      r0,[r5,#4]
        0x00003664:    1a13        ..      SUBS     r3,r2,r0
        0x00003666:    6820         h      LDR      r0,[r4,#0]
        0x00003668:    1c40        @.      ADDS     r0,r0,#1
        0x0000366a:    b908        ..      CBNZ     r0,0x3670 ; xTaskCheckForTimeOut + 40
        0x0000366c:    2600        .&      MOVS     r6,#0
        0x0000366e:    e017        ..      B        0x36a0 ; xTaskCheckForTimeOut + 88
        0x00003670:    490e        .I      LDR      r1,[pc,#56] ; [0x36ac] = 0x1000005c
        0x00003672:    6828        (h      LDR      r0,[r5,#0]
        0x00003674:    6809        .h      LDR      r1,[r1,#0]
        0x00003676:    4288        .B      CMP      r0,r1
        0x00003678:    d004        ..      BEQ      0x3684 ; xTaskCheckForTimeOut + 60
        0x0000367a:    6868        hh      LDR      r0,[r5,#4]
        0x0000367c:    4290        .B      CMP      r0,r2
        0x0000367e:    d801        ..      BHI      0x3684 ; xTaskCheckForTimeOut + 60
        0x00003680:    2601        .&      MOVS     r6,#1
        0x00003682:    e00d        ..      B        0x36a0 ; xTaskCheckForTimeOut + 88
        0x00003684:    6820         h      LDR      r0,[r4,#0]
        0x00003686:    4298        .B      CMP      r0,r3
        0x00003688:    d907        ..      BLS      0x369a ; xTaskCheckForTimeOut + 82
        0x0000368a:    6820         h      LDR      r0,[r4,#0]
        0x0000368c:    1ac0        ..      SUBS     r0,r0,r3
        0x0000368e:    6020         `      STR      r0,[r4,#0]
        0x00003690:    4628        (F      MOV      r0,r5
        0x00003692:    f7fffa73    ..s.    BL       vTaskInternalSetTimeOutState ; 0x2b7c
        0x00003696:    2600        .&      MOVS     r6,#0
        0x00003698:    e002        ..      B        0x36a0 ; xTaskCheckForTimeOut + 88
        0x0000369a:    2000        .       MOVS     r0,#0
        0x0000369c:    6020         `      STR      r0,[r4,#0]
        0x0000369e:    2601        .&      MOVS     r6,#1
        0x000036a0:    f7fff926    ..&.    BL       vPortExitCritical ; 0x28f0
        0x000036a4:    4630        0F      MOV      r0,r6
        0x000036a6:    bd70        p.      POP      {r4-r6,pc}
    $d
        0x000036a8:    10000048    H...    DCD    268435528
        0x000036ac:    1000005c    \...    DCD    268435548
    $t
    i.xTaskCreate
    xTaskCreate
        0x000036b0:    e92d4fff    -..O    PUSH     {r0-r11,lr}
        0x000036b4:    b085        ..      SUB      sp,sp,#0x14
        0x000036b6:    4680        .F      MOV      r8,r0
        0x000036b8:    4689        .F      MOV      r9,r1
        0x000036ba:    4617        .F      MOV      r7,r2
        0x000036bc:    e9ddab12    ....    LDRD     r10,r11,[sp,#0x48]
        0x000036c0:    00b8        ..      LSLS     r0,r7,#2
        0x000036c2:    f7feff49    ..I.    BL       pvPortMalloc ; 0x2558
        0x000036c6:    4606        .F      MOV      r6,r0
        0x000036c8:    b156        V.      CBZ      r6,0x36e0 ; xTaskCreate + 48
        0x000036ca:    204c        L       MOVS     r0,#0x4c
        0x000036cc:    f7feff44    ..D.    BL       pvPortMalloc ; 0x2558
        0x000036d0:    4604        .F      MOV      r4,r0
        0x000036d2:    b10c        ..      CBZ      r4,0x36d8 ; xTaskCreate + 40
        0x000036d4:    6326        &c      STR      r6,[r4,#0x30]
        0x000036d6:    e004        ..      B        0x36e2 ; xTaskCreate + 50
        0x000036d8:    4630        0F      MOV      r0,r6
        0x000036da:    f7fff91f    ....    BL       vPortFree ; 0x291c
        0x000036de:    e000        ..      B        0x36e2 ; xTaskCreate + 50
        0x000036e0:    2400        .$      MOVS     r4,#0
        0x000036e2:    b17c        |.      CBZ      r4,0x3704 ; xTaskCreate + 84
        0x000036e4:    2000        .       MOVS     r0,#0
        0x000036e6:    e9cdab00    ....    STRD     r10,r11,[sp,#0]
        0x000036ea:    e9cd4002    ...@    STRD     r4,r0,[sp,#8]
        0x000036ee:    463a        :F      MOV      r2,r7
        0x000036f0:    4649        IF      MOV      r1,r9
        0x000036f2:    4640        @F      MOV      r0,r8
        0x000036f4:    9b08        ..      LDR      r3,[sp,#0x20]
        0x000036f6:    f7fefca6    ....    BL       prvInitialiseNewTask ; 0x2046
        0x000036fa:    4620         F      MOV      r0,r4
        0x000036fc:    f7fefb3c    ..<.    BL       prvAddNewTaskToReadyList ; 0x1d78
        0x00003700:    2501        .%      MOVS     r5,#1
        0x00003702:    e001        ..      B        0x3708 ; xTaskCreate + 88
        0x00003704:    f04f35ff    O..5    MOV      r5,#0xffffffff
        0x00003708:    4628        (F      MOV      r0,r5
        0x0000370a:    b009        ..      ADD      sp,sp,#0x24
        0x0000370c:    e8bd8ff0    ....    POP      {r4-r11,pc}
    i.xTaskGetSchedulerState
    xTaskGetSchedulerState
        0x00003710:    4905        .I      LDR      r1,[pc,#20] ; [0x3728] = 0x10000050
        0x00003712:    6809        .h      LDR      r1,[r1,#0]
        0x00003714:    b909        ..      CBNZ     r1,0x371a ; xTaskGetSchedulerState + 10
        0x00003716:    2001        .       MOVS     r0,#1
        0x00003718:    e005        ..      B        0x3726 ; xTaskGetSchedulerState + 22
        0x0000371a:    4904        .I      LDR      r1,[pc,#16] ; [0x372c] = 0x1000006c
        0x0000371c:    6809        .h      LDR      r1,[r1,#0]
        0x0000371e:    b909        ..      CBNZ     r1,0x3724 ; xTaskGetSchedulerState + 20
        0x00003720:    2002        .       MOVS     r0,#2
        0x00003722:    e000        ..      B        0x3726 ; xTaskGetSchedulerState + 22
        0x00003724:    2000        .       MOVS     r0,#0
        0x00003726:    4770        pG      BX       lr
    $d
        0x00003728:    10000050    P...    DCD    268435536
        0x0000372c:    1000006c    l...    DCD    268435564
    $t
    i.xTaskGetTickCount
    xTaskGetTickCount
        0x00003730:    4901        .I      LDR      r1,[pc,#4] ; [0x3738] = 0x10000048
        0x00003732:    6808        .h      LDR      r0,[r1,#0]
        0x00003734:    4770        pG      BX       lr
    $d
        0x00003736:    0000        ..      DCW    0
        0x00003738:    10000048    H...    DCD    268435528
    $t
    i.xTaskIncrementTick
    xTaskIncrementTick
        0x0000373c:    e92d41f0    -..A    PUSH     {r4-r8,lr}
        0x00003740:    f04f0800    O...    MOV      r8,#0
        0x00003744:    4838        8H      LDR      r0,[pc,#224] ; [0x3828] = 0x1000006c
        0x00003746:    6800        .h      LDR      r0,[r0,#0]
        0x00003748:    2800        .(      CMP      r0,#0
        0x0000374a:    d160        `.      BNE      0x380e ; xTaskIncrementTick + 210
        0x0000374c:    4837        7H      LDR      r0,[pc,#220] ; [0x382c] = 0x10000048
        0x0000374e:    6800        .h      LDR      r0,[r0,#0]
        0x00003750:    1c45        E.      ADDS     r5,r0,#1
        0x00003752:    4836        6H      LDR      r0,[pc,#216] ; [0x382c] = 0x10000048
        0x00003754:    6005        .`      STR      r5,[r0,#0]
        0x00003756:    b9cd        ..      CBNZ     r5,0x378c ; xTaskIncrementTick + 80
        0x00003758:    4835        5H      LDR      r0,[pc,#212] ; [0x3830] = 0x1000003c
        0x0000375a:    6800        .h      LDR      r0,[r0,#0]
        0x0000375c:    6800        .h      LDR      r0,[r0,#0]
        0x0000375e:    b908        ..      CBNZ     r0,0x3764 ; xTaskIncrementTick + 40
        0x00003760:    2001        .       MOVS     r0,#1
        0x00003762:    e000        ..      B        0x3766 ; xTaskIncrementTick + 42
        0x00003764:    2000        .       MOVS     r0,#0
        0x00003766:    b908        ..      CBNZ     r0,0x376c ; xTaskIncrementTick + 48
        0x00003768:    bf00        ..      NOP      
        0x0000376a:    e7fe        ..      B        0x376a ; xTaskIncrementTick + 46
        0x0000376c:    4830        0H      LDR      r0,[pc,#192] ; [0x3830] = 0x1000003c
        0x0000376e:    6807        .h      LDR      r7,[r0,#0]
        0x00003770:    4830        0H      LDR      r0,[pc,#192] ; [0x3834] = 0x10000040
        0x00003772:    6800        .h      LDR      r0,[r0,#0]
        0x00003774:    492e        .I      LDR      r1,[pc,#184] ; [0x3830] = 0x1000003c
        0x00003776:    6008        .`      STR      r0,[r1,#0]
        0x00003778:    482e        .H      LDR      r0,[pc,#184] ; [0x3834] = 0x10000040
        0x0000377a:    6007        .`      STR      r7,[r0,#0]
        0x0000377c:    482e        .H      LDR      r0,[pc,#184] ; [0x3838] = 0x1000005c
        0x0000377e:    6800        .h      LDR      r0,[r0,#0]
        0x00003780:    1c40        @.      ADDS     r0,r0,#1
        0x00003782:    492d        -I      LDR      r1,[pc,#180] ; [0x3838] = 0x1000005c
        0x00003784:    6008        .`      STR      r0,[r1,#0]
        0x00003786:    f7fefdfd    ....    BL       prvResetNextTaskUnblockTime ; 0x2384
        0x0000378a:    bf00        ..      NOP      
        0x0000378c:    482b        +H      LDR      r0,[pc,#172] ; [0x383c] = 0x10000064
        0x0000378e:    6800        .h      LDR      r0,[r0,#0]
        0x00003790:    4285        .B      CMP      r5,r0
        0x00003792:    d33b        ;.      BCC      0x380c ; xTaskIncrementTick + 208
        0x00003794:    bf00        ..      NOP      
        0x00003796:    4826        &H      LDR      r0,[pc,#152] ; [0x3830] = 0x1000003c
        0x00003798:    6800        .h      LDR      r0,[r0,#0]
        0x0000379a:    6800        .h      LDR      r0,[r0,#0]
        0x0000379c:    b908        ..      CBNZ     r0,0x37a2 ; xTaskIncrementTick + 102
        0x0000379e:    2001        .       MOVS     r0,#1
        0x000037a0:    e000        ..      B        0x37a4 ; xTaskIncrementTick + 104
        0x000037a2:    2000        .       MOVS     r0,#0
        0x000037a4:    b120         .      CBZ      r0,0x37b0 ; xTaskIncrementTick + 116
        0x000037a6:    f04f30ff    O..0    MOV      r0,#0xffffffff
        0x000037aa:    4924        $I      LDR      r1,[pc,#144] ; [0x383c] = 0x10000064
        0x000037ac:    6008        .`      STR      r0,[r1,#0]
        0x000037ae:    e02c        ,.      B        0x380a ; xTaskIncrementTick + 206
        0x000037b0:    481f        .H      LDR      r0,[pc,#124] ; [0x3830] = 0x1000003c
        0x000037b2:    6800        .h      LDR      r0,[r0,#0]
        0x000037b4:    68c0        .h      LDR      r0,[r0,#0xc]
        0x000037b6:    68c4        .h      LDR      r4,[r0,#0xc]
        0x000037b8:    6866        fh      LDR      r6,[r4,#4]
        0x000037ba:    42b5        .B      CMP      r5,r6
        0x000037bc:    d202        ..      BCS      0x37c4 ; xTaskIncrementTick + 136
        0x000037be:    481f        .H      LDR      r0,[pc,#124] ; [0x383c] = 0x10000064
        0x000037c0:    6006        .`      STR      r6,[r0,#0]
        0x000037c2:    e022        ".      B        0x380a ; xTaskIncrementTick + 206
        0x000037c4:    1d20         .      ADDS     r0,r4,#4
        0x000037c6:    f7fff80a    ....    BL       uxListRemove ; 0x27de
        0x000037ca:    6aa0        .j      LDR      r0,[r4,#0x28]
        0x000037cc:    b118        ..      CBZ      r0,0x37d6 ; xTaskIncrementTick + 154
        0x000037ce:    f1040018    ....    ADD      r0,r4,#0x18
        0x000037d2:    f7fff804    ....    BL       uxListRemove ; 0x27de
        0x000037d6:    491a        .I      LDR      r1,[pc,#104] ; [0x3840] = 0x1000004c
        0x000037d8:    6ae0        .j      LDR      r0,[r4,#0x2c]
        0x000037da:    6809        .h      LDR      r1,[r1,#0]
        0x000037dc:    4288        .B      CMP      r0,r1
        0x000037de:    d902        ..      BLS      0x37e6 ; xTaskIncrementTick + 170
        0x000037e0:    4917        .I      LDR      r1,[pc,#92] ; [0x3840] = 0x1000004c
        0x000037e2:    6ae0        .j      LDR      r0,[r4,#0x2c]
        0x000037e4:    6008        .`      STR      r0,[r1,#0]
        0x000037e6:    6ae1        .j      LDR      r1,[r4,#0x2c]
        0x000037e8:    eb010181    ....    ADD      r1,r1,r1,LSL #2
        0x000037ec:    4a15        .J      LDR      r2,[pc,#84] ; [0x3844] = 0x100040b8
        0x000037ee:    eb020081    ....    ADD      r0,r2,r1,LSL #2
        0x000037f2:    1d21        !.      ADDS     r1,r4,#4
        0x000037f4:    f7fff84d    ..M.    BL       vListInsertEnd ; 0x2892
        0x000037f8:    4913        .I      LDR      r1,[pc,#76] ; [0x3848] = 0x10000038
        0x000037fa:    6ae0        .j      LDR      r0,[r4,#0x2c]
        0x000037fc:    6809        .h      LDR      r1,[r1,#0]
        0x000037fe:    6ac9        .j      LDR      r1,[r1,#0x2c]
        0x00003800:    4288        .B      CMP      r0,r1
        0x00003802:    d3c8        ..      BCC      0x3796 ; xTaskIncrementTick + 90
        0x00003804:    f04f0801    O...    MOV      r8,#1
        0x00003808:    e7c5        ..      B        0x3796 ; xTaskIncrementTick + 90
        0x0000380a:    bf00        ..      NOP      
        0x0000380c:    e004        ..      B        0x3818 ; xTaskIncrementTick + 220
        0x0000380e:    480f        .H      LDR      r0,[pc,#60] ; [0x384c] = 0x10000054
        0x00003810:    6800        .h      LDR      r0,[r0,#0]
        0x00003812:    1c40        @.      ADDS     r0,r0,#1
        0x00003814:    490d        .I      LDR      r1,[pc,#52] ; [0x384c] = 0x10000054
        0x00003816:    6008        .`      STR      r0,[r1,#0]
        0x00003818:    480d        .H      LDR      r0,[pc,#52] ; [0x3850] = 0x10000058
        0x0000381a:    6800        .h      LDR      r0,[r0,#0]
        0x0000381c:    b108        ..      CBZ      r0,0x3822 ; xTaskIncrementTick + 230
        0x0000381e:    f04f0801    O...    MOV      r8,#1
        0x00003822:    4640        @F      MOV      r0,r8
        0x00003824:    e8bd81f0    ....    POP      {r4-r8,pc}
    $d
        0x00003828:    1000006c    l...    DCD    268435564
        0x0000382c:    10000048    H...    DCD    268435528
        0x00003830:    1000003c    <...    DCD    268435516
        0x00003834:    10000040    @...    DCD    268435520
        0x00003838:    1000005c    \...    DCD    268435548
        0x0000383c:    10000064    d...    DCD    268435556
        0x00003840:    1000004c    L...    DCD    268435532
        0x00003844:    100040b8    .@..    DCD    268452024
        0x00003848:    10000038    8...    DCD    268435512
        0x0000384c:    10000054    T...    DCD    268435540
        0x00003850:    10000058    X...    DCD    268435544
    $t
    i.xTaskRemoveFromEventList
    xTaskRemoveFromEventList
        0x00003854:    b570        p.      PUSH     {r4-r6,lr}
        0x00003856:    4606        .F      MOV      r6,r0
        0x00003858:    68f0        .h      LDR      r0,[r6,#0xc]
        0x0000385a:    68c4        .h      LDR      r4,[r0,#0xc]
        0x0000385c:    b90c        ..      CBNZ     r4,0x3862 ; xTaskRemoveFromEventList + 14
        0x0000385e:    bf00        ..      NOP      
        0x00003860:    e7fe        ..      B        0x3860 ; xTaskRemoveFromEventList + 12
        0x00003862:    f1040018    ....    ADD      r0,r4,#0x18
        0x00003866:    f7feffba    ....    BL       uxListRemove ; 0x27de
        0x0000386a:    4816        .H      LDR      r0,[pc,#88] ; [0x38c4] = 0x1000006c
        0x0000386c:    6800        .h      LDR      r0,[r0,#0]
        0x0000386e:    b9a0        ..      CBNZ     r0,0x389a ; xTaskRemoveFromEventList + 70
        0x00003870:    1d20         .      ADDS     r0,r4,#4
        0x00003872:    f7feffb4    ....    BL       uxListRemove ; 0x27de
        0x00003876:    4914        .I      LDR      r1,[pc,#80] ; [0x38c8] = 0x1000004c
        0x00003878:    6ae0        .j      LDR      r0,[r4,#0x2c]
        0x0000387a:    6809        .h      LDR      r1,[r1,#0]
        0x0000387c:    4288        .B      CMP      r0,r1
        0x0000387e:    d902        ..      BLS      0x3886 ; xTaskRemoveFromEventList + 50
        0x00003880:    4911        .I      LDR      r1,[pc,#68] ; [0x38c8] = 0x1000004c
        0x00003882:    6ae0        .j      LDR      r0,[r4,#0x2c]
        0x00003884:    6008        .`      STR      r0,[r1,#0]
        0x00003886:    6ae1        .j      LDR      r1,[r4,#0x2c]
        0x00003888:    eb010181    ....    ADD      r1,r1,r1,LSL #2
        0x0000388c:    4a0f        .J      LDR      r2,[pc,#60] ; [0x38cc] = 0x100040b8
        0x0000388e:    eb020081    ....    ADD      r0,r2,r1,LSL #2
        0x00003892:    1d21        !.      ADDS     r1,r4,#4
        0x00003894:    f7fefffd    ....    BL       vListInsertEnd ; 0x2892
        0x00003898:    e004        ..      B        0x38a4 ; xTaskRemoveFromEventList + 80
        0x0000389a:    f1040118    ....    ADD      r1,r4,#0x18
        0x0000389e:    480c        .H      LDR      r0,[pc,#48] ; [0x38d0] = 0x10004130
        0x000038a0:    f7fefff7    ....    BL       vListInsertEnd ; 0x2892
        0x000038a4:    490b        .I      LDR      r1,[pc,#44] ; [0x38d4] = 0x10000038
        0x000038a6:    6ae0        .j      LDR      r0,[r4,#0x2c]
        0x000038a8:    6809        .h      LDR      r1,[r1,#0]
        0x000038aa:    6ac9        .j      LDR      r1,[r1,#0x2c]
        0x000038ac:    4288        .B      CMP      r0,r1
        0x000038ae:    d904        ..      BLS      0x38ba ; xTaskRemoveFromEventList + 102
        0x000038b0:    2501        .%      MOVS     r5,#1
        0x000038b2:    2001        .       MOVS     r0,#1
        0x000038b4:    4908        .I      LDR      r1,[pc,#32] ; [0x38d8] = 0x10000058
        0x000038b6:    6008        .`      STR      r0,[r1,#0]
        0x000038b8:    e000        ..      B        0x38bc ; xTaskRemoveFromEventList + 104
        0x000038ba:    2500        .%      MOVS     r5,#0
        0x000038bc:    f7fefd62    ..b.    BL       prvResetNextTaskUnblockTime ; 0x2384
        0x000038c0:    4628        (F      MOV      r0,r5
        0x000038c2:    bd70        p.      POP      {r4-r6,pc}
    $d
        0x000038c4:    1000006c    l...    DCD    268435564
        0x000038c8:    1000004c    L...    DCD    268435532
        0x000038cc:    100040b8    .@..    DCD    268452024
        0x000038d0:    10004130    0A..    DCD    268452144
        0x000038d4:    10000038    8...    DCD    268435512
        0x000038d8:    10000058    X...    DCD    268435544
    $t
    i.xTaskResumeAll
    xTaskResumeAll
        0x000038dc:    b570        p.      PUSH     {r4-r6,lr}
        0x000038de:    2400        .$      MOVS     r4,#0
        0x000038e0:    2600        .&      MOVS     r6,#0
        0x000038e2:    4831        1H      LDR      r0,[pc,#196] ; [0x39a8] = 0x1000006c
        0x000038e4:    6800        .h      LDR      r0,[r0,#0]
        0x000038e6:    b908        ..      CBNZ     r0,0x38ec ; xTaskResumeAll + 16
        0x000038e8:    bf00        ..      NOP      
        0x000038ea:    e7fe        ..      B        0x38ea ; xTaskResumeAll + 14
        0x000038ec:    f7feffde    ....    BL       vPortEnterCritical ; 0x28ac
        0x000038f0:    482d        -H      LDR      r0,[pc,#180] ; [0x39a8] = 0x1000006c
        0x000038f2:    6800        .h      LDR      r0,[r0,#0]
        0x000038f4:    1e40        @.      SUBS     r0,r0,#1
        0x000038f6:    492c        ,I      LDR      r1,[pc,#176] ; [0x39a8] = 0x1000006c
        0x000038f8:    6008        .`      STR      r0,[r1,#0]
        0x000038fa:    4608        .F      MOV      r0,r1
        0x000038fc:    6800        .h      LDR      r0,[r0,#0]
        0x000038fe:    2800        .(      CMP      r0,#0
        0x00003900:    d14e        N.      BNE      0x39a0 ; xTaskResumeAll + 196
        0x00003902:    482a        *H      LDR      r0,[pc,#168] ; [0x39ac] = 0x10000044
        0x00003904:    6800        .h      LDR      r0,[r0,#0]
        0x00003906:    2800        .(      CMP      r0,#0
        0x00003908:    d04a        J.      BEQ      0x39a0 ; xTaskResumeAll + 196
        0x0000390a:    e023        #.      B        0x3954 ; xTaskResumeAll + 120
        0x0000390c:    4828        (H      LDR      r0,[pc,#160] ; [0x39b0] = 0x10004130
        0x0000390e:    68c0        .h      LDR      r0,[r0,#0xc]
        0x00003910:    68c4        .h      LDR      r4,[r0,#0xc]
        0x00003912:    f1040018    ....    ADD      r0,r4,#0x18
        0x00003916:    f7feff62    ..b.    BL       uxListRemove ; 0x27de
        0x0000391a:    1d20         .      ADDS     r0,r4,#4
        0x0000391c:    f7feff5f    .._.    BL       uxListRemove ; 0x27de
        0x00003920:    4924        $I      LDR      r1,[pc,#144] ; [0x39b4] = 0x1000004c
        0x00003922:    6ae0        .j      LDR      r0,[r4,#0x2c]
        0x00003924:    6809        .h      LDR      r1,[r1,#0]
        0x00003926:    4288        .B      CMP      r0,r1
        0x00003928:    d902        ..      BLS      0x3930 ; xTaskResumeAll + 84
        0x0000392a:    4922        "I      LDR      r1,[pc,#136] ; [0x39b4] = 0x1000004c
        0x0000392c:    6ae0        .j      LDR      r0,[r4,#0x2c]
        0x0000392e:    6008        .`      STR      r0,[r1,#0]
        0x00003930:    6ae1        .j      LDR      r1,[r4,#0x2c]
        0x00003932:    eb010181    ....    ADD      r1,r1,r1,LSL #2
        0x00003936:    4a20         J      LDR      r2,[pc,#128] ; [0x39b8] = 0x100040b8
        0x00003938:    eb020081    ....    ADD      r0,r2,r1,LSL #2
        0x0000393c:    1d21        !.      ADDS     r1,r4,#4
        0x0000393e:    f7feffa8    ....    BL       vListInsertEnd ; 0x2892
        0x00003942:    491e        .I      LDR      r1,[pc,#120] ; [0x39bc] = 0x10000038
        0x00003944:    6ae0        .j      LDR      r0,[r4,#0x2c]
        0x00003946:    6809        .h      LDR      r1,[r1,#0]
        0x00003948:    6ac9        .j      LDR      r1,[r1,#0x2c]
        0x0000394a:    4288        .B      CMP      r0,r1
        0x0000394c:    d302        ..      BCC      0x3954 ; xTaskResumeAll + 120
        0x0000394e:    2001        .       MOVS     r0,#1
        0x00003950:    491b        .I      LDR      r1,[pc,#108] ; [0x39c0] = 0x10000058
        0x00003952:    6008        .`      STR      r0,[r1,#0]
        0x00003954:    4816        .H      LDR      r0,[pc,#88] ; [0x39b0] = 0x10004130
        0x00003956:    6800        .h      LDR      r0,[r0,#0]
        0x00003958:    b908        ..      CBNZ     r0,0x395e ; xTaskResumeAll + 130
        0x0000395a:    2001        .       MOVS     r0,#1
        0x0000395c:    e000        ..      B        0x3960 ; xTaskResumeAll + 132
        0x0000395e:    2000        .       MOVS     r0,#0
        0x00003960:    2800        .(      CMP      r0,#0
        0x00003962:    d0d3        ..      BEQ      0x390c ; xTaskResumeAll + 48
        0x00003964:    b10c        ..      CBZ      r4,0x396a ; xTaskResumeAll + 142
        0x00003966:    f7fefd0d    ....    BL       prvResetNextTaskUnblockTime ; 0x2384
        0x0000396a:    4816        .H      LDR      r0,[pc,#88] ; [0x39c4] = 0x10000054
        0x0000396c:    6805        .h      LDR      r5,[r0,#0]
        0x0000396e:    b165        e.      CBZ      r5,0x398a ; xTaskResumeAll + 174
        0x00003970:    bf00        ..      NOP      
        0x00003972:    f7fffee3    ....    BL       xTaskIncrementTick ; 0x373c
        0x00003976:    b110        ..      CBZ      r0,0x397e ; xTaskResumeAll + 162
        0x00003978:    2001        .       MOVS     r0,#1
        0x0000397a:    4911        .I      LDR      r1,[pc,#68] ; [0x39c0] = 0x10000058
        0x0000397c:    6008        .`      STR      r0,[r1,#0]
        0x0000397e:    1e6d        m.      SUBS     r5,r5,#1
        0x00003980:    2d00        .-      CMP      r5,#0
        0x00003982:    d1f6        ..      BNE      0x3972 ; xTaskResumeAll + 150
        0x00003984:    2000        .       MOVS     r0,#0
        0x00003986:    490f        .I      LDR      r1,[pc,#60] ; [0x39c4] = 0x10000054
        0x00003988:    6008        .`      STR      r0,[r1,#0]
        0x0000398a:    480d        .H      LDR      r0,[pc,#52] ; [0x39c0] = 0x10000058
        0x0000398c:    6800        .h      LDR      r0,[r0,#0]
        0x0000398e:    b138        8.      CBZ      r0,0x39a0 ; xTaskResumeAll + 196
        0x00003990:    2601        .&      MOVS     r6,#1
        0x00003992:    0730        0.      LSLS     r0,r6,#28
        0x00003994:    490c        .I      LDR      r1,[pc,#48] ; [0x39c8] = 0xe000ed04
        0x00003996:    6008        .`      STR      r0,[r1,#0]
        0x00003998:    f3bf8f4f    ..O.    DSB      
        0x0000399c:    f3bf8f6f    ..o.    ISB      
        0x000039a0:    f7feffa6    ....    BL       vPortExitCritical ; 0x28f0
        0x000039a4:    4630        0F      MOV      r0,r6
        0x000039a6:    bd70        p.      POP      {r4-r6,pc}
    $d
        0x000039a8:    1000006c    l...    DCD    268435564
        0x000039ac:    10000044    D...    DCD    268435524
        0x000039b0:    10004130    0A..    DCD    268452144
        0x000039b4:    1000004c    L...    DCD    268435532
        0x000039b8:    100040b8    .@..    DCD    268452024
        0x000039bc:    10000038    8...    DCD    268435512
        0x000039c0:    10000058    X...    DCD    268435544
        0x000039c4:    10000054    T...    DCD    268435540
        0x000039c8:    e000ed04    ....    DCD    3758157060
    $t
    i.xTimerCreateTimerTask
    xTimerCreateTimerTask
        0x000039cc:    b51c        ..      PUSH     {r2-r4,lr}
        0x000039ce:    2400        .$      MOVS     r4,#0
        0x000039d0:    f7fefa2a    ..*.    BL       prvCheckForValidListAndQueue ; 0x1e28
        0x000039d4:    4809        .H      LDR      r0,[pc,#36] ; [0x39fc] = 0x10000078
        0x000039d6:    6800        .h      LDR      r0,[r0,#0]
        0x000039d8:    b158        X.      CBZ      r0,0x39f2 ; xTimerCreateTimerTask + 38
        0x000039da:    4809        .H      LDR      r0,[pc,#36] ; [0x3a00] = 0x1000007c
        0x000039dc:    2103        .!      MOVS     r1,#3
        0x000039de:    2300        .#      MOVS     r3,#0
        0x000039e0:    f44f7280    O..r    MOV      r2,#0x100
        0x000039e4:    e9cd1000    ....    STRD     r1,r0,[sp,#0]
        0x000039e8:    a106        ..      ADR      r1,{pc}+0x1c ; 0x3a04
        0x000039ea:    4808        .H      LDR      r0,[pc,#32] ; [0x3a0c] = 0x24bf
        0x000039ec:    f7fffe60    ..`.    BL       xTaskCreate ; 0x36b0
        0x000039f0:    4604        .F      MOV      r4,r0
        0x000039f2:    b90c        ..      CBNZ     r4,0x39f8 ; xTimerCreateTimerTask + 44
        0x000039f4:    bf00        ..      NOP      
        0x000039f6:    e7fe        ..      B        0x39f6 ; xTimerCreateTimerTask + 42
        0x000039f8:    4620         F      MOV      r0,r4
        0x000039fa:    bd1c        ..      POP      {r2-r4,pc}
    $d
        0x000039fc:    10000078    x...    DCD    268435576
        0x00003a00:    1000007c    |...    DCD    268435580
        0x00003a04:    20726d54    Tmr     DCD    544370004
        0x00003a08:    00637653    Svc.    DCD    6518355
        0x00003a0c:    000024bf    .$..    DCD    9407
    $t
    i.xTimerGenericCommand
    xTimerGenericCommand
        0x00003a10:    e92d47ff    -..G    PUSH     {r0-r10,lr}
        0x00003a14:    4604        .F      MOV      r4,r0
        0x00003a16:    460d        .F      MOV      r5,r1
        0x00003a18:    4616        .F      MOV      r6,r2
        0x00003a1a:    461f        .F      MOV      r7,r3
        0x00003a1c:    f8dd8030    ..0.    LDR      r8,[sp,#0x30]
        0x00003a20:    f04f0900    O...    MOV      r9,#0
        0x00003a24:    b90c        ..      CBNZ     r4,0x3a2a ; xTimerGenericCommand + 26
        0x00003a26:    bf00        ..      NOP      
        0x00003a28:    e7fe        ..      B        0x3a28 ; xTimerGenericCommand + 24
        0x00003a2a:    4815        .H      LDR      r0,[pc,#84] ; [0x3a80] = 0x10000078
        0x00003a2c:    6800        .h      LDR      r0,[r0,#0]
        0x00003a2e:    b310        ..      CBZ      r0,0x3a76 ; xTimerGenericCommand + 102
        0x00003a30:    9500        ..      STR      r5,[sp,#0]
        0x00003a32:    9601        ..      STR      r6,[sp,#4]
        0x00003a34:    9402        ..      STR      r4,[sp,#8]
        0x00003a36:    2d06        .-      CMP      r5,#6
        0x00003a38:    da15        ..      BGE      0x3a66 ; xTimerGenericCommand + 86
        0x00003a3a:    f7fffe69    ..i.    BL       xTaskGetSchedulerState ; 0x3710
        0x00003a3e:    2802        .(      CMP      r0,#2
        0x00003a40:    d108        ..      BNE      0x3a54 ; xTimerGenericCommand + 68
        0x00003a42:    2300        .#      MOVS     r3,#0
        0x00003a44:    4642        BF      MOV      r2,r8
        0x00003a46:    4669        iF      MOV      r1,sp
        0x00003a48:    480d        .H      LDR      r0,[pc,#52] ; [0x3a80] = 0x10000078
        0x00003a4a:    6800        .h      LDR      r0,[r0,#0]
        0x00003a4c:    f7fffc50    ..P.    BL       xQueueGenericSend ; 0x32f0
        0x00003a50:    4681        .F      MOV      r9,r0
        0x00003a52:    e010        ..      B        0x3a76 ; xTimerGenericCommand + 102
        0x00003a54:    2300        .#      MOVS     r3,#0
        0x00003a56:    461a        .F      MOV      r2,r3
        0x00003a58:    4669        iF      MOV      r1,sp
        0x00003a5a:    4809        .H      LDR      r0,[pc,#36] ; [0x3a80] = 0x10000078
        0x00003a5c:    6800        .h      LDR      r0,[r0,#0]
        0x00003a5e:    f7fffc47    ..G.    BL       xQueueGenericSend ; 0x32f0
        0x00003a62:    4681        .F      MOV      r9,r0
        0x00003a64:    e007        ..      B        0x3a76 ; xTimerGenericCommand + 102
        0x00003a66:    2300        .#      MOVS     r3,#0
        0x00003a68:    463a        :F      MOV      r2,r7
        0x00003a6a:    4669        iF      MOV      r1,sp
        0x00003a6c:    4804        .H      LDR      r0,[pc,#16] ; [0x3a80] = 0x10000078
        0x00003a6e:    6800        .h      LDR      r0,[r0,#0]
        0x00003a70:    f7fffcee    ....    BL       xQueueGenericSendFromISR ; 0x3450
        0x00003a74:    4681        .F      MOV      r9,r0
        0x00003a76:    4648        HF      MOV      r0,r9
        0x00003a78:    b004        ..      ADD      sp,sp,#0x10
        0x00003a7a:    e8bd87f0    ....    POP      {r4-r10,pc}
    $d
        0x00003a7e:    0000        ..      DCW    0
        0x00003a80:    10000078    x...    DCD    268435576
    $t
    i.xTimerPendFunctionCallFromISR
    xTimerPendFunctionCallFromISR
        0x00003a84:    e92d41ff    -..A    PUSH     {r0-r8,lr}
        0x00003a88:    4604        .F      MOV      r4,r0
        0x00003a8a:    460d        .F      MOV      r5,r1
        0x00003a8c:    4616        .F      MOV      r6,r2
        0x00003a8e:    461f        .F      MOV      r7,r3
        0x00003a90:    f06f0001    o...    MVN      r0,#1
        0x00003a94:    9000        ..      STR      r0,[sp,#0]
        0x00003a96:    9401        ..      STR      r4,[sp,#4]
        0x00003a98:    9502        ..      STR      r5,[sp,#8]
        0x00003a9a:    9603        ..      STR      r6,[sp,#0xc]
        0x00003a9c:    2300        .#      MOVS     r3,#0
        0x00003a9e:    463a        :F      MOV      r2,r7
        0x00003aa0:    4669        iF      MOV      r1,sp
        0x00003aa2:    4804        .H      LDR      r0,[pc,#16] ; [0x3ab4] = 0x10000078
        0x00003aa4:    6800        .h      LDR      r0,[r0,#0]
        0x00003aa6:    f7fffcd3    ....    BL       xQueueGenericSendFromISR ; 0x3450
        0x00003aaa:    4680        .F      MOV      r8,r0
        0x00003aac:    4640        @F      MOV      r0,r8
        0x00003aae:    b004        ..      ADD      sp,sp,#0x10
        0x00003ab0:    e8bd81f0    ....    POP      {r4-r8,pc}
    $d
        0x00003ab4:    10000078    x...    DCD    268435576
    $t
    x$fpl$d2f
    $v0
    __aeabi_d2f
    _d2f
        0x00003ab8:    f0214200    !..B    BIC      r2,r1,#0x80000000
        0x00003abc:    f1a25260    ..`R    SUB      r2,r2,#0x38000000
        0x00003ac0:    f5b21f80    ....    CMP      r2,#0x100000
        0x00003ac4:    f0014300    ...C    AND      r3,r1,#0x80000000
        0x00003ac8:    bf28        (.      IT       CS
        0x00003aca:    f1d26c7f    ...l    RSBSCS   r12,r2,#0xff00000
        0x00003ace:    d90b        ..      BLS      0x3ae8 ; __aeabi_d2f + 48
        0x00003ad0:    ea5f1c00    _...    LSLS     r12,r0,#4
        0x00003ad4:    ea4302c2    C...    ORR      r2,r3,r2,LSL #3
        0x00003ad8:    eb427050    B.Pp    ADC      r0,r2,r0,LSR #29
        0x00003adc:    bf18        ..      IT       NE
        0x00003ade:    4770        pG      BXNE     lr
        0x00003ae0:    bf28        (.      IT       CS
        0x00003ae2:    f0200001     ...    BICCS    r0,r0,#1
        0x00003ae6:    4770        pG      BX       lr
        0x00003ae8:    f5b21f80    ....    CMP      r2,#0x100000
        0x00003aec:    bfbc        ..      ITT      LT
        0x00003aee:    4618        .F      MOVLT    r0,r3
        0x00003af0:    4770        pG      BXLT     lr
        0x00003af2:    ea4f0c41    O.A.    LSL      r12,r1,#1
        0x00003af6:    f51c1f00    ....    CMN      r12,#0x200000
        0x00003afa:    d202        ..      BCS      0x3b02 ; __aeabi_d2f + 74
        0x00003afc:    4608        .F      MOV      r0,r1
        0x00003afe:    f000b85f    .._.    B.W      __fpl_fretinf ; 0x3bc0
        0x00003b02:    b570        p.      PUSH     {r4-r6,lr}
        0x00003b04:    f000f809    ....    BL       __fpl_dnaninf ; 0x3b1a
    $d
        0x00003b08:    89000000    ....    DCD    2298478592
    $t
        0x00003b0c:    f7ffbff6    ....    B.W      0x3afc ; __aeabi_d2f + 68
        0x00003b10:    f04f4000    O..@    MOV      r0,#0x80000000
        0x00003b14:    f5a00080    ....    SUB      r0,r0,#0x400000
        0x00003b18:    4770        pG      BX       lr
    x$fpl$dnaninf
    $v0
    __fpl_dnaninf
        0x00003b1a:    f10e0e02    ....    ADD      lr,lr,#2
        0x00003b1e:    f02e0e03    ....    BIC      lr,lr,#3
        0x00003b22:    f85e6b04    ^..k    LDR      r6,[lr],#4
        0x00003b26:    4236        6B      TST      r6,r6
        0x00003b28:    d405        ..      BMI      0x3b36 ; __fpl_dnaninf + 28
        0x00003b2a:    2a01        .*      CMP      r2,#1
        0x00003b2c:    eb430503    C...    ADC      r5,r3,r3
        0x00003b30:    f5151f00    ....    CMN      r5,#0x200000
        0x00003b34:    d812        ..      BHI      0x3b5c ; __fpl_dnaninf + 66
        0x00003b36:    2801        .(      CMP      r0,#1
        0x00003b38:    eb410c01    A...    ADC      r12,r1,r1
        0x00003b3c:    f51c1f00    ....    CMN      r12,#0x200000
        0x00003b40:    d80c        ..      BHI      0x3b5c ; __fpl_dnaninf + 66
        0x00003b42:    d10e        ..      BNE      0x3b62 ; __fpl_dnaninf + 72
        0x00003b44:    ea4f7cd1    O..|    LSR      r12,r1,#31
        0x00003b48:    f5151f00    ....    CMN      r5,#0x200000
        0x00003b4c:    eb0c0c4c    ..L.    ADD      r12,r12,r12,LSL #1
        0x00003b50:    f10c0c02    ....    ADD      r12,r12,#2
        0x00003b54:    bf08        ..      IT       EQ
        0x00003b56:    eb4c7cd3    L..|    ADCEQ    r12,r12,r3,LSR #31
        0x00003b5a:    e004        ..      B        0x3b66 ; __fpl_dnaninf + 76
        0x00003b5c:    f04f0c08    O...    MOV      r12,#8
        0x00003b60:    e001        ..      B        0x3b66 ; __fpl_dnaninf + 76
        0x00003b62:    ea4f7cd3    O..|    LSR      r12,r3,#31
        0x00003b66:    eb0c054c    ..L.    ADD      r5,r12,r12,LSL #1
        0x00003b6a:    fa26f605    &...    LSR      r6,r6,r5
        0x00003b6e:    f0060607    ....    AND      r6,r6,#7
        0x00003b72:    f1b60c04    ....    SUBS     r12,r6,#4
        0x00003b76:    d206        ..      BCS      0x3b86 ; __fpl_dnaninf + 108
        0x00003b78:    eb0e0c86    ....    ADD      r12,lr,r6,LSL #2
        0x00003b7c:    e8bd4070    ..p@    POP      {r4-r6,lr}
        0x00003b80:    f04c0c01    L...    ORR      r12,r12,#1
        0x00003b84:    4760        `G      BX       r12
        0x00003b86:    e8dff00c    ....    TBB      [pc,r12]
    $d
        0x00003b8a:    0b09        ..      DCW    2825
        0x00003b8c:    0202        ..      DCW    514
    $t
        0x00003b8e:    f04f4100    O..A    MOV      r1,#0x80000000
        0x00003b92:    f04f0000    O...    MOV      r0,#0
        0x00003b96:    f5a12100    ...!    SUB      r1,r1,#0x80000
        0x00003b9a:    bd70        p.      POP      {r4-r6,pc}
        0x00003b9c:    4619        .F      MOV      r1,r3
        0x00003b9e:    4610        .F      MOV      r0,r2
        0x00003ba0:    2801        .(      CMP      r0,#1
        0x00003ba2:    eb510401    Q...    ADCS     r4,r1,r1
        0x00003ba6:    bf18        ..      IT       NE
        0x00003ba8:    f5d41400    ....    RSBSNE   r4,r4,#0x200000
        0x00003bac:    bf84        ..      ITT      HI
        0x00003bae:    2000        .       MOVHI    r0,#0
        0x00003bb0:    f0014100    ...A    ANDHI    r1,r1,#0x80000000
        0x00003bb4:    bd70        p.      POP      {r4-r6,pc}
    x$fpl$fpinit
    $v0
    _fp_init
        0x00003bb6:    f04f7040    O.@p    MOV      r0,#0x3000000
        0x00003bba:    eee10a10    ....    VMSR     FPSCR,r0
    __fplib_config_fpu_vfp
    __fplib_config_pureend_doubles
        0x00003bbe:    4770        pG      BX       lr
    x$fpl$fretinf
    $v0
    __fpl_fretinf
        0x00003bc0:    21ff        .!      MOVS     r1,#0xff
        0x00003bc2:    ea4150d0    A..P    ORR      r0,r1,r0,LSR #23
        0x00003bc6:    05c0        ..      LSLS     r0,r0,#23
        0x00003bc8:    4770        pG      BX       lr
    x$fpl$usenofp
    __I$use$fp
        0x00003bca:    0000        ..      MOVS     r0,r0
    $d.realdata
    .constdata
        0x00003bcc:    00000001    ....    DCD    1
        0x00003bd0:    0000020c    ....    DCD    524
        0x00003bd4:    00000000    ....    DCD    0
    .constdata
        0x00003bd8:    40008000    ...@    DCD    1073774592
        0x00003bdc:    40008010    ...@    DCD    1073774608
        0x00003be0:    40008020     ..@    DCD    1073774624
        0x00003be4:    40008030    0..@    DCD    1073774640
    Region$$Table$$Base
        0x00003be8:    00003c08    .<..    DCD    15368
        0x00003bec:    10000000    ....    DCD    268435456
        0x00003bf0:    000000b8    ....    DCD    184
        0x00003bf4:    000000d4    ....    DCD    212
        0x00003bf8:    00003cc0    .<..    DCD    15552
        0x00003bfc:    100000b8    ....    DCD    268435640
        0x00003c00:    00006648    Hf..    DCD    26184
        0x00003c04:    000000f0    ....    DCD    240
    Region$$Table$$Limit

** Section #2 'SRAM' (SHT_PROGBITS) [SHF_ALLOC + SHF_WRITE]
    Size   : 184 bytes (alignment 4)
    Address: 0x10000000

    0x10000000:   aa aa aa aa 00 00 00 00 00 00 00 00 00 00 00 00    ................
    0x10000010:   00 00 00 00 00 00 00 00 00 00 00 00 00 00 00 00    ................
    0x10000020:   00 00 00 00 00 00 00 00 00 00 00 00 00 00 00 00    ................
    0x10000030:   f8 3f 00 00 00 00 00 00 00 00 00 00 00 00 00 00    .?..............
    0x10000040:   00 00 00 00 00 00 00 00 00 00 00 00 00 00 00 00    ................
    0x10000050:   00 00 00 00 00 00 00 00 00 00 00 00 00 00 00 00    ................
    0x10000060:   00 00 00 00 00 00 00 00 00 00 00 00 00 00 00 00    ................
    0x10000070:   00 00 00 00 00 00 00 00 00 00 00 00 00 00 00 00    ................
    0x10000080:   00 00 00 00 00 00 00 00 00 00 00 00 00 00 00 00    ................
    0x10000090:   22 00 00 00 00 00 00 00 21 00 00 00 00 00 00 00    ".......!.......
    0x100000a0:   1c 00 00 00 00 00 00 00 1a 00 00 00 00 00 00 00    ................
    0x100000b0:   19 00 00 00 00 00 00 00                            ........


** Section #3 'SRAM' (SHT_NOBITS) [SHF_ALLOC + SHF_WRITE]
    Size   : 26184 bytes (alignment 8)
    Address: 0x100000b8


** Section #4 '.debug_abbrev' (SHT_PROGBITS)
    Size   : 1476 bytes


** Section #5 '.debug_frame' (SHT_PROGBITS)
    Size   : 6024 bytes


** Section #6 '.debug_info' (SHT_PROGBITS)
    Size   : 67016 bytes


** Section #7 '.debug_line' (SHT_PROGBITS)
    Size   : 25064 bytes


** Section #8 '.debug_loc' (SHT_PROGBITS)
    Size   : 9648 bytes


** Section #9 '.debug_macinfo' (SHT_PROGBITS)
    Size   : 37720 bytes


** Section #10 '.debug_pubnames' (SHT_PROGBITS)
    Size   : 3488 bytes


** Section #11 '.symtab' (SHT_SYMTAB)
    Size   : 14736 bytes (alignment 4)
    String table #12 '.strtab'
    Last local symbol no. 674

    Symbol table .symtab (920 symbols, 674 local)

      #  Symbol Name                Value      Bind  Sec  Type  Vis  Size
    ========================================================================

      1  $d                         0x00000000   Lc    1   --   De 
      2  $t                         0x00000070   Lc    1   --   De 
      3  $d                         0x00000094   Lc    1   --   De 
      4  $t                         0x00000098   Lc    1   --   De 
      5  $d                         0x000000cc   Lc    1   --   De 
      6  $t                         0x000000d4   Lc    1   --   De 
      7  $d                         0x00000154   Lc    1   --   De 
      8  $t                         0x00000158   Lc    1   --   De 
      9  $d                         0x0000017c   Lc    1   --   De 
     10  $t                         0x00000180   Lc    1   --   De 
     11  $d                         0x00000190   Lc    1   --   De 
     12  $t                         0x00000194   Lc    1   --   De 
     13  $d                         0x000001ec   Lc    1   --   De 
     14  $t                         0x000001f0   Lc    1   --   De 
     15  $d                         0x0000026a   Lc    1   --   De 
     16  $t                         0x00000278   Lc    1   --   De 
     17  $d                         0x00000470   Lc    1   --   De 
     18  $t                         0x00000474   Lc    1   --   De 
     19  $d                         0x0000047c   Lc    1   --   De 
     20  $t                         0x00000480   Lc    1   --   De 
     21  $d                         0x000004cc   Lc    1   --   De 
     22  $t                         0x000004d4   Lc    1   --   De 
     23  $d                         0x00000636   Lc    1   --   De 
     24  $t                         0x00000664   Lc    1   --   De 
     25  $d                         0x000006a0   Lc    1   --   De 
     26  $t                         0x000006a8   Lc    1   --   De 
     27  $d                         0x000006e4   Lc    1   --   De 
     28  $t                         0x000006f0   Lc    1   --   De 
     29  $d                         0x00000934   Lc    1   --   De 
     30  $t                         0x00000938   Lc    1   --   De 
     31  $d                         0x000009dc   Lc    1   --   De 
     32  $t                         0x000009e0   Lc    1   --   De 
     33  $d                         0x00000a82   Lc    1   --   De 
     34  $t                         0x00000a88   Lc    1   --   De 
     35  $d                         0x00000ade   Lc    1   --   De 
     36  $t                         0x00000ae6   Lc    1   --   De 
     37  $d                         0x00000b0c   Lc    1   --   De 
     38  $t                         0x00000b2c   Lc    1   --   De 
     39  $d                         0x00000b60   Lc    1   --   De 
     40  $t                         0x00000b64   Lc    1   --   De 
     41  $d                         0x00000be2   Lc    1   --   De 
     42  $t                         0x00000be8   Lc    1   --   De 
     43  $d                         0x00000c2e   Lc    1   --   De 
     44  $t                         0x00000c34   Lc    1   --   De 
     45  $d                         0x00000c3c   Lc    1   --   De 
     46  $t                         0x00000c40   Lc    1   --   De 
     47  $d                         0x00000c60   Lc    1   --   De 
     48  $t                         0x00000c64   Lc    1   --   De 
     49  $d                         0x00000cbe   Lc    1   --   De 
     50  $t                         0x00000cfc   Lc    1   --   De 
     51  $d                         0x00000d2a   Lc    1   --   De 
     52  $t                         0x00000d30   Lc    1   --   De 
     53  $d                         0x00000d5a   Lc    1   --   De 
     54  $t                         0x00000d60   Lc    1   --   De 
     55  $d                         0x00000df4   Lc    1   --   De 
     56  $t                         0x00000e18   Lc    1   --   De 
     57  $d                         0x00000e42   Lc    1   --   De 
     58  $t                         0x00000e48   Lc    1   --   De 
     59  $d                         0x00000e6c   Lc    1   --   De 
     60  $t                         0x00000e70   Lc    1   --   De 
     61  $d                         0x00000e80   Lc    1   --   De 
     62  $t                         0x00000e84   Lc    1   --   De 
     63  $d                         0x00000e9c   Lc    1   --   De 
     64  $t                         0x00000ea0   Lc    1   --   De 
     65  $d                         0x00000ebe   Lc    1   --   De 
     66  $t                         0x00000ef0   Lc    1   --   De 
     67  $d                         0x00000f44   Lc    1   --   De 
     68  $t                         0x00000f48   Lc    1   --   De 
     69  $d                         0x00000f7c   Lc    1   --   De 
     70  $t                         0x00000f80   Lc    1   --   De 
     71  $d                         0x00000fac   Lc    1   --   De 
     72  $t                         0x00000fb0   Lc    1   --   De 
     73  $d                         0x00000ff6   Lc    1   --   De 
     74  $t                         0x00000ffc   Lc    1   --   De 
     75  $d                         0x0000102a   Lc    1   --   De 
     76  $t                         0x00001030   Lc    1   --   De 
     77  $d                         0x00001078   Lc    1   --   De 
     78  $t                         0x00001094   Lc    1   --   De 
     79  $d                         0x000010cc   Lc    1   --   De 
     80  $t                         0x000010ec   Lc    1   --   De 
     81  $d                         0x0000110e   Lc    1   --   De 
     82  $t                         0x00001118   Lc    1   --   De 
     83  $d                         0x00001154   Lc    1   --   De 
     84  $t                         0x00001158   Lc    1   --   De 
     85  $d                         0x0000117c   Lc    1   --   De 
     86  $t                         0x00001180   Lc    1   --   De 
     87  $d                         0x000011b4   Lc    1   --   De 
     88  $t                         0x000011b8   Lc    1   --   De 
     89  $d                         0x000011c0   Lc    1   --   De 
     90  $t                         0x000011c4   Lc    1   --   De 
     91  $d                         0x000011d0   Lc    1   --   De 
     92  $t                         0x000011d4   Lc    1   --   De 
     93  $d                         0x00001202   Lc    1   --   De 
     94  $t                         0x00001208   Lc    1   --   De 
     95  $d                         0x00001234   Lc    1   --   De 
     96  $t                         0x00001238   Lc    1   --   De 
     97  $d                         0x00001264   Lc    1   --   De 
     98  $t                         0x0000126c   Lc    1   --   De 
     99  $d                         0x00001276   Lc    1   --   De 
    100  $t                         0x0000127c   Lc    1   --   De 
    101  $d                         0x000012fa   Lc    1   --   De 
    102  $t                         0x00001314   Lc    1   --   De 
    103  $d                         0x0000131c   Lc    1   --   De 
    104  $t                         0x00001320   Lc    1   --   De 
    105  $d                         0x0000134e   Lc    1   --   De 
    106  $t                         0x00001354   Lc    1   --   De 
    107  $d                         0x00001426   Lc    1   --   De 
    108  $t                         0x0000142c   Lc    1   --   De 
    109  $d                         0x0000145e   Lc    1   --   De 
    110  $t                         0x00001468   Lc    1   --   De 
    111  $d                         0x0000146e   Lc    1   --   De 
    112  $t                         0x00001474   Lc    1   --   De 
    113  $d                         0x0000147e   Lc    1   --   De 
    114  $t                         0x00001494   Lc    1   --   De 
    115  $d                         0x00001838   Lc    1   --   De 
    116  $t                         0x00001848   Lc    1   --   De 
    117  $d                         0x00001870   Lc    1   --   De 
    118  $t                         0x00001874   Lc    1   --   De 
    119  $d                         0x0000189c   Lc    1   --   De 
    120  $t                         0x000018a0   Lc    1   --   De 
    121  $d                         0x000018c8   Lc    1   --   De 
    122  $t                         0x000018cc   Lc    1   --   De 
    123  $d                         0x00001900   Lc    1   --   De 
    124  $t                         0x0000190c   Lc    1   --   De 
    125  $d                         0x00001a52   Lc    1   --   De 
    126  $t                         0x00001a64   Lc    1   --   De 
    127  $d                         0x00001a7a   Lc    1   --   De 
    128  $t                         0x00001a80   Lc    1   --   De 
    129  $d                         0x00001bf2   Lc    1   --   De 
    130  $t                         0x00001bf8   Lc    1   --   De 
    131  $d                         0x00001c2c   Lc    1   --   De 
    132  $t                         0x00001c48   Lc    1   --   De 
    133  $d                         0x00001d60   Lc    1   --   De 
    134  $t                         0x00001d78   Lc    1   --   De 
    135  $d                         0x00001e0c   Lc    1   --   De 
    136  $t                         0x00001e28   Lc    1   --   De 
    137  $d                         0x00001e60   Lc    1   --   De 
    138  $t                         0x00001e74   Lc    1   --   De 
    139  $d                         0x00001f40   Lc    1   --   De 
    140  $t                         0x00001f54   Lc    1   --   De 
    141  $d                         0x00001f78   Lc    1   --   De 
    142  $t                         0x00001f7c   Lc    1   --   De 
    143  $d                         0x00001fa6   Lc    1   --   De 
    144  $t                         0x00001fb4   Lc    1   --   De 
    145  $d                         0x0000200e   Lc    1   --   De 
    146  $t                         0x00002020   Lc    1   --   De 
    147  $d                         0x0000212c   Lc    1   --   De 
    148  $t                         0x00002148   Lc    1   --   De 
    149  $d                         0x00002198   Lc    1   --   De 
    150  $t                         0x000021a0   Lc    1   --   De 
    151  $d                         0x00002224   Lc    1   --   De 
    152  $t                         0x00002228   Lc    1   --   De 
    153  $d                         0x00002272   Lc    1   --   De 
    154  $t                         0x0000227c   Lc    1   --   De 
    155  $d                         0x0000230c   Lc    1   --   De 
    156  $t                         0x00002310   Lc    1   --   De 
    157  $d                         0x00002376   Lc    1   --   De 
    158  $t                         0x00002384   Lc    1   --   De 
    159  $d                         0x000023ae   Lc    1   --   De 
    160  $t                         0x000023b8   Lc    1   --   De 
    161  $d                         0x000023e0   Lc    1   --   De 
    162  $t                         0x000023e4   Lc    1   --   De 
    163  $d                         0x00002468   Lc    1   --   De 
    164  $t                         0x00002470   Lc    1   --   De 
    165  $d                         0x0000249a   Lc    1   --   De 
    166  $t                         0x000024a0   Lc    1   --   De 
    167  $d                         0x00002608   Lc    1   --   De 
    168  $t                         0x00002618   Lc    1   --   De 
    169  $d                         0x0000263e   Lc    1   --   De 
    170  $t                         0x00002644   Lc    1   --   De 
    171  $d                         0x00002660   Lc    1   --   De 
    172  $t                         0x00002670   Lc    1   --   De 
    173  $d                         0x000026a0   Lc    1   --   De 
    174  $t                         0x000026cc   Lc    1   --   De 
    175  $d                         0x00002820   Lc    1   --   De 
    176  $t                         0x00002824   Lc    1   --   De 
    177  $d                         0x000028e6   Lc    1   --   De 
    178  $t                         0x000028f0   Lc    1   --   De 
    179  $d                         0x00002916   Lc    1   --   De 
    180  $t                         0x0000291c   Lc    1   --   De 
    181  $d                         0x00002954   Lc    1   --   De 
    182  $t                         0x0000295c   Lc    1   --   De 
    183  $d                         0x000029ba   Lc    1   --   De 
    184  $t                         0x000029cc   Lc    1   --   De 
    185  $d                         0x00002ad4   Lc    1   --   De 
    186  $t                         0x00002adc   Lc    1   --   De 
    187  $d                         0x00002b22   Lc    1   --   De 
    188  $t                         0x00002b30   Lc    1   --   De 
    189  $d                         0x00002b8a   Lc    1   --   De 
    190  $t                         0x00002b94   Lc    1   --   De 
    191  $d                         0x00002b9c   Lc    1   --   De 
    192  $t                         0x00002ba0   Lc    1   --   De 
    193  $d                         0x00002bc2   Lc    1   --   De 
    194  $t                         0x00002bc8   Lc    1   --   De 
    195  $d                         0x00002bf2   Lc    1   --   De 
    196  $t                         0x00002bf8   Lc    1   --   De 
    197  $d                         0x00002c38   Lc    1   --   De 
    198  $t                         0x00002c40   Lc    1   --   De 
    199  $d                         0x00002ca8   Lc    1   --   De 
    200  $t                         0x00002cbc   Lc    1   --   De 
    201  $d                         0x00002d22   Lc    1   --   De 
    202  $t                         0x00002d40   Lc    1   --   De 
    203  $d                         0x00002d66   Lc    1   --   De 
    204  $t                         0x00002d70   Lc    1   --   De 
    205  $d                         0x00002e0e   Lc    1   --   De 
    206  $t                         0x00002e28   Lc    1   --   De 
    207  $d                         0x00002e34   Lc    1   --   De 
    208  $t                         0x00002e38   Lc    1   --   De 
    209  $d                         0x00002ed8   Lc    1   --   De 
    210  $t                         0x00002eec   Lc    1   --   De 
    211  $d                         0x000030ba   Lc    1   --   De 
    212  $t                         0x000030c0   Lc    1   --   De 
    213  $d                         0x00003112   Lc    1   --   De 
    214  $t                         0x0000311c   Lc    1   --   De 
    215  $d                         0x00003206   Lc    1   --   De 
    216  $t                         0x00003224   Lc    1   --   De 
    217  $d                         0x000032ec   Lc    1   --   De 
    218  $t                         0x000032f0   Lc    1   --   De 
    219  $d                         0x0000344c   Lc    1   --   De 
    220  $t                         0x00003450   Lc    1   --   De 
    221  $d                         0x00003642   Lc    1   --   De 
    222  $t                         0x00003648   Lc    1   --   De 
    223  $d                         0x000036a8   Lc    1   --   De 
    224  $t                         0x000036b0   Lc    1   --   De 
    225  $d                         0x00003728   Lc    1   --   De 
    226  $t                         0x00003730   Lc    1   --   De 
    227  $d                         0x00003736   Lc    1   --   De 
    228  $t                         0x0000373c   Lc    1   --   De 
    229  $d                         0x00003828   Lc    1   --   De 
    230  $t                         0x00003854   Lc    1   --   De 
    231  $d                         0x000038c4   Lc    1   --   De 
    232  $t                         0x000038dc   Lc    1   --   De 
    233  $d                         0x000039a8   Lc    1   --   De 
    234  $t                         0x000039cc   Lc    1   --   De 
    235  $d                         0x000039fc   Lc    1   --   De 
    236  $t                         0x00003a10   Lc    1   --   De 
    237  $d                         0x00003a7e   Lc    1   --   De 
    238  $t                         0x00003a84   Lc    1   --   De 
    239  $d                         0x00003ab4   Lc    1   --   De 
    240  $t                         0x00003ab8   Lc    1   --   De 
    241  $d                         0x00003b08   Lc    1   --   De 
    242  $t                         0x00003b0c   Lc    1   --   De 
    243  $d                         0x00003b8a   Lc    1   --   De 
    244  $t                         0x00003b8e   Lc    1   --   De 
    245  $d.realdata                0x00003bcc   Lc    1   --   De 
    246  $d.realdata                0x10000000   Lc    2   --   De 
    247  ..\..\..\..\..\third_party\FreeRTOSv10.1.1\Source\portable\Keil\AMapollo\port.c
                                    0x00000000   Lc  Abs  File  De 
    248  .emb_text                  0x00000138   Lc    1  Sect  De   0xbe
    249  $v0                        0x00000138   Lc    1   --   De 
    250  ../../../../../third_party/FreeRTOSv10.1.1/Source/portable/Keil/AMapollo/port.c
                                    0x00000000   Lc  Abs  File  De 
    251  i.am_systick_isr           0x00001320   Lc    1  Sect  De 
    252  i.prvTaskExitError         0x00002470   Lc    1  Sect  De 
    253  prvTaskExitError           0x00002471   Lc    1  Code  De   0x2a
    254  i.pxPortInitialiseStack    0x00002618   Lc    1  Sect  De 
    255  i.vPortEnterCritical       0x000028ac   Lc    1  Sect  De 
    256  i.vPortExitCritical        0x000028f0   Lc    1  Sect  De 
    257  i.vPortSetupTimerInterrupt 0x0000295c   Lc    1  Sect  De 
    258  i.vPortSuppressTicksAndSleep
                                    0x000029cc   Lc    1  Sect  De 
    259  i.vPortValidateInterruptPriority
                                    0x00002adc   Lc    1  Sect  De 
    260  i.xPortCTimer0TickHandler  0x000030c0   Lc    1  Sect  De 
    261  i.xPortStartScheduler      0x0000311c   Lc    1  Sect  De 
    262  .constdata                 0x00003bcc   Lc    1  Sect  De   0xc
    263  .data                      0x10000000   Lc    2  Sect  De   0x14
    264  uxCriticalNesting          0x10000000   Lc    2  Data  De   0x4
    265  ucMaxSysCallPriority       0x10000004   Lc    2  Data  De   0x1
    266  ulMaxPRIGROUPValue         0x10000008   Lc    2  Data  De   0x4
    267  xMaximumPossibleSuppressedTicks
                                    0x10000010   Lc    2  Data  De   0x4
    268  ../src/freertos_lowpower.c 0x00000000   Lc  Abs  File  De 
    269  i.disable_print_interface  0x0000194e   Lc    1  Sect  De 
    270  i.enable_print_interface   0x00001a64   Lc    1  Sect  De 
    271  i.main                     0x00001bf8   Lc    1  Sect  De 
    272  ../src/led_task.c          0x00000000   Lc  Abs  File  De 
    273  i.LedTask                  0x00000484   Lc    1  Sect  De 
    274  i.LedTaskSetup             0x000004d4   Lc    1  Sect  De 
    275  i.am_gpio_isr              0x00000a98   Lc    1  Sect  De 
    276  i.button0_handler          0x00001848   Lc    1  Sect  De 
    277  i.button1_handler          0x00001874   Lc    1  Sect  De 
    278  i.button2_handler          0x000018a0   Lc    1  Sect  De 
    279  i.button_handler           0x000018cc   Lc    1  Sect  De 
    280  .data                      0x10000014   Lc    2  Sect  De   0x8
    281  ../src/rtos.c              0x00000000   Lc  Abs  File  De 
    282  i.am_ctimer_isr            0x00000712   Lc    1  Sect  De 
    283  i.am_freertos_sleep        0x00000a88   Lc    1  Sect  De 
    284  i.am_freertos_wakeup       0x00000a96   Lc    1  Sect  De 
    285  i.run_tasks                0x00002644   Lc    1  Sect  De 
    286  i.setup_task               0x00002670   Lc    1  Sect  De 
    287  i.vApplicationMallocFailedHook
                                    0x00002824   Lc    1  Sect  De 
    288  i.vApplicationStackOverflowHook
                                    0x00002828   Lc    1  Sect  De 
    289  .data                      0x1000001c   Lc    2  Sect  De   0x4
    290  ../../../../../devices/am_devices_button.c
                                    0x00000000   Lc  Abs  File  De 
    291  ../../../../../devices/am_devices_led.c
                                    0x00000000   Lc  Abs  File  De 
    292  i.am_devices_led_array_init
                                    0x0000072a   Lc    1  Sect  De 
    293  i.am_devices_led_init      0x00000750   Lc    1  Sect  De 
    294  i.am_devices_led_off       0x00000938   Lc    1  Sect  De 
    295  i.am_devices_led_toggle    0x000009e0   Lc    1  Sect  De 
    296  ../../../../../third_party/FreeRTOSv10.1.1/Source/portable/MemMang/heap_2.c
                                    0x00000000   Lc  Abs  File  De 
    297  i.prvHeapInit              0x00001f7c   Lc    1  Sect  De 
    298  prvHeapInit                0x00001f7d   Lc    1  Code  De   0x2a
    299  i.pvPortMalloc             0x00002558   Lc    1  Sect  De 
    300  i.vPortFree                0x0000291c   Lc    1  Sect  De 
    301  .bss                       0x100000b8   Lc    3  Sect  De   0x4000
    302  ucHeap                     0x100000b8   Lc    3  Data  De   0x4000
    303  .data                      0x10000020   Lc    2  Sect  De   0x18
    304  xStart                     0x10000020   Lc    2  Data  De   0x8
    305  xEnd                       0x10000028   Lc    2  Data  De   0x8
    306  xFreeBytesRemaining        0x10000030   Lc    2  Data  De   0x4
    307  xHeapHasBeenInitialised    0x10000034   Lc    2  Data  De   0x4
    308  ../../../../../third_party/FreeRTOSv10.1.1/Source/event_groups.c
                                    0x00000000   Lc  Abs  File  De 
    309  i.prvTestWaitCondition     0x000024a0   Lc    1  Sect  De 
    310  prvTestWaitCondition       0x000024a1   Lc    1  Code  De   0x1e
    311  i.vEventGroupSetBitsCallback
                                    0x0000282e   Lc    1  Sect  De 
    312  i.xEventGroupCreate        0x00002eec   Lc    1  Sect  De 
    313  i.xEventGroupSetBits       0x00002f06   Lc    1  Sect  De 
    314  i.xEventGroupWaitBits      0x00002fb0   Lc    1  Sect  De 
    315  ../../../../../third_party/FreeRTOSv10.1.1/Source/list.c
                                    0x00000000   Lc  Abs  File  De 
    316  i.uxListRemove             0x000027de   Lc    1  Sect  De 
    317  i.vListInitialise          0x0000283e   Lc    1  Sect  De 
    318  i.vListInitialiseItem      0x00002858   Lc    1  Sect  De 
    319  i.vListInsert              0x0000285e   Lc    1  Sect  De 
    320  i.vListInsertEnd           0x00002892   Lc    1  Sect  De 
    321  ../../../../../third_party/FreeRTOSv10.1.1/Source/queue.c
                                    0x00000000   Lc  Abs  File  De 
    322  i.prvCopyDataFromQueue     0x00001e76   Lc    1  Sect  De 
    323  prvCopyDataFromQueue       0x00001e77   Lc    1  Code  De   0x2a
    324  i.prvCopyDataToQueue       0x00001ea0   Lc    1  Sect  De 
    325  prvCopyDataToQueue         0x00001ea1   Lc    1  Code  De   0x6a
    326  i.prvInitialiseNewQueue    0x00002020   Lc    1  Sect  De 
    327  prvInitialiseNewQueue      0x00002021   Lc    1  Code  De   0x26
    328  i.prvIsQueueEmpty          0x000021a0   Lc    1  Sect  De 
    329  prvIsQueueEmpty            0x000021a1   Lc    1  Code  De   0x1a
    330  i.prvIsQueueFull           0x000021ba   Lc    1  Sect  De 
    331  prvIsQueueFull             0x000021bb   Lc    1  Code  De   0x1e
    332  i.prvUnlockQueue           0x000024d8   Lc    1  Sect  De 
    333  prvUnlockQueue             0x000024d9   Lc    1  Code  De   0x7e
    334  i.vQueueWaitForMessageRestricted
                                    0x00002b30   Lc    1  Sect  De 
    335  i.xQueueGenericCreate      0x00003224   Lc    1  Sect  De 
    336  i.xQueueGenericReset       0x0000326c   Lc    1  Sect  De 
    337  i.xQueueGenericSend        0x000032f0   Lc    1  Sect  De 
    338  i.xQueueGenericSendFromISR 0x00003450   Lc    1  Sect  De 
    339  i.xQueueReceive            0x00003514   Lc    1  Sect  De 
    340  ../../../../../third_party/FreeRTOSv10.1.1/Source/tasks.c
                                    0x00000000   Lc  Abs  File  De 
    341  i.eTaskConfirmSleepModeStatus
                                    0x00001a28   Lc    1  Sect  De 
    342  i.prvAddCurrentTaskToDelayedList
                                    0x00001cfc   Lc    1  Sect  De 
    343  prvAddCurrentTaskToDelayedList
                                    0x00001cfd   Lc    1  Code  De   0x64
    344  i.prvAddNewTaskToReadyList 0x00001d78   Lc    1  Sect  De 
    345  prvAddNewTaskToReadyList   0x00001d79   Lc    1  Code  De   0x94
    346  i.prvCheckTasksWaitingTermination
                                    0x00001e74   Lc    1  Sect  De 
    347  prvCheckTasksWaitingTermination
                                    0x00001e75   Lc    1  Code  De   0x2
    348  i.prvGetExpectedIdleTime   0x00001f0c   Lc    1  Sect  De 
    349  prvGetExpectedIdleTime     0x00001f0d   Lc    1  Code  De   0x34
    350  i.prvIdleTask              0x00001fb4   Lc    1  Sect  De 
    351  prvIdleTask                0x00001fb5   Lc    1  Code  De   0x5a
    352  i.prvInitialiseNewTask     0x00002046   Lc    1  Sect  De 
    353  prvInitialiseNewTask       0x00002047   Lc    1  Code  De   0xa6
    354  i.prvInitialiseTaskLists   0x000020ec   Lc    1  Sect  De 
    355  prvInitialiseTaskLists     0x000020ed   Lc    1  Code  De   0x40
    356  i.prvResetNextTaskUnblockTime
                                    0x00002384   Lc    1  Sect  De 
    357  prvResetNextTaskUnblockTime
                                    0x00002385   Lc    1  Code  De   0x2a
    358  i.uxTaskResetEventItemValue
                                    0x00002808   Lc    1  Sect  De 
    359  i.vTaskInternalSetTimeOutState
                                    0x00002b7c   Lc    1  Sect  De 
    360  i.vTaskMissedYield         0x00002b94   Lc    1  Sect  De 
    361  i.vTaskPlaceOnEventList    0x00002ba0   Lc    1  Sect  De 
    362  i.vTaskPlaceOnEventListRestricted
                                    0x00002bc8   Lc    1  Sect  De 
    363  i.vTaskPlaceOnUnorderedEventList
                                    0x00002bf8   Lc    1  Sect  De 
    364  i.vTaskRemoveFromUnorderedEventList
                                    0x00002c40   Lc    1  Sect  De 
    365  i.vTaskStartScheduler      0x00002cbc   Lc    1  Sect  De 
    366  i.vTaskStepTick            0x00002d40   Lc    1  Sect  De 
    367  i.vTaskSuspend             0x00002d70   Lc    1  Sect  De 
    368  i.vTaskSuspendAll          0x00002e28   Lc    1  Sect  De 
    369  i.vTaskSwitchContext       0x00002e38   Lc    1  Sect  De 
    370  i.xTaskCheckForTimeOut     0x00003648   Lc    1  Sect  De 
    371  i.xTaskCreate              0x000036b0   Lc    1  Sect  De 
    372  i.xTaskGetSchedulerState   0x00003710   Lc    1  Sect  De 
    373  i.xTaskGetTickCount        0x00003730   Lc    1  Sect  De 
    374  i.xTaskIncrementTick       0x0000373c   Lc    1  Sect  De 
    375  i.xTaskRemoveFromEventList 0x00003854   Lc    1  Sect  De 
    376  i.xTaskResumeAll           0x000038dc   Lc    1  Sect  De 
    377  .bss                       0x100040b8   Lc    3  Sect  De   0xa0
    378  pxReadyTasksLists          0x100040b8   Lc    3  Data  De   0x50
    379  xDelayedTaskList1          0x10004108   Lc    3  Data  De   0x14
    380  xDelayedTaskList2          0x1000411c   Lc    3  Data  De   0x14
    381  xPendingReadyList          0x10004130   Lc    3  Data  De   0x14
    382  xSuspendedTaskList         0x10004144   Lc    3  Data  De   0x14
    383  .data                      0x10000038   Lc    2  Sect  De   0x38
    384  pxDelayedTaskList          0x1000003c   Lc    2  Data  De   0x4
    385  pxOverflowDelayedTaskList  0x10000040   Lc    2  Data  De   0x4
    386  uxCurrentNumberOfTasks     0x10000044   Lc    2  Data  De   0x4
    387  xTickCount                 0x10000048   Lc    2  Data  De   0x4
    388  uxTopReadyPriority         0x1000004c   Lc    2  Data  De   0x4
    389  xSchedulerRunning          0x10000050   Lc    2  Data  De   0x4
    390  uxPendedTicks              0x10000054   Lc    2  Data  De   0x4
    391  xYieldPending              0x10000058   Lc    2  Data  De   0x4
    392  xNumOfOverflows            0x1000005c   Lc    2  Data  De   0x4
    393  uxTaskNumber               0x10000060   Lc    2  Data  De   0x4
    394  xNextTaskUnblockTime       0x10000064   Lc    2  Data  De   0x4
    395  xIdleTaskHandle            0x10000068   Lc    2  Data  De   0x4
    396  uxSchedulerSuspended       0x1000006c   Lc    2  Data  De   0x4
    397  ../../../../../third_party/FreeRTOSv10.1.1/Source/timers.c
                                    0x00000000   Lc  Abs  File  De 
    398  i.prvCheckForValidListAndQueue
                                    0x00001e28   Lc    1  Sect  De 
    399  prvCheckForValidListAndQueue
                                    0x00001e29   Lc    1  Code  De   0x38
    400  i.prvGetNextExpireTime     0x00001f54   Lc    1  Sect  De 
    401  prvGetNextExpireTime       0x00001f55   Lc    1  Code  De   0x24
    402  i.prvInsertTimerInActiveList
                                    0x00002148   Lc    1  Sect  De 
    403  prvInsertTimerInActiveList 0x00002149   Lc    1  Code  De   0x50
    404  i.prvProcessExpiredTimer   0x000021d8   Lc    1  Sect  De 
    405  prvProcessExpiredTimer     0x000021d9   Lc    1  Code  De   0x4c
    406  i.prvProcessReceivedCommands
                                    0x00002228   Lc    1  Sect  De 
    407  prvProcessReceivedCommands 0x00002229   Lc    1  Code  De   0xe4
    408  i.prvProcessTimerOrBlockTask
                                    0x00002310   Lc    1  Sect  De 
    409  prvProcessTimerOrBlockTask 0x00002311   Lc    1  Code  De   0x66
    410  i.prvSampleTimeNow         0x000023b8   Lc    1  Sect  De 
    411  prvSampleTimeNow           0x000023b9   Lc    1  Code  De   0x28
    412  i.prvSwitchTimerLists      0x000023e4   Lc    1  Sect  De 
    413  prvSwitchTimerLists        0x000023e5   Lc    1  Code  De   0x84
    414  i.prvTimerTask             0x000024be   Lc    1  Sect  De 
    415  prvTimerTask               0x000024bf   Lc    1  Code  De   0x1a
    416  i.xTimerCreateTimerTask    0x000039cc   Lc    1  Sect  De 
    417  i.xTimerGenericCommand     0x00003a10   Lc    1  Sect  De 
    418  i.xTimerPendFunctionCallFromISR
                                    0x00003a84   Lc    1  Sect  De 
    419  .bss                       0x10004158   Lc    3  Sect  De   0x28
    420  xActiveTimerList1          0x10004158   Lc    3  Data  De   0x14
    421  xActiveTimerList2          0x1000416c   Lc    3  Data  De   0x14
    422  .data                      0x10000070   Lc    2  Sect  De   0x14
    423  pxCurrentTimerList         0x10000070   Lc    2  Data  De   0x4
    424  pxOverflowTimerList        0x10000074   Lc    2  Data  De   0x4
    425  xTimerQueue                0x10000078   Lc    2  Data  De   0x4
    426  xTimerTaskHandle           0x1000007c   Lc    2  Data  De   0x4
    427  xLastTime                  0x10000080   Lc    2  Data  De   0x4
    428  ../../../../../utils/am_util_debug.c
                                    0x00000000   Lc  Abs  File  De 
    429  ../../../../../utils/am_util_delay.c
                                    0x00000000   Lc  Abs  File  De 
    430  i.am_util_delay_ms         0x00001354   Lc    1  Sect  De 
    431  ..\..\..\..\..\utils\am_util_faultisr.c
                                    0x00000000   Lc  Abs  File  De 
    432  .emb_text                  0x000001f8   Lc    1  Sect  De   0x22
    433  $v0                        0x000001f8   Lc    1   --   De 
    434  ../../../../../utils/am_util_faultisr.c
                                    0x00000000   Lc  Abs  File  De 
    435  i.am_util_faultisr_collect_data
                                    0x00001374   Lc    1  Sect  De 
    436  ../../../../../utils/am_util_stdio.c
                                    0x00000000   Lc  Abs  File  De 
    437  i.am_util_stdio_printf     0x0000142c   Lc    1  Sect  De 
    438  i.am_util_stdio_printf_init
                                    0x00001468   Lc    1  Sect  De 
    439  i.am_util_stdio_terminal_clear
                                    0x00001474   Lc    1  Sect  De 
    440  i.am_util_stdio_vsprintf   0x00001494   Lc    1  Sect  De 
    441  i.decstr_to_int            0x0000190c   Lc    1  Sect  De 
    442  decstr_to_int              0x0000190d   Lc    1  Code  De   0x42
    443  i.divu64_10                0x0000195a   Lc    1  Sect  De 
    444  divu64_10                  0x0000195b   Lc    1  Code  De   0xcc
    445  i.ftoa                     0x00001a80   Lc    1  Sect  De 
    446  ftoa                       0x00001a81   Lc    1  Code  De   0x172
    447  i.ndigits_in_hex           0x00001c48   Lc    1  Sect  De 
    448  ndigits_in_hex             0x00001c49   Lc    1  Code  De   0x34
    449  i.ndigits_in_i64           0x00001c7c   Lc    1  Sect  De 
    450  ndigits_in_i64             0x00001c7d   Lc    1  Code  De   0x24
    451  i.ndigits_in_u64           0x00001ca0   Lc    1  Sect  De 
    452  ndigits_in_u64             0x00001ca1   Lc    1  Code  De   0x3a
    453  i.padbuffer                0x00001cda   Lc    1  Sect  De 
    454  padbuffer                  0x00001cdb   Lc    1  Code  De   0x22
    455  i.simple_strlen            0x000026cc   Lc    1  Sect  De 
    456  simple_strlen              0x000026cd   Lc    1  Code  De   0x18
    457  i.uint64_to_hexstr         0x000026e4   Lc    1  Sect  De 
    458  uint64_to_hexstr           0x000026e5   Lc    1  Code  De   0x8a
    459  i.uint64_to_str            0x0000276e   Lc    1  Sect  De 
    460  uint64_to_str              0x0000276f   Lc    1  Code  De   0x70
    461  .bss                       0x10004180   Lc    3  Sect  De   0x100
    462  g_prfbuf                   0x10004180   Lc    3  Data  De   0x100
    463  .data                      0x10000084   Lc    2  Sect  De   0x5
    464  g_bTxtXlate                0x10000088   Lc    2  Data  De   0x1
    465  ../keil/startup_keil.s     0x00000000   Lc  Abs  File  De 
    466  STACK                      0x10004400   Lc    3  Sect  De   0x2300
    467  StackMem                   0x10004400   Lc    3  Data  De 
    468  HEAP                       0x10004400   Lc    3  Sect  De 
    469  HeapMem                    0x10004400   Lc    3  Data  De 
    470  RESET                      0x00000000   Lc    1  Sect  De   0x98
    471  $v0                        0x00000070   Lc    1   --   De 
    472  .text                      0x00000260   Lc    1  Sect  De   0x18
    473  $v0                        0x00000260   Lc    1   --   De 
    474  ../am_hal_global.c         0x00000000   Lc  Abs  File  De 
    475  .data                      0x1000008c   Lc    2  Sect  De   0x4
    476  ../am_hal_clkgen.c         0x00000000   Lc  Abs  File  De 
    477  i.am_hal_clkgen_osc_stop   0x00000ab6   Lc    1  Sect  De 
    478  i.am_hal_clkgen_sysclk_get 0x00000acc   Lc    1  Sect  De 
    479  i.am_hal_clkgen_sysclk_select
                                    0x00000b2c   Lc    1  Sect  De 
    480  ..\am_hal_ctimer.c         0x00000000   Lc  Abs  File  De 
    481  .emb_text                  0x0000021c   Lc    1  Sect  De   0x24
    482  $v0                        0x0000021c   Lc    1   --   De 
    483  ../am_hal_ctimer.c         0x00000000   Lc  Abs  File  De 
    484  i.am_hal_ctimer_clear      0x00000b3c   Lc    1  Sect  De 
    485  i.am_hal_ctimer_compare_set
                                    0x00000b64   Lc    1  Sect  De 
    486  i.am_hal_ctimer_config     0x00000be8   Lc    1  Sect  De 
    487  i.am_hal_ctimer_int_clear  0x00000c34   Lc    1  Sect  De 
    488  i.am_hal_ctimer_int_enable 0x00000c40   Lc    1  Sect  De 
    489  i.am_hal_ctimer_int_register
                                    0x00000c64   Lc    1  Sect  De 
    490  i.am_hal_ctimer_int_service
                                    0x00000cfc   Lc    1  Sect  De 
    491  i.am_hal_ctimer_int_status_get
                                    0x00000d30   Lc    1  Sect  De 
    492  i.am_hal_ctimer_read       0x00000d60   Lc    1  Sect  De 
    493  i.am_hal_ctimer_start      0x00000e18   Lc    1  Sect  De 
    494  i.am_hal_ctimer_stop       0x00000e48   Lc    1  Sect  De 
    495  .bss                       0x10004280   Lc    3  Sect  De   0x20
    496  .constdata                 0x00003bd8   Lc    1  Sect  De   0x10
    497  ..\am_hal_flash.c          0x00000000   Lc  Abs  File  De 
    498  .emb_text                  0x00000240   Lc    1  Sect  De   0x6
    499  $v0                        0x00000240   Lc    1   --   De 
    500  ../am_hal_flash.c          0x00000000   Lc  Abs  File  De 
    501  ../am_hal_gpio.c           0x00000000   Lc  Abs  File  De 
    502  i.am_hal_gpio_int_clear    0x00000e74   Lc    1  Sect  De 
    503  i.am_hal_gpio_int_enable   0x00000e84   Lc    1  Sect  De 
    504  i.am_hal_gpio_int_register 0x00000ea0   Lc    1  Sect  De 
    505  i.am_hal_gpio_int_service  0x00000ef0   Lc    1  Sect  De 
    506  i.am_hal_gpio_int_status_get
                                    0x00000f48   Lc    1  Sect  De 
    507  i.am_hal_gpio_out_enable_bit_get
                                    0x00000f80   Lc    1  Sect  De 
    508  .bss                       0x100042a0   Lc    3  Sect  De   0x100
    509  ..\am_hal_interrupt.c      0x00000000   Lc  Abs  File  De 
    510  .emb_text                  0x00000248   Lc    1  Sect  De   0x16
    511  $v0                        0x00000248   Lc    1   --   De 
    512  ../am_hal_interrupt.c      0x00000000   Lc  Abs  File  De 
    513  i.am_hal_interrupt_enable  0x00000fb0   Lc    1  Sect  De 
    514  i.am_hal_interrupt_priority_set
                                    0x00000ffc   Lc    1  Sect  De 
    515  ../am_hal_itm.c            0x00000000   Lc  Abs  File  De 
    516  i.am_hal_itm_disable       0x00001030   Lc    1  Sect  De 
    517  i.am_hal_itm_enable        0x00001094   Lc    1  Sect  De 
    518  i.am_hal_itm_not_busy      0x000010ec   Lc    1  Sect  De 
    519  i.am_hal_itm_print         0x00001118   Lc    1  Sect  De 
    520  ../am_hal_mcuctrl.c        0x00000000   Lc  Abs  File  De 
    521  i.am_hal_mcuctrl_bandgap_disable
                                    0x00001148   Lc    1  Sect  De 
    522  i.am_hal_mcuctrl_bucks_enable
                                    0x00001158   Lc    1  Sect  De 
    523  i.am_hal_mcuctrl_fault_status
                                    0x00001180   Lc    1  Sect  De 
    524  i.am_hal_mcuctrl_flash_power_set
                                    0x000011b8   Lc    1  Sect  De 
    525  i.am_hal_mcuctrl_sram_power_set
                                    0x000011c4   Lc    1  Sect  De 
    526  ../am_hal_sysctrl.c        0x00000000   Lc  Abs  File  De 
    527  i.am_hal_sysctrl_fpu_enable
                                    0x000011f8   Lc    1  Sect  De 
    528  i.am_hal_sysctrl_fpu_stacking_enable
                                    0x00001208   Lc    1  Sect  De 
    529  i.am_hal_sysctrl_sleep     0x00001238   Lc    1  Sect  De 
    530  ../am_bsp.c                0x00000000   Lc  Abs  File  De 
    531  i.am_bsp_debug_printf_disable
                                    0x00000664   Lc    1  Sect  De 
    532  i.am_bsp_debug_printf_enable
                                    0x000006a8   Lc    1  Sect  De 
    533  i.am_bsp_low_power_init    0x000006f0   Lc    1  Sect  De 
    534  .data                      0x10000090   Lc    2  Sect  De   0x28
    535  ../am_hal_debug.c          0x00000000   Lc  Abs  File  De 
    536  i.am_hal_debug_error       0x00000e70   Lc    1  Sect  De 
    537  ../am_hal_iom.c            0x00000000   Lc  Abs  File  De 
    538  ../am_hal_rtc.c            0x00000000   Lc  Abs  File  De 
    539  i.am_hal_rtc_osc_disable   0x000011d4   Lc    1  Sect  De 
    540  i.am_hal_rtc_osc_select    0x000011e2   Lc    1  Sect  De 
    541  ../am_hal_tpiu.c           0x00000000   Lc  Abs  File  De 
    542  i.am_hal_tpiu_disable      0x0000126c   Lc    1  Sect  De 
    543  i.am_hal_tpiu_enable       0x0000127c   Lc    1  Sect  De 
    544  ../am_hal_uart.c           0x00000000   Lc  Abs  File  De 
    545  ../am_hal_vcomp.c          0x00000000   Lc  Abs  File  De 
    546  i.am_hal_vcomp_disable     0x00001314   Lc    1  Sect  De 
    547  ../am_hal_i2c_bit_bang.c   0x00000000   Lc  Abs  File  De 
    548  ../am_hal_queue.c          0x00000000   Lc  Abs  File  De 
    549  dc.s                       0x00000000   Lc  Abs  File  De 
    550  ../clib/longlong.s         0x00000000   Lc  Abs  File  De 
    551  ../clib/memcpset.s         0x00000000   Lc  Abs  File  De 
    552  .text                      0x00000278   Lc    1  Sect  De   0x8a
    553  ../clib/memcpset.s         0x00000000   Lc  Abs  File  De 
    554  .text                      0x00000302   Lc    1  Sect  De   0x10
    555  ../clib/memcpset.s         0x00000000   Lc  Abs  File  De 
    556  .text                      0x00000312   Lc    1  Sect  De   0x4e
    557  ../clib/heapaux.c          0x00000000   Lc  Abs  File  De 
    558  .text                      0x00000360   Lc    1  Sect  De 
    559  ../clib/angel/startup.s    0x00000000   Lc  Abs  File  De 
    560  !!!main                    0x00000098   Lc    1  Sect  De   0x8
    561  ../fplib/d2f.s             0x00000000   Lc  Abs  File  De 
    562  x$fpl$d2f                  0x00003ab8   Lc    1  Sect  De   0x62
    563  $v0                        0x00003ab8   Lc    1   --   De 
    564  ../clib/angel/kernel.s     0x00000000   Lc  Abs  File  De 
    565  .ARM.Collect$$rtentry$$00000000
                                    0x00000118   Lc    1  Sect  De 
    566  ../clib/memcpset.s         0x00000000   Lc  Abs  File  De 
    567  .text                      0x00000366   Lc    1  Sect  De   0x64
    568  ../clib/memcpset.s         0x00000000   Lc  Abs  File  De 
    569  .text                      0x000003ca   Lc    1  Sect  De   0x44
    570  ../fplib/dnaninf.s         0x00000000   Lc  Abs  File  De 
    571  x$fpl$dnaninf              0x00003b1a   Lc    1  Sect  De   0x9c
    572  $v0                        0x00003b1a   Lc    1   --   De 
    573  ../fplib/fretinf.s         0x00000000   Lc  Abs  File  De 
    574  x$fpl$fretinf              0x00003bc0   Lc    1  Sect  De   0xa
    575  $v0                        0x00003bc0   Lc    1   --   De 
    576  ../fplib/usenofp.s         0x00000000   Lc  Abs  File  De 
    577  x$fpl$usenofp              0x00003bca   Lc    1  Sect  De 
    578  ../clib/angel/kernel.s     0x00000000   Lc  Abs  File  De 
    579  .ARM.Collect$$rtentry$$00000002
                                    0x00000118   Lc    1  Sect  De 
    580  .ARM.Collect$$rtentry$$00000009
                                    0x0000011e   Lc    1  Sect  De 
    581  .ARM.Collect$$rtentry$$0000000A
                                    0x0000011e   Lc    1  Sect  De   0x4
    582  .ARM.Collect$$rtentry$$0000000C
                                    0x00000122   Lc    1  Sect  De 
    583  .ARM.Collect$$rtentry$$0000000D
                                    0x00000122   Lc    1  Sect  De   0x8
    584  ../clib/angel/kernel.s     0x00000000   Lc  Abs  File  De 
    585  .ARM.Collect$$rtentry$$00000004
                                    0x00000118   Lc    1  Sect  De   0x6
    586  ../clib/angel/sys.s        0x00000000   Lc  Abs  File  De 
    587  .text                      0x0000040e   Lc    1  Sect  De   0x4a
    588  ../clib/stdlib.c           0x00000000   Lc  Abs  File  De 
    589  .text                      0x00000458   Lc    1  Sect  De 
    590  ../clib/angel/boardlib.s   0x00000000   Lc  Abs  File  De 
    591  ../clib/angel/boardlib.s   0x00000000   Lc  Abs  File  De 
    592  ../clib/angel/boardlib.s   0x00000000   Lc  Abs  File  De 
    593  ../clib/libinit.s          0x00000000   Lc  Abs  File  De 
    594  .ARM.Collect$$libinit$$00000000
                                    0x0000010c   Lc    1  Sect  De   0x2
    595  ../clib/angel/sys.s        0x00000000   Lc  Abs  File  De 
    596  .text                      0x0000046c   Lc    1  Sect  De   0x8
    597  .bss                       0x100043a0   Lc    3  Sect  De   0x60
    598  ../clib/angel/kernel.s     0x00000000   Lc  Abs  File  De 
    599  .ARM.Collect$$rtexit$$00000000
                                    0x0000012a   Lc    1  Sect  De   0x2
    600  ../clib/libinit.s          0x00000000   Lc  Abs  File  De 
    601  .ARM.Collect$$libinit$$00000001
                                    0x0000010e   Lc    1  Sect  De   0x4
    602  .ARM.Collect$$libinit$$00000004
                                    0x00000112   Lc    1  Sect  De 
    603  .ARM.Collect$$libinit$$0000000A
                                    0x00000112   Lc    1  Sect  De 
    604  .ARM.Collect$$libinit$$0000000C
                                    0x00000112   Lc    1  Sect  De 
    605  .ARM.Collect$$libinit$$0000000E
                                    0x00000112   Lc    1  Sect  De 
    606  .ARM.Collect$$libinit$$00000011
                                    0x00000112   Lc    1  Sect  De 
    607  .ARM.Collect$$libinit$$00000013
                                    0x00000112   Lc    1  Sect  De 
    608  .ARM.Collect$$libinit$$00000015
                                    0x00000112   Lc    1  Sect  De 
    609  .ARM.Collect$$libinit$$00000017
                                    0x00000112   Lc    1  Sect  De 
    610  .ARM.Collect$$libinit$$00000019
                                    0x00000112   Lc    1  Sect  De 
    611  .ARM.Collect$$libinit$$0000001B
                                    0x00000112   Lc    1  Sect  De 
    612  .ARM.Collect$$libinit$$0000001D
                                    0x00000112   Lc    1  Sect  De 
    613  .ARM.Collect$$libinit$$0000001F
                                    0x00000112   Lc    1  Sect  De 
    614  .ARM.Collect$$libinit$$00000021
                                    0x00000112   Lc    1  Sect  De 
    615  .ARM.Collect$$libinit$$00000023
                                    0x00000112   Lc    1  Sect  De 
    616  .ARM.Collect$$libinit$$00000025
                                    0x00000112   Lc    1  Sect  De 
    617  .ARM.Collect$$libinit$$0000002C
                                    0x00000112   Lc    1  Sect  De 
    618  .ARM.Collect$$libinit$$0000002E
                                    0x00000112   Lc    1  Sect  De 
    619  .ARM.Collect$$libinit$$00000030
                                    0x00000112   Lc    1  Sect  De 
    620  .ARM.Collect$$libinit$$00000032
                                    0x00000112   Lc    1  Sect  De 
    621  .ARM.Collect$$libinit$$00000033
                                    0x00000112   Lc    1  Sect  De   0x2
    622  ../clib/angel/kernel.s     0x00000000   Lc  Abs  File  De 
    623  .ARM.Collect$$rtexit$$00000002
                                    0x0000012c   Lc    1  Sect  De 
    624  .ARM.Collect$$rtexit$$00000003
                                    0x0000012c   Lc    1  Sect  De   0x4
    625  .ARM.Collect$$rtexit$$00000004
                                    0x00000130   Lc    1  Sect  De   0x6
    626  ../clib/armsys.c           0x00000000   Lc  Abs  File  De 
    627  ../clib/armsys.c           0x00000000   Lc  Abs  File  De 
    628  ../fplib/fpinit.s          0x00000000   Lc  Abs  File  De 
    629  x$fpl$fpinit               0x00003bb6   Lc    1  Sect  De   0xa
    630  $v0                        0x00003bb6   Lc    1   --   De 
    631  ../clib/angel/sysapp.c     0x00000000   Lc  Abs  File  De 
    632  .text                      0x00000474   Lc    1  Sect  De 
    633  ../clib/angel/boardlib.s   0x00000000   Lc  Abs  File  De 
    634  ../clib/armsys.c           0x00000000   Lc  Abs  File  De 
    635  ../clib/armsys.c           0x00000000   Lc  Abs  File  De 
    636  ../clib/libinit.s          0x00000000   Lc  Abs  File  De 
    637  .ARM.Collect$$libshutdown$$00000000
                                    0x00000114   Lc    1  Sect  De   0x2
    638  ../clib/angel/sysapp.c     0x00000000   Lc  Abs  File  De 
    639  ../clib/angel/sys.s        0x00000000   Lc  Abs  File  De 
    640  .text                      0x00000480   Lc    1  Sect  De   0x2
    641  ../clib/angel/sys.s        0x00000000   Lc  Abs  File  De 
    642  .text                      0x00000482   Lc    1  Sect  De 
    643  ../clib/heapalloc.c        0x00000000   Lc  Abs  File  De 
    644  ../clib/signal.c           0x00000000   Lc  Abs  File  De 
    645  ../clib/signal.c           0x00000000   Lc  Abs  File  De 
    646  ../clib/libinit.s          0x00000000   Lc  Abs  File  De 
    647  .ARM.Collect$$libshutdown$$00000002
                                    0x00000116   Lc    1  Sect  De 
    648  .ARM.Collect$$libshutdown$$00000004
                                    0x00000116   Lc    1  Sect  De 
    649  .ARM.Collect$$libshutdown$$00000007
                                    0x00000116   Lc    1  Sect  De 
    650  .ARM.Collect$$libshutdown$$0000000A
                                    0x00000116   Lc    1  Sect  De 
    651  .ARM.Collect$$libshutdown$$0000000C
                                    0x00000116   Lc    1  Sect  De 
    652  .ARM.Collect$$libshutdown$$0000000F
                                    0x00000116   Lc    1  Sect  De 
    653  .ARM.Collect$$libshutdown$$00000010
                                    0x00000116   Lc    1  Sect  De   0x2
    654  ../clib/angel/rt.s         0x00000000   Lc  Abs  File  De 
    655  ../clib/signal.c           0x00000000   Lc  Abs  File  De 
    656  ../clib/signal.c           0x00000000   Lc  Abs  File  De 
    657  ../clib/signal.c           0x00000000   Lc  Abs  File  De 
    658  ../clib/signal.c           0x00000000   Lc  Abs  File  De 
    659  ../clib/angel/sysapp.c     0x00000000   Lc  Abs  File  De 
    660  ../clib/signal.s           0x00000000   Lc  Abs  File  De 
    661  ../clib/signal.c           0x00000000   Lc  Abs  File  De 
    662  ../clib/signal.c           0x00000000   Lc  Abs  File  De 
    663  ../clib/signal.c           0x00000000   Lc  Abs  File  De 
    664  ../clib/signal.c           0x00000000   Lc  Abs  File  De 
    665  ../clib/signal.c           0x00000000   Lc  Abs  File  De 
    666  ../clib/signal.c           0x00000000   Lc  Abs  File  De 
    667  ../clib/signal.c           0x00000000   Lc  Abs  File  De 
    668  ../clib/signal.c           0x00000000   Lc  Abs  File  De 
    669  ../clib/angel/scatter.s    0x00000000   Lc  Abs  File  De 
    670  !!!scatter                 0x000000a0   Lc    1  Sect  De   0x34
    671  ../clib/angel/handlers.s   0x00000000   Lc  Abs  File  De 
    672  !!handler_copy             0x000000d4   Lc    1  Sect  De   0x1a
    673  ../clib/angel/handlers.s   0x00000000   Lc  Abs  File  De 
    674  !!handler_zi               0x000000f0   Lc    1  Sect  De   0x1c
    675  BuildAttributes$$THM_ISAv4$E$P$D$K$B$S$7EM$VFPi3$EXTD16$VFPS$VFMA$PE$A:L22UL41UL21$X:L11$S22US41US21$IEEE1$IW$USESV6$~STKCKD$USESV7$~SHL$OTIME$ROPI$EBA8$UX$STANDARDLIB$REQ8$EABIv2
                                    0x00000000   Gb  Abs   --   Hi 
    676  __ARM_use_no_argv          0x00000000   Gb  Abs   --   Hi 
    677  __Vectors                  0x00000000   Gb    1  Data  Hi 
    678  Reset_Handler              0x00000071   Wk    1  Code  Hi   0x1c
    679  am_nmi_isr                 0x0000008d   Wk    1  Code  Hi   0x2
    680  am_memmanage_isr           0x00000091   Wk    1  Code  Hi   0x2
    681  am_adc_isr                 0x00000093   Wk    1  Code  Hi 
    682  am_brownout_isr            0x00000093   Wk    1  Code  Hi 
    683  am_clkgen_isr              0x00000093   Wk    1  Code  Hi 
    684  am_debugmon_isr            0x00000093   Wk    1  Code  Hi 
    685  am_iomaster0_isr           0x00000093   Wk    1  Code  Hi 
    686  am_iomaster1_isr           0x00000093   Wk    1  Code  Hi 
    687  am_ioslave_acc_isr         0x00000093   Wk    1  Code  Hi 
    688  am_ioslave_ios_isr         0x00000093   Wk    1  Code  Hi 
    689  am_uart_isr                0x00000093   Wk    1  Code  Hi 
    690  am_vcomp_isr               0x00000093   Wk    1  Code  Hi 
    691  am_watchdog_isr            0x00000093   Wk    1  Code  Hi 
    692  __main                     0x00000099   Gb    1  Code  Hi   0x8
    693  __scatterload              0x000000a1   Gb    1  Code  Hi 
    694  __scatterload_rt2          0x000000a1   Gb    1  Code  Hi   0x2c
    695  __scatterload_rt2_thumb_only
                                    0x000000a1   Gb    1  Code  Hi 
    696  __scatterload_null         0x000000af   Gb    1  Code  Hi 
    697  __scatterload_copy         0x000000d5   Gb    1  Code  Hi   0x1a
    698  __scatterload_zeroinit     0x000000f1   Gb    1  Code  Hi   0x1c
    699  __rt_lib_init              0x0000010d   Gb    1  Code  De 
    700  __rt_lib_init_fp_1         0x0000010f   Gb    1  Code  Hi 
    701  __rt_lib_init_alloca_1     0x00000113   Gb    1  Code  Hi 
    702  __rt_lib_init_argv_1       0x00000113   Gb    1  Code  Hi 
    703  __rt_lib_init_atexit_1     0x00000113   Gb    1  Code  Hi 
    704  __rt_lib_init_clock_1      0x00000113   Gb    1  Code  Hi 
    705  __rt_lib_init_cpp_1        0x00000113   Gb    1  Code  Hi 
    706  __rt_lib_init_exceptions_1 0x00000113   Gb    1  Code  Hi 
    707  __rt_lib_init_fp_trap_1    0x00000113   Gb    1  Code  Hi 
    708  __rt_lib_init_getenv_1     0x00000113   Gb    1  Code  Hi 
    709  __rt_lib_init_heap_1       0x00000113   Gb    1  Code  Hi 
    710  __rt_lib_init_lc_collate_1 0x00000113   Gb    1  Code  Hi 
    711  __rt_lib_init_lc_ctype_1   0x00000113   Gb    1  Code  Hi 
    712  __rt_lib_init_lc_monetary_1
                                    0x00000113   Gb    1  Code  Hi 
    713  __rt_lib_init_lc_numeric_1 0x00000113   Gb    1  Code  Hi 
    714  __rt_lib_init_lc_time_1    0x00000113   Gb    1  Code  Hi 
    715  __rt_lib_init_preinit_1    0x00000113   Gb    1  Code  Hi 
    716  __rt_lib_init_rand_1       0x00000113   Gb    1  Code  Hi 
    717  __rt_lib_init_return       0x00000113   Gb    1  Code  Hi 
    718  __rt_lib_init_signal_1     0x00000113   Gb    1  Code  Hi 
    719  __rt_lib_init_stdio_1      0x00000113   Gb    1  Code  Hi 
    720  __rt_lib_init_user_alloc_1 0x00000113   Gb    1  Code  Hi 
    721  __rt_lib_shutdown          0x00000115   Gb    1  Code  De 
    722  __rt_lib_shutdown_cpp_1    0x00000117   Gb    1  Code  Hi 
    723  __rt_lib_shutdown_fp_trap_1
                                    0x00000117   Gb    1  Code  Hi 
    724  __rt_lib_shutdown_heap_1   0x00000117   Gb    1  Code  Hi 
    725  __rt_lib_shutdown_return   0x00000117   Gb    1  Code  Hi 
    726  __rt_lib_shutdown_signal_1 0x00000117   Gb    1  Code  Hi 
    727  __rt_lib_shutdown_stdio_1  0x00000117   Gb    1  Code  Hi 
    728  __rt_lib_shutdown_user_alloc_1
                                    0x00000117   Gb    1  Code  Hi 
    729  __rt_entry                 0x00000119   Gb    1  Code  Hi 
    730  __rt_entry_presh_1         0x00000119   Gb    1  Code  Hi 
    731  __rt_entry_sh              0x00000119   Gb    1  Code  Hi 
    732  __rt_entry_li              0x0000011f   Gb    1  Code  Hi 
    733  __rt_entry_postsh_1        0x0000011f   Gb    1  Code  Hi 
    734  __rt_entry_main            0x00000123   Gb    1  Code  Hi 
    735  __rt_entry_postli_1        0x00000123   Gb    1  Code  Hi 
    736  __rt_exit                  0x0000012b   Gb    1  Code  De 
    737  __rt_exit_ls               0x0000012d   Gb    1  Code  Hi 
    738  __rt_exit_prels_1          0x0000012d   Gb    1  Code  Hi 
    739  __rt_exit_exit             0x00000131   Gb    1  Code  Hi 
    740  am_svcall_isr              0x00000139   Gb    1  Code  Hi   0x1c
    741  __asm___6_port_c_39a90d8d__prvStartFirstTask
                                    0x00000159   Gb    1  Code  Hi   0x24
    742  __asm___6_port_c_39a90d8d__prvEnableVFP
                                    0x00000181   Gb    1  Code  Hi   0x10
    743  am_pendsv_isr              0x00000195   Gb    1  Code  Hi   0x58
    744  vPortGetIPSR               0x000001f1   Gb    1  Code  Hi   0x6
    745  am_fault_isr               0x000001f9   Gb    1  Code  Hi   0x1a
    746  getStackedReg              0x00000213   Gb    1  Code  Hi   0x8
    747  __asm___15_am_hal_ctimer_c_5490335f__back2back_reads
                                    0x0000021d   Gb    1  Code  Hi   0x24
    748  am_hal_flash_delay         0x00000241   Gb    1  Code  Hi   0x6
    749  am_hal_interrupt_master_enable
                                    0x00000249   Gb    1  Code  Hi   0x8
    750  am_hal_interrupt_master_disable
                                    0x00000251   Gb    1  Code  Hi   0x8
    751  am_hal_interrupt_master_set
                                    0x00000259   Gb    1  Code  Hi   0x6
    752  __user_initial_stackheap   0x00000261   Gb    1  Code  Hi   0xa
    753  __aeabi_memcpy             0x00000279   Gb    1  Code  Hi 
    754  __rt_memcpy                0x00000279   Gb    1  Code  De   0x8a
    755  _memcpy_lastbytes          0x000002df   Gb    1  Code  De 
    756  __aeabi_memset             0x00000303   Gb    1  Code  Hi   0x10
    757  __aeabi_memclr4            0x00000313   Gb    1  Code  Hi 
    758  __aeabi_memclr8            0x00000313   Gb    1  Code  De 
    759  __rt_memclr_w              0x00000313   Gb    1  Code  De   0x4e
    760  _memset_w                  0x00000317   Gb    1  Code  De 
    761  __use_two_region_memory    0x00000361   Gb    1  Code  Hi   0x2
    762  __rt_heap_escrow$2region   0x00000363   Gb    1  Code  De   0x2
    763  __rt_heap_expand$2region   0x00000365   Gb    1  Code  De   0x2
    764  __aeabi_memcpy4            0x00000367   Gb    1  Code  De 
    765  __aeabi_memcpy8            0x00000367   Gb    1  Code  De 
    766  __rt_memcpy_w              0x00000367   Gb    1  Code  De   0x64
    767  _memcpy_lastbytes_aligned  0x000003af   Gb    1  Code  De 
    768  __aeabi_memclr             0x000003cb   Gb    1  Code  De 
    769  __rt_memclr                0x000003cb   Gb    1  Code  De   0x44
    770  _memset                    0x000003cf   Gb    1  Code  De 
    771  __user_setup_stackheap     0x0000040f   Gb    1  Code  De   0x4a
    772  exit                       0x00000459   Gb    1  Code  De   0x12
    773  __user_libspace            0x0000046d   Wk    1  Code  De   0x8
    774  __user_perproc_libspace    0x0000046d   Wk    1  Code  De 
    775  __user_perthread_libspace  0x0000046d   Wk    1  Code  De 
    776  _sys_exit                  0x00000475   Gb    1  Code  De   0x8
    777  __I$use$semihosting        0x00000481   Gb    1  Code  Hi 
    778  __use_no_semihosting_swi   0x00000481   Gb    1  Code  Hi   0x2
    779  __semihosting_library_function
                                    0x00000483   Gb    1  Code  Hi 
    780  LedTask                    0x00000485   Gb    1  Code  Hi   0x48
    781  LedTaskSetup               0x000004d5   Gb    1  Code  Hi   0x162
    782  am_bsp_debug_printf_disable
                                    0x00000665   Gb    1  Code  Hi   0x3c
    783  am_bsp_debug_printf_enable 0x000006a9   Gb    1  Code  Hi   0x3c
    784  am_bsp_low_power_init      0x000006f1   Gb    1  Code  Hi   0x22
    785  am_ctimer_isr              0x00000713   Gb    1  Code  Hi   0x18
    786  am_devices_led_array_init  0x0000072b   Gb    1  Code  Hi   0x24
    787  am_devices_led_init        0x00000751   Gb    1  Code  Hi   0x1e4
    788  am_devices_led_off         0x00000939   Gb    1  Code  Hi   0xa4
    789  am_devices_led_toggle      0x000009e1   Gb    1  Code  Hi   0xa2
    790  am_freertos_sleep          0x00000a89   Gb    1  Code  Hi   0xe
    791  am_freertos_wakeup         0x00000a97   Gb    1  Code  Hi   0x2
    792  am_gpio_isr                0x00000a99   Gb    1  Code  Hi   0x1e
    793  am_hal_clkgen_osc_stop     0x00000ab7   Gb    1  Code  Hi   0x14
    794  am_hal_clkgen_sysclk_get   0x00000acd   Gb    1  Code  Hi   0x40
    795  am_hal_clkgen_sysclk_select
                                    0x00000b2d   Gb    1  Code  Hi   0x10
    796  am_hal_ctimer_clear        0x00000b3d   Gb    1  Code  Hi   0x24
    797  am_hal_ctimer_compare_set  0x00000b65   Gb    1  Code  Hi   0x7e
    798  am_hal_ctimer_config       0x00000be9   Gb    1  Code  Hi   0x46
    799  am_hal_ctimer_int_clear    0x00000c35   Gb    1  Code  Hi   0x8
    800  am_hal_ctimer_int_enable   0x00000c41   Gb    1  Code  Hi   0x20
    801  am_hal_ctimer_int_register 0x00000c65   Gb    1  Code  Hi   0x5a
    802  am_hal_ctimer_int_service  0x00000cfd   Gb    1  Code  Hi   0x2e
    803  am_hal_ctimer_int_status_get
                                    0x00000d31   Gb    1  Code  Hi   0x2a
    804  am_hal_ctimer_read         0x00000d61   Gb    1  Code  Hi   0x94
    805  am_hal_ctimer_start        0x00000e19   Gb    1  Code  Hi   0x2a
    806  am_hal_ctimer_stop         0x00000e49   Gb    1  Code  Hi   0x24
    807  am_hal_debug_error         0x00000e71   Wk    1  Code  Hi   0x2
    808  am_hal_gpio_int_clear      0x00000e75   Gb    1  Code  Hi   0xc
    809  am_hal_gpio_int_enable     0x00000e85   Gb    1  Code  Hi   0x18
    810  am_hal_gpio_int_register   0x00000ea1   Gb    1  Code  Hi   0x1e
    811  am_hal_gpio_int_service    0x00000ef1   Gb    1  Code  Hi   0x54
    812  am_hal_gpio_int_status_get 0x00000f49   Gb    1  Code  Hi   0x34
    813  am_hal_gpio_out_enable_bit_get
                                    0x00000f81   Gb    1  Code  Hi   0x2c
    814  am_hal_interrupt_enable    0x00000fb1   Gb    1  Code  Hi   0x46
    815  am_hal_interrupt_priority_set
                                    0x00000ffd   Gb    1  Code  Hi   0x2e
    816  am_hal_itm_disable         0x00001031   Gb    1  Code  Hi   0x48
    817  am_hal_itm_enable          0x00001095   Gb    1  Code  Hi   0x38
    818  am_hal_itm_not_busy        0x000010ed   Gb    1  Code  Hi   0x22
    819  am_hal_itm_print           0x00001119   Gb    1  Code  Hi   0x30
    820  am_hal_mcuctrl_bandgap_disable
                                    0x00001149   Gb    1  Code  Hi   0xc
    821  am_hal_mcuctrl_bucks_enable
                                    0x00001159   Gb    1  Code  Hi   0x24
    822  am_hal_mcuctrl_fault_status
                                    0x00001181   Gb    1  Code  Hi   0x34
    823  am_hal_mcuctrl_flash_power_set
                                    0x000011b9   Gb    1  Code  Hi   0x8
    824  am_hal_mcuctrl_sram_power_set
                                    0x000011c5   Gb    1  Code  Hi   0xc
    825  am_hal_rtc_osc_disable     0x000011d5   Gb    1  Code  Hi   0xe
    826  am_hal_rtc_osc_select      0x000011e3   Gb    1  Code  Hi   0x16
    827  am_hal_sysctrl_fpu_enable  0x000011f9   Gb    1  Code  Hi   0xa
    828  am_hal_sysctrl_fpu_stacking_enable
                                    0x00001209   Gb    1  Code  Hi   0x2c
    829  am_hal_sysctrl_sleep       0x00001239   Gb    1  Code  Hi   0x2c
    830  am_hal_tpiu_disable        0x0000126d   Gb    1  Code  Hi   0xa
    831  am_hal_tpiu_enable         0x0000127d   Gb    1  Code  Hi   0x7e
    832  am_hal_vcomp_disable       0x00001315   Gb    1  Code  Hi   0x8
    833  am_systick_isr             0x00001321   Gb    1  Code  Hi   0x2e
    834  am_util_delay_ms           0x00001355   Gb    1  Code  Hi   0x1e
    835  am_util_faultisr_collect_data
                                    0x00001375   Gb    1  Code  Hi   0xb2
    836  am_util_stdio_printf       0x0000142d   Gb    1  Code  Hi   0x32
    837  am_util_stdio_printf_init  0x00001469   Gb    1  Code  Hi   0x6
    838  am_util_stdio_terminal_clear
                                    0x00001475   Gb    1  Code  Hi   0xa
    839  am_util_stdio_vsprintf     0x00001495   Gb    1  Code  Hi   0x3a4
    840  button0_handler            0x00001849   Gb    1  Code  Hi   0x28
    841  button1_handler            0x00001875   Gb    1  Code  Hi   0x28
    842  button2_handler            0x000018a1   Gb    1  Code  Hi   0x28
    843  button_handler             0x000018cd   Gb    1  Code  Hi   0x34
    844  disable_print_interface    0x0000194f   Gb    1  Code  Hi   0xc
    845  eTaskConfirmSleepModeStatus
                                    0x00001a29   Gb    1  Code  Hi   0x2a
    846  enable_print_interface     0x00001a65   Gb    1  Code  Hi   0x16
    847  main                       0x00001bf9   Gb    1  Code  Hi   0x34
    848  pvPortMalloc               0x00002559   Gb    1  Code  Hi   0xb0
    849  pxPortInitialiseStack      0x00002619   Gb    1  Code  Hi   0x26
    850  run_tasks                  0x00002645   Gb    1  Code  Hi   0x1c
    851  setup_task                 0x00002671   Gb    1  Code  Hi   0x30
    852  uxListRemove               0x000027df   Gb    1  Code  Hi   0x28
    853  uxTaskResetEventItemValue  0x00002809   Gb    1  Code  Hi   0x18
    854  vApplicationMallocFailedHook
                                    0x00002825   Gb    1  Code  Hi   0x4
    855  vApplicationStackOverflowHook
                                    0x00002829   Gb    1  Code  Hi   0x6
    856  vEventGroupSetBitsCallback 0x0000282f   Gb    1  Code  Hi   0x10
    857  vListInitialise            0x0000283f   Gb    1  Code  Hi   0x1a
    858  vListInitialiseItem        0x00002859   Gb    1  Code  Hi   0x6
    859  vListInsert                0x0000285f   Gb    1  Code  Hi   0x34
    860  vListInsertEnd             0x00002893   Gb    1  Code  Hi   0x18
    861  vPortEnterCritical         0x000028ad   Gb    1  Code  Hi   0x3a
    862  vPortExitCritical          0x000028f1   Gb    1  Code  Hi   0x26
    863  vPortFree                  0x0000291d   Gb    1  Code  Hi   0x38
    864  vPortSetupTimerInterrupt   0x0000295d   Gb    1  Code  Hi   0x5e
    865  vPortSuppressTicksAndSleep 0x000029cd   Gb    1  Code  Hi   0x108
    866  vPortValidateInterruptPriority
                                    0x00002add   Gb    1  Code  Hi   0x46
    867  vQueueWaitForMessageRestricted
                                    0x00002b31   Gb    1  Code  Hi   0x4a
    868  vTaskInternalSetTimeOutState
                                    0x00002b7d   Gb    1  Code  Hi   0xe
    869  vTaskMissedYield           0x00002b95   Gb    1  Code  Hi   0x8
    870  vTaskPlaceOnEventList      0x00002ba1   Gb    1  Code  Hi   0x22
    871  vTaskPlaceOnEventListRestricted
                                    0x00002bc9   Gb    1  Code  Hi   0x2a
    872  vTaskPlaceOnUnorderedEventList
                                    0x00002bf9   Gb    1  Code  Hi   0x40
    873  vTaskRemoveFromUnorderedEventList
                                    0x00002c41   Gb    1  Code  Hi   0x68
    874  vTaskStartScheduler        0x00002cbd   Gb    1  Code  Hi   0x66
    875  vTaskStepTick              0x00002d41   Gb    1  Code  Hi   0x26
    876  vTaskSuspend               0x00002d71   Gb    1  Code  Hi   0x9e
    877  vTaskSuspendAll            0x00002e29   Gb    1  Code  Hi   0xc
    878  vTaskSwitchContext         0x00002e39   Gb    1  Code  Hi   0xa0
    879  xEventGroupCreate          0x00002eed   Gb    1  Code  Hi   0x1a
    880  xEventGroupSetBits         0x00002f07   Gb    1  Code  Hi   0xaa
    881  xEventGroupWaitBits        0x00002fb1   Gb    1  Code  Hi   0x10a
    882  xPortCTimer0TickHandler    0x000030c1   Gb    1  Code  Hi   0x52
    883  xPortStartScheduler        0x0000311d   Gb    1  Code  Hi   0xea
    884  xQueueGenericCreate        0x00003225   Gb    1  Code  Hi   0x48
    885  xQueueGenericReset         0x0000326d   Gb    1  Code  Hi   0x80
    886  xQueueGenericSend          0x000032f1   Gb    1  Code  Hi   0x15c
    887  xQueueGenericSendFromISR   0x00003451   Gb    1  Code  Hi   0xc2
    888  xQueueReceive              0x00003515   Gb    1  Code  Hi   0x12e
    889  xTaskCheckForTimeOut       0x00003649   Gb    1  Code  Hi   0x60
    890  xTaskCreate                0x000036b1   Gb    1  Code  Hi   0x60
    891  xTaskGetSchedulerState     0x00003711   Gb    1  Code  Hi   0x18
    892  xTaskGetTickCount          0x00003731   Gb    1  Code  Hi   0x6
    893  xTaskIncrementTick         0x0000373d   Gb    1  Code  Hi   0xec
    894  xTaskRemoveFromEventList   0x00003855   Gb    1  Code  Hi   0x70
    895  xTaskResumeAll             0x000038dd   Gb    1  Code  Hi   0xcc
    896  xTimerCreateTimerTask      0x000039cd   Gb    1  Code  Hi   0x30
    897  xTimerGenericCommand       0x00003a11   Gb    1  Code  Hi   0x6e
    898  xTimerPendFunctionCallFromISR
                                    0x00003a85   Gb    1  Code  Hi   0x30
    899  __aeabi_d2f                0x00003ab9   Gb    1  Code  Hi 
    900  _d2f                       0x00003ab9   Gb    1  Code  De   0x62
    901  __fpl_dnaninf              0x00003b1b   Gb    1  Code  De   0x9c
    902  _fp_init                   0x00003bb7   Gb    1  Code  De   0xa
    903  __fplib_config_fpu_vfp     0x00003bbf   Gb    1  Code  De 
    904  __fplib_config_pureend_doubles
                                    0x00003bbf   Gb    1  Code  De 
    905  __fpl_fretinf              0x00003bc1   Gb    1  Code  De   0xa
    906  __I$use$fp                 0x00003bca   Gb    1   --   De 
    907  Region$$Table$$Base        0x00003be8   Gb    1   --   Hi 
    908  Region$$Table$$Limit       0x00003c08   Gb    1   --   Hi 
    909  ulTimerCountsForOneTick    0x1000000c   Gb    2  Data  Hi   0x4
    910  led_task_handle            0x10000014   Gb    2  Data  Hi   0x4
    911  xLedEventHandle            0x10000018   Gb    2  Data  Hi   0x4
    912  xSetupTask                 0x1000001c   Gb    2  Data  Hi   0x4
    913  pxCurrentTCB               0x10000038   Gb    2  Data  Hi   0x4
    914  g_pfnCharPrint             0x10000084   Gb    2  Data  Hi   0x4
    915  g_ui32HALflags             0x1000008c   Gb    2  Data  Hi   0x4
    916  am_bsp_psLEDs              0x10000090   Gb    2  Data  Hi   0x28
    917  am_hal_ctimer_ppfnHandlers 0x10004280   Gb    3  Data  Hi   0x20
    918  am_hal_gpio_ppfnHandlers   0x100042a0   Gb    3  Data  Hi   0x100
    919  __libspace_start           0x100043a0   Gb    3  Data  De   0x60
    920  __temporary_stack_top$libspace
                                    0x10004400   Gb    3  Data  De 


** Section #12 '.strtab' (SHT_STRTAB)
    Size   : 13332 bytes

            #  Offset String
        ====================================

            1      1: $d
            2      4: $t
            3      7: $d.realdata
            4     19: ..\..\..\..\..\third_party\FreeRTOSv10.1.1\Source\portable\Keil\AMapollo\port.c
            5     99: .emb_text
            6    109: $v0
            7    113: ../../../../../third_party/FreeRTOSv10.1.1/Source/portable/Keil/AMapollo/port.c
            8    193: i.am_systick_isr
            9    210: i.prvTaskExitError
           10    229: prvTaskExitError
           11    246: i.pxPortInitialiseStack
           12    270: i.vPortEnterCritical
           13    291: i.vPortExitCritical
           14    311: i.vPortSetupTimerInterrupt
           15    338: i.vPortSuppressTicksAndSleep
           16    367: i.vPortValidateInterruptPriority
           17    400: i.xPortCTimer0TickHandler
           18    426: i.xPortStartScheduler
           19    448: .constdata
           20    459: .data
           21    465: uxCriticalNesting
           22    483: ucMaxSysCallPriority
           23    504: ulMaxPRIGROUPValue
           24    523: xMaximumPossibleSuppressedTicks
           25    555: ../src/freertos_lowpower.c
           26    582: i.disable_print_interface
           27    608: i.enable_print_interface
           28    633: i.main
           29    640: ../src/led_task.c
           30    658: i.LedTask
           31    668: i.LedTaskSetup
           32    683: i.am_gpio_isr
           33    697: i.button0_handler
           34    715: i.button1_handler
           35    733: i.button2_handler
           36    751: i.button_handler
           37    768: ../src/rtos.c
           38    782: i.am_ctimer_isr
           39    798: i.am_freertos_sleep
           40    818: i.am_freertos_wakeup
           41    839: i.run_tasks
           42    851: i.setup_task
           43    864: i.vApplicationMallocFailedHook
           44    895: i.vApplicationStackOverflowHook
           45    927: ../../../../../devices/am_devices_button.c
           46    970: ../../../../../devices/am_devices_led.c
           47   1010: i.am_devices_led_array_init
           48   1038: i.am_devices_led_init
           49   1060: i.am_devices_led_off
           50   1081: i.am_devices_led_toggle
           51   1105: ../../../../../third_party/FreeRTOSv10.1.1/Source/portable/MemMang/heap_2.c
           52   1181: i.prvHeapInit
           53   1195: prvHeapInit
           54   1207: i.pvPortMalloc
           55   1222: i.vPortFree
           56   1234: .bss
           57   1239: ucHeap
           58   1246: xStart
           59   1253: xEnd
           60   1258: xFreeBytesRemaining
           61   1278: xHeapHasBeenInitialised
           62   1302: ../../../../../third_party/FreeRTOSv10.1.1/Source/event_groups.c
           63   1367: i.prvTestWaitCondition
           64   1390: prvTestWaitCondition
           65   1411: i.vEventGroupSetBitsCallback
           66   1440: i.xEventGroupCreate
           67   1460: i.xEventGroupSetBits
           68   1481: i.xEventGroupWaitBits
           69   1503: ../../../../../third_party/FreeRTOSv10.1.1/Source/list.c
           70   1560: i.uxListRemove
           71   1575: i.vListInitialise
           72   1593: i.vListInitialiseItem
           73   1615: i.vListInsert
           74   1629: i.vListInsertEnd
           75   1646: ../../../../../third_party/FreeRTOSv10.1.1/Source/queue.c
           76   1704: i.prvCopyDataFromQueue
           77   1727: prvCopyDataFromQueue
           78   1748: i.prvCopyDataToQueue
           79   1769: prvCopyDataToQueue
           80   1788: i.prvInitialiseNewQueue
           81   1812: prvInitialiseNewQueue
           82   1834: i.prvIsQueueEmpty
           83   1852: prvIsQueueEmpty
           84   1868: i.prvIsQueueFull
           85   1885: prvIsQueueFull
           86   1900: i.prvUnlockQueue
           87   1917: prvUnlockQueue
           88   1932: i.vQueueWaitForMessageRestricted
           89   1965: i.xQueueGenericCreate
           90   1987: i.xQueueGenericReset
           91   2008: i.xQueueGenericSend
           92   2028: i.xQueueGenericSendFromISR
           93   2055: i.xQueueReceive
           94   2071: ../../../../../third_party/FreeRTOSv10.1.1/Source/tasks.c
           95   2129: i.eTaskConfirmSleepModeStatus
           96   2159: i.prvAddCurrentTaskToDelayedList
           97   2192: prvAddCurrentTaskToDelayedList
           98   2223: i.prvAddNewTaskToReadyList
           99   2250: prvAddNewTaskToReadyList
          100   2275: i.prvCheckTasksWaitingTermination
          101   2309: prvCheckTasksWaitingTermination
          102   2341: i.prvGetExpectedIdleTime
          103   2366: prvGetExpectedIdleTime
          104   2389: i.prvIdleTask
          105   2403: prvIdleTask
          106   2415: i.prvInitialiseNewTask
          107   2438: prvInitialiseNewTask
          108   2459: i.prvInitialiseTaskLists
          109   2484: prvInitialiseTaskLists
          110   2507: i.prvResetNextTaskUnblockTime
          111   2537: prvResetNextTaskUnblockTime
          112   2565: i.uxTaskResetEventItemValue
          113   2593: i.vTaskInternalSetTimeOutState
          114   2624: i.vTaskMissedYield
          115   2643: i.vTaskPlaceOnEventList
          116   2667: i.vTaskPlaceOnEventListRestricted
          117   2701: i.vTaskPlaceOnUnorderedEventList
          118   2734: i.vTaskRemoveFromUnorderedEventList
          119   2770: i.vTaskStartScheduler
          120   2792: i.vTaskStepTick
          121   2808: i.vTaskSuspend
          122   2823: i.vTaskSuspendAll
          123   2841: i.vTaskSwitchContext
          124   2862: i.xTaskCheckForTimeOut
          125   2885: i.xTaskCreate
          126   2899: i.xTaskGetSchedulerState
          127   2924: i.xTaskGetTickCount
          128   2944: i.xTaskIncrementTick
          129   2965: i.xTaskRemoveFromEventList
          130   2992: i.xTaskResumeAll
          131   3009: pxReadyTasksLists
          132   3027: xDelayedTaskList1
          133   3045: xDelayedTaskList2
          134   3063: xPendingReadyList
          135   3081: xSuspendedTaskList
          136   3100: pxDelayedTaskList
          137   3118: pxOverflowDelayedTaskList
          138   3144: uxCurrentNumberOfTasks
          139   3167: xTickCount
          140   3178: uxTopReadyPriority
          141   3197: xSchedulerRunning
          142   3215: uxPendedTicks
          143   3229: xYieldPending
          144   3243: xNumOfOverflows
          145   3259: uxTaskNumber
          146   3272: xNextTaskUnblockTime
          147   3293: xIdleTaskHandle
          148   3309: uxSchedulerSuspended
          149   3330: ../../../../../third_party/FreeRTOSv10.1.1/Source/timers.c
          150   3389: i.prvCheckForValidListAndQueue
          151   3420: prvCheckForValidListAndQueue
          152   3449: i.prvGetNextExpireTime
          153   3472: prvGetNextExpireTime
          154   3493: i.prvInsertTimerInActiveList
          155   3522: prvInsertTimerInActiveList
          156   3549: i.prvProcessExpiredTimer
          157   3574: prvProcessExpiredTimer
          158   3597: i.prvProcessReceivedCommands
          159   3626: prvProcessReceivedCommands
          160   3653: i.prvProcessTimerOrBlockTask
          161   3682: prvProcessTimerOrBlockTask
          162   3709: i.prvSampleTimeNow
          163   3728: prvSampleTimeNow
          164   3745: i.prvSwitchTimerLists
          165   3767: prvSwitchTimerLists
          166   3787: i.prvTimerTask
          167   3802: prvTimerTask
          168   3815: i.xTimerCreateTimerTask
          169   3839: i.xTimerGenericCommand
          170   3862: i.xTimerPendFunctionCallFromISR
          171   3894: xActiveTimerList1
          172   3912: xActiveTimerList2
          173   3930: pxCurrentTimerList
          174   3949: pxOverflowTimerList
          175   3969: xTimerQueue
          176   3981: xTimerTaskHandle
          177   3998: xLastTime
          178   4008: ../../../../../utils/am_util_debug.c
          179   4045: ../../../../../utils/am_util_delay.c
          180   4082: i.am_util_delay_ms
          181   4101: ..\..\..\..\..\utils\am_util_faultisr.c
          182   4141: ../../../../../utils/am_util_faultisr.c
          183   4181: i.am_util_faultisr_collect_data
          184   4213: ../../../../../utils/am_util_stdio.c
          185   4250: i.am_util_stdio_printf
          186   4273: i.am_util_stdio_printf_init
          187   4301: i.am_util_stdio_terminal_clear
          188   4332: i.am_util_stdio_vsprintf
          189   4357: i.decstr_to_int
          190   4373: decstr_to_int
          191   4387: i.divu64_10
          192   4399: divu64_10
          193   4409: i.ftoa
          194   4416: ftoa
          195   4421: i.ndigits_in_hex
          196   4438: ndigits_in_hex
          197   4453: i.ndigits_in_i64
          198   4470: ndigits_in_i64
          199   4485: i.ndigits_in_u64
          200   4502: ndigits_in_u64
          201   4517: i.padbuffer
          202   4529: padbuffer
          203   4539: i.simple_strlen
          204   4555: simple_strlen
          205   4569: i.uint64_to_hexstr
          206   4588: uint64_to_hexstr
          207   4605: i.uint64_to_str
          208   4621: uint64_to_str
          209   4635: g_prfbuf
          210   4644: g_bTxtXlate
          211   4656: ../keil/startup_keil.s
          212   4679: STACK
          213   4685: StackMem
          214   4694: HEAP
          215   4699: HeapMem
          216   4707: RESET
          217   4713: .text
          218   4719: ../am_hal_global.c
          219   4738: ../am_hal_clkgen.c
          220   4757: i.am_hal_clkgen_osc_stop
          221   4782: i.am_hal_clkgen_sysclk_get
          222   4809: i.am_hal_clkgen_sysclk_select
          223   4839: ..\am_hal_ctimer.c
          224   4858: ../am_hal_ctimer.c
          225   4877: i.am_hal_ctimer_clear
          226   4899: i.am_hal_ctimer_compare_set
          227   4927: i.am_hal_ctimer_config
          228   4950: i.am_hal_ctimer_int_clear
          229   4976: i.am_hal_ctimer_int_enable
          230   5003: i.am_hal_ctimer_int_register
          231   5032: i.am_hal_ctimer_int_service
          232   5060: i.am_hal_ctimer_int_status_get
          233   5091: i.am_hal_ctimer_read
          234   5112: i.am_hal_ctimer_start
          235   5134: i.am_hal_ctimer_stop
          236   5155: ..\am_hal_flash.c
          237   5173: ../am_hal_flash.c
          238   5191: ../am_hal_gpio.c
          239   5208: i.am_hal_gpio_int_clear
          240   5232: i.am_hal_gpio_int_enable
          241   5257: i.am_hal_gpio_int_register
          242   5284: i.am_hal_gpio_int_service
          243   5310: i.am_hal_gpio_int_status_get
          244   5339: i.am_hal_gpio_out_enable_bit_get
          245   5372: ..\am_hal_interrupt.c
          246   5394: ../am_hal_interrupt.c
          247   5416: i.am_hal_interrupt_enable
          248   5442: i.am_hal_interrupt_priority_set
          249   5474: ../am_hal_itm.c
          250   5490: i.am_hal_itm_disable
          251   5511: i.am_hal_itm_enable
          252   5531: i.am_hal_itm_not_busy
          253   5553: i.am_hal_itm_print
          254   5572: ../am_hal_mcuctrl.c
          255   5592: i.am_hal_mcuctrl_bandgap_disable
          256   5625: i.am_hal_mcuctrl_bucks_enable
          257   5655: i.am_hal_mcuctrl_fault_status
          258   5685: i.am_hal_mcuctrl_flash_power_set
          259   5718: i.am_hal_mcuctrl_sram_power_set
          260   5750: ../am_hal_sysctrl.c
          261   5770: i.am_hal_sysctrl_fpu_enable
          262   5798: i.am_hal_sysctrl_fpu_stacking_enable
          263   5835: i.am_hal_sysctrl_sleep
          264   5858: ../am_bsp.c
          265   5870: i.am_bsp_debug_printf_disable
          266   5900: i.am_bsp_debug_printf_enable
          267   5929: i.am_bsp_low_power_init
          268   5953: ../am_hal_debug.c
          269   5971: i.am_hal_debug_error
          270   5992: ../am_hal_iom.c
          271   6008: ../am_hal_rtc.c
          272   6024: i.am_hal_rtc_osc_disable
          273   6049: i.am_hal_rtc_osc_select
          274   6073: ../am_hal_tpiu.c
          275   6090: i.am_hal_tpiu_disable
          276   6112: i.am_hal_tpiu_enable
          277   6133: ../am_hal_uart.c
          278   6150: ../am_hal_vcomp.c
          279   6168: i.am_hal_vcomp_disable
          280   6191: ../am_hal_i2c_bit_bang.c
          281   6216: ../am_hal_queue.c
          282   6234: dc.s
          283   6239: ../clib/longlong.s
          284   6258: ../clib/memcpset.s
          285   6277: ../clib/heapaux.c
          286   6295: ../clib/angel/startup.s
          287   6319: !!!main
          288   6327: ../fplib/d2f.s
          289   6342: x$fpl$d2f
          290   6352: ../clib/angel/kernel.s
          291   6375: .ARM.Collect$$rtentry$$00000000
          292   6407: ../fplib/dnaninf.s
          293   6426: x$fpl$dnaninf
          294   6440: ../fplib/fretinf.s
          295   6459: x$fpl$fretinf
          296   6473: ../fplib/usenofp.s
          297   6492: x$fpl$usenofp
          298   6506: .ARM.Collect$$rtentry$$00000002
          299   6538: .ARM.Collect$$rtentry$$00000009
          300   6570: .ARM.Collect$$rtentry$$0000000A
          301   6602: .ARM.Collect$$rtentry$$0000000C
          302   6634: .ARM.Collect$$rtentry$$0000000D
          303   6666: .ARM.Collect$$rtentry$$00000004
          304   6698: ../clib/angel/sys.s
          305   6718: ../clib/stdlib.c
          306   6735: ../clib/angel/boardlib.s
          307   6760: ../clib/libinit.s
          308   6778: .ARM.Collect$$libinit$$00000000
          309   6810: .ARM.Collect$$rtexit$$00000000
          310   6841: .ARM.Collect$$libinit$$00000001
          311   6873: .ARM.Collect$$libinit$$00000004
          312   6905: .ARM.Collect$$libinit$$0000000A
          313   6937: .ARM.Collect$$libinit$$0000000C
          314   6969: .ARM.Collect$$libinit$$0000000E
          315   7001: .ARM.Collect$$libinit$$00000011
          316   7033: .ARM.Collect$$libinit$$00000013
          317   7065: .ARM.Collect$$libinit$$00000015
          318   7097: .ARM.Collect$$libinit$$00000017
          319   7129: .ARM.Collect$$libinit$$00000019
          320   7161: .ARM.Collect$$libinit$$0000001B
          321   7193: .ARM.Collect$$libinit$$0000001D
          322   7225: .ARM.Collect$$libinit$$0000001F
          323   7257: .ARM.Collect$$libinit$$00000021
          324   7289: .ARM.Collect$$libinit$$00000023
          325   7321: .ARM.Collect$$libinit$$00000025
          326   7353: .ARM.Collect$$libinit$$0000002C
          327   7385: .ARM.Collect$$libinit$$0000002E
          328   7417: .ARM.Collect$$libinit$$00000030
          329   7449: .ARM.Collect$$libinit$$00000032
          330   7481: .ARM.Collect$$libinit$$00000033
          331   7513: .ARM.Collect$$rtexit$$00000002
          332   7544: .ARM.Collect$$rtexit$$00000003
          333   7575: .ARM.Collect$$rtexit$$00000004
          334   7606: ../clib/armsys.c
          335   7623: ../fplib/fpinit.s
          336   7641: x$fpl$fpinit
          337   7654: ../clib/angel/sysapp.c
          338   7677: .ARM.Collect$$libshutdown$$00000000
          339   7713: ../clib/heapalloc.c
          340   7733: ../clib/signal.c
          341   7750: .ARM.Collect$$libshutdown$$00000002
          342   7786: .ARM.Collect$$libshutdown$$00000004
          343   7822: .ARM.Collect$$libshutdown$$00000007
          344   7858: .ARM.Collect$$libshutdown$$0000000A
          345   7894: .ARM.Collect$$libshutdown$$0000000C
          346   7930: .ARM.Collect$$libshutdown$$0000000F
          347   7966: .ARM.Collect$$libshutdown$$00000010
          348   8002: ../clib/angel/rt.s
          349   8021: ../clib/signal.s
          350   8038: ../clib/angel/scatter.s
          351   8062: !!!scatter
          352   8073: ../clib/angel/handlers.s
          353   8098: !!handler_copy
          354   8113: !!handler_zi
          355   8126: BuildAttributes$$THM_ISAv4$E$P$D$K$B$S$7EM$VFPi3$EXTD16$VFPS$VFMA$PE$A:L22UL41UL21$X:L11$S22US41US21$IEEE1$IW$USESV6$~STKCKD$USESV7$~SHL$OTIME$ROPI$EBA8$UX$STANDARDLIB$REQ8$EABIv2
          356   8306: __ARM_use_no_argv
          357   8324: __Vectors
          358   8334: Reset_Handler
          359   8348: am_nmi_isr
          360   8359: am_memmanage_isr
          361   8376: am_adc_isr
          362   8387: am_brownout_isr
          363   8403: am_clkgen_isr
          364   8417: am_debugmon_isr
          365   8433: am_iomaster0_isr
          366   8450: am_iomaster1_isr
          367   8467: am_ioslave_acc_isr
          368   8486: am_ioslave_ios_isr
          369   8505: am_uart_isr
          370   8517: am_vcomp_isr
          371   8530: am_watchdog_isr
          372   8546: __main
          373   8553: __scatterload
          374   8567: __scatterload_rt2
          375   8585: __scatterload_rt2_thumb_only
          376   8614: __scatterload_null
          377   8633: __scatterload_copy
          378   8652: __scatterload_zeroinit
          379   8675: __rt_lib_init
          380   8689: __rt_lib_init_fp_1
          381   8708: __rt_lib_init_alloca_1
          382   8731: __rt_lib_init_argv_1
          383   8752: __rt_lib_init_atexit_1
          384   8775: __rt_lib_init_clock_1
          385   8797: __rt_lib_init_cpp_1
          386   8817: __rt_lib_init_exceptions_1
          387   8844: __rt_lib_init_fp_trap_1
          388   8868: __rt_lib_init_getenv_1
          389   8891: __rt_lib_init_heap_1
          390   8912: __rt_lib_init_lc_collate_1
          391   8939: __rt_lib_init_lc_ctype_1
          392   8964: __rt_lib_init_lc_monetary_1
          393   8992: __rt_lib_init_lc_numeric_1
          394   9019: __rt_lib_init_lc_time_1
          395   9043: __rt_lib_init_preinit_1
          396   9067: __rt_lib_init_rand_1
          397   9088: __rt_lib_init_return
          398   9109: __rt_lib_init_signal_1
          399   9132: __rt_lib_init_stdio_1
          400   9154: __rt_lib_init_user_alloc_1
          401   9181: __rt_lib_shutdown
          402   9199: __rt_lib_shutdown_cpp_1
          403   9223: __rt_lib_shutdown_fp_trap_1
          404   9251: __rt_lib_shutdown_heap_1
          405   9276: __rt_lib_shutdown_return
          406   9301: __rt_lib_shutdown_signal_1
          407   9328: __rt_lib_shutdown_stdio_1
          408   9354: __rt_lib_shutdown_user_alloc_1
          409   9385: __rt_entry
          410   9396: __rt_entry_presh_1
          411   9415: __rt_entry_sh
          412   9429: __rt_entry_li
          413   9443: __rt_entry_postsh_1
          414   9463: __rt_entry_main
          415   9479: __rt_entry_postli_1
          416   9499: __rt_exit
          417   9509: __rt_exit_ls
          418   9522: __rt_exit_prels_1
          419   9540: __rt_exit_exit
          420   9555: am_svcall_isr
          421   9569: __asm___6_port_c_39a90d8d__prvStartFirstTask
          422   9614: __asm___6_port_c_39a90d8d__prvEnableVFP
          423   9654: am_pendsv_isr
          424   9668: vPortGetIPSR
          425   9681: am_fault_isr
          426   9694: getStackedReg
          427   9708: __asm___15_am_hal_ctimer_c_5490335f__back2back_reads
          428   9761: am_hal_flash_delay
          429   9780: am_hal_interrupt_master_enable
          430   9811: am_hal_interrupt_master_disable
          431   9843: am_hal_interrupt_master_set
          432   9871: __user_initial_stackheap
          433   9896: __aeabi_memcpy
          434   9911: __rt_memcpy
          435   9923: _memcpy_lastbytes
          436   9941: __aeabi_memset
          437   9956: __aeabi_memclr4
          438   9972: __aeabi_memclr8
          439   9988: __rt_memclr_w
          440  10002: _memset_w
          441  10012: __use_two_region_memory
          442  10036: __rt_heap_escrow$2region
          443  10061: __rt_heap_expand$2region
          444  10086: __aeabi_memcpy4
          445  10102: __aeabi_memcpy8
          446  10118: __rt_memcpy_w
          447  10132: _memcpy_lastbytes_aligned
          448  10158: __aeabi_memclr
          449  10173: __rt_memclr
          450  10185: _memset
          451  10193: __user_setup_stackheap
          452  10216: exit
          453  10221: __user_libspace
          454  10237: __user_perproc_libspace
          455  10261: __user_perthread_libspace
          456  10287: _sys_exit
          457  10297: __I$use$semihosting
          458  10317: __use_no_semihosting_swi
          459  10342: __semihosting_library_function
          460  10373: LedTask
          461  10381: LedTaskSetup
          462  10394: am_bsp_debug_printf_disable
          463  10422: am_bsp_debug_printf_enable
          464  10449: am_bsp_low_power_init
          465  10471: am_ctimer_isr
          466  10485: am_devices_led_array_init
          467  10511: am_devices_led_init
          468  10531: am_devices_led_off
          469  10550: am_devices_led_toggle
          470  10572: am_freertos_sleep
          471  10590: am_freertos_wakeup
          472  10609: am_gpio_isr
          473  10621: am_hal_clkgen_osc_stop
          474  10644: am_hal_clkgen_sysclk_get
          475  10669: am_hal_clkgen_sysclk_select
          476  10697: am_hal_ctimer_clear
          477  10717: am_hal_ctimer_compare_set
          478  10743: am_hal_ctimer_config
          479  10764: am_hal_ctimer_int_clear
          480  10788: am_hal_ctimer_int_enable
          481  10813: am_hal_ctimer_int_register
          482  10840: am_hal_ctimer_int_service
          483  10866: am_hal_ctimer_int_status_get
          484  10895: am_hal_ctimer_read
          485  10914: am_hal_ctimer_start
          486  10934: am_hal_ctimer_stop
          487  10953: am_hal_debug_error
          488  10972: am_hal_gpio_int_clear
          489  10994: am_hal_gpio_int_enable
          490  11017: am_hal_gpio_int_register
          491  11042: am_hal_gpio_int_service
          492  11066: am_hal_gpio_int_status_get
          493  11093: am_hal_gpio_out_enable_bit_get
          494  11124: am_hal_interrupt_enable
          495  11148: am_hal_interrupt_priority_set
          496  11178: am_hal_itm_disable
          497  11197: am_hal_itm_enable
          498  11215: am_hal_itm_not_busy
          499  11235: am_hal_itm_print
          500  11252: am_hal_mcuctrl_bandgap_disable
          501  11283: am_hal_mcuctrl_bucks_enable
          502  11311: am_hal_mcuctrl_fault_status
          503  11339: am_hal_mcuctrl_flash_power_set
          504  11370: am_hal_mcuctrl_sram_power_set
          505  11400: am_hal_rtc_osc_disable
          506  11423: am_hal_rtc_osc_select
          507  11445: am_hal_sysctrl_fpu_enable
          508  11471: am_hal_sysctrl_fpu_stacking_enable
          509  11506: am_hal_sysctrl_sleep
          510  11527: am_hal_tpiu_disable
          511  11547: am_hal_tpiu_enable
          512  11566: am_hal_vcomp_disable
          513  11587: am_systick_isr
          514  11602: am_util_delay_ms
          515  11619: am_util_faultisr_collect_data
          516  11649: am_util_stdio_printf
          517  11670: am_util_stdio_printf_init
          518  11696: am_util_stdio_terminal_clear
          519  11725: am_util_stdio_vsprintf
          520  11748: button0_handler
          521  11764: button1_handler
          522  11780: button2_handler
          523  11796: button_handler
          524  11811: disable_print_interface
          525  11835: eTaskConfirmSleepModeStatus
          526  11863: enable_print_interface
          527  11886: main
          528  11891: pvPortMalloc
          529  11904: pxPortInitialiseStack
          530  11926: run_tasks
          531  11936: setup_task
          532  11947: uxListRemove
          533  11960: uxTaskResetEventItemValue
          534  11986: vApplicationMallocFailedHook
          535  12015: vApplicationStackOverflowHook
          536  12045: vEventGroupSetBitsCallback
          537  12072: vListInitialise
          538  12088: vListInitialiseItem
          539  12108: vListInsert
          540  12120: vListInsertEnd
          541  12135: vPortEnterCritical
          542  12154: vPortExitCritical
          543  12172: vPortFree
          544  12182: vPortSetupTimerInterrupt
          545  12207: vPortSuppressTicksAndSleep
          546  12234: vPortValidateInterruptPriority
          547  12265: vQueueWaitForMessageRestricted
          548  12296: vTaskInternalSetTimeOutState
          549  12325: vTaskMissedYield
          550  12342: vTaskPlaceOnEventList
          551  12364: vTaskPlaceOnEventListRestricted
          552  12396: vTaskPlaceOnUnorderedEventList
          553  12427: vTaskRemoveFromUnorderedEventList
          554  12461: vTaskStartScheduler
          555  12481: vTaskStepTick
          556  12495: vTaskSuspend
          557  12508: vTaskSuspendAll
          558  12524: vTaskSwitchContext
          559  12543: xEventGroupCreate
          560  12561: xEventGroupSetBits
          561  12580: xEventGroupWaitBits
          562  12600: xPortCTimer0TickHandler
          563  12624: xPortStartScheduler
          564  12644: xQueueGenericCreate
          565  12664: xQueueGenericReset
          566  12683: xQueueGenericSend
          567  12701: xQueueGenericSendFromISR
          568  12726: xQueueReceive
          569  12740: xTaskCheckForTimeOut
          570  12761: xTaskCreate
          571  12773: xTaskGetSchedulerState
          572  12796: xTaskGetTickCount
          573  12814: xTaskIncrementTick
          574  12833: xTaskRemoveFromEventList
          575  12858: xTaskResumeAll
          576  12873: xTimerCreateTimerTask
          577  12895: xTimerGenericCommand
          578  12916: xTimerPendFunctionCallFromISR
          579  12946: __aeabi_d2f
          580  12958: _d2f
          581  12963: __fpl_dnaninf
          582  12977: _fp_init
          583  12986: __fplib_config_fpu_vfp
          584  13009: __fplib_config_pureend_doubles
          585  13040: __fpl_fretinf
          586  13054: __I$use$fp
          587  13065: Region$$Table$$Base
          588  13085: Region$$Table$$Limit
          589  13106: ulTimerCountsForOneTick
          590  13130: led_task_handle
          591  13146: xLedEventHandle
          592  13162: xSetupTask
          593  13173: pxCurrentTCB
          594  13186: g_pfnCharPrint
          595  13201: g_ui32HALflags
          596  13216: am_bsp_psLEDs
          597  13230: am_hal_ctimer_ppfnHandlers
          598  13257: am_hal_gpio_ppfnHandlers
          599  13282: __libspace_start
          600  13299: __temporary_stack_top$libspace
          601  13330: 
          602  13331: 


** Section #13 '.note' (SHT_NOTE)
    Size   : 28 bytes (alignment 4)


** Section #14 '.comment' (SHT_PROGBITS)
    Size   : 25580 bytes


** Section #15 '.shstrtab' (SHT_STRTAB)
    Size   : 148 bytes

            #  Offset String
        ====================================

            1      1: FLASH
            2      7: SRAM
            3     12: .debug_abbrev
            4     26: .debug_frame
            5     39: .debug_info
            6     51: .debug_line
            7     63: .debug_loc
            8     74: .debug_macinfo
            9     89: .debug_pubnames
           10    105: .symtab
           11    113: .strtab
           12    121: .note
           13    127: .comment
           14    136: .shstrtab
           15    146: 
           16    147: 


