
========================================================================

** ELF Header Information

    File Name: bin\cache_monitor.axf

    Machine class: ELFCLASS32 (32-bit)
    Data encoding: ELFDATA2LSB (Little endian)
    Header version: EV_CURRENT (Current version)
    Operating System ABI: none
    ABI Version: 0
    File Type: ET_EXEC (Executable) (2)
    Machine: EM_ARM (ARM)

    Image Entry point: 0x0000c139
    Flags: EF_ARM_HASENTRY + EF_ARM_ABI_FLOAT_HARD (0x05000402)

    ARM ELF revision: 5 (ABI version 2)

    Conforms to Hard float procedure-call standard

    Built with
    Component: ARM Compiler 5.06 update 6 (build 750) Tool: armasm [4d35ec]
    Component: ARM Compiler 5.06 update 6 (build 750) Tool: armlink [4d35ed]

    Header size: 52 bytes (0x34)
    Program header entry size: 32 bytes (0x20)
    Section header entry size: 40 bytes (0x28)

    Program header entries: 1
    Section header entries: 17

    Program header offset: 690692 (0x000a8a04)
    Section header offset: 690724 (0x000a8a24)

    Section header string table index: 16

========================================================================

** Program header #0 (PT_LOAD) [PF_X + PF_W + PF_R + PF_ARM_ENTRY]
    Size : 60028 bytes (27604 bytes in file)
    Virtual address: 0x0000c000 (Alignment 8)


========================================================================

** Section #1 'ROMEM' (SHT_PROGBITS) [SHF_ALLOC + SHF_EXECINSTR]
    Size   : 27452 bytes (alignment 8)
    Address: 0x0000c000

    $d
    RESET
    __Vectors
        0x0000c000:    10011000    ....    DCD    268505088
        0x0000c004:    0000c101    ....    DCD    49409
        0x0000c008:    0000c11f    ....    DCD    49439
        0x0000c00c:    0000c219    ....    DCD    49689
        0x0000c010:    0000c121    !...    DCD    49441
        0x0000c014:    0000c123    #...    DCD    49443
        0x0000c018:    0000c125    %...    DCD    49445
        0x0000c01c:    0000c127    '...    DCD    49447
        0x0000c020:    00000000    ....    DCD    0
        0x0000c024:    00000000    ....    DCD    0
        0x0000c028:    00000000    ....    DCD    0
        0x0000c02c:    0000c129    )...    DCD    49449
        0x0000c030:    0000c12b    +...    DCD    49451
        0x0000c034:    00000000    ....    DCD    0
        0x0000c038:    0000c12d    -...    DCD    49453
        0x0000c03c:    0000c12f    /...    DCD    49455
        0x0000c040:    0000c131    1...    DCD    49457
        0x0000c044:    0000c131    1...    DCD    49457
        0x0000c048:    0000c131    1...    DCD    49457
        0x0000c04c:    0000c131    1...    DCD    49457
        0x0000c050:    0000c131    1...    DCD    49457
        0x0000c054:    0000c131    1...    DCD    49457
        0x0000c058:    0000c131    1...    DCD    49457
        0x0000c05c:    0000c131    1...    DCD    49457
        0x0000c060:    0000c131    1...    DCD    49457
        0x0000c064:    0000c131    1...    DCD    49457
        0x0000c068:    0000c131    1...    DCD    49457
        0x0000c06c:    0000c131    1...    DCD    49457
        0x0000c070:    0000c131    1...    DCD    49457
        0x0000c074:    0000c131    1...    DCD    49457
        0x0000c078:    0000ca65    e...    DCD    51813
        0x0000c07c:    0000c131    1...    DCD    49457
        0x0000c080:    0000c131    1...    DCD    49457
        0x0000c084:    0000c131    1...    DCD    49457
        0x0000c088:    0000c131    1...    DCD    49457
        0x0000c08c:    0000c131    1...    DCD    49457
        0x0000c090:    0000c131    1...    DCD    49457
        0x0000c094:    0000c131    1...    DCD    49457
        0x0000c098:    0000c131    1...    DCD    49457
        0x0000c09c:    0000c131    1...    DCD    49457
        0x0000c0a0:    0000c131    1...    DCD    49457
        0x0000c0a4:    0000c131    1...    DCD    49457
        0x0000c0a8:    0000c131    1...    DCD    49457
        0x0000c0ac:    0000c131    1...    DCD    49457
        0x0000c0b0:    0000c131    1...    DCD    49457
        0x0000c0b4:    0000c131    1...    DCD    49457
        0x0000c0b8:    0000c131    1...    DCD    49457
        0x0000c0bc:    0000c131    1...    DCD    49457
        0x0000c0c0:    0000ffb9    ....    DCD    65465
        0x0000c0c4:    0000c131    1...    DCD    49457
    __Patchable
        0x0000c0c8:    00000000    ....    DCD    0
        0x0000c0cc:    00000000    ....    DCD    0
        0x0000c0d0:    00000000    ....    DCD    0
        0x0000c0d4:    00000000    ....    DCD    0
        0x0000c0d8:    00000000    ....    DCD    0
        0x0000c0dc:    00000000    ....    DCD    0
        0x0000c0e0:    00000000    ....    DCD    0
        0x0000c0e4:    00000000    ....    DCD    0
        0x0000c0e8:    00000000    ....    DCD    0
        0x0000c0ec:    00000000    ....    DCD    0
        0x0000c0f0:    00000000    ....    DCD    0
        0x0000c0f4:    00000000    ....    DCD    0
        0x0000c0f8:    00000000    ....    DCD    0
        0x0000c0fc:    00000000    ....    DCD    0
    $t
    $v0
    Reset_Handler
        0x0000c100:    f64e5088    N..P    MOV      r0,#0xed88
        0x0000c104:    f2ce0000    ....    MOVT     r0,#0xe000
        0x0000c108:    6801        .h      LDR      r1,[r0,#0]
        0x0000c10a:    f4410170    A.p.    ORR      r1,r1,#0xf00000
        0x0000c10e:    6001        .`      STR      r1,[r0,#0]
        0x0000c110:    f3bf8f4f    ..O.    DSB      
        0x0000c114:    f3bf8f6f    ..o.    ISB      
        0x0000c118:    4806        .H      LDR      r0,[pc,#24] ; [0xc134] = 0xc139
        0x0000c11a:    4700        .G      BX       r0
        0x0000c11c:    e7fe        ..      B        0xc11c ; Reset_Handler + 28
    NMI_Handler
        0x0000c11e:    e7fe        ..      B        NMI_Handler ; 0xc11e
    MemManage_Handler
        0x0000c120:    e7fe        ..      B        MemManage_Handler ; 0xc120
    BusFault_Handler
        0x0000c122:    e7fe        ..      B        BusFault_Handler ; 0xc122
    UsageFault_Handler
        0x0000c124:    e7fe        ..      B        UsageFault_Handler ; 0xc124
    SecureFault_Handler
        0x0000c126:    e7fe        ..      B        SecureFault_Handler ; 0xc126
    SVC_Handler
        0x0000c128:    e7fe        ..      B        SVC_Handler ; 0xc128
    DebugMon_Handler
        0x0000c12a:    e7fe        ..      B        DebugMon_Handler ; 0xc12a
    PendSV_Handler
        0x0000c12c:    e7fe        ..      B        PendSV_Handler ; 0xc12c
    SysTick_Handler
        0x0000c12e:    e7fe        ..      B        SysTick_Handler ; 0xc12e
    am_adc_isr
    am_ble_isr
    am_brownout_isr
    am_clkgen_isr
    am_gpio_isr
    am_iomaster0_isr
    am_iomaster1_isr
    am_iomaster2_isr
    am_iomaster3_isr
    am_iomaster4_isr
    am_iomaster5_isr
    am_ioslave_acc_isr
    am_ioslave_ios_isr
    am_mspi0_isr
    am_mspi2_isr
    am_pdm0_isr
    am_rtc_isr
    am_scard_isr
    am_software0_isr
    am_stimer_cmpr0_isr
    am_stimer_cmpr1_isr
    am_stimer_cmpr2_isr
    am_stimer_cmpr3_isr
    am_stimer_cmpr4_isr
    am_stimer_cmpr5_isr
    am_stimer_cmpr6_isr
    am_stimer_cmpr7_isr
    am_stimer_isr
    am_uart0_isr
    am_uart1_isr
    am_uart_isr
    am_vcomp_isr
    am_watchdog_isr
        0x0000c130:    e7fe        ..      B        am_adc_isr ; 0xc130
    $d
        0x0000c132:    0000        ..      DCW    0
        0x0000c134:    0000c139    9...    DCD    49465
    $t
    !!!main
    __main
        0x0000c138:    f000f802    ....    BL       __scatterload ; 0xc140
        0x0000c13c:    f000f85c    ..\.    BL       __rt_entry ; 0xc1f8
    !!!scatter
    __scatterload
    __scatterload_rt2
    __scatterload_rt2_thumb_only
        0x0000c140:    a00a        ..      ADR      r0,{pc}+0x2c ; 0xc16c
        0x0000c142:    e8900c00    ....    LDM      r0,{r10,r11}
        0x0000c146:    4482        .D      ADD      r10,r10,r0
        0x0000c148:    4483        .D      ADD      r11,r11,r0
        0x0000c14a:    f1aa0701    ....    SUB      r7,r10,#1
    __scatterload_null
        0x0000c14e:    45da        .E      CMP      r10,r11
        0x0000c150:    d101        ..      BNE      0xc156 ; __scatterload_null + 8
        0x0000c152:    f000f851    ..Q.    BL       __rt_entry ; 0xc1f8
        0x0000c156:    f2af0e09    ....    ADR      lr,{pc}-7 ; 0xc14f
        0x0000c15a:    e8ba000f    ....    LDM      r10!,{r0-r3}
        0x0000c15e:    f0130f01    ....    TST      r3,#1
        0x0000c162:    bf18        ..      IT       NE
        0x0000c164:    1afb        ..      SUBNE    r3,r7,r3
        0x0000c166:    f0430301    C...    ORR      r3,r3,#1
        0x0000c16a:    4718        .G      BX       r3
    $d
        0x0000c16c:    000069a0    .i..    DCD    27040
        0x0000c170:    000069d0    .i..    DCD    27088
    $t
    !!dczerorl2
    __decompress
    __decompress1
        0x0000c174:    440a        .D      ADD      r2,r2,r1
        0x0000c176:    f04f0c00    O...    MOV      r12,#0
        0x0000c17a:    f8103b01    ...;    LDRB     r3,[r0],#1
        0x0000c17e:    f0130407    ....    ANDS     r4,r3,#7
        0x0000c182:    bf08        ..      IT       EQ
        0x0000c184:    f8104b01    ...K    LDRBEQ   r4,[r0],#1
        0x0000c188:    111d        ..      ASRS     r5,r3,#4
        0x0000c18a:    bf08        ..      IT       EQ
        0x0000c18c:    f8105b01    ...[    LDRBEQ   r5,[r0],#1
        0x0000c190:    1e64        d.      SUBS     r4,r4,#1
        0x0000c192:    d005        ..      BEQ      0xc1a0 ; __decompress + 44
        0x0000c194:    f8106b01    ...k    LDRB     r6,[r0],#1
        0x0000c198:    1e64        d.      SUBS     r4,r4,#1
        0x0000c19a:    f8016b01    ...k    STRB     r6,[r1],#1
        0x0000c19e:    d1f9        ..      BNE      0xc194 ; __decompress + 32
        0x0000c1a0:    f0130f08    ....    TST      r3,#8
        0x0000c1a4:    bf1e        ..      ITTT     NE
        0x0000c1a6:    f8104b01    ...K    LDRBNE   r4,[r0],#1
        0x0000c1aa:    1cad        ..      ADDNE    r5,r5,#2
        0x0000c1ac:    1b0c        ..      SUBNE    r4,r1,r4
        0x0000c1ae:    d109        ..      BNE      0xc1c4 ; __decompress + 80
        0x0000c1b0:    1e6d        m.      SUBS     r5,r5,#1
        0x0000c1b2:    bf58        X.      IT       PL
        0x0000c1b4:    f801cb01    ....    STRBPL   r12,[r1],#1
        0x0000c1b8:    d5fa        ..      BPL      0xc1b0 ; __decompress + 60
        0x0000c1ba:    e005        ..      B        0xc1c8 ; __decompress + 84
        0x0000c1bc:    f8146b01    ...k    LDRB     r6,[r4],#1
        0x0000c1c0:    f8016b01    ...k    STRB     r6,[r1],#1
        0x0000c1c4:    1e6d        m.      SUBS     r5,r5,#1
        0x0000c1c6:    d5f9        ..      BPL      0xc1bc ; __decompress + 72
        0x0000c1c8:    4291        .B      CMP      r1,r2
        0x0000c1ca:    d3d6        ..      BCC      0xc17a ; __decompress + 6
        0x0000c1cc:    4770        pG      BX       lr
        0x0000c1ce:    0000        ..      MOVS     r0,r0
    !!handler_zi
    __scatterload_zeroinit
        0x0000c1d0:    2300        .#      MOVS     r3,#0
        0x0000c1d2:    2400        .$      MOVS     r4,#0
        0x0000c1d4:    2500        .%      MOVS     r5,#0
        0x0000c1d6:    2600        .&      MOVS     r6,#0
        0x0000c1d8:    3a10        .:      SUBS     r2,r2,#0x10
        0x0000c1da:    bf28        (.      IT       CS
        0x0000c1dc:    c178        x.      STMCS    r1!,{r3-r6}
        0x0000c1de:    d8fb        ..      BHI      0xc1d8 ; __scatterload_zeroinit + 8
        0x0000c1e0:    0752        R.      LSLS     r2,r2,#29
        0x0000c1e2:    bf28        (.      IT       CS
        0x0000c1e4:    c130        0.      STMCS    r1!,{r4,r5}
        0x0000c1e6:    bf48        H.      IT       MI
        0x0000c1e8:    600b        .`      STRMI    r3,[r1,#0]
        0x0000c1ea:    4770        pG      BX       lr
    .ARM.Collect$$libinit$$00000000
    __rt_lib_init
        0x0000c1ec:    b51f        ..      PUSH     {r0-r4,lr}
    .ARM.Collect$$libinit$$00000001
    __rt_lib_init_fp_1
        0x0000c1ee:    f006f882    ....    BL       _fp_init ; 0x122f6
    .ARM.Collect$$libinit$$00000004
    .ARM.Collect$$libinit$$0000000A
    .ARM.Collect$$libinit$$0000000C
    .ARM.Collect$$libinit$$0000000E
    .ARM.Collect$$libinit$$00000011
    .ARM.Collect$$libinit$$00000013
    .ARM.Collect$$libinit$$00000015
    .ARM.Collect$$libinit$$00000017
    .ARM.Collect$$libinit$$00000019
    .ARM.Collect$$libinit$$0000001B
    .ARM.Collect$$libinit$$0000001D
    .ARM.Collect$$libinit$$0000001F
    .ARM.Collect$$libinit$$00000021
    .ARM.Collect$$libinit$$00000023
    .ARM.Collect$$libinit$$00000025
    .ARM.Collect$$libinit$$0000002C
    .ARM.Collect$$libinit$$0000002E
    .ARM.Collect$$libinit$$00000030
    .ARM.Collect$$libinit$$00000032
    .ARM.Collect$$libinit$$00000033
    __rt_lib_init_alloca_1
    __rt_lib_init_argv_1
    __rt_lib_init_atexit_1
    __rt_lib_init_clock_1
    __rt_lib_init_cpp_1
    __rt_lib_init_exceptions_1
    __rt_lib_init_fp_trap_1
    __rt_lib_init_getenv_1
    __rt_lib_init_heap_1
    __rt_lib_init_lc_collate_1
    __rt_lib_init_lc_ctype_1
    __rt_lib_init_lc_monetary_1
    __rt_lib_init_lc_numeric_1
    __rt_lib_init_lc_time_1
    __rt_lib_init_preinit_1
    __rt_lib_init_rand_1
    __rt_lib_init_return
    __rt_lib_init_signal_1
    __rt_lib_init_stdio_1
    __rt_lib_init_user_alloc_1
        0x0000c1f2:    bd1f        ..      POP      {r0-r4,pc}
    .ARM.Collect$$libshutdown$$00000000
    __rt_lib_shutdown
        0x0000c1f4:    b510        ..      PUSH     {r4,lr}
    .ARM.Collect$$libshutdown$$00000002
    .ARM.Collect$$libshutdown$$00000004
    .ARM.Collect$$libshutdown$$00000007
    .ARM.Collect$$libshutdown$$0000000A
    .ARM.Collect$$libshutdown$$0000000C
    .ARM.Collect$$libshutdown$$0000000F
    .ARM.Collect$$libshutdown$$00000010
    __rt_lib_shutdown_cpp_1
    __rt_lib_shutdown_fp_trap_1
    __rt_lib_shutdown_heap_1
    __rt_lib_shutdown_return
    __rt_lib_shutdown_signal_1
    __rt_lib_shutdown_stdio_1
    __rt_lib_shutdown_user_alloc_1
        0x0000c1f6:    bd10        ..      POP      {r4,pc}
    .ARM.Collect$$rtentry$$00000000
    .ARM.Collect$$rtentry$$00000002
    .ARM.Collect$$rtentry$$00000004
    __rt_entry
    __rt_entry_presh_1
    __rt_entry_sh
        0x0000c1f8:    f000f83b    ..;.    BL       __user_setup_stackheap ; 0xc272
        0x0000c1fc:    4611        .F      MOV      r1,r2
    .ARM.Collect$$rtentry$$00000009
    .ARM.Collect$$rtentry$$0000000A
    __rt_entry_li
    __rt_entry_postsh_1
        0x0000c1fe:    f7fffff5    ....    BL       __rt_lib_init ; 0xc1ec
    .ARM.Collect$$rtentry$$0000000C
    .ARM.Collect$$rtentry$$0000000D
    __rt_entry_main
    __rt_entry_postli_1
        0x0000c202:    f004fce9    ....    BL       main ; 0x10bd8
        0x0000c206:    f000f859    ..Y.    BL       exit ; 0xc2bc
    .ARM.Collect$$rtexit$$00000000
    __rt_exit
        0x0000c20a:    b403        ..      PUSH     {r0,r1}
    .ARM.Collect$$rtexit$$00000002
    .ARM.Collect$$rtexit$$00000003
    __rt_exit_ls
    __rt_exit_prels_1
        0x0000c20c:    f7fffff2    ....    BL       __rt_lib_shutdown ; 0xc1f4
    .ARM.Collect$$rtexit$$00000004
    __rt_exit_exit
        0x0000c210:    bc03        ..      POP      {r0,r1}
        0x0000c212:    f000f861    ..a.    BL       _sys_exit ; 0xc2d8
        0x0000c216:    0000        ..      MOVS     r0,r0
    .emb_text
    $v0
    HardFault_Handler
        0x0000c218:    b501        ..      PUSH     {r0,lr}
        0x0000c21a:    f01e0f04    ....    TST      lr,#4
        0x0000c21e:    bf0a        ..      ITET     EQ
        0x0000c220:    f3ef8008    ....    MRSEQ    r0,MSP
        0x0000c224:    f3ef8009    ....    MRSNE    r0,PSP
        0x0000c228:    f1100008    ....    ADDSEQ   r0,r0,#8
        0x0000c22c:    f003fee8    ....    BL       am_util_faultisr_collect_data ; 0x10000
        0x0000c230:    bd01        ..      POP      {r0,pc}
    getStackedReg
        0x0000c232:    0080        ..      LSLS     r0,r0,#2
        0x0000c234:    1840        @.      ADDS     r0,r0,r1
        0x0000c236:    6800        .h      LDR      r0,[r0,#0]
        0x0000c238:    4770        pG      BX       lr
        0x0000c23a:    0000        ..      MOVS     r0,r0
    .emb_text
    $v0
    am_hal_interrupt_master_enable
        0x0000c23c:    f3ef8010    ....    MRS      r0,PRIMASK
        0x0000c240:    b662        b.      CPSIE    i
        0x0000c242:    4770        pG      BX       lr
    am_hal_interrupt_master_disable
        0x0000c244:    f3ef8010    ....    MRS      r0,PRIMASK
        0x0000c248:    b672        r.      CPSID    i
        0x0000c24a:    4770        pG      BX       lr
    am_hal_interrupt_master_set
        0x0000c24c:    f3808810    ....    MSR      PRIMASK,r0
        0x0000c250:    4770        pG      BX       lr
        0x0000c252:    0000        ..      MOVS     r0,r0
    .text
    $v0
    __user_initial_stackheap
        0x0000c254:    4802        .H      LDR      r0,[pc,#8] ; [0xc260] = 0x10017f40
        0x0000c256:    4903        .I      LDR      r1,[pc,#12] ; [0xc264] = 0x10011000
        0x0000c258:    4a01        .J      LDR      r2,[pc,#4] ; [0xc260] = 0x10017f40
        0x0000c25a:    4b03        .K      LDR      r3,[pc,#12] ; [0xc268] = 0x10010000
        0x0000c25c:    4770        pG      BX       lr
    $d
        0x0000c25e:    0000        ..      DCW    0
        0x0000c260:    10017f40    @...    DCD    268533568
        0x0000c264:    10011000    ....    DCD    268505088
        0x0000c268:    10010000    ....    DCD    268500992
    $t
    .text
    __use_two_region_memory
        0x0000c26c:    4770        pG      BX       lr
    __rt_heap_escrow$2region
        0x0000c26e:    4770        pG      BX       lr
    __rt_heap_expand$2region
        0x0000c270:    4770        pG      BX       lr
    .text
    __user_setup_stackheap
        0x0000c272:    4675        uF      MOV      r5,lr
        0x0000c274:    f000f82c    ..,.    BL       __user_libspace ; 0xc2d0
        0x0000c278:    46ae        .F      MOV      lr,r5
        0x0000c27a:    0005        ..      MOVS     r5,r0
        0x0000c27c:    4669        iF      MOV      r1,sp
        0x0000c27e:    4653        SF      MOV      r3,r10
        0x0000c280:    f0200007     ...    BIC      r0,r0,#7
        0x0000c284:    4685        .F      MOV      sp,r0
        0x0000c286:    b018        ..      ADD      sp,sp,#0x60
        0x0000c288:    b520         .      PUSH     {r5,lr}
        0x0000c28a:    f7ffffe3    ....    BL       __user_initial_stackheap ; 0xc254
        0x0000c28e:    e8bd4020    .. @    POP      {r5,lr}
        0x0000c292:    f04f0600    O...    MOV      r6,#0
        0x0000c296:    f04f0700    O...    MOV      r7,#0
        0x0000c29a:    f04f0800    O...    MOV      r8,#0
        0x0000c29e:    f04f0b00    O...    MOV      r11,#0
        0x0000c2a2:    f0210107    !...    BIC      r1,r1,#7
        0x0000c2a6:    46ac        .F      MOV      r12,r5
        0x0000c2a8:    e8ac09c0    ....    STM      r12!,{r6-r8,r11}
        0x0000c2ac:    e8ac09c0    ....    STM      r12!,{r6-r8,r11}
        0x0000c2b0:    e8ac09c0    ....    STM      r12!,{r6-r8,r11}
        0x0000c2b4:    e8ac09c0    ....    STM      r12!,{r6-r8,r11}
        0x0000c2b8:    468d        .F      MOV      sp,r1
        0x0000c2ba:    4770        pG      BX       lr
    .text
    exit
        0x0000c2bc:    b510        ..      PUSH     {r4,lr}
        0x0000c2be:    4604        .F      MOV      r4,r0
        0x0000c2c0:    f3af8000    ....    NOP.W    
        0x0000c2c4:    4620         F      MOV      r0,r4
        0x0000c2c6:    e8bd4010    ...@    POP      {r4,lr}
        0x0000c2ca:    f7ffbf9e    ....    B.W      __rt_exit ; 0xc20a
        0x0000c2ce:    0000        ..      MOVS     r0,r0
    .text
    __user_libspace
    __user_perproc_libspace
    __user_perthread_libspace
        0x0000c2d0:    4800        .H      LDR      r0,[pc,#0] ; [0xc2d4] = 0x10017edc
        0x0000c2d2:    4770        pG      BX       lr
    $d
        0x0000c2d4:    10017edc    .~..    DCD    268533468
    $t
    .text
    _sys_exit
        0x0000c2d8:    4901        .I      LDR      r1,[pc,#4] ; [0xc2e0] = 0x20026
        0x0000c2da:    2018        .       MOVS     r0,#0x18
        0x0000c2dc:    beab        ..      BKPT     #0xab
        0x0000c2de:    e7fe        ..      B        0xc2de ; _sys_exit + 6
    $d
        0x0000c2e0:    00020026    &...    DCD    131110
    $t
    .text
    __I$use$semihosting
    __use_no_semihosting_swi
        0x0000c2e4:    4770        pG      BX       lr
    .text
    __semihosting_library_function
        0x0000c2e6:    0000        ..      MOVS     r0,r0
    i.XIP_handler
    XIP_handler
        0x0000c2e8:    e92d41f0    -..A    PUSH     {r4-r8,lr}
        0x0000c2ec:    4d4b        KM      LDR      r5,[pc,#300] ; [0xc41c] = 0x40018000
        0x0000c2ee:    4b4a        JK      LDR      r3,[pc,#296] ; [0xc418] = 0x4000001
        0x0000c2f0:    ed2d8b02    -...    VPUSH    {d8}
        0x0000c2f4:    6828        (h      LDR      r0,[r5,#0]
        0x0000c2f6:    f0407080    @..p    ORR      r0,r0,#0x1000000
        0x0000c2fa:    6028        (`      STR      r0,[r5,#0]
        0x0000c2fc:    2002        .       MOVS     r0,#2
        0x0000c2fe:    60a8        .`      STR      r0,[r5,#8]
        0x0000c300:    4847        GH      LDR      r0,[pc,#284] ; [0xc420] = 0x1001101c
        0x0000c302:    2201        ."      MOVS     r2,#1
        0x0000c304:    f1a0041c    ....    SUB      r4,r0,#0x1c
        0x0000c308:    6861        ah      LDR      r1,[r4,#4]
        0x0000c30a:    f8500021    P.!.    LDR      r0,[r0,r1,LSL #2]
        0x0000c30e:    2100        .!      MOVS     r1,#0
        0x0000c310:    4798        .G      BLX      r3
        0x0000c312:    6829        )h      LDR      r1,[r5,#0]
        0x0000c314:    f0217180    !..q    BIC      r1,r1,#0x1000000
        0x0000c318:    6029        )`      STR      r1,[r5,#0]
        0x0000c31a:    6d29        )m      LDR      r1,[r5,#0x50]
        0x0000c31c:    4e41        AN      LDR      r6,[pc,#260] ; [0xc424] = 0x100111a8
        0x0000c31e:    6031        1`      STR      r1,[r6,#0]
        0x0000c320:    6d69        im      LDR      r1,[r5,#0x54]
        0x0000c322:    6071        q`      STR      r1,[r6,#4]
        0x0000c324:    6daf        .m      LDR      r7,[r5,#0x58]
        0x0000c326:    60b7        .`      STR      r7,[r6,#8]
        0x0000c328:    6dea        .m      LDR      r2,[r5,#0x5c]
        0x0000c32a:    60f2        .`      STR      r2,[r6,#0xc]
        0x0000c32c:    f8d48004    ....    LDR      r8,[r4,#4]
        0x0000c330:    f1040244    ..D.    ADD      r2,r4,#0x44
        0x0000c334:    2500        .%      MOVS     r5,#0
        0x0000c336:    f8522028    R.(     LDR      r2,[r2,r8,LSL #2]
        0x0000c33a:    4282        .B      CMP      r2,r0
        0x0000c33c:    d165        e.      BNE      0xc40a ; XIP_handler + 290
        0x0000c33e:    ee001a10    ....    VMOV     s0,r1
        0x0000c342:    1bc8        ..      SUBS     r0,r1,r7
        0x0000c344:    6120         a      STR      r0,[r4,#0x10]
        0x0000c346:    eeb80a40    ..@.    VCVT.F32.U32 s0,s0
        0x0000c34a:    ee100a10    ....    VMOV     r0,s0
        0x0000c34e:    f005ff61    ..a.    BL       __aeabi_f2d ; 0x12214
        0x0000c352:    ee007a10    ...z    VMOV     s0,r7
        0x0000c356:    ec410b18    A...    VMOV     d8,r0,r1
        0x0000c35a:    eeb80a40    ..@.    VCVT.F32.U32 s0,s0
        0x0000c35e:    ee100a10    ....    VMOV     r0,s0
        0x0000c362:    f005ff57    ..W.    BL       __aeabi_f2d ; 0x12214
        0x0000c366:    ed9f1b30    ..0.    VLDR     d1,[pc,#192] ; [0xc428] = 0
        0x0000c36a:    ec532b11    S..+    VMOV     r2,r3,d1
        0x0000c36e:    f005fe53    ..S.    BL       __aeabi_dmul ; 0x12018
        0x0000c372:    ec532b18    S..+    VMOV     r2,r3,d8
        0x0000c376:    f005fcf7    ....    BL       __aeabi_ddiv ; 0x11d68
        0x0000c37a:    f005fcc3    ....    BL       __aeabi_d2f ; 0x11d04
        0x0000c37e:    60e0        .`      STR      r0,[r4,#0xc]
        0x0000c380:    4641        AF      MOV      r1,r8
        0x0000c382:    a02b        +.      ADR      r0,{pc}+0xae ; 0xc430
        0x0000c384:    f003fe96    ....    BL       am_util_stdio_printf ; 0x100b4
        0x0000c388:    a031        1.      ADR      r0,{pc}+0xc8 ; 0xc450
        0x0000c38a:    6831        1h      LDR      r1,[r6,#0]
        0x0000c38c:    f003fe92    ....    BL       am_util_stdio_printf ; 0x100b4
        0x0000c390:    f1a60010    ....    SUB      r0,r6,#0x10
        0x0000c394:    6841        Ah      LDR      r1,[r0,#4]
        0x0000c396:    a034        4.      ADR      r0,{pc}+0xd2 ; 0xc468
        0x0000c398:    f003fe8c    ....    BL       am_util_stdio_printf ; 0x100b4
        0x0000c39c:    a037        7.      ADR      r0,{pc}+0xe0 ; 0xc47c
        0x0000c39e:    6921        !i      LDR      r1,[r4,#0x10]
        0x0000c3a0:    f003fe88    ....    BL       am_util_stdio_printf ; 0x100b4
        0x0000c3a4:    68e0        .h      LDR      r0,[r4,#0xc]
        0x0000c3a6:    f005ff35    ..5.    BL       __aeabi_f2d ; 0x12214
        0x0000c3aa:    ec410b10    A...    VMOV     d0,r0,r1
        0x0000c3ae:    a039        9.      ADR      r0,{pc}+0xe6 ; 0xc494
        0x0000c3b0:    ec532b10    S..+    VMOV     r2,r3,d0
        0x0000c3b4:    f003fe7e    ..~.    BL       am_util_stdio_printf ; 0x100b4
        0x0000c3b8:    6860        `h      LDR      r0,[r4,#4]
        0x0000c3ba:    1c40        @.      ADDS     r0,r0,#1
        0x0000c3bc:    6060        ``      STR      r0,[r4,#4]
        0x0000c3be:    280a        .(      CMP      r0,#0xa
        0x0000c3c0:    bf3c        <.      ITT      CC
        0x0000c3c2:    ecbd8b02    ....    VPOPCC   {d8}
        0x0000c3c6:    e8bd81f0    ....    POPCC    {r4-r8,pc}
        0x0000c3ca:    f64f71ff    O..q    MOV      r1,#0xffff
        0x0000c3ce:    2000        .       MOVS     r0,#0
        0x0000c3d0:    6065        e`      STR      r5,[r4,#4]
        0x0000c3d2:    f001fd6f    ..o.    BL       am_hal_ctimer_stop ; 0xdeb4
        0x0000c3d6:    f04f21e0    O..!    MOV      r1,#0xe000e000
        0x0000c3da:    f44f4080    O..@    MOV      r0,#0x4000
        0x0000c3de:    f8c10180    ....    STR      r0,[r1,#0x180]
        0x0000c3e2:    f3bf8f4f    ..O.    DSB      
        0x0000c3e6:    f3bf8f6f    ..o.    ISB      
        0x0000c3ea:    2001        .       MOVS     r0,#1
        0x0000c3ec:    f001fbc4    ....    BL       am_hal_ctimer_int_clear ; 0xdb78
        0x0000c3f0:    2001        .       MOVS     r0,#1
        0x0000c3f2:    f001fbd1    ....    BL       am_hal_ctimer_int_disable ; 0xdb98
        0x0000c3f6:    a02e        ..      ADR      r0,{pc}+0xba ; 0xc4b0
        0x0000c3f8:    f003fe5c    ..\.    BL       am_util_stdio_printf ; 0x100b4
        0x0000c3fc:    ecbd8b02    ....    VPOP     {d8}
        0x0000c400:    a036        6.      ADR      r0,{pc}+0xdc ; 0xc4dc
        0x0000c402:    e8bd41f0    ...A    POP      {r4-r8,lr}
        0x0000c406:    f003be55    ..U.    B.W      am_util_stdio_printf ; 0x100b4
        0x0000c40a:    a03d        =.      ADR      r0,{pc}+0xf6 ; 0xc500
        0x0000c40c:    f003fe52    ..R.    BL       am_util_stdio_printf ; 0x100b4
        0x0000c410:    e7fe        ..      B        0xc410 ; XIP_handler + 296
    $d
        0x0000c412:    0000        ..      DCW    0
        0x0000c414:    00000000    ....    DCD    0
        0x0000c418:    04000001    ....    DCD    67108865
        0x0000c41c:    40018000    ...@    DCD    1073840128
        0x0000c420:    1001101c    ....    DCD    268505116
        0x0000c424:    100111a8    ....    DCD    268505512
        0x0000c428:    00000000    ....    DCD    0
        0x0000c42c:    40590000    ..Y@    DCD    1079574528
        0x0000c430:    2a2a2a2a    ****    DCD    707406378
        0x0000c434:    6574492a    *Ite    DCD    1702119722
        0x0000c438:    69746172    rati    DCD    1769234802
        0x0000c43c:    64256e6f    on%d    DCD    1680174703
        0x0000c440:    6d6f6320     com    DCD    1836016416
        0x0000c444:    74656c70    plet    DCD    1952803952
        0x0000c448:    2a2a2a65    e***    DCD    707406437
        0x0000c44c:    000a2a2a    **..    DCD    666154
        0x0000c450:    61746f54    Tota    DCD    1635020628
        0x0000c454:    6566206c    l fe    DCD    1701191788
        0x0000c458:    20686374    tch     DCD    543712116
        0x0000c45c:    626d756e    numb    DCD    1651340654
        0x0000c460:    203a7265    er:     DCD    540701285
        0x0000c464:    000a6425    %d..    DCD    680997
        0x0000c468:    6b6f6f4c    Look    DCD    1802465100
        0x0000c46c:    20707520     up     DCD    544240928
        0x0000c470:    626d756e    numb    DCD    1651340654
        0x0000c474:    203a7265    er:     DCD    540701285
        0x0000c478:    000a6425    %d..    DCD    680997
        0x0000c47c:    68636143    Cach    DCD    1751343427
        0x0000c480:    696d2065    e mi    DCD    1768759397
        0x0000c484:    6e207373    ss n    DCD    1847620467
        0x0000c488:    65626d75    umbe    DCD    1700949365
        0x0000c48c:    25203a72    r: %    DCD    622869106
        0x0000c490:    00000a64    d...    DCD    2660
        0x0000c494:    68636143    Cach    DCD    1751343427
        0x0000c498:    69682065    e hi    DCD    1768431717
        0x0000c49c:    61722074    t ra    DCD    1634869364
        0x0000c4a0:    203a6574    te:     DCD    540697972
        0x0000c4a4:    322e3625    %6.2    DCD    841889317
        0x0000c4a8:    0a252566    f%%.    DCD    170206566
        0x0000c4ac:    00000000    ....    DCD    0
        0x0000c4b0:    20504958    XIP     DCD    542132568
        0x0000c4b4:    68636143    Cach    DCD    1751343427
        0x0000c4b8:    65502065    e Pe    DCD    1699749989
        0x0000c4bc:    726f6672    rfor    DCD    1919903346
        0x0000c4c0:    636e616d    manc    DCD    1668178285
        0x0000c4c4:    65442065    e De    DCD    1698963557
        0x0000c4c8:    736e6f6d    mons    DCD    1936617325
        0x0000c4cc:    74617274    trat    DCD    1952543348
        0x0000c4d0:    206e6f69    ion     DCD    544108393
        0x0000c4d4:    21646e45    End!    DCD    560229957
        0x0000c4d8:    0000000a    ....    DCD    10
        0x0000c4dc:    68636143    Cach    DCD    1751343427
        0x0000c4e0:    6f6d2065    e mo    DCD    1869422693
        0x0000c4e4:    6f74696e    nito    DCD    1869900142
        0x0000c4e8:    78652072    r ex    DCD    2019893362
        0x0000c4ec:    6c706d61    ampl    DCD    1819307361
        0x0000c4f0:    6f632065    e co    DCD    1868767333
        0x0000c4f4:    656c706d    mple    DCD    1701605485
        0x0000c4f8:    2e736574    tes.    DCD    779314548
        0x0000c4fc:    000a2e2e    ....    DCD    667182
        0x0000c500:    62616e55    Unab    DCD    1650552405
        0x0000c504:    7420656c    le t    DCD    1948280172
        0x0000c508:    7572206f    o ru    DCD    1970413679
        0x0000c50c:    4958206e    n XI    DCD    1230512238
        0x0000c510:    75732050    P su    DCD    1970479184
        0x0000c514:    73656363    cces    DCD    1936024419
        0x0000c518:    6c756673    sful    DCD    1819633267
        0x0000c51c:    000a796c    ly..    DCD    686444
    $t
    i.am_bsp_itm_printf_enable
    am_bsp_itm_printf_enable
        0x0000c520:    b500        ..      PUSH     {lr}
        0x0000c522:    490a        .I      LDR      r1,[pc,#40] ; [0xc54c] = 0x10011138
        0x0000c524:    b085        ..      SUB      sp,sp,#0x14
        0x0000c526:    2001        .       MOVS     r0,#1
        0x0000c528:    6008        .`      STR      r0,[r1,#0]
        0x0000c52a:    f001feb1    ....    BL       am_hal_itm_enable ; 0xe290
        0x0000c52e:    4808        .H      LDR      r0,[pc,#32] ; [0xc550] = 0xf4240
        0x0000c530:    9000        ..      STR      r0,[sp,#0]
        0x0000c532:    4668        hF      MOV      r0,sp
        0x0000c534:    f003fcf8    ....    BL       am_hal_tpiu_enable ; 0xff28
        0x0000c538:    4806        .H      LDR      r0,[pc,#24] ; [0xc554] = 0x12a94
        0x0000c53a:    6801        .h      LDR      r1,[r0,#0]
        0x0000c53c:    2029        )       MOVS     r0,#0x29
        0x0000c53e:    f001fd27    ..'.    BL       am_hal_gpio_pinconfig ; 0xdf90
        0x0000c542:    4805        .H      LDR      r0,[pc,#20] ; [0xc558] = 0xe2d9
        0x0000c544:    f003fdd0    ....    BL       am_util_stdio_printf_init ; 0x100e8
        0x0000c548:    b005        ..      ADD      sp,sp,#0x14
        0x0000c54a:    bd00        ..      POP      {pc}
    $d
        0x0000c54c:    10011138    8...    DCD    268505400
        0x0000c550:    000f4240    @B..    DCD    1000000
        0x0000c554:    00012a94    .*..    DCD    76436
        0x0000c558:    0000e2d9    ....    DCD    58073
    $t
    i.am_bsp_low_power_init
    am_bsp_low_power_init
        0x0000c55c:    e92d41f0    -..A    PUSH     {r4-r8,lr}
        0x0000c560:    f003fbd8    ....    BL       am_hal_pwrctrl_low_power_init ; 0xfd14
        0x0000c564:    f003fcd6    ....    BL       am_hal_rtc_osc_disable ; 0xff14
        0x0000c568:    4f0b        .O      LDR      r7,[pc,#44] ; [0xc598] = 0x10011140
        0x0000c56a:    4e0c        .N      LDR      r6,[pc,#48] ; [0xc59c] = 0x127ac
        0x0000c56c:    2400        .$      MOVS     r4,#0
        0x0000c56e:    bf00        ..      NOP      
        0x0000c570:    f8575034    W.4P    LDR      r5,[r7,r4,LSL #3]
        0x0000c574:    6831        1h      LDR      r1,[r6,#0]
        0x0000c576:    4628        (F      MOV      r0,r5
        0x0000c578:    f001fd0a    ....    BL       am_hal_gpio_pinconfig ; 0xdf90
        0x0000c57c:    2103        .!      MOVS     r1,#3
        0x0000c57e:    4628        (F      MOV      r0,r5
        0x0000c580:    f001fe46    ..F.    BL       am_hal_gpio_state_write ; 0xe210
        0x0000c584:    2100        .!      MOVS     r1,#0
        0x0000c586:    4628        (F      MOV      r0,r5
        0x0000c588:    f001fe42    ..B.    BL       am_hal_gpio_state_write ; 0xe210
        0x0000c58c:    1c64        d.      ADDS     r4,r4,#1
        0x0000c58e:    2c05        .,      CMP      r4,#5
        0x0000c590:    d3ee        ..      BCC      0xc570 ; am_bsp_low_power_init + 20
        0x0000c592:    e8bd81f0    ....    POP      {r4-r8,pc}
    $d
        0x0000c596:    0000        ..      DCW    0
        0x0000c598:    10011140    @...    DCD    268505408
        0x0000c59c:    000127ac    .'..    DCD    75692
    $t
    i.am_bsp_mspi_pins_enable
    am_bsp_mspi_pins_enable
        0x0000c5a0:    b510        ..      PUSH     {r4,lr}
        0x0000c5a2:    b198        ..      CBZ      r0,0xc5cc ; am_bsp_mspi_pins_enable + 44
        0x0000c5a4:    2801        .(      CMP      r0,#1
        0x0000c5a6:    d07d        }.      BEQ      0xc6a4 ; am_bsp_mspi_pins_enable + 260
        0x0000c5a8:    2802        .(      CMP      r0,#2
        0x0000c5aa:    bf18        ..      IT       NE
        0x0000c5ac:    bd10        ..      POPNE    {r4,pc}
        0x0000c5ae:    2914        .)      CMP      r1,#0x14
        0x0000c5b0:    bf28        (.      IT       CS
        0x0000c5b2:    bd10        ..      POPCS    {r4,pc}
        0x0000c5b4:    e8dff001    ....    TBB      [pc,r1]
    $d
        0x0000c5b8:    fdfefdfe    ....    DCD    4261346814
        0x0000c5bc:    fafafbfc    ....    DCD    4210752508
        0x0000c5c0:    fdfefafa    ....    DCD    4261346042
        0x0000c5c4:    fbfcfdfe    ....    DCD    4227661310
        0x0000c5c8:    fdfefbfc    ....    DCD    4261346300
    $t
        0x0000c5cc:    2914        .)      CMP      r1,#0x14
        0x0000c5ce:    bf28        (.      IT       CS
        0x0000c5d0:    bd10        ..      POPCS    {r4,pc}
        0x0000c5d2:    e8dff001    ....    TBB      [pc,r1]
    $d
        0x0000c5d6:    200a        .       DCW    8202
        0x0000c5d8:    5636200a    . 6V    DCD    1446387722
        0x0000c5dc:    ebebebeb    ....    DCD    3958107115
        0x0000c5e0:    200a200a    . .     DCD    537534474
        0x0000c5e4:    56365636    6V6V    DCD    1446401590
        0x0000c5e8:    200a        .       DCW    8202
    $t
        0x0000c5ea:    48e7        .H      LDR      r0,[pc,#924] ; [0xc988] = 0x12a2c
        0x0000c5ec:    6801        .h      LDR      r1,[r0,#0]
        0x0000c5ee:    2025        %       MOVS     r0,#0x25
        0x0000c5f0:    f001fcce    ....    BL       am_hal_gpio_pinconfig ; 0xdf90
        0x0000c5f4:    48e5        .H      LDR      r0,[pc,#916] ; [0xc98c] = 0x12a34
        0x0000c5f6:    6801        .h      LDR      r1,[r0,#0]
        0x0000c5f8:    2016        .       MOVS     r0,#0x16
        0x0000c5fa:    f001fcc9    ....    BL       am_hal_gpio_pinconfig ; 0xdf90
        0x0000c5fe:    48e4        .H      LDR      r0,[pc,#912] ; [0xc990] = 0x12a38
        0x0000c600:    6801        .h      LDR      r1,[r0,#0]
        0x0000c602:    201a        .       MOVS     r0,#0x1a
        0x0000c604:    f001fcc4    ....    BL       am_hal_gpio_pinconfig ; 0xdf90
        0x0000c608:    48e2        .H      LDR      r0,[pc,#904] ; [0xc994] = 0x12a44
        0x0000c60a:    6801        .h      LDR      r1,[r0,#0]
        0x0000c60c:    e8bd4010    ...@    POP      {r4,lr}
        0x0000c610:    2018        .       MOVS     r0,#0x18
        0x0000c612:    f001bcbd    ....    B.W      am_hal_gpio_pinconfig ; 0xdf90
        0x0000c616:    48e0        .H      LDR      r0,[pc,#896] ; [0xc998] = 0x12a30
        0x0000c618:    6801        .h      LDR      r1,[r0,#0]
        0x0000c61a:    200c        .       MOVS     r0,#0xc
        0x0000c61c:    f001fcb8    ....    BL       am_hal_gpio_pinconfig ; 0xdf90
        0x0000c620:    48da        .H      LDR      r0,[pc,#872] ; [0xc98c] = 0x12a34
        0x0000c622:    6801        .h      LDR      r1,[r0,#0]
        0x0000c624:    2016        .       MOVS     r0,#0x16
        0x0000c626:    f001fcb3    ....    BL       am_hal_gpio_pinconfig ; 0xdf90
        0x0000c62a:    48d9        .H      LDR      r0,[pc,#868] ; [0xc990] = 0x12a38
        0x0000c62c:    6801        .h      LDR      r1,[r0,#0]
        0x0000c62e:    201a        .       MOVS     r0,#0x1a
        0x0000c630:    f001fcae    ....    BL       am_hal_gpio_pinconfig ; 0xdf90
        0x0000c634:    48d7        .H      LDR      r0,[pc,#860] ; [0xc994] = 0x12a44
        0x0000c636:    6801        .h      LDR      r1,[r0,#0]
        0x0000c638:    e8bd4010    ...@    POP      {r4,lr}
        0x0000c63c:    2018        .       MOVS     r0,#0x18
        0x0000c63e:    f001bca7    ....    B.W      am_hal_gpio_pinconfig ; 0xdf90
        0x0000c642:    48d6        .H      LDR      r0,[pc,#856] ; [0xc99c] = 0x12a98
        0x0000c644:    6801        .h      LDR      r1,[r0,#0]
        0x0000c646:    201c        .       MOVS     r0,#0x1c
        0x0000c648:    f001fca2    ....    BL       am_hal_gpio_pinconfig ; 0xdf90
        0x0000c64c:    48d4        .H      LDR      r0,[pc,#848] ; [0xc9a0] = 0x12a9c
        0x0000c64e:    6801        .h      LDR      r1,[r0,#0]
        0x0000c650:    2016        .       MOVS     r0,#0x16
        0x0000c652:    f001fc9d    ....    BL       am_hal_gpio_pinconfig ; 0xdf90
        0x0000c656:    48d3        .H      LDR      r0,[pc,#844] ; [0xc9a4] = 0x12aa0
        0x0000c658:    6801        .h      LDR      r1,[r0,#0]
        0x0000c65a:    201a        .       MOVS     r0,#0x1a
        0x0000c65c:    f001fc98    ....    BL       am_hal_gpio_pinconfig ; 0xdf90
        0x0000c660:    48d1        .H      LDR      r0,[pc,#836] ; [0xc9a8] = 0x12aa4
        0x0000c662:    6801        .h      LDR      r1,[r0,#0]
        0x0000c664:    2004        .       MOVS     r0,#4
        0x0000c666:    f001fc93    ....    BL       am_hal_gpio_pinconfig ; 0xdf90
        0x0000c66a:    48d0        .H      LDR      r0,[pc,#832] ; [0xc9ac] = 0x12aa8
        0x0000c66c:    6801        .h      LDR      r1,[r0,#0]
        0x0000c66e:    2017        .       MOVS     r0,#0x17
        0x0000c670:    f001fc8e    ....    BL       am_hal_gpio_pinconfig ; 0xdf90
        0x0000c674:    48ce        .H      LDR      r0,[pc,#824] ; [0xc9b0] = 0x12aac
        0x0000c676:    6801        .h      LDR      r1,[r0,#0]
        0x0000c678:    e8bd4010    ...@    POP      {r4,lr}
        0x0000c67c:    2018        .       MOVS     r0,#0x18
        0x0000c67e:    f001bc87    ....    B.W      am_hal_gpio_pinconfig ; 0xdf90
        0x0000c682:    48c5        .H      LDR      r0,[pc,#788] ; [0xc998] = 0x12a30
        0x0000c684:    6801        .h      LDR      r1,[r0,#0]
        0x0000c686:    200c        .       MOVS     r0,#0xc
        0x0000c688:    f001fc82    ....    BL       am_hal_gpio_pinconfig ; 0xdf90
        0x0000c68c:    48bf        .H      LDR      r0,[pc,#764] ; [0xc98c] = 0x12a34
        0x0000c68e:    6801        .h      LDR      r1,[r0,#0]
        0x0000c690:    2016        .       MOVS     r0,#0x16
        0x0000c692:    f001fc7d    ..}.    BL       am_hal_gpio_pinconfig ; 0xdf90
        0x0000c696:    48be        .H      LDR      r0,[pc,#760] ; [0xc990] = 0x12a38
        0x0000c698:    6801        .h      LDR      r1,[r0,#0]
        0x0000c69a:    201a        .       MOVS     r0,#0x1a
        0x0000c69c:    f001fc78    ..x.    BL       am_hal_gpio_pinconfig ; 0xdf90
        0x0000c6a0:    48c4        .H      LDR      r0,[pc,#784] ; [0xc9b4] = 0x12a3c
        0x0000c6a2:    e000        ..      B        0xc6a6 ; am_bsp_mspi_pins_enable + 262
        0x0000c6a4:    e00f        ..      B        0xc6c6 ; am_bsp_mspi_pins_enable + 294
        0x0000c6a6:    6801        .h      LDR      r1,[r0,#0]
        0x0000c6a8:    2004        .       MOVS     r0,#4
        0x0000c6aa:    f001fc71    ..q.    BL       am_hal_gpio_pinconfig ; 0xdf90
        0x0000c6ae:    48c2        .H      LDR      r0,[pc,#776] ; [0xc9b8] = 0x12a40
        0x0000c6b0:    6801        .h      LDR      r1,[r0,#0]
        0x0000c6b2:    2017        .       MOVS     r0,#0x17
        0x0000c6b4:    f001fc6c    ..l.    BL       am_hal_gpio_pinconfig ; 0xdf90
        0x0000c6b8:    48b6        .H      LDR      r0,[pc,#728] ; [0xc994] = 0x12a44
        0x0000c6ba:    6801        .h      LDR      r1,[r0,#0]
        0x0000c6bc:    e8bd4010    ...@    POP      {r4,lr}
        0x0000c6c0:    2018        .       MOVS     r0,#0x18
        0x0000c6c2:    f001bc65    ..e.    B.W      am_hal_gpio_pinconfig ; 0xdf90
        0x0000c6c6:    2914        .)      CMP      r1,#0x14
        0x0000c6c8:    bf28        (.      IT       CS
        0x0000c6ca:    bd10        ..      POPCS    {r4,pc}
        0x0000c6cc:    e8dff001    ....    TBB      [pc,r1]
    $d
        0x0000c6d0:    200a200a    . .     DCD    537534474
        0x0000c6d4:    b57c5636    6V|.    DCD    3044824630
        0x0000c6d8:    200a6e6e    nn.     DCD    537554542
        0x0000c6dc:    5636200a    . 6V    DCD    1446387722
        0x0000c6e0:    200a5636    6V.     DCD    537548342
    $t
        0x0000c6e4:    48b5        .H      LDR      r0,[pc,#724] ; [0xc9bc] = 0x12a48
        0x0000c6e6:    6801        .h      LDR      r1,[r0,#0]
        0x0000c6e8:    2032        2       MOVS     r0,#0x32
        0x0000c6ea:    f001fc51    ..Q.    BL       am_hal_gpio_pinconfig ; 0xdf90
        0x0000c6ee:    48b4        .H      LDR      r0,[pc,#720] ; [0xc9c0] = 0x12a50
        0x0000c6f0:    6801        .h      LDR      r1,[r0,#0]
        0x0000c6f2:    2033        3       MOVS     r0,#0x33
        0x0000c6f4:    f001fc4c    ..L.    BL       am_hal_gpio_pinconfig ; 0xdf90
        0x0000c6f8:    48b2        .H      LDR      r0,[pc,#712] ; [0xc9c4] = 0x12a54
        0x0000c6fa:    6801        .h      LDR      r1,[r0,#0]
        0x0000c6fc:    2034        4       MOVS     r0,#0x34
        0x0000c6fe:    f001fc47    ..G.    BL       am_hal_gpio_pinconfig ; 0xdf90
        0x0000c702:    48b1        .H      LDR      r0,[pc,#708] ; [0xc9c8] = 0x12a70
        0x0000c704:    6801        .h      LDR      r1,[r0,#0]
        0x0000c706:    e8bd4010    ...@    POP      {r4,lr}
        0x0000c70a:    203b        ;       MOVS     r0,#0x3b
        0x0000c70c:    f001bc40    ..@.    B.W      am_hal_gpio_pinconfig ; 0xdf90
        0x0000c710:    48ae        .H      LDR      r0,[pc,#696] ; [0xc9cc] = 0x12a4c
        0x0000c712:    6801        .h      LDR      r1,[r0,#0]
        0x0000c714:    203e        >       MOVS     r0,#0x3e
        0x0000c716:    f001fc3b    ..;.    BL       am_hal_gpio_pinconfig ; 0xdf90
        0x0000c71a:    48ad        .H      LDR      r0,[pc,#692] ; [0xc9d0] = 0x12a60
        0x0000c71c:    6801        .h      LDR      r1,[r0,#0]
        0x0000c71e:    2037        7       MOVS     r0,#0x37
        0x0000c720:    f001fc36    ..6.    BL       am_hal_gpio_pinconfig ; 0xdf90
        0x0000c724:    48ab        .H      LDR      r0,[pc,#684] ; [0xc9d4] = 0x12a64
        0x0000c726:    6801        .h      LDR      r1,[r0,#0]
        0x0000c728:    2038        8       MOVS     r0,#0x38
        0x0000c72a:    f001fc31    ..1.    BL       am_hal_gpio_pinconfig ; 0xdf90
        0x0000c72e:    48a6        .H      LDR      r0,[pc,#664] ; [0xc9c8] = 0x12a70
        0x0000c730:    6801        .h      LDR      r1,[r0,#0]
        0x0000c732:    e8bd4010    ...@    POP      {r4,lr}
        0x0000c736:    203b        ;       MOVS     r0,#0x3b
        0x0000c738:    f001bc2a    ..*.    B.W      am_hal_gpio_pinconfig ; 0xdf90
        0x0000c73c:    48a6        .H      LDR      r0,[pc,#664] ; [0xc9d8] = 0x12ab0
        0x0000c73e:    6801        .h      LDR      r1,[r0,#0]
        0x0000c740:    2045        E       MOVS     r0,#0x45
        0x0000c742:    f001fc25    ..%.    BL       am_hal_gpio_pinconfig ; 0xdf90
        0x0000c746:    48a5        .H      LDR      r0,[pc,#660] ; [0xc9dc] = 0x12ab4
        0x0000c748:    6801        .h      LDR      r1,[r0,#0]
        0x0000c74a:    2033        3       MOVS     r0,#0x33
        0x0000c74c:    f001fc20    .. .    BL       am_hal_gpio_pinconfig ; 0xdf90
        0x0000c750:    48a3        .H      LDR      r0,[pc,#652] ; [0xc9e0] = 0x12ab8
        0x0000c752:    6801        .h      LDR      r1,[r0,#0]
        0x0000c754:    2034        4       MOVS     r0,#0x34
        0x0000c756:    f001fc1b    ....    BL       am_hal_gpio_pinconfig ; 0xdf90
        0x0000c75a:    48a2        .H      LDR      r0,[pc,#648] ; [0xc9e4] = 0x12abc
        0x0000c75c:    6801        .h      LDR      r1,[r0,#0]
        0x0000c75e:    2035        5       MOVS     r0,#0x35
        0x0000c760:    f001fc16    ....    BL       am_hal_gpio_pinconfig ; 0xdf90
        0x0000c764:    48a0        .H      LDR      r0,[pc,#640] ; [0xc9e8] = 0x12ac0
        0x0000c766:    6801        .h      LDR      r1,[r0,#0]
        0x0000c768:    2036        6       MOVS     r0,#0x36
        0x0000c76a:    f001fc11    ....    BL       am_hal_gpio_pinconfig ; 0xdf90
        0x0000c76e:    489f        .H      LDR      r0,[pc,#636] ; [0xc9ec] = 0x12ac4
        0x0000c770:    6801        .h      LDR      r1,[r0,#0]
        0x0000c772:    e8bd4010    ...@    POP      {r4,lr}
        0x0000c776:    203b        ;       MOVS     r0,#0x3b
        0x0000c778:    f001bc0a    ....    B.W      am_hal_gpio_pinconfig ; 0xdf90
        0x0000c77c:    4893        .H      LDR      r0,[pc,#588] ; [0xc9cc] = 0x12a4c
        0x0000c77e:    6801        .h      LDR      r1,[r0,#0]
        0x0000c780:    203e        >       MOVS     r0,#0x3e
        0x0000c782:    f001fc05    ....    BL       am_hal_gpio_pinconfig ; 0xdf90
        0x0000c786:    4892        .H      LDR      r0,[pc,#584] ; [0xc9d0] = 0x12a60
        0x0000c788:    6801        .h      LDR      r1,[r0,#0]
        0x0000c78a:    2037        7       MOVS     r0,#0x37
        0x0000c78c:    f001fc00    ....    BL       am_hal_gpio_pinconfig ; 0xdf90
        0x0000c790:    4890        .H      LDR      r0,[pc,#576] ; [0xc9d4] = 0x12a64
        0x0000c792:    6801        .h      LDR      r1,[r0,#0]
        0x0000c794:    2038        8       MOVS     r0,#0x38
        0x0000c796:    f001fbfb    ....    BL       am_hal_gpio_pinconfig ; 0xdf90
        0x0000c79a:    4895        .H      LDR      r0,[pc,#596] ; [0xc9f0] = 0x12a68
        0x0000c79c:    6801        .h      LDR      r1,[r0,#0]
        0x0000c79e:    2039        9       MOVS     r0,#0x39
        0x0000c7a0:    f001fbf6    ....    BL       am_hal_gpio_pinconfig ; 0xdf90
        0x0000c7a4:    4893        .H      LDR      r0,[pc,#588] ; [0xc9f4] = 0x12a6c
        0x0000c7a6:    6801        .h      LDR      r1,[r0,#0]
        0x0000c7a8:    203a        :       MOVS     r0,#0x3a
        0x0000c7aa:    e004        ..      B        0xc7b6 ; am_bsp_mspi_pins_enable + 534
        0x0000c7ac:    e0ea        ..      B        0xc984 ; am_bsp_mspi_pins_enable + 996
        0x0000c7ae:    e0c9        ..      B        0xc944 ; am_bsp_mspi_pins_enable + 932
        0x0000c7b0:    e0a8        ..      B        0xc904 ; am_bsp_mspi_pins_enable + 868
        0x0000c7b2:    e091        ..      B        0xc8d8 ; am_bsp_mspi_pins_enable + 824
        0x0000c7b4:    e07a        z.      B        0xc8ac ; am_bsp_mspi_pins_enable + 780
        0x0000c7b6:    f001fbeb    ....    BL       am_hal_gpio_pinconfig ; 0xdf90
        0x0000c7ba:    4883        .H      LDR      r0,[pc,#524] ; [0xc9c8] = 0x12a70
        0x0000c7bc:    6801        .h      LDR      r1,[r0,#0]
        0x0000c7be:    e8bd4010    ...@    POP      {r4,lr}
        0x0000c7c2:    203b        ;       MOVS     r0,#0x3b
        0x0000c7c4:    f001bbe4    ....    B.W      am_hal_gpio_pinconfig ; 0xdf90
        0x0000c7c8:    488b        .H      LDR      r0,[pc,#556] ; [0xc9f8] = 0x12ae0
        0x0000c7ca:    6801        .h      LDR      r1,[r0,#0]
        0x0000c7cc:    2032        2       MOVS     r0,#0x32
        0x0000c7ce:    f001fbdf    ....    BL       am_hal_gpio_pinconfig ; 0xdf90
        0x0000c7d2:    488a        .H      LDR      r0,[pc,#552] ; [0xc9fc] = 0x12ae4
        0x0000c7d4:    6801        .h      LDR      r1,[r0,#0]
        0x0000c7d6:    2033        3       MOVS     r0,#0x33
        0x0000c7d8:    f001fbda    ....    BL       am_hal_gpio_pinconfig ; 0xdf90
        0x0000c7dc:    4888        .H      LDR      r0,[pc,#544] ; [0xca00] = 0x12ae8
        0x0000c7de:    6801        .h      LDR      r1,[r0,#0]
        0x0000c7e0:    2034        4       MOVS     r0,#0x34
        0x0000c7e2:    f001fbd5    ....    BL       am_hal_gpio_pinconfig ; 0xdf90
        0x0000c7e6:    4887        .H      LDR      r0,[pc,#540] ; [0xca04] = 0x12aec
        0x0000c7e8:    6801        .h      LDR      r1,[r0,#0]
        0x0000c7ea:    2035        5       MOVS     r0,#0x35
        0x0000c7ec:    f001fbd0    ....    BL       am_hal_gpio_pinconfig ; 0xdf90
        0x0000c7f0:    4885        .H      LDR      r0,[pc,#532] ; [0xca08] = 0x12af0
        0x0000c7f2:    6801        .h      LDR      r1,[r0,#0]
        0x0000c7f4:    2036        6       MOVS     r0,#0x36
        0x0000c7f6:    f001fbcb    ....    BL       am_hal_gpio_pinconfig ; 0xdf90
        0x0000c7fa:    4884        .H      LDR      r0,[pc,#528] ; [0xca0c] = 0x12af4
        0x0000c7fc:    6801        .h      LDR      r1,[r0,#0]
        0x0000c7fe:    2037        7       MOVS     r0,#0x37
        0x0000c800:    f001fbc6    ....    BL       am_hal_gpio_pinconfig ; 0xdf90
        0x0000c804:    4882        .H      LDR      r0,[pc,#520] ; [0xca10] = 0x12af8
        0x0000c806:    6801        .h      LDR      r1,[r0,#0]
        0x0000c808:    2038        8       MOVS     r0,#0x38
        0x0000c80a:    f001fbc1    ....    BL       am_hal_gpio_pinconfig ; 0xdf90
        0x0000c80e:    4881        .H      LDR      r0,[pc,#516] ; [0xca14] = 0x12afc
        0x0000c810:    6801        .h      LDR      r1,[r0,#0]
        0x0000c812:    2039        9       MOVS     r0,#0x39
        0x0000c814:    f001fbbc    ....    BL       am_hal_gpio_pinconfig ; 0xdf90
        0x0000c818:    487f        .H      LDR      r0,[pc,#508] ; [0xca18] = 0x12b00
        0x0000c81a:    6801        .h      LDR      r1,[r0,#0]
        0x0000c81c:    203a        :       MOVS     r0,#0x3a
        0x0000c81e:    f001fbb7    ....    BL       am_hal_gpio_pinconfig ; 0xdf90
        0x0000c822:    487e        ~H      LDR      r0,[pc,#504] ; [0xca1c] = 0x12b04
        0x0000c824:    6801        .h      LDR      r1,[r0,#0]
        0x0000c826:    203b        ;       MOVS     r0,#0x3b
        0x0000c828:    f001fbb2    ....    BL       am_hal_gpio_pinconfig ; 0xdf90
        0x0000c82c:    487c        |H      LDR      r0,[pc,#496] ; [0xca20] = 0x12b08
        0x0000c82e:    6801        .h      LDR      r1,[r0,#0]
        0x0000c830:    e8bd4010    ...@    POP      {r4,lr}
        0x0000c834:    203c        <       MOVS     r0,#0x3c
        0x0000c836:    f001bbab    ....    B.W      am_hal_gpio_pinconfig ; 0xdf90
        0x0000c83a:    4864        dH      LDR      r0,[pc,#400] ; [0xc9cc] = 0x12a4c
        0x0000c83c:    6801        .h      LDR      r1,[r0,#0]
        0x0000c83e:    203e        >       MOVS     r0,#0x3e
        0x0000c840:    f001fba6    ....    BL       am_hal_gpio_pinconfig ; 0xdf90
        0x0000c844:    485e        ^H      LDR      r0,[pc,#376] ; [0xc9c0] = 0x12a50
        0x0000c846:    6801        .h      LDR      r1,[r0,#0]
        0x0000c848:    2033        3       MOVS     r0,#0x33
        0x0000c84a:    f001fba1    ....    BL       am_hal_gpio_pinconfig ; 0xdf90
        0x0000c84e:    485d        ]H      LDR      r0,[pc,#372] ; [0xc9c4] = 0x12a54
        0x0000c850:    6801        .h      LDR      r1,[r0,#0]
        0x0000c852:    2034        4       MOVS     r0,#0x34
        0x0000c854:    f001fb9c    ....    BL       am_hal_gpio_pinconfig ; 0xdf90
        0x0000c858:    4872        rH      LDR      r0,[pc,#456] ; [0xca24] = 0x12a58
        0x0000c85a:    6801        .h      LDR      r1,[r0,#0]
        0x0000c85c:    2035        5       MOVS     r0,#0x35
        0x0000c85e:    f001fb97    ....    BL       am_hal_gpio_pinconfig ; 0xdf90
        0x0000c862:    4871        qH      LDR      r0,[pc,#452] ; [0xca28] = 0x12a5c
        0x0000c864:    6801        .h      LDR      r1,[r0,#0]
        0x0000c866:    2036        6       MOVS     r0,#0x36
        0x0000c868:    f001fb92    ....    BL       am_hal_gpio_pinconfig ; 0xdf90
        0x0000c86c:    4858        XH      LDR      r0,[pc,#352] ; [0xc9d0] = 0x12a60
        0x0000c86e:    6801        .h      LDR      r1,[r0,#0]
        0x0000c870:    2037        7       MOVS     r0,#0x37
        0x0000c872:    f001fb8d    ....    BL       am_hal_gpio_pinconfig ; 0xdf90
        0x0000c876:    4857        WH      LDR      r0,[pc,#348] ; [0xc9d4] = 0x12a64
        0x0000c878:    6801        .h      LDR      r1,[r0,#0]
        0x0000c87a:    2038        8       MOVS     r0,#0x38
        0x0000c87c:    f001fb88    ....    BL       am_hal_gpio_pinconfig ; 0xdf90
        0x0000c880:    485b        [H      LDR      r0,[pc,#364] ; [0xc9f0] = 0x12a68
        0x0000c882:    6801        .h      LDR      r1,[r0,#0]
        0x0000c884:    2039        9       MOVS     r0,#0x39
        0x0000c886:    f001fb83    ....    BL       am_hal_gpio_pinconfig ; 0xdf90
        0x0000c88a:    485a        ZH      LDR      r0,[pc,#360] ; [0xc9f4] = 0x12a6c
        0x0000c88c:    6801        .h      LDR      r1,[r0,#0]
        0x0000c88e:    203a        :       MOVS     r0,#0x3a
        0x0000c890:    f001fb7e    ..~.    BL       am_hal_gpio_pinconfig ; 0xdf90
        0x0000c894:    484c        LH      LDR      r0,[pc,#304] ; [0xc9c8] = 0x12a70
        0x0000c896:    6801        .h      LDR      r1,[r0,#0]
        0x0000c898:    203b        ;       MOVS     r0,#0x3b
        0x0000c89a:    f001fb79    ..y.    BL       am_hal_gpio_pinconfig ; 0xdf90
        0x0000c89e:    4863        cH      LDR      r0,[pc,#396] ; [0xca2c] = 0x12a74
        0x0000c8a0:    6801        .h      LDR      r1,[r0,#0]
        0x0000c8a2:    e8bd4010    ...@    POP      {r4,lr}
        0x0000c8a6:    203c        <       MOVS     r0,#0x3c
        0x0000c8a8:    f001bb72    ..r.    B.W      am_hal_gpio_pinconfig ; 0xdf90
        0x0000c8ac:    4860        `H      LDR      r0,[pc,#384] ; [0xca30] = 0x12a78
        0x0000c8ae:    6801        .h      LDR      r1,[r0,#0]
        0x0000c8b0:    203f        ?       MOVS     r0,#0x3f
        0x0000c8b2:    f001fb6d    ..m.    BL       am_hal_gpio_pinconfig ; 0xdf90
        0x0000c8b6:    485f        _H      LDR      r0,[pc,#380] ; [0xca34] = 0x12a80
        0x0000c8b8:    6801        .h      LDR      r1,[r0,#0]
        0x0000c8ba:    2040        @       MOVS     r0,#0x40
        0x0000c8bc:    f001fb68    ..h.    BL       am_hal_gpio_pinconfig ; 0xdf90
        0x0000c8c0:    485d        ]H      LDR      r0,[pc,#372] ; [0xca38] = 0x12a84
        0x0000c8c2:    6801        .h      LDR      r1,[r0,#0]
        0x0000c8c4:    2041        A       MOVS     r0,#0x41
        0x0000c8c6:    f001fb63    ..c.    BL       am_hal_gpio_pinconfig ; 0xdf90
        0x0000c8ca:    485c        \H      LDR      r0,[pc,#368] ; [0xca3c] = 0x12a90
        0x0000c8cc:    6801        .h      LDR      r1,[r0,#0]
        0x0000c8ce:    e8bd4010    ...@    POP      {r4,lr}
        0x0000c8d2:    2044        D       MOVS     r0,#0x44
        0x0000c8d4:    f001bb5c    ..\.    B.W      am_hal_gpio_pinconfig ; 0xdf90
        0x0000c8d8:    4859        YH      LDR      r0,[pc,#356] ; [0xca40] = 0x12a7c
        0x0000c8da:    6801        .h      LDR      r1,[r0,#0]
        0x0000c8dc:    203d        =       MOVS     r0,#0x3d
        0x0000c8de:    f001fb57    ..W.    BL       am_hal_gpio_pinconfig ; 0xdf90
        0x0000c8e2:    4854        TH      LDR      r0,[pc,#336] ; [0xca34] = 0x12a80
        0x0000c8e4:    6801        .h      LDR      r1,[r0,#0]
        0x0000c8e6:    2040        @       MOVS     r0,#0x40
        0x0000c8e8:    f001fb52    ..R.    BL       am_hal_gpio_pinconfig ; 0xdf90
        0x0000c8ec:    4852        RH      LDR      r0,[pc,#328] ; [0xca38] = 0x12a84
        0x0000c8ee:    6801        .h      LDR      r1,[r0,#0]
        0x0000c8f0:    2041        A       MOVS     r0,#0x41
        0x0000c8f2:    f001fb4d    ..M.    BL       am_hal_gpio_pinconfig ; 0xdf90
        0x0000c8f6:    4851        QH      LDR      r0,[pc,#324] ; [0xca3c] = 0x12a90
        0x0000c8f8:    6801        .h      LDR      r1,[r0,#0]
        0x0000c8fa:    e8bd4010    ...@    POP      {r4,lr}
        0x0000c8fe:    2044        D       MOVS     r0,#0x44
        0x0000c900:    f001bb46    ..F.    B.W      am_hal_gpio_pinconfig ; 0xdf90
        0x0000c904:    484f        OH      LDR      r0,[pc,#316] ; [0xca44] = 0x12ac8
        0x0000c906:    6801        .h      LDR      r1,[r0,#0]
        0x0000c908:    203f        ?       MOVS     r0,#0x3f
        0x0000c90a:    f001fb41    ..A.    BL       am_hal_gpio_pinconfig ; 0xdf90
        0x0000c90e:    484e        NH      LDR      r0,[pc,#312] ; [0xca48] = 0x12acc
        0x0000c910:    6801        .h      LDR      r1,[r0,#0]
        0x0000c912:    2040        @       MOVS     r0,#0x40
        0x0000c914:    f001fb3c    ..<.    BL       am_hal_gpio_pinconfig ; 0xdf90
        0x0000c918:    484c        LH      LDR      r0,[pc,#304] ; [0xca4c] = 0x12ad0
        0x0000c91a:    6801        .h      LDR      r1,[r0,#0]
        0x0000c91c:    2041        A       MOVS     r0,#0x41
        0x0000c91e:    f001fb37    ..7.    BL       am_hal_gpio_pinconfig ; 0xdf90
        0x0000c922:    484b        KH      LDR      r0,[pc,#300] ; [0xca50] = 0x12ad4
        0x0000c924:    6801        .h      LDR      r1,[r0,#0]
        0x0000c926:    2042        B       MOVS     r0,#0x42
        0x0000c928:    f001fb32    ..2.    BL       am_hal_gpio_pinconfig ; 0xdf90
        0x0000c92c:    4849        IH      LDR      r0,[pc,#292] ; [0xca54] = 0x12ad8
        0x0000c92e:    6801        .h      LDR      r1,[r0,#0]
        0x0000c930:    2043        C       MOVS     r0,#0x43
        0x0000c932:    f001fb2d    ..-.    BL       am_hal_gpio_pinconfig ; 0xdf90
        0x0000c936:    4848        HH      LDR      r0,[pc,#288] ; [0xca58] = 0x12adc
        0x0000c938:    6801        .h      LDR      r1,[r0,#0]
        0x0000c93a:    e8bd4010    ...@    POP      {r4,lr}
        0x0000c93e:    2044        D       MOVS     r0,#0x44
        0x0000c940:    f001bb26    ..&.    B.W      am_hal_gpio_pinconfig ; 0xdf90
        0x0000c944:    483e        >H      LDR      r0,[pc,#248] ; [0xca40] = 0x12a7c
        0x0000c946:    6801        .h      LDR      r1,[r0,#0]
        0x0000c948:    203d        =       MOVS     r0,#0x3d
        0x0000c94a:    f001fb21    ..!.    BL       am_hal_gpio_pinconfig ; 0xdf90
        0x0000c94e:    4839        9H      LDR      r0,[pc,#228] ; [0xca34] = 0x12a80
        0x0000c950:    6801        .h      LDR      r1,[r0,#0]
        0x0000c952:    2040        @       MOVS     r0,#0x40
        0x0000c954:    f001fb1c    ....    BL       am_hal_gpio_pinconfig ; 0xdf90
        0x0000c958:    4837        7H      LDR      r0,[pc,#220] ; [0xca38] = 0x12a84
        0x0000c95a:    6801        .h      LDR      r1,[r0,#0]
        0x0000c95c:    2041        A       MOVS     r0,#0x41
        0x0000c95e:    f001fb17    ....    BL       am_hal_gpio_pinconfig ; 0xdf90
        0x0000c962:    483e        >H      LDR      r0,[pc,#248] ; [0xca5c] = 0x12a88
        0x0000c964:    6801        .h      LDR      r1,[r0,#0]
        0x0000c966:    2042        B       MOVS     r0,#0x42
        0x0000c968:    f001fb12    ....    BL       am_hal_gpio_pinconfig ; 0xdf90
        0x0000c96c:    483c        <H      LDR      r0,[pc,#240] ; [0xca60] = 0x12a8c
        0x0000c96e:    6801        .h      LDR      r1,[r0,#0]
        0x0000c970:    2043        C       MOVS     r0,#0x43
        0x0000c972:    f001fb0d    ....    BL       am_hal_gpio_pinconfig ; 0xdf90
        0x0000c976:    4831        1H      LDR      r0,[pc,#196] ; [0xca3c] = 0x12a90
        0x0000c978:    6801        .h      LDR      r1,[r0,#0]
        0x0000c97a:    e8bd4010    ...@    POP      {r4,lr}
        0x0000c97e:    2044        D       MOVS     r0,#0x44
        0x0000c980:    f001bb06    ....    B.W      am_hal_gpio_pinconfig ; 0xdf90
        0x0000c984:    bd10        ..      POP      {r4,pc}
    $d
        0x0000c986:    0000        ..      DCW    0
        0x0000c988:    00012a2c    ,*..    DCD    76332
        0x0000c98c:    00012a34    4*..    DCD    76340
        0x0000c990:    00012a38    8*..    DCD    76344
        0x0000c994:    00012a44    D*..    DCD    76356
        0x0000c998:    00012a30    0*..    DCD    76336
        0x0000c99c:    00012a98    .*..    DCD    76440
        0x0000c9a0:    00012a9c    .*..    DCD    76444
        0x0000c9a4:    00012aa0    .*..    DCD    76448
        0x0000c9a8:    00012aa4    .*..    DCD    76452
        0x0000c9ac:    00012aa8    .*..    DCD    76456
        0x0000c9b0:    00012aac    .*..    DCD    76460
        0x0000c9b4:    00012a3c    <*..    DCD    76348
        0x0000c9b8:    00012a40    @*..    DCD    76352
        0x0000c9bc:    00012a48    H*..    DCD    76360
        0x0000c9c0:    00012a50    P*..    DCD    76368
        0x0000c9c4:    00012a54    T*..    DCD    76372
        0x0000c9c8:    00012a70    p*..    DCD    76400
        0x0000c9cc:    00012a4c    L*..    DCD    76364
        0x0000c9d0:    00012a60    `*..    DCD    76384
        0x0000c9d4:    00012a64    d*..    DCD    76388
        0x0000c9d8:    00012ab0    .*..    DCD    76464
        0x0000c9dc:    00012ab4    .*..    DCD    76468
        0x0000c9e0:    00012ab8    .*..    DCD    76472
        0x0000c9e4:    00012abc    .*..    DCD    76476
        0x0000c9e8:    00012ac0    .*..    DCD    76480
        0x0000c9ec:    00012ac4    .*..    DCD    76484
        0x0000c9f0:    00012a68    h*..    DCD    76392
        0x0000c9f4:    00012a6c    l*..    DCD    76396
        0x0000c9f8:    00012ae0    .*..    DCD    76512
        0x0000c9fc:    00012ae4    .*..    DCD    76516
        0x0000ca00:    00012ae8    .*..    DCD    76520
        0x0000ca04:    00012aec    .*..    DCD    76524
        0x0000ca08:    00012af0    .*..    DCD    76528
        0x0000ca0c:    00012af4    .*..    DCD    76532
        0x0000ca10:    00012af8    .*..    DCD    76536
        0x0000ca14:    00012afc    .*..    DCD    76540
        0x0000ca18:    00012b00    .+..    DCD    76544
        0x0000ca1c:    00012b04    .+..    DCD    76548
        0x0000ca20:    00012b08    .+..    DCD    76552
        0x0000ca24:    00012a58    X*..    DCD    76376
        0x0000ca28:    00012a5c    \*..    DCD    76380
        0x0000ca2c:    00012a74    t*..    DCD    76404
        0x0000ca30:    00012a78    x*..    DCD    76408
        0x0000ca34:    00012a80    .*..    DCD    76416
        0x0000ca38:    00012a84    .*..    DCD    76420
        0x0000ca3c:    00012a90    .*..    DCD    76432
        0x0000ca40:    00012a7c    |*..    DCD    76412
        0x0000ca44:    00012ac8    .*..    DCD    76488
        0x0000ca48:    00012acc    .*..    DCD    76492
        0x0000ca4c:    00012ad0    .*..    DCD    76496
        0x0000ca50:    00012ad4    .*..    DCD    76500
        0x0000ca54:    00012ad8    .*..    DCD    76504
        0x0000ca58:    00012adc    .*..    DCD    76508
        0x0000ca5c:    00012a88    .*..    DCD    76424
        0x0000ca60:    00012a8c    .*..    DCD    76428
    $t
    i.am_ctimer_isr
    am_ctimer_isr
        0x0000ca64:    b510        ..      PUSH     {r4,lr}
        0x0000ca66:    2000        .       MOVS     r0,#0
        0x0000ca68:    f001f9a6    ....    BL       am_hal_ctimer_int_status_get ; 0xddb8
        0x0000ca6c:    4604        .F      MOV      r4,r0
        0x0000ca6e:    f001f883    ....    BL       am_hal_ctimer_int_clear ; 0xdb78
        0x0000ca72:    4620         F      MOV      r0,r4
        0x0000ca74:    e8bd4010    ...@    POP      {r4,lr}
        0x0000ca78:    f001b984    ....    B.W      am_hal_ctimer_int_service ; 0xdd84
    i.am_devices_mspi_psram_aps6404l_reset
    am_devices_mspi_psram_aps6404l_reset
        0x0000ca7c:    b5f0        ..      PUSH     {r4-r7,lr}
        0x0000ca7e:    b087        ..      SUB      sp,sp,#0x1c
        0x0000ca80:    2300        .#      MOVS     r3,#0
        0x0000ca82:    2501        .%      MOVS     r5,#1
        0x0000ca84:    f88d3004    ...0    STRB     r3,[sp,#4]
        0x0000ca88:    f88d3010    ...0    STRB     r3,[sp,#0x10]
        0x0000ca8c:    2266        f"      MOVS     r2,#0x66
        0x0000ca8e:    a906        ..      ADD      r1,sp,#0x18
        0x0000ca90:    9300        ..      STR      r3,[sp,#0]
        0x0000ca92:    f88d5006    ...P    STRB     r5,[sp,#6]
        0x0000ca96:    f88d500c    ...P    STRB     r5,[sp,#0xc]
        0x0000ca9a:    f88d3011    ...0    STRB     r3,[sp,#0x11]
        0x0000ca9e:    4f1d        .O      LDR      r7,[pc,#116] ; [0xcb14] = 0xf4240
        0x0000caa0:    f88d3007    ...0    STRB     r3,[sp,#7]
        0x0000caa4:    f8ad200e    ...     STRH     r2,[sp,#0xe]
        0x0000caa8:    f88d3013    ...0    STRB     r3,[sp,#0x13]
        0x0000caac:    9105        ..      STR      r1,[sp,#0x14]
        0x0000caae:    4606        .F      MOV      r6,r0
        0x0000cab0:    461c        .F      MOV      r4,r3
        0x0000cab2:    9302        ..      STR      r3,[sp,#8]
        0x0000cab4:    f88d3005    ...0    STRB     r3,[sp,#5]
        0x0000cab8:    f88d3012    ...0    STRB     r3,[sp,#0x12]
        0x0000cabc:    463a        :F      MOV      r2,r7
        0x0000cabe:    4669        iF      MOV      r1,sp
        0x0000cac0:    f001fd68    ..h.    BL       am_hal_mspi_blocking_transfer ; 0xe594
        0x0000cac4:    bb10        ..      CBNZ     r0,0xcb0c ; am_devices_mspi_psram_aps6404l_reset + 144
        0x0000cac6:    2300        .#      MOVS     r3,#0
        0x0000cac8:    f88d4004    ...@    STRB     r4,[sp,#4]
        0x0000cacc:    f88d4010    ...@    STRB     r4,[sp,#0x10]
        0x0000cad0:    2299        ."      MOVS     r2,#0x99
        0x0000cad2:    a906        ..      ADD      r1,sp,#0x18
        0x0000cad4:    9300        ..      STR      r3,[sp,#0]
        0x0000cad6:    f88d5006    ...P    STRB     r5,[sp,#6]
        0x0000cada:    f88d500c    ...P    STRB     r5,[sp,#0xc]
        0x0000cade:    f88d4011    ...@    STRB     r4,[sp,#0x11]
        0x0000cae2:    f88d4007    ...@    STRB     r4,[sp,#7]
        0x0000cae6:    f8ad200e    ...     STRH     r2,[sp,#0xe]
        0x0000caea:    f88d4013    ...@    STRB     r4,[sp,#0x13]
        0x0000caee:    9105        ..      STR      r1,[sp,#0x14]
        0x0000caf0:    4630        0F      MOV      r0,r6
        0x0000caf2:    9402        ..      STR      r4,[sp,#8]
        0x0000caf4:    f88d4005    ...@    STRB     r4,[sp,#5]
        0x0000caf8:    f88d4012    ...@    STRB     r4,[sp,#0x12]
        0x0000cafc:    463a        :F      MOV      r2,r7
        0x0000cafe:    4669        iF      MOV      r1,sp
        0x0000cb00:    f001fd48    ..H.    BL       am_hal_mspi_blocking_transfer ; 0xe594
        0x0000cb04:    2800        .(      CMP      r0,#0
        0x0000cb06:    bf04        ..      ITT      EQ
        0x0000cb08:    b007        ..      ADDEQ    sp,sp,#0x1c
        0x0000cb0a:    bdf0        ..      POPEQ    {r4-r7,pc}
        0x0000cb0c:    2001        .       MOVS     r0,#1
        0x0000cb0e:    b007        ..      ADD      sp,sp,#0x1c
        0x0000cb10:    bdf0        ..      POP      {r4-r7,pc}
    $d
        0x0000cb12:    0000        ..      DCW    0
        0x0000cb14:    000f4240    @B..    DCD    1000000
    $t
    i.am_devices_mspi_psram_enable_xip
    am_devices_mspi_psram_enable_xip
        0x0000cb18:    b510        ..      PUSH     {r4,lr}
        0x0000cb1a:    6840        @h      LDR      r0,[r0,#4]
        0x0000cb1c:    2200        ."      MOVS     r2,#0
        0x0000cb1e:    210d        .!      MOVS     r1,#0xd
        0x0000cb20:    f001fe5c    ..\.    BL       am_hal_mspi_control ; 0xe7dc
        0x0000cb24:    2800        .(      CMP      r0,#0
        0x0000cb26:    bf18        ..      IT       NE
        0x0000cb28:    2001        .       MOVNE    r0,#1
        0x0000cb2a:    bd10        ..      POP      {r4,pc}
    i.am_devices_mspi_psram_init
    am_devices_mspi_psram_init
        0x0000cb2c:    e92d4fff    -..O    PUSH     {r0-r11,lr}
        0x0000cb30:    2500        .%      MOVS     r5,#0
        0x0000cb32:    b097        ..      SUB      sp,sp,#0x5c
        0x0000cb34:    4690        .F      MOV      r8,r2
        0x0000cb36:    460c        .F      MOV      r4,r1
        0x0000cb38:    4607        .F      MOV      r7,r0
        0x0000cb3a:    2803        .(      CMP      r0,#3
        0x0000cb3c:    f200814f    ..O.    BHI.W    0xcdde ; am_devices_mspi_psram_init + 690
        0x0000cb40:    2c00        .,      CMP      r4,#0
        0x0000cb42:    f000814c    ..L.    BEQ.W    0xcdde ; am_devices_mspi_psram_init + 690
        0x0000cb46:    2100        .!      MOVS     r1,#0
        0x0000cb48:    4608        .F      MOV      r0,r1
        0x0000cb4a:    f001fbdd    ....    BL       am_hal_mcuctrl_control ; 0xe308
        0x0000cb4e:    4ed5        .N      LDR      r6,[pc,#852] ; [0xcea4] = 0x100159b8
        0x0000cb50:    eb050045    ..E.    ADD      r0,r5,r5,LSL #1
        0x0000cb54:    eb060080    ....    ADD      r0,r6,r0,LSL #2
        0x0000cb58:    7a40        @z      LDRB     r0,[r0,#9]
        0x0000cb5a:    2800        .(      CMP      r0,#0
        0x0000cb5c:    bf1c        ..      ITT      NE
        0x0000cb5e:    1c6d        m.      ADDNE    r5,r5,#1
        0x0000cb60:    2d02        .-      CMPNE    r5,#2
        0x0000cb62:    d3f5        ..      BCC      0xcb50 ; am_devices_mspi_psram_init + 36
        0x0000cb64:    2d02        .-      CMP      r5,#2
        0x0000cb66:    f000813a    ..:.    BEQ.W    0xcdde ; am_devices_mspi_psram_init + 690
        0x0000cb6a:    7820         x      LDRB     r0,[r4,#0]
        0x0000cb6c:    49ce        .I      LDR      r1,[pc,#824] ; [0xcea8] = 0x1001108c
        0x0000cb6e:    2805        .(      CMP      r0,#5
        0x0000cb70:    d02c        ,.      BEQ      0xcbcc ; am_devices_mspi_psram_init + 160
        0x0000cb72:    dc06        ..      BGT      0xcb82 ; am_devices_mspi_psram_init + 86
        0x0000cb74:    b158        X.      CBZ      r0,0xcb8e ; am_devices_mspi_psram_init + 98
        0x0000cb76:    2801        .(      CMP      r0,#1
        0x0000cb78:    d012        ..      BEQ      0xcba0 ; am_devices_mspi_psram_init + 116
        0x0000cb7a:    2804        .(      CMP      r0,#4
        0x0000cb7c:    d01b        ..      BEQ      0xcbb6 ; am_devices_mspi_psram_init + 138
        0x0000cb7e:    f000b92e    ....    B.W      0xcdde ; am_devices_mspi_psram_init + 690
        0x0000cb82:    2810        .(      CMP      r0,#0x10
        0x0000cb84:    d017        ..      BEQ      0xcbb6 ; am_devices_mspi_psram_init + 138
        0x0000cb86:    2811        .(      CMP      r0,#0x11
        0x0000cb88:    d020         .      BEQ      0xcbcc ; am_devices_mspi_psram_init + 160
        0x0000cb8a:    f000b928    ..(.    B.W      0xcdde ; am_devices_mspi_psram_init + 690
        0x0000cb8e:    e8915e0d    ...^    LDM      r1,{r0,r2,r3,r9-r12,lr}
        0x0000cb92:    e9cd0202    ....    STRD     r0,r2,[sp,#8]
        0x0000cb96:    a804        ..      ADD      r0,sp,#0x10
        0x0000cb98:    e8805e08    ...^    STM      r0,{r3,r9-r12,lr}
        0x0000cb9c:    6a08        .j      LDR      r0,[r1,#0x20]
        0x0000cb9e:    e020         .      B        0xcbe2 ; am_devices_mspi_psram_init + 182
        0x0000cba0:    f1010024    ..$.    ADD      r0,r1,#0x24
        0x0000cba4:    e8905e0d    ...^    LDM      r0,{r0,r2,r3,r9-r12,lr}
        0x0000cba8:    e9cd0202    ....    STRD     r0,r2,[sp,#8]
        0x0000cbac:    a804        ..      ADD      r0,sp,#0x10
        0x0000cbae:    e8805e08    ...^    STM      r0,{r3,r9-r12,lr}
        0x0000cbb2:    6c48        Hl      LDR      r0,[r1,#0x44]
        0x0000cbb4:    e015        ..      B        0xcbe2 ; am_devices_mspi_psram_init + 182
        0x0000cbb6:    f1010048    ..H.    ADD      r0,r1,#0x48
        0x0000cbba:    e8905e0d    ...^    LDM      r0,{r0,r2,r3,r9-r12,lr}
        0x0000cbbe:    e9cd0202    ....    STRD     r0,r2,[sp,#8]
        0x0000cbc2:    a804        ..      ADD      r0,sp,#0x10
        0x0000cbc4:    e8805e08    ...^    STM      r0,{r3,r9-r12,lr}
        0x0000cbc8:    6e88        .n      LDR      r0,[r1,#0x68]
        0x0000cbca:    e00a        ..      B        0xcbe2 ; am_devices_mspi_psram_init + 182
        0x0000cbcc:    f101006c    ..l.    ADD      r0,r1,#0x6c
        0x0000cbd0:    e8905e0d    ...^    LDM      r0,{r0,r2,r3,r9-r12,lr}
        0x0000cbd4:    e9cd0202    ....    STRD     r0,r2,[sp,#8]
        0x0000cbd8:    a804        ..      ADD      r0,sp,#0x10
        0x0000cbda:    e8805e08    ...^    STM      r0,{r3,r9-r12,lr}
        0x0000cbde:    f8d1008c    ....    LDR      r0,[r1,#0x8c]
        0x0000cbe2:    900a        ..      STR      r0,[sp,#0x28]
        0x0000cbe4:    7820         x      LDRB     r0,[r4,#0]
        0x0000cbe6:    f88d000d    ....    STRB     r0,[sp,#0xd]
        0x0000cbea:    7861        ax      LDRB     r1,[r4,#1]
        0x0000cbec:    f88d1010    ....    STRB     r1,[sp,#0x10]
        0x0000cbf0:    68a1        .h      LDR      r1,[r4,#8]
        0x0000cbf2:    9107        ..      STR      r1,[sp,#0x1c]
        0x0000cbf4:    6861        ah      LDR      r1,[r4,#4]
        0x0000cbf6:    9108        ..      STR      r1,[sp,#0x20]
        0x0000cbf8:    68e1        .h      LDR      r1,[r4,#0xc]
        0x0000cbfa:    9109        ..      STR      r1,[sp,#0x24]
        0x0000cbfc:    6921        !i      LDR      r1,[r4,#0x10]
        0x0000cbfe:    910a        ..      STR      r1,[sp,#0x28]
        0x0000cc00:    2805        .(      CMP      r0,#5
        0x0000cc02:    d012        ..      BEQ      0xcc2a ; am_devices_mspi_psram_init + 254
        0x0000cc04:    dc06        ..      BGT      0xcc14 ; am_devices_mspi_psram_init + 232
        0x0000cc06:    b158        X.      CBZ      r0,0xcc20 ; am_devices_mspi_psram_init + 244
        0x0000cc08:    2801        .(      CMP      r0,#1
        0x0000cc0a:    d00e        ..      BEQ      0xcc2a ; am_devices_mspi_psram_init + 254
        0x0000cc0c:    2804        .(      CMP      r0,#4
        0x0000cc0e:    d007        ..      BEQ      0xcc20 ; am_devices_mspi_psram_init + 244
        0x0000cc10:    f000b8e5    ....    B.W      0xcdde ; am_devices_mspi_psram_init + 690
        0x0000cc14:    2810        .(      CMP      r0,#0x10
        0x0000cc16:    d003        ..      BEQ      0xcc20 ; am_devices_mspi_psram_init + 244
        0x0000cc18:    2811        .(      CMP      r0,#0x11
        0x0000cc1a:    d006        ..      BEQ      0xcc2a ; am_devices_mspi_psram_init + 254
        0x0000cc1c:    f000b8df    ....    B.W      0xcdde ; am_devices_mspi_psram_init + 690
        0x0000cc20:    f8df9288    ....    LDR      r9,[pc,#648] ; [0xceac] = 0x100110d4
        0x0000cc24:    f1a90a48    ..H.    SUB      r10,r9,#0x48
        0x0000cc28:    e003        ..      B        0xcc32 ; am_devices_mspi_psram_init + 262
        0x0000cc2a:    f8df9284    ....    LDR      r9,[pc,#644] ; [0xceb0] = 0x100110f8
        0x0000cc2e:    f1a90a48    ..H.    SUB      r10,r9,#0x48
        0x0000cc32:    7820         x      LDRB     r0,[r4,#0]
        0x0000cc34:    f8890005    ....    STRB     r0,[r9,#5]
        0x0000cc38:    4669        iF      MOV      r1,sp
        0x0000cc3a:    4638        8F      MOV      r0,r7
        0x0000cc3c:    f002fc64    ..d.    BL       am_hal_mspi_initialize ; 0xf508
        0x0000cc40:    b130        0.      CBZ      r0,0xcc50 ; am_devices_mspi_psram_init + 292
        0x0000cc42:    a09c        ..      ADR      r0,{pc}+0x272 ; 0xceb4
        0x0000cc44:    f003fa36    ..6.    BL       am_util_stdio_printf ; 0x100b4
        0x0000cc48:    b01b        ..      ADD      sp,sp,#0x6c
        0x0000cc4a:    2001        .       MOVS     r0,#1
        0x0000cc4c:    e8bd8ff0    ....    POP      {r4-r11,pc}
        0x0000cc50:    2200        ."      MOVS     r2,#0
        0x0000cc52:    4611        .F      MOV      r1,r2
        0x0000cc54:    9800        ..      LDR      r0,[sp,#0]
        0x0000cc56:    f002fee5    ....    BL       am_hal_mspi_power_control ; 0xfa24
        0x0000cc5a:    b130        0.      CBZ      r0,0xcc6a ; am_devices_mspi_psram_init + 318
        0x0000cc5c:    a09e        ..      ADR      r0,{pc}+0x27c ; 0xced8
        0x0000cc5e:    f003fa29    ..).    BL       am_util_stdio_printf ; 0x100b4
        0x0000cc62:    b01b        ..      ADD      sp,sp,#0x6c
        0x0000cc64:    2001        .       MOVS     r0,#1
        0x0000cc66:    e8bd8ff0    ....    POP      {r4-r11,pc}
        0x0000cc6a:    4649        IF      MOV      r1,r9
        0x0000cc6c:    9800        ..      LDR      r0,[sp,#0]
        0x0000cc6e:    f002fa1b    ....    BL       am_hal_mspi_device_configure ; 0xf0a8
        0x0000cc72:    b130        0.      CBZ      r0,0xcc82 ; am_devices_mspi_psram_init + 342
        0x0000cc74:    a0a1        ..      ADR      r0,{pc}+0x288 ; 0xcefc
        0x0000cc76:    f003fa1d    ....    BL       am_util_stdio_printf ; 0x100b4
        0x0000cc7a:    b01b        ..      ADD      sp,sp,#0x6c
        0x0000cc7c:    2001        .       MOVS     r0,#1
        0x0000cc7e:    e8bd8ff0    ....    POP      {r4-r11,pc}
        0x0000cc82:    9800        ..      LDR      r0,[sp,#0]
        0x0000cc84:    f002fb78    ..x.    BL       am_hal_mspi_enable ; 0xf378
        0x0000cc88:    2800        .(      CMP      r0,#0
        0x0000cc8a:    d15a        Z.      BNE      0xcd42 ; am_devices_mspi_psram_init + 534
        0x0000cc8c:    f8991005    ....    LDRB     r1,[r9,#5]
        0x0000cc90:    4638        8F      MOV      r0,r7
        0x0000cc92:    f7fffc85    ....    BL       am_bsp_mspi_pins_enable ; 0xc5a0
        0x0000cc96:    2096        .       MOVS     r0,#0x96
        0x0000cc98:    f003f9a0    ....    BL       am_util_delay_us ; 0xffdc
        0x0000cc9c:    9800        ..      LDR      r0,[sp,#0]
        0x0000cc9e:    f7fffeed    ....    BL       am_devices_mspi_psram_aps6404l_reset ; 0xca7c
        0x0000cca2:    2800        .(      CMP      r0,#0
        0x0000cca4:    d17e        ~.      BNE      0xcda4 ; am_devices_mspi_psram_init + 632
        0x0000cca6:    f89d000d    ....    LDRB     r0,[sp,#0xd]
        0x0000ccaa:    f8dfb27c    ..|.    LDR      r11,[pc,#636] ; [0xcf28] = 0xf4240
        0x0000ccae:    2400        .$      MOVS     r4,#0
        0x0000ccb0:    f04f0901    O...    MOV      r9,#1
        0x0000ccb4:    2805        .(      CMP      r0,#5
        0x0000ccb6:    d00b        ..      BEQ      0xccd0 ; am_devices_mspi_psram_init + 420
        0x0000ccb8:    dc06        ..      BGT      0xccc8 ; am_devices_mspi_psram_init + 412
        0x0000ccba:    2800        .(      CMP      r0,#0
        0x0000ccbc:    bf18        ..      IT       NE
        0x0000ccbe:    2801        .(      CMPNE    r0,#1
        0x0000ccc0:    d02a        *.      BEQ      0xcd18 ; am_devices_mspi_psram_init + 492
        0x0000ccc2:    2804        .(      CMP      r0,#4
        0x0000ccc4:    d004        ..      BEQ      0xccd0 ; am_devices_mspi_psram_init + 420
        0x0000ccc6:    e08a        ..      B        0xcdde ; am_devices_mspi_psram_init + 690
        0x0000ccc8:    2810        .(      CMP      r0,#0x10
        0x0000ccca:    bf18        ..      IT       NE
        0x0000cccc:    2811        .(      CMPNE    r0,#0x11
        0x0000ccce:    d169        i.      BNE      0xcda4 ; am_devices_mspi_psram_init + 632
        0x0000ccd0:    9b00        ..      LDR      r3,[sp,#0]
        0x0000ccd2:    f04f0200    O...    MOV      r2,#0
        0x0000ccd6:    920e        ..      STR      r2,[sp,#0x38]
        0x0000ccd8:    f88d403c    ..<@    STRB     r4,[sp,#0x3c]
        0x0000ccdc:    f88d4048    ..H@    STRB     r4,[sp,#0x48]
        0x0000cce0:    f04f00f5    O...    MOV      r0,#0xf5
        0x0000cce4:    a90d        ..      ADD      r1,sp,#0x34
        0x0000cce6:    f88d903e    ..>.    STRB     r9,[sp,#0x3e]
        0x0000ccea:    f88d9044    ..D.    STRB     r9,[sp,#0x44]
        0x0000ccee:    f88d4049    ..I@    STRB     r4,[sp,#0x49]
        0x0000ccf2:    f88d403f    ..?@    STRB     r4,[sp,#0x3f]
        0x0000ccf6:    f8ad0046    ..F.    STRH     r0,[sp,#0x46]
        0x0000ccfa:    f88d404b    ..K@    STRB     r4,[sp,#0x4b]
        0x0000ccfe:    9113        ..      STR      r1,[sp,#0x4c]
        0x0000cd00:    9410        ..      STR      r4,[sp,#0x40]
        0x0000cd02:    f88d403d    ..=@    STRB     r4,[sp,#0x3d]
        0x0000cd06:    f88d404a    ..J@    STRB     r4,[sp,#0x4a]
        0x0000cd0a:    465a        ZF      MOV      r2,r11
        0x0000cd0c:    a90e        ..      ADD      r1,sp,#0x38
        0x0000cd0e:    4618        .F      MOV      r0,r3
        0x0000cd10:    f001fc40    ..@.    BL       am_hal_mspi_blocking_transfer ; 0xe594
        0x0000cd14:    2800        .(      CMP      r0,#0
        0x0000cd16:    d162        b.      BNE      0xcdde ; am_devices_mspi_psram_init + 690
        0x0000cd18:    9800        ..      LDR      r0,[sp,#0]
        0x0000cd1a:    f002faf7    ....    BL       am_hal_mspi_disable ; 0xf30c
        0x0000cd1e:    2800        .(      CMP      r0,#0
        0x0000cd20:    d15d        ].      BNE      0xcdde ; am_devices_mspi_psram_init + 690
        0x0000cd22:    4651        QF      MOV      r1,r10
        0x0000cd24:    9800        ..      LDR      r0,[sp,#0]
        0x0000cd26:    f002f9bf    ....    BL       am_hal_mspi_device_configure ; 0xf0a8
        0x0000cd2a:    b130        0.      CBZ      r0,0xcd3a ; am_devices_mspi_psram_init + 526
        0x0000cd2c:    a07f        ..      ADR      r0,{pc}+0x200 ; 0xcf2c
        0x0000cd2e:    f003f9c1    ....    BL       am_util_stdio_printf ; 0x100b4
        0x0000cd32:    b01b        ..      ADD      sp,sp,#0x6c
        0x0000cd34:    2001        .       MOVS     r0,#1
        0x0000cd36:    e8bd8ff0    ....    POP      {r4-r11,pc}
        0x0000cd3a:    9800        ..      LDR      r0,[sp,#0]
        0x0000cd3c:    f002fb1c    ....    BL       am_hal_mspi_enable ; 0xf378
        0x0000cd40:    b130        0.      CBZ      r0,0xcd50 ; am_devices_mspi_psram_init + 548
        0x0000cd42:    a083        ..      ADR      r0,{pc}+0x20e ; 0xcf50
        0x0000cd44:    f003f9b6    ....    BL       am_util_stdio_printf ; 0x100b4
        0x0000cd48:    b01b        ..      ADD      sp,sp,#0x6c
        0x0000cd4a:    2001        .       MOVS     r0,#1
        0x0000cd4c:    e8bd8ff0    ....    POP      {r4-r11,pc}
        0x0000cd50:    2096        .       MOVS     r0,#0x96
        0x0000cd52:    f003f943    ..C.    BL       am_util_delay_us ; 0xffdc
        0x0000cd56:    9800        ..      LDR      r0,[sp,#0]
        0x0000cd58:    f7fffe90    ....    BL       am_devices_mspi_psram_aps6404l_reset ; 0xca7c
        0x0000cd5c:    bb10        ..      CBNZ     r0,0xcda4 ; am_devices_mspi_psram_init + 632
        0x0000cd5e:    9800        ..      LDR      r0,[sp,#0]
        0x0000cd60:    2305        .#      MOVS     r3,#5
        0x0000cd62:    940e        ..      STR      r4,[sp,#0x38]
        0x0000cd64:    e9cd430f    ...C    STRD     r4,r3,[sp,#0x3c]
        0x0000cd68:    f88d4044    ..D@    STRB     r4,[sp,#0x44]
        0x0000cd6c:    f88d4050    ..P@    STRB     r4,[sp,#0x50]
        0x0000cd70:    219f        .!      MOVS     r1,#0x9f
        0x0000cd72:    aa0e        ..      ADD      r2,sp,#0x38
        0x0000cd74:    f88d4046    ..F@    STRB     r4,[sp,#0x46]
        0x0000cd78:    f88d904c    ..L.    STRB     r9,[sp,#0x4c]
        0x0000cd7c:    f88d4051    ..Q@    STRB     r4,[sp,#0x51]
        0x0000cd80:    f88d4047    ..G@    STRB     r4,[sp,#0x47]
        0x0000cd84:    f8ad104e    ..N.    STRH     r1,[sp,#0x4e]
        0x0000cd88:    f88d4053    ..S@    STRB     r4,[sp,#0x53]
        0x0000cd8c:    9215        ..      STR      r2,[sp,#0x54]
        0x0000cd8e:    9412        ..      STR      r4,[sp,#0x48]
        0x0000cd90:    f88d4045    ..E@    STRB     r4,[sp,#0x45]
        0x0000cd94:    f88d4052    ..R@    STRB     r4,[sp,#0x52]
        0x0000cd98:    4a63        cJ      LDR      r2,[pc,#396] ; [0xcf28] = 0xf4240
        0x0000cd9a:    a910        ..      ADD      r1,sp,#0x40
        0x0000cd9c:    f001fbfa    ....    BL       am_hal_mspi_blocking_transfer ; 0xe594
        0x0000cda0:    4683        .F      MOV      r11,r0
        0x0000cda2:    e000        ..      B        0xcda6 ; am_devices_mspi_psram_init + 634
        0x0000cda4:    e01b        ..      B        0xcdde ; am_devices_mspi_psram_init + 690
        0x0000cda6:    980e        ..      LDR      r0,[sp,#0x38]
        0x0000cda8:    990f        ..      LDR      r1,[sp,#0x3c]
        0x0000cdaa:    0e00        ..      LSRS     r0,r0,#24
        0x0000cdac:    b2c9        ..      UXTB     r1,r1
        0x0000cdae:    ea402a01    @..*    ORR      r10,r0,r1,LSL #8
        0x0000cdb2:    4651        QF      MOV      r1,r10
        0x0000cdb4:    a06e        n.      ADR      r0,{pc}+0x1bc ; 0xcf70
        0x0000cdb6:    f003f97d    ..}.    BL       am_util_stdio_printf ; 0x100b4
        0x0000cdba:    f5aa40ba    ...@    SUB      r0,r10,#0x5d00
        0x0000cdbe:    380d        .8      SUBS     r0,r0,#0xd
        0x0000cdc0:    bf08        ..      IT       EQ
        0x0000cdc2:    f1bb0f00    ....    CMPEQ    r11,#0
        0x0000cdc6:    d10a        ..      BNE      0xcdde ; am_devices_mspi_psram_init + 690
        0x0000cdc8:    f89d000d    ....    LDRB     r0,[sp,#0xd]
        0x0000cdcc:    2805        .(      CMP      r0,#5
        0x0000cdce:    d00e        ..      BEQ      0xcdee ; am_devices_mspi_psram_init + 706
        0x0000cdd0:    dc09        ..      BGT      0xcde6 ; am_devices_mspi_psram_init + 698
        0x0000cdd2:    2800        .(      CMP      r0,#0
        0x0000cdd4:    bf18        ..      IT       NE
        0x0000cdd6:    2801        .(      CMPNE    r0,#1
        0x0000cdd8:    d02c        ,.      BEQ      0xce34 ; am_devices_mspi_psram_init + 776
        0x0000cdda:    2804        .(      CMP      r0,#4
        0x0000cddc:    d007        ..      BEQ      0xcdee ; am_devices_mspi_psram_init + 706
        0x0000cdde:    b01b        ..      ADD      sp,sp,#0x6c
        0x0000cde0:    2001        .       MOVS     r0,#1
        0x0000cde2:    e8bd8ff0    ....    POP      {r4-r11,pc}
        0x0000cde6:    2810        .(      CMP      r0,#0x10
        0x0000cde8:    bf18        ..      IT       NE
        0x0000cdea:    2811        .(      CMPNE    r0,#0x11
        0x0000cdec:    d1f7        ..      BNE      0xcdde ; am_devices_mspi_psram_init + 690
        0x0000cdee:    f04f0100    O...    MOV      r1,#0
        0x0000cdf2:    9800        ..      LDR      r0,[sp,#0]
        0x0000cdf4:    910e        ..      STR      r1,[sp,#0x38]
        0x0000cdf6:    f88d403c    ..<@    STRB     r4,[sp,#0x3c]
        0x0000cdfa:    f88d4048    ..H@    STRB     r4,[sp,#0x48]
        0x0000cdfe:    aa0d        ..      ADD      r2,sp,#0x34
        0x0000ce00:    f88d903e    ..>.    STRB     r9,[sp,#0x3e]
        0x0000ce04:    f88d4049    ..I@    STRB     r4,[sp,#0x49]
        0x0000ce08:    f04f0335    O.5.    MOV      r3,#0x35
        0x0000ce0c:    f88d403f    ..?@    STRB     r4,[sp,#0x3f]
        0x0000ce10:    f88d9044    ..D.    STRB     r9,[sp,#0x44]
        0x0000ce14:    f88d404b    ..K@    STRB     r4,[sp,#0x4b]
        0x0000ce18:    9213        ..      STR      r2,[sp,#0x4c]
        0x0000ce1a:    9410        ..      STR      r4,[sp,#0x40]
        0x0000ce1c:    f8ad3046    ..F0    STRH     r3,[sp,#0x46]
        0x0000ce20:    f88d403d    ..=@    STRB     r4,[sp,#0x3d]
        0x0000ce24:    f88d404a    ..J@    STRB     r4,[sp,#0x4a]
        0x0000ce28:    4a3f        ?J      LDR      r2,[pc,#252] ; [0xcf28] = 0xf4240
        0x0000ce2a:    a90e        ..      ADD      r1,sp,#0x38
        0x0000ce2c:    f001fbb2    ....    BL       am_hal_mspi_blocking_transfer ; 0xe594
        0x0000ce30:    2800        .(      CMP      r0,#0
        0x0000ce32:    d1d4        ..      BNE      0xcdde ; am_devices_mspi_psram_init + 690
        0x0000ce34:    9800        ..      LDR      r0,[sp,#0]
        0x0000ce36:    f002fa69    ..i.    BL       am_hal_mspi_disable ; 0xf30c
        0x0000ce3a:    2800        .(      CMP      r0,#0
        0x0000ce3c:    d1cf        ..      BNE      0xcdde ; am_devices_mspi_psram_init + 690
        0x0000ce3e:    a902        ..      ADD      r1,sp,#8
        0x0000ce40:    9800        ..      LDR      r0,[sp,#0]
        0x0000ce42:    f002f931    ..1.    BL       am_hal_mspi_device_configure ; 0xf0a8
        0x0000ce46:    2800        .(      CMP      r0,#0
        0x0000ce48:    d1c9        ..      BNE      0xcdde ; am_devices_mspi_psram_init + 690
        0x0000ce4a:    9800        ..      LDR      r0,[sp,#0]
        0x0000ce4c:    f002fa94    ....    BL       am_hal_mspi_enable ; 0xf378
        0x0000ce50:    2800        .(      CMP      r0,#0
        0x0000ce52:    d1c4        ..      BNE      0xcdde ; am_devices_mspi_psram_init + 690
        0x0000ce54:    f89d100d    ....    LDRB     r1,[sp,#0xd]
        0x0000ce58:    4638        8F      MOV      r0,r7
        0x0000ce5a:    f7fffba1    ....    BL       am_bsp_mspi_pins_enable ; 0xc5a0
        0x0000ce5e:    f44f51d4    O..Q    MOV      r1,#0x1a80
        0x0000ce62:    9800        ..      LDR      r0,[sp,#0]
        0x0000ce64:    f002fb78    ..x.    BL       am_hal_mspi_interrupt_clear ; 0xf558
        0x0000ce68:    2800        .(      CMP      r0,#0
        0x0000ce6a:    d1b8        ..      BNE      0xcdde ; am_devices_mspi_psram_init + 690
        0x0000ce6c:    f44f51d4    O..Q    MOV      r1,#0x1a80
        0x0000ce70:    9800        ..      LDR      r0,[sp,#0]
        0x0000ce72:    f002fb8b    ....    BL       am_hal_mspi_interrupt_enable ; 0xf58c
        0x0000ce76:    2800        .(      CMP      r0,#0
        0x0000ce78:    d1b1        ..      BNE      0xcdde ; am_devices_mspi_psram_init + 690
        0x0000ce7a:    eb050145    ..E.    ADD      r1,r5,r5,LSL #1
        0x0000ce7e:    eb060081    ....    ADD      r0,r6,r1,LSL #2
        0x0000ce82:    f8809009    ....    STRB     r9,[r0,#9]
        0x0000ce86:    f8c80000    ....    STR      r0,[r8,#0]
        0x0000ce8a:    9b00        ..      LDR      r3,[sp,#0]
        0x0000ce8c:    6043        C`      STR      r3,[r0,#4]
        0x0000ce8e:    9a1a        ..      LDR      r2,[sp,#0x68]
        0x0000ce90:    6013        .`      STR      r3,[r2,#0]
        0x0000ce92:    f8467021    F.!p    STR      r7,[r6,r1,LSL #2]
        0x0000ce96:    f89d100d    ....    LDRB     r1,[sp,#0xd]
        0x0000ce9a:    7201        .r      STRB     r1,[r0,#8]
        0x0000ce9c:    b01b        ..      ADD      sp,sp,#0x6c
        0x0000ce9e:    2000        .       MOVS     r0,#0
        0x0000cea0:    e8bd8ff0    ....    POP      {r4-r11,pc}
    $d
        0x0000cea4:    100159b8    .Y..    DCD    268523960
        0x0000cea8:    1001108c    ....    DCD    268505228
        0x0000ceac:    100110d4    ....    DCD    268505300
        0x0000ceb0:    100110f8    ....    DCD    268505336
        0x0000ceb4:    6f727245    Erro    DCD    1869771333
        0x0000ceb8:    202d2072    r -     DCD    539828338
        0x0000cebc:    6c696146    Fail    DCD    1818845510
        0x0000cec0:    74206465    ed t    DCD    1948279909
        0x0000cec4:    6e69206f    o in    DCD    1852383343
        0x0000cec8:    61697469    itia    DCD    1634301033
        0x0000cecc:    657a696c    lize    DCD    1702521196
        0x0000ced0:    50534d20     MSP    DCD    1347636512
        0x0000ced4:    000a2e49    I...    DCD    667209
        0x0000ced8:    6f727245    Erro    DCD    1869771333
        0x0000cedc:    202d2072    r -     DCD    539828338
        0x0000cee0:    6c696146    Fail    DCD    1818845510
        0x0000cee4:    74206465    ed t    DCD    1948279909
        0x0000cee8:    6f70206f    o po    DCD    1869619311
        0x0000ceec:    20726577    wer     DCD    544367991
        0x0000cef0:    4d206e6f    on M    DCD    1293971055
        0x0000cef4:    2e495053    SPI.    DCD    776556627
        0x0000cef8:    0000000a    ....    DCD    10
        0x0000cefc:    6f727245    Erro    DCD    1869771333
        0x0000cf00:    202d2072    r -     DCD    539828338
        0x0000cf04:    6c696146    Fail    DCD    1818845510
        0x0000cf08:    74206465    ed t    DCD    1948279909
        0x0000cf0c:    6f63206f    o co    DCD    1868767343
        0x0000cf10:    6769666e    nfig    DCD    1734960750
        0x0000cf14:    20657275    ure     DCD    543519349
        0x0000cf18:    4950534d    MSPI    DCD    1230000973
        0x0000cf1c:    76656420     dev    DCD    1986356256
        0x0000cf20:    2e656369    ice.    DCD    778396521
        0x0000cf24:    0000000a    ....    DCD    10
        0x0000cf28:    000f4240    @B..    DCD    1000000
        0x0000cf2c:    6f727245    Erro    DCD    1869771333
        0x0000cf30:    202d2072    r -     DCD    539828338
        0x0000cf34:    6c696146    Fail    DCD    1818845510
        0x0000cf38:    74206465    ed t    DCD    1948279909
        0x0000cf3c:    6f63206f    o co    DCD    1868767343
        0x0000cf40:    6769666e    nfig    DCD    1734960750
        0x0000cf44:    20657275    ure     DCD    543519349
        0x0000cf48:    4950534d    MSPI    DCD    1230000973
        0x0000cf4c:    00000a2e    ....    DCD    2606
        0x0000cf50:    6f727245    Erro    DCD    1869771333
        0x0000cf54:    202d2072    r -     DCD    539828338
        0x0000cf58:    6c696146    Fail    DCD    1818845510
        0x0000cf5c:    74206465    ed t    DCD    1948279909
        0x0000cf60:    6e65206f    o en    DCD    1852121199
        0x0000cf64:    656c6261    able    DCD    1701601889
        0x0000cf68:    50534d20     MSP    DCD    1347636512
        0x0000cf6c:    000a2e49    I...    DCD    667209
        0x0000cf70:    41525350    PSRA    DCD    1095914320
        0x0000cf74:    4449204d    M ID    DCD    1145643085
        0x0000cf78:    20736920     is     DCD    544434464
        0x0000cf7c:    78257830    0x%x    DCD    2015721520
        0x0000cf80:    0000000a    ....    DCD    10
    $t
    i.am_devices_mspi_psram_read
    am_devices_mspi_psram_read
        0x0000cf84:    b530        0.      PUSH     {r4,r5,lr}
        0x0000cf86:    b087        ..      SUB      sp,sp,#0x1c
        0x0000cf88:    469c        .F      MOV      r12,r3
        0x0000cf8a:    9c0a        ..      LDR      r4,[sp,#0x28]
        0x0000cf8c:    2300        .#      MOVS     r3,#0
        0x0000cf8e:    b304        ..      CBZ      r4,0xcfd2 ; am_devices_mspi_psram_read + 78
        0x0000cf90:    f88d3018    ...0    STRB     r3,[sp,#0x18]
        0x0000cf94:    ac06        ..      ADD      r4,sp,#0x18
        0x0000cf96:    4d18        .M      LDR      r5,[pc,#96] ; [0xcff8] = 0x11993
        0x0000cf98:    9405        ..      STR      r4,[sp,#0x14]
        0x0000cf9a:    9302        ..      STR      r3,[sp,#8]
        0x0000cf9c:    e9cd3503    ...5    STRD     r3,r5,[sp,#0xc]
        0x0000cfa0:    e9cd2c00    ...,    STRD     r2,r12,[sp,#0]
        0x0000cfa4:    460b        .F      MOV      r3,r1
        0x0000cfa6:    2200        ."      MOVS     r2,#0
        0x0000cfa8:    4611        .F      MOV      r1,r2
        0x0000cfaa:    f004fd13    ....    BL       psram_nonblocking_transfer ; 0x119d4
        0x0000cfae:    2800        .(      CMP      r0,#0
        0x0000cfb0:    bf04        ..      ITT      EQ
        0x0000cfb2:    2400        .$      MOVEQ    r4,#0
        0x0000cfb4:    4d11        .M      LDREQ    r5,[pc,#68] ; [0xcffc] = 0xf4240
        0x0000cfb6:    d118        ..      BNE      0xcfea ; am_devices_mspi_psram_read + 102
        0x0000cfb8:    f89d0018    ....    LDRB     r0,[sp,#0x18]
        0x0000cfbc:    b928        (.      CBNZ     r0,0xcfca ; am_devices_mspi_psram_read + 70
        0x0000cfbe:    2010        .       MOVS     r0,#0x10
        0x0000cfc0:    f000ff8e    ....    BL       am_hal_flash_delay ; 0xdee0
        0x0000cfc4:    1c64        d.      ADDS     r4,r4,#1
        0x0000cfc6:    42ac        .B      CMP      r4,r5
        0x0000cfc8:    d3f6        ..      BCC      0xcfb8 ; am_devices_mspi_psram_read + 52
        0x0000cfca:    f89d0018    ....    LDRB     r0,[sp,#0x18]
        0x0000cfce:    b160        `.      CBZ      r0,0xcfea ; am_devices_mspi_psram_read + 102
        0x0000cfd0:    e00e        ..      B        0xcff0 ; am_devices_mspi_psram_read + 108
        0x0000cfd2:    9305        ..      STR      r3,[sp,#0x14]
        0x0000cfd4:    e9cd2c00    ...,    STRD     r2,r12,[sp,#0]
        0x0000cfd8:    9302        ..      STR      r3,[sp,#8]
        0x0000cfda:    9303        ..      STR      r3,[sp,#0xc]
        0x0000cfdc:    9304        ..      STR      r3,[sp,#0x10]
        0x0000cfde:    460b        .F      MOV      r3,r1
        0x0000cfe0:    2200        ."      MOVS     r2,#0
        0x0000cfe2:    4611        .F      MOV      r1,r2
        0x0000cfe4:    f004fcf6    ....    BL       psram_nonblocking_transfer ; 0x119d4
        0x0000cfe8:    b110        ..      CBZ      r0,0xcff0 ; am_devices_mspi_psram_read + 108
        0x0000cfea:    b007        ..      ADD      sp,sp,#0x1c
        0x0000cfec:    2001        .       MOVS     r0,#1
        0x0000cfee:    bd30        0.      POP      {r4,r5,pc}
        0x0000cff0:    b007        ..      ADD      sp,sp,#0x1c
        0x0000cff2:    2000        .       MOVS     r0,#0
        0x0000cff4:    bd30        0.      POP      {r4,r5,pc}
    $d
        0x0000cff6:    0000        ..      DCW    0
        0x0000cff8:    00011993    ....    DCD    72083
        0x0000cffc:    000f4240    @B..    DCD    1000000
    $t
    i.am_devices_mspi_psram_write
    am_devices_mspi_psram_write
        0x0000d000:    b530        0.      PUSH     {r4,r5,lr}
        0x0000d002:    b087        ..      SUB      sp,sp,#0x1c
        0x0000d004:    469c        .F      MOV      r12,r3
        0x0000d006:    9c0a        ..      LDR      r4,[sp,#0x28]
        0x0000d008:    2300        .#      MOVS     r3,#0
        0x0000d00a:    b304        ..      CBZ      r4,0xd04e ; am_devices_mspi_psram_write + 78
        0x0000d00c:    f88d3018    ...0    STRB     r3,[sp,#0x18]
        0x0000d010:    ac06        ..      ADD      r4,sp,#0x18
        0x0000d012:    4d18        .M      LDR      r5,[pc,#96] ; [0xd074] = 0x11993
        0x0000d014:    9405        ..      STR      r4,[sp,#0x14]
        0x0000d016:    9302        ..      STR      r3,[sp,#8]
        0x0000d018:    e9cd3503    ...5    STRD     r3,r5,[sp,#0xc]
        0x0000d01c:    e9cd2c00    ...,    STRD     r2,r12,[sp,#0]
        0x0000d020:    460b        .F      MOV      r3,r1
        0x0000d022:    2201        ."      MOVS     r2,#1
        0x0000d024:    2100        .!      MOVS     r1,#0
        0x0000d026:    f004fcd5    ....    BL       psram_nonblocking_transfer ; 0x119d4
        0x0000d02a:    2800        .(      CMP      r0,#0
        0x0000d02c:    bf04        ..      ITT      EQ
        0x0000d02e:    2400        .$      MOVEQ    r4,#0
        0x0000d030:    4d11        .M      LDREQ    r5,[pc,#68] ; [0xd078] = 0xf4240
        0x0000d032:    d118        ..      BNE      0xd066 ; am_devices_mspi_psram_write + 102
        0x0000d034:    f89d0018    ....    LDRB     r0,[sp,#0x18]
        0x0000d038:    b928        (.      CBNZ     r0,0xd046 ; am_devices_mspi_psram_write + 70
        0x0000d03a:    2010        .       MOVS     r0,#0x10
        0x0000d03c:    f000ff50    ..P.    BL       am_hal_flash_delay ; 0xdee0
        0x0000d040:    1c64        d.      ADDS     r4,r4,#1
        0x0000d042:    42ac        .B      CMP      r4,r5
        0x0000d044:    d3f6        ..      BCC      0xd034 ; am_devices_mspi_psram_write + 52
        0x0000d046:    f89d0018    ....    LDRB     r0,[sp,#0x18]
        0x0000d04a:    b160        `.      CBZ      r0,0xd066 ; am_devices_mspi_psram_write + 102
        0x0000d04c:    e00e        ..      B        0xd06c ; am_devices_mspi_psram_write + 108
        0x0000d04e:    9305        ..      STR      r3,[sp,#0x14]
        0x0000d050:    e9cd2c00    ...,    STRD     r2,r12,[sp,#0]
        0x0000d054:    9302        ..      STR      r3,[sp,#8]
        0x0000d056:    9303        ..      STR      r3,[sp,#0xc]
        0x0000d058:    9304        ..      STR      r3,[sp,#0x10]
        0x0000d05a:    460b        .F      MOV      r3,r1
        0x0000d05c:    2201        ."      MOVS     r2,#1
        0x0000d05e:    2100        .!      MOVS     r1,#0
        0x0000d060:    f004fcb8    ....    BL       psram_nonblocking_transfer ; 0x119d4
        0x0000d064:    b110        ..      CBZ      r0,0xd06c ; am_devices_mspi_psram_write + 108
        0x0000d066:    b007        ..      ADD      sp,sp,#0x1c
        0x0000d068:    2001        .       MOVS     r0,#1
        0x0000d06a:    bd30        0.      POP      {r4,r5,pc}
        0x0000d06c:    b007        ..      ADD      sp,sp,#0x1c
        0x0000d06e:    2000        .       MOVS     r0,#0
        0x0000d070:    bd30        0.      POP      {r4,r5,pc}
    $d
        0x0000d072:    0000        ..      DCW    0
        0x0000d074:    00011993    ....    DCD    72083
        0x0000d078:    000f4240    @B..    DCD    1000000
    $t
    i.am_hal_cachectrl_config
    am_hal_cachectrl_config
        0x0000d07c:    b538        8.      PUSH     {r3-r5,lr}
        0x0000d07e:    4604        .F      MOV      r4,r0
        0x0000d080:    f7fff8e0    ....    BL       am_hal_interrupt_master_disable ; 0xc244
        0x0000d084:    4d0f        .M      LDR      r5,[pc,#60] ; [0xd0c4] = 0x40018000
        0x0000d086:    9000        ..      STR      r0,[sp,#0]
        0x0000d088:    6828        (h      LDR      r0,[r5,#0]
        0x0000d08a:    f4207040     .@p    BIC      r0,r0,#0x300
        0x0000d08e:    6028        (`      STR      r0,[r5,#0]
        0x0000d090:    9800        ..      LDR      r0,[sp,#0]
        0x0000d092:    f7fff8db    ....    BL       am_hal_interrupt_master_set ; 0xc24c
        0x0000d096:    78a0        .x      LDRB     r0,[r4,#2]
        0x0000d098:    2102        .!      MOVS     r1,#2
        0x0000d09a:    ea010040    ..@.    AND      r0,r1,r0,LSL #1
        0x0000d09e:    7821        !x      LDRB     r1,[r4,#0]
        0x0000d0a0:    22f0        ."      MOVS     r2,#0xf0
        0x0000d0a2:    ea021101    ....    AND      r1,r2,r1,LSL #4
        0x0000d0a6:    4308        .C      ORRS     r0,r0,r1
        0x0000d0a8:    7861        ax      LDRB     r1,[r4,#1]
        0x0000d0aa:    f44f7240    O.@r    MOV      r2,#0x300
        0x0000d0ae:    ea022101    ...!    AND      r1,r2,r1,LSL #8
        0x0000d0b2:    4308        .C      ORRS     r0,r0,r1
        0x0000d0b4:    f4406080    @..`    ORR      r0,r0,#0x400
        0x0000d0b8:    f4401080    @...    ORR      r0,r0,#0x100000
        0x0000d0bc:    6028        (`      STR      r0,[r5,#0]
        0x0000d0be:    2000        .       MOVS     r0,#0
        0x0000d0c0:    bd38        8.      POP      {r3-r5,pc}
    $d
        0x0000d0c2:    0000        ..      DCW    0
        0x0000d0c4:    40018000    ...@    DCD    1073840128
    $t
    i.am_hal_cachectrl_control
    am_hal_cachectrl_control
        0x0000d0c8:    b5f8        ..      PUSH     {r3-r7,lr}
        0x0000d0ca:    2812        .(      CMP      r0,#0x12
        0x0000d0cc:    f08081b9    ....    BCS.W    0xd442 ; am_hal_cachectrl_control + 890
        0x0000d0d0:    e8dff000    ....    TBB      [pc,r0]
    $d
        0x0000d0d4:    140b09fe    ....    DCD    336267774
        0x0000d0d8:    1e1c1a17    ....    DCD    505158167
        0x0000d0dc:    3f332721    !'3?    DCD    1060316961
        0x0000d0e0:    fcfde793    ....    DCD    4244498323
        0x0000d0e4:    fafb        ..      DCW    64251
    $t
        0x0000d0e6:    2001        .       MOVS     r0,#1
        0x0000d0e8:    e017        ..      B        0xd11a ; am_hal_cachectrl_control + 82
        0x0000d0ea:    48e0        .H      LDR      r0,[pc,#896] ; [0xd46c] = 0x40018000
        0x0000d0ec:    6800        .h      LDR      r0,[r0,#0]
        0x0000d0ee:    f0107f80    ....    TST      r0,#0x1000000
        0x0000d0f2:    bf0a        ..      ITET     EQ
        0x0000d0f4:    2007        .       MOVEQ    r0,#7
        0x0000d0f6:    2002        .       MOVNE    r0,#2
        0x0000d0f8:    bdf8        ..      POPEQ    {r3-r7,pc}
        0x0000d0fa:    e00e        ..      B        0xd11a ; am_hal_cachectrl_control + 82
        0x0000d0fc:    f44f6088    O..`    MOV      r0,#0x440
        0x0000d100:    e00b        ..      B        0xd11a ; am_hal_cachectrl_control + 82
        0x0000d102:    f44f7008    O..p    MOV      r0,#0x220
        0x0000d106:    e008        ..      B        0xd11a ; am_hal_cachectrl_control + 82
        0x0000d108:    2040        @       MOVS     r0,#0x40
        0x0000d10a:    e006        ..      B        0xd11a ; am_hal_cachectrl_control + 82
        0x0000d10c:    2020                MOVS     r0,#0x20
        0x0000d10e:    e004        ..      B        0xd11a ; am_hal_cachectrl_control + 82
        0x0000d110:    f44f6080    O..`    MOV      r0,#0x400
        0x0000d114:    e001        ..      B        0xd11a ; am_hal_cachectrl_control + 82
        0x0000d116:    f44f7000    O..p    MOV      r0,#0x200
        0x0000d11a:    49d4        .I      LDR      r1,[pc,#848] ; [0xd46c] = 0x40018000
        0x0000d11c:    6088        .`      STR      r0,[r1,#8]
        0x0000d11e:    2000        .       MOVS     r0,#0
        0x0000d120:    bdf8        ..      POP      {r3-r7,pc}
        0x0000d122:    f7fff88f    ....    BL       am_hal_interrupt_master_disable ; 0xc244
        0x0000d126:    9000        ..      STR      r0,[sp,#0]
        0x0000d128:    48d0        .H      LDR      r0,[pc,#832] ; [0xd46c] = 0x40018000
        0x0000d12a:    6801        .h      LDR      r1,[r0,#0]
        0x0000d12c:    f0417180    A..q    ORR      r1,r1,#0x1000000
        0x0000d130:    6001        .`      STR      r1,[r0,#0]
        0x0000d132:    9800        ..      LDR      r0,[sp,#0]
        0x0000d134:    f7fff88a    ....    BL       am_hal_interrupt_master_set ; 0xc24c
        0x0000d138:    e7f1        ..      B        0xd11e ; am_hal_cachectrl_control + 86
        0x0000d13a:    f7fff883    ....    BL       am_hal_interrupt_master_disable ; 0xc244
        0x0000d13e:    9000        ..      STR      r0,[sp,#0]
        0x0000d140:    48ca        .H      LDR      r0,[pc,#808] ; [0xd46c] = 0x40018000
        0x0000d142:    6801        .h      LDR      r1,[r0,#0]
        0x0000d144:    f0217180    !..q    BIC      r1,r1,#0x1000000
        0x0000d148:    6001        .`      STR      r1,[r0,#0]
        0x0000d14a:    9800        ..      LDR      r0,[sp,#0]
        0x0000d14c:    f7fff87e    ..~.    BL       am_hal_interrupt_master_set ; 0xc24c
        0x0000d150:    e7e5        ..      B        0xd11e ; am_hal_cachectrl_control + 86
        0x0000d152:    2000        .       MOVS     r0,#0
        0x0000d154:    f44f5140    O.@Q    MOV      r1,#0x3000
        0x0000d158:    4cc5        .L      LDR      r4,[pc,#788] ; [0xd470] = 0x40018100
        0x0000d15a:    4605        .F      MOV      r5,r0
        0x0000d15c:    ea013600    ...6    AND      r6,r1,r0,LSL #12
        0x0000d160:    eb040785    ....    ADD      r7,r4,r5,LSL #2
        0x0000d164:    f7fff86e    ..n.    BL       am_hal_interrupt_master_disable ; 0xc244
        0x0000d168:    9000        ..      STR      r0,[sp,#0]
        0x0000d16a:    4638        8F      MOV      r0,r7
        0x0000d16c:    f000fef8    ....    BL       am_hal_flash_load_ui32 ; 0xdf60
        0x0000d170:    f420507c     .|P    BIC      r0,r0,#0x3f00
        0x0000d174:    4330        0C      ORRS     r0,r0,r6
        0x0000d176:    f44061e0    @..a    ORR      r1,r0,#0x700
        0x0000d17a:    4638        8F      MOV      r0,r7
        0x0000d17c:    f000fef4    ....    BL       am_hal_flash_store_ui32 ; 0xdf68
        0x0000d180:    9800        ..      LDR      r0,[sp,#0]
        0x0000d182:    f7fff863    ..c.    BL       am_hal_interrupt_master_set ; 0xc24c
        0x0000d186:    1c6d        m.      ADDS     r5,r5,#1
        0x0000d188:    2d04        .-      CMP      r5,#4
        0x0000d18a:    d3e9        ..      BCC      0xd160 ; am_hal_cachectrl_control + 152
        0x0000d18c:    2007        .       MOVS     r0,#7
        0x0000d18e:    2500        .%      MOVS     r5,#0
        0x0000d190:    2170        p!      MOVS     r1,#0x70
        0x0000d192:    ea011600    ....    AND      r6,r1,r0,LSL #4
        0x0000d196:    bf00        ..      NOP      
        0x0000d198:    eb040785    ....    ADD      r7,r4,r5,LSL #2
        0x0000d19c:    f7fff852    ..R.    BL       am_hal_interrupt_master_disable ; 0xc244
        0x0000d1a0:    9000        ..      STR      r0,[sp,#0]
        0x0000d1a2:    4638        8F      MOV      r0,r7
        0x0000d1a4:    f000fedc    ....    BL       am_hal_flash_load_ui32 ; 0xdf60
        0x0000d1a8:    f4206077     .w`    BIC      r0,r0,#0xf70
        0x0000d1ac:    4330        0C      ORRS     r0,r0,r6
        0x0000d1ae:    f44061e0    @..a    ORR      r1,r0,#0x700
        0x0000d1b2:    4638        8F      MOV      r0,r7
        0x0000d1b4:    f000fed8    ....    BL       am_hal_flash_store_ui32 ; 0xdf68
        0x0000d1b8:    9800        ..      LDR      r0,[sp,#0]
        0x0000d1ba:    f7fff847    ..G.    BL       am_hal_interrupt_master_set ; 0xc24c
        0x0000d1be:    1c6d        m.      ADDS     r5,r5,#1
        0x0000d1c0:    2d04        .-      CMP      r5,#4
        0x0000d1c2:    d3e9        ..      BCC      0xd198 ; am_hal_cachectrl_control + 208
        0x0000d1c4:    2603        .&      MOVS     r6,#3
        0x0000d1c6:    2500        .%      MOVS     r5,#0
        0x0000d1c8:    eb040785    ....    ADD      r7,r4,r5,LSL #2
        0x0000d1cc:    f7fff83a    ..:.    BL       am_hal_interrupt_master_disable ; 0xc244
        0x0000d1d0:    9000        ..      STR      r0,[sp,#0]
        0x0000d1d2:    4638        8F      MOV      r0,r7
        0x0000d1d4:    f000fec4    ....    BL       am_hal_flash_load_ui32 ; 0xdf60
        0x0000d1d8:    f020000f     ...    BIC      r0,r0,#0xf
        0x0000d1dc:    f4206070     .p`    BIC      r0,r0,#0xf00
        0x0000d1e0:    4330        0C      ORRS     r0,r0,r6
        0x0000d1e2:    f44061e0    @..a    ORR      r1,r0,#0x700
        0x0000d1e6:    4638        8F      MOV      r0,r7
        0x0000d1e8:    f000febe    ....    BL       am_hal_flash_store_ui32 ; 0xdf68
        0x0000d1ec:    9800        ..      LDR      r0,[sp,#0]
        0x0000d1ee:    f7fff82d    ..-.    BL       am_hal_interrupt_master_set ; 0xc24c
        0x0000d1f2:    1c6d        m.      ADDS     r5,r5,#1
        0x0000d1f4:    2d04        .-      CMP      r5,#4
        0x0000d1f6:    d3e7        ..      BCC      0xd1c8 ; am_hal_cachectrl_control + 256
        0x0000d1f8:    e791        ..      B        0xd11e ; am_hal_cachectrl_control + 86
        0x0000d1fa:    2001        .       MOVS     r0,#1
        0x0000d1fc:    f44f5140    O.@Q    MOV      r1,#0x3000
        0x0000d200:    4c9b        .L      LDR      r4,[pc,#620] ; [0xd470] = 0x40018100
        0x0000d202:    2500        .%      MOVS     r5,#0
        0x0000d204:    ea013600    ...6    AND      r6,r1,r0,LSL #12
        0x0000d208:    eb040785    ....    ADD      r7,r4,r5,LSL #2
        0x0000d20c:    f7fff81a    ....    BL       am_hal_interrupt_master_disable ; 0xc244
        0x0000d210:    9000        ..      STR      r0,[sp,#0]
        0x0000d212:    4638        8F      MOV      r0,r7
        0x0000d214:    f000fea4    ....    BL       am_hal_flash_load_ui32 ; 0xdf60
        0x0000d218:    f420507c     .|P    BIC      r0,r0,#0x3f00
        0x0000d21c:    4330        0C      ORRS     r0,r0,r6
        0x0000d21e:    f44061e0    @..a    ORR      r1,r0,#0x700
        0x0000d222:    4638        8F      MOV      r0,r7
        0x0000d224:    f000fea0    ....    BL       am_hal_flash_store_ui32 ; 0xdf68
        0x0000d228:    9800        ..      LDR      r0,[sp,#0]
        0x0000d22a:    f7fff80f    ....    BL       am_hal_interrupt_master_set ; 0xc24c
        0x0000d22e:    1c6d        m.      ADDS     r5,r5,#1
        0x0000d230:    2d04        .-      CMP      r5,#4
        0x0000d232:    d3e9        ..      BCC      0xd208 ; am_hal_cachectrl_control + 320
        0x0000d234:    2005        .       MOVS     r0,#5
        0x0000d236:    2500        .%      MOVS     r5,#0
        0x0000d238:    2170        p!      MOVS     r1,#0x70
        0x0000d23a:    ea011600    ....    AND      r6,r1,r0,LSL #4
        0x0000d23e:    bf00        ..      NOP      
        0x0000d240:    eb040785    ....    ADD      r7,r4,r5,LSL #2
        0x0000d244:    f7fefffe    ....    BL       am_hal_interrupt_master_disable ; 0xc244
        0x0000d248:    9000        ..      STR      r0,[sp,#0]
        0x0000d24a:    4638        8F      MOV      r0,r7
        0x0000d24c:    f000fe88    ....    BL       am_hal_flash_load_ui32 ; 0xdf60
        0x0000d250:    f4206077     .w`    BIC      r0,r0,#0xf70
        0x0000d254:    4330        0C      ORRS     r0,r0,r6
        0x0000d256:    f44061e0    @..a    ORR      r1,r0,#0x700
        0x0000d25a:    4638        8F      MOV      r0,r7
        0x0000d25c:    f000fe84    ....    BL       am_hal_flash_store_ui32 ; 0xdf68
        0x0000d260:    9800        ..      LDR      r0,[sp,#0]
        0x0000d262:    f7fefff3    ....    BL       am_hal_interrupt_master_set ; 0xc24c
        0x0000d266:    1c6d        m.      ADDS     r5,r5,#1
        0x0000d268:    2d04        .-      CMP      r5,#4
        0x0000d26a:    d3e9        ..      BCC      0xd240 ; am_hal_cachectrl_control + 376
        0x0000d26c:    2601        .&      MOVS     r6,#1
        0x0000d26e:    2500        .%      MOVS     r5,#0
        0x0000d270:    eb040785    ....    ADD      r7,r4,r5,LSL #2
        0x0000d274:    f7feffe6    ....    BL       am_hal_interrupt_master_disable ; 0xc244
        0x0000d278:    9000        ..      STR      r0,[sp,#0]
        0x0000d27a:    4638        8F      MOV      r0,r7
        0x0000d27c:    f000fe70    ..p.    BL       am_hal_flash_load_ui32 ; 0xdf60
        0x0000d280:    f020000f     ...    BIC      r0,r0,#0xf
        0x0000d284:    f4206070     .p`    BIC      r0,r0,#0xf00
        0x0000d288:    4330        0C      ORRS     r0,r0,r6
        0x0000d28a:    f44061e0    @..a    ORR      r1,r0,#0x700
        0x0000d28e:    4638        8F      MOV      r0,r7
        0x0000d290:    f000fe6a    ..j.    BL       am_hal_flash_store_ui32 ; 0xdf68
        0x0000d294:    9800        ..      LDR      r0,[sp,#0]
        0x0000d296:    f7feffd9    ....    BL       am_hal_interrupt_master_set ; 0xc24c
        0x0000d29a:    1c6d        m.      ADDS     r5,r5,#1
        0x0000d29c:    2d04        .-      CMP      r5,#4
        0x0000d29e:    d3e7        ..      BCC      0xd270 ; am_hal_cachectrl_control + 424
        0x0000d2a0:    e73d        =.      B        0xd11e ; am_hal_cachectrl_control + 86
        0x0000d2a2:    2001        .       MOVS     r0,#1
        0x0000d2a4:    f44f5140    O.@Q    MOV      r1,#0x3000
        0x0000d2a8:    4c71        qL      LDR      r4,[pc,#452] ; [0xd470] = 0x40018100
        0x0000d2aa:    2500        .%      MOVS     r5,#0
        0x0000d2ac:    ea013600    ...6    AND      r6,r1,r0,LSL #12
        0x0000d2b0:    eb040785    ....    ADD      r7,r4,r5,LSL #2
        0x0000d2b4:    f7feffc6    ....    BL       am_hal_interrupt_master_disable ; 0xc244
        0x0000d2b8:    9000        ..      STR      r0,[sp,#0]
        0x0000d2ba:    4638        8F      MOV      r0,r7
        0x0000d2bc:    f000fe50    ..P.    BL       am_hal_flash_load_ui32 ; 0xdf60
        0x0000d2c0:    f420507c     .|P    BIC      r0,r0,#0x3f00
        0x0000d2c4:    4330        0C      ORRS     r0,r0,r6
        0x0000d2c6:    e004        ..      B        0xd2d2 ; am_hal_cachectrl_control + 522
        0x0000d2c8:    e0ad        ..      B        0xd426 ; am_hal_cachectrl_control + 862
        0x0000d2ca:    e086        ..      B        0xd3da ; am_hal_cachectrl_control + 786
        0x0000d2cc:    e065        e.      B        0xd39a ; am_hal_cachectrl_control + 722
        0x0000d2ce:    e042        B.      B        0xd356 ; am_hal_cachectrl_control + 654
        0x0000d2d0:    e0a2        ..      B        0xd418 ; am_hal_cachectrl_control + 848
        0x0000d2d2:    f44061e0    @..a    ORR      r1,r0,#0x700
        0x0000d2d6:    4638        8F      MOV      r0,r7
        0x0000d2d8:    f000fe46    ..F.    BL       am_hal_flash_store_ui32 ; 0xdf68
        0x0000d2dc:    9800        ..      LDR      r0,[sp,#0]
        0x0000d2de:    f7feffb5    ....    BL       am_hal_interrupt_master_set ; 0xc24c
        0x0000d2e2:    1c6d        m.      ADDS     r5,r5,#1
        0x0000d2e4:    2d04        .-      CMP      r5,#4
        0x0000d2e6:    d3e3        ..      BCC      0xd2b0 ; am_hal_cachectrl_control + 488
        0x0000d2e8:    2006        .       MOVS     r0,#6
        0x0000d2ea:    2500        .%      MOVS     r5,#0
        0x0000d2ec:    2170        p!      MOVS     r1,#0x70
        0x0000d2ee:    ea011600    ....    AND      r6,r1,r0,LSL #4
        0x0000d2f2:    bf00        ..      NOP      
        0x0000d2f4:    eb040785    ....    ADD      r7,r4,r5,LSL #2
        0x0000d2f8:    f7feffa4    ....    BL       am_hal_interrupt_master_disable ; 0xc244
        0x0000d2fc:    9000        ..      STR      r0,[sp,#0]
        0x0000d2fe:    4638        8F      MOV      r0,r7
        0x0000d300:    f000fe2e    ....    BL       am_hal_flash_load_ui32 ; 0xdf60
        0x0000d304:    f4206077     .w`    BIC      r0,r0,#0xf70
        0x0000d308:    4330        0C      ORRS     r0,r0,r6
        0x0000d30a:    f44061e0    @..a    ORR      r1,r0,#0x700
        0x0000d30e:    4638        8F      MOV      r0,r7
        0x0000d310:    f000fe2a    ..*.    BL       am_hal_flash_store_ui32 ; 0xdf68
        0x0000d314:    9800        ..      LDR      r0,[sp,#0]
        0x0000d316:    f7feff99    ....    BL       am_hal_interrupt_master_set ; 0xc24c
        0x0000d31a:    1c6d        m.      ADDS     r5,r5,#1
        0x0000d31c:    2d04        .-      CMP      r5,#4
        0x0000d31e:    d3e9        ..      BCC      0xd2f4 ; am_hal_cachectrl_control + 556
        0x0000d320:    2601        .&      MOVS     r6,#1
        0x0000d322:    2500        .%      MOVS     r5,#0
        0x0000d324:    eb040785    ....    ADD      r7,r4,r5,LSL #2
        0x0000d328:    f7feff8c    ....    BL       am_hal_interrupt_master_disable ; 0xc244
        0x0000d32c:    9000        ..      STR      r0,[sp,#0]
        0x0000d32e:    4638        8F      MOV      r0,r7
        0x0000d330:    f000fe16    ....    BL       am_hal_flash_load_ui32 ; 0xdf60
        0x0000d334:    f020000f     ...    BIC      r0,r0,#0xf
        0x0000d338:    f4206070     .p`    BIC      r0,r0,#0xf00
        0x0000d33c:    4330        0C      ORRS     r0,r0,r6
        0x0000d33e:    f44061e0    @..a    ORR      r1,r0,#0x700
        0x0000d342:    4638        8F      MOV      r0,r7
        0x0000d344:    f000fe10    ....    BL       am_hal_flash_store_ui32 ; 0xdf68
        0x0000d348:    9800        ..      LDR      r0,[sp,#0]
        0x0000d34a:    f7feff7f    ....    BL       am_hal_interrupt_master_set ; 0xc24c
        0x0000d34e:    1c6d        m.      ADDS     r5,r5,#1
        0x0000d350:    2d04        .-      CMP      r5,#4
        0x0000d352:    d3e7        ..      BCC      0xd324 ; am_hal_cachectrl_control + 604
        0x0000d354:    e6e3        ..      B        0xd11e ; am_hal_cachectrl_control + 86
        0x0000d356:    2900        .)      CMP      r1,#0
        0x0000d358:    d073        s.      BEQ      0xd442 ; am_hal_cachectrl_control + 890
        0x0000d35a:    6808        .h      LDR      r0,[r1,#0]
        0x0000d35c:    2803        .(      CMP      r0,#3
        0x0000d35e:    d840        @.      BHI      0xd3e2 ; am_hal_cachectrl_control + 794
        0x0000d360:    f44f5140    O.@Q    MOV      r1,#0x3000
        0x0000d364:    4f42        BO      LDR      r7,[pc,#264] ; [0xd470] = 0x40018100
        0x0000d366:    2400        .$      MOVS     r4,#0
        0x0000d368:    ea013500    ...5    AND      r5,r1,r0,LSL #12
        0x0000d36c:    eb070684    ....    ADD      r6,r7,r4,LSL #2
        0x0000d370:    f7feff68    ..h.    BL       am_hal_interrupt_master_disable ; 0xc244
        0x0000d374:    9000        ..      STR      r0,[sp,#0]
        0x0000d376:    4630        0F      MOV      r0,r6
        0x0000d378:    f000fdf2    ....    BL       am_hal_flash_load_ui32 ; 0xdf60
        0x0000d37c:    f420507c     .|P    BIC      r0,r0,#0x3f00
        0x0000d380:    4328        (C      ORRS     r0,r0,r5
        0x0000d382:    f44061e0    @..a    ORR      r1,r0,#0x700
        0x0000d386:    4630        0F      MOV      r0,r6
        0x0000d388:    f000fdee    ....    BL       am_hal_flash_store_ui32 ; 0xdf68
        0x0000d38c:    9800        ..      LDR      r0,[sp,#0]
        0x0000d38e:    f7feff5d    ..].    BL       am_hal_interrupt_master_set ; 0xc24c
        0x0000d392:    1c64        d.      ADDS     r4,r4,#1
        0x0000d394:    2c04        .,      CMP      r4,#4
        0x0000d396:    d3e9        ..      BCC      0xd36c ; am_hal_cachectrl_control + 676
        0x0000d398:    e6c1        ..      B        0xd11e ; am_hal_cachectrl_control + 86
        0x0000d39a:    b3e9        ..      CBZ      r1,0xd418 ; am_hal_cachectrl_control + 848
        0x0000d39c:    6808        .h      LDR      r0,[r1,#0]
        0x0000d39e:    2807        .(      CMP      r0,#7
        0x0000d3a0:    d81f        ..      BHI      0xd3e2 ; am_hal_cachectrl_control + 794
        0x0000d3a2:    2400        .$      MOVS     r4,#0
        0x0000d3a4:    2170        p!      MOVS     r1,#0x70
        0x0000d3a6:    4f32        2O      LDR      r7,[pc,#200] ; [0xd470] = 0x40018100
        0x0000d3a8:    ea011600    ....    AND      r6,r1,r0,LSL #4
        0x0000d3ac:    eb070584    ....    ADD      r5,r7,r4,LSL #2
        0x0000d3b0:    f7feff48    ..H.    BL       am_hal_interrupt_master_disable ; 0xc244
        0x0000d3b4:    9000        ..      STR      r0,[sp,#0]
        0x0000d3b6:    4628        (F      MOV      r0,r5
        0x0000d3b8:    f000fdd2    ....    BL       am_hal_flash_load_ui32 ; 0xdf60
        0x0000d3bc:    f4206077     .w`    BIC      r0,r0,#0xf70
        0x0000d3c0:    4330        0C      ORRS     r0,r0,r6
        0x0000d3c2:    f44061e0    @..a    ORR      r1,r0,#0x700
        0x0000d3c6:    4628        (F      MOV      r0,r5
        0x0000d3c8:    f000fdce    ....    BL       am_hal_flash_store_ui32 ; 0xdf68
        0x0000d3cc:    9800        ..      LDR      r0,[sp,#0]
        0x0000d3ce:    f7feff3d    ..=.    BL       am_hal_interrupt_master_set ; 0xc24c
        0x0000d3d2:    1c64        d.      ADDS     r4,r4,#1
        0x0000d3d4:    2c04        .,      CMP      r4,#4
        0x0000d3d6:    d3e9        ..      BCC      0xd3ac ; am_hal_cachectrl_control + 740
        0x0000d3d8:    e6a1        ..      B        0xd11e ; am_hal_cachectrl_control + 86
        0x0000d3da:    b1e9        ..      CBZ      r1,0xd418 ; am_hal_cachectrl_control + 848
        0x0000d3dc:    6808        .h      LDR      r0,[r1,#0]
        0x0000d3de:    280f        .(      CMP      r0,#0xf
        0x0000d3e0:    d901        ..      BLS      0xd3e6 ; am_hal_cachectrl_control + 798
        0x0000d3e2:    2001        .       MOVS     r0,#1
        0x0000d3e4:    bdf8        ..      POP      {r3-r7,pc}
        0x0000d3e6:    4f22        "O      LDR      r7,[pc,#136] ; [0xd470] = 0x40018100
        0x0000d3e8:    2400        .$      MOVS     r4,#0
        0x0000d3ea:    f000050f    ....    AND      r5,r0,#0xf
        0x0000d3ee:    bf00        ..      NOP      
        0x0000d3f0:    eb070684    ....    ADD      r6,r7,r4,LSL #2
        0x0000d3f4:    f7feff26    ..&.    BL       am_hal_interrupt_master_disable ; 0xc244
        0x0000d3f8:    9000        ..      STR      r0,[sp,#0]
        0x0000d3fa:    4630        0F      MOV      r0,r6
        0x0000d3fc:    f000fdb0    ....    BL       am_hal_flash_load_ui32 ; 0xdf60
        0x0000d400:    f020000f     ...    BIC      r0,r0,#0xf
        0x0000d404:    f4206070     .p`    BIC      r0,r0,#0xf00
        0x0000d408:    4328        (C      ORRS     r0,r0,r5
        0x0000d40a:    f44061e0    @..a    ORR      r1,r0,#0x700
        0x0000d40e:    4630        0F      MOV      r0,r6
        0x0000d410:    f000fdaa    ....    BL       am_hal_flash_store_ui32 ; 0xdf68
        0x0000d414:    9800        ..      LDR      r0,[sp,#0]
        0x0000d416:    e000        ..      B        0xd41a ; am_hal_cachectrl_control + 850
        0x0000d418:    e013        ..      B        0xd442 ; am_hal_cachectrl_control + 890
        0x0000d41a:    f7feff17    ....    BL       am_hal_interrupt_master_set ; 0xc24c
        0x0000d41e:    1c64        d.      ADDS     r4,r4,#1
        0x0000d420:    2c04        .,      CMP      r4,#4
        0x0000d422:    d3e5        ..      BCC      0xd3f0 ; am_hal_cachectrl_control + 808
        0x0000d424:    e67b        {.      B        0xd11e ; am_hal_cachectrl_control + 86
        0x0000d426:    b161        a.      CBZ      r1,0xd442 ; am_hal_cachectrl_control + 890
        0x0000d428:    684a        Jh      LDR      r2,[r1,#4]
        0x0000d42a:    4610        .F      MOV      r0,r2
        0x0000d42c:    f36f101a    o...    BFC      r0,#4,#23
        0x0000d430:    b938        8.      CBNZ     r0,0xd442 ; am_hal_cachectrl_control + 890
        0x0000d432:    6888        .h      LDR      r0,[r1,#8]
        0x0000d434:    f36f101a    o...    BFC      r0,#4,#23
        0x0000d438:    b918        ..      CBNZ     r0,0xd442 ; am_hal_cachectrl_control + 890
        0x0000d43a:    7808        .x      LDRB     r0,[r1,#0]
        0x0000d43c:    b118        ..      CBZ      r0,0xd446 ; am_hal_cachectrl_control + 894
        0x0000d43e:    2801        .(      CMP      r0,#1
        0x0000d440:    d00a        ..      BEQ      0xd458 ; am_hal_cachectrl_control + 912
        0x0000d442:    2006        .       MOVS     r0,#6
        0x0000d444:    bdf8        ..      POP      {r3-r7,pc}
        0x0000d446:    4809        .H      LDR      r0,[pc,#36] ; [0xd46c] = 0x40018000
        0x0000d448:    6102        .a      STR      r2,[r0,#0x10]
        0x0000d44a:    688a        .h      LDR      r2,[r1,#8]
        0x0000d44c:    6142        Ba      STR      r2,[r0,#0x14]
        0x0000d44e:    784a        Jx      LDRB     r2,[r1,#1]
        0x0000d450:    6801        .h      LDR      r1,[r0,#0]
        0x0000d452:    f3620182    b...    BFI      r1,r2,#2,#1
        0x0000d456:    e007        ..      B        0xd468 ; am_hal_cachectrl_control + 928
        0x0000d458:    4804        .H      LDR      r0,[pc,#16] ; [0xd46c] = 0x40018000
        0x0000d45a:    6182        .a      STR      r2,[r0,#0x18]
        0x0000d45c:    688a        .h      LDR      r2,[r1,#8]
        0x0000d45e:    61c2        .a      STR      r2,[r0,#0x1c]
        0x0000d460:    784a        Jx      LDRB     r2,[r1,#1]
        0x0000d462:    6801        .h      LDR      r1,[r0,#0]
        0x0000d464:    f36201c3    b...    BFI      r1,r2,#3,#1
        0x0000d468:    6001        .`      STR      r1,[r0,#0]
        0x0000d46a:    e658        X.      B        0xd11e ; am_hal_cachectrl_control + 86
    $d
        0x0000d46c:    40018000    ...@    DCD    1073840128
        0x0000d470:    40018100    ...@    DCD    1073840384
    $t
    i.am_hal_cachectrl_enable
    am_hal_cachectrl_enable
        0x0000d474:    4803        .H      LDR      r0,[pc,#12] ; [0xd484] = 0x40018000
        0x0000d476:    6801        .h      LDR      r1,[r0,#0]
        0x0000d478:    f0410101    A...    ORR      r1,r1,#1
        0x0000d47c:    6001        .`      STR      r1,[r0,#0]
        0x0000d47e:    2000        .       MOVS     r0,#0
        0x0000d480:    4770        pG      BX       lr
    $d
        0x0000d482:    0000        ..      DCW    0
        0x0000d484:    40018000    ...@    DCD    1073840128
    $t
    i.am_hal_clkgen_control
    am_hal_clkgen_control
        0x0000d488:    b510        ..      PUSH     {r4,lr}
        0x0000d48a:    460c        .F      MOV      r4,r1
        0x0000d48c:    4939        9I      LDR      r1,[pc,#228] ; [0xd574] = 0x10011194
        0x0000d48e:    680a        .h      LDR      r2,[r1,#0]
        0x0000d490:    b912        ..      CBNZ     r2,0xd498 ; am_hal_clkgen_control + 16
        0x0000d492:    4a39        9J      LDR      r2,[pc,#228] ; [0xd578] = 0x4ffff000
        0x0000d494:    6812        .h      LDR      r2,[r2,#0]
        0x0000d496:    600a        .`      STR      r2,[r1,#0]
        0x0000d498:    280a        .(      CMP      r0,#0xa
        0x0000d49a:    d269        i.      BCS      0xd570 ; am_hal_clkgen_control + 232
        0x0000d49c:    e8dff000    ....    TBB      [pc,r0]
    $d
        0x0000d4a0:    27151b05    ...'    DCD    655694597
        0x0000d4a4:    3a400c21    !.@:    DCD    977275937
        0x0000d4a8:    6047        G`      DCW    24647
    $t
        0x0000d4aa:    f04f2040    O.@     MOV      r0,#0x40004000
        0x0000d4ae:    2147        G!      MOVS     r1,#0x47
        0x0000d4b0:    6141        Aa      STR      r1,[r0,#0x14]
        0x0000d4b2:    2100        .!      MOVS     r1,#0
        0x0000d4b4:    6181        .a      STR      r1,[r0,#0x18]
        0x0000d4b6:    e006        ..      B        0xd4c6 ; am_hal_clkgen_control + 62
        0x0000d4b8:    f04f2040    O.@     MOV      r0,#0x40004000
        0x0000d4bc:    2147        G!      MOVS     r1,#0x47
        0x0000d4be:    6141        Aa      STR      r1,[r0,#0x14]
        0x0000d4c0:    2101        .!      MOVS     r1,#1
        0x0000d4c2:    6181        .a      STR      r1,[r0,#0x18]
        0x0000d4c4:    2100        .!      MOVS     r1,#0
        0x0000d4c6:    6141        Aa      STR      r1,[r0,#0x14]
        0x0000d4c8:    e050        P.      B        0xd56c ; am_hal_clkgen_control + 228
        0x0000d4ca:    f04f2040    O.@     MOV      r0,#0x40004000
        0x0000d4ce:    68c1        .h      LDR      r1,[r0,#0xc]
        0x0000d4d0:    f0210102    !...    BIC      r1,r1,#2
        0x0000d4d4:    e029        ).      B        0xd52a ; am_hal_clkgen_control + 162
        0x0000d4d6:    f04f2040    O.@     MOV      r0,#0x40004000
        0x0000d4da:    68c1        .h      LDR      r1,[r0,#0xc]
        0x0000d4dc:    f0210101    !...    BIC      r1,r1,#1
        0x0000d4e0:    e023        #.      B        0xd52a ; am_hal_clkgen_control + 162
        0x0000d4e2:    f04f2040    O.@     MOV      r0,#0x40004000
        0x0000d4e6:    68c1        .h      LDR      r1,[r0,#0xc]
        0x0000d4e8:    f0410102    A...    ORR      r1,r1,#2
        0x0000d4ec:    e01d        ..      B        0xd52a ; am_hal_clkgen_control + 162
        0x0000d4ee:    4823        #H      LDR      r0,[pc,#140] ; [0xd57c] = 0x40020000
        0x0000d4f0:    68c1        .h      LDR      r1,[r0,#0xc]
        0x0000d4f2:    b2c9        ..      UXTB     r1,r1
        0x0000d4f4:    2921        !)      CMP      r1,#0x21
        0x0000d4f6:    d307        ..      BCC      0xd508 ; am_hal_clkgen_control + 128
        0x0000d4f8:    f8d01120    .. .    LDR      r1,[r0,#0x120]
        0x0000d4fc:    f4217140    !.@q    BIC      r1,r1,#0x300
        0x0000d500:    f5017180    ...q    ADD      r1,r1,#0x100
        0x0000d504:    f8c01120    .. .    STR      r1,[r0,#0x120]
        0x0000d508:    f04f2040    O.@     MOV      r0,#0x40004000
        0x0000d50c:    68c1        .h      LDR      r1,[r0,#0xc]
        0x0000d50e:    f0410101    A...    ORR      r1,r1,#1
        0x0000d512:    e00a        ..      B        0xd52a ; am_hal_clkgen_control + 162
        0x0000d514:    f04f2040    O.@     MOV      r0,#0x40004000
        0x0000d518:    68c1        .h      LDR      r1,[r0,#0xc]
        0x0000d51a:    f0410180    A...    ORR      r1,r1,#0x80
        0x0000d51e:    e004        ..      B        0xd52a ; am_hal_clkgen_control + 162
        0x0000d520:    f04f2040    O.@     MOV      r0,#0x40004000
        0x0000d524:    68c1        .h      LDR      r1,[r0,#0xc]
        0x0000d526:    f0210180    !...    BIC      r1,r1,#0x80
        0x0000d52a:    60c1        .`      STR      r1,[r0,#0xc]
        0x0000d52c:    e01e        ..      B        0xd56c ; am_hal_clkgen_control + 228
        0x0000d52e:    4813        .H      LDR      r0,[pc,#76] ; [0xd57c] = 0x40020000
        0x0000d530:    68c1        .h      LDR      r1,[r0,#0xc]
        0x0000d532:    b2c9        ..      UXTB     r1,r1
        0x0000d534:    2921        !)      CMP      r1,#0x21
        0x0000d536:    d309        ..      BCC      0xd54c ; am_hal_clkgen_control + 196
        0x0000d538:    f8d01120    .. .    LDR      r1,[r0,#0x120]
        0x0000d53c:    f4417140    A.@q    ORR      r1,r1,#0x300
        0x0000d540:    f8c01120    .. .    STR      r1,[r0,#0x120]
        0x0000d544:    f44f507a    O.zP    MOV      r0,#0x3e80
        0x0000d548:    f000fcca    ....    BL       am_hal_flash_delay ; 0xdee0
        0x0000d54c:    2c00        .,      CMP      r4,#0
        0x0000d54e:    bf0c        ..      ITE      EQ
        0x0000d550:    480b        .H      LDREQ    r0,[pc,#44] ; [0xd580] = 0x25b801
        0x0000d552:    6820         h      LDRNE    r0,[r4,#0]
        0x0000d554:    f0400001    @...    ORR      r0,r0,#1
        0x0000d558:    f04f2140    O.@!    MOV      r1,#0x40004000
        0x0000d55c:    6208        .b      STR      r0,[r1,#0x20]
        0x0000d55e:    e005        ..      B        0xd56c ; am_hal_clkgen_control + 228
        0x0000d560:    f04f2040    O.@     MOV      r0,#0x40004000
        0x0000d564:    6a01        .j      LDR      r1,[r0,#0x20]
        0x0000d566:    f0210101    !...    BIC      r1,r1,#1
        0x0000d56a:    6201        .b      STR      r1,[r0,#0x20]
        0x0000d56c:    2000        .       MOVS     r0,#0
        0x0000d56e:    bd10        ..      POP      {r4,pc}
        0x0000d570:    2006        .       MOVS     r0,#6
        0x0000d572:    bd10        ..      POP      {r4,pc}
    $d
        0x0000d574:    10011194    ....    DCD    268505492
        0x0000d578:    4ffff000    ...O    DCD    1342173184
        0x0000d57c:    40020000    ...@    DCD    1073872896
        0x0000d580:    0025b801    ..%.    DCD    2471937
    $t
    i.am_hal_clkgen_status_get
    am_hal_clkgen_status_get
        0x0000d584:    2800        .(      CMP      r0,#0
        0x0000d586:    bf04        ..      ITT      EQ
        0x0000d588:    2006        .       MOVEQ    r0,#6
        0x0000d58a:    4770        pG      BXEQ     lr
        0x0000d58c:    f04f2140    O.@!    MOV      r1,#0x40004000
        0x0000d590:    698a        .i      LDR      r2,[r1,#0x18]
        0x0000d592:    f0120f01    ....    TST      r2,#1
        0x0000d596:    bf14        ..      ITE      NE
        0x0000d598:    4a05        .J      LDRNE    r2,[pc,#20] ; [0xd5b0] = 0x16e3600
        0x0000d59a:    4a06        .J      LDREQ    r2,[pc,#24] ; [0xd5b4] = 0x2dc6c00
        0x0000d59c:    6002        .`      STR      r2,[r0,#0]
        0x0000d59e:    69c9        .i      LDR      r1,[r1,#0x1c]
        0x0000d5a0:    f0010201    ....    AND      r2,r1,#1
        0x0000d5a4:    f3c10140    ..@.    UBFX     r1,r1,#1,#1
        0x0000d5a8:    6042        B`      STR      r2,[r0,#4]
        0x0000d5aa:    7201        .r      STRB     r1,[r0,#8]
        0x0000d5ac:    2000        .       MOVS     r0,#0
        0x0000d5ae:    4770        pG      BX       lr
    $d
        0x0000d5b0:    016e3600    .6n.    DCD    24000000
        0x0000d5b4:    02dc6c00    .l..    DCD    48000000
    $t
    i.am_hal_cmdq_alloc_block
    am_hal_cmdq_alloc_block
        0x0000d5b8:    b5f8        ..      PUSH     {r3-r7,lr}
        0x0000d5ba:    461e        .F      MOV      r6,r3
        0x0000d5bc:    4617        .F      MOV      r7,r2
        0x0000d5be:    460d        .F      MOV      r5,r1
        0x0000d5c0:    1e04        ..      SUBS     r4,r0,#0
        0x0000d5c2:    bf1c        ..      ITT      NE
        0x0000d5c4:    6820         h      LDRNE    r0,[r4,#0]
        0x0000d5c6:    f0107f80    ....    TSTNE    r0,#0x1000000
        0x0000d5ca:    d004        ..      BEQ      0xd5d6 ; am_hal_cmdq_alloc_block + 30
        0x0000d5cc:    492c        ,I      LDR      r1,[pc,#176] ; [0xd680] = 0xcdcdcd
        0x0000d5ce:    f020407f     ..@    BIC      r0,r0,#0xff000000
        0x0000d5d2:    4288        .B      CMP      r0,r1
        0x0000d5d4:    d001        ..      BEQ      0xd5da ; am_hal_cmdq_alloc_block + 34
        0x0000d5d6:    2002        .       MOVS     r0,#2
        0x0000d5d8:    bdf8        ..      POP      {r3-r7,pc}
        0x0000d5da:    2f00        ./      CMP      r7,#0
        0x0000d5dc:    bf12        ..      ITEE     NE
        0x0000d5de:    2e00        ..      CMPNE    r6,#0
        0x0000d5e0:    2006        .       MOVEQ    r0,#6
        0x0000d5e2:    bdf8        ..      POPEQ    {r3-r7,pc}
        0x0000d5e4:    e9d40104    ....    LDRD     r0,r1,[r4,#0x10]
        0x0000d5e8:    4288        .B      CMP      r0,r1
        0x0000d5ea:    bf1c        ..      ITT      NE
        0x0000d5ec:    2007        .       MOVNE    r0,#7
        0x0000d5ee:    bdf8        ..      POPNE    {r3-r7,pc}
        0x0000d5f0:    f7fefe28    ..(.    BL       am_hal_interrupt_master_disable ; 0xc244
        0x0000d5f4:    9000        ..      STR      r0,[sp,#0]
        0x0000d5f6:    6a60        `j      LDR      r0,[r4,#0x24]
        0x0000d5f8:    6880        .h      LDR      r0,[r0,#8]
        0x0000d5fa:    6800        .h      LDR      r0,[r0,#0]
        0x0000d5fc:    6a21        !j      LDR      r1,[r4,#0x20]
        0x0000d5fe:    b2c0        ..      UXTB     r0,r0
        0x0000d600:    f02101ff    !...    BIC      r1,r1,#0xff
        0x0000d604:    4308        .C      ORRS     r0,r0,r1
        0x0000d606:    61e0        .a      STR      r0,[r4,#0x1c]
        0x0000d608:    6a21        !j      LDR      r1,[r4,#0x20]
        0x0000d60a:    1a09        ..      SUBS     r1,r1,r0
        0x0000d60c:    bf44        D.      ITT      MI
        0x0000d60e:    f5a07080    ...p    SUBMI    r0,r0,#0x100
        0x0000d612:    61e0        .a      STRMI    r0,[r4,#0x1c]
        0x0000d614:    6a60        `j      LDR      r0,[r4,#0x24]
        0x0000d616:    6840        @h      LDR      r0,[r0,#4]
        0x0000d618:    6800        .h      LDR      r0,[r0,#0]
        0x0000d61a:    60e0        .`      STR      r0,[r4,#0xc]
        0x0000d61c:    9800        ..      LDR      r0,[sp,#0]
        0x0000d61e:    f7fefe15    ....    BL       am_hal_interrupt_master_set ; 0xc24c
        0x0000d622:    e9d40107    ....    LDRD     r0,r1,[r4,#0x1c]
        0x0000d626:    1a40        @.      SUBS     r0,r0,r1
        0x0000d628:    f1100ffe    ....    CMN      r0,#0xfe
        0x0000d62c:    d41c        ..      BMI      0xd668 ; am_hal_cmdq_alloc_block + 176
        0x0000d62e:    e9d42003    ...     LDRD     r2,r0,[r4,#0xc]
        0x0000d632:    2108        .!      MOVS     r1,#8
        0x0000d634:    eb0101c5    ....    ADD      r1,r1,r5,LSL #3
        0x0000d638:    4290        .B      CMP      r0,r2
        0x0000d63a:    d312        ..      BCC      0xd662 ; am_hal_cmdq_alloc_block + 170
        0x0000d63c:    2310        .#      MOVS     r3,#0x10
        0x0000d63e:    eb0303c5    ....    ADD      r3,r3,r5,LSL #3
        0x0000d642:    f8d4c008    ....    LDR      r12,[r4,#8]
        0x0000d646:    4403        .D      ADD      r3,r3,r0
        0x0000d648:    4563        cE      CMP      r3,r12
        0x0000d64a:    d90f        ..      BLS      0xd66c ; am_hal_cmdq_alloc_block + 180
        0x0000d64c:    6863        ch      LDR      r3,[r4,#4]
        0x0000d64e:    4419        .D      ADD      r1,r1,r3
        0x0000d650:    428a        .B      CMP      r2,r1
        0x0000d652:    d909        ..      BLS      0xd668 ; am_hal_cmdq_alloc_block + 176
        0x0000d654:    6a61        aj      LDR      r1,[r4,#0x24]
        0x0000d656:    6849        Ih      LDR      r1,[r1,#4]
        0x0000d658:    6001        .`      STR      r1,[r0,#0]
        0x0000d65a:    6861        ah      LDR      r1,[r4,#4]
        0x0000d65c:    6041        A`      STR      r1,[r0,#4]
        0x0000d65e:    6860        `h      LDR      r0,[r4,#4]
        0x0000d660:    e004        ..      B        0xd66c ; am_hal_cmdq_alloc_block + 180
        0x0000d662:    4401        .D      ADD      r1,r1,r0
        0x0000d664:    4291        .B      CMP      r1,r2
        0x0000d666:    d301        ..      BCC      0xd66c ; am_hal_cmdq_alloc_block + 180
        0x0000d668:    2005        .       MOVS     r0,#5
        0x0000d66a:    bdf8        ..      POP      {r3-r7,pc}
        0x0000d66c:    6038        8`      STR      r0,[r7,#0]
        0x0000d66e:    6a21        !j      LDR      r1,[r4,#0x20]
        0x0000d670:    eb0000c5    ....    ADD      r0,r0,r5,LSL #3
        0x0000d674:    1c49        I.      ADDS     r1,r1,#1
        0x0000d676:    6221        !b      STR      r1,[r4,#0x20]
        0x0000d678:    6031        1`      STR      r1,[r6,#0]
        0x0000d67a:    6160        `a      STR      r0,[r4,#0x14]
        0x0000d67c:    2000        .       MOVS     r0,#0
        0x0000d67e:    bdf8        ..      POP      {r3-r7,pc}
    $d
        0x0000d680:    00cdcdcd    ....    DCD    13487565
    $t
    i.am_hal_cmdq_disable
    am_hal_cmdq_disable
        0x0000d684:    2800        .(      CMP      r0,#0
        0x0000d686:    bf1c        ..      ITT      NE
        0x0000d688:    6801        .h      LDRNE    r1,[r0,#0]
        0x0000d68a:    f0117f80    ....    TSTNE    r1,#0x1000000
        0x0000d68e:    d004        ..      BEQ      0xd69a ; am_hal_cmdq_disable + 22
        0x0000d690:    4b0b        .K      LDR      r3,[pc,#44] ; [0xd6c0] = 0xcdcdcd
        0x0000d692:    f021427f    !..B    BIC      r2,r1,#0xff000000
        0x0000d696:    429a        .B      CMP      r2,r3
        0x0000d698:    d001        ..      BEQ      0xd69e ; am_hal_cmdq_disable + 26
        0x0000d69a:    2002        .       MOVS     r0,#2
        0x0000d69c:    4770        pG      BX       lr
        0x0000d69e:    f0117f00    ....    TST      r1,#0x2000000
        0x0000d6a2:    bf04        ..      ITT      EQ
        0x0000d6a4:    2000        .       MOVEQ    r0,#0
        0x0000d6a6:    4770        pG      BXEQ     lr
        0x0000d6a8:    6a41        Aj      LDR      r1,[r0,#0x24]
        0x0000d6aa:    6809        .h      LDR      r1,[r1,#0]
        0x0000d6ac:    680a        .h      LDR      r2,[r1,#0]
        0x0000d6ae:    f0220201    "...    BIC      r2,r2,#1
        0x0000d6b2:    600a        .`      STR      r2,[r1,#0]
        0x0000d6b4:    6801        .h      LDR      r1,[r0,#0]
        0x0000d6b6:    f0217100    !..q    BIC      r1,r1,#0x2000000
        0x0000d6ba:    6001        .`      STR      r1,[r0,#0]
        0x0000d6bc:    2000        .       MOVS     r0,#0
        0x0000d6be:    4770        pG      BX       lr
    $d
        0x0000d6c0:    00cdcdcd    ....    DCD    13487565
    $t
    i.am_hal_cmdq_enable
    am_hal_cmdq_enable
        0x0000d6c4:    2800        .(      CMP      r0,#0
        0x0000d6c6:    bf1c        ..      ITT      NE
        0x0000d6c8:    6801        .h      LDRNE    r1,[r0,#0]
        0x0000d6ca:    f0117f80    ....    TSTNE    r1,#0x1000000
        0x0000d6ce:    d004        ..      BEQ      0xd6da ; am_hal_cmdq_enable + 22
        0x0000d6d0:    4b0b        .K      LDR      r3,[pc,#44] ; [0xd700] = 0xcdcdcd
        0x0000d6d2:    f021427f    !..B    BIC      r2,r1,#0xff000000
        0x0000d6d6:    429a        .B      CMP      r2,r3
        0x0000d6d8:    d001        ..      BEQ      0xd6de ; am_hal_cmdq_enable + 26
        0x0000d6da:    2002        .       MOVS     r0,#2
        0x0000d6dc:    4770        pG      BX       lr
        0x0000d6de:    f0117f00    ....    TST      r1,#0x2000000
        0x0000d6e2:    bf1c        ..      ITT      NE
        0x0000d6e4:    2000        .       MOVNE    r0,#0
        0x0000d6e6:    4770        pG      BXNE     lr
        0x0000d6e8:    6a41        Aj      LDR      r1,[r0,#0x24]
        0x0000d6ea:    6809        .h      LDR      r1,[r1,#0]
        0x0000d6ec:    680a        .h      LDR      r2,[r1,#0]
        0x0000d6ee:    f0420201    B...    ORR      r2,r2,#1
        0x0000d6f2:    600a        .`      STR      r2,[r1,#0]
        0x0000d6f4:    6801        .h      LDR      r1,[r0,#0]
        0x0000d6f6:    f0417100    A..q    ORR      r1,r1,#0x2000000
        0x0000d6fa:    6001        .`      STR      r1,[r0,#0]
        0x0000d6fc:    2000        .       MOVS     r0,#0
        0x0000d6fe:    4770        pG      BX       lr
    $d
        0x0000d700:    00cdcdcd    ....    DCD    13487565
    $t
    i.am_hal_cmdq_error_resume
    am_hal_cmdq_error_resume
        0x0000d704:    2800        .(      CMP      r0,#0
        0x0000d706:    bf1c        ..      ITT      NE
        0x0000d708:    6801        .h      LDRNE    r1,[r0,#0]
        0x0000d70a:    f0117f80    ....    TSTNE    r1,#0x1000000
        0x0000d70e:    d004        ..      BEQ      0xd71a ; am_hal_cmdq_error_resume + 22
        0x0000d710:    4b18        .K      LDR      r3,[pc,#96] ; [0xd774] = 0xcdcdcd
        0x0000d712:    f021427f    !..B    BIC      r2,r1,#0xff000000
        0x0000d716:    429a        .B      CMP      r2,r3
        0x0000d718:    d001        ..      BEQ      0xd71e ; am_hal_cmdq_error_resume + 26
        0x0000d71a:    2002        .       MOVS     r0,#2
        0x0000d71c:    4770        pG      BX       lr
        0x0000d71e:    f0117f00    ....    TST      r1,#0x2000000
        0x0000d722:    bf04        ..      ITT      EQ
        0x0000d724:    2000        .       MOVEQ    r0,#0
        0x0000d726:    4770        pG      BXEQ     lr
        0x0000d728:    6a41        Aj      LDR      r1,[r0,#0x24]
        0x0000d72a:    6809        .h      LDR      r1,[r1,#0]
        0x0000d72c:    680a        .h      LDR      r2,[r1,#0]
        0x0000d72e:    f0220201    "...    BIC      r2,r2,#1
        0x0000d732:    600a        .`      STR      r2,[r1,#0]
        0x0000d734:    6a42        Bj      LDR      r2,[r0,#0x24]
        0x0000d736:    6853        Sh      LDR      r3,[r2,#4]
        0x0000d738:    6819        .h      LDR      r1,[r3,#0]
        0x0000d73a:    6892        .h      LDR      r2,[r2,#8]
        0x0000d73c:    f8d1c000    ....    LDR      r12,[r1,#0]
        0x0000d740:    f02c0c01    ,...    BIC      r12,r12,#1
        0x0000d744:    4594        .E      CMP      r12,r2
        0x0000d746:    d00b        ..      BEQ      0xd760 ; am_hal_cmdq_error_resume + 92
        0x0000d748:    f8d1c000    ....    LDR      r12,[r1,#0]
        0x0000d74c:    459c        .E      CMP      r12,r3
        0x0000d74e:    bf0c        ..      ITE      EQ
        0x0000d750:    6849        Ih      LDREQ    r1,[r1,#4]
        0x0000d752:    3108        .1      ADDNE    r1,r1,#8
        0x0000d754:    f8d1c000    ....    LDR      r12,[r1,#0]
        0x0000d758:    f02c0c01    ,...    BIC      r12,r12,#1
        0x0000d75c:    4594        .E      CMP      r12,r2
        0x0000d75e:    d1f3        ..      BNE      0xd748 ; am_hal_cmdq_error_resume + 68
        0x0000d760:    600a        .`      STR      r2,[r1,#0]
        0x0000d762:    6a42        Bj      LDR      r2,[r0,#0x24]
        0x0000d764:    6852        Rh      LDR      r2,[r2,#4]
        0x0000d766:    6011        .`      STR      r1,[r2,#0]
        0x0000d768:    6801        .h      LDR      r1,[r0,#0]
        0x0000d76a:    f0217100    !..q    BIC      r1,r1,#0x2000000
        0x0000d76e:    6001        .`      STR      r1,[r0,#0]
        0x0000d770:    2000        .       MOVS     r0,#0
        0x0000d772:    4770        pG      BX       lr
    $d
        0x0000d774:    00cdcdcd    ....    DCD    13487565
    $t
    i.am_hal_cmdq_get_status
    am_hal_cmdq_get_status
        0x0000d778:    b538        8.      PUSH     {r3-r5,lr}
        0x0000d77a:    460d        .F      MOV      r5,r1
        0x0000d77c:    1e04        ..      SUBS     r4,r0,#0
        0x0000d77e:    bf1c        ..      ITT      NE
        0x0000d780:    6820         h      LDRNE    r0,[r4,#0]
        0x0000d782:    f0107f80    ....    TSTNE    r0,#0x1000000
        0x0000d786:    d004        ..      BEQ      0xd792 ; am_hal_cmdq_get_status + 26
        0x0000d788:    4923        #I      LDR      r1,[pc,#140] ; [0xd818] = 0xcdcdcd
        0x0000d78a:    f020407f     ..@    BIC      r0,r0,#0xff000000
        0x0000d78e:    4288        .B      CMP      r0,r1
        0x0000d790:    d001        ..      BEQ      0xd796 ; am_hal_cmdq_get_status + 30
        0x0000d792:    2002        .       MOVS     r0,#2
        0x0000d794:    bd38        8.      POP      {r3-r5,pc}
        0x0000d796:    2d00        .-      CMP      r5,#0
        0x0000d798:    bf04        ..      ITT      EQ
        0x0000d79a:    2006        .       MOVEQ    r0,#6
        0x0000d79c:    bd38        8.      POPEQ    {r3-r5,pc}
        0x0000d79e:    f7fefd51    ..Q.    BL       am_hal_interrupt_master_disable ; 0xc244
        0x0000d7a2:    9000        ..      STR      r0,[sp,#0]
        0x0000d7a4:    6a60        `j      LDR      r0,[r4,#0x24]
        0x0000d7a6:    6880        .h      LDR      r0,[r0,#8]
        0x0000d7a8:    6800        .h      LDR      r0,[r0,#0]
        0x0000d7aa:    6a21        !j      LDR      r1,[r4,#0x20]
        0x0000d7ac:    b2c0        ..      UXTB     r0,r0
        0x0000d7ae:    f02101ff    !...    BIC      r1,r1,#0xff
        0x0000d7b2:    4308        .C      ORRS     r0,r0,r1
        0x0000d7b4:    61e0        .a      STR      r0,[r4,#0x1c]
        0x0000d7b6:    6a21        !j      LDR      r1,[r4,#0x20]
        0x0000d7b8:    1a09        ..      SUBS     r1,r1,r0
        0x0000d7ba:    bf44        D.      ITT      MI
        0x0000d7bc:    f5a07080    ...p    SUBMI    r0,r0,#0x100
        0x0000d7c0:    61e0        .a      STRMI    r0,[r4,#0x1c]
        0x0000d7c2:    6a60        `j      LDR      r0,[r4,#0x24]
        0x0000d7c4:    6840        @h      LDR      r0,[r0,#4]
        0x0000d7c6:    6800        .h      LDR      r0,[r0,#0]
        0x0000d7c8:    60e0        .`      STR      r0,[r4,#0xc]
        0x0000d7ca:    9800        ..      LDR      r0,[sp,#0]
        0x0000d7cc:    f7fefd3e    ..>.    BL       am_hal_interrupt_master_set ; 0xc24c
        0x0000d7d0:    69e0        .i      LDR      r0,[r4,#0x1c]
        0x0000d7d2:    6028        (`      STR      r0,[r5,#0]
        0x0000d7d4:    6a20         j      LDR      r0,[r4,#0x20]
        0x0000d7d6:    60a8        .`      STR      r0,[r5,#8]
        0x0000d7d8:    e9d40104    ....    LDRD     r0,r1,[r4,#0x10]
        0x0000d7dc:    4281        .B      CMP      r1,r0
        0x0000d7de:    bf14        ..      ITE      NE
        0x0000d7e0:    2001        .       MOVNE    r0,#1
        0x0000d7e2:    2000        .       MOVEQ    r0,#0
        0x0000d7e4:    6a21        !j      LDR      r1,[r4,#0x20]
        0x0000d7e6:    1a08        ..      SUBS     r0,r1,r0
        0x0000d7e8:    6068        h`      STR      r0,[r5,#4]
        0x0000d7ea:    6a61        aj      LDR      r1,[r4,#0x24]
        0x0000d7ec:    6988        .i      LDR      r0,[r1,#0x18]
        0x0000d7ee:    6800        .h      LDR      r0,[r0,#0]
        0x0000d7f0:    69c9        .i      LDR      r1,[r1,#0x1c]
        0x0000d7f2:    4001        .@      ANDS     r1,r1,r0
        0x0000d7f4:    bf18        ..      IT       NE
        0x0000d7f6:    2101        .!      MOVNE    r1,#1
        0x0000d7f8:    7329        )s      STRB     r1,[r5,#0xc]
        0x0000d7fa:    6a61        aj      LDR      r1,[r4,#0x24]
        0x0000d7fc:    6a49        Ij      LDR      r1,[r1,#0x24]
        0x0000d7fe:    4001        .@      ANDS     r1,r1,r0
        0x0000d800:    bf18        ..      IT       NE
        0x0000d802:    2101        .!      MOVNE    r1,#1
        0x0000d804:    7369        is      STRB     r1,[r5,#0xd]
        0x0000d806:    6a61        aj      LDR      r1,[r4,#0x24]
        0x0000d808:    6a09        .j      LDR      r1,[r1,#0x20]
        0x0000d80a:    4008        .@      ANDS     r0,r0,r1
        0x0000d80c:    bf18        ..      IT       NE
        0x0000d80e:    2001        .       MOVNE    r0,#1
        0x0000d810:    73a8        .s      STRB     r0,[r5,#0xe]
        0x0000d812:    2000        .       MOVS     r0,#0
        0x0000d814:    bd38        8.      POP      {r3-r5,pc}
    $d
        0x0000d816:    0000        ..      DCW    0
        0x0000d818:    00cdcdcd    ....    DCD    13487565
    $t
    i.am_hal_cmdq_init
    am_hal_cmdq_init
        0x0000d81c:    280a        .(      CMP      r0,#0xa
        0x0000d81e:    bf24        $.      ITT      CS
        0x0000d820:    2005        .       MOVCS    r0,#5
        0x0000d822:    4770        pG      BXCS     lr
        0x0000d824:    2900        .)      CMP      r1,#0
        0x0000d826:    bf1e        ..      ITTT     NE
        0x0000d828:    684b        Kh      LDRNE    r3,[r1,#4]
        0x0000d82a:    2b00        .+      CMPNE    r3,#0
        0x0000d82c:    2a00        .*      CMPNE    r2,#0
        0x0000d82e:    d004        ..      BEQ      0xd83a ; am_hal_cmdq_init + 30
        0x0000d830:    f8d1c000    ....    LDR      r12,[r1,#0]
        0x0000d834:    f1bc0f02    ....    CMP      r12,#2
        0x0000d838:    d201        ..      BCS      0xd83e ; am_hal_cmdq_init + 34
        0x0000d83a:    2006        .       MOVS     r0,#6
        0x0000d83c:    4770        pG      BX       lr
        0x0000d83e:    b430        0.      PUSH     {r4,r5}
        0x0000d840:    eb000340    ..@.    ADD      r3,r0,r0,LSL #1
        0x0000d844:    4c2e        .L      LDR      r4,[pc,#184] ; [0xd900] = 0x10017d24
        0x0000d846:    eb0303c0    ....    ADD      r3,r3,r0,LSL #3
        0x0000d84a:    f8545023    T.#P    LDR      r5,[r4,r3,LSL #2]
        0x0000d84e:    f0157f80    ....    TST      r5,#0x1000000
        0x0000d852:    bf1e        ..      ITTT     NE
        0x0000d854:    2007        .       MOVNE    r0,#7
        0x0000d856:    bc30        0.      POPNE    {r4,r5}
        0x0000d858:    4770        pG      BXNE     lr
        0x0000d85a:    eb040383    ....    ADD      r3,r4,r3,LSL #2
        0x0000d85e:    ea4f0ccc    O...    LSL      r12,r12,#3
        0x0000d862:    f8c3c018    ....    STR      r12,[r3,#0x18]
        0x0000d866:    f8d1c004    ....    LDR      r12,[r1,#4]
        0x0000d86a:    f8c3c004    ....    STR      r12,[r3,#4]
        0x0000d86e:    f8c3c00c    ....    STR      r12,[r3,#0xc]
        0x0000d872:    f8c3c014    ....    STR      r12,[r3,#0x14]
        0x0000d876:    f8c3c010    ....    STR      r12,[r3,#0x10]
        0x0000d87a:    e9d14c00    ...L    LDRD     r4,r12,[r1,#0]
        0x0000d87e:    eb0c0cc4    ....    ADD      r12,r12,r4,LSL #3
        0x0000d882:    f8c3c008    ....    STR      r12,[r3,#8]
        0x0000d886:    f8d3c000    ....    LDR      r12,[r3,#0]
        0x0000d88a:    4c1e        .L      LDR      r4,[pc,#120] ; [0xd904] = 0xcdcdcd
        0x0000d88c:    f02c7c00    ,..|    BIC      r12,r12,#0x2000000
        0x0000d890:    f04c7c80    L..|    ORR      r12,r12,#0x1000000
        0x0000d894:    f3640c17    d...    BFI      r12,r4,#0,#24
        0x0000d898:    f8c3c000    ....    STR      r12,[r3,#0]
        0x0000d89c:    f8dfc068    ..h.    LDR      r12,[pc,#104] ; [0xd908] = 0x12410
        0x0000d8a0:    eb000080    ....    ADD      r0,r0,r0,LSL #2
        0x0000d8a4:    eb0c00c0    ....    ADD      r0,r12,r0,LSL #3
        0x0000d8a8:    6258        Xb      STR      r0,[r3,#0x24]
        0x0000d8aa:    2000        .       MOVS     r0,#0
        0x0000d8ac:    61d8        .a      STR      r0,[r3,#0x1c]
        0x0000d8ae:    6218        .b      STR      r0,[r3,#0x20]
        0x0000d8b0:    f8d3c024    ..$.    LDR      r12,[r3,#0x24]
        0x0000d8b4:    f8dcc008    ....    LDR      r12,[r12,#8]
        0x0000d8b8:    f8cc0000    ....    STR      r0,[r12,#0]
        0x0000d8bc:    f8d3c024    ..$.    LDR      r12,[r3,#0x24]
        0x0000d8c0:    f8dcc00c    ....    LDR      r12,[r12,#0xc]
        0x0000d8c4:    f8cc0000    ....    STR      r0,[r12,#0]
        0x0000d8c8:    6a58        Xj      LDR      r0,[r3,#0x24]
        0x0000d8ca:    f8d0c010    ....    LDR      r12,[r0,#0x10]
        0x0000d8ce:    f8dc4000    ...@    LDR      r4,[r12,#0]
        0x0000d8d2:    6940        @i      LDR      r0,[r0,#0x14]
        0x0000d8d4:    4320         C      ORRS     r0,r0,r4
        0x0000d8d6:    f8cc0000    ....    STR      r0,[r12,#0]
        0x0000d8da:    f8d3c024    ..$.    LDR      r12,[r3,#0x24]
        0x0000d8de:    6848        Hh      LDR      r0,[r1,#4]
        0x0000d8e0:    f8dcc004    ....    LDR      r12,[r12,#4]
        0x0000d8e4:    f8cc0000    ....    STR      r0,[r12,#0]
        0x0000d8e8:    7a08        .z      LDRB     r0,[r1,#8]
        0x0000d8ea:    2102        .!      MOVS     r1,#2
        0x0000d8ec:    ea010040    ..@.    AND      r0,r1,r0,LSL #1
        0x0000d8f0:    6a59        Yj      LDR      r1,[r3,#0x24]
        0x0000d8f2:    6809        .h      LDR      r1,[r1,#0]
        0x0000d8f4:    6008        .`      STR      r0,[r1,#0]
        0x0000d8f6:    6013        .`      STR      r3,[r2,#0]
        0x0000d8f8:    bc30        0.      POP      {r4,r5}
        0x0000d8fa:    2000        .       MOVS     r0,#0
        0x0000d8fc:    4770        pG      BX       lr
    $d
        0x0000d8fe:    0000        ..      DCW    0
        0x0000d900:    10017d24    $}..    DCD    268533028
        0x0000d904:    00cdcdcd    ....    DCD    13487565
        0x0000d908:    00012410    .$..    DCD    74768
    $t
    i.am_hal_cmdq_post_block
    am_hal_cmdq_post_block
        0x0000d90c:    2800        .(      CMP      r0,#0
        0x0000d90e:    bf1c        ..      ITT      NE
        0x0000d910:    6802        .h      LDRNE    r2,[r0,#0]
        0x0000d912:    f0127f80    ....    TSTNE    r2,#0x1000000
        0x0000d916:    d004        ..      BEQ      0xd922 ; am_hal_cmdq_post_block + 22
        0x0000d918:    4b0e        .K      LDR      r3,[pc,#56] ; [0xd954] = 0xcdcdcd
        0x0000d91a:    f022427f    "..B    BIC      r2,r2,#0xff000000
        0x0000d91e:    429a        .B      CMP      r2,r3
        0x0000d920:    d001        ..      BEQ      0xd926 ; am_hal_cmdq_post_block + 26
        0x0000d922:    2002        .       MOVS     r0,#2
        0x0000d924:    4770        pG      BX       lr
        0x0000d926:    e9d03204    ...2    LDRD     r3,r2,[r0,#0x10]
        0x0000d92a:    4293        .B      CMP      r3,r2
        0x0000d92c:    bf04        ..      ITT      EQ
        0x0000d92e:    2007        .       MOVEQ    r0,#7
        0x0000d930:    4770        pG      BXEQ     lr
        0x0000d932:    6a43        Cj      LDR      r3,[r0,#0x24]
        0x0000d934:    689b        .h      LDR      r3,[r3,#8]
        0x0000d936:    4319        .C      ORRS     r1,r1,r3
        0x0000d938:    6011        .`      STR      r1,[r2,#0]
        0x0000d93a:    6a01        .j      LDR      r1,[r0,#0x20]
        0x0000d93c:    6051        Q`      STR      r1,[r2,#4]
        0x0000d93e:    f1020108    ....    ADD      r1,r2,#8
        0x0000d942:    6141        Aa      STR      r1,[r0,#0x14]
        0x0000d944:    6101        .a      STR      r1,[r0,#0x10]
        0x0000d946:    f8901020    .. .    LDRB     r1,[r0,#0x20]
        0x0000d94a:    6a40        @j      LDR      r0,[r0,#0x24]
        0x0000d94c:    68c0        .h      LDR      r0,[r0,#0xc]
        0x0000d94e:    6001        .`      STR      r1,[r0,#0]
        0x0000d950:    2000        .       MOVS     r0,#0
        0x0000d952:    4770        pG      BX       lr
    $d
        0x0000d954:    00cdcdcd    ....    DCD    13487565
    $t
    i.am_hal_cmdq_post_loop_block
    am_hal_cmdq_post_loop_block
        0x0000d958:    2800        .(      CMP      r0,#0
        0x0000d95a:    bf1c        ..      ITT      NE
        0x0000d95c:    6802        .h      LDRNE    r2,[r0,#0]
        0x0000d95e:    f0127f80    ....    TSTNE    r2,#0x1000000
        0x0000d962:    d004        ..      BEQ      0xd96e ; am_hal_cmdq_post_loop_block + 22
        0x0000d964:    4b12        .K      LDR      r3,[pc,#72] ; [0xd9b0] = 0xcdcdcd
        0x0000d966:    f022427f    "..B    BIC      r2,r2,#0xff000000
        0x0000d96a:    429a        .B      CMP      r2,r3
        0x0000d96c:    d001        ..      BEQ      0xd972 ; am_hal_cmdq_post_loop_block + 26
        0x0000d96e:    2002        .       MOVS     r0,#2
        0x0000d970:    4770        pG      BX       lr
        0x0000d972:    e9d03204    ...2    LDRD     r3,r2,[r0,#0x10]
        0x0000d976:    4293        .B      CMP      r3,r2
        0x0000d978:    bf04        ..      ITT      EQ
        0x0000d97a:    2007        .       MOVEQ    r0,#7
        0x0000d97c:    4770        pG      BXEQ     lr
        0x0000d97e:    6a43        Cj      LDR      r3,[r0,#0x24]
        0x0000d980:    689b        .h      LDR      r3,[r3,#8]
        0x0000d982:    f8423b04    B..;    STR      r3,[r2],#4
        0x0000d986:    2300        .#      MOVS     r3,#0
        0x0000d988:    f8423b04    B..;    STR      r3,[r2],#4
        0x0000d98c:    6a43        Cj      LDR      r3,[r0,#0x24]
        0x0000d98e:    685b        [h      LDR      r3,[r3,#4]
        0x0000d990:    4319        .C      ORRS     r1,r1,r3
        0x0000d992:    6011        .`      STR      r1,[r2,#0]
        0x0000d994:    6841        Ah      LDR      r1,[r0,#4]
        0x0000d996:    6051        Q`      STR      r1,[r2,#4]
        0x0000d998:    f1020108    ....    ADD      r1,r2,#8
        0x0000d99c:    6141        Aa      STR      r1,[r0,#0x14]
        0x0000d99e:    6101        .a      STR      r1,[r0,#0x10]
        0x0000d9a0:    f8901020    .. .    LDRB     r1,[r0,#0x20]
        0x0000d9a4:    6a40        @j      LDR      r0,[r0,#0x24]
        0x0000d9a6:    68c0        .h      LDR      r0,[r0,#0xc]
        0x0000d9a8:    6001        .`      STR      r1,[r0,#0]
        0x0000d9aa:    2000        .       MOVS     r0,#0
        0x0000d9ac:    4770        pG      BX       lr
    $d
        0x0000d9ae:    0000        ..      DCW    0
        0x0000d9b0:    00cdcdcd    ....    DCD    13487565
    $t
    i.am_hal_cmdq_release_block
    am_hal_cmdq_release_block
        0x0000d9b4:    2800        .(      CMP      r0,#0
        0x0000d9b6:    bf1c        ..      ITT      NE
        0x0000d9b8:    6801        .h      LDRNE    r1,[r0,#0]
        0x0000d9ba:    f0117f80    ....    TSTNE    r1,#0x1000000
        0x0000d9be:    d004        ..      BEQ      0xd9ca ; am_hal_cmdq_release_block + 22
        0x0000d9c0:    4a09        .J      LDR      r2,[pc,#36] ; [0xd9e8] = 0xcdcdcd
        0x0000d9c2:    f021417f    !..A    BIC      r1,r1,#0xff000000
        0x0000d9c6:    4291        .B      CMP      r1,r2
        0x0000d9c8:    d001        ..      BEQ      0xd9ce ; am_hal_cmdq_release_block + 26
        0x0000d9ca:    2002        .       MOVS     r0,#2
        0x0000d9cc:    4770        pG      BX       lr
        0x0000d9ce:    e9d01204    ....    LDRD     r1,r2,[r0,#0x10]
        0x0000d9d2:    4291        .B      CMP      r1,r2
        0x0000d9d4:    bf04        ..      ITT      EQ
        0x0000d9d6:    2007        .       MOVEQ    r0,#7
        0x0000d9d8:    4770        pG      BXEQ     lr
        0x0000d9da:    6141        Aa      STR      r1,[r0,#0x14]
        0x0000d9dc:    6a01        .j      LDR      r1,[r0,#0x20]
        0x0000d9de:    1e49        I.      SUBS     r1,r1,#1
        0x0000d9e0:    6201        .b      STR      r1,[r0,#0x20]
        0x0000d9e2:    2000        .       MOVS     r0,#0
        0x0000d9e4:    4770        pG      BX       lr
    $d
        0x0000d9e6:    0000        ..      DCW    0
        0x0000d9e8:    00cdcdcd    ....    DCD    13487565
    $t
    i.am_hal_cmdq_reset
    am_hal_cmdq_reset
        0x0000d9ec:    2800        .(      CMP      r0,#0
        0x0000d9ee:    bf1c        ..      ITT      NE
        0x0000d9f0:    6801        .h      LDRNE    r1,[r0,#0]
        0x0000d9f2:    f0117f80    ....    TSTNE    r1,#0x1000000
        0x0000d9f6:    d004        ..      BEQ      0xda02 ; am_hal_cmdq_reset + 22
        0x0000d9f8:    4b14        .K      LDR      r3,[pc,#80] ; [0xda4c] = 0xcdcdcd
        0x0000d9fa:    f021427f    !..B    BIC      r2,r1,#0xff000000
        0x0000d9fe:    429a        .B      CMP      r2,r3
        0x0000da00:    d001        ..      BEQ      0xda06 ; am_hal_cmdq_reset + 26
        0x0000da02:    2002        .       MOVS     r0,#2
        0x0000da04:    4770        pG      BX       lr
        0x0000da06:    f0117f00    ....    TST      r1,#0x2000000
        0x0000da0a:    bf1c        ..      ITT      NE
        0x0000da0c:    2007        .       MOVNE    r0,#7
        0x0000da0e:    4770        pG      BXNE     lr
        0x0000da10:    6a41        Aj      LDR      r1,[r0,#0x24]
        0x0000da12:    6809        .h      LDR      r1,[r1,#0]
        0x0000da14:    680a        .h      LDR      r2,[r1,#0]
        0x0000da16:    f0220201    "...    BIC      r2,r2,#1
        0x0000da1a:    600a        .`      STR      r2,[r1,#0]
        0x0000da1c:    6841        Ah      LDR      r1,[r0,#4]
        0x0000da1e:    60c1        .`      STR      r1,[r0,#0xc]
        0x0000da20:    6141        Aa      STR      r1,[r0,#0x14]
        0x0000da22:    6101        .a      STR      r1,[r0,#0x10]
        0x0000da24:    2100        .!      MOVS     r1,#0
        0x0000da26:    61c1        .a      STR      r1,[r0,#0x1c]
        0x0000da28:    6201        .b      STR      r1,[r0,#0x20]
        0x0000da2a:    6a42        Bj      LDR      r2,[r0,#0x24]
        0x0000da2c:    6892        .h      LDR      r2,[r2,#8]
        0x0000da2e:    6011        .`      STR      r1,[r2,#0]
        0x0000da30:    6a42        Bj      LDR      r2,[r0,#0x24]
        0x0000da32:    68d2        .h      LDR      r2,[r2,#0xc]
        0x0000da34:    6011        .`      STR      r1,[r2,#0]
        0x0000da36:    6a42        Bj      LDR      r2,[r0,#0x24]
        0x0000da38:    6841        Ah      LDR      r1,[r0,#4]
        0x0000da3a:    6852        Rh      LDR      r2,[r2,#4]
        0x0000da3c:    6011        .`      STR      r1,[r2,#0]
        0x0000da3e:    6801        .h      LDR      r1,[r0,#0]
        0x0000da40:    f0217100    !..q    BIC      r1,r1,#0x2000000
        0x0000da44:    6001        .`      STR      r1,[r0,#0]
        0x0000da46:    2000        .       MOVS     r0,#0
        0x0000da48:    4770        pG      BX       lr
    $d
        0x0000da4a:    0000        ..      DCW    0
        0x0000da4c:    00cdcdcd    ....    DCD    13487565
    $t
    i.am_hal_cmdq_term
    am_hal_cmdq_term
        0x0000da50:    b538        8.      PUSH     {r3-r5,lr}
        0x0000da52:    460d        .F      MOV      r5,r1
        0x0000da54:    1e04        ..      SUBS     r4,r0,#0
        0x0000da56:    bf1c        ..      ITT      NE
        0x0000da58:    6820         h      LDRNE    r0,[r4,#0]
        0x0000da5a:    f0107f80    ....    TSTNE    r0,#0x1000000
        0x0000da5e:    d004        ..      BEQ      0xda6a ; am_hal_cmdq_term + 26
        0x0000da60:    491c        .I      LDR      r1,[pc,#112] ; [0xdad4] = 0xcdcdcd
        0x0000da62:    f020407f     ..@    BIC      r0,r0,#0xff000000
        0x0000da66:    4288        .B      CMP      r0,r1
        0x0000da68:    d001        ..      BEQ      0xda6e ; am_hal_cmdq_term + 30
        0x0000da6a:    2002        .       MOVS     r0,#2
        0x0000da6c:    bd38        8.      POP      {r3-r5,pc}
        0x0000da6e:    f7fefbe9    ....    BL       am_hal_interrupt_master_disable ; 0xc244
        0x0000da72:    9000        ..      STR      r0,[sp,#0]
        0x0000da74:    6a60        `j      LDR      r0,[r4,#0x24]
        0x0000da76:    6880        .h      LDR      r0,[r0,#8]
        0x0000da78:    6800        .h      LDR      r0,[r0,#0]
        0x0000da7a:    6a21        !j      LDR      r1,[r4,#0x20]
        0x0000da7c:    b2c0        ..      UXTB     r0,r0
        0x0000da7e:    f02101ff    !...    BIC      r1,r1,#0xff
        0x0000da82:    4308        .C      ORRS     r0,r0,r1
        0x0000da84:    61e0        .a      STR      r0,[r4,#0x1c]
        0x0000da86:    6a21        !j      LDR      r1,[r4,#0x20]
        0x0000da88:    1a09        ..      SUBS     r1,r1,r0
        0x0000da8a:    bf44        D.      ITT      MI
        0x0000da8c:    f5a07080    ...p    SUBMI    r0,r0,#0x100
        0x0000da90:    61e0        .a      STRMI    r0,[r4,#0x1c]
        0x0000da92:    6a60        `j      LDR      r0,[r4,#0x24]
        0x0000da94:    6840        @h      LDR      r0,[r0,#4]
        0x0000da96:    6800        .h      LDR      r0,[r0,#0]
        0x0000da98:    60e0        .`      STR      r0,[r4,#0xc]
        0x0000da9a:    9800        ..      LDR      r0,[sp,#0]
        0x0000da9c:    f7fefbd6    ....    BL       am_hal_interrupt_master_set ; 0xc24c
        0x0000daa0:    b92d        -.      CBNZ     r5,0xdaae ; am_hal_cmdq_term + 94
        0x0000daa2:    e9d40107    ....    LDRD     r0,r1,[r4,#0x1c]
        0x0000daa6:    4288        .B      CMP      r0,r1
        0x0000daa8:    bf1c        ..      ITT      NE
        0x0000daaa:    2003        .       MOVNE    r0,#3
        0x0000daac:    bd38        8.      POPNE    {r3-r5,pc}
        0x0000daae:    6820         h      LDR      r0,[r4,#0]
        0x0000dab0:    f0207080     ..p    BIC      r0,r0,#0x1000000
        0x0000dab4:    6020         `      STR      r0,[r4,#0]
        0x0000dab6:    6a60        `j      LDR      r0,[r4,#0x24]
        0x0000dab8:    6800        .h      LDR      r0,[r0,#0]
        0x0000daba:    6801        .h      LDR      r1,[r0,#0]
        0x0000dabc:    f0210101    !...    BIC      r1,r1,#1
        0x0000dac0:    6001        .`      STR      r1,[r0,#0]
        0x0000dac2:    6a60        `j      LDR      r0,[r4,#0x24]
        0x0000dac4:    6901        .i      LDR      r1,[r0,#0x10]
        0x0000dac6:    680a        .h      LDR      r2,[r1,#0]
        0x0000dac8:    6940        @i      LDR      r0,[r0,#0x14]
        0x0000daca:    ea220000    "...    BIC      r0,r2,r0
        0x0000dace:    6008        .`      STR      r0,[r1,#0]
        0x0000dad0:    2000        .       MOVS     r0,#0
        0x0000dad2:    bd38        8.      POP      {r3-r5,pc}
    $d
        0x0000dad4:    00cdcdcd    ....    DCD    13487565
    $t
    i.am_hal_ctimer_clear
    am_hal_ctimer_clear
        0x0000dad8:    b538        8.      PUSH     {r3-r5,lr}
        0x0000dada:    460d        .F      MOV      r5,r1
        0x0000dadc:    4907        .I      LDR      r1,[pc,#28] ; [0xdafc] = 0x4000800c
        0x0000dade:    eb011440    ..@.    ADD      r4,r1,r0,LSL #5
        0x0000dae2:    f7fefbaf    ....    BL       am_hal_interrupt_master_disable ; 0xc244
        0x0000dae6:    9000        ..      STR      r0,[sp,#0]
        0x0000dae8:    6820         h      LDR      r0,[r4,#0]
        0x0000daea:    f0052108    ...!    AND      r1,r5,#0x8000800
        0x0000daee:    4308        .C      ORRS     r0,r0,r1
        0x0000daf0:    6020         `      STR      r0,[r4,#0]
        0x0000daf2:    9800        ..      LDR      r0,[sp,#0]
        0x0000daf4:    e8bd4038    ..8@    POP      {r3-r5,lr}
        0x0000daf8:    f7febba8    ....    B        am_hal_interrupt_master_set ; 0xc24c
    $d
        0x0000dafc:    4000800c    ...@    DCD    1073774604
    $t
    i.am_hal_ctimer_config
    am_hal_ctimer_config
        0x0000db00:    b5f8        ..      PUSH     {r3-r7,lr}
        0x0000db02:    4606        .F      MOV      r6,r0
        0x0000db04:    481a        .H      LDR      r0,[pc,#104] ; [0xdb70] = 0x4000800c
        0x0000db06:    460c        .F      MOV      r4,r1
        0x0000db08:    eb001546    ..F.    ADD      r5,r0,r6,LSL #5
        0x0000db0c:    f7fefb9a    ....    BL       am_hal_interrupt_master_disable ; 0xc244
        0x0000db10:    9000        ..      STR      r0,[sp,#0]
        0x0000db12:    6828        (h      LDR      r0,[r5,#0]
        0x0000db14:    f0402008    @..     ORR      r0,r0,#0x8000800
        0x0000db18:    6028        (`      STR      r0,[r5,#0]
        0x0000db1a:    9800        ..      LDR      r0,[sp,#0]
        0x0000db1c:    f7fefb96    ....    BL       am_hal_interrupt_master_set ; 0xc24c
        0x0000db20:    8921        !.      LDRH     r1,[r4,#8]
        0x0000db22:    6860        `h      LDR      r0,[r4,#4]
        0x0000db24:    ea404001    @..@    ORR      r0,r0,r1,LSL #16
        0x0000db28:    6821        !h      LDR      r1,[r4,#0]
        0x0000db2a:    2900        .)      CMP      r1,#0
        0x0000db2c:    bf18        ..      IT       NE
        0x0000db2e:    f04f4100    O..A    MOVNE    r1,#0x80000000
        0x0000db32:    ea410700    A...    ORR      r7,r1,r0
        0x0000db36:    f7fefb85    ....    BL       am_hal_interrupt_master_disable ; 0xc244
        0x0000db3a:    9000        ..      STR      r0,[sp,#0]
        0x0000db3c:    602f        /`      STR      r7,[r5,#0]
        0x0000db3e:    9800        ..      LDR      r0,[sp,#0]
        0x0000db40:    f7fefb84    ....    BL       am_hal_interrupt_master_set ; 0xc24c
        0x0000db44:    6860        `h      LDR      r0,[r4,#4]
        0x0000db46:    2800        .(      CMP      r0,#0
        0x0000db48:    bf06        ..      ITTE     EQ
        0x0000db4a:    6821        !h      LDREQ    r1,[r4,#0]
        0x0000db4c:    2900        .)      CMPEQ    r1,#0
        0x0000db4e:    2100        .!      MOVNE    r1,#0
        0x0000db50:    d007        ..      BEQ      0xdb62 ; am_hal_ctimer_config + 98
        0x0000db52:    bf00        ..      NOP      
        0x0000db54:    4a07        .J      LDR      r2,[pc,#28] ; [0xdb74] = 0x10011128
        0x0000db56:    f3c00044    ..D.    UBFX     r0,r0,#1,#5
        0x0000db5a:    eb020246    ..F.    ADD      r2,r2,r6,LSL #1
        0x0000db5e:    5450        PT      STRB     r0,[r2,r1]
        0x0000db60:    bdf8        ..      POP      {r3-r7,pc}
        0x0000db62:    68a0        .h      LDR      r0,[r4,#8]
        0x0000db64:    2800        .(      CMP      r0,#0
        0x0000db66:    bf18        ..      IT       NE
        0x0000db68:    2101        .!      MOVNE    r1,#1
        0x0000db6a:    d1f3        ..      BNE      0xdb54 ; am_hal_ctimer_config + 84
        0x0000db6c:    bdf8        ..      POP      {r3-r7,pc}
    $d
        0x0000db6e:    0000        ..      DCW    0
        0x0000db70:    4000800c    ...@    DCD    1073774604
        0x0000db74:    10011128    (...    DCD    268505384
    $t
    i.am_hal_ctimer_int_clear
    am_hal_ctimer_int_clear
        0x0000db78:    b538        8.      PUSH     {r3-r5,lr}
        0x0000db7a:    4604        .F      MOV      r4,r0
        0x0000db7c:    f7fefb62    ..b.    BL       am_hal_interrupt_master_disable ; 0xc244
        0x0000db80:    9000        ..      STR      r0,[sp,#0]
        0x0000db82:    4804        .H      LDR      r0,[pc,#16] ; [0xdb94] = 0x40008000
        0x0000db84:    f8c04208    ...B    STR      r4,[r0,#0x208]
        0x0000db88:    9800        ..      LDR      r0,[sp,#0]
        0x0000db8a:    e8bd4038    ..8@    POP      {r3-r5,lr}
        0x0000db8e:    f7febb5d    ..].    B        am_hal_interrupt_master_set ; 0xc24c
    $d
        0x0000db92:    0000        ..      DCW    0
        0x0000db94:    40008000    ...@    DCD    1073774592
    $t
    i.am_hal_ctimer_int_disable
    am_hal_ctimer_int_disable
        0x0000db98:    b538        8.      PUSH     {r3-r5,lr}
        0x0000db9a:    4604        .F      MOV      r4,r0
        0x0000db9c:    f7fefb52    ..R.    BL       am_hal_interrupt_master_disable ; 0xc244
        0x0000dba0:    9000        ..      STR      r0,[sp,#0]
        0x0000dba2:    4805        .H      LDR      r0,[pc,#20] ; [0xdbb8] = 0x40008000
        0x0000dba4:    f8d01200    ....    LDR      r1,[r0,#0x200]
        0x0000dba8:    43a1        .C      BICS     r1,r1,r4
        0x0000dbaa:    f8c01200    ....    STR      r1,[r0,#0x200]
        0x0000dbae:    9800        ..      LDR      r0,[sp,#0]
        0x0000dbb0:    e8bd4038    ..8@    POP      {r3-r5,lr}
        0x0000dbb4:    f7febb4a    ..J.    B        am_hal_interrupt_master_set ; 0xc24c
    $d
        0x0000dbb8:    40008000    ...@    DCD    1073774592
    $t
    i.am_hal_ctimer_int_enable
    am_hal_ctimer_int_enable
        0x0000dbbc:    b538        8.      PUSH     {r3-r5,lr}
        0x0000dbbe:    4604        .F      MOV      r4,r0
        0x0000dbc0:    f7fefb40    ..@.    BL       am_hal_interrupt_master_disable ; 0xc244
        0x0000dbc4:    9000        ..      STR      r0,[sp,#0]
        0x0000dbc6:    4805        .H      LDR      r0,[pc,#20] ; [0xdbdc] = 0x40008000
        0x0000dbc8:    f8d01200    ....    LDR      r1,[r0,#0x200]
        0x0000dbcc:    4321        !C      ORRS     r1,r1,r4
        0x0000dbce:    f8c01200    ....    STR      r1,[r0,#0x200]
        0x0000dbd2:    9800        ..      LDR      r0,[sp,#0]
        0x0000dbd4:    e8bd4038    ..8@    POP      {r3-r5,lr}
        0x0000dbd8:    f7febb38    ..8.    B        am_hal_interrupt_master_set ; 0xc24c
    $d
        0x0000dbdc:    40008000    ...@    DCD    1073774592
    $t
    i.am_hal_ctimer_int_register
    am_hal_ctimer_int_register
        0x0000dbe0:    b570        p.      PUSH     {r4-r6,lr}
        0x0000dbe2:    2400        .$      MOVS     r4,#0
        0x0000dbe4:    460d        .F      MOV      r5,r1
        0x0000dbe6:    f5b04f00    ...O    CMP      r0,#0x8000
        0x0000dbea:    bf08        ..      IT       EQ
        0x0000dbec:    240f        .$      MOVEQ    r4,#0xf
        0x0000dbee:    f00080a6    ....    BEQ.W    0xdd3e ; am_hal_ctimer_int_register + 350
        0x0000dbf2:    dc4c        L.      BGT      0xdc8e ; am_hal_ctimer_int_register + 174
        0x0000dbf4:    2880        .(      CMP      r0,#0x80
        0x0000dbf6:    bf08        ..      IT       EQ
        0x0000dbf8:    2407        .$      MOVEQ    r4,#7
        0x0000dbfa:    f00080a0    ....    BEQ.W    0xdd3e ; am_hal_ctimer_int_register + 350
        0x0000dbfe:    dc20         .      BGT      0xdc42 ; am_hal_ctimer_int_register + 98
        0x0000dc00:    2808        .(      CMP      r0,#8
        0x0000dc02:    bf08        ..      IT       EQ
        0x0000dc04:    2403        .$      MOVEQ    r4,#3
        0x0000dc06:    d06e        n.      BEQ      0xdce6 ; am_hal_ctimer_int_register + 262
        0x0000dc08:    dc0e        ..      BGT      0xdc28 ; am_hal_ctimer_int_register + 72
        0x0000dc0a:    f1b04f00    ...O    CMP      r0,#0x80000000
        0x0000dc0e:    bf0c        ..      ITE      EQ
        0x0000dc10:    241f        .$      MOVEQ    r4,#0x1f
        0x0000dc12:    2801        .(      CMPNE    r0,#1
        0x0000dc14:    d067        g.      BEQ      0xdce6 ; am_hal_ctimer_int_register + 262
        0x0000dc16:    2802        .(      CMP      r0,#2
        0x0000dc18:    bf08        ..      IT       EQ
        0x0000dc1a:    2401        .$      MOVEQ    r4,#1
        0x0000dc1c:    d063        c.      BEQ      0xdce6 ; am_hal_ctimer_int_register + 262
        0x0000dc1e:    2804        .(      CMP      r0,#4
        0x0000dc20:    bf08        ..      IT       EQ
        0x0000dc22:    2402        .$      MOVEQ    r4,#2
        0x0000dc24:    d05f        _.      BEQ      0xdce6 ; am_hal_ctimer_int_register + 262
        0x0000dc26:    e084        ..      B        0xdd32 ; am_hal_ctimer_int_register + 338
        0x0000dc28:    2810        .(      CMP      r0,#0x10
        0x0000dc2a:    bf08        ..      IT       EQ
        0x0000dc2c:    2404        .$      MOVEQ    r4,#4
        0x0000dc2e:    d05a        Z.      BEQ      0xdce6 ; am_hal_ctimer_int_register + 262
        0x0000dc30:    2820         (      CMP      r0,#0x20
        0x0000dc32:    bf08        ..      IT       EQ
        0x0000dc34:    2405        .$      MOVEQ    r4,#5
        0x0000dc36:    d056        V.      BEQ      0xdce6 ; am_hal_ctimer_int_register + 262
        0x0000dc38:    2840        @(      CMP      r0,#0x40
        0x0000dc3a:    bf08        ..      IT       EQ
        0x0000dc3c:    2406        .$      MOVEQ    r4,#6
        0x0000dc3e:    d07e        ~.      BEQ      0xdd3e ; am_hal_ctimer_int_register + 350
        0x0000dc40:    e077        w.      B        0xdd32 ; am_hal_ctimer_int_register + 338
        0x0000dc42:    f5b06f00    ...o    CMP      r0,#0x800
        0x0000dc46:    bf08        ..      IT       EQ
        0x0000dc48:    240b        .$      MOVEQ    r4,#0xb
        0x0000dc4a:    d078        x.      BEQ      0xdd3e ; am_hal_ctimer_int_register + 350
        0x0000dc4c:    dc0f        ..      BGT      0xdc6e ; am_hal_ctimer_int_register + 142
        0x0000dc4e:    f5b07f80    ....    CMP      r0,#0x100
        0x0000dc52:    bf08        ..      IT       EQ
        0x0000dc54:    2408        .$      MOVEQ    r4,#8
        0x0000dc56:    d072        r.      BEQ      0xdd3e ; am_hal_ctimer_int_register + 350
        0x0000dc58:    f5b07f00    ....    CMP      r0,#0x200
        0x0000dc5c:    bf08        ..      IT       EQ
        0x0000dc5e:    2409        .$      MOVEQ    r4,#9
        0x0000dc60:    d06d        m.      BEQ      0xdd3e ; am_hal_ctimer_int_register + 350
        0x0000dc62:    f5b06f80    ...o    CMP      r0,#0x400
        0x0000dc66:    bf08        ..      IT       EQ
        0x0000dc68:    240a        .$      MOVEQ    r4,#0xa
        0x0000dc6a:    d068        h.      BEQ      0xdd3e ; am_hal_ctimer_int_register + 350
        0x0000dc6c:    e061        a.      B        0xdd32 ; am_hal_ctimer_int_register + 338
        0x0000dc6e:    f5b05f80    ..._    CMP      r0,#0x1000
        0x0000dc72:    bf08        ..      IT       EQ
        0x0000dc74:    240c        .$      MOVEQ    r4,#0xc
        0x0000dc76:    d062        b.      BEQ      0xdd3e ; am_hal_ctimer_int_register + 350
        0x0000dc78:    f5b05f00    ..._    CMP      r0,#0x2000
        0x0000dc7c:    bf08        ..      IT       EQ
        0x0000dc7e:    240d        .$      MOVEQ    r4,#0xd
        0x0000dc80:    d05d        ].      BEQ      0xdd3e ; am_hal_ctimer_int_register + 350
        0x0000dc82:    f5b04f80    ...O    CMP      r0,#0x4000
        0x0000dc86:    bf08        ..      IT       EQ
        0x0000dc88:    240e        .$      MOVEQ    r4,#0xe
        0x0000dc8a:    d058        X.      BEQ      0xdd3e ; am_hal_ctimer_int_register + 350
        0x0000dc8c:    e051        Q.      B        0xdd32 ; am_hal_ctimer_int_register + 338
        0x0000dc8e:    f5b00f00    ....    CMP      r0,#0x800000
        0x0000dc92:    bf08        ..      IT       EQ
        0x0000dc94:    2417        .$      MOVEQ    r4,#0x17
        0x0000dc96:    d052        R.      BEQ      0xdd3e ; am_hal_ctimer_int_register + 350
        0x0000dc98:    dc26        &.      BGT      0xdce8 ; am_hal_ctimer_int_register + 264
        0x0000dc9a:    f5b02f00    .../    CMP      r0,#0x80000
        0x0000dc9e:    bf08        ..      IT       EQ
        0x0000dca0:    2413        .$      MOVEQ    r4,#0x13
        0x0000dca2:    d04c        L.      BEQ      0xdd3e ; am_hal_ctimer_int_register + 350
        0x0000dca4:    dc0f        ..      BGT      0xdcc6 ; am_hal_ctimer_int_register + 230
        0x0000dca6:    f5b03f80    ...?    CMP      r0,#0x10000
        0x0000dcaa:    bf08        ..      IT       EQ
        0x0000dcac:    2410        .$      MOVEQ    r4,#0x10
        0x0000dcae:    d046        F.      BEQ      0xdd3e ; am_hal_ctimer_int_register + 350
        0x0000dcb0:    f5b03f00    ...?    CMP      r0,#0x20000
        0x0000dcb4:    bf08        ..      IT       EQ
        0x0000dcb6:    2411        .$      MOVEQ    r4,#0x11
        0x0000dcb8:    d041        A.      BEQ      0xdd3e ; am_hal_ctimer_int_register + 350
        0x0000dcba:    f5b02f80    .../    CMP      r0,#0x40000
        0x0000dcbe:    bf08        ..      IT       EQ
        0x0000dcc0:    2412        .$      MOVEQ    r4,#0x12
        0x0000dcc2:    d03c        <.      BEQ      0xdd3e ; am_hal_ctimer_int_register + 350
        0x0000dcc4:    e035        5.      B        0xdd32 ; am_hal_ctimer_int_register + 338
        0x0000dcc6:    f5b01f80    ....    CMP      r0,#0x100000
        0x0000dcca:    bf08        ..      IT       EQ
        0x0000dccc:    2414        .$      MOVEQ    r4,#0x14
        0x0000dcce:    d036        6.      BEQ      0xdd3e ; am_hal_ctimer_int_register + 350
        0x0000dcd0:    f5b01f00    ....    CMP      r0,#0x200000
        0x0000dcd4:    bf08        ..      IT       EQ
        0x0000dcd6:    2415        .$      MOVEQ    r4,#0x15
        0x0000dcd8:    d031        1.      BEQ      0xdd3e ; am_hal_ctimer_int_register + 350
        0x0000dcda:    f5b00f80    ....    CMP      r0,#0x400000
        0x0000dcde:    bf08        ..      IT       EQ
        0x0000dce0:    2416        .$      MOVEQ    r4,#0x16
        0x0000dce2:    d02c        ,.      BEQ      0xdd3e ; am_hal_ctimer_int_register + 350
        0x0000dce4:    e025        %.      B        0xdd32 ; am_hal_ctimer_int_register + 338
        0x0000dce6:    e02a        *.      B        0xdd3e ; am_hal_ctimer_int_register + 350
        0x0000dce8:    f1b06f00    ...o    CMP      r0,#0x8000000
        0x0000dcec:    bf08        ..      IT       EQ
        0x0000dcee:    241b        .$      MOVEQ    r4,#0x1b
        0x0000dcf0:    d025        %.      BEQ      0xdd3e ; am_hal_ctimer_int_register + 350
        0x0000dcf2:    dc0f        ..      BGT      0xdd14 ; am_hal_ctimer_int_register + 308
        0x0000dcf4:    f1b07f80    ....    CMP      r0,#0x1000000
        0x0000dcf8:    bf08        ..      IT       EQ
        0x0000dcfa:    2418        .$      MOVEQ    r4,#0x18
        0x0000dcfc:    d01f        ..      BEQ      0xdd3e ; am_hal_ctimer_int_register + 350
        0x0000dcfe:    f1b07f00    ....    CMP      r0,#0x2000000
        0x0000dd02:    bf08        ..      IT       EQ
        0x0000dd04:    2419        .$      MOVEQ    r4,#0x19
        0x0000dd06:    d01a        ..      BEQ      0xdd3e ; am_hal_ctimer_int_register + 350
        0x0000dd08:    f1b06f80    ...o    CMP      r0,#0x4000000
        0x0000dd0c:    bf08        ..      IT       EQ
        0x0000dd0e:    241a        .$      MOVEQ    r4,#0x1a
        0x0000dd10:    d015        ..      BEQ      0xdd3e ; am_hal_ctimer_int_register + 350
        0x0000dd12:    e00e        ..      B        0xdd32 ; am_hal_ctimer_int_register + 338
        0x0000dd14:    f1b05f80    ..._    CMP      r0,#0x10000000
        0x0000dd18:    bf08        ..      IT       EQ
        0x0000dd1a:    241c        .$      MOVEQ    r4,#0x1c
        0x0000dd1c:    d00f        ..      BEQ      0xdd3e ; am_hal_ctimer_int_register + 350
        0x0000dd1e:    f1b05f00    ..._    CMP      r0,#0x20000000
        0x0000dd22:    bf08        ..      IT       EQ
        0x0000dd24:    241d        .$      MOVEQ    r4,#0x1d
        0x0000dd26:    d00a        ..      BEQ      0xdd3e ; am_hal_ctimer_int_register + 350
        0x0000dd28:    f1b04f80    ...O    CMP      r0,#0x40000000
        0x0000dd2c:    bf08        ..      IT       EQ
        0x0000dd2e:    241e        .$      MOVEQ    r4,#0x1e
        0x0000dd30:    d005        ..      BEQ      0xdd3e ; am_hal_ctimer_int_register + 350
        0x0000dd32:    a205        ..      ADR      r2,{pc}+0x16 ; 0xdd48
        0x0000dd34:    f44f71f6    O..q    MOV      r1,#0x1ec
        0x0000dd38:    a00d        ..      ADR      r0,{pc}+0x38 ; 0xdd70
        0x0000dd3a:    f000f8cf    ....    BL       am_hal_debug_error ; 0xdedc
        0x0000dd3e:    4810        .H      LDR      r0,[pc,#64] ; [0xdd80] = 0x10015ad0
        0x0000dd40:    f8405024    @.$P    STR      r5,[r0,r4,LSL #2]
        0x0000dd44:    bd70        p.      POP      {r4-r6,pc}
    $d
        0x0000dd46:    0000        ..      DCW    0
        0x0000dd48:    6d695443    CTim    DCD    1835619395
        0x0000dd4c:    69207265    er i    DCD    1763734117
        0x0000dd50:    7265746e    nter    DCD    1919251566
        0x0000dd54:    74707572    rupt    DCD    1953527154
        0x0000dd58:    6d756e20     num    DCD    1836412448
        0x0000dd5c:    20726562    ber     DCD    544367970
        0x0000dd60:    2074756f    out     DCD    544503151
        0x0000dd64:    7220666f    of r    DCD    1914725999
        0x0000dd68:    65676e61    ange    DCD    1701277281
        0x0000dd6c:    0000002e    ....    DCD    46
        0x0000dd70:    685f6d61    am_h    DCD    1751084385
        0x0000dd74:    635f6c61    al_c    DCD    1667198049
        0x0000dd78:    656d6974    time    DCD    1701669236
        0x0000dd7c:    00632e72    r.c.    DCD    6499954
        0x0000dd80:    10015ad0    .Z..    DCD    268524240
    $t
    i.am_hal_ctimer_int_service
    am_hal_ctimer_int_service
        0x0000dd84:    2800        .(      CMP      r0,#0
        0x0000dd86:    bf08        ..      IT       EQ
        0x0000dd88:    4770        pG      BXEQ     lr
        0x0000dd8a:    b570        p.      PUSH     {r4-r6,lr}
        0x0000dd8c:    4e09        .N      LDR      r6,[pc,#36] ; [0xddb4] = 0x10015ad0
        0x0000dd8e:    4604        .F      MOV      r4,r0
        0x0000dd90:    f04f4500    O..E    MOV      r5,#0x80000000
        0x0000dd94:    fab4f084    ....    CLZ      r0,r4
        0x0000dd98:    fa25f100    %...    LSR      r1,r5,r0
        0x0000dd9c:    f1c0001f    ....    RSB      r0,r0,#0x1f
        0x0000dda0:    438c        .C      BICS     r4,r4,r1
        0x0000dda2:    f8560020    V. .    LDR      r0,[r6,r0,LSL #2]
        0x0000dda6:    2800        .(      CMP      r0,#0
        0x0000dda8:    bf18        ..      IT       NE
        0x0000ddaa:    4780        .G      BLXNE    r0
        0x0000ddac:    2c00        .,      CMP      r4,#0
        0x0000ddae:    d1f1        ..      BNE      0xdd94 ; am_hal_ctimer_int_service + 16
        0x0000ddb0:    bd70        p.      POP      {r4-r6,pc}
    $d
        0x0000ddb2:    0000        ..      DCW    0
        0x0000ddb4:    10015ad0    .Z..    DCD    268524240
    $t
    i.am_hal_ctimer_int_status_get
    am_hal_ctimer_int_status_get
        0x0000ddb8:    b538        8.      PUSH     {r3-r5,lr}
        0x0000ddba:    4604        .F      MOV      r4,r0
        0x0000ddbc:    f7fefa42    ..B.    BL       am_hal_interrupt_master_disable ; 0xc244
        0x0000ddc0:    4908        .I      LDR      r1,[pc,#32] ; [0xdde4] = 0x40008000
        0x0000ddc2:    9000        ..      STR      r0,[sp,#0]
        0x0000ddc4:    2c00        .,      CMP      r4,#0
        0x0000ddc6:    bf08        ..      IT       EQ
        0x0000ddc8:    f8d14204    ...B    LDREQ    r4,[r1,#0x204]
        0x0000ddcc:    d005        ..      BEQ      0xddda ; am_hal_ctimer_int_status_get + 34
        0x0000ddce:    f8d10204    ....    LDR      r0,[r1,#0x204]
        0x0000ddd2:    f8d11200    ....    LDR      r1,[r1,#0x200]
        0x0000ddd6:    ea010400    ....    AND      r4,r1,r0
        0x0000ddda:    9800        ..      LDR      r0,[sp,#0]
        0x0000dddc:    f7fefa36    ..6.    BL       am_hal_interrupt_master_set ; 0xc24c
        0x0000dde0:    4620         F      MOV      r0,r4
        0x0000dde2:    bd38        8.      POP      {r3-r5,pc}
    $d
        0x0000dde4:    40008000    ...@    DCD    1073774592
    $t
    i.am_hal_ctimer_period_set
    am_hal_ctimer_period_set
        0x0000dde8:    e92d43f8    -..C    PUSH     {r3-r9,lr}
        0x0000ddec:    460e        .F      MOV      r6,r1
        0x0000ddee:    491b        .I      LDR      r1,[pc,#108] ; [0xde5c] = 0x4000800c
        0x0000ddf0:    461d        .F      MOV      r5,r3
        0x0000ddf2:    eb011940    ..@.    ADD      r9,r1,r0,LSL #5
        0x0000ddf6:    491a        .I      LDR      r1,[pc,#104] ; [0xde60] = 0x40008004
        0x0000ddf8:    4614        .F      MOV      r4,r2
        0x0000ddfa:    eb011740    ..@.    ADD      r7,r1,r0,LSL #5
        0x0000ddfe:    1d09        ..      ADDS     r1,r1,#4
        0x0000de00:    eb011840    ..@.    ADD      r8,r1,r0,LSL #5
        0x0000de04:    f7fefa1e    ....    BL       am_hal_interrupt_master_disable ; 0xc244
        0x0000de08:    9000        ..      STR      r0,[sp,#0]
        0x0000de0a:    f8d90000    ....    LDR      r0,[r9,#0]
        0x0000de0e:    f5163f80    ...?    CMN      r6,#0x10000
        0x0000de12:    bf08        ..      IT       EQ
        0x0000de14:    0c00        ..      LSREQ    r0,r0,#16
        0x0000de16:    f40070e0    ...p    AND      r0,r0,#0x1c0
        0x0000de1a:    2880        .(      CMP      r0,#0x80
        0x0000de1c:    bf17        ..      ITETT    NE
        0x0000de1e:    28c0        .(      CMPNE    r0,#0xc0
        0x0000de20:    1b65        e.      SUBEQ    r5,r4,r5
        0x0000de22:    4625        %F      MOVNE    r5,r4
        0x0000de24:    2400        .$      MOVNE    r4,#0
        0x0000de26:    f5a6407f    ...@    SUB      r0,r6,#0xff00
        0x0000de2a:    38ff        .8      SUBS     r0,r0,#0xff
        0x0000de2c:    bf04        ..      ITT      EQ
        0x0000de2e:    eac54004    ...@    PKHBTEQ  r0,r5,r4,LSL #16
        0x0000de32:    6038        8`      STREQ    r0,[r7,#0]
        0x0000de34:    d00c        ..      BEQ      0xde50 ; am_hal_ctimer_period_set + 104
        0x0000de36:    f5163f80    ...?    CMN      r6,#0x10000
        0x0000de3a:    eac54004    ...@    PKHBT    r0,r5,r4,LSL #16
        0x0000de3e:    d005        ..      BEQ      0xde4c ; am_hal_ctimer_period_set + 100
        0x0000de40:    6038        8`      STR      r0,[r7,#0]
        0x0000de42:    0c28        (.      LSRS     r0,r5,#16
        0x0000de44:    f36f040f    o...    BFC      r4,#0,#16
        0x0000de48:    eac00004    ....    PKHBT    r0,r0,r4
        0x0000de4c:    f8c80000    ....    STR      r0,[r8,#0]
        0x0000de50:    9800        ..      LDR      r0,[sp,#0]
        0x0000de52:    e8bd43f8    ...C    POP      {r3-r9,lr}
        0x0000de56:    f7feb9f9    ....    B        am_hal_interrupt_master_set ; 0xc24c
    $d
        0x0000de5a:    0000        ..      DCW    0
        0x0000de5c:    4000800c    ...@    DCD    1073774604
        0x0000de60:    40008004    ...@    DCD    1073774596
    $t
    i.am_hal_ctimer_start
    am_hal_ctimer_start
        0x0000de64:    b5f8        ..      PUSH     {r3-r7,lr}
        0x0000de66:    4606        .F      MOV      r6,r0
        0x0000de68:    4810        .H      LDR      r0,[pc,#64] ; [0xdeac] = 0x4000800c
        0x0000de6a:    460c        .F      MOV      r4,r1
        0x0000de6c:    eb001546    ..F.    ADD      r5,r0,r6,LSL #5
        0x0000de70:    f7fef9e8    ....    BL       am_hal_interrupt_master_disable ; 0xc244
        0x0000de74:    9000        ..      STR      r0,[sp,#0]
        0x0000de76:    6828        (h      LDR      r0,[r5,#0]
        0x0000de78:    f0042108    ...!    AND      r1,r4,#0x8000800
        0x0000de7c:    4388        .C      BICS     r0,r0,r1
        0x0000de7e:    f0041101    ....    AND      r1,r4,#0x10001
        0x0000de82:    4301        .C      ORRS     r1,r1,r0
        0x0000de84:    f5143f80    ...?    CMN      r4,#0x10000
        0x0000de88:    bf07        ..      ITTEE    EQ
        0x0000de8a:    2001        .       MOVEQ    r0,#1
        0x0000de8c:    f3c14244    ..DB    UBFXEQ   r2,r1,#17,#5
        0x0000de90:    2000        .       MOVNE    r0,#0
        0x0000de92:    f3c10244    ..D.    UBFXNE   r2,r1,#1,#5
        0x0000de96:    4b06        .K      LDR      r3,[pc,#24] ; [0xdeb0] = 0x10011128
        0x0000de98:    eb030346    ..F.    ADD      r3,r3,r6,LSL #1
        0x0000de9c:    541a        .T      STRB     r2,[r3,r0]
        0x0000de9e:    6029        )`      STR      r1,[r5,#0]
        0x0000dea0:    9800        ..      LDR      r0,[sp,#0]
        0x0000dea2:    e8bd40f8    ...@    POP      {r3-r7,lr}
        0x0000dea6:    f7feb9d1    ....    B        am_hal_interrupt_master_set ; 0xc24c
    $d
        0x0000deaa:    0000        ..      DCW    0
        0x0000deac:    4000800c    ...@    DCD    1073774604
        0x0000deb0:    10011128    (...    DCD    268505384
    $t
    i.am_hal_ctimer_stop
    am_hal_ctimer_stop
        0x0000deb4:    b538        8.      PUSH     {r3-r5,lr}
        0x0000deb6:    460d        .F      MOV      r5,r1
        0x0000deb8:    4907        .I      LDR      r1,[pc,#28] ; [0xded8] = 0x4000800c
        0x0000deba:    eb011440    ..@.    ADD      r4,r1,r0,LSL #5
        0x0000debe:    f7fef9c1    ....    BL       am_hal_interrupt_master_disable ; 0xc244
        0x0000dec2:    9000        ..      STR      r0,[sp,#0]
        0x0000dec4:    6820         h      LDR      r0,[r4,#0]
        0x0000dec6:    f0051101    ....    AND      r1,r5,#0x10001
        0x0000deca:    4388        .C      BICS     r0,r0,r1
        0x0000decc:    6020         `      STR      r0,[r4,#0]
        0x0000dece:    9800        ..      LDR      r0,[sp,#0]
        0x0000ded0:    e8bd4038    ..8@    POP      {r3-r5,lr}
        0x0000ded4:    f7feb9ba    ....    B        am_hal_interrupt_master_set ; 0xc24c
    $d
        0x0000ded8:    4000800c    ...@    DCD    1073774604
    $t
    i.am_hal_debug_error
    am_hal_debug_error
        0x0000dedc:    e7fe        ..      B        am_hal_debug_error ; 0xdedc
        0x0000dede:    0000        ..      MOVS     r0,r0
    i.am_hal_flash_delay
    am_hal_flash_delay
        0x0000dee0:    f04f2140    O.@!    MOV      r1,#0x40004000
        0x0000dee4:    6b49        Ik      LDR      r1,[r1,#0x34]
        0x0000dee6:    f0110f04    ....    TST      r1,#4
        0x0000deea:    bf1a        ..      ITTE     NE
        0x0000deec:    0040        @.      LSLNE    r0,r0,#1
        0x0000deee:    210e        .!      MOVNE    r1,#0xe
        0x0000def0:    210b        .!      MOVEQ    r1,#0xb
        0x0000def2:    4288        .B      CMP      r0,r1
        0x0000def4:    bf98        ..      IT       LS
        0x0000def6:    4770        pG      BXLS     lr
        0x0000def8:    1a40        @.      SUBS     r0,r0,r1
        0x0000defa:    4901        .I      LDR      r1,[pc,#4] ; [0xdf00] = 0x800009d
        0x0000defc:    4708        .G      BX       r1
    $d
        0x0000defe:    0000        ..      DCW    0
        0x0000df00:    0800009d    ....    DCD    134217885
    $t
    i.am_hal_flash_delay_status_check
    am_hal_flash_delay_status_check
        0x0000df04:    e92d47f0    -..G    PUSH     {r4-r10,lr}
        0x0000df08:    f8dfa050    ..P.    LDR      r10,[pc,#80] ; [0xdf5c] = 0x800009d
        0x0000df0c:    f8dd8020    .. .    LDR      r8,[sp,#0x20]
        0x0000df10:    461c        .F      MOV      r4,r3
        0x0000df12:    4615        .F      MOV      r5,r2
        0x0000df14:    460e        .F      MOV      r6,r1
        0x0000df16:    4607        .F      MOV      r7,r0
        0x0000df18:    f04f2940    O.@)    MOV      r9,#0x40004000
        0x0000df1c:    6830        0h      LDR      r0,[r6,#0]
        0x0000df1e:    f1b80f00    ....    CMP      r8,#0
        0x0000df22:    ea000005    ....    AND      r0,r0,r5
        0x0000df26:    d002        ..      BEQ      0xdf2e ; am_hal_flash_delay_status_check + 42
        0x0000df28:    42a0        .B      CMP      r0,r4
        0x0000df2a:    d002        ..      BEQ      0xdf32 ; am_hal_flash_delay_status_check + 46
        0x0000df2c:    e004        ..      B        0xdf38 ; am_hal_flash_delay_status_check + 52
        0x0000df2e:    42a0        .B      CMP      r0,r4
        0x0000df30:    d002        ..      BEQ      0xdf38 ; am_hal_flash_delay_status_check + 52
        0x0000df32:    2000        .       MOVS     r0,#0
        0x0000df34:    e8bd87f0    ....    POP      {r4-r10,pc}
        0x0000df38:    1e7f        ..      SUBS     r7,r7,#1
        0x0000df3a:    d30b        ..      BCC      0xdf54 ; am_hal_flash_delay_status_check + 80
        0x0000df3c:    f8d91034    ..4.    LDR      r1,[r9,#0x34]
        0x0000df40:    2010        .       MOVS     r0,#0x10
        0x0000df42:    f0110f04    ....    TST      r1,#4
        0x0000df46:    bf1a        ..      ITTE     NE
        0x0000df48:    2020                MOVNE    r0,#0x20
        0x0000df4a:    210e        .!      MOVNE    r1,#0xe
        0x0000df4c:    210b        .!      MOVEQ    r1,#0xb
        0x0000df4e:    1a40        @.      SUBS     r0,r0,r1
        0x0000df50:    47d0        .G      BLX      r10
        0x0000df52:    e7e3        ..      B        0xdf1c ; am_hal_flash_delay_status_check + 24
        0x0000df54:    2004        .       MOVS     r0,#4
        0x0000df56:    e8bd87f0    ....    POP      {r4-r10,pc}
    $d
        0x0000df5a:    0000        ..      DCW    0
        0x0000df5c:    0800009d    ....    DCD    134217885
    $t
    i.am_hal_flash_load_ui32
    am_hal_flash_load_ui32
        0x0000df60:    4900        .I      LDR      r1,[pc,#0] ; [0xdf64] = 0x8000075
        0x0000df62:    4708        .G      BX       r1
    $d
        0x0000df64:    08000075    u...    DCD    134217845
    $t
    i.am_hal_flash_store_ui32
    am_hal_flash_store_ui32
        0x0000df68:    b500        ..      PUSH     {lr}
        0x0000df6a:    f8dfc020    .. .    LDR      r12,[pc,#32] ; [0xdf8c] = 0x12384
        0x0000df6e:    b083        ..      SUB      sp,sp,#0xc
        0x0000df70:    e9dc2300    ...#    LDRD     r2,r3,[r12,#0]
        0x0000df74:    f8dcc008    ....    LDR      r12,[r12,#8]
        0x0000df78:    e9cd2300    ...#    STRD     r2,r3,[sp,#0]
        0x0000df7c:    466a        jF      MOV      r2,sp
        0x0000df7e:    f8cdc008    ....    STR      r12,[sp,#8]
        0x0000df82:    f0420201    B...    ORR      r2,r2,#1
        0x0000df86:    4790        .G      BLX      r2
        0x0000df88:    b003        ..      ADD      sp,sp,#0xc
        0x0000df8a:    bd00        ..      POP      {pc}
    $d
        0x0000df8c:    00012384    .#..    DCD    74628
    $t
    i.am_hal_gpio_pinconfig
    am_hal_gpio_pinconfig
        0x0000df90:    e92d4ff0    -..O    PUSH     {r4-r11,lr}
        0x0000df94:    2500        .%      MOVS     r5,#0
        0x0000df96:    b08b        ..      SUB      sp,sp,#0x2c
        0x0000df98:    4604        .F      MOV      r4,r0
        0x0000df9a:    284a        J(      CMP      r0,#0x4a
        0x0000df9c:    bf22        ".      ITTT     CS
        0x0000df9e:    2006        .       MOVCS    r0,#6
        0x0000dfa0:    b00b        ..      ADDCS    sp,sp,#0x2c
        0x0000dfa2:    e8bd8ff0    ....    POPCS    {r4-r11,pc}
        0x0000dfa6:    2200        ."      MOVS     r2,#0
        0x0000dfa8:    f0010c07    ....    AND      r12,r1,#7
        0x0000dfac:    4f8b        .O      LDR      r7,[pc,#556] ; [0xe1dc] = 0x125ee
        0x0000dfae:    f3c103c1    ....    UBFX     r3,r1,#3,#2
        0x0000dfb2:    ea4200cc    B...    ORR      r0,r2,r12,LSL #3
        0x0000dfb6:    f0110fe0    ....    TST      r1,#0xe0
        0x0000dfba:    d021        !.      BEQ      0xe000 ; am_hal_gpio_pinconfig + 112
        0x0000dfbc:    f3c11642    ..B.    UBFX     r6,r1,#5,#3
        0x0000dfc0:    f1a60902    ....    SUB      r9,r6,#2
        0x0000dfc4:    f8df8218    ....    LDR      r8,[pc,#536] ; [0xe1e0] = 0x8000100
        0x0000dfc8:    f0400001    @...    ORR      r0,r0,#1
        0x0000dfcc:    f1b90f03    ....    CMP      r9,#3
        0x0000dfd0:    d809        ..      BHI      0xdfe6 ; am_hal_gpio_pinconfig + 86
        0x0000dfd2:    f06f097f    o...    MVN      r9,#0x7f
        0x0000dfd6:    eb091686    ....    ADD      r6,r9,r6,LSL #6
        0x0000dfda:    4330        0C      ORRS     r0,r0,r6
        0x0000dfdc:    5d3e        >]      LDRB     r6,[r7,r4]
        0x0000dfde:    f0160f01    ....    TST      r6,#1
        0x0000dfe2:    d10d        ..      BNE      0xe000 ; am_hal_gpio_pinconfig + 112
        0x0000dfe4:    e012        ..      B        0xe00c ; am_hal_gpio_pinconfig + 124
        0x0000dfe6:    2e06        ..      CMP      r6,#6
        0x0000dfe8:    d004        ..      BEQ      0xdff4 ; am_hal_gpio_pinconfig + 100
        0x0000dfea:    2e01        ..      CMP      r6,#1
        0x0000dfec:    bf08        ..      IT       EQ
        0x0000dfee:    2c14        .,      CMPEQ    r4,#0x14
        0x0000dff0:    d00c        ..      BEQ      0xe00c ; am_hal_gpio_pinconfig + 124
        0x0000dff2:    e005        ..      B        0xe000 ; am_hal_gpio_pinconfig + 112
        0x0000dff4:    2c14        .,      CMP      r4,#0x14
        0x0000dff6:    bf1e        ..      ITTT     NE
        0x0000dff8:    487a        zH      LDRNE    r0,[pc,#488] ; [0xe1e4] = 0x8000101
        0x0000dffa:    b00b        ..      ADDNE    sp,sp,#0x2c
        0x0000dffc:    e8bd8ff0    ....    POPNE    {r4-r11,pc}
        0x0000e000:    b17b        {.      CBZ      r3,0xe022 ; am_hal_gpio_pinconfig + 146
        0x0000e002:    2b01        .+      CMP      r3,#1
        0x0000e004:    d006        ..      BEQ      0xe014 ; am_hal_gpio_pinconfig + 132
        0x0000e006:    2b02        .+      CMP      r3,#2
        0x0000e008:    d022        ".      BEQ      0xe050 ; am_hal_gpio_pinconfig + 192
        0x0000e00a:    e028        (.      B        0xe05e ; am_hal_gpio_pinconfig + 206
        0x0000e00c:    b00b        ..      ADD      sp,sp,#0x2c
        0x0000e00e:    4640        @F      MOV      r0,r8
        0x0000e010:    e8bd8ff0    ....    POP      {r4-r11,pc}
        0x0000e014:    5d3b        ;]      LDRB     r3,[r7,r4]
        0x0000e016:    f0130f02    ....    TST      r3,#2
        0x0000e01a:    bf18        ..      IT       NE
        0x0000e01c:    f0400040    @.@.    ORRNE    r0,r0,#0x40
        0x0000e020:    d01d        ..      BEQ      0xe05e ; am_hal_gpio_pinconfig + 206
        0x0000e022:    4b71        qK      LDR      r3,[pc,#452] ; [0xe1e8] = 0x125a4
        0x0000e024:    5d1e        .]      LDRB     r6,[r3,r4]
        0x0000e026:    2301        .#      MOVS     r3,#1
        0x0000e028:    fa03f30c    ....    LSL      r3,r3,r12
        0x0000e02c:    4033        3@      ANDS     r3,r3,r6
        0x0000e02e:    bf18        ..      IT       NE
        0x0000e030:    2302        .#      MOVNE    r3,#2
        0x0000e032:    4318        .C      ORRS     r0,r0,r3
        0x0000e034:    4b6d        mK      LDR      r3,[pc,#436] ; [0xe1ec] = 0x12638
        0x0000e036:    5d1b        .]      LDRB     r3,[r3,r4]
        0x0000e038:    4563        cE      CMP      r3,r12
        0x0000e03a:    d13f        ?.      BNE      0xe0bc ; am_hal_gpio_pinconfig + 300
        0x0000e03c:    f8dfc1b0    ....    LDR      r12,[pc,#432] ; [0xe1f0] = 0x8000103
        0x0000e040:    f4113f80    ...?    TST      r1,#0x10000
        0x0000e044:    f3c14342    ..BC    UBFX     r3,r1,#17,#3
        0x0000e048:    d00d        ..      BEQ      0xe066 ; am_hal_gpio_pinconfig + 214
        0x0000e04a:    2b06        .+      CMP      r3,#6
        0x0000e04c:    d20d        ..      BCS      0xe06a ; am_hal_gpio_pinconfig + 218
        0x0000e04e:    e010        ..      B        0xe072 ; am_hal_gpio_pinconfig + 226
        0x0000e050:    5d3b        ;]      LDRB     r3,[r7,r4]
        0x0000e052:    f0130f04    ....    TST      r3,#4
        0x0000e056:    bf18        ..      IT       NE
        0x0000e058:    f0400080    @...    ORRNE    r0,r0,#0x80
        0x0000e05c:    d1e1        ..      BNE      0xe022 ; am_hal_gpio_pinconfig + 146
        0x0000e05e:    b00b        ..      ADD      sp,sp,#0x2c
        0x0000e060:    4864        dH      LDR      r0,[pc,#400] ; [0xe1f4] = 0x8000102
        0x0000e062:    e8bd8ff0    ....    POP      {r4-r11,pc}
        0x0000e066:    2b03        .+      CMP      r3,#3
        0x0000e068:    d303        ..      BCC      0xe072 ; am_hal_gpio_pinconfig + 226
        0x0000e06a:    b00b        ..      ADD      sp,sp,#0x2c
        0x0000e06c:    4660        `F      MOV      r0,r12
        0x0000e06e:    e8bd8ff0    ....    POP      {r4-r11,pc}
        0x0000e072:    f3c14c00    ...L    UBFX     r12,r1,#16,#1
        0x0000e076:    ea4f1ccc    O...    LSL      r12,r12,#7
        0x0000e07a:    f3c15601    ...V    UBFX     r6,r1,#20,#2
        0x0000e07e:    ea4c1c06    L...    ORR      r12,r12,r6,LSL #4
        0x0000e082:    ea4c0603    L...    ORR      r6,r12,r3
        0x0000e086:    f8dfc170    ..p.    LDR      r12,[pc,#368] ; [0xe1f8] = 0x12682
        0x0000e08a:    2300        .#      MOVS     r3,#0
        0x0000e08c:    eb0c0c84    ....    ADD      r12,r12,r4,LSL #2
        0x0000e090:    f81c7003    ...p    LDRB     r7,[r12,r3]
        0x0000e094:    42b7        .B      CMP      r7,r6
        0x0000e096:    d003        ..      BEQ      0xe0a0 ; am_hal_gpio_pinconfig + 272
        0x0000e098:    1c5b        [.      ADDS     r3,r3,#1
        0x0000e09a:    2b04        .+      CMP      r3,#4
        0x0000e09c:    d3f8        ..      BCC      0xe090 ; am_hal_gpio_pinconfig + 256
        0x0000e09e:    e001        ..      B        0xe0a4 ; am_hal_gpio_pinconfig + 276
        0x0000e0a0:    2b04        .+      CMP      r3,#4
        0x0000e0a2:    d303        ..      BCC      0xe0ac ; am_hal_gpio_pinconfig + 284
        0x0000e0a4:    b00b        ..      ADD      sp,sp,#0x2c
        0x0000e0a6:    4855        UH      LDR      r0,[pc,#340] ; [0xe1fc] = 0x8000104
        0x0000e0a8:    e8bd8ff0    ....    POP      {r4-r11,pc}
        0x0000e0ac:    005b        [.      LSLS     r3,r3,#1
        0x0000e0ae:    f3c15c80    ...\    UBFX     r12,r1,#22,#1
        0x0000e0b2:    ea430ccc    C...    ORR      r12,r3,r12,LSL #3
        0x0000e0b6:    ea4c0302    L...    ORR      r3,r12,r2
        0x0000e0ba:    e022        ".      B        0xe102 ; am_hal_gpio_pinconfig + 370
        0x0000e0bc:    f3c13300    ...3    UBFX     r3,r1,#12,#1
        0x0000e0c0:    f3c12c81    ...,    UBFX     r12,r1,#10,#2
        0x0000e0c4:    ea400043    @.C.    ORR      r0,r0,r3,LSL #1
        0x0000e0c8:    ea4f034c    O.L.    LSL      r3,r12,#1
        0x0000e0cc:    f3c13640    ..@6    UBFX     r6,r1,#13,#1
        0x0000e0d0:    ea4303c6    C...    ORR      r3,r3,r6,LSL #3
        0x0000e0d4:    f3c13641    ..A6    UBFX     r6,r1,#13,#2
        0x0000e0d8:    ea430356    C.V.    ORR      r3,r3,r6,LSR #1
        0x0000e0dc:    f1bc0f01    ....    CMP      r12,#1
        0x0000e0e0:    d005        ..      BEQ      0xe0ee ; am_hal_gpio_pinconfig + 350
        0x0000e0e2:    f8dfc11c    ....    LDR      r12,[pc,#284] ; [0xe200] = 0x125a0
        0x0000e0e6:    f8dcc000    ....    LDR      r12,[r12,#0]
        0x0000e0ea:    4561        aE      CMP      r1,r12
        0x0000e0ec:    d100        ..      BNE      0xe0f0 ; am_hal_gpio_pinconfig + 352
        0x0000e0ee:    2501        .%      MOVS     r5,#1
        0x0000e0f0:    f4114fc0    ...O    TST      r1,#0x6000
        0x0000e0f4:    d105        ..      BNE      0xe102 ; am_hal_gpio_pinconfig + 370
        0x0000e0f6:    f0230301    #...    BIC      r3,r3,#1
        0x0000e0fa:    f3c13cc0    ...<    UBFX     r12,r1,#15,#1
        0x0000e0fe:    ea4c0303    L...    ORR      r3,r12,r3
        0x0000e102:    f3c12101    ...!    UBFX     r1,r1,#8,#2
        0x0000e106:    b179        y.      CBZ      r1,0xe128 ; am_hal_gpio_pinconfig + 408
        0x0000e108:    2901        .)      CMP      r1,#1
        0x0000e10a:    bf08        ..      IT       EQ
        0x0000e10c:    f0400004    @...    ORREQ    r0,r0,#4
        0x0000e110:    d00a        ..      BEQ      0xe128 ; am_hal_gpio_pinconfig + 408
        0x0000e112:    2902        .)      CMP      r1,#2
        0x0000e114:    bf08        ..      IT       EQ
        0x0000e116:    f0420201    B...    ORREQ    r2,r2,#1
        0x0000e11a:    d005        ..      BEQ      0xe128 ; am_hal_gpio_pinconfig + 408
        0x0000e11c:    2903        .)      CMP      r1,#3
        0x0000e11e:    bf04        ..      ITT      EQ
        0x0000e120:    f0400004    @...    ORREQ    r0,r0,#4
        0x0000e124:    f0420201    B...    ORREQ    r2,r2,#1
        0x0000e128:    f06f0103    o...    MVN      r1,#3
        0x0000e12c:    ea010c54    ..T.    AND      r12,r1,r4,LSR #1
        0x0000e130:    4934        4I      LDR      r1,[pc,#208] ; [0xe204] = 0x4001004c
        0x0000e132:    260f        .&      MOVS     r6,#0xf
        0x0000e134:    eb0c0901    ....    ADD      r9,r12,r1
        0x0000e138:    f0240103    $...    BIC      r1,r4,#3
        0x0000e13c:    f8dfc0c8    ....    LDR      r12,[pc,#200] ; [0xe208] = 0x400100f8
        0x0000e140:    f1014880    ...H    ADD      r8,r1,#0x40000000
        0x0000e144:    eb01070c    ....    ADD      r7,r1,r12
        0x0000e148:    0761        a.      LSLS     r1,r4,#29
        0x0000e14a:    ea4f6cd1    O..l    LSR      r12,r1,#27
        0x0000e14e:    07a1        ..      LSLS     r1,r4,#30
        0x0000e150:    0ec9        ..      LSRS     r1,r1,#27
        0x0000e152:    fa06f60c    ....    LSL      r6,r6,r12
        0x0000e156:    ea6f0a06    o...    MVN      r10,r6
        0x0000e15a:    26ff        .&      MOVS     r6,#0xff
        0x0000e15c:    408e        .@      LSLS     r6,r6,r1
        0x0000e15e:    4088        .@      LSLS     r0,r0,r1
        0x0000e160:    9000        ..      STR      r0,[sp,#0]
        0x0000e162:    fa02f001    ....    LSL      r0,r2,r1
        0x0000e166:    f5083880    ...8    ADD      r8,r8,#0x10000
        0x0000e16a:    43f6        .C      MVNS     r6,r6
        0x0000e16c:    fa03fb0c    ....    LSL      r11,r3,r12
        0x0000e170:    9002        ..      STR      r0,[sp,#8]
        0x0000e172:    f7fef867    ..g.    BL       am_hal_interrupt_master_disable ; 0xc244
        0x0000e176:    9003        ..      STR      r0,[sp,#0xc]
        0x0000e178:    b16d        m.      CBZ      r5,0xe196 ; am_hal_gpio_pinconfig + 518
        0x0000e17a:    f004011f    ....    AND      r1,r4,#0x1f
        0x0000e17e:    2001        .       MOVS     r0,#1
        0x0000e180:    fa00f101    ....    LSL      r1,r0,r1
        0x0000e184:    200c        .       MOVS     r0,#0xc
        0x0000e186:    ea0000d4    ....    AND      r0,r0,r4,LSR #3
        0x0000e18a:    f1004080    ...@    ADD      r0,r0,#0x40000000
        0x0000e18e:    f5003080    ...0    ADD      r0,r0,#0x10000
        0x0000e192:    f8c010c8    ....    STR      r1,[r0,#0xc8]
        0x0000e196:    481d        .H      LDR      r0,[pc,#116] ; [0xe20c] = 0x40010000
        0x0000e198:    2173        s!      MOVS     r1,#0x73
        0x0000e19a:    6741        Ag      STR      r1,[r0,#0x74]
        0x0000e19c:    f8d81000    ....    LDR      r1,[r8,#0]
        0x0000e1a0:    ea010206    ....    AND      r2,r1,r6
        0x0000e1a4:    9900        ..      LDR      r1,[sp,#0]
        0x0000e1a6:    4311        .C      ORRS     r1,r1,r2
        0x0000e1a8:    f8c81000    ....    STR      r1,[r8,#0]
        0x0000e1ac:    f8d91000    ....    LDR      r1,[r9,#0]
        0x0000e1b0:    ea01010a    ....    AND      r1,r1,r10
        0x0000e1b4:    ea41010b    A...    ORR      r1,r1,r11
        0x0000e1b8:    f8c91000    ....    STR      r1,[r9,#0]
        0x0000e1bc:    6839        9h      LDR      r1,[r7,#0]
        0x0000e1be:    ea010206    ....    AND      r2,r1,r6
        0x0000e1c2:    9902        ..      LDR      r1,[sp,#8]
        0x0000e1c4:    4311        .C      ORRS     r1,r1,r2
        0x0000e1c6:    6039        9`      STR      r1,[r7,#0]
        0x0000e1c8:    2100        .!      MOVS     r1,#0
        0x0000e1ca:    6741        Ag      STR      r1,[r0,#0x74]
        0x0000e1cc:    9803        ..      LDR      r0,[sp,#0xc]
        0x0000e1ce:    f7fef83d    ..=.    BL       am_hal_interrupt_master_set ; 0xc24c
        0x0000e1d2:    b00b        ..      ADD      sp,sp,#0x2c
        0x0000e1d4:    2000        .       MOVS     r0,#0
        0x0000e1d6:    e8bd8ff0    ....    POP      {r4-r11,pc}
    $d
        0x0000e1da:    0000        ..      DCW    0
        0x0000e1dc:    000125ee    .%..    DCD    75246
        0x0000e1e0:    08000100    ....    DCD    134217984
        0x0000e1e4:    08000101    ....    DCD    134217985
        0x0000e1e8:    000125a4    .%..    DCD    75172
        0x0000e1ec:    00012638    8&..    DCD    75320
        0x0000e1f0:    08000103    ....    DCD    134217987
        0x0000e1f4:    08000102    ....    DCD    134217986
        0x0000e1f8:    00012682    .&..    DCD    75394
        0x0000e1fc:    08000104    ....    DCD    134217988
        0x0000e200:    000125a0    .%..    DCD    75168
        0x0000e204:    4001004c    L..@    DCD    1073807436
        0x0000e208:    400100f8    ...@    DCD    1073807608
        0x0000e20c:    40010000    ...@    DCD    1073807360
    $t
    i.am_hal_gpio_state_write
    am_hal_gpio_state_write
        0x0000e210:    b5f8        ..      PUSH     {r3-r7,lr}
        0x0000e212:    2700        .'      MOVS     r7,#0
        0x0000e214:    460d        .F      MOV      r5,r1
        0x0000e216:    4606        .F      MOV      r6,r0
        0x0000e218:    284a        J(      CMP      r0,#0x4a
        0x0000e21a:    bf24        $.      ITT      CS
        0x0000e21c:    2005        .       MOVCS    r0,#5
        0x0000e21e:    bdf8        ..      POPCS    {r3-r7,pc}
        0x0000e220:    2d05        .-      CMP      r5,#5
        0x0000e222:    bf84        ..      ITT      HI
        0x0000e224:    2006        .       MOVHI    r0,#6
        0x0000e226:    bdf8        ..      POPHI    {r3-r7,pc}
        0x0000e228:    f006001f    ....    AND      r0,r6,#0x1f
        0x0000e22c:    2101        .!      MOVS     r1,#1
        0x0000e22e:    fa01f400    ....    LSL      r4,r1,r0
        0x0000e232:    f7fef807    ....    BL       am_hal_interrupt_master_disable ; 0xc244
        0x0000e236:    9000        ..      STR      r0,[sp,#0]
        0x0000e238:    200c        .       MOVS     r0,#0xc
        0x0000e23a:    ea0000d6    ....    AND      r0,r0,r6,LSR #3
        0x0000e23e:    f1004080    ...@    ADD      r0,r0,#0x40000000
        0x0000e242:    f5003080    ...0    ADD      r0,r0,#0x10000
        0x0000e246:    2d06        .-      CMP      r5,#6
        0x0000e248:    d21c        ..      BCS      0xe284 ; am_hal_gpio_state_write + 116
        0x0000e24a:    e8dff005    ....    TBB      [pc,r5]
    $d
        0x0000e24e:    0306        ..      DCW    774
        0x0000e250:    150f1209    ....    DCD    353309193
    $t
        0x0000e254:    f8c04098    ...@    STR      r4,[r0,#0x98]
        0x0000e258:    e015        ..      B        0xe286 ; am_hal_gpio_state_write + 118
        0x0000e25a:    f8c040a4    ...@    STR      r4,[r0,#0xa4]
        0x0000e25e:    e012        ..      B        0xe286 ; am_hal_gpio_state_write + 118
        0x0000e260:    f8d0108c    ....    LDR      r1,[r0,#0x8c]
        0x0000e264:    4061        a@      EORS     r1,r1,r4
        0x0000e266:    f8c0108c    ....    STR      r1,[r0,#0x8c]
        0x0000e26a:    e00c        ..      B        0xe286 ; am_hal_gpio_state_write + 118
        0x0000e26c:    f8c040bc    ...@    STR      r4,[r0,#0xbc]
        0x0000e270:    e009        ..      B        0xe286 ; am_hal_gpio_state_write + 118
        0x0000e272:    f8c040c8    ...@    STR      r4,[r0,#0xc8]
        0x0000e276:    e006        ..      B        0xe286 ; am_hal_gpio_state_write + 118
        0x0000e278:    f8d010c8    ....    LDR      r1,[r0,#0xc8]
        0x0000e27c:    4061        a@      EORS     r1,r1,r4
        0x0000e27e:    f8c010c8    ....    STR      r1,[r0,#0xc8]
        0x0000e282:    e000        ..      B        0xe286 ; am_hal_gpio_state_write + 118
        0x0000e284:    2706        .'      MOVS     r7,#6
        0x0000e286:    9800        ..      LDR      r0,[sp,#0]
        0x0000e288:    f7fdffe0    ....    BL       am_hal_interrupt_master_set ; 0xc24c
        0x0000e28c:    4638        8F      MOV      r0,r7
        0x0000e28e:    bdf8        ..      POP      {r3-r7,pc}
    i.am_hal_itm_enable
    am_hal_itm_enable
        0x0000e290:    480a        .H      LDR      r0,[pc,#40] ; [0xe2bc] = 0xe000edfc
        0x0000e292:    6801        .h      LDR      r1,[r0,#0]
        0x0000e294:    f0417180    A..q    ORR      r1,r1,#0x1000000
        0x0000e298:    6001        .`      STR      r1,[r0,#0]
        0x0000e29a:    6801        .h      LDR      r1,[r0,#0]
        0x0000e29c:    f0117f80    ....    TST      r1,#0x1000000
        0x0000e2a0:    d0fb        ..      BEQ      0xe29a ; am_hal_itm_enable + 10
        0x0000e2a2:    4908        .I      LDR      r1,[pc,#32] ; [0xe2c4] = 0xe0000fb0
        0x0000e2a4:    4806        .H      LDR      r0,[pc,#24] ; [0xe2c0] = 0xc5acce55
        0x0000e2a6:    6008        .`      STR      r0,[r1,#0]
        0x0000e2a8:    4907        .I      LDR      r1,[pc,#28] ; [0xe2c8] = 0xe0000e40
        0x0000e2aa:    200f        .       MOVS     r0,#0xf
        0x0000e2ac:    6008        .`      STR      r0,[r1,#0]
        0x0000e2ae:    1748        H.      ASRS     r0,r1,#29
        0x0000e2b0:    4906        .I      LDR      r1,[pc,#24] ; [0xe2cc] = 0xe0000e00
        0x0000e2b2:    6008        .`      STR      r0,[r1,#0]
        0x0000e2b4:    4907        .I      LDR      r1,[pc,#28] ; [0xe2d4] = 0xe0000e80
        0x0000e2b6:    4806        .H      LDR      r0,[pc,#24] ; [0xe2d0] = 0x150511
        0x0000e2b8:    6008        .`      STR      r0,[r1,#0]
        0x0000e2ba:    4770        pG      BX       lr
    $d
        0x0000e2bc:    e000edfc    ....    DCD    3758157308
        0x0000e2c0:    c5acce55    U...    DCD    3316436565
        0x0000e2c4:    e0000fb0    ....    DCD    3758100400
        0x0000e2c8:    e0000e40    @...    DCD    3758100032
        0x0000e2cc:    e0000e00    ....    DCD    3758099968
        0x0000e2d0:    00150511    ....    DCD    1377553
        0x0000e2d4:    e0000e80    ....    DCD    3758100096
    $t
    i.am_hal_itm_print
    am_hal_itm_print
        0x0000e2d8:    7802        .x      LDRB     r2,[r0,#0]
        0x0000e2da:    2100        .!      MOVS     r1,#0
        0x0000e2dc:    2a00        .*      CMP      r2,#0
        0x0000e2de:    bf08        ..      IT       EQ
        0x0000e2e0:    4770        pG      BXEQ     lr
        0x0000e2e2:    1c49        I.      ADDS     r1,r1,#1
        0x0000e2e4:    5c42        B\      LDRB     r2,[r0,r1]
        0x0000e2e6:    2a00        .*      CMP      r2,#0
        0x0000e2e8:    d1fb        ..      BNE      0xe2e2 ; am_hal_itm_print + 10
        0x0000e2ea:    2900        .)      CMP      r1,#0
        0x0000e2ec:    bf08        ..      IT       EQ
        0x0000e2ee:    4770        pG      BXEQ     lr
        0x0000e2f0:    f810cb01    ....    LDRB     r12,[r0],#1
        0x0000e2f4:    f04f4260    O.`B    MOV      r2,#0xe0000000
        0x0000e2f8:    6813        .h      LDR      r3,[r2,#0]
        0x0000e2fa:    2b00        .+      CMP      r3,#0
        0x0000e2fc:    d0fc        ..      BEQ      0xe2f8 ; am_hal_itm_print + 32
        0x0000e2fe:    f882c000    ....    STRB     r12,[r2,#0]
        0x0000e302:    1e49        I.      SUBS     r1,r1,#1
        0x0000e304:    d1f4        ..      BNE      0xe2f0 ; am_hal_itm_print + 24
        0x0000e306:    4770        pG      BX       lr
    i.am_hal_mcuctrl_control
    am_hal_mcuctrl_control
        0x0000e308:    b5f8        ..      PUSH     {r3-r7,lr}
        0x0000e30a:    4c53        SL      LDR      r4,[pc,#332] ; [0xe458] = 0x40020000
        0x0000e30c:    2805        .(      CMP      r0,#5
        0x0000e30e:    d27d        }.      BCS      0xe40c ; am_hal_mcuctrl_control + 260
        0x0000e310:    e8dff000    ....    TBB      [pc,r0]
    $d
        0x0000e314:    1a0f0803    ....    DCD    437192707
        0x0000e318:    0027        '.      DCW    39
    $t
        0x0000e31a:    f8d401d0    ....    LDR      r0,[r4,#0x1d0]
        0x0000e31e:    f0400001    @...    ORR      r0,r0,#1
        0x0000e322:    e003        ..      B        0xe32c ; am_hal_mcuctrl_control + 36
        0x0000e324:    f8d401d0    ....    LDR      r0,[r4,#0x1d0]
        0x0000e328:    f0200001     ...    BIC      r0,r0,#1
        0x0000e32c:    f8c401d0    ....    STR      r0,[r4,#0x1d0]
        0x0000e330:    e08d        ..      B        0xe44e ; am_hal_mcuctrl_control + 326
        0x0000e332:    f8d40120    .. .    LDR      r0,[r4,#0x120]
        0x0000e336:    f020001f     ...    BIC      r0,r0,#0x1f
        0x0000e33a:    f8c40120    .. .    STR      r0,[r4,#0x120]
        0x0000e33e:    f8d40120    .. .    LDR      r0,[r4,#0x120]
        0x0000e342:    f0400007    @...    ORR      r0,r0,#7
        0x0000e346:    e009        ..      B        0xe35c ; am_hal_mcuctrl_control + 84
        0x0000e348:    f8d40120    .. .    LDR      r0,[r4,#0x120]
        0x0000e34c:    f020001f     ...    BIC      r0,r0,#0x1f
        0x0000e350:    f8c40120    .. .    STR      r0,[r4,#0x120]
        0x0000e354:    f8d40120    .. .    LDR      r0,[r4,#0x120]
        0x0000e358:    f0400018    @...    ORR      r0,r0,#0x18
        0x0000e35c:    f8c40120    .. .    STR      r0,[r4,#0x120]
        0x0000e360:    e075        u.      B        0xe44e ; am_hal_mcuctrl_control + 326
        0x0000e362:    6808        .h      LDR      r0,[r1,#0]
        0x0000e364:    f0301133    0.3.    BICS     r1,r0,#0x330033
        0x0000e368:    d173        s.      BNE      0xe452 ; am_hal_mcuctrl_control + 330
        0x0000e36a:    f0100101    ....    ANDS     r1,r0,#1
        0x0000e36e:    bf18        ..      IT       NE
        0x0000e370:    2108        .!      MOVNE    r1,#8
        0x0000e372:    f0100202    ....    ANDS     r2,r0,#2
        0x0000e376:    bf18        ..      IT       NE
        0x0000e378:    2204        ."      MOVNE    r2,#4
        0x0000e37a:    4311        .C      ORRS     r1,r1,r2
        0x0000e37c:    f4103280    ...2    ANDS     r2,r0,#0x10000
        0x0000e380:    bf18        ..      IT       NE
        0x0000e382:    2202        ."      MOVNE    r2,#2
        0x0000e384:    4311        .C      ORRS     r1,r1,r2
        0x0000e386:    f3c04240    ..@B    UBFX     r2,r0,#17,#1
        0x0000e38a:    430a        .C      ORRS     r2,r2,r1
        0x0000e38c:    f8d41284    ....    LDR      r1,[r4,#0x284]
        0x0000e390:    f0110301    ....    ANDS     r3,r1,#1
        0x0000e394:    bf18        ..      IT       NE
        0x0000e396:    2308        .#      MOVNE    r3,#8
        0x0000e398:    431a        .C      ORRS     r2,r2,r3
        0x0000e39a:    f0110302    ....    ANDS     r3,r1,#2
        0x0000e39e:    bf18        ..      IT       NE
        0x0000e3a0:    2304        .#      MOVNE    r3,#4
        0x0000e3a2:    431a        .C      ORRS     r2,r2,r3
        0x0000e3a4:    2500        .%      MOVS     r5,#0
        0x0000e3a6:    462e        .F      MOV      r6,r5
        0x0000e3a8:    2a10        .*      CMP      r2,#0x10
        0x0000e3aa:    d252        R.      BCS      0xe452 ; am_hal_mcuctrl_control + 330
        0x0000e3ac:    e8dff002    ....    TBB      [pc,r2]
    $d
        0x0000e3b0:    0a0a0810    ....    DCD    168429584
        0x0000e3b4:    0a3d103d    =.=.    DCD    171774013
        0x0000e3b8:    0a0a0c0c    ....    DCD    168430604
        0x0000e3bc:    0a3d0c0f    ..=.    DCD    171772943
    $t
        0x0000e3c0:    2502        .%      MOVS     r5,#2
        0x0000e3c2:    e005        ..      B        0xe3d0 ; am_hal_mcuctrl_control + 200
        0x0000e3c4:    2503        .%      MOVS     r5,#3
        0x0000e3c6:    e003        ..      B        0xe3d0 ; am_hal_mcuctrl_control + 200
        0x0000e3c8:    2601        .&      MOVS     r6,#1
        0x0000e3ca:    2502        .%      MOVS     r5,#2
        0x0000e3cc:    e000        ..      B        0xe3d0 ; am_hal_mcuctrl_control + 200
        0x0000e3ce:    2603        .&      MOVS     r6,#3
        0x0000e3d0:    f0100210    ....    ANDS     r2,r0,#0x10
        0x0000e3d4:    bf18        ..      IT       NE
        0x0000e3d6:    2208        ."      MOVNE    r2,#8
        0x0000e3d8:    f0100320    .. .    ANDS     r3,r0,#0x20
        0x0000e3dc:    bf18        ..      IT       NE
        0x0000e3de:    2304        .#      MOVNE    r3,#4
        0x0000e3e0:    431a        .C      ORRS     r2,r2,r3
        0x0000e3e2:    f4101380    ....    ANDS     r3,r0,#0x100000
        0x0000e3e6:    bf18        ..      IT       NE
        0x0000e3e8:    2302        .#      MOVNE    r3,#2
        0x0000e3ea:    431a        .C      ORRS     r2,r2,r3
        0x0000e3ec:    f3c05040    ..@P    UBFX     r0,r0,#21,#1
        0x0000e3f0:    4310        .C      ORRS     r0,r0,r2
        0x0000e3f2:    f0110210    ....    ANDS     r2,r1,#0x10
        0x0000e3f6:    bf18        ..      IT       NE
        0x0000e3f8:    2208        ."      MOVNE    r2,#8
        0x0000e3fa:    4310        .C      ORRS     r0,r0,r2
        0x0000e3fc:    f0110120    .. .    ANDS     r1,r1,#0x20
        0x0000e400:    bf18        ..      IT       NE
        0x0000e402:    2104        .!      MOVNE    r1,#4
        0x0000e404:    4308        .C      ORRS     r0,r0,r1
        0x0000e406:    2810        .(      CMP      r0,#0x10
        0x0000e408:    d223        #.      BCS      0xe452 ; am_hal_mcuctrl_control + 330
        0x0000e40a:    e000        ..      B        0xe40e ; am_hal_mcuctrl_control + 262
        0x0000e40c:    e021        !.      B        0xe452 ; am_hal_mcuctrl_control + 330
        0x0000e40e:    e8dff000    ....    TBB      [pc,r0]
    $d
        0x0000e412:    0812        ..      DCW    2066
        0x0000e414:    120c0a0a    ....    DCD    302778890
        0x0000e418:    0e0e0a0c    ....    DCD    235801100
        0x0000e41c:    0e110a0a    ....    DCD    235997706
        0x0000e420:    0a0c        ..      DCW    2572
    $t
        0x0000e422:    2520         %      MOVS     r5,#0x20
        0x0000e424:    e007        ..      B        0xe436 ; am_hal_mcuctrl_control + 302
        0x0000e426:    2530        0%      MOVS     r5,#0x30
        0x0000e428:    e005        ..      B        0xe436 ; am_hal_mcuctrl_control + 302
        0x0000e42a:    2007        .       MOVS     r0,#7
        0x0000e42c:    bdf8        ..      POP      {r3-r7,pc}
        0x0000e42e:    2610        .&      MOVS     r6,#0x10
        0x0000e430:    2520         %      MOVS     r5,#0x20
        0x0000e432:    e000        ..      B        0xe436 ; am_hal_mcuctrl_control + 302
        0x0000e434:    2630        0&      MOVS     r6,#0x30
        0x0000e436:    f7fdff05    ....    BL       am_hal_interrupt_master_disable ; 0xc244
        0x0000e43a:    9000        ..      STR      r0,[sp,#0]
        0x0000e43c:    f8d40284    ....    LDR      r0,[r4,#0x284]
        0x0000e440:    4330        0C      ORRS     r0,r0,r6
        0x0000e442:    43a8        .C      BICS     r0,r0,r5
        0x0000e444:    f8c40284    ....    STR      r0,[r4,#0x284]
        0x0000e448:    9800        ..      LDR      r0,[sp,#0]
        0x0000e44a:    f7fdfeff    ....    BL       am_hal_interrupt_master_set ; 0xc24c
        0x0000e44e:    2000        .       MOVS     r0,#0
        0x0000e450:    bdf8        ..      POP      {r3-r7,pc}
        0x0000e452:    2006        .       MOVS     r0,#6
        0x0000e454:    bdf8        ..      POP      {r3-r7,pc}
    $d
        0x0000e456:    0000        ..      DCW    0
        0x0000e458:    40020000    ...@    DCD    1073872896
    $t
    i.am_hal_mcuctrl_info_get
    am_hal_mcuctrl_info_get
        0x0000e45c:    b129        ).      CBZ      r1,0xe46a ; am_hal_mcuctrl_info_get + 14
        0x0000e45e:    4a45        EJ      LDR      r2,[pc,#276] ; [0xe574] = 0x40020000
        0x0000e460:    b128        (.      CBZ      r0,0xe46e ; am_hal_mcuctrl_info_get + 18
        0x0000e462:    2801        .(      CMP      r0,#1
        0x0000e464:    d017        ..      BEQ      0xe496 ; am_hal_mcuctrl_info_get + 58
        0x0000e466:    2802        .(      CMP      r0,#2
        0x0000e468:    d069        i.      BEQ      0xe53e ; am_hal_mcuctrl_info_get + 226
        0x0000e46a:    2006        .       MOVS     r0,#6
        0x0000e46c:    4770        pG      BX       lr
        0x0000e46e:    6990        .i      LDR      r0,[r2,#0x18]
        0x0000e470:    f3c01380    ....    UBFX     r3,r0,#6,#1
        0x0000e474:    700b        .p      STRB     r3,[r1,#0]
        0x0000e476:    f3c00080    ....    UBFX     r0,r0,#2,#1
        0x0000e47a:    7048        Hp      STRB     r0,[r1,#1]
        0x0000e47c:    f8d201a0    ....    LDR      r0,[r2,#0x1a0]
        0x0000e480:    f3c06081    ...`    UBFX     r0,r0,#26,#2
        0x0000e484:    7108        .q      STRB     r0,[r1,#4]
        0x0000e486:    6950        Pi      LDR      r0,[r2,#0x14]
        0x0000e488:    f3c00240    ..@.    UBFX     r2,r0,#1,#1
        0x0000e48c:    708a        .p      STRB     r2,[r1,#2]
        0x0000e48e:    f0000001    ....    AND      r0,r0,#1
        0x0000e492:    70c8        .p      STRB     r0,[r1,#3]
        0x0000e494:    e06b        k.      B        0xe56e ; am_hal_mcuctrl_info_get + 274
        0x0000e496:    6810        .h      LDR      r0,[r2,#0]
        0x0000e498:    6008        .`      STR      r0,[r1,#0]
        0x0000e49a:    6853        Sh      LDR      r3,[r2,#4]
        0x0000e49c:    604b        K`      STR      r3,[r1,#4]
        0x0000e49e:    6893        .h      LDR      r3,[r2,#8]
        0x0000e4a0:    608b        .`      STR      r3,[r1,#8]
        0x0000e4a2:    68d3        .h      LDR      r3,[r2,#0xc]
        0x0000e4a4:    60cb        .`      STR      r3,[r1,#0xc]
        0x0000e4a6:    6913        .i      LDR      r3,[r2,#0x10]
        0x0000e4a8:    610b        .a      STR      r3,[r1,#0x10]
        0x0000e4aa:    6952        Ri      LDR      r2,[r2,#0x14]
        0x0000e4ac:    614a        Ja      STR      r2,[r1,#0x14]
        0x0000e4ae:    f0000201    ....    AND      r2,r0,#1
        0x0000e4b2:    618a        .a      STR      r2,[r1,#0x18]
        0x0000e4b4:    223c        <"      MOVS     r2,#0x3c
        0x0000e4b6:    ea024390    ...C    AND      r3,r2,r0,LSR #18
        0x0000e4ba:    f8dfc0bc    ....    LDR      r12,[pc,#188] ; [0xe578] = 0x12390
        0x0000e4be:    ea023090    ...0    AND      r0,r2,r0,LSR #14
        0x0000e4c2:    f10c0240    ..@.    ADD      r2,r12,#0x40
        0x0000e4c6:    f85c3003    \..0    LDR      r3,[r12,r3]
        0x0000e4ca:    61cb        .a      STR      r3,[r1,#0x1c]
        0x0000e4cc:    5810        .X      LDR      r0,[r2,r0]
        0x0000e4ce:    6208        .b      STR      r0,[r1,#0x20]
        0x0000e4d0:    482a        *H      LDR      r0,[pc,#168] ; [0xe57c] = 0xf0000fe0
        0x0000e4d2:    6800        .h      LDR      r0,[r0,#0]
        0x0000e4d4:    4a2a        *J      LDR      r2,[pc,#168] ; [0xe580] = 0xf0000fe4
        0x0000e4d6:    b2c0        ..      UXTB     r0,r0
        0x0000e4d8:    6248        Hb      STR      r0,[r1,#0x24]
        0x0000e4da:    6813        .h      LDR      r3,[r2,#0]
        0x0000e4dc:    f003030f    ....    AND      r3,r3,#0xf
        0x0000e4e0:    ea402003    @..     ORR      r0,r0,r3,LSL #8
        0x0000e4e4:    6248        Hb      STR      r0,[r1,#0x24]
        0x0000e4e6:    6810        .h      LDR      r0,[r2,#0]
        0x0000e4e8:    1d12        ..      ADDS     r2,r2,#4
        0x0000e4ea:    f3c01003    ....    UBFX     r0,r0,#4,#4
        0x0000e4ee:    6288        .b      STR      r0,[r1,#0x28]
        0x0000e4f0:    6813        .h      LDR      r3,[r2,#0]
        0x0000e4f2:    f003030f    ....    AND      r3,r3,#0xf
        0x0000e4f6:    ea401003    @...    ORR      r0,r0,r3,LSL #4
        0x0000e4fa:    6288        .b      STR      r0,[r1,#0x28]
        0x0000e4fc:    6810        .h      LDR      r0,[r2,#0]
        0x0000e4fe:    f3c01003    ....    UBFX     r0,r0,#4,#4
        0x0000e502:    0100        ..      LSLS     r0,r0,#4
        0x0000e504:    1d12        ..      ADDS     r2,r2,#4
        0x0000e506:    62c8        .b      STR      r0,[r1,#0x2c]
        0x0000e508:    6812        .h      LDR      r2,[r2,#0]
        0x0000e50a:    f3c21203    ....    UBFX     r2,r2,#4,#4
        0x0000e50e:    4310        .C      ORRS     r0,r0,r2
        0x0000e510:    62c8        .b      STR      r0,[r1,#0x2c]
        0x0000e512:    481c        .H      LDR      r0,[pc,#112] ; [0xe584] = 0xf0000ffc
        0x0000e514:    6800        .h      LDR      r0,[r0,#0]
        0x0000e516:    4a1c        .J      LDR      r2,[pc,#112] ; [0xe588] = 0xf0000ff8
        0x0000e518:    0600        ..      LSLS     r0,r0,#24
        0x0000e51a:    6308        .c      STR      r0,[r1,#0x30]
        0x0000e51c:    6812        .h      LDR      r2,[r2,#0]
        0x0000e51e:    b2d2        ..      UXTB     r2,r2
        0x0000e520:    ea404002    @..@    ORR      r0,r0,r2,LSL #16
        0x0000e524:    4a19        .J      LDR      r2,[pc,#100] ; [0xe58c] = 0xf0000ff4
        0x0000e526:    6308        .c      STR      r0,[r1,#0x30]
        0x0000e528:    6812        .h      LDR      r2,[r2,#0]
        0x0000e52a:    b2d2        ..      UXTB     r2,r2
        0x0000e52c:    ea402002    @..     ORR      r0,r0,r2,LSL #8
        0x0000e530:    4a17        .J      LDR      r2,[pc,#92] ; [0xe590] = 0xf0000ff0
        0x0000e532:    6308        .c      STR      r0,[r1,#0x30]
        0x0000e534:    6812        .h      LDR      r2,[r2,#0]
        0x0000e536:    b2d2        ..      UXTB     r2,r2
        0x0000e538:    4310        .C      ORRS     r0,r0,r2
        0x0000e53a:    6308        .c      STR      r0,[r1,#0x30]
        0x0000e53c:    e017        ..      B        0xe56e ; am_hal_mcuctrl_info_get + 274
        0x0000e53e:    f8d201cc    ....    LDR      r0,[r2,#0x1cc]
        0x0000e542:    f0000301    ....    AND      r3,r0,#1
        0x0000e546:    700b        .p      STRB     r3,[r1,#0]
        0x0000e548:    f3c00340    ..@.    UBFX     r3,r0,#1,#1
        0x0000e54c:    720b        .r      STRB     r3,[r1,#8]
        0x0000e54e:    f3c00080    ....    UBFX     r0,r0,#2,#1
        0x0000e552:    7408        .t      STRB     r0,[r1,#0x10]
        0x0000e554:    f8d201c4    ....    LDR      r0,[r2,#0x1c4]
        0x0000e558:    60c8        .`      STR      r0,[r1,#0xc]
        0x0000e55a:    6848        Hh      LDR      r0,[r1,#4]
        0x0000e55c:    f8d231c0    ...1    LDR      r3,[r2,#0x1c0]
        0x0000e560:    4318        .C      ORRS     r0,r0,r3
        0x0000e562:    6048        H`      STR      r0,[r1,#4]
        0x0000e564:    6948        Hi      LDR      r0,[r1,#0x14]
        0x0000e566:    f8d221c8    ...!    LDR      r2,[r2,#0x1c8]
        0x0000e56a:    4310        .C      ORRS     r0,r0,r2
        0x0000e56c:    6148        Ha      STR      r0,[r1,#0x14]
        0x0000e56e:    2000        .       MOVS     r0,#0
        0x0000e570:    4770        pG      BX       lr
    $d
        0x0000e572:    0000        ..      DCW    0
        0x0000e574:    40020000    ...@    DCD    1073872896
        0x0000e578:    00012390    .#..    DCD    74640
        0x0000e57c:    f0000fe0    ....    DCD    4026535904
        0x0000e580:    f0000fe4    ....    DCD    4026535908
        0x0000e584:    f0000ffc    ....    DCD    4026535932
        0x0000e588:    f0000ff8    ....    DCD    4026535928
        0x0000e58c:    f0000ff4    ....    DCD    4026535924
        0x0000e590:    f0000ff0    ....    DCD    4026535920
    $t
    i.am_hal_mspi_blocking_transfer
    am_hal_mspi_blocking_transfer
        0x0000e594:    e92d4ff7    -..O    PUSH     {r0-r2,r4-r11,lr}
        0x0000e598:    b084        ..      SUB      sp,sp,#0x10
        0x0000e59a:    1e02        ..      SUBS     r2,r0,#0
        0x0000e59c:    f04f0300    O...    MOV      r3,#0
        0x0000e5a0:    bf1c        ..      ITT      NE
        0x0000e5a2:    6810        .h      LDRNE    r0,[r2,#0]
        0x0000e5a4:    f0107f80    ....    TSTNE    r0,#0x1000000
        0x0000e5a8:    d004        ..      BEQ      0xe5b4 ; am_hal_mspi_blocking_transfer + 32
        0x0000e5aa:    4c88        .L      LDR      r4,[pc,#544] ; [0xe7cc] = 0xbebebe
        0x0000e5ac:    f0204c7f     ..L    BIC      r12,r0,#0xff000000
        0x0000e5b0:    45a4        .E      CMP      r12,r4
        0x0000e5b2:    d003        ..      BEQ      0xe5bc ; am_hal_mspi_blocking_transfer + 40
        0x0000e5b4:    b007        ..      ADD      sp,sp,#0x1c
        0x0000e5b6:    2002        .       MOVS     r0,#2
        0x0000e5b8:    e8bd8ff0    ....    POP      {r4-r11,pc}
        0x0000e5bc:    f0107f00    ....    TST      r0,#0x2000000
        0x0000e5c0:    d06c        l.      BEQ      0xe69c ; am_hal_mspi_blocking_transfer + 264
        0x0000e5c2:    69d0        .i      LDR      r0,[r2,#0x1c]
        0x0000e5c4:    6855        Uh      LDR      r5,[r2,#4]
        0x0000e5c6:    2800        .(      CMP      r0,#0
        0x0000e5c8:    bf04        ..      ITT      EQ
        0x0000e5ca:    f8d2083c    ..<.    LDREQ    r0,[r2,#0x83c]
        0x0000e5ce:    2800        .(      CMPEQ    r0,#0
        0x0000e5d0:    d164        d.      BNE      0xe69c ; am_hal_mspi_blocking_transfer + 264
        0x0000e5d2:    f8920828    ..(.    LDRB     r0,[r2,#0x828]
        0x0000e5d6:    2802        .(      CMP      r0,#2
        0x0000e5d8:    d060        `.      BEQ      0xe69c ; am_hal_mspi_blocking_transfer + 264
        0x0000e5da:    8808        ..      LDRH     r0,[r1,#0]
        0x0000e5dc:    f44f6c00    O..l    MOV      r12,#0x800
        0x0000e5e0:    ea434000    C..@    ORR      r0,r3,r0,LSL #16
        0x0000e5e4:    790b        .y      LDRB     r3,[r1,#4]
        0x0000e5e6:    ea0c23c3    ...#    AND      r3,r12,r3,LSL #11
        0x0000e5ea:    4318        .C      ORRS     r0,r0,r3
        0x0000e5ec:    798b        .y      LDRB     r3,[r1,#6]
        0x0000e5ee:    f44f6c80    O..l    MOV      r12,#0x400
        0x0000e5f2:    ea0c2383    ...#    AND      r3,r12,r3,LSL #10
        0x0000e5f6:    4318        .C      ORRS     r0,r0,r3
        0x0000e5f8:    7b0b        .{      LDRB     r3,[r1,#0xc]
        0x0000e5fa:    b153        S.      CBZ      r3,0xe612 ; am_hal_mspi_blocking_transfer + 126
        0x0000e5fc:    ea4f3c05    O..<    LSL      r12,r5,#12
        0x0000e600:    f10c4ca0    ...L    ADD      r12,r12,#0x50000000
        0x0000e604:    f50c3ca0    ...<    ADD      r12,r12,#0x14000
        0x0000e608:    89cb        ..      LDRH     r3,[r1,#0xe]
        0x0000e60a:    f4407000    @..p    ORR      r0,r0,#0x200
        0x0000e60e:    f8cc300c    ...0    STR      r3,[r12,#0xc]
        0x0000e612:    79cb        .y      LDRB     r3,[r1,#7]
        0x0000e614:    b153        S.      CBZ      r3,0xe62c ; am_hal_mspi_blocking_transfer + 152
        0x0000e616:    ea4f3c05    O..<    LSL      r12,r5,#12
        0x0000e61a:    f10c4ca0    ...L    ADD      r12,r12,#0x50000000
        0x0000e61e:    f50c3ca0    ...<    ADD      r12,r12,#0x14000
        0x0000e622:    688b        .h      LDR      r3,[r1,#8]
        0x0000e624:    f4407080    @..p    ORR      r0,r0,#0x100
        0x0000e628:    f8cc3008    ...0    STR      r3,[r12,#8]
        0x0000e62c:    7c0b        .|      LDRB     r3,[r1,#0x10]
        0x0000e62e:    2b00        .+      CMP      r3,#0
        0x0000e630:    bf18        ..      IT       NE
        0x0000e632:    f0400080    @...    ORRNE    r0,r0,#0x80
        0x0000e636:    7a93        .z      LDRB     r3,[r2,#0xa]
        0x0000e638:    f04f0c40    O.@.    MOV      r12,#0x40
        0x0000e63c:    ea0c1383    ....    AND      r3,r12,r3,LSL #6
        0x0000e640:    4318        .C      ORRS     r0,r0,r3
        0x0000e642:    7ccb        .|      LDRB     r3,[r1,#0x13]
        0x0000e644:    f04f0c20    O. .    MOV      r12,#0x20
        0x0000e648:    ea0c1343    ..C.    AND      r3,r12,r3,LSL #5
        0x0000e64c:    4318        .C      ORRS     r0,r0,r3
        0x0000e64e:    7c4b        K|      LDRB     r3,[r1,#0x11]
        0x0000e650:    f04f0c10    O...    MOV      r12,#0x10
        0x0000e654:    ea0c1303    ....    AND      r3,r12,r3,LSL #4
        0x0000e658:    4318        .C      ORRS     r0,r0,r3
        0x0000e65a:    7c8b        .|      LDRB     r3,[r1,#0x12]
        0x0000e65c:    2b00        .+      CMP      r3,#0
        0x0000e65e:    bf18        ..      IT       NE
        0x0000e660:    f0400008    @...    ORRNE    r0,r0,#8
        0x0000e664:    794b        Ky      LDRB     r3,[r1,#5]
        0x0000e666:    2b00        .+      CMP      r3,#0
        0x0000e668:    bf18        ..      IT       NE
        0x0000e66a:    f4405080    @..P    ORRNE    r0,r0,#0x1000
        0x0000e66e:    f0400001    @...    ORR      r0,r0,#1
        0x0000e672:    032b        +.      LSLS     r3,r5,#12
        0x0000e674:    f10346a0    ...F    ADD      r6,r3,#0x50000000
        0x0000e678:    f50636a0    ...6    ADD      r6,r6,#0x14000
        0x0000e67c:    f8d63200    ...2    LDR      r3,[r6,#0x200]
        0x0000e680:    9301        ..      STR      r3,[sp,#4]
        0x0000e682:    2300        .#      MOVS     r3,#0
        0x0000e684:    f8c63200    ...2    STR      r3,[r6,#0x200]
        0x0000e688:    1e5b        [.      SUBS     r3,r3,#1
        0x0000e68a:    f8c63208    ...2    STR      r3,[r6,#0x208]
        0x0000e68e:    6030        0`      STR      r0,[r6,#0]
        0x0000e690:    798b        .y      LDRB     r3,[r1,#6]
        0x0000e692:    2005        .       MOVS     r0,#5
        0x0000e694:    b133        3.      CBZ      r3,0xe6a4 ; am_hal_mspi_blocking_transfer + 272
        0x0000e696:    2b01        .+      CMP      r3,#1
        0x0000e698:    d05a        Z.      BEQ      0xe750 ; am_hal_mspi_blocking_transfer + 444
        0x0000e69a:    e08c        ..      B        0xe7b6 ; am_hal_mspi_blocking_transfer + 546
        0x0000e69c:    b007        ..      ADD      sp,sp,#0x1c
        0x0000e69e:    2007        .       MOVS     r0,#7
        0x0000e6a0:    e8bd8ff0    ....    POP      {r4-r11,pc}
        0x0000e6a4:    f8d1a014    ....    LDR      r10,[r1,#0x14]
        0x0000e6a8:    6809        .h      LDR      r1,[r1,#0]
        0x0000e6aa:    68d2        .h      LDR      r2,[r2,#0xc]
        0x0000e6ac:    9202        ..      STR      r2,[sp,#8]
        0x0000e6ae:    2d03        .-      CMP      r5,#3
        0x0000e6b0:    d277        w.      BCS      0xe7a2 ; am_hal_mspi_blocking_transfer + 526
        0x0000e6b2:    ea5f0891    _...    LSRS     r8,r1,#2
        0x0000e6b6:    f1c80000    ....    RSB      r0,r8,#0
        0x0000e6ba:    eb010980    ....    ADD      r9,r1,r0,LSL #2
        0x0000e6be:    f04f0400    O...    MOV      r4,#0
        0x0000e6c2:    d018        ..      BEQ      0xe6f6 ; am_hal_mspi_blocking_transfer + 354
        0x0000e6c4:    4842        BH      LDR      r0,[pc,#264] ; [0xe7d0] = 0x5001401c
        0x0000e6c6:    eb003705    ...7    ADD      r7,r0,r5,LSL #12
        0x0000e6ca:    0328        (.      LSLS     r0,r5,#12
        0x0000e6cc:    f1004ba0    ...K    ADD      r11,r0,#0x50000000
        0x0000e6d0:    f50b3ba0    ...;    ADD      r11,r11,#0x14000
        0x0000e6d4:    2000        .       MOVS     r0,#0
        0x0000e6d6:    4603        .F      MOV      r3,r0
        0x0000e6d8:    9000        ..      STR      r0,[sp,#0]
        0x0000e6da:    4639        9F      MOV      r1,r7
        0x0000e6dc:    223f        ?"      MOVS     r2,#0x3f
        0x0000e6de:    9802        ..      LDR      r0,[sp,#8]
        0x0000e6e0:    f7fffc10    ....    BL       am_hal_flash_delay_status_check ; 0xdf04
        0x0000e6e4:    2800        .(      CMP      r0,#0
        0x0000e6e6:    d15c        \.      BNE      0xe7a2 ; am_hal_mspi_blocking_transfer + 526
        0x0000e6e8:    f8db0014    ....    LDR      r0,[r11,#0x14]
        0x0000e6ec:    f84a0024    J.$.    STR      r0,[r10,r4,LSL #2]
        0x0000e6f0:    1c64        d.      ADDS     r4,r4,#1
        0x0000e6f2:    4544        DE      CMP      r4,r8
        0x0000e6f4:    d3ee        ..      BCC      0xe6d4 ; am_hal_mspi_blocking_transfer + 320
        0x0000e6f6:    f1b90f00    ....    CMP      r9,#0
        0x0000e6fa:    d05c        \.      BEQ      0xe7b6 ; am_hal_mspi_blocking_transfer + 546
        0x0000e6fc:    2000        .       MOVS     r0,#0
        0x0000e6fe:    9000        ..      STR      r0,[sp,#0]
        0x0000e700:    4833        3H      LDR      r0,[pc,#204] ; [0xe7d0] = 0x5001401c
        0x0000e702:    2300        .#      MOVS     r3,#0
        0x0000e704:    eb003105    ...1    ADD      r1,r0,r5,LSL #12
        0x0000e708:    223f        ?"      MOVS     r2,#0x3f
        0x0000e70a:    9802        ..      LDR      r0,[sp,#8]
        0x0000e70c:    f7fffbfa    ....    BL       am_hal_flash_delay_status_check ; 0xdf04
        0x0000e710:    bbf0        ..      CBNZ     r0,0xe790 ; am_hal_mspi_blocking_transfer + 508
        0x0000e712:    0328        (.      LSLS     r0,r5,#12
        0x0000e714:    f10040a0    ...@    ADD      r0,r0,#0x50000000
        0x0000e718:    f50030a0    ...0    ADD      r0,r0,#0x14000
        0x0000e71c:    6940        @i      LDR      r0,[r0,#0x14]
        0x0000e71e:    9003        ..      STR      r0,[sp,#0xc]
        0x0000e720:    eb0a0084    ....    ADD      r0,r10,r4,LSL #2
        0x0000e724:    1e40        @.      SUBS     r0,r0,#1
        0x0000e726:    f10d020b    ....    ADD      r2,sp,#0xb
        0x0000e72a:    f0190f01    ....    TST      r9,#1
        0x0000e72e:    d003        ..      BEQ      0xe738 ; am_hal_mspi_blocking_transfer + 420
        0x0000e730:    f8121f01    ....    LDRB     r1,[r2,#1]!
        0x0000e734:    f8001f01    ....    STRB     r1,[r0,#1]!
        0x0000e738:    ea5f0159    _.Y.    LSRS     r1,r9,#1
        0x0000e73c:    d03b        ;.      BEQ      0xe7b6 ; am_hal_mspi_blocking_transfer + 546
        0x0000e73e:    7853        Sx      LDRB     r3,[r2,#1]
        0x0000e740:    7043        Cp      STRB     r3,[r0,#1]
        0x0000e742:    f8123f02    ...?    LDRB     r3,[r2,#2]!
        0x0000e746:    f8003f02    ...?    STRB     r3,[r0,#2]!
        0x0000e74a:    1e49        I.      SUBS     r1,r1,#1
        0x0000e74c:    d1f7        ..      BNE      0xe73e ; am_hal_mspi_blocking_transfer + 426
        0x0000e74e:    e032        2.      B        0xe7b6 ; am_hal_mspi_blocking_transfer + 546
        0x0000e750:    f8d1a014    ....    LDR      r10,[r1,#0x14]
        0x0000e754:    f8d18000    ....    LDR      r8,[r1,#0]
        0x0000e758:    68d1        .h      LDR      r1,[r2,#0xc]
        0x0000e75a:    9102        ..      STR      r1,[sp,#8]
        0x0000e75c:    2d03        .-      CMP      r5,#3
        0x0000e75e:    d220         .      BCS      0xe7a2 ; am_hal_mspi_blocking_transfer + 526
        0x0000e760:    2400        .$      MOVS     r4,#0
        0x0000e762:    f1b80f00    ....    CMP      r8,#0
        0x0000e766:    d926        &.      BLS      0xe7b6 ; am_hal_mspi_blocking_transfer + 546
        0x0000e768:    0328        (.      LSLS     r0,r5,#12
        0x0000e76a:    491a        .I      LDR      r1,[pc,#104] ; [0xe7d4] = 0x50014018
        0x0000e76c:    f10049a0    ...I    ADD      r9,r0,#0x50000000
        0x0000e770:    46a3        .F      MOV      r11,r4
        0x0000e772:    f50939a0    ...9    ADD      r9,r9,#0x14000
        0x0000e776:    eb013705    ...7    ADD      r7,r1,r5,LSL #12
        0x0000e77a:    bf00        ..      NOP      
        0x0000e77c:    f85a0024    Z.$.    LDR      r0,[r10,r4,LSL #2]
        0x0000e780:    f8c90010    ....    STR      r0,[r9,#0x10]
        0x0000e784:    2310        .#      MOVS     r3,#0x10
        0x0000e786:    4639        9F      MOV      r1,r7
        0x0000e788:    223f        ?"      MOVS     r2,#0x3f
        0x0000e78a:    f8cdb000    ....    STR      r11,[sp,#0]
        0x0000e78e:    e000        ..      B        0xe792 ; am_hal_mspi_blocking_transfer + 510
        0x0000e790:    e007        ..      B        0xe7a2 ; am_hal_mspi_blocking_transfer + 526
        0x0000e792:    9802        ..      LDR      r0,[sp,#8]
        0x0000e794:    f7fffbb6    ....    BL       am_hal_flash_delay_status_check ; 0xdf04
        0x0000e798:    1c64        d.      ADDS     r4,r4,#1
        0x0000e79a:    ebb80f84    ....    CMP      r8,r4,LSL #2
        0x0000e79e:    d8ed        ..      BHI      0xe77c ; am_hal_mspi_blocking_transfer + 488
        0x0000e7a0:    b148        H.      CBZ      r0,0xe7b6 ; am_hal_mspi_blocking_transfer + 546
        0x0000e7a2:    f04f31ff    O..1    MOV      r1,#0xffffffff
        0x0000e7a6:    f8c61208    ....    STR      r1,[r6,#0x208]
        0x0000e7aa:    9901        ..      LDR      r1,[sp,#4]
        0x0000e7ac:    f8c61200    ....    STR      r1,[r6,#0x200]
        0x0000e7b0:    b007        ..      ADD      sp,sp,#0x1c
        0x0000e7b2:    e8bd8ff0    ....    POP      {r4-r11,pc}
        0x0000e7b6:    2001        .       MOVS     r0,#1
        0x0000e7b8:    9000        ..      STR      r0,[sp,#0]
        0x0000e7ba:    4807        .H      LDR      r0,[pc,#28] ; [0xe7d8] = 0x50014000
        0x0000e7bc:    2302        .#      MOVS     r3,#2
        0x0000e7be:    eb003105    ...1    ADD      r1,r0,r5,LSL #12
        0x0000e7c2:    461a        .F      MOV      r2,r3
        0x0000e7c4:    9806        ..      LDR      r0,[sp,#0x18]
        0x0000e7c6:    f7fffb9d    ....    BL       am_hal_flash_delay_status_check ; 0xdf04
        0x0000e7ca:    e7ea        ..      B        0xe7a2 ; am_hal_mspi_blocking_transfer + 526
    $d
        0x0000e7cc:    00bebebe    ....    DCD    12500670
        0x0000e7d0:    5001401c    .@.P    DCD    1342259228
        0x0000e7d4:    50014018    .@.P    DCD    1342259224
        0x0000e7d8:    50014000    .@.P    DCD    1342259200
    $t
    i.am_hal_mspi_control
    am_hal_mspi_control
        0x0000e7dc:    e92d43f0    -..C    PUSH     {r4-r9,lr}
        0x0000e7e0:    b083        ..      SUB      sp,sp,#0xc
        0x0000e7e2:    0004        ..      MOVS     r4,r0
        0x0000e7e4:    f04f0600    O...    MOV      r6,#0
        0x0000e7e8:    bf1c        ..      ITT      NE
        0x0000e7ea:    6820         h      LDRNE    r0,[r4,#0]
        0x0000e7ec:    f0107f80    ....    TSTNE    r0,#0x1000000
        0x0000e7f0:    d004        ..      BEQ      0xe7fc ; am_hal_mspi_control + 32
        0x0000e7f2:    4bff        .K      LDR      r3,[pc,#1020] ; [0xebf0] = 0xbebebe
        0x0000e7f4:    f020407f     ..@    BIC      r0,r0,#0xff000000
        0x0000e7f8:    4298        .B      CMP      r0,r3
        0x0000e7fa:    d003        ..      BEQ      0xe804 ; am_hal_mspi_control + 40
        0x0000e7fc:    b003        ..      ADD      sp,sp,#0xc
        0x0000e7fe:    2002        .       MOVS     r0,#2
        0x0000e800:    e8bd83f0    ....    POP      {r4-r9,pc}
        0x0000e804:    2919        .)      CMP      r1,#0x19
        0x0000e806:    f200844d    ..M.    BHI.W    0xf0a4 ; am_hal_mspi_control + 2248
        0x0000e80a:    6865        eh      LDR      r5,[r4,#4]
        0x0000e80c:    f080844a    ..J.    BCS.W    0xf0a4 ; am_hal_mspi_control + 2248
        0x0000e810:    e8dff001    ....    TBB      [pc,r1]
    $d
        0x0000e814:    452f1e0d    ../E    DCD    1160715789
        0x0000e818:    7b71675d    ]gq{    DCD    2071029597
        0x0000e81c:    b4a39988    ....    DCD    3030620552
        0x0000e820:    f6f7f8fa    ....    DCD    4143446266
        0x0000e824:    f2f3f4f5    ....    DCD    4076074229
        0x0000e828:    eeeff0f1    ....    DCD    4008702193
        0x0000e82c:    00ed        ..      DCW    237
    $t
        0x0000e82e:    2a00        .*      CMP      r2,#0
        0x0000e830:    f0008438    ..8.    BEQ.W    0xf0a4 ; am_hal_mspi_control + 2248
        0x0000e834:    0328        (.      LSLS     r0,r5,#12
        0x0000e836:    f10040a0    ...@    ADD      r0,r0,#0x50000000
        0x0000e83a:    f50030a0    ...0    ADD      r0,r0,#0x14000
        0x0000e83e:    7812        .x      LDRB     r2,[r2,#0]
        0x0000e840:    f8d01100    ....    LDR      r1,[r0,#0x100]
        0x0000e844:    f3620100    b...    BFI      r1,r2,#0,#1
        0x0000e848:    f8c01100    ....    STR      r1,[r0,#0x100]
        0x0000e84c:    f000bc28    ..(.    B.W      0xf0a0 ; am_hal_mspi_control + 2244
        0x0000e850:    2a00        .*      CMP      r2,#0
        0x0000e852:    f0008427    ..'.    BEQ.W    0xf0a4 ; am_hal_mspi_control + 2248
        0x0000e856:    49e7        .I      LDR      r1,[pc,#924] ; [0xebf4] = 0xe0e0e0
        0x0000e858:    6810        .h      LDR      r0,[r2,#0]
        0x0000e85a:    4208        .B      TST      r0,r1
        0x0000e85c:    f0408422    @.".    BNE.W    0xf0a4 ; am_hal_mspi_control + 2248
        0x0000e860:    0329        ).      LSLS     r1,r5,#12
        0x0000e862:    f10141a0    ...A    ADD      r1,r1,#0x50000000
        0x0000e866:    f50131a0    ...1    ADD      r1,r1,#0x14000
        0x0000e86a:    f8c102b4    ....    STR      r0,[r1,#0x2b4]
        0x0000e86e:    f000bc17    ....    B.W      0xf0a0 ; am_hal_mspi_control + 2244
        0x0000e872:    2a00        .*      CMP      r2,#0
        0x0000e874:    f0008416    ....    BEQ.W    0xf0a4 ; am_hal_mspi_control + 2248
        0x0000e878:    6810        .h      LDR      r0,[r2,#0]
        0x0000e87a:    2806        .(      CMP      r0,#6
        0x0000e87c:    d302        ..      BCC      0xe884 ; am_hal_mspi_control + 168
        0x0000e87e:    2807        .(      CMP      r0,#7
        0x0000e880:    f0408410    @...    BNE.W    0xf0a4 ; am_hal_mspi_control + 2248
        0x0000e884:    0329        ).      LSLS     r1,r5,#12
        0x0000e886:    f10141a0    ...A    ADD      r1,r1,#0x50000000
        0x0000e88a:    f50131a0    ...1    ADD      r1,r1,#0x14000
        0x0000e88e:    f8d12100    ...!    LDR      r2,[r1,#0x100]
        0x0000e892:    f3601207    `...    BFI      r2,r0,#4,#4
        0x0000e896:    f8c12100    ...!    STR      r2,[r1,#0x100]
        0x0000e89a:    f000bc01    ....    B.W      0xf0a0 ; am_hal_mspi_control + 2244
        0x0000e89e:    2a00        .*      CMP      r2,#0
        0x0000e8a0:    f0008400    ....    BEQ.W    0xf0a4 ; am_hal_mspi_control + 2248
        0x0000e8a4:    6810        .h      LDR      r0,[r2,#0]
        0x0000e8a6:    2803        .(      CMP      r0,#3
        0x0000e8a8:    d302        ..      BCC      0xe8b0 ; am_hal_mspi_control + 212
        0x0000e8aa:    2807        .(      CMP      r0,#7
        0x0000e8ac:    f04083fa    @...    BNE.W    0xf0a4 ; am_hal_mspi_control + 2248
        0x0000e8b0:    f1000108    ....    ADD      r1,r0,#8
        0x0000e8b4:    0328        (.      LSLS     r0,r5,#12
        0x0000e8b6:    f10040a0    ...@    ADD      r0,r0,#0x50000000
        0x0000e8ba:    f50030a0    ...0    ADD      r0,r0,#0x14000
        0x0000e8be:    f8d02100    ...!    LDR      r2,[r0,#0x100]
        0x0000e8c2:    f3611207    a...    BFI      r2,r1,#4,#4
        0x0000e8c6:    f8c02100    ...!    STR      r2,[r0,#0x100]
        0x0000e8ca:    f000bbe9    ....    B.W      0xf0a0 ; am_hal_mspi_control + 2244
        0x0000e8ce:    0328        (.      LSLS     r0,r5,#12
        0x0000e8d0:    f10040a0    ...@    ADD      r0,r0,#0x50000000
        0x0000e8d4:    f50030a0    ...0    ADD      r0,r0,#0x14000
        0x0000e8d8:    f8d01120    .. .    LDR      r1,[r0,#0x120]
        0x0000e8dc:    f0210102    !...    BIC      r1,r1,#2
        0x0000e8e0:    e02d        -.      B        0xe93e ; am_hal_mspi_control + 354
        0x0000e8e2:    0328        (.      LSLS     r0,r5,#12
        0x0000e8e4:    f10040a0    ...@    ADD      r0,r0,#0x50000000
        0x0000e8e8:    f50030a0    ...0    ADD      r0,r0,#0x14000
        0x0000e8ec:    f8d01120    .. .    LDR      r1,[r0,#0x120]
        0x0000e8f0:    f0410102    A...    ORR      r1,r1,#2
        0x0000e8f4:    e023        #.      B        0xe93e ; am_hal_mspi_control + 354
        0x0000e8f6:    0328        (.      LSLS     r0,r5,#12
        0x0000e8f8:    f10040a0    ...@    ADD      r0,r0,#0x50000000
        0x0000e8fc:    f50030a0    ...0    ADD      r0,r0,#0x14000
        0x0000e900:    f8d01128    ..(.    LDR      r1,[r0,#0x128]
        0x0000e904:    f0214100    !..A    BIC      r1,r1,#0x80000000
        0x0000e908:    e008        ..      B        0xe91c ; am_hal_mspi_control + 320
        0x0000e90a:    0328        (.      LSLS     r0,r5,#12
        0x0000e90c:    f10040a0    ...@    ADD      r0,r0,#0x50000000
        0x0000e910:    f50030a0    ...0    ADD      r0,r0,#0x14000
        0x0000e914:    f8d01128    ..(.    LDR      r1,[r0,#0x128]
        0x0000e918:    f0414100    A..A    ORR      r1,r1,#0x80000000
        0x0000e91c:    f8c01128    ..(.    STR      r1,[r0,#0x128]
        0x0000e920:    f000bbbe    ....    B.W      0xf0a0 ; am_hal_mspi_control + 2244
        0x0000e924:    2a00        .*      CMP      r2,#0
        0x0000e926:    f00083bd    ....    BEQ.W    0xf0a4 ; am_hal_mspi_control + 2248
        0x0000e92a:    0328        (.      LSLS     r0,r5,#12
        0x0000e92c:    f10040a0    ...@    ADD      r0,r0,#0x50000000
        0x0000e930:    f50030a0    ...0    ADD      r0,r0,#0x14000
        0x0000e934:    7812        .x      LDRB     r2,[r2,#0]
        0x0000e936:    f8d01120    .. .    LDR      r1,[r0,#0x120]
        0x0000e93a:    f3620183    b...    BFI      r1,r2,#2,#2
        0x0000e93e:    f8c01120    .. .    STR      r1,[r0,#0x120]
        0x0000e942:    f000bbad    ....    B.W      0xf0a0 ; am_hal_mspi_control + 2244
        0x0000e946:    0328        (.      LSLS     r0,r5,#12
        0x0000e948:    f10040a0    ...@    ADD      r0,r0,#0x50000000
        0x0000e94c:    f50030a0    ...0    ADD      r0,r0,#0x14000
        0x0000e950:    f8d01104    ....    LDR      r1,[r0,#0x104]
        0x0000e954:    f0210101    !...    BIC      r1,r1,#1
        0x0000e958:    e00c        ..      B        0xe974 ; am_hal_mspi_control + 408
        0x0000e95a:    7a60        `z      LDRB     r0,[r4,#9]
        0x0000e95c:    2802        .(      CMP      r0,#2
        0x0000e95e:    f20083a1    ....    BHI.W    0xf0a4 ; am_hal_mspi_control + 2248
        0x0000e962:    0328        (.      LSLS     r0,r5,#12
        0x0000e964:    f10040a0    ...@    ADD      r0,r0,#0x50000000
        0x0000e968:    f50030a0    ...0    ADD      r0,r0,#0x14000
        0x0000e96c:    f8d01104    ....    LDR      r1,[r0,#0x104]
        0x0000e970:    f0410101    A...    ORR      r1,r1,#1
        0x0000e974:    f8c01104    ....    STR      r1,[r0,#0x104]
        0x0000e978:    f000bb92    ....    B.W      0xf0a0 ; am_hal_mspi_control + 2244
        0x0000e97c:    2000        .       MOVS     r0,#0
        0x0000e97e:    2a00        .*      CMP      r2,#0
        0x0000e980:    f0008390    ....    BEQ.W    0xf0a4 ; am_hal_mspi_control + 2248
        0x0000e984:    0329        ).      LSLS     r1,r5,#12
        0x0000e986:    f10141a0    ...A    ADD      r1,r1,#0x50000000
        0x0000e98a:    f50131a0    ...1    ADD      r1,r1,#0x14000
        0x0000e98e:    7813        .x      LDRB     r3,[r2,#0]
        0x0000e990:    f8d1c104    ....    LDR      r12,[r1,#0x104]
        0x0000e994:    f3630c82    c...    BFI      r12,r3,#2,#1
        0x0000e998:    f8c1c104    ....    STR      r12,[r1,#0x104]
        0x0000e99c:    7853        Sx      LDRB     r3,[r2,#1]
        0x0000e99e:    f8d1c104    ....    LDR      r12,[r1,#0x104]
        0x0000e9a2:    f3631c04    c...    BFI      r12,r3,#4,#1
        0x0000e9a6:    f8c1c104    ....    STR      r12,[r1,#0x104]
        0x0000e9aa:    f892c002    ....    LDRB     r12,[r2,#2]
        0x0000e9ae:    f8d13104    ...1    LDR      r3,[r1,#0x104]
        0x0000e9b2:    f36c230c    l..#    BFI      r3,r12,#8,#5
        0x0000e9b6:    f8c13104    ...1    STR      r3,[r1,#0x104]
        0x0000e9ba:    f892c003    ....    LDRB     r12,[r2,#3]
        0x0000e9be:    f8d13104    ...1    LDR      r3,[r1,#0x104]
        0x0000e9c2:    f36c1345    l.E.    BFI      r3,r12,#5,#1
        0x0000e9c6:    f8c13104    ...1    STR      r3,[r1,#0x104]
        0x0000e9ca:    f892c004    ....    LDRB     r12,[r2,#4]
        0x0000e9ce:    f8d13104    ...1    LDR      r3,[r1,#0x104]
        0x0000e9d2:    f36c4314    l..C    BFI      r3,r12,#16,#5
        0x0000e9d6:    f8c13104    ...1    STR      r3,[r1,#0x104]
        0x0000e9da:    7953        Sy      LDRB     r3,[r2,#5]
        0x0000e9dc:    f8d12104    ...!    LDR      r2,[r1,#0x104]
        0x0000e9e0:    f36302c3    c...    BFI      r2,r3,#3,#1
        0x0000e9e4:    f8c12104    ...!    STR      r2,[r1,#0x104]
        0x0000e9e8:    b003        ..      ADD      sp,sp,#0xc
        0x0000e9ea:    e8bd83f0    ....    POP      {r4-r9,pc}
        0x0000e9ee:    e342        B.      B        0xf076 ; am_hal_mspi_control + 2202
        0x0000e9f0:    e25c        \.      B        0xeeac ; am_hal_mspi_control + 1744
        0x0000e9f2:    e243        C.      B        0xee7c ; am_hal_mspi_control + 1696
        0x0000e9f4:    e232        2.      B        0xee5c ; am_hal_mspi_control + 1664
        0x0000e9f6:    e219        ..      B        0xee2c ; am_hal_mspi_control + 1616
        0x0000e9f8:    e14d        M.      B        0xec96 ; am_hal_mspi_control + 1210
        0x0000e9fa:    e0ca        ..      B        0xeb92 ; am_hal_mspi_control + 950
        0x0000e9fc:    e0c7        ..      B        0xeb8e ; am_hal_mspi_control + 946
        0x0000e9fe:    e07f        ..      B        0xeb00 ; am_hal_mspi_control + 804
        0x0000ea00:    e024        $.      B        0xea4c ; am_hal_mspi_control + 624
        0x0000ea02:    e018        ..      B        0xea36 ; am_hal_mspi_control + 602
        0x0000ea04:    e00a        ..      B        0xea1c ; am_hal_mspi_control + 576
        0x0000ea06:    e7ff        ..      B        0xea08 ; am_hal_mspi_control + 556
        0x0000ea08:    0328        (.      LSLS     r0,r5,#12
        0x0000ea0a:    f10040a0    ...@    ADD      r0,r0,#0x50000000
        0x0000ea0e:    f50030a0    ...0    ADD      r0,r0,#0x14000
        0x0000ea12:    f8d01120    .. .    LDR      r1,[r0,#0x120]
        0x0000ea16:    f0210101    !...    BIC      r1,r1,#1
        0x0000ea1a:    e790        ..      B        0xe93e ; am_hal_mspi_control + 354
        0x0000ea1c:    0328        (.      LSLS     r0,r5,#12
        0x0000ea1e:    f10040a0    ...@    ADD      r0,r0,#0x50000000
        0x0000ea22:    f50030a0    ...0    ADD      r0,r0,#0x14000
        0x0000ea26:    f8d01120    .. .    LDR      r1,[r0,#0x120]
        0x0000ea2a:    f0410101    A...    ORR      r1,r1,#1
        0x0000ea2e:    f8c01120    .. .    STR      r1,[r0,#0x120]
        0x0000ea32:    f000bb35    ..5.    B.W      0xf0a0 ; am_hal_mspi_control + 2244
        0x0000ea36:    2a00        .*      CMP      r2,#0
        0x0000ea38:    f0008334    ..4.    BEQ.W    0xf0a4 ; am_hal_mspi_control + 2248
        0x0000ea3c:    7811        .x      LDRB     r1,[r2,#0]
        0x0000ea3e:    4620         F      MOV      r0,r4
        0x0000ea40:    f002fc48    ..H.    BL       mspi_device_configure ; 0x112d4
        0x0000ea44:    0006        ..      MOVS     r6,r0
        0x0000ea46:    f000832b    ..+.    BEQ.W    0xf0a0 ; am_hal_mspi_control + 2244
        0x0000ea4a:    e7cd        ..      B        0xe9e8 ; am_hal_mspi_control + 524
        0x0000ea4c:    0328        (.      LSLS     r0,r5,#12
        0x0000ea4e:    f10040a0    ...@    ADD      r0,r0,#0x50000000
        0x0000ea52:    f50030a0    ...0    ADD      r0,r0,#0x14000
        0x0000ea56:    7811        .x      LDRB     r1,[r2,#0]
        0x0000ea58:    f8d02100    ...!    LDR      r2,[r0,#0x100]
        0x0000ea5c:    f361220d    a.."    BFI      r2,r1,#8,#6
        0x0000ea60:    f8c02100    ...!    STR      r2,[r0,#0x100]
        0x0000ea64:    f8d02100    ...!    LDR      r2,[r0,#0x100]
        0x0000ea68:    2901        .)      CMP      r1,#1
        0x0000ea6a:    d022        ".      BEQ      0xeab2 ; am_hal_mspi_control + 726
        0x0000ea6c:    f0220208    "...    BIC      r2,r2,#8
        0x0000ea70:    f8c02100    ...!    STR      r2,[r0,#0x100]
        0x0000ea74:    f8d02100    ...!    LDR      r2,[r0,#0x100]
        0x0000ea78:    f0220204    "...    BIC      r2,r2,#4
        0x0000ea7c:    f8c02100    ...!    STR      r2,[r0,#0x100]
        0x0000ea80:    f8d02100    ...!    LDR      r2,[r0,#0x100]
        0x0000ea84:    f0420202    B...    ORR      r2,r2,#2
        0x0000ea88:    f8c02100    ...!    STR      r2,[r0,#0x100]
        0x0000ea8c:    2200        ."      MOVS     r2,#0
        0x0000ea8e:    f8c02104    ...!    STR      r2,[r0,#0x104]
        0x0000ea92:    6962        bi      LDR      r2,[r4,#0x14]
        0x0000ea94:    b38a        ..      CBZ      r2,0xeafa ; am_hal_mspi_control + 798
        0x0000ea96:    f8d02268    ..h"    LDR      r2,[r0,#0x268]
        0x0000ea9a:    f022021f    "...    BIC      r2,r2,#0x1f
        0x0000ea9e:    3208        .2      ADDS     r2,r2,#8
        0x0000eaa0:    f8c02268    ..h"    STR      r2,[r0,#0x268]
        0x0000eaa4:    f8d02268    ..h"    LDR      r2,[r0,#0x268]
        0x0000eaa8:    f42252f8    "..R    BIC      r2,r2,#0x1f00
        0x0000eaac:    f5026200    ...b    ADD      r2,r2,#0x800
        0x0000eab0:    e021        !.      B        0xeaf6 ; am_hal_mspi_control + 794
        0x0000eab2:    f0420208    B...    ORR      r2,r2,#8
        0x0000eab6:    f8c02100    ...!    STR      r2,[r0,#0x100]
        0x0000eaba:    f8d02100    ...!    LDR      r2,[r0,#0x100]
        0x0000eabe:    f0220204    "...    BIC      r2,r2,#4
        0x0000eac2:    f8c02100    ...!    STR      r2,[r0,#0x100]
        0x0000eac6:    f8d02100    ...!    LDR      r2,[r0,#0x100]
        0x0000eaca:    f0420202    B...    ORR      r2,r2,#2
        0x0000eace:    f8c02100    ...!    STR      r2,[r0,#0x100]
        0x0000ead2:    2200        ."      MOVS     r2,#0
        0x0000ead4:    f8c02104    ...!    STR      r2,[r0,#0x104]
        0x0000ead8:    6962        bi      LDR      r2,[r4,#0x14]
        0x0000eada:    b172        r.      CBZ      r2,0xeafa ; am_hal_mspi_control + 798
        0x0000eadc:    f8d02268    ..h"    LDR      r2,[r0,#0x268]
        0x0000eae0:    f022021f    "...    BIC      r2,r2,#0x1f
        0x0000eae4:    320c        .2      ADDS     r2,r2,#0xc
        0x0000eae6:    f8c02268    ..h"    STR      r2,[r0,#0x268]
        0x0000eaea:    f8d02268    ..h"    LDR      r2,[r0,#0x268]
        0x0000eaee:    f42252f8    "..R    BIC      r2,r2,#0x1f00
        0x0000eaf2:    f5026280    ...b    ADD      r2,r2,#0x400
        0x0000eaf6:    f8c02268    ..h"    STR      r2,[r0,#0x268]
        0x0000eafa:    7261        ar      STRB     r1,[r4,#9]
        0x0000eafc:    f000bad0    ....    B.W      0xf0a0 ; am_hal_mspi_control + 2244
        0x0000eb00:    6861        ah      LDR      r1,[r4,#4]
        0x0000eb02:    4e3d        =N      LDR      r6,[pc,#244] ; [0xebf8] = 0x186a0
        0x0000eb04:    0309        ..      LSLS     r1,r1,#12
        0x0000eb06:    f10141a0    ...A    ADD      r1,r1,#0x50000000
        0x0000eb0a:    f50131a0    ...1    ADD      r1,r1,#0x14000
        0x0000eb0e:    f44f0000    O...    MOV      r0,#0x800000
        0x0000eb12:    4635        5F      MOV      r5,r6
        0x0000eb14:    f8c102b4    ....    STR      r0,[r1,#0x2b4]
        0x0000eb18:    6860        `h      LDR      r0,[r4,#4]
        0x0000eb1a:    0300        ..      LSLS     r0,r0,#12
        0x0000eb1c:    f10040a0    ...@    ADD      r0,r0,#0x50000000
        0x0000eb20:    f50030a0    ...0    ADD      r0,r0,#0x14000
        0x0000eb24:    f8d002a0    ....    LDR      r0,[r0,#0x2a0]
        0x0000eb28:    f0100f01    ....    TST      r0,#1
        0x0000eb2c:    d01f        ..      BEQ      0xeb6e ; am_hal_mspi_control + 914
        0x0000eb2e:    6860        `h      LDR      r0,[r4,#4]
        0x0000eb30:    0300        ..      LSLS     r0,r0,#12
        0x0000eb32:    f10041a0    ...A    ADD      r1,r0,#0x50000000
        0x0000eb36:    f50131a0    ...1    ADD      r1,r1,#0x14000
        0x0000eb3a:    f8d102ac    ....    LDR      r0,[r1,#0x2ac]
        0x0000eb3e:    f0100f08    ....    TST      r0,#8
        0x0000eb42:    bf1c        ..      ITT      NE
        0x0000eb44:    f8d102b8    ....    LDRNE    r0,[r1,#0x2b8]
        0x0000eb48:    f0100f80    ....    TSTNE    r0,#0x80
        0x0000eb4c:    d10f        ..      BNE      0xeb6e ; am_hal_mspi_control + 914
        0x0000eb4e:    1e6d        m.      SUBS     r5,r5,#1
        0x0000eb50:    d31b        ..      BCC      0xeb8a ; am_hal_mspi_control + 942
        0x0000eb52:    2010        .       MOVS     r0,#0x10
        0x0000eb54:    f7fff9c4    ....    BL       am_hal_flash_delay ; 0xdee0
        0x0000eb58:    6860        `h      LDR      r0,[r4,#4]
        0x0000eb5a:    0300        ..      LSLS     r0,r0,#12
        0x0000eb5c:    f10040a0    ...@    ADD      r0,r0,#0x50000000
        0x0000eb60:    f50030a0    ...0    ADD      r0,r0,#0x14000
        0x0000eb64:    f8d002a0    ....    LDR      r0,[r0,#0x2a0]
        0x0000eb68:    f0100f01    ....    TST      r0,#1
        0x0000eb6c:    d1df        ..      BNE      0xeb2e ; am_hal_mspi_control + 850
        0x0000eb6e:    2001        .       MOVS     r0,#1
        0x0000eb70:    9000        ..      STR      r0,[sp,#0]
        0x0000eb72:    4922        "I      LDR      r1,[pc,#136] ; [0xebfc] = 0x50014254
        0x0000eb74:    6860        `h      LDR      r0,[r4,#4]
        0x0000eb76:    2300        .#      MOVS     r3,#0
        0x0000eb78:    eb013100    ...1    ADD      r1,r1,r0,LSL #12
        0x0000eb7c:    2201        ."      MOVS     r2,#1
        0x0000eb7e:    4630        0F      MOV      r0,r6
        0x0000eb80:    f7fff9c0    ....    BL       am_hal_flash_delay_status_check ; 0xdf04
        0x0000eb84:    4606        .F      MOV      r6,r0
        0x0000eb86:    f000ba8b    ....    B.W      0xf0a0 ; am_hal_mspi_control + 2244
        0x0000eb8a:    2004        .       MOVS     r0,#4
        0x0000eb8c:    e7fa        ..      B        0xeb84 ; am_hal_mspi_control + 936
        0x0000eb8e:    2080        .       MOVS     r0,#0x80
        0x0000eb90:    e666        f.      B        0xe860 ; am_hal_mspi_control + 132
        0x0000eb92:    2a00        .*      CMP      r2,#0
        0x0000eb94:    f0008286    ....    BEQ.W    0xf0a4 ; am_hal_mspi_control + 2248
        0x0000eb98:    6960        `i      LDR      r0,[r4,#0x14]
        0x0000eb9a:    2800        .(      CMP      r0,#0
        0x0000eb9c:    f0008198    ....    BEQ.W    0xeed0 ; am_hal_mspi_control + 1780
        0x0000eba0:    7810        .x      LDRB     r0,[r2,#0]
        0x0000eba2:    1c07        ..      ADDS     r7,r0,#0
        0x0000eba4:    bf18        ..      IT       NE
        0x0000eba6:    2701        .'      MOVNE    r7,#1
        0x0000eba8:    f8940828    ..(.    LDRB     r0,[r4,#0x828]
        0x0000ebac:    42b8        .B      CMP      r0,r7
        0x0000ebae:    bf08        ..      IT       EQ
        0x0000ebb0:    2000        .       MOVEQ    r0,#0
        0x0000ebb2:    f43faf19    ?...    BEQ      0xe9e8 ; am_hal_mspi_control + 524
        0x0000ebb6:    b3e0        ..      CBZ      r0,0xec32 ; am_hal_mspi_control + 1110
        0x0000ebb8:    2802        .(      CMP      r0,#2
        0x0000ebba:    d15a        Z.      BNE      0xec72 ; am_hal_mspi_control + 1174
        0x0000ebbc:    6860        `h      LDR      r0,[r4,#4]
        0x0000ebbe:    4e0e        .N      LDR      r6,[pc,#56] ; [0xebf8] = 0x186a0
        0x0000ebc0:    ea4f3000    O..0    LSL      r0,r0,#12
        0x0000ebc4:    f10040a0    ...@    ADD      r0,r0,#0x50000000
        0x0000ebc8:    f50030a0    ...0    ADD      r0,r0,#0x14000
        0x0000ebcc:    f44f0100    O...    MOV      r1,#0x800000
        0x0000ebd0:    4635        5F      MOV      r5,r6
        0x0000ebd2:    f8c012b4    ....    STR      r1,[r0,#0x2b4]
        0x0000ebd6:    6860        `h      LDR      r0,[r4,#4]
        0x0000ebd8:    ea4f3000    O..0    LSL      r0,r0,#12
        0x0000ebdc:    f10040a0    ...@    ADD      r0,r0,#0x50000000
        0x0000ebe0:    f50030a0    ...0    ADD      r0,r0,#0x14000
        0x0000ebe4:    f8d002a0    ....    LDR      r0,[r0,#0x2a0]
        0x0000ebe8:    f0100f01    ....    TST      r0,#1
        0x0000ebec:    d02b        +.      BEQ      0xec46 ; am_hal_mspi_control + 1130
        0x0000ebee:    e007        ..      B        0xec00 ; am_hal_mspi_control + 1060
    $d
        0x0000ebf0:    00bebebe    ....    DCD    12500670
        0x0000ebf4:    00e0e0e0    ....    DCD    14737632
        0x0000ebf8:    000186a0    ....    DCD    100000
        0x0000ebfc:    50014254    TB.P    DCD    1342259796
    $t
        0x0000ec00:    6860        `h      LDR      r0,[r4,#4]
        0x0000ec02:    ea4f3000    O..0    LSL      r0,r0,#12
        0x0000ec06:    f10040a0    ...@    ADD      r0,r0,#0x50000000
        0x0000ec0a:    f50030a0    ...0    ADD      r0,r0,#0x14000
        0x0000ec0e:    f8d012ac    ....    LDR      r1,[r0,#0x2ac]
        0x0000ec12:    f0110f08    ....    TST      r1,#8
        0x0000ec16:    bf1c        ..      ITT      NE
        0x0000ec18:    f8d002b8    ....    LDRNE    r0,[r0,#0x2b8]
        0x0000ec1c:    f0100f80    ....    TSTNE    r0,#0x80
        0x0000ec20:    d111        ..      BNE      0xec46 ; am_hal_mspi_control + 1130
        0x0000ec22:    1e6d        m.      SUBS     r5,r5,#1
        0x0000ec24:    d31e        ..      BCC      0xec64 ; am_hal_mspi_control + 1160
        0x0000ec26:    2010        .       MOVS     r0,#0x10
        0x0000ec28:    f7fff95a    ..Z.    BL       am_hal_flash_delay ; 0xdee0
        0x0000ec2c:    6860        `h      LDR      r0,[r4,#4]
        0x0000ec2e:    0300        ..      LSLS     r0,r0,#12
        0x0000ec30:    e000        ..      B        0xec34 ; am_hal_mspi_control + 1112
        0x0000ec32:    e01a        ..      B        0xec6a ; am_hal_mspi_control + 1166
        0x0000ec34:    f10040a0    ...@    ADD      r0,r0,#0x50000000
        0x0000ec38:    f50030a0    ...0    ADD      r0,r0,#0x14000
        0x0000ec3c:    f8d002a0    ....    LDR      r0,[r0,#0x2a0]
        0x0000ec40:    f0100f01    ....    TST      r0,#1
        0x0000ec44:    d1d3        ..      BNE      0xebee ; am_hal_mspi_control + 1042
        0x0000ec46:    2001        .       MOVS     r0,#1
        0x0000ec48:    9000        ..      STR      r0,[sp,#0]
        0x0000ec4a:    49fb        .I      LDR      r1,[pc,#1004] ; [0xf038] = 0x50014254
        0x0000ec4c:    6860        `h      LDR      r0,[r4,#4]
        0x0000ec4e:    2300        .#      MOVS     r3,#0
        0x0000ec50:    eb013100    ...1    ADD      r1,r1,r0,LSL #12
        0x0000ec54:    2201        ."      MOVS     r2,#1
        0x0000ec56:    4630        0F      MOV      r0,r6
        0x0000ec58:    f7fff954    ..T.    BL       am_hal_flash_delay_status_check ; 0xdf04
        0x0000ec5c:    0006        ..      MOVS     r6,r0
        0x0000ec5e:    f040821f    @...    BNE.W    0xf0a0 ; am_hal_mspi_control + 2244
        0x0000ec62:    e006        ..      B        0xec72 ; am_hal_mspi_control + 1174
        0x0000ec64:    2604        .&      MOVS     r6,#4
        0x0000ec66:    f000ba1b    ....    B.W      0xf0a0 ; am_hal_mspi_control + 2244
        0x0000ec6a:    69e0        .i      LDR      r0,[r4,#0x1c]
        0x0000ec6c:    2800        .(      CMP      r0,#0
        0x0000ec6e:    f040812f    @./.    BNE.W    0xeed0 ; am_hal_mspi_control + 1780
        0x0000ec72:    f8d40824    ..$.    LDR      r0,[r4,#0x824]
        0x0000ec76:    f7fefeb9    ....    BL       am_hal_cmdq_reset ; 0xd9ec
        0x0000ec7a:    2000        .       MOVS     r0,#0
        0x0000ec7c:    61a0        .a      STR      r0,[r4,#0x18]
        0x0000ec7e:    f8c4082c    ..,.    STR      r0,[r4,#0x82c]
        0x0000ec82:    61e0        .a      STR      r0,[r4,#0x1c]
        0x0000ec84:    f8847828    ..(x    STRB     r7,[r4,#0x828]
        0x0000ec88:    2101        .!      MOVS     r1,#1
        0x0000ec8a:    f8841829    ..).    STRB     r1,[r4,#0x829]
        0x0000ec8e:    f8c40858    ..X.    STR      r0,[r4,#0x858]
        0x0000ec92:    f000ba05    ....    B.W      0xf0a0 ; am_hal_mspi_control + 2244
        0x0000ec96:    f04f0700    O...    MOV      r7,#0
        0x0000ec9a:    0016        ..      MOVS     r6,r2
        0x0000ec9c:    46b8        .F      MOV      r8,r7
        0x0000ec9e:    f0008201    ....    BEQ.W    0xf0a4 ; am_hal_mspi_control + 2248
        0x0000eca2:    7930        0y      LDRB     r0,[r6,#4]
        0x0000eca4:    f0100fe0    ....    TST      r0,#0xe0
        0x0000eca8:    f04081fc    @...    BNE.W    0xf0a4 ; am_hal_mspi_control + 2248
        0x0000ecac:    49e3        .I      LDR      r1,[pc,#908] ; [0xf03c] = 0xe0e0e0
        0x0000ecae:    68b0        .h      LDR      r0,[r6,#8]
        0x0000ecb0:    4208        .B      TST      r0,r1
        0x0000ecb2:    f04081f7    @...    BNE.W    0xf0a4 ; am_hal_mspi_control + 2248
        0x0000ecb6:    f8940828    ..(.    LDRB     r0,[r4,#0x828]
        0x0000ecba:    2801        .(      CMP      r0,#1
        0x0000ecbc:    d17e        ~.      BNE      0xedbc ; am_hal_mspi_control + 1504
        0x0000ecbe:    f8d40834    ..4.    LDR      r0,[r4,#0x834]
        0x0000ecc2:    b150        P.      CBZ      r0,0xecda ; am_hal_mspi_control + 1278
        0x0000ecc4:    2100        .!      MOVS     r1,#0
        0x0000ecc6:    f8c41834    ..4.    STR      r1,[r4,#0x834]
        0x0000ecca:    2120         !      MOVS     r1,#0x20
        0x0000eccc:    0328        (.      LSLS     r0,r5,#12
        0x0000ecce:    f10040a0    ...@    ADD      r0,r0,#0x50000000
        0x0000ecd2:    f50030a0    ...0    ADD      r0,r0,#0x14000
        0x0000ecd6:    f8c012b4    ....    STR      r1,[r0,#0x2b4]
        0x0000ecda:    7830        0x      LDRB     r0,[r6,#0]
        0x0000ecdc:    b390        ..      CBZ      r0,0xed44 ; am_hal_mspi_control + 1384
        0x0000ecde:    f8940829    ..).    LDRB     r0,[r4,#0x829]
        0x0000ece2:    bb78        x.      CBNZ     r0,0xed44 ; am_hal_mspi_control + 1384
        0x0000ece4:    ab01        ..      ADD      r3,sp,#4
        0x0000ece6:    466a        jF      MOV      r2,sp
        0x0000ece8:    2101        .!      MOVS     r1,#1
        0x0000ecea:    f8d40824    ..$.    LDR      r0,[r4,#0x824]
        0x0000ecee:    f7fefc63    ..c.    BL       am_hal_cmdq_alloc_block ; 0xd5b8
        0x0000ecf2:    2800        .(      CMP      r0,#0
        0x0000ecf4:    f47fae78    ..x.    BNE      0xe9e8 ; am_hal_mspi_control + 524
        0x0000ecf8:    9801        ..      LDR      r0,[sp,#4]
        0x0000ecfa:    49d1        .I      LDR      r1,[pc,#836] ; [0xf040] = 0x1174d
        0x0000ecfc:    b2c2        ..      UXTB     r2,r0
        0x0000ecfe:    eb040082    ....    ADD      r0,r4,r2,LSL #2
        0x0000ed02:    6241        Ab      STR      r1,[r0,#0x24]
        0x0000ed04:    9901        ..      LDR      r1,[sp,#4]
        0x0000ed06:    48cf        .H      LDR      r0,[pc,#828] ; [0xf044] = 0x500142b4
        0x0000ed08:    b2c9        ..      UXTB     r1,r1
        0x0000ed0a:    eb040181    ....    ADD      r1,r4,r1,LSL #2
        0x0000ed0e:    f8c14424    ..$D    STR      r4,[r1,#0x424]
        0x0000ed12:    eb003105    ...1    ADD      r1,r0,r5,LSL #12
        0x0000ed16:    9800        ..      LDR      r0,[sp,#0]
        0x0000ed18:    6001        .`      STR      r1,[r0,#0]
        0x0000ed1a:    2100        .!      MOVS     r1,#0
        0x0000ed1c:    6041        A`      STR      r1,[r0,#4]
        0x0000ed1e:    f7fdfa91    ....    BL       am_hal_interrupt_master_disable ; 0xc244
        0x0000ed22:    4680        .F      MOV      r8,r0
        0x0000ed24:    2101        .!      MOVS     r1,#1
        0x0000ed26:    f8d40824    ..$.    LDR      r0,[r4,#0x824]
        0x0000ed2a:    f7fefdef    ....    BL       am_hal_cmdq_post_block ; 0xd90c
        0x0000ed2e:    0007        ..      MOVS     r7,r0
        0x0000ed30:    d009        ..      BEQ      0xed46 ; am_hal_mspi_control + 1386
        0x0000ed32:    4640        @F      MOV      r0,r8
        0x0000ed34:    f7fdfa8a    ....    BL       am_hal_interrupt_master_set ; 0xc24c
        0x0000ed38:    f8d40824    ..$.    LDR      r0,[r4,#0x824]
        0x0000ed3c:    f7fefe3a    ..:.    BL       am_hal_cmdq_release_block ; 0xd9b4
        0x0000ed40:    4638        8F      MOV      r0,r7
        0x0000ed42:    e651        Q.      B        0xe9e8 ; am_hal_mspi_control + 524
        0x0000ed44:    e010        ..      B        0xed68 ; am_hal_mspi_control + 1420
        0x0000ed46:    69e7        .i      LDR      r7,[r4,#0x1c]
        0x0000ed48:    4640        @F      MOV      r0,r8
        0x0000ed4a:    1c79        y.      ADDS     r1,r7,#1
        0x0000ed4c:    61e1        .a      STR      r1,[r4,#0x1c]
        0x0000ed4e:    f7fdfa7d    ..}.    BL       am_hal_interrupt_master_set ; 0xc24c
        0x0000ed52:    b937        7.      CBNZ     r7,0xed62 ; am_hal_mspi_control + 1414
        0x0000ed54:    f8d40824    ..$.    LDR      r0,[r4,#0x824]
        0x0000ed58:    f7fefcb4    ....    BL       am_hal_cmdq_enable ; 0xd6c4
        0x0000ed5c:    2800        .(      CMP      r0,#0
        0x0000ed5e:    f47fae43    ..C.    BNE      0xe9e8 ; am_hal_mspi_control + 524
        0x0000ed62:    2740        @'      MOVS     r7,#0x40
        0x0000ed64:    f44f0880    O...    MOV      r8,#0x400000
        0x0000ed68:    ab01        ..      ADD      r3,sp,#4
        0x0000ed6a:    466a        jF      MOV      r2,sp
        0x0000ed6c:    2103        .!      MOVS     r1,#3
        0x0000ed6e:    f8d40824    ..$.    LDR      r0,[r4,#0x824]
        0x0000ed72:    f7fefc21    ..!.    BL       am_hal_cmdq_alloc_block ; 0xd5b8
        0x0000ed76:    2800        .(      CMP      r0,#0
        0x0000ed78:    f47fae36    ..6.    BNE      0xe9e8 ; am_hal_mspi_control + 524
        0x0000ed7c:    49b2        .I      LDR      r1,[pc,#712] ; [0xf048] = 0x500142b8
        0x0000ed7e:    9800        ..      LDR      r0,[sp,#0]
        0x0000ed80:    eb013105    ...1    ADD      r1,r1,r5,LSL #12
        0x0000ed84:    6081        .`      STR      r1,[r0,#8]
        0x0000ed86:    6001        .`      STR      r1,[r0,#0]
        0x0000ed88:    49ae        .I      LDR      r1,[pc,#696] ; [0xf044] = 0x500142b4
        0x0000ed8a:    eb013105    ...1    ADD      r1,r1,r5,LSL #12
        0x0000ed8e:    6101        .a      STR      r1,[r0,#0x10]
        0x0000ed90:    6871        qh      LDR      r1,[r6,#4]
        0x0000ed92:    ea410207    A...    ORR      r2,r1,r7
        0x0000ed96:    f8d41834    ..4.    LDR      r1,[r4,#0x834]
        0x0000ed9a:    2901        .)      CMP      r1,#1
        0x0000ed9c:    d01c        ..      BEQ      0xedd8 ; am_hal_mspi_control + 1532
        0x0000ed9e:    2902        .)      CMP      r1,#2
        0x0000eda0:    bf0c        ..      ITE      EQ
        0x0000eda2:    f44f4180    O..A    MOVEQ    r1,#0x4000
        0x0000eda6:    f4424181    B..A    ORRNE    r1,r2,#0x4080
        0x0000edaa:    6041        A`      STR      r1,[r0,#4]
        0x0000edac:    f44f4180    O..A    MOV      r1,#0x4000
        0x0000edb0:    60c1        .`      STR      r1,[r0,#0xc]
        0x0000edb2:    68b1        .h      LDR      r1,[r6,#8]
        0x0000edb4:    ea410108    A...    ORR      r1,r1,r8
        0x0000edb8:    6141        Aa      STR      r1,[r0,#0x14]
        0x0000edba:    e000        ..      B        0xedbe ; am_hal_mspi_control + 1506
        0x0000edbc:    e075        u.      B        0xeeaa ; am_hal_mspi_control + 1742
        0x0000edbe:    f7fdfa41    ..A.    BL       am_hal_interrupt_master_disable ; 0xc244
        0x0000edc2:    4680        .F      MOV      r8,r0
        0x0000edc4:    7830        0x      LDRB     r0,[r6,#0]
        0x0000edc6:    f04f0100    O...    MOV      r1,#0
        0x0000edca:    2800        .(      CMP      r0,#0
        0x0000edcc:    f8d40824    ..$.    LDR      r0,[r4,#0x824]
        0x0000edd0:    d009        ..      BEQ      0xede6 ; am_hal_mspi_control + 1546
        0x0000edd2:    f7fefdc1    ....    BL       am_hal_cmdq_post_loop_block ; 0xd958
        0x0000edd6:    e008        ..      B        0xedea ; am_hal_mspi_control + 1550
        0x0000edd8:    f24401a0    D...    MOV      r1,#0x40a0
        0x0000eddc:    4311        .C      ORRS     r1,r1,r2
        0x0000edde:    2202        ."      MOVS     r2,#2
        0x0000ede0:    f8c42834    ..4(    STR      r2,[r4,#0x834]
        0x0000ede4:    e7e1        ..      B        0xedaa ; am_hal_mspi_control + 1486
        0x0000ede6:    f7fefd91    ....    BL       am_hal_cmdq_post_block ; 0xd90c
        0x0000edea:    0005        ..      MOVS     r5,r0
        0x0000edec:    d007        ..      BEQ      0xedfe ; am_hal_mspi_control + 1570
        0x0000edee:    4640        @F      MOV      r0,r8
        0x0000edf0:    f7fdfa2c    ..,.    BL       am_hal_interrupt_master_set ; 0xc24c
        0x0000edf4:    f8d40824    ..$.    LDR      r0,[r4,#0x824]
        0x0000edf8:    f7fefddc    ....    BL       am_hal_cmdq_release_block ; 0xd9b4
        0x0000edfc:    e014        ..      B        0xee28 ; am_hal_mspi_control + 1612
        0x0000edfe:    69e7        .i      LDR      r7,[r4,#0x1c]
        0x0000ee00:    1c78        x.      ADDS     r0,r7,#1
        0x0000ee02:    61e0        .a      STR      r0,[r4,#0x1c]
        0x0000ee04:    7830        0x      LDRB     r0,[r6,#0]
        0x0000ee06:    2800        .(      CMP      r0,#0
        0x0000ee08:    bf14        ..      ITE      NE
        0x0000ee0a:    2102        .!      MOVNE    r1,#2
        0x0000ee0c:    2100        .!      MOVEQ    r1,#0
        0x0000ee0e:    f8841828    ..(.    STRB     r1,[r4,#0x828]
        0x0000ee12:    4640        @F      MOV      r0,r8
        0x0000ee14:    f7fdfa1a    ....    BL       am_hal_interrupt_master_set ; 0xc24c
        0x0000ee18:    b937        7.      CBNZ     r7,0xee28 ; am_hal_mspi_control + 1612
        0x0000ee1a:    f8d40824    ..$.    LDR      r0,[r4,#0x824]
        0x0000ee1e:    f7fefc51    ..Q.    BL       am_hal_cmdq_enable ; 0xd6c4
        0x0000ee22:    0005        ..      MOVS     r5,r0
        0x0000ee24:    f47fade0    ....    BNE      0xe9e8 ; am_hal_mspi_control + 524
        0x0000ee28:    4628        (F      MOV      r0,r5
        0x0000ee2a:    e5dd        ..      B        0xe9e8 ; am_hal_mspi_control + 524
        0x0000ee2c:    2a00        .*      CMP      r2,#0
        0x0000ee2e:    d07d        }.      BEQ      0xef2c ; am_hal_mspi_control + 1872
        0x0000ee30:    f8d40850    ..P.    LDR      r0,[r4,#0x850]
        0x0000ee34:    bbc8        ..      CBNZ     r0,0xeeaa ; am_hal_mspi_control + 1742
        0x0000ee36:    2000        .       MOVS     r0,#0
        0x0000ee38:    f8c4084c    ..L.    STR      r0,[r4,#0x84c]
        0x0000ee3c:    f8c4083c    ..<.    STR      r0,[r4,#0x83c]
        0x0000ee40:    2001        .       MOVS     r0,#1
        0x0000ee42:    f8c40848    ..H.    STR      r0,[r4,#0x848]
        0x0000ee46:    6810        .h      LDR      r0,[r2,#0]
        0x0000ee48:    f8c40850    ..P.    STR      r0,[r4,#0x850]
        0x0000ee4c:    497f        .I      LDR      r1,[pc,#508] ; [0xf04c] = 0xaaaaaaab
        0x0000ee4e:    6850        Ph      LDR      r0,[r2,#4]
        0x0000ee50:    fba11000    ....    UMULL    r1,r0,r1,r0
        0x0000ee54:    0900        ..      LSRS     r0,r0,#4
        0x0000ee56:    f8c40844    ..D.    STR      r0,[r4,#0x844]
        0x0000ee5a:    e121        !.      B        0xf0a0 ; am_hal_mspi_control + 2244
        0x0000ee5c:    0329        ).      LSLS     r1,r5,#12
        0x0000ee5e:    f10141a0    ...A    ADD      r1,r1,#0x50000000
        0x0000ee62:    f50131a0    ...1    ADD      r1,r1,#0x14000
        0x0000ee66:    f44f1000    O...    MOV      r0,#0x200000
        0x0000ee6a:    f8c102b4    ....    STR      r0,[r1,#0x2b4]
        0x0000ee6e:    2001        .       MOVS     r0,#1
        0x0000ee70:    f8c40834    ..4.    STR      r0,[r4,#0x834]
        0x0000ee74:    2000        .       MOVS     r0,#0
        0x0000ee76:    f8c40840    ..@.    STR      r0,[r4,#0x840]
        0x0000ee7a:    e111        ..      B        0xf0a0 ; am_hal_mspi_control + 2244
        0x0000ee7c:    2020                MOVS     r0,#0x20
        0x0000ee7e:    0329        ).      LSLS     r1,r5,#12
        0x0000ee80:    f10141a0    ...A    ADD      r1,r1,#0x50000000
        0x0000ee84:    f50131a0    ...1    ADD      r1,r1,#0x14000
        0x0000ee88:    f8c102b4    ....    STR      r0,[r1,#0x2b4]
        0x0000ee8c:    2500        .%      MOVS     r5,#0
        0x0000ee8e:    f8c45834    ..4X    STR      r5,[r4,#0x834]
        0x0000ee92:    f8d41840    ..@.    LDR      r1,[r4,#0x840]
        0x0000ee96:    2900        .)      CMP      r1,#0
        0x0000ee98:    d17e        ~.      BNE      0xef98 ; am_hal_mspi_control + 1980
        0x0000ee9a:    4620         F      MOV      r0,r4
        0x0000ee9c:    f002fdfe    ....    BL       sched_hiprio ; 0x11a9c
        0x0000eea0:    0006        ..      MOVS     r6,r0
        0x0000eea2:    bf08        ..      IT       EQ
        0x0000eea4:    f8c45840    ..@X    STREQ    r5,[r4,#0x840]
        0x0000eea8:    e0fa        ..      B        0xf0a0 ; am_hal_mspi_control + 2244
        0x0000eeaa:    e011        ..      B        0xeed0 ; am_hal_mspi_control + 1780
        0x0000eeac:    0017        ..      MOVS     r7,r2
        0x0000eeae:    d03d        =.      BEQ      0xef2c ; am_hal_mspi_control + 1872
        0x0000eeb0:    f8d40824    ..$.    LDR      r0,[r4,#0x824]
        0x0000eeb4:    b160        `.      CBZ      r0,0xeed0 ; am_hal_mspi_control + 1780
        0x0000eeb6:    69e1        .i      LDR      r1,[r4,#0x1c]
        0x0000eeb8:    f5b17f80    ....    CMP      r1,#0x100
        0x0000eebc:    d006        ..      BEQ      0xeecc ; am_hal_mspi_control + 1776
        0x0000eebe:    68f9        .h      LDR      r1,[r7,#0xc]
        0x0000eec0:    ab01        ..      ADD      r3,sp,#4
        0x0000eec2:    466a        jF      MOV      r2,sp
        0x0000eec4:    1cc9        ..      ADDS     r1,r1,#3
        0x0000eec6:    f7fefb77    ..w.    BL       am_hal_cmdq_alloc_block ; 0xd5b8
        0x0000eeca:    b118        ..      CBZ      r0,0xeed4 ; am_hal_mspi_control + 1784
        0x0000eecc:    2005        .       MOVS     r0,#5
        0x0000eece:    e58b        ..      B        0xe9e8 ; am_hal_mspi_control + 524
        0x0000eed0:    2007        .       MOVS     r0,#7
        0x0000eed2:    e589        ..      B        0xe9e8 ; am_hal_mspi_control + 524
        0x0000eed4:    485c        \H      LDR      r0,[pc,#368] ; [0xf048] = 0x500142b8
        0x0000eed6:    eb003805    ...8    ADD      r8,r0,r5,LSL #12
        0x0000eeda:    9800        ..      LDR      r0,[sp,#0]
        0x0000eedc:    f8c08000    ....    STR      r8,[r0,#0]
        0x0000eee0:    f8d42834    ..4(    LDR      r2,[r4,#0x834]
        0x0000eee4:    6839        9h      LDR      r1,[r7,#0]
        0x0000eee6:    2a01        .*      CMP      r2,#1
        0x0000eee8:    d05b        [.      BEQ      0xefa2 ; am_hal_mspi_control + 1990
        0x0000eeea:    2a02        .*      CMP      r2,#2
        0x0000eeec:    bf0c        ..      ITE      EQ
        0x0000eeee:    f44f4180    O..A    MOVEQ    r1,#0x4000
        0x0000eef2:    f4414181    A..A    ORRNE    r1,r1,#0x4080
        0x0000eef6:    6041        A`      STR      r1,[r0,#4]
        0x0000eef8:    3008        .0      ADDS     r0,r0,#8
        0x0000eefa:    9000        ..      STR      r0,[sp,#0]
        0x0000eefc:    f8d7c00c    ....    LDR      r12,[r7,#0xc]
        0x0000ef00:    f1bc0f00    ....    CMP      r12,#0
        0x0000ef04:    d02e        ..      BEQ      0xef64 ; am_hal_mspi_control + 1928
        0x0000ef06:    68b9        .h      LDR      r1,[r7,#8]
        0x0000ef08:    f1a00208    ....    SUB      r2,r0,#8
        0x0000ef0c:    f1a10308    ....    SUB      r3,r1,#8
        0x0000ef10:    1f00        ..      SUBS     r0,r0,#4
        0x0000ef12:    1f09        ..      SUBS     r1,r1,#4
        0x0000ef14:    f01c0f01    ....    TST      r12,#1
        0x0000ef18:    d007        ..      BEQ      0xef2a ; am_hal_mspi_control + 1870
        0x0000ef1a:    f853cf08    S...    LDR      r12,[r3,#8]!
        0x0000ef1e:    f842cf08    B...    STR      r12,[r2,#8]!
        0x0000ef22:    f851cf08    Q...    LDR      r12,[r1,#8]!
        0x0000ef26:    f840cf08    @...    STR      r12,[r0,#8]!
        0x0000ef2a:    e000        ..      B        0xef2e ; am_hal_mspi_control + 1874
        0x0000ef2c:    e0ba        ..      B        0xf0a4 ; am_hal_mspi_control + 2248
        0x0000ef2e:    f8d7c00c    ....    LDR      r12,[r7,#0xc]
        0x0000ef32:    ea5f0c5c    _.\.    LSRS     r12,r12,#1
        0x0000ef36:    d010        ..      BEQ      0xef5a ; am_hal_mspi_control + 1918
        0x0000ef38:    688e        .h      LDR      r6,[r1,#8]
        0x0000ef3a:    f8d39008    ....    LDR      r9,[r3,#8]
        0x0000ef3e:    f8c29008    ....    STR      r9,[r2,#8]
        0x0000ef42:    6086        .`      STR      r6,[r0,#8]
        0x0000ef44:    f8516f10    Q..o    LDR      r6,[r1,#0x10]!
        0x0000ef48:    f8539f10    S...    LDR      r9,[r3,#0x10]!
        0x0000ef4c:    f8429f10    B...    STR      r9,[r2,#0x10]!
        0x0000ef50:    f8406f10    @..o    STR      r6,[r0,#0x10]!
        0x0000ef54:    f1bc0c01    ....    SUBS     r12,r12,#1
        0x0000ef58:    d1ee        ..      BNE      0xef38 ; am_hal_mspi_control + 1884
        0x0000ef5a:    68f8        .h      LDR      r0,[r7,#0xc]
        0x0000ef5c:    9900        ..      LDR      r1,[sp,#0]
        0x0000ef5e:    eb0100c0    ....    ADD      r0,r1,r0,LSL #3
        0x0000ef62:    9000        ..      STR      r0,[sp,#0]
        0x0000ef64:    69b8        .i      LDR      r0,[r7,#0x18]
        0x0000ef66:    2800        .(      CMP      r0,#0
        0x0000ef68:    bf1c        ..      ITT      NE
        0x0000ef6a:    9900        ..      LDRNE    r1,[sp,#0]
        0x0000ef6c:    6001        .`      STRNE    r1,[r0,#0]
        0x0000ef6e:    f44f4180    O..A    MOV      r1,#0x4000
        0x0000ef72:    9800        ..      LDR      r0,[sp,#0]
        0x0000ef74:    e8e08102    ....    STRD     r8,r1,[r0],#8
        0x0000ef78:    4932        2I      LDR      r1,[pc,#200] ; [0xf044] = 0x500142b4
        0x0000ef7a:    9000        ..      STR      r0,[sp,#0]
        0x0000ef7c:    eb013105    ...1    ADD      r1,r1,r5,LSL #12
        0x0000ef80:    6001        .`      STR      r1,[r0,#0]
        0x0000ef82:    6879        yh      LDR      r1,[r7,#4]
        0x0000ef84:    6041        A`      STR      r1,[r0,#4]
        0x0000ef86:    693d        =i      LDR      r5,[r7,#0x10]
        0x0000ef88:    2d00        .-      CMP      r5,#0
        0x0000ef8a:    bf02        ..      ITTT     EQ
        0x0000ef8c:    f8d40834    ..4.    LDREQ    r0,[r4,#0x834]
        0x0000ef90:    2800        .(      CMPEQ    r0,#0
        0x0000ef92:    f8940828    ..(.    LDRBEQ   r0,[r4,#0x828]
        0x0000ef96:    e000        ..      B        0xef9a ; am_hal_mspi_control + 1982
        0x0000ef98:    e082        ..      B        0xf0a0 ; am_hal_mspi_control + 2244
        0x0000ef9a:    bf08        ..      IT       EQ
        0x0000ef9c:    2800        .(      CMPEQ    r0,#0
        0x0000ef9e:    d111        ..      BNE      0xefc4 ; am_hal_mspi_control + 2024
        0x0000efa0:    e008        ..      B        0xefb4 ; am_hal_mspi_control + 2008
        0x0000efa2:    f24402a0    D...    MOV      r2,#0x40a0
        0x0000efa6:    f04f0302    O...    MOV      r3,#2
        0x0000efaa:    ea410102    A...    ORR      r1,r1,r2
        0x0000efae:    f8c43834    ..48    STR      r3,[r4,#0x834]
        0x0000efb2:    e7a0        ..      B        0xeef6 ; am_hal_mspi_control + 1818
        0x0000efb4:    f8d41858    ..X.    LDR      r1,[r4,#0x858]
        0x0000efb8:    f8d40854    ..T.    LDR      r0,[r4,#0x854]
        0x0000efbc:    ebb10f50    ..P.    CMP      r1,r0,LSR #1
        0x0000efc0:    bf28        (.      IT       CS
        0x0000efc2:    4d23        #M      LDRCS    r5,[pc,#140] ; [0xf050] = 0x116e5
        0x0000efc4:    9801        ..      LDR      r0,[sp,#4]
        0x0000efc6:    b2c1        ..      UXTB     r1,r0
        0x0000efc8:    eb040081    ....    ADD      r0,r4,r1,LSL #2
        0x0000efcc:    6245        Eb      STR      r5,[r0,#0x24]
        0x0000efce:    9801        ..      LDR      r0,[sp,#4]
        0x0000efd0:    6979        yi      LDR      r1,[r7,#0x14]
        0x0000efd2:    b2c2        ..      UXTB     r2,r0
        0x0000efd4:    eb040082    ....    ADD      r0,r4,r2,LSL #2
        0x0000efd8:    f8c01424    ..$.    STR      r1,[r0,#0x424]
        0x0000efdc:    f7fdf932    ..2.    BL       am_hal_interrupt_master_disable ; 0xc244
        0x0000efe0:    4681        .F      MOV      r9,r0
        0x0000efe2:    2d00        .-      CMP      r5,#0
        0x0000efe4:    bf14        ..      ITE      NE
        0x0000efe6:    2101        .!      MOVNE    r1,#1
        0x0000efe8:    2100        .!      MOVEQ    r1,#0
        0x0000efea:    f8d40824    ..$.    LDR      r0,[r4,#0x824]
        0x0000efee:    f7fefc8d    ....    BL       am_hal_cmdq_post_block ; 0xd90c
        0x0000eff2:    0006        ..      MOVS     r6,r0
        0x0000eff4:    d007        ..      BEQ      0xf006 ; am_hal_mspi_control + 2090
        0x0000eff6:    4648        HF      MOV      r0,r9
        0x0000eff8:    f7fdf928    ..(.    BL       am_hal_interrupt_master_set ; 0xc24c
        0x0000effc:    f8d40824    ..$.    LDR      r0,[r4,#0x824]
        0x0000f000:    f7fefcd8    ....    BL       am_hal_cmdq_release_block ; 0xd9b4
        0x0000f004:    e04c        L.      B        0xf0a0 ; am_hal_mspi_control + 2244
        0x0000f006:    f8d4801c    ....    LDR      r8,[r4,#0x1c]
        0x0000f00a:    f1080101    ....    ADD      r1,r8,#1
        0x0000f00e:    61e1        .a      STR      r1,[r4,#0x1c]
        0x0000f010:    f8d4082c    ..,.    LDR      r0,[r4,#0x82c]
        0x0000f014:    1c41        A.      ADDS     r1,r0,#1
        0x0000f016:    f8c4182c    ..,.    STR      r1,[r4,#0x82c]
        0x0000f01a:    6938        8i      LDR      r0,[r7,#0x10]
        0x0000f01c:    b1d0        ..      CBZ      r0,0xf054 ; am_hal_mspi_control + 2168
        0x0000f01e:    2000        .       MOVS     r0,#0
        0x0000f020:    f8840829    ..).    STRB     r0,[r4,#0x829]
        0x0000f024:    f8c40858    ..X.    STR      r0,[r4,#0x858]
        0x0000f028:    4648        HF      MOV      r0,r9
        0x0000f02a:    f7fdf90f    ....    BL       am_hal_interrupt_master_set ; 0xc24c
        0x0000f02e:    f1b80f00    ....    CMP      r8,#0
        0x0000f032:    d135        5.      BNE      0xf0a0 ; am_hal_mspi_control + 2244
        0x0000f034:    e017        ..      B        0xf066 ; am_hal_mspi_control + 2186
    $d
        0x0000f036:    0000        ..      DCW    0
        0x0000f038:    50014254    TB.P    DCD    1342259796
        0x0000f03c:    00e0e0e0    ....    DCD    14737632
        0x0000f040:    0001174d    M...    DCD    71501
        0x0000f044:    500142b4    .B.P    DCD    1342259892
        0x0000f048:    500142b8    .B.P    DCD    1342259896
        0x0000f04c:    aaaaaaab    ....    DCD    2863311531
        0x0000f050:    000116e5    ....    DCD    71397
    $t
        0x0000f054:    2d00        .-      CMP      r5,#0
        0x0000f056:    bf12        ..      ITEE     NE
        0x0000f058:    2100        .!      MOVNE    r1,#0
        0x0000f05a:    f8d40858    ..X.    LDREQ    r0,[r4,#0x858]
        0x0000f05e:    1c41        A.      ADDEQ    r1,r0,#1
        0x0000f060:    f8c41858    ..X.    STR      r1,[r4,#0x858]
        0x0000f064:    e7e0        ..      B        0xf028 ; am_hal_mspi_control + 2124
        0x0000f066:    f8d40824    ..$.    LDR      r0,[r4,#0x824]
        0x0000f06a:    f7fefb2b    ..+.    BL       am_hal_cmdq_enable ; 0xd6c4
        0x0000f06e:    0006        ..      MOVS     r6,r0
        0x0000f070:    f47facba    ....    BNE      0xe9e8 ; am_hal_mspi_control + 524
        0x0000f074:    e014        ..      B        0xf0a0 ; am_hal_mspi_control + 2244
        0x0000f076:    7810        .x      LDRB     r0,[r2,#0]
        0x0000f078:    b190        ..      CBZ      r0,0xf0a0 ; am_hal_mspi_control + 2244
        0x0000f07a:    6861        ah      LDR      r1,[r4,#4]
        0x0000f07c:    0309        ..      LSLS     r1,r1,#12
        0x0000f07e:    f10143a0    ...C    ADD      r3,r1,#0x50000000
        0x0000f082:    f50333a0    ...3    ADD      r3,r3,#0x14000
        0x0000f086:    6859        Yh      LDR      r1,[r3,#4]
        0x0000f088:    f3c11101    ....    UBFX     r1,r1,#4,#2
        0x0000f08c:    1c49        I.      ADDS     r1,r1,#1
        0x0000f08e:    4281        .B      CMP      r1,r0
        0x0000f090:    d005        ..      BEQ      0xf09e ; am_hal_mspi_control + 2242
        0x0000f092:    f1a00c01    ....    SUB      r12,r0,#1
        0x0000f096:    6858        Xh      LDR      r0,[r3,#4]
        0x0000f098:    f36c1005    l...    BFI      r0,r12,#4,#2
        0x0000f09c:    6058        X`      STR      r0,[r3,#4]
        0x0000f09e:    7011        .p      STRB     r1,[r2,#0]
        0x0000f0a0:    4630        0F      MOV      r0,r6
        0x0000f0a2:    e4a1        ..      B        0xe9e8 ; am_hal_mspi_control + 524
        0x0000f0a4:    2006        .       MOVS     r0,#6
        0x0000f0a6:    e49f        ..      B        0xe9e8 ; am_hal_mspi_control + 524
    i.am_hal_mspi_device_configure
    am_hal_mspi_device_configure
        0x0000f0a8:    e92d41f0    -..A    PUSH     {r4-r8,lr}
        0x0000f0ac:    460c        .F      MOV      r4,r1
        0x0000f0ae:    6843        Ch      LDR      r3,[r0,#4]
        0x0000f0b0:    1e05        ..      SUBS     r5,r0,#0
        0x0000f0b2:    f04f0100    O...    MOV      r1,#0
        0x0000f0b6:    bf1c        ..      ITT      NE
        0x0000f0b8:    6802        .h      LDRNE    r2,[r0,#0]
        0x0000f0ba:    f0127f80    ....    TSTNE    r2,#0x1000000
        0x0000f0be:    d004        ..      BEQ      0xf0ca ; am_hal_mspi_device_configure + 34
        0x0000f0c0:    4e8e        .N      LDR      r6,[pc,#568] ; [0xf2fc] = 0xbebebe
        0x0000f0c2:    f0224c7f    "..L    BIC      r12,r2,#0xff000000
        0x0000f0c6:    45b4        .E      CMP      r12,r6
        0x0000f0c8:    d002        ..      BEQ      0xf0d0 ; am_hal_mspi_device_configure + 40
        0x0000f0ca:    2002        .       MOVS     r0,#2
        0x0000f0cc:    e8bd81f0    ....    POP      {r4-r8,pc}
        0x0000f0d0:    f0127f00    ....    TST      r2,#0x2000000
        0x0000f0d4:    bf1c        ..      ITT      NE
        0x0000f0d6:    2007        .       MOVNE    r0,#7
        0x0000f0d8:    e8bd81f0    ....    POPNE    {r4-r8,pc}
        0x0000f0dc:    7962        by      LDRB     r2,[r4,#5]
        0x0000f0de:    1f92        ..      SUBS     r2,r2,#6
        0x0000f0e0:    2a04        .*      CMP      r2,#4
        0x0000f0e2:    d201        ..      BCS      0xf0e8 ; am_hal_mspi_device_configure + 64
        0x0000f0e4:    2b01        .+      CMP      r3,#1
        0x0000f0e6:    d105        ..      BNE      0xf0f4 ; am_hal_mspi_device_configure + 76
        0x0000f0e8:    69a2        .i      LDR      r2,[r4,#0x18]
        0x0000f0ea:    f1a25280    ...R    SUB      r2,r2,#0x10000000
        0x0000f0ee:    f5b23f80    ...?    CMP      r2,#0x10000
        0x0000f0f2:    d202        ..      BCS      0xf0fa ; am_hal_mspi_device_configure + 82
        0x0000f0f4:    2005        .       MOVS     r0,#5
        0x0000f0f6:    e8bd81f0    ....    POP      {r4-r8,pc}
        0x0000f0fa:    79e2        .y      LDRB     r2,[r4,#7]
        0x0000f0fc:    b16a        j.      CBZ      r2,0xf11a ; am_hal_mspi_device_configure + 114
        0x0000f0fe:    2a01        .*      CMP      r2,#1
        0x0000f100:    bf08        ..      IT       EQ
        0x0000f102:    f44f3100    O..1    MOVEQ    r1,#0x20000
        0x0000f106:    d008        ..      BEQ      0xf11a ; am_hal_mspi_device_configure + 114
        0x0000f108:    2a02        .*      CMP      r2,#2
        0x0000f10a:    bf08        ..      IT       EQ
        0x0000f10c:    f44f3180    O..1    MOVEQ    r1,#0x10000
        0x0000f110:    d003        ..      BEQ      0xf11a ; am_hal_mspi_device_configure + 114
        0x0000f112:    2a03        .*      CMP      r2,#3
        0x0000f114:    bf08        ..      IT       EQ
        0x0000f116:    f44f3140    O.@1    MOVEQ    r1,#0x30000
        0x0000f11a:    7822        "x      LDRB     r2,[r4,#0]
        0x0000f11c:    f44f5c7c    O.|\    MOV      r12,#0x3f00
        0x0000f120:    ea0c2202    ..."    AND      r2,r12,r2,LSL #8
        0x0000f124:    4311        .C      ORRS     r1,r1,r2
        0x0000f126:    7862        bx      LDRB     r2,[r4,#1]
        0x0000f128:    f04f0c30    O.0.    MOV      r12,#0x30
        0x0000f12c:    ea0c1202    ....    AND      r2,r12,r2,LSL #4
        0x0000f130:    4311        .C      ORRS     r1,r1,r2
        0x0000f132:    78a2        .x      LDRB     r2,[r4,#2]
        0x0000f134:    f04f0c40    O.@.    MOV      r12,#0x40
        0x0000f138:    ea0c1282    ....    AND      r2,r12,r2,LSL #6
        0x0000f13c:    4311        .C      ORRS     r1,r1,r2
        0x0000f13e:    79a2        .y      LDRB     r2,[r4,#6]
        0x0000f140:    f04f7c7c    O.||    MOV      r12,#0x3f00000
        0x0000f144:    ea0c5202    ...R    AND      r2,r12,r2,LSL #20
        0x0000f148:    4311        .C      ORRS     r1,r1,r2
        0x0000f14a:    031a        ..      LSLS     r2,r3,#12
        0x0000f14c:    f10242a0    ...B    ADD      r2,r2,#0x50000000
        0x0000f150:    f50232a0    ...2    ADD      r2,r2,#0x14000
        0x0000f154:    6051        Q`      STR      r1,[r2,#4]
        0x0000f156:    f894c008    ....    LDRB     r12,[r4,#8]
        0x0000f15a:    f8d21100    ....    LDR      r1,[r2,#0x100]
        0x0000f15e:    f36c210d    l..!    BFI      r1,r12,#8,#6
        0x0000f162:    f8c21100    ....    STR      r1,[r2,#0x100]
        0x0000f166:    7a21        !z      LDRB     r1,[r4,#8]
        0x0000f168:    2600        .&      MOVS     r6,#0
        0x0000f16a:    2901        .)      CMP      r1,#1
        0x0000f16c:    f8d21100    ....    LDR      r1,[r2,#0x100]
        0x0000f170:    d07e        ~.      BEQ      0xf270 ; am_hal_mspi_device_configure + 456
        0x0000f172:    f0210108    !...    BIC      r1,r1,#8
        0x0000f176:    f8c21100    ....    STR      r1,[r2,#0x100]
        0x0000f17a:    f8d21100    ....    LDR      r1,[r2,#0x100]
        0x0000f17e:    f0210104    !...    BIC      r1,r1,#4
        0x0000f182:    f8c21100    ....    STR      r1,[r2,#0x100]
        0x0000f186:    f8d21100    ....    LDR      r1,[r2,#0x100]
        0x0000f18a:    f0410102    A...    ORR      r1,r1,#2
        0x0000f18e:    f8c21100    ....    STR      r1,[r2,#0x100]
        0x0000f192:    f8c26104    ...a    STR      r6,[r2,#0x104]
        0x0000f196:    bf00        ..      NOP      
        0x0000f198:    f8d21100    ....    LDR      r1,[r2,#0x100]
        0x0000f19c:    f0210101    !...    BIC      r1,r1,#1
        0x0000f1a0:    f8c21100    ....    STR      r1,[r2,#0x100]
        0x0000f1a4:    f894c00b    ....    LDRB     r12,[r4,#0xb]
        0x0000f1a8:    2100        .!      MOVS     r1,#0
        0x0000f1aa:    f1bc0f00    ....    CMP      r12,#0
        0x0000f1ae:    bf18        ..      IT       NE
        0x0000f1b0:    2180        .!      MOVNE    r1,#0x80
        0x0000f1b2:    f894c00a    ....    LDRB     r12,[r4,#0xa]
        0x0000f1b6:    f1bc0f00    ....    CMP      r12,#0
        0x0000f1ba:    bf18        ..      IT       NE
        0x0000f1bc:    f0410140    A.@.    ORRNE    r1,r1,#0x40
        0x0000f1c0:    f894c00c    ....    LDRB     r12,[r4,#0xc]
        0x0000f1c4:    f1bc0f00    ....    CMP      r12,#0
        0x0000f1c8:    bf18        ..      IT       NE
        0x0000f1ca:    f0410120    A. .    ORRNE    r1,r1,#0x20
        0x0000f1ce:    f895c00a    ....    LDRB     r12,[r5,#0xa]
        0x0000f1d2:    2710        .'      MOVS     r7,#0x10
        0x0000f1d4:    ea071c0c    ....    AND      r12,r7,r12,LSL #4
        0x0000f1d8:    ea4c0101    L...    ORR      r1,r12,r1
        0x0000f1dc:    f894c009    ....    LDRB     r12,[r4,#9]
        0x0000f1e0:    01ff        ..      LSLS     r7,r7,#7
        0x0000f1e2:    f041010c    A...    ORR      r1,r1,#0xc
        0x0000f1e6:    ea072ccc    ...,    AND      r12,r7,r12,LSL #11
        0x0000f1ea:    ea4c0101    L...    ORR      r1,r12,r1
        0x0000f1ee:    f8c21120    .. .    STR      r1,[r2,#0x120]
        0x0000f1f2:    78e1        .x      LDRB     r1,[r4,#3]
        0x0000f1f4:    f894c004    ....    LDRB     r12,[r4,#4]
        0x0000f1f8:    ea4c4101    L..A    ORR      r1,r12,r1,LSL #16
        0x0000f1fc:    f8c21124    ..$.    STR      r1,[r2,#0x124]
        0x0000f200:    7c21        !|      LDRB     r1,[r4,#0x10]
        0x0000f202:    f44f4c70    O.pL    MOV      r12,#0xf000
        0x0000f206:    ea0c3101    ...1    AND      r1,r12,r1,LSL #12
        0x0000f20a:    f8b4c00e    ....    LDRH     r12,[r4,#0xe]
        0x0000f20e:    f3cc0c0b    ....    UBFX     r12,r12,#0,#12
        0x0000f212:    ea4c0101    L...    ORR      r1,r12,r1
        0x0000f216:    f8c2126c    ..l.    STR      r1,[r2,#0x26c]
        0x0000f21a:    f2402127    @.'!    MOV      r1,#0x227
        0x0000f21e:    434b        KC      MULS     r3,r1,r3
        0x0000f220:    4937        7I      LDR      r1,[pc,#220] ; [0xf300] = 0x10015b50
        0x0000f222:    f8d4c018    ....    LDR      r12,[r4,#0x18]
        0x0000f226:    eb010183    ....    ADD      r1,r1,r3,LSL #2
        0x0000f22a:    f8c1c014    ....    STR      r12,[r1,#0x14]
        0x0000f22e:    6963        ci      LDR      r3,[r4,#0x14]
        0x0000f230:    610b        .a      STR      r3,[r1,#0x10]
        0x0000f232:    69a3        .i      LDR      r3,[r4,#0x18]
        0x0000f234:    b33b        ;.      CBZ      r3,0xf286 ; am_hal_mspi_device_configure + 478
        0x0000f236:    2320         #      MOVS     r3,#0x20
        0x0000f238:    f8c23264    ..d2    STR      r3,[r2,#0x264]
        0x0000f23c:    7a23        #z      LDRB     r3,[r4,#8]
        0x0000f23e:    2b01        .+      CMP      r3,#1
        0x0000f240:    f8d23268    ..h2    LDR      r3,[r2,#0x268]
        0x0000f244:    f023031f    #...    BIC      r3,r3,#0x1f
        0x0000f248:    d04e        N.      BEQ      0xf2e8 ; am_hal_mspi_device_configure + 576
        0x0000f24a:    3308        .3      ADDS     r3,r3,#8
        0x0000f24c:    f8c23268    ..h2    STR      r3,[r2,#0x268]
        0x0000f250:    f8d23268    ..h2    LDR      r3,[r2,#0x268]
        0x0000f254:    f42353f8    #..S    BIC      r3,r3,#0x1f00
        0x0000f258:    f5036300    ...c    ADD      r3,r3,#0x800
        0x0000f25c:    f8c23268    ..h2    STR      r3,[r2,#0x268]
        0x0000f260:    6963        ci      LDR      r3,[r4,#0x14]
        0x0000f262:    f8dfc0a0    ....    LDR      r12,[pc,#160] ; [0xf304] = 0xba2e8ba3
        0x0000f266:    009b        ..      LSLS     r3,r3,#2
        0x0000f268:    3b20         ;      SUBS     r3,r3,#0x20
        0x0000f26a:    fbacc303    ....    UMULL    r12,r3,r12,r3
        0x0000f26e:    e000        ..      B        0xf272 ; am_hal_mspi_device_configure + 458
        0x0000f270:    e027        '.      B        0xf2c2 ; am_hal_mspi_device_configure + 538
        0x0000f272:    099b        ..      LSRS     r3,r3,#6
        0x0000f274:    f8c13854    ..T8    STR      r3,[r1,#0x854]
        0x0000f278:    f5b37f80    ....    CMP      r3,#0x100
        0x0000f27c:    bf88        ..      IT       HI
        0x0000f27e:    f44f7380    O..s    MOVHI    r3,#0x100
        0x0000f282:    f8c13854    ..T8    STR      r3,[r1,#0x854]
        0x0000f286:    69e1        .i      LDR      r1,[r4,#0x1c]
        0x0000f288:    f8dfc07c    ..|.    LDR      r12,[pc,#124] ; [0xf308] = 0x3ff0000
        0x0000f28c:    6a23        #j      LDR      r3,[r4,#0x20]
        0x0000f28e:    f3c14109    ...A    UBFX     r1,r1,#16,#10
        0x0000f292:    ea03030c    ....    AND      r3,r3,r12
        0x0000f296:    4319        .C      ORRS     r1,r1,r3
        0x0000f298:    f8c21128    ..(.    STR      r1,[r2,#0x128]
        0x0000f29c:    f8d21100    ....    LDR      r1,[r2,#0x100]
        0x0000f2a0:    f02101f0    !...    BIC      r1,r1,#0xf0
        0x0000f2a4:    3170        p1      ADDS     r1,r1,#0x70
        0x0000f2a6:    f8c21100    ....    STR      r1,[r2,#0x100]
        0x0000f2aa:    7961        ay      LDRB     r1,[r4,#5]
        0x0000f2ac:    f002f812    ....    BL       mspi_device_configure ; 0x112d4
        0x0000f2b0:    72ae        .r      STRB     r6,[r5,#0xa]
        0x0000f2b2:    7a20         z      LDRB     r0,[r4,#8]
        0x0000f2b4:    7268        hr      STRB     r0,[r5,#9]
        0x0000f2b6:    f2427010    B..p    MOV      r0,#0x2710
        0x0000f2ba:    60e8        .`      STR      r0,[r5,#0xc]
        0x0000f2bc:    2000        .       MOVS     r0,#0
        0x0000f2be:    e8bd81f0    ....    POP      {r4-r8,pc}
        0x0000f2c2:    f0410108    A...    ORR      r1,r1,#8
        0x0000f2c6:    f8c21100    ....    STR      r1,[r2,#0x100]
        0x0000f2ca:    f8d21100    ....    LDR      r1,[r2,#0x100]
        0x0000f2ce:    f0210104    !...    BIC      r1,r1,#4
        0x0000f2d2:    f8c21100    ....    STR      r1,[r2,#0x100]
        0x0000f2d6:    f8d21100    ....    LDR      r1,[r2,#0x100]
        0x0000f2da:    f0410102    A...    ORR      r1,r1,#2
        0x0000f2de:    f8c21100    ....    STR      r1,[r2,#0x100]
        0x0000f2e2:    f8c26104    ...a    STR      r6,[r2,#0x104]
        0x0000f2e6:    e757        W.      B        0xf198 ; am_hal_mspi_device_configure + 240
        0x0000f2e8:    330c        .3      ADDS     r3,r3,#0xc
        0x0000f2ea:    f8c23268    ..h2    STR      r3,[r2,#0x268]
        0x0000f2ee:    f8d23268    ..h2    LDR      r3,[r2,#0x268]
        0x0000f2f2:    f42353f8    #..S    BIC      r3,r3,#0x1f00
        0x0000f2f6:    f5036380    ...c    ADD      r3,r3,#0x400
        0x0000f2fa:    e7af        ..      B        0xf25c ; am_hal_mspi_device_configure + 436
    $d
        0x0000f2fc:    00bebebe    ....    DCD    12500670
        0x0000f300:    10015b50    P[..    DCD    268524368
        0x0000f304:    ba2e8ba3    ....    DCD    3123612579
        0x0000f308:    03ff0000    ....    DCD    67043328
    $t
    i.am_hal_mspi_disable
    am_hal_mspi_disable
        0x0000f30c:    b570        p.      PUSH     {r4-r6,lr}
        0x0000f30e:    0004        ..      MOVS     r4,r0
        0x0000f310:    bf1c        ..      ITT      NE
        0x0000f312:    6820         h      LDRNE    r0,[r4,#0]
        0x0000f314:    f0107f80    ....    TSTNE    r0,#0x1000000
        0x0000f318:    d004        ..      BEQ      0xf324 ; am_hal_mspi_disable + 24
        0x0000f31a:    4a15        .J      LDR      r2,[pc,#84] ; [0xf370] = 0xbebebe
        0x0000f31c:    f020417f     ..A    BIC      r1,r0,#0xff000000
        0x0000f320:    4291        .B      CMP      r1,r2
        0x0000f322:    d001        ..      BEQ      0xf328 ; am_hal_mspi_disable + 28
        0x0000f324:    2002        .       MOVS     r0,#2
        0x0000f326:    bd70        p.      POP      {r4-r6,pc}
        0x0000f328:    f0107000    ...p    ANDS     r0,r0,#0x2000000
        0x0000f32c:    bf08        ..      IT       EQ
        0x0000f32e:    bd70        p.      POPEQ    {r4-r6,pc}
        0x0000f330:    6960        `i      LDR      r0,[r4,#0x14]
        0x0000f332:    b1b0        ..      CBZ      r0,0xf362 ; am_hal_mspi_disable + 86
        0x0000f334:    f8d40824    ..$.    LDR      r0,[r4,#0x824]
        0x0000f338:    f7fef9a4    ....    BL       am_hal_cmdq_disable ; 0xd684
        0x0000f33c:    2800        .(      CMP      r0,#0
        0x0000f33e:    bf18        ..      IT       NE
        0x0000f340:    bd70        p.      POPNE    {r4-r6,pc}
        0x0000f342:    f2402127    @.'!    MOV      r1,#0x227
        0x0000f346:    6860        `h      LDR      r0,[r4,#4]
        0x0000f348:    4341        AC      MULS     r1,r0,r1
        0x0000f34a:    480a        .H      LDR      r0,[pc,#40] ; [0xf374] = 0x10015b50
        0x0000f34c:    eb000581    ....    ADD      r5,r0,r1,LSL #2
        0x0000f350:    f8d50824    ..$.    LDR      r0,[r5,#0x824]
        0x0000f354:    b128        (.      CBZ      r0,0xf362 ; am_hal_mspi_disable + 86
        0x0000f356:    2101        .!      MOVS     r1,#1
        0x0000f358:    f7fefb7a    ..z.    BL       am_hal_cmdq_term ; 0xda50
        0x0000f35c:    2000        .       MOVS     r0,#0
        0x0000f35e:    f8c50824    ..$.    STR      r0,[r5,#0x824]
        0x0000f362:    6820         h      LDR      r0,[r4,#0]
        0x0000f364:    f0207000     ..p    BIC      r0,r0,#0x2000000
        0x0000f368:    6020         `      STR      r0,[r4,#0]
        0x0000f36a:    2000        .       MOVS     r0,#0
        0x0000f36c:    bd70        p.      POP      {r4-r6,pc}
    $d
        0x0000f36e:    0000        ..      DCW    0
        0x0000f370:    00bebebe    ....    DCD    12500670
        0x0000f374:    10015b50    P[..    DCD    268524368
    $t
    i.am_hal_mspi_enable
    am_hal_mspi_enable
        0x0000f378:    b570        p.      PUSH     {r4-r6,lr}
        0x0000f37a:    b084        ..      SUB      sp,sp,#0x10
        0x0000f37c:    1e04        ..      SUBS     r4,r0,#0
        0x0000f37e:    bf1c        ..      ITT      NE
        0x0000f380:    6820         h      LDRNE    r0,[r4,#0]
        0x0000f382:    f0107f80    ....    TSTNE    r0,#0x1000000
        0x0000f386:    d004        ..      BEQ      0xf392 ; am_hal_mspi_enable + 26
        0x0000f388:    4922        "I      LDR      r1,[pc,#136] ; [0xf414] = 0xbebebe
        0x0000f38a:    f020407f     ..@    BIC      r0,r0,#0xff000000
        0x0000f38e:    4288        .B      CMP      r0,r1
        0x0000f390:    d002        ..      BEQ      0xf398 ; am_hal_mspi_enable + 32
        0x0000f392:    b004        ..      ADD      sp,sp,#0x10
        0x0000f394:    2002        .       MOVS     r0,#2
        0x0000f396:    bd70        p.      POP      {r4-r6,pc}
        0x0000f398:    6960        `i      LDR      r0,[r4,#0x14]
        0x0000f39a:    b398        ..      CBZ      r0,0xf404 ; am_hal_mspi_enable + 140
        0x0000f39c:    2500        .%      MOVS     r5,#0
        0x0000f39e:    61a5        .a      STR      r5,[r4,#0x18]
        0x0000f3a0:    61e5        .a      STR      r5,[r4,#0x1c]
        0x0000f3a2:    e9d41204    ....    LDRD     r1,r2,[r4,#0x10]
        0x0000f3a6:    6860        `h      LDR      r0,[r4,#4]
        0x0000f3a8:    0849        I.      LSRS     r1,r1,#1
        0x0000f3aa:    e9cd1200    ....    STRD     r1,r2,[sp,#0]
        0x0000f3ae:    f2402127    @.'!    MOV      r1,#0x227
        0x0000f3b2:    4341        AC      MULS     r1,r0,r1
        0x0000f3b4:    4a18        .J      LDR      r2,[pc,#96] ; [0xf418] = 0x10015b50
        0x0000f3b6:    2601        .&      MOVS     r6,#1
        0x0000f3b8:    eb020181    ....    ADD      r1,r2,r1,LSL #2
        0x0000f3bc:    f6010224    ..$.    ADD      r2,r1,#0x824
        0x0000f3c0:    1d80        ..      ADDS     r0,r0,#6
        0x0000f3c2:    f88d6008    ...`    STRB     r6,[sp,#8]
        0x0000f3c6:    b2c0        ..      UXTB     r0,r0
        0x0000f3c8:    4669        iF      MOV      r1,sp
        0x0000f3ca:    f7fefa27    ..'.    BL       am_hal_cmdq_init ; 0xd81c
        0x0000f3ce:    6861        ah      LDR      r1,[r4,#4]
        0x0000f3d0:    4812        .H      LDR      r0,[pc,#72] ; [0xf41c] = 0x400080
        0x0000f3d2:    0309        ..      LSLS     r1,r1,#12
        0x0000f3d4:    f10141a0    ...A    ADD      r1,r1,#0x50000000
        0x0000f3d8:    f50131a0    ...1    ADD      r1,r1,#0x14000
        0x0000f3dc:    f8c102b4    ....    STR      r0,[r1,#0x2b4]
        0x0000f3e0:    f8c45850    ..PX    STR      r5,[r4,#0x850]
        0x0000f3e4:    f8845838    ..8X    STRB     r5,[r4,#0x838]
        0x0000f3e8:    f8c45840    ..@X    STR      r5,[r4,#0x840]
        0x0000f3ec:    f8c45834    ..4X    STR      r5,[r4,#0x834]
        0x0000f3f0:    f8c4583c    ..<X    STR      r5,[r4,#0x83c]
        0x0000f3f4:    f8845828    ..(X    STRB     r5,[r4,#0x828]
        0x0000f3f8:    f8c4582c    ..,X    STR      r5,[r4,#0x82c]
        0x0000f3fc:    f8846829    ..)h    STRB     r6,[r4,#0x829]
        0x0000f400:    f8c45858    ..XX    STR      r5,[r4,#0x858]
        0x0000f404:    6820         h      LDR      r0,[r4,#0]
        0x0000f406:    f0407000    @..p    ORR      r0,r0,#0x2000000
        0x0000f40a:    6020         `      STR      r0,[r4,#0]
        0x0000f40c:    b004        ..      ADD      sp,sp,#0x10
        0x0000f40e:    2000        .       MOVS     r0,#0
        0x0000f410:    bd70        p.      POP      {r4-r6,pc}
    $d
        0x0000f412:    0000        ..      DCW    0
        0x0000f414:    00bebebe    ....    DCD    12500670
        0x0000f418:    10015b50    P[..    DCD    268524368
        0x0000f41c:    00400080    ..@.    DCD    4194432
    $t
    i.am_hal_mspi_highprio_transfer
    am_hal_mspi_highprio_transfer
        0x0000f420:    e92d41f0    -..A    PUSH     {r4-r8,lr}
        0x0000f424:    2400        .$      MOVS     r4,#0
        0x0000f426:    9d06        ..      LDR      r5,[sp,#0x18]
        0x0000f428:    2800        .(      CMP      r0,#0
        0x0000f42a:    bf1c        ..      ITT      NE
        0x0000f42c:    f8d0c000    ....    LDRNE    r12,[r0,#0]
        0x0000f430:    f01c7f80    ....    TSTNE    r12,#0x1000000
        0x0000f434:    d004        ..      BEQ      0xf440 ; am_hal_mspi_highprio_transfer + 32
        0x0000f436:    4e33        3N      LDR      r6,[pc,#204] ; [0xf504] = 0xbebebe
        0x0000f438:    f02c4c7f    ,..L    BIC      r12,r12,#0xff000000
        0x0000f43c:    45b4        .E      CMP      r12,r6
        0x0000f43e:    d002        ..      BEQ      0xf446 ; am_hal_mspi_highprio_transfer + 38
        0x0000f440:    2002        .       MOVS     r0,#2
        0x0000f442:    e8bd81f0    ....    POP      {r4-r8,pc}
        0x0000f446:    f8d0c014    ....    LDR      r12,[r0,#0x14]
        0x0000f44a:    f1bc0f00    ....    CMP      r12,#0
        0x0000f44e:    bf19        ..      ITTEE    NE
        0x0000f450:    f8d0c850    ..P.    LDRNE    r12,[r0,#0x850]
        0x0000f454:    f1bc0f00    ....    CMPNE    r12,#0
        0x0000f458:    2007        .       MOVEQ    r0,#7
        0x0000f45a:    e8bd81f0    ....    POPEQ    {r4-r8,pc}
        0x0000f45e:    690e        .i      LDR      r6,[r1,#0x10]
        0x0000f460:    2e00        ..      CMP      r6,#0
        0x0000f462:    bf07        ..      ITTEE    EQ
        0x0000f464:    694e        Ni      LDREQ    r6,[r1,#0x14]
        0x0000f466:    2e00        ..      CMPEQ    r6,#0
        0x0000f468:    2006        .       MOVNE    r0,#6
        0x0000f46a:    e8bd81f0    ....    POPNE    {r4-r8,pc}
        0x0000f46e:    2a01        .*      CMP      r2,#1
        0x0000f470:    d108        ..      BNE      0xf484 ; am_hal_mspi_highprio_transfer + 100
        0x0000f472:    68ca        .h      LDR      r2,[r1,#0xc]
        0x0000f474:    f1a25280    ...R    SUB      r2,r2,#0x10000000
        0x0000f478:    f5b23f80    ...?    CMP      r2,#0x10000
        0x0000f47c:    bf3c        <.      ITT      CC
        0x0000f47e:    2005        .       MOVCC    r0,#5
        0x0000f480:    e8bd81f0    ....    POPCC    {r4-r8,pc}
        0x0000f484:    4602        .F      MOV      r2,r0
        0x0000f486:    f8d07844    ..Dx    LDR      r7,[r0,#0x844]
        0x0000f48a:    f8d06848    ..Hh    LDR      r6,[r0,#0x848]
        0x0000f48e:    fbb6f8f7    ....    UDIV     r8,r6,r7
        0x0000f492:    fb076618    ...f    MLS      r6,r7,r8,r6
        0x0000f496:    f8d0883c    ..<.    LDR      r8,[r0,#0x83c]
        0x0000f49a:    45b8        .E      CMP      r8,r7
        0x0000f49c:    bf08        ..      IT       EQ
        0x0000f49e:    2405        .$      MOVEQ    r4,#5
        0x0000f4a0:    d028        (.      BEQ      0xf4f4 ; am_hal_mspi_highprio_transfer + 212
        0x0000f4a2:    eb060646    ..F.    ADD      r6,r6,r6,LSL #1
        0x0000f4a6:    eb0c0cc6    ....    ADD      r12,r12,r6,LSL #3
        0x0000f4aa:    68ce        .h      LDR      r6,[r1,#0xc]
        0x0000f4ac:    f8cc6000    ...`    STR      r6,[r12,#0]
        0x0000f4b0:    688e        .h      LDR      r6,[r1,#8]
        0x0000f4b2:    f8cc6004    ...`    STR      r6,[r12,#4]
        0x0000f4b6:    684e        Nh      LDR      r6,[r1,#4]
        0x0000f4b8:    f8cc6008    ...`    STR      r6,[r12,#8]
        0x0000f4bc:    780e        .x      LDRB     r6,[r1,#0]
        0x0000f4be:    2718        .'      MOVS     r7,#0x18
        0x0000f4c0:    ea0706c6    ....    AND      r6,r7,r6,LSL #3
        0x0000f4c4:    7849        Ix      LDRB     r1,[r1,#1]
        0x0000f4c6:    2704        .'      MOVS     r7,#4
        0x0000f4c8:    ea070181    ....    AND      r1,r7,r1,LSL #2
        0x0000f4cc:    4331        1C      ORRS     r1,r1,r6
        0x0000f4ce:    f0410103    A...    ORR      r1,r1,#3
        0x0000f4d2:    f8cc5014    ...P    STR      r5,[r12,#0x14]
        0x0000f4d6:    e9cc1303    ....    STRD     r1,r3,[r12,#0xc]
        0x0000f4da:    f8d21848    ..H.    LDR      r1,[r2,#0x848]
        0x0000f4de:    1c49        I.      ADDS     r1,r1,#1
        0x0000f4e0:    f8c01848    ..H.    STR      r1,[r0,#0x848]
        0x0000f4e4:    f8d01834    ..4.    LDR      r1,[r0,#0x834]
        0x0000f4e8:    b139        9.      CBZ      r1,0xf4fa ; am_hal_mspi_highprio_transfer + 218
        0x0000f4ea:    f8d01840    ..@.    LDR      r1,[r0,#0x840]
        0x0000f4ee:    1c49        I.      ADDS     r1,r1,#1
        0x0000f4f0:    f8c21840    ..@.    STR      r1,[r2,#0x840]
        0x0000f4f4:    4620         F      MOV      r0,r4
        0x0000f4f6:    e8bd81f0    ....    POP      {r4-r8,pc}
        0x0000f4fa:    2101        .!      MOVS     r1,#1
        0x0000f4fc:    f002face    ....    BL       sched_hiprio ; 0x11a9c
        0x0000f500:    4604        .F      MOV      r4,r0
        0x0000f502:    e7f7        ..      B        0xf4f4 ; am_hal_mspi_highprio_transfer + 212
    $d
        0x0000f504:    00bebebe    ....    DCD    12500670
    $t
    i.am_hal_mspi_initialize
    am_hal_mspi_initialize
        0x0000f508:    2803        .(      CMP      r0,#3
        0x0000f50a:    bf24        $.      ITT      CS
        0x0000f50c:    2005        .       MOVCS    r0,#5
        0x0000f50e:    4770        pG      BXCS     lr
        0x0000f510:    2900        .)      CMP      r1,#0
        0x0000f512:    bf04        ..      ITT      EQ
        0x0000f514:    2006        .       MOVEQ    r0,#6
        0x0000f516:    4770        pG      BXEQ     lr
        0x0000f518:    b410        ..      PUSH     {r4}
        0x0000f51a:    f2402227    @.'"    MOV      r2,#0x227
        0x0000f51e:    fb00f302    ....    MUL      r3,r0,r2
        0x0000f522:    4a0b        .J      LDR      r2,[pc,#44] ; [0xf550] = 0x10015b50
        0x0000f524:    f852c023    R.#.    LDR      r12,[r2,r3,LSL #2]
        0x0000f528:    f01c7f80    ....    TST      r12,#0x1000000
        0x0000f52c:    bf1e        ..      ITTT     NE
        0x0000f52e:    2007        .       MOVNE    r0,#7
        0x0000f530:    bc10        ..      POPNE    {r4}
        0x0000f532:    4770        pG      BXNE     lr
        0x0000f534:    f04c7c80    L..|    ORR      r12,r12,#0x1000000
        0x0000f538:    4c06        .L      LDR      r4,[pc,#24] ; [0xf554] = 0xbebebe
        0x0000f53a:    f3640c17    d...    BFI      r12,r4,#0,#24
        0x0000f53e:    f842c023    B.#.    STR      r12,[r2,r3,LSL #2]
        0x0000f542:    eb020283    ....    ADD      r2,r2,r3,LSL #2
        0x0000f546:    6050        P`      STR      r0,[r2,#4]
        0x0000f548:    600a        .`      STR      r2,[r1,#0]
        0x0000f54a:    bc10        ..      POP      {r4}
        0x0000f54c:    2000        .       MOVS     r0,#0
        0x0000f54e:    4770        pG      BX       lr
    $d
        0x0000f550:    10015b50    P[..    DCD    268524368
        0x0000f554:    00bebebe    ....    DCD    12500670
    $t
    i.am_hal_mspi_interrupt_clear
    am_hal_mspi_interrupt_clear
        0x0000f558:    2800        .(      CMP      r0,#0
        0x0000f55a:    bf1c        ..      ITT      NE
        0x0000f55c:    6802        .h      LDRNE    r2,[r0,#0]
        0x0000f55e:    f0127f80    ....    TSTNE    r2,#0x1000000
        0x0000f562:    d004        ..      BEQ      0xf56e ; am_hal_mspi_interrupt_clear + 22
        0x0000f564:    4b08        .K      LDR      r3,[pc,#32] ; [0xf588] = 0xbebebe
        0x0000f566:    f022427f    "..B    BIC      r2,r2,#0xff000000
        0x0000f56a:    429a        .B      CMP      r2,r3
        0x0000f56c:    d001        ..      BEQ      0xf572 ; am_hal_mspi_interrupt_clear + 26
        0x0000f56e:    2002        .       MOVS     r0,#2
        0x0000f570:    4770        pG      BX       lr
        0x0000f572:    6840        @h      LDR      r0,[r0,#4]
        0x0000f574:    0300        ..      LSLS     r0,r0,#12
        0x0000f576:    f10040a0    ...@    ADD      r0,r0,#0x50000000
        0x0000f57a:    f50030a0    ...0    ADD      r0,r0,#0x14000
        0x0000f57e:    f8c01208    ....    STR      r1,[r0,#0x208]
        0x0000f582:    2000        .       MOVS     r0,#0
        0x0000f584:    4770        pG      BX       lr
    $d
        0x0000f586:    0000        ..      DCW    0
        0x0000f588:    00bebebe    ....    DCD    12500670
    $t
    i.am_hal_mspi_interrupt_enable
    am_hal_mspi_interrupt_enable
        0x0000f58c:    2800        .(      CMP      r0,#0
        0x0000f58e:    bf1c        ..      ITT      NE
        0x0000f590:    6802        .h      LDRNE    r2,[r0,#0]
        0x0000f592:    f0127f80    ....    TSTNE    r2,#0x1000000
        0x0000f596:    d004        ..      BEQ      0xf5a2 ; am_hal_mspi_interrupt_enable + 22
        0x0000f598:    4b09        .K      LDR      r3,[pc,#36] ; [0xf5c0] = 0xbebebe
        0x0000f59a:    f022427f    "..B    BIC      r2,r2,#0xff000000
        0x0000f59e:    429a        .B      CMP      r2,r3
        0x0000f5a0:    d001        ..      BEQ      0xf5a6 ; am_hal_mspi_interrupt_enable + 26
        0x0000f5a2:    2002        .       MOVS     r0,#2
        0x0000f5a4:    4770        pG      BX       lr
        0x0000f5a6:    6840        @h      LDR      r0,[r0,#4]
        0x0000f5a8:    0300        ..      LSLS     r0,r0,#12
        0x0000f5aa:    f10040a0    ...@    ADD      r0,r0,#0x50000000
        0x0000f5ae:    f50030a0    ...0    ADD      r0,r0,#0x14000
        0x0000f5b2:    f8d02200    ..."    LDR      r2,[r0,#0x200]
        0x0000f5b6:    4311        .C      ORRS     r1,r1,r2
        0x0000f5b8:    f8c01200    ....    STR      r1,[r0,#0x200]
        0x0000f5bc:    2000        .       MOVS     r0,#0
        0x0000f5be:    4770        pG      BX       lr
    $d
        0x0000f5c0:    00bebebe    ....    DCD    12500670
    $t
    i.am_hal_mspi_interrupt_service
    am_hal_mspi_interrupt_service
        0x0000f5c4:    e92d43f0    -..C    PUSH     {r4-r9,lr}
        0x0000f5c8:    b085        ..      SUB      sp,sp,#0x14
        0x0000f5ca:    4689        .F      MOV      r9,r1
        0x0000f5cc:    1e04        ..      SUBS     r4,r0,#0
        0x0000f5ce:    bf1c        ..      ITT      NE
        0x0000f5d0:    6820         h      LDRNE    r0,[r4,#0]
        0x0000f5d2:    f0107f80    ....    TSTNE    r0,#0x1000000
        0x0000f5d6:    d004        ..      BEQ      0xf5e2 ; am_hal_mspi_interrupt_service + 30
        0x0000f5d8:    499f        .I      LDR      r1,[pc,#636] ; [0xf858] = 0xbebebe
        0x0000f5da:    f020407f     ..@    BIC      r0,r0,#0xff000000
        0x0000f5de:    4288        .B      CMP      r0,r1
        0x0000f5e0:    d003        ..      BEQ      0xf5ea ; am_hal_mspi_interrupt_service + 38
        0x0000f5e2:    b005        ..      ADD      sp,sp,#0x14
        0x0000f5e4:    2002        .       MOVS     r0,#2
        0x0000f5e6:    e8bd83f0    ....    POP      {r4-r9,pc}
        0x0000f5ea:    f8940838    ..8.    LDRB     r0,[r4,#0x838]
        0x0000f5ee:    6865        eh      LDR      r5,[r4,#4]
        0x0000f5f0:    2600        .&      MOVS     r6,#0
        0x0000f5f2:    2800        .(      CMP      r0,#0
        0x0000f5f4:    d078        x.      BEQ      0xf6e8 ; am_hal_mspi_interrupt_service + 292
        0x0000f5f6:    6a20         j      LDR      r0,[r4,#0x20]
        0x0000f5f8:    ea400009    @...    ORR      r0,r0,r9
        0x0000f5fc:    f4105fc6    ..._    TST      r0,#0x18c0
        0x0000f600:    6220         b      STR      r0,[r4,#0x20]
        0x0000f602:    f0008124    ..$.    BEQ.W    0xf84e ; am_hal_mspi_interrupt_service + 650
        0x0000f606:    0329        ).      LSLS     r1,r5,#12
        0x0000f608:    f10141a0    ...A    ADD      r1,r1,#0x50000000
        0x0000f60c:    f50131a0    ...1    ADD      r1,r1,#0x14000
        0x0000f610:    f8d12254    ..T"    LDR      r2,[r1,#0x254]
        0x0000f614:    f0120f01    ....    TST      r2,#1
        0x0000f618:    d1fa        ..      BNE      0xf610 ; am_hal_mspi_interrupt_service + 76
        0x0000f61a:    0329        ).      LSLS     r1,r5,#12
        0x0000f61c:    f10145a0    ...E    ADD      r5,r1,#0x50000000
        0x0000f620:    f50535a0    ...5    ADD      r5,r5,#0x14000
        0x0000f624:    f8d51204    ....    LDR      r1,[r5,#0x204]
        0x0000f628:    4308        .C      ORRS     r0,r0,r1
        0x0000f62a:    6220         b      STR      r0,[r4,#0x20]
        0x0000f62c:    f04f30ff    O..0    MOV      r0,#0xffffffff
        0x0000f630:    f8c50208    ....    STR      r0,[r5,#0x208]
        0x0000f634:    8c20         .      LDRH     r0,[r4,#0x20]
        0x0000f636:    f4105fc4    ..._    TST      r0,#0x1880
        0x0000f63a:    bf08        ..      IT       EQ
        0x0000f63c:    2100        .!      MOVEQ    r1,#0
        0x0000f63e:    d012        ..      BEQ      0xf666 ; am_hal_mspi_interrupt_service + 162
        0x0000f640:    f8d50250    ..P.    LDR      r0,[r5,#0x250]
        0x0000f644:    2101        .!      MOVS     r1,#1
        0x0000f646:    f0200003     ...    BIC      r0,r0,#3
        0x0000f64a:    f8c50250    ..P.    STR      r0,[r5,#0x250]
        0x0000f64e:    f8d50100    ....    LDR      r0,[r5,#0x100]
        0x0000f652:    f0204080     ..@    BIC      r0,r0,#0x40000000
        0x0000f656:    f8c50100    ....    STR      r0,[r5,#0x100]
        0x0000f65a:    f8d50100    ....    LDR      r0,[r5,#0x100]
        0x0000f65e:    f0404080    @..@    ORR      r0,r0,#0x40000000
        0x0000f662:    f8c50100    ....    STR      r0,[r5,#0x100]
        0x0000f666:    f8d4084c    ..L.    LDR      r0,[r4,#0x84c]
        0x0000f66a:    1c40        @.      ADDS     r0,r0,#1
        0x0000f66c:    f8c4084c    ..L.    STR      r0,[r4,#0x84c]
        0x0000f670:    f8d4283c    ..<(    LDR      r2,[r4,#0x83c]
        0x0000f674:    1e52        R.      SUBS     r2,r2,#1
        0x0000f676:    f8c4283c    ..<(    STR      r2,[r4,#0x83c]
        0x0000f67a:    f8d42844    ..D(    LDR      r2,[r4,#0x844]
        0x0000f67e:    fbb0f3f2    ....    UDIV     r3,r0,r2
        0x0000f682:    fb020013    ....    MLS      r0,r2,r3,r0
        0x0000f686:    f8d42850    ..P(    LDR      r2,[r4,#0x850]
        0x0000f68a:    eb000040    ..@.    ADD      r0,r0,r0,LSL #1
        0x0000f68e:    eb0207c0    ....    ADD      r7,r2,r0,LSL #3
        0x0000f692:    693a        :i      LDR      r2,[r7,#0x10]
        0x0000f694:    b112        ..      CBZ      r2,0xf69c ; am_hal_mspi_interrupt_service + 216
        0x0000f696:    6978        xi      LDR      r0,[r7,#0x14]
        0x0000f698:    4790        .G      BLX      r2
        0x0000f69a:    613e        >a      STR      r6,[r7,#0x10]
        0x0000f69c:    f8d4083c    ..<.    LDR      r0,[r4,#0x83c]
        0x0000f6a0:    b318        ..      CBZ      r0,0xf6ea ; am_hal_mspi_interrupt_service + 294
        0x0000f6a2:    6226        &b      STR      r6,[r4,#0x20]
        0x0000f6a4:    f8d4184c    ..L.    LDR      r1,[r4,#0x84c]
        0x0000f6a8:    f8d42844    ..D(    LDR      r2,[r4,#0x844]
        0x0000f6ac:    1c49        I.      ADDS     r1,r1,#1
        0x0000f6ae:    fbb1f3f2    ....    UDIV     r3,r1,r2
        0x0000f6b2:    6860        `h      LDR      r0,[r4,#4]
        0x0000f6b4:    fb021113    ....    MLS      r1,r2,r3,r1
        0x0000f6b8:    0300        ..      LSLS     r0,r0,#12
        0x0000f6ba:    f10040a0    ...@    ADD      r0,r0,#0x50000000
        0x0000f6be:    f8d42850    ..P(    LDR      r2,[r4,#0x850]
        0x0000f6c2:    f50030a0    ...0    ADD      r0,r0,#0x14000
        0x0000f6c6:    eb010141    ..A.    ADD      r1,r1,r1,LSL #1
        0x0000f6ca:    eb0201c1    ....    ADD      r1,r2,r1,LSL #3
        0x0000f6ce:    f8c06250    ..Pb    STR      r6,[r0,#0x250]
        0x0000f6d2:    680a        .h      LDR      r2,[r1,#0]
        0x0000f6d4:    f8c02258    ..X"    STR      r2,[r0,#0x258]
        0x0000f6d8:    684a        Jh      LDR      r2,[r1,#4]
        0x0000f6da:    f8c0225c    ..\"    STR      r2,[r0,#0x25c]
        0x0000f6de:    688a        .h      LDR      r2,[r1,#8]
        0x0000f6e0:    f8c02260    ..`"    STR      r2,[r0,#0x260]
        0x0000f6e4:    68c9        .h      LDR      r1,[r1,#0xc]
        0x0000f6e6:    e0b0        ..      B        0xf84a ; am_hal_mspi_interrupt_service + 646
        0x0000f6e8:    e00d        ..      B        0xf706 ; am_hal_mspi_interrupt_service + 322
        0x0000f6ea:    f8846838    ..8h    STRB     r6,[r4,#0x838]
        0x0000f6ee:    f8c56250    ..Pb    STR      r6,[r5,#0x250]
        0x0000f6f2:    f8d50200    ....    LDR      r0,[r5,#0x200]
        0x0000f6f6:    f0200040     .@.    BIC      r0,r0,#0x40
        0x0000f6fa:    f8c50200    ....    STR      r0,[r5,#0x200]
        0x0000f6fe:    2080        .       MOVS     r0,#0x80
        0x0000f700:    f8c502b4    ....    STR      r0,[r5,#0x2b4]
        0x0000f704:    e0a3        ..      B        0xf84e ; am_hal_mspi_interrupt_service + 650
        0x0000f706:    69e0        .i      LDR      r0,[r4,#0x1c]
        0x0000f708:    2800        .(      CMP      r0,#0
        0x0000f70a:    d07d        }.      BEQ      0xf808 ; am_hal_mspi_interrupt_service + 580
        0x0000f70c:    f2402027    @.'     MOV      r0,#0x227
        0x0000f710:    4952        RI      LDR      r1,[pc,#328] ; [0xf85c] = 0x10015b50
        0x0000f712:    4368        hC      MULS     r0,r5,r0
        0x0000f714:    eb010780    ....    ADD      r7,r1,r0,LSL #2
        0x0000f718:    f8d70824    ..$.    LDR      r0,[r7,#0x824]
        0x0000f71c:    f6070724    ..$.    ADD      r7,r7,#0x824
        0x0000f720:    2800        .(      CMP      r0,#0
        0x0000f722:    d071        q.      BEQ      0xf808 ; am_hal_mspi_interrupt_service + 580
        0x0000f724:    4669        iF      MOV      r1,sp
        0x0000f726:    f7fef827    ..'.    BL       am_hal_cmdq_get_status ; 0xd778
        0x0000f72a:    2800        .(      CMP      r0,#0
        0x0000f72c:    bf08        ..      IT       EQ
        0x0000f72e:    f8846830    ..0h    STRBEQ   r6,[r4,#0x830]
        0x0000f732:    d015        ..      BEQ      0xf760 ; am_hal_mspi_interrupt_service + 412
        0x0000f734:    e07e        ~.      B        0xf834 ; am_hal_mspi_interrupt_service + 624
        0x0000f736:    1c40        @.      ADDS     r0,r0,#1
        0x0000f738:    61a0        .a      STR      r0,[r4,#0x18]
        0x0000f73a:    69e1        .i      LDR      r1,[r4,#0x1c]
        0x0000f73c:    b2c0        ..      UXTB     r0,r0
        0x0000f73e:    1e49        I.      SUBS     r1,r1,#1
        0x0000f740:    eb040880    ....    ADD      r8,r4,r0,LSL #2
        0x0000f744:    61e1        .a      STR      r1,[r4,#0x1c]
        0x0000f746:    f8d82024    ..$     LDR      r2,[r8,#0x24]
        0x0000f74a:    b14a        J.      CBZ      r2,0xf760 ; am_hal_mspi_interrupt_service + 412
        0x0000f74c:    2100        .!      MOVS     r1,#0
        0x0000f74e:    f8d80424    ..$.    LDR      r0,[r8,#0x424]
        0x0000f752:    4790        .G      BLX      r2
        0x0000f754:    f8940828    ..(.    LDRB     r0,[r4,#0x828]
        0x0000f758:    2802        .(      CMP      r0,#2
        0x0000f75a:    bf18        ..      IT       NE
        0x0000f75c:    f8c86024    ..$`    STRNE    r6,[r8,#0x24]
        0x0000f760:    f8940830    ..0.    LDRB     r0,[r4,#0x830]
        0x0000f764:    b918        ..      CBNZ     r0,0xf76e ; am_hal_mspi_interrupt_service + 426
        0x0000f766:    69a0        .i      LDR      r0,[r4,#0x18]
        0x0000f768:    9900        ..      LDR      r1,[sp,#0]
        0x0000f76a:    4288        .B      CMP      r0,r1
        0x0000f76c:    d1e3        ..      BNE      0xf736 ; am_hal_mspi_interrupt_service + 370
        0x0000f76e:    f8940830    ..0.    LDRB     r0,[r4,#0x830]
        0x0000f772:    2800        .(      CMP      r0,#0
        0x0000f774:    d15e        ^.      BNE      0xf834 ; am_hal_mspi_interrupt_service + 624
        0x0000f776:    f4195fc4    ..._    TST      r9,#0x1880
        0x0000f77a:    bf04        ..      ITT      EQ
        0x0000f77c:    f89d000e    ....    LDRBEQ   r0,[sp,#0xe]
        0x0000f780:    2800        .(      CMPEQ    r0,#0
        0x0000f782:    d04c        L.      BEQ      0xf81e ; am_hal_mspi_interrupt_service + 602
        0x0000f784:    69a0        .i      LDR      r0,[r4,#0x18]
        0x0000f786:    f1000001    ....    ADD      r0,r0,#1
        0x0000f78a:    61a0        .a      STR      r0,[r4,#0x18]
        0x0000f78c:    69e1        .i      LDR      r1,[r4,#0x1c]
        0x0000f78e:    b2c0        ..      UXTB     r0,r0
        0x0000f790:    f1a10101    ....    SUB      r1,r1,#1
        0x0000f794:    eb040880    ....    ADD      r8,r4,r0,LSL #2
        0x0000f798:    61e1        .a      STR      r1,[r4,#0x1c]
        0x0000f79a:    f8d82024    ..$     LDR      r2,[r8,#0x24]
        0x0000f79e:    b152        R.      CBZ      r2,0xf7b6 ; am_hal_mspi_interrupt_service + 498
        0x0000f7a0:    f04f0101    O...    MOV      r1,#1
        0x0000f7a4:    f8d80424    ..$.    LDR      r0,[r8,#0x424]
        0x0000f7a8:    4790        .G      BLX      r2
        0x0000f7aa:    f8940828    ..(.    LDRB     r0,[r4,#0x828]
        0x0000f7ae:    2802        .(      CMP      r0,#2
        0x0000f7b0:    bf18        ..      IT       NE
        0x0000f7b2:    f8c86024    ..$`    STRNE    r6,[r8,#0x24]
        0x0000f7b6:    f8d40824    ..$.    LDR      r0,[r4,#0x824]
        0x0000f7ba:    f7fdff63    ..c.    BL       am_hal_cmdq_disable ; 0xd684
        0x0000f7be:    2800        .(      CMP      r0,#0
        0x0000f7c0:    bf1c        ..      ITT      NE
        0x0000f7c2:    b005        ..      ADDNE    sp,sp,#0x14
        0x0000f7c4:    e8bd83f0    ....    POPNE    {r4-r9,pc}
        0x0000f7c8:    0328        (.      LSLS     r0,r5,#12
        0x0000f7ca:    f10040a0    ...@    ADD      r0,r0,#0x50000000
        0x0000f7ce:    f50030a0    ...0    ADD      r0,r0,#0x14000
        0x0000f7d2:    f8d01250    ..P.    LDR      r1,[r0,#0x250]
        0x0000f7d6:    f0210103    !...    BIC      r1,r1,#3
        0x0000f7da:    f8c01250    ..P.    STR      r1,[r0,#0x250]
        0x0000f7de:    f8d01100    ....    LDR      r1,[r0,#0x100]
        0x0000f7e2:    f0214180    !..A    BIC      r1,r1,#0x40000000
        0x0000f7e6:    f8c01100    ....    STR      r1,[r0,#0x100]
        0x0000f7ea:    f8d01100    ....    LDR      r1,[r0,#0x100]
        0x0000f7ee:    f0414180    A..A    ORR      r1,r1,#0x40000000
        0x0000f7f2:    f8c01100    ....    STR      r1,[r0,#0x100]
        0x0000f7f6:    f8d012ac    ....    LDR      r1,[r0,#0x2ac]
        0x0000f7fa:    f8c012ac    ....    STR      r1,[r0,#0x2ac]
        0x0000f7fe:    6838        8h      LDR      r0,[r7,#0]
        0x0000f800:    f7fdff80    ....    BL       am_hal_cmdq_error_resume ; 0xd704
        0x0000f804:    69e0        .i      LDR      r0,[r4,#0x1c]
        0x0000f806:    e000        ..      B        0xf80a ; am_hal_mspi_interrupt_service + 582
        0x0000f808:    e021        !.      B        0xf84e ; am_hal_mspi_interrupt_service + 650
        0x0000f80a:    b150        P.      CBZ      r0,0xf822 ; am_hal_mspi_interrupt_service + 606
        0x0000f80c:    f8d40824    ..$.    LDR      r0,[r4,#0x824]
        0x0000f810:    f7fdff58    ..X.    BL       am_hal_cmdq_enable ; 0xd6c4
        0x0000f814:    2800        .(      CMP      r0,#0
        0x0000f816:    bf1c        ..      ITT      NE
        0x0000f818:    b005        ..      ADDNE    sp,sp,#0x14
        0x0000f81a:    e8bd83f0    ....    POPNE    {r4-r9,pc}
        0x0000f81e:    69e0        .i      LDR      r0,[r4,#0x1c]
        0x0000f820:    b9a8        ..      CBNZ     r0,0xf84e ; am_hal_mspi_interrupt_service + 650
        0x0000f822:    f8d40824    ..$.    LDR      r0,[r4,#0x824]
        0x0000f826:    f7fdff2d    ..-.    BL       am_hal_cmdq_disable ; 0xd684
        0x0000f82a:    2800        .(      CMP      r0,#0
        0x0000f82c:    bf1c        ..      ITT      NE
        0x0000f82e:    b005        ..      ADDNE    sp,sp,#0x14
        0x0000f830:    e8bd83f0    ....    POPNE    {r4-r9,pc}
        0x0000f834:    69e0        .i      LDR      r0,[r4,#0x1c]
        0x0000f836:    b950        P.      CBNZ     r0,0xf84e ; am_hal_mspi_interrupt_service + 650
        0x0000f838:    0328        (.      LSLS     r0,r5,#12
        0x0000f83a:    f10040a0    ...@    ADD      r0,r0,#0x50000000
        0x0000f83e:    f50030a0    ...0    ADD      r0,r0,#0x14000
        0x0000f842:    f8d01250    ..P.    LDR      r1,[r0,#0x250]
        0x0000f846:    f0210103    !...    BIC      r1,r1,#3
        0x0000f84a:    f8c01250    ..P.    STR      r1,[r0,#0x250]
        0x0000f84e:    b005        ..      ADD      sp,sp,#0x14
        0x0000f850:    2000        .       MOVS     r0,#0
        0x0000f852:    e8bd83f0    ....    POP      {r4-r9,pc}
    $d
        0x0000f856:    0000        ..      DCW    0
        0x0000f858:    00bebebe    ....    DCD    12500670
        0x0000f85c:    10015b50    P[..    DCD    268524368
    $t
    i.am_hal_mspi_interrupt_status_get
    am_hal_mspi_interrupt_status_get
        0x0000f860:    2800        .(      CMP      r0,#0
        0x0000f862:    bf1c        ..      ITT      NE
        0x0000f864:    6803        .h      LDRNE    r3,[r0,#0]
        0x0000f866:    f0137f80    ....    TSTNE    r3,#0x1000000
        0x0000f86a:    d005        ..      BEQ      0xf878 ; am_hal_mspi_interrupt_status_get + 24
        0x0000f86c:    f8dfc034    ..4.    LDR      r12,[pc,#52] ; [0xf8a4] = 0xbebebe
        0x0000f870:    f023437f    #..C    BIC      r3,r3,#0xff000000
        0x0000f874:    4563        cE      CMP      r3,r12
        0x0000f876:    d001        ..      BEQ      0xf87c ; am_hal_mspi_interrupt_status_get + 28
        0x0000f878:    2002        .       MOVS     r0,#2
        0x0000f87a:    4770        pG      BX       lr
        0x0000f87c:    6840        @h      LDR      r0,[r0,#4]
        0x0000f87e:    2a00        .*      CMP      r2,#0
        0x0000f880:    ea4f3000    O..0    LSL      r0,r0,#12
        0x0000f884:    f10040a0    ...@    ADD      r0,r0,#0x50000000
        0x0000f888:    f50030a0    ...0    ADD      r0,r0,#0x14000
        0x0000f88c:    bf1d        ..      ITTTE    NE
        0x0000f88e:    f8d02204    ..."    LDRNE    r2,[r0,#0x204]
        0x0000f892:    f8d00200    ....    LDRNE    r0,[r0,#0x200]
        0x0000f896:    4010        .@      ANDNE    r0,r0,r2
        0x0000f898:    f8d00204    ....    LDREQ    r0,[r0,#0x204]
        0x0000f89c:    6008        .`      STR      r0,[r1,#0]
        0x0000f89e:    2000        .       MOVS     r0,#0
        0x0000f8a0:    4770        pG      BX       lr
    $d
        0x0000f8a2:    0000        ..      DCW    0
        0x0000f8a4:    00bebebe    ....    DCD    12500670
    $t
    i.am_hal_mspi_nonblocking_transfer
    am_hal_mspi_nonblocking_transfer
        0x0000f8a8:    e92d4ff0    -..O    PUSH     {r4-r11,lr}
        0x0000f8ac:    b083        ..      SUB      sp,sp,#0xc
        0x0000f8ae:    4699        .F      MOV      r9,r3
        0x0000f8b0:    f8ddb030    ..0.    LDR      r11,[sp,#0x30]
        0x0000f8b4:    0004        ..      MOVS     r4,r0
        0x0000f8b6:    bf1c        ..      ITT      NE
        0x0000f8b8:    6820         h      LDRNE    r0,[r4,#0]
        0x0000f8ba:    f0107f80    ....    TSTNE    r0,#0x1000000
        0x0000f8be:    d005        ..      BEQ      0xf8cc ; am_hal_mspi_nonblocking_transfer + 36
        0x0000f8c0:    f8dfc158    ..X.    LDR      r12,[pc,#344] ; [0xfa1c] = 0xbebebe
        0x0000f8c4:    f020437f     ..C    BIC      r3,r0,#0xff000000
        0x0000f8c8:    4563        cE      CMP      r3,r12
        0x0000f8ca:    d003        ..      BEQ      0xf8d4 ; am_hal_mspi_nonblocking_transfer + 44
        0x0000f8cc:    b003        ..      ADD      sp,sp,#0xc
        0x0000f8ce:    2002        .       MOVS     r0,#2
        0x0000f8d0:    e8bd8ff0    ....    POP      {r4-r11,pc}
        0x0000f8d4:    6963        ci      LDR      r3,[r4,#0x14]
        0x0000f8d6:    2b00        .+      CMP      r3,#0
        0x0000f8d8:    bf1d        ..      ITTTE    NE
        0x0000f8da:    f0107f00    ....    TSTNE    r0,#0x2000000
        0x0000f8de:    f8940828    ..(.    LDRBNE   r0,[r4,#0x828]
        0x0000f8e2:    2802        .(      CMPNE    r0,#2
        0x0000f8e4:    2007        .       MOVEQ    r0,#7
        0x0000f8e6:    bf04        ..      ITT      EQ
        0x0000f8e8:    b003        ..      ADDEQ    sp,sp,#0xc
        0x0000f8ea:    e8bd8ff0    ....    POPEQ    {r4-r11,pc}
        0x0000f8ee:    2a01        .*      CMP      r2,#1
        0x0000f8f0:    d105        ..      BNE      0xf8fe ; am_hal_mspi_nonblocking_transfer + 86
        0x0000f8f2:    68cb        .h      LDR      r3,[r1,#0xc]
        0x0000f8f4:    f1a35380    ...S    SUB      r3,r3,#0x10000000
        0x0000f8f8:    f5b33f80    ...?    CMP      r3,#0x10000
        0x0000f8fc:    d33e        >.      BCC      0xf97c ; am_hal_mspi_nonblocking_transfer + 212
        0x0000f8fe:    ea5f0609    _...    MOVS     r6,r9
        0x0000f902:    bf02        ..      ITTT     EQ
        0x0000f904:    f8d43834    ..48    LDREQ    r3,[r4,#0x834]
        0x0000f908:    2b00        .+      CMPEQ    r3,#0
        0x0000f90a:    2800        .(      CMPEQ    r0,#0
        0x0000f90c:    d107        ..      BNE      0xf91e ; am_hal_mspi_nonblocking_transfer + 118
        0x0000f90e:    f8d43858    ..X8    LDR      r3,[r4,#0x858]
        0x0000f912:    f8d40854    ..T.    LDR      r0,[r4,#0x854]
        0x0000f916:    ebb30f50    ..P.    CMP      r3,r0,LSR #1
        0x0000f91a:    bf28        (.      IT       CS
        0x0000f91c:    4e40        @N      LDRCS    r6,[pc,#256] ; [0xfa20] = 0x116e5
        0x0000f91e:    4625        %F      MOV      r5,r4
        0x0000f920:    460f        .F      MOV      r7,r1
        0x0000f922:    ea5f0802    _...    MOVS     r8,r2
        0x0000f926:    f04f0001    O...    MOV      r0,#1
        0x0000f92a:    f6040a24    ..$.    ADD      r10,r4,#0x824
        0x0000f92e:    bf08        ..      IT       EQ
        0x0000f930:    2018        .       MOVEQ    r0,#0x18
        0x0000f932:    d003        ..      BEQ      0xf93c ; am_hal_mspi_nonblocking_transfer + 148
        0x0000f934:    f1b80f01    ....    CMP      r8,#1
        0x0000f938:    bf08        ..      IT       EQ
        0x0000f93a:    2050        P       MOVEQ    r0,#0x50
        0x0000f93c:    69e9        .i      LDR      r1,[r5,#0x1c]
        0x0000f93e:    f5b17f80    ....    CMP      r1,#0x100
        0x0000f942:    d01b        ..      BEQ      0xf97c ; am_hal_mspi_nonblocking_transfer + 212
        0x0000f944:    08c1        ..      LSRS     r1,r0,#3
        0x0000f946:    466b        kF      MOV      r3,sp
        0x0000f948:    aa01        ..      ADD      r2,sp,#4
        0x0000f94a:    f8da0000    ....    LDR      r0,[r10,#0]
        0x0000f94e:    f7fdfe33    ..3.    BL       am_hal_cmdq_alloc_block ; 0xd5b8
        0x0000f952:    2800        .(      CMP      r0,#0
        0x0000f954:    bf1c        ..      ITT      NE
        0x0000f956:    b003        ..      ADDNE    sp,sp,#0xc
        0x0000f958:    e8bd8ff0    ....    POPNE    {r4-r11,pc}
        0x0000f95c:    463b        ;F      MOV      r3,r7
        0x0000f95e:    4641        AF      MOV      r1,r8
        0x0000f960:    4628        (F      MOV      r0,r5
        0x0000f962:    9a01        ..      LDR      r2,[sp,#4]
        0x0000f964:    f000ff84    ....    BL       build_dma_cmdlist ; 0x10870
        0x0000f968:    0007        ..      MOVS     r7,r0
        0x0000f96a:    d00b        ..      BEQ      0xf984 ; am_hal_mspi_nonblocking_transfer + 220
        0x0000f96c:    f8da0000    ....    LDR      r0,[r10,#0]
        0x0000f970:    f7fef820    .. .    BL       am_hal_cmdq_release_block ; 0xd9b4
        0x0000f974:    b003        ..      ADD      sp,sp,#0xc
        0x0000f976:    4638        8F      MOV      r0,r7
        0x0000f978:    e8bd8ff0    ....    POP      {r4-r11,pc}
        0x0000f97c:    b003        ..      ADD      sp,sp,#0xc
        0x0000f97e:    2005        .       MOVS     r0,#5
        0x0000f980:    e8bd8ff0    ....    POP      {r4-r11,pc}
        0x0000f984:    9900        ..      LDR      r1,[sp,#0]
        0x0000f986:    b2c9        ..      UXTB     r1,r1
        0x0000f988:    eb050181    ....    ADD      r1,r5,r1,LSL #2
        0x0000f98c:    624e        Nb      STR      r6,[r1,#0x24]
        0x0000f98e:    9800        ..      LDR      r0,[sp,#0]
        0x0000f990:    b2c0        ..      UXTB     r0,r0
        0x0000f992:    eb050080    ....    ADD      r0,r5,r0,LSL #2
        0x0000f996:    f8c0b424    ..$.    STR      r11,[r0,#0x424]
        0x0000f99a:    f7fcfc53    ..S.    BL       am_hal_interrupt_master_disable ; 0xc244
        0x0000f99e:    4680        .F      MOV      r8,r0
        0x0000f9a0:    2e00        ..      CMP      r6,#0
        0x0000f9a2:    bf14        ..      ITE      NE
        0x0000f9a4:    2101        .!      MOVNE    r1,#1
        0x0000f9a6:    2100        .!      MOVEQ    r1,#0
        0x0000f9a8:    f8d40824    ..$.    LDR      r0,[r4,#0x824]
        0x0000f9ac:    f7fdffae    ....    BL       am_hal_cmdq_post_block ; 0xd90c
        0x0000f9b0:    0005        ..      MOVS     r5,r0
        0x0000f9b2:    d007        ..      BEQ      0xf9c4 ; am_hal_mspi_nonblocking_transfer + 284
        0x0000f9b4:    4640        @F      MOV      r0,r8
        0x0000f9b6:    f7fcfc49    ..I.    BL       am_hal_interrupt_master_set ; 0xc24c
        0x0000f9ba:    f8d40824    ..$.    LDR      r0,[r4,#0x824]
        0x0000f9be:    f7fdfff9    ....    BL       am_hal_cmdq_release_block ; 0xd9b4
        0x0000f9c2:    e027        '.      B        0xfa14 ; am_hal_mspi_nonblocking_transfer + 364
        0x0000f9c4:    69e7        .i      LDR      r7,[r4,#0x1c]
        0x0000f9c6:    1c79        y.      ADDS     r1,r7,#1
        0x0000f9c8:    61e1        .a      STR      r1,[r4,#0x1c]
        0x0000f9ca:    f8d4082c    ..,.    LDR      r0,[r4,#0x82c]
        0x0000f9ce:    1c41        A.      ADDS     r1,r0,#1
        0x0000f9d0:    2000        .       MOVS     r0,#0
        0x0000f9d2:    f8c4182c    ..,.    STR      r1,[r4,#0x82c]
        0x0000f9d6:    f1b90f00    ....    CMP      r9,#0
        0x0000f9da:    bf1c        ..      ITT      NE
        0x0000f9dc:    f8840829    ..).    STRBNE   r0,[r4,#0x829]
        0x0000f9e0:    f8c40858    ..X.    STRNE    r0,[r4,#0x858]
        0x0000f9e4:    d109        ..      BNE      0xf9fa ; am_hal_mspi_nonblocking_transfer + 338
        0x0000f9e6:    2e00        ..      CMP      r6,#0
        0x0000f9e8:    bf18        ..      IT       NE
        0x0000f9ea:    f8c40858    ..X.    STRNE    r0,[r4,#0x858]
        0x0000f9ee:    d104        ..      BNE      0xf9fa ; am_hal_mspi_nonblocking_transfer + 338
        0x0000f9f0:    f8d40858    ..X.    LDR      r0,[r4,#0x858]
        0x0000f9f4:    1c41        A.      ADDS     r1,r0,#1
        0x0000f9f6:    f8c41858    ..X.    STR      r1,[r4,#0x858]
        0x0000f9fa:    4640        @F      MOV      r0,r8
        0x0000f9fc:    f7fcfc26    ..&.    BL       am_hal_interrupt_master_set ; 0xc24c
        0x0000fa00:    b947        G.      CBNZ     r7,0xfa14 ; am_hal_mspi_nonblocking_transfer + 364
        0x0000fa02:    f8d40824    ..$.    LDR      r0,[r4,#0x824]
        0x0000fa06:    f7fdfe5d    ..].    BL       am_hal_cmdq_enable ; 0xd6c4
        0x0000fa0a:    0005        ..      MOVS     r5,r0
        0x0000fa0c:    bf1c        ..      ITT      NE
        0x0000fa0e:    b003        ..      ADDNE    sp,sp,#0xc
        0x0000fa10:    e8bd8ff0    ....    POPNE    {r4-r11,pc}
        0x0000fa14:    4628        (F      MOV      r0,r5
        0x0000fa16:    b003        ..      ADD      sp,sp,#0xc
        0x0000fa18:    e8bd8ff0    ....    POP      {r4-r11,pc}
    $d
        0x0000fa1c:    00bebebe    ....    DCD    12500670
        0x0000fa20:    000116e5    ....    DCD    71397
    $t
    i.am_hal_mspi_power_control
    am_hal_mspi_power_control
        0x0000fa24:    b570        p.      PUSH     {r4-r6,lr}
        0x0000fa26:    4615        .F      MOV      r5,r2
        0x0000fa28:    1e04        ..      SUBS     r4,r0,#0
        0x0000fa2a:    bf1c        ..      ITT      NE
        0x0000fa2c:    6802        .h      LDRNE    r2,[r0,#0]
        0x0000fa2e:    f0127f80    ....    TSTNE    r2,#0x1000000
        0x0000fa32:    d004        ..      BEQ      0xfa3e ; am_hal_mspi_power_control + 26
        0x0000fa34:    4bb6        .K      LDR      r3,[pc,#728] ; [0xfd10] = 0xbebebe
        0x0000fa36:    f0224c7f    "..L    BIC      r12,r2,#0xff000000
        0x0000fa3a:    459c        .E      CMP      r12,r3
        0x0000fa3c:    d001        ..      BEQ      0xfa42 ; am_hal_mspi_power_control + 30
        0x0000fa3e:    2002        .       MOVS     r0,#2
        0x0000fa40:    bd70        p.      POP      {r4-r6,pc}
        0x0000fa42:    2900        .)      CMP      r1,#0
        0x0000fa44:    d07e        ~.      BEQ      0xfb44 ; am_hal_mspi_power_control + 288
        0x0000fa46:    2901        .)      CMP      r1,#1
        0x0000fa48:    bf1e        ..      ITTT     NE
        0x0000fa4a:    2902        .)      CMPNE    r1,#2
        0x0000fa4c:    2006        .       MOVNE    r0,#6
        0x0000fa4e:    bd70        p.      POPNE    {r4-r6,pc}
        0x0000fa50:    f0127f00    ....    TST      r2,#0x2000000
        0x0000fa54:    d010        ..      BEQ      0xfa78 ; am_hal_mspi_power_control + 84
        0x0000fa56:    6861        ah      LDR      r1,[r4,#4]
        0x0000fa58:    ea4f3101    O..1    LSL      r1,r1,#12
        0x0000fa5c:    f10141a0    ...A    ADD      r1,r1,#0x50000000
        0x0000fa60:    f50131a0    ...1    ADD      r1,r1,#0x14000
        0x0000fa64:    f8d11254    ..T.    LDR      r1,[r1,#0x254]
        0x0000fa68:    f0110f01    ....    TST      r1,#1
        0x0000fa6c:    bf07        ..      ITTEE    EQ
        0x0000fa6e:    f8d41840    ..@.    LDREQ    r1,[r4,#0x840]
        0x0000fa72:    2900        .)      CMPEQ    r1,#0
        0x0000fa74:    2003        .       MOVNE    r0,#3
        0x0000fa76:    bd70        p.      POPNE    {r4-r6,pc}
        0x0000fa78:    2d00        .-      CMP      r5,#0
        0x0000fa7a:    d07d        }.      BEQ      0xfb78 ; am_hal_mspi_power_control + 340
        0x0000fa7c:    6861        ah      LDR      r1,[r4,#4]
        0x0000fa7e:    0309        ..      LSLS     r1,r1,#12
        0x0000fa80:    f10141a0    ...A    ADD      r1,r1,#0x50000000
        0x0000fa84:    f50131a0    ...1    ADD      r1,r1,#0x14000
        0x0000fa88:    6849        Ih      LDR      r1,[r1,#4]
        0x0000fa8a:    f8c41864    ..d.    STR      r1,[r4,#0x864]
        0x0000fa8e:    6861        ah      LDR      r1,[r4,#4]
        0x0000fa90:    0309        ..      LSLS     r1,r1,#12
        0x0000fa92:    f10141a0    ...A    ADD      r1,r1,#0x50000000
        0x0000fa96:    f50131a0    ...1    ADD      r1,r1,#0x14000
        0x0000fa9a:    f8d11100    ....    LDR      r1,[r1,#0x100]
        0x0000fa9e:    f8c41868    ..h.    STR      r1,[r4,#0x868]
        0x0000faa2:    6861        ah      LDR      r1,[r4,#4]
        0x0000faa4:    0309        ..      LSLS     r1,r1,#12
        0x0000faa6:    f10141a0    ...A    ADD      r1,r1,#0x50000000
        0x0000faaa:    f50131a0    ...1    ADD      r1,r1,#0x14000
        0x0000faae:    f8d11110    ....    LDR      r1,[r1,#0x110]
        0x0000fab2:    f8c4186c    ..l.    STR      r1,[r4,#0x86c]
        0x0000fab6:    6861        ah      LDR      r1,[r4,#4]
        0x0000fab8:    0309        ..      LSLS     r1,r1,#12
        0x0000faba:    f10141a0    ...A    ADD      r1,r1,#0x50000000
        0x0000fabe:    f50131a0    ...1    ADD      r1,r1,#0x14000
        0x0000fac2:    f8d11114    ....    LDR      r1,[r1,#0x114]
        0x0000fac6:    f8c41870    ..p.    STR      r1,[r4,#0x870]
        0x0000faca:    6861        ah      LDR      r1,[r4,#4]
        0x0000facc:    0309        ..      LSLS     r1,r1,#12
        0x0000face:    f10141a0    ...A    ADD      r1,r1,#0x50000000
        0x0000fad2:    f50131a0    ...1    ADD      r1,r1,#0x14000
        0x0000fad6:    f8d11120    .. .    LDR      r1,[r1,#0x120]
        0x0000fada:    f8c41874    ..t.    STR      r1,[r4,#0x874]
        0x0000fade:    6861        ah      LDR      r1,[r4,#4]
        0x0000fae0:    0309        ..      LSLS     r1,r1,#12
        0x0000fae2:    f10141a0    ...A    ADD      r1,r1,#0x50000000
        0x0000fae6:    f50131a0    ...1    ADD      r1,r1,#0x14000
        0x0000faea:    f8d11128    ..(.    LDR      r1,[r1,#0x128]
        0x0000faee:    f8c41878    ..x.    STR      r1,[r4,#0x878]
        0x0000faf2:    6861        ah      LDR      r1,[r4,#4]
        0x0000faf4:    0309        ..      LSLS     r1,r1,#12
        0x0000faf6:    f10141a0    ...A    ADD      r1,r1,#0x50000000
        0x0000fafa:    f50131a0    ...1    ADD      r1,r1,#0x14000
        0x0000fafe:    f8d112a8    ....    LDR      r1,[r1,#0x2a8]
        0x0000fb02:    f8c41880    ....    STR      r1,[r4,#0x880]
        0x0000fb06:    6861        ah      LDR      r1,[r4,#4]
        0x0000fb08:    0309        ..      LSLS     r1,r1,#12
        0x0000fb0a:    f10141a0    ...A    ADD      r1,r1,#0x50000000
        0x0000fb0e:    f50131a0    ...1    ADD      r1,r1,#0x14000
        0x0000fb12:    f8d112b8    ....    LDR      r1,[r1,#0x2b8]
        0x0000fb16:    f8c41884    ....    STR      r1,[r4,#0x884]
        0x0000fb1a:    6861        ah      LDR      r1,[r4,#4]
        0x0000fb1c:    0309        ..      LSLS     r1,r1,#12
        0x0000fb1e:    f10141a0    ...A    ADD      r1,r1,#0x50000000
        0x0000fb22:    f50131a0    ...1    ADD      r1,r1,#0x14000
        0x0000fb26:    f8d112c0    ....    LDR      r1,[r1,#0x2c0]
        0x0000fb2a:    f8c41888    ....    STR      r1,[r4,#0x888]
        0x0000fb2e:    6861        ah      LDR      r1,[r4,#4]
        0x0000fb30:    0309        ..      LSLS     r1,r1,#12
        0x0000fb32:    f10141a0    ...A    ADD      r1,r1,#0x50000000
        0x0000fb36:    f50131a0    ...1    ADD      r1,r1,#0x14000
        0x0000fb3a:    f8d112c4    ....    LDR      r1,[r1,#0x2c4]
        0x0000fb3e:    f8c4188c    ....    STR      r1,[r4,#0x88c]
        0x0000fb42:    e000        ..      B        0xfb46 ; am_hal_mspi_power_control + 290
        0x0000fb44:    e047        G.      B        0xfbd6 ; am_hal_mspi_power_control + 434
        0x0000fb46:    6861        ah      LDR      r1,[r4,#4]
        0x0000fb48:    0309        ..      LSLS     r1,r1,#12
        0x0000fb4a:    f10141a0    ...A    ADD      r1,r1,#0x50000000
        0x0000fb4e:    f50131a0    ...1    ADD      r1,r1,#0x14000
        0x0000fb52:    f8d11200    ....    LDR      r1,[r1,#0x200]
        0x0000fb56:    f8c41890    ....    STR      r1,[r4,#0x890]
        0x0000fb5a:    6861        ah      LDR      r1,[r4,#4]
        0x0000fb5c:    0309        ..      LSLS     r1,r1,#12
        0x0000fb5e:    f10141a0    ...A    ADD      r1,r1,#0x50000000
        0x0000fb62:    f50131a0    ...1    ADD      r1,r1,#0x14000
        0x0000fb66:    f8d11264    ..d.    LDR      r1,[r1,#0x264]
        0x0000fb6a:    f8c41894    ....    STR      r1,[r4,#0x894]
        0x0000fb6e:    6861        ah      LDR      r1,[r4,#4]
        0x0000fb70:    0309        ..      LSLS     r1,r1,#12
        0x0000fb72:    f10141a0    ...A    ADD      r1,r1,#0x50000000
        0x0000fb76:    e000        ..      B        0xfb7a ; am_hal_mspi_power_control + 342
        0x0000fb78:    e012        ..      B        0xfba0 ; am_hal_mspi_power_control + 380
        0x0000fb7a:    f50131a0    ...1    ADD      r1,r1,#0x14000
        0x0000fb7e:    f8d11268    ..h.    LDR      r1,[r1,#0x268]
        0x0000fb82:    f8c41898    ....    STR      r1,[r4,#0x898]
        0x0000fb86:    6861        ah      LDR      r1,[r4,#4]
        0x0000fb88:    0309        ..      LSLS     r1,r1,#12
        0x0000fb8a:    f10141a0    ...A    ADD      r1,r1,#0x50000000
        0x0000fb8e:    f50131a0    ...1    ADD      r1,r1,#0x14000
        0x0000fb92:    f8d112a0    ....    LDR      r1,[r1,#0x2a0]
        0x0000fb96:    f8c4187c    ..|.    STR      r1,[r4,#0x87c]
        0x0000fb9a:    2101        .!      MOVS     r1,#1
        0x0000fb9c:    f8841860    ..`.    STRB     r1,[r4,#0x860]
        0x0000fba0:    4611        .F      MOV      r1,r2
        0x0000fba2:    f0127f80    ....    TST      r2,#0x1000000
        0x0000fba6:    d00f        ..      BEQ      0xfbc8 ; am_hal_mspi_power_control + 420
        0x0000fba8:    f021417f    !..A    BIC      r1,r1,#0xff000000
        0x0000fbac:    4299        .B      CMP      r1,r3
        0x0000fbae:    d10b        ..      BNE      0xfbc8 ; am_hal_mspi_power_control + 420
        0x0000fbb0:    6860        `h      LDR      r0,[r4,#4]
        0x0000fbb2:    0300        ..      LSLS     r0,r0,#12
        0x0000fbb4:    f10040a0    ...@    ADD      r0,r0,#0x50000000
        0x0000fbb8:    f50030a0    ...0    ADD      r0,r0,#0x14000
        0x0000fbbc:    f8d01200    ....    LDR      r1,[r0,#0x200]
        0x0000fbc0:    f36f010c    o...    BFC      r1,#0,#13
        0x0000fbc4:    f8c01200    ....    STR      r1,[r0,#0x200]
        0x0000fbc8:    7920         y      LDRB     r0,[r4,#4]
        0x0000fbca:    300c        .0      ADDS     r0,r0,#0xc
        0x0000fbcc:    b2c0        ..      UXTB     r0,r0
        0x0000fbce:    f000f951    ..Q.    BL       am_hal_pwrctrl_periph_disable ; 0xfe74
        0x0000fbd2:    2000        .       MOVS     r0,#0
        0x0000fbd4:    bd70        p.      POP      {r4-r6,pc}
        0x0000fbd6:    b12d        -.      CBZ      r5,0xfbe4 ; am_hal_mspi_power_control + 448
        0x0000fbd8:    f8940860    ..`.    LDRB     r0,[r4,#0x860]
        0x0000fbdc:    2800        .(      CMP      r0,#0
        0x0000fbde:    bf04        ..      ITT      EQ
        0x0000fbe0:    2007        .       MOVEQ    r0,#7
        0x0000fbe2:    bd70        p.      POPEQ    {r4-r6,pc}
        0x0000fbe4:    7920         y      LDRB     r0,[r4,#4]
        0x0000fbe6:    300c        .0      ADDS     r0,r0,#0xc
        0x0000fbe8:    b2c0        ..      UXTB     r0,r0
        0x0000fbea:    f000f96b    ..k.    BL       am_hal_pwrctrl_periph_enable ; 0xfec4
        0x0000fbee:    2d00        .-      CMP      r5,#0
        0x0000fbf0:    d0ef        ..      BEQ      0xfbd2 ; am_hal_mspi_power_control + 430
        0x0000fbf2:    6861        ah      LDR      r1,[r4,#4]
        0x0000fbf4:    f8d40864    ..d.    LDR      r0,[r4,#0x864]
        0x0000fbf8:    0309        ..      LSLS     r1,r1,#12
        0x0000fbfa:    f10141a0    ...A    ADD      r1,r1,#0x50000000
        0x0000fbfe:    f50131a0    ...1    ADD      r1,r1,#0x14000
        0x0000fc02:    6048        H`      STR      r0,[r1,#4]
        0x0000fc04:    6861        ah      LDR      r1,[r4,#4]
        0x0000fc06:    f8d40868    ..h.    LDR      r0,[r4,#0x868]
        0x0000fc0a:    0309        ..      LSLS     r1,r1,#12
        0x0000fc0c:    f10141a0    ...A    ADD      r1,r1,#0x50000000
        0x0000fc10:    f50131a0    ...1    ADD      r1,r1,#0x14000
        0x0000fc14:    f8c10100    ....    STR      r0,[r1,#0x100]
        0x0000fc18:    6861        ah      LDR      r1,[r4,#4]
        0x0000fc1a:    f8d4086c    ..l.    LDR      r0,[r4,#0x86c]
        0x0000fc1e:    0309        ..      LSLS     r1,r1,#12
        0x0000fc20:    f10141a0    ...A    ADD      r1,r1,#0x50000000
        0x0000fc24:    f50131a0    ...1    ADD      r1,r1,#0x14000
        0x0000fc28:    f8c10110    ....    STR      r0,[r1,#0x110]
        0x0000fc2c:    6861        ah      LDR      r1,[r4,#4]
        0x0000fc2e:    f8d40870    ..p.    LDR      r0,[r4,#0x870]
        0x0000fc32:    0309        ..      LSLS     r1,r1,#12
        0x0000fc34:    f10141a0    ...A    ADD      r1,r1,#0x50000000
        0x0000fc38:    f50131a0    ...1    ADD      r1,r1,#0x14000
        0x0000fc3c:    f8c10114    ....    STR      r0,[r1,#0x114]
        0x0000fc40:    6861        ah      LDR      r1,[r4,#4]
        0x0000fc42:    f8d40874    ..t.    LDR      r0,[r4,#0x874]
        0x0000fc46:    0309        ..      LSLS     r1,r1,#12
        0x0000fc48:    f10141a0    ...A    ADD      r1,r1,#0x50000000
        0x0000fc4c:    f50131a0    ...1    ADD      r1,r1,#0x14000
        0x0000fc50:    f8c10120    .. .    STR      r0,[r1,#0x120]
        0x0000fc54:    6861        ah      LDR      r1,[r4,#4]
        0x0000fc56:    f8d40878    ..x.    LDR      r0,[r4,#0x878]
        0x0000fc5a:    0309        ..      LSLS     r1,r1,#12
        0x0000fc5c:    f10141a0    ...A    ADD      r1,r1,#0x50000000
        0x0000fc60:    f50131a0    ...1    ADD      r1,r1,#0x14000
        0x0000fc64:    f8c10128    ..(.    STR      r0,[r1,#0x128]
        0x0000fc68:    6861        ah      LDR      r1,[r4,#4]
        0x0000fc6a:    f8d4087c    ..|.    LDR      r0,[r4,#0x87c]
        0x0000fc6e:    0309        ..      LSLS     r1,r1,#12
        0x0000fc70:    f10141a0    ...A    ADD      r1,r1,#0x50000000
        0x0000fc74:    f50131a0    ...1    ADD      r1,r1,#0x14000
        0x0000fc78:    f8c102a0    ....    STR      r0,[r1,#0x2a0]
        0x0000fc7c:    6861        ah      LDR      r1,[r4,#4]
        0x0000fc7e:    f8d40880    ....    LDR      r0,[r4,#0x880]
        0x0000fc82:    0309        ..      LSLS     r1,r1,#12
        0x0000fc84:    f10141a0    ...A    ADD      r1,r1,#0x50000000
        0x0000fc88:    f50131a0    ...1    ADD      r1,r1,#0x14000
        0x0000fc8c:    f8c102a8    ....    STR      r0,[r1,#0x2a8]
        0x0000fc90:    6861        ah      LDR      r1,[r4,#4]
        0x0000fc92:    f8d40884    ....    LDR      r0,[r4,#0x884]
        0x0000fc96:    0309        ..      LSLS     r1,r1,#12
        0x0000fc98:    f10141a0    ...A    ADD      r1,r1,#0x50000000
        0x0000fc9c:    f50131a0    ...1    ADD      r1,r1,#0x14000
        0x0000fca0:    f8c102b8    ....    STR      r0,[r1,#0x2b8]
        0x0000fca4:    6861        ah      LDR      r1,[r4,#4]
        0x0000fca6:    f8d40888    ....    LDR      r0,[r4,#0x888]
        0x0000fcaa:    0309        ..      LSLS     r1,r1,#12
        0x0000fcac:    f10141a0    ...A    ADD      r1,r1,#0x50000000
        0x0000fcb0:    f50131a0    ...1    ADD      r1,r1,#0x14000
        0x0000fcb4:    f8c102c0    ....    STR      r0,[r1,#0x2c0]
        0x0000fcb8:    6861        ah      LDR      r1,[r4,#4]
        0x0000fcba:    f8d4088c    ....    LDR      r0,[r4,#0x88c]
        0x0000fcbe:    0309        ..      LSLS     r1,r1,#12
        0x0000fcc0:    f10141a0    ...A    ADD      r1,r1,#0x50000000
        0x0000fcc4:    f50131a0    ...1    ADD      r1,r1,#0x14000
        0x0000fcc8:    f8c102c4    ....    STR      r0,[r1,#0x2c4]
        0x0000fccc:    6861        ah      LDR      r1,[r4,#4]
        0x0000fcce:    f8d40890    ....    LDR      r0,[r4,#0x890]
        0x0000fcd2:    0309        ..      LSLS     r1,r1,#12
        0x0000fcd4:    f10141a0    ...A    ADD      r1,r1,#0x50000000
        0x0000fcd8:    f50131a0    ...1    ADD      r1,r1,#0x14000
        0x0000fcdc:    f8c10200    ....    STR      r0,[r1,#0x200]
        0x0000fce0:    6861        ah      LDR      r1,[r4,#4]
        0x0000fce2:    f8d40894    ....    LDR      r0,[r4,#0x894]
        0x0000fce6:    0309        ..      LSLS     r1,r1,#12
        0x0000fce8:    f10141a0    ...A    ADD      r1,r1,#0x50000000
        0x0000fcec:    f50131a0    ...1    ADD      r1,r1,#0x14000
        0x0000fcf0:    f8c10264    ..d.    STR      r0,[r1,#0x264]
        0x0000fcf4:    6861        ah      LDR      r1,[r4,#4]
        0x0000fcf6:    f8d40898    ....    LDR      r0,[r4,#0x898]
        0x0000fcfa:    0309        ..      LSLS     r1,r1,#12
        0x0000fcfc:    f10141a0    ...A    ADD      r1,r1,#0x50000000
        0x0000fd00:    f50131a0    ...1    ADD      r1,r1,#0x14000
        0x0000fd04:    f8c10268    ..h.    STR      r0,[r1,#0x268]
        0x0000fd08:    2000        .       MOVS     r0,#0
        0x0000fd0a:    f8840860    ..`.    STRB     r0,[r4,#0x860]
        0x0000fd0e:    e760        `.      B        0xfbd2 ; am_hal_mspi_power_control + 430
    $d
        0x0000fd10:    00bebebe    ....    DCD    12500670
    $t
    i.am_hal_pwrctrl_low_power_init
    am_hal_pwrctrl_low_power_init
        0x0000fd14:    b5f8        ..      PUSH     {r3-r7,lr}
        0x0000fd16:    4851        QH      LDR      r0,[pc,#324] ; [0xfe5c] = 0x10011194
        0x0000fd18:    6801        .h      LDR      r1,[r0,#0]
        0x0000fd1a:    b911        ..      CBNZ     r1,0xfd22 ; am_hal_pwrctrl_low_power_init + 14
        0x0000fd1c:    4950        PI      LDR      r1,[pc,#320] ; [0xfe60] = 0x4ffff000
        0x0000fd1e:    6809        .h      LDR      r1,[r1,#0]
        0x0000fd20:    6001        .`      STR      r1,[r0,#0]
        0x0000fd22:    4c50        PL      LDR      r4,[pc,#320] ; [0xfe64] = 0x40020000
        0x0000fd24:    68e0        .h      LDR      r0,[r4,#0xc]
        0x0000fd26:    2601        .&      MOVS     r6,#1
        0x0000fd28:    b2c0        ..      UXTB     r0,r0
        0x0000fd2a:    2821        !(      CMP      r0,#0x21
        0x0000fd2c:    d302        ..      BCC      0xfd34 ; am_hal_pwrctrl_low_power_init + 32
        0x0000fd2e:    484e        NH      LDR      r0,[pc,#312] ; [0xfe68] = 0x10011190
        0x0000fd30:    7801        .x      LDRB     r1,[r0,#0]
        0x0000fd32:    b199        ..      CBZ      r1,0xfd5c ; am_hal_pwrctrl_low_power_init + 72
        0x0000fd34:    68e0        .h      LDR      r0,[r4,#0xc]
        0x0000fd36:    b2c0        ..      UXTB     r0,r0
        0x0000fd38:    2812        .(      CMP      r0,#0x12
        0x0000fd3a:    d305        ..      BCC      0xfd48 ; am_hal_pwrctrl_low_power_init + 52
        0x0000fd3c:    f8d4035c    ..\.    LDR      r0,[r4,#0x35c]
        0x0000fd40:    f0207080     ..p    BIC      r0,r0,#0x1000000
        0x0000fd44:    f8c4035c    ..\.    STR      r0,[r4,#0x35c]
        0x0000fd48:    2100        .!      MOVS     r1,#0
        0x0000fd4a:    200c        .       MOVS     r0,#0xc
        0x0000fd4c:    f7fdf9bc    ....    BL       am_hal_cachectrl_control ; 0xd0c8
        0x0000fd50:    4d46        FM      LDR      r5,[pc,#280] ; [0xfe6c] = 0x40021000
        0x0000fd52:    69a8        .i      LDR      r0,[r5,#0x18]
        0x0000fd54:    f4107f80    ....    TST      r0,#0x100
        0x0000fd58:    d047        G.      BEQ      0xfdea ; am_hal_pwrctrl_low_power_init + 214
        0x0000fd5a:    e07d        }.      B        0xfe58 ; am_hal_pwrctrl_low_power_init + 324
        0x0000fd5c:    7006        .p      STRB     r6,[r0,#0]
        0x0000fd5e:    f8d40350    ..P.    LDR      r0,[r4,#0x350]
        0x0000fd62:    f3c05085    ...P    UBFX     r0,r0,#22,#6
        0x0000fd66:    280c        .(      CMP      r0,#0xc
        0x0000fd68:    bf8c        ..      ITE      HI
        0x0000fd6a:    380c        .8      SUBHI    r0,r0,#0xc
        0x0000fd6c:    2000        .       MOVLS    r0,#0
        0x0000fd6e:    f8d41350    ..P.    LDR      r1,[r4,#0x350]
        0x0000fd72:    f360519b    `..Q    BFI      r1,r0,#22,#6
        0x0000fd76:    f8c41350    ..P.    STR      r1,[r4,#0x350]
        0x0000fd7a:    f8d40354    ..T.    LDR      r0,[r4,#0x354]
        0x0000fd7e:    f4200070     .p.    BIC      r0,r0,#0xf00000
        0x0000fd82:    f5000000    ....    ADD      r0,r0,#0x800000
        0x0000fd86:    f8c40354    ..T.    STR      r0,[r4,#0x354]
        0x0000fd8a:    f8d40354    ..T.    LDR      r0,[r4,#0x354]
        0x0000fd8e:    f4202070     .p     BIC      r0,r0,#0xf0000
        0x0000fd92:    f50020a0    ...     ADD      r0,r0,#0x50000
        0x0000fd96:    f8c40354    ..T.    STR      r0,[r4,#0x354]
        0x0000fd9a:    f8d4035c    ..\.    LDR      r0,[r4,#0x35c]
        0x0000fd9e:    f020000f     ...    BIC      r0,r0,#0xf
        0x0000fda2:    3008        .0      ADDS     r0,r0,#8
        0x0000fda4:    f8c4035c    ..\.    STR      r0,[r4,#0x35c]
        0x0000fda8:    f8d40358    ..X.    LDR      r0,[r4,#0x358]
        0x0000fdac:    f02040f0     ..@    BIC      r0,r0,#0x78000000
        0x0000fdb0:    f1005040    ..@P    ADD      r0,r0,#0x30000000
        0x0000fdb4:    f8c40358    ..X.    STR      r0,[r4,#0x358]
        0x0000fdb8:    f8d4035c    ..\.    LDR      r0,[r4,#0x35c]
        0x0000fdbc:    f4400000    @...    ORR      r0,r0,#0x800000
        0x0000fdc0:    f8c4035c    ..\.    STR      r0,[r4,#0x35c]
        0x0000fdc4:    f8d4035c    ..\.    LDR      r0,[r4,#0x35c]
        0x0000fdc8:    f0207080     ..p    BIC      r0,r0,#0x1000000
        0x0000fdcc:    f8c4035c    ..\.    STR      r0,[r4,#0x35c]
        0x0000fdd0:    f8d40354    ..T.    LDR      r0,[r4,#0x354]
        0x0000fdd4:    f0405040    @.@P    ORR      r0,r0,#0x30000000
        0x0000fdd8:    f8c40354    ..T.    STR      r0,[r4,#0x354]
        0x0000fddc:    f8d40354    ..T.    LDR      r0,[r4,#0x354]
        0x0000fde0:    f040001f    @...    ORR      r0,r0,#0x1f
        0x0000fde4:    f8c40354    ..T.    STR      r0,[r4,#0x354]
        0x0000fde8:    e7a4        ..      B        0xfd34 ; am_hal_pwrctrl_low_power_init + 32
        0x0000fdea:    68e0        .h      LDR      r0,[r4,#0xc]
        0x0000fdec:    b2c0        ..      UXTB     r0,r0
        0x0000fdee:    2812        .(      CMP      r0,#0x12
        0x0000fdf0:    d31a        ..      BCC      0xfe28 ; am_hal_pwrctrl_low_power_init + 276
        0x0000fdf2:    f7fcfa27    ..'.    BL       am_hal_interrupt_master_disable ; 0xc244
        0x0000fdf6:    9000        ..      STR      r0,[sp,#0]
        0x0000fdf8:    f8d40368    ..h.    LDR      r0,[r4,#0x368]
        0x0000fdfc:    f420607c     .|`    BIC      r0,r0,#0xfc0
        0x0000fe00:    f50060c8    ...`    ADD      r0,r0,#0x640
        0x0000fe04:    f8c40368    ..h.    STR      r0,[r4,#0x368]
        0x0000fe08:    f8d40368    ..h.    LDR      r0,[r4,#0x368]
        0x0000fe0c:    f020003f     .?.    BIC      r0,r0,#0x3f
        0x0000fe10:    300c        .0      ADDS     r0,r0,#0xc
        0x0000fe12:    f8c40368    ..h.    STR      r0,[r4,#0x368]
        0x0000fe16:    f04f2040    O.@     MOV      r0,#0x40004000
        0x0000fe1a:    6bc1        .k      LDR      r1,[r0,#0x3c]
        0x0000fe1c:    f4210180    !...    BIC      r1,r1,#0x400000
        0x0000fe20:    63c1        .c      STR      r1,[r0,#0x3c]
        0x0000fe22:    9800        ..      LDR      r0,[sp,#0]
        0x0000fe24:    f7fcfa12    ....    BL       am_hal_interrupt_master_set ; 0xc24c
        0x0000fe28:    69a0        .i      LDR      r0,[r4,#0x18]
        0x0000fe2a:    f0400001    @...    ORR      r0,r0,#1
        0x0000fe2e:    61a0        .a      STR      r0,[r4,#0x18]
        0x0000fe30:    2307        .#      MOVS     r3,#7
        0x0000fe32:    461a        .F      MOV      r2,r3
        0x0000fe34:    490e        .I      LDR      r1,[pc,#56] ; [0xfe70] = 0x40020018
        0x0000fe36:    f2427010    B..p    MOV      r0,#0x2710
        0x0000fe3a:    9600        ..      STR      r6,[sp,#0]
        0x0000fe3c:    f7fef862    ..b.    BL       am_hal_flash_delay_status_check ; 0xdf04
        0x0000fe40:    2800        .(      CMP      r0,#0
        0x0000fe42:    bf1c        ..      ITT      NE
        0x0000fe44:    2004        .       MOVNE    r0,#4
        0x0000fe46:    bdf8        ..      POPNE    {r3-r7,pc}
        0x0000fe48:    6828        (h      LDR      r0,[r5,#0]
        0x0000fe4a:    f0400001    @...    ORR      r0,r0,#1
        0x0000fe4e:    6028        (`      STR      r0,[r5,#0]
        0x0000fe50:    6a68        hj      LDR      r0,[r5,#0x24]
        0x0000fe52:    f0400040    @.@.    ORR      r0,r0,#0x40
        0x0000fe56:    6268        hb      STR      r0,[r5,#0x24]
        0x0000fe58:    2000        .       MOVS     r0,#0
        0x0000fe5a:    bdf8        ..      POP      {r3-r7,pc}
    $d
        0x0000fe5c:    10011194    ....    DCD    268505492
        0x0000fe60:    4ffff000    ...O    DCD    1342173184
        0x0000fe64:    40020000    ...@    DCD    1073872896
        0x0000fe68:    10011190    ....    DCD    268505488
        0x0000fe6c:    40021000    ...@    DCD    1073876992
        0x0000fe70:    40020018    ...@    DCD    1073872920
    $t
    i.am_hal_pwrctrl_periph_disable
    am_hal_pwrctrl_periph_disable
        0x0000fe74:    b5f8        ..      PUSH     {r3-r7,lr}
        0x0000fe76:    4605        .F      MOV      r5,r0
        0x0000fe78:    f7fcf9e4    ....    BL       am_hal_interrupt_master_disable ; 0xc244
        0x0000fe7c:    4c0f        .L      LDR      r4,[pc,#60] ; [0xfebc] = 0x40021000
        0x0000fe7e:    9000        ..      STR      r0,[sp,#0]
        0x0000fe80:    68a0        .h      LDR      r0,[r4,#8]
        0x0000fe82:    4e0f        .N      LDR      r6,[pc,#60] ; [0xfec0] = 0x127b0
        0x0000fe84:    eb050745    ..E.    ADD      r7,r5,r5,LSL #1
        0x0000fe88:    f8561027    V.'.    LDR      r1,[r6,r7,LSL #2]
        0x0000fe8c:    4388        .C      BICS     r0,r0,r1
        0x0000fe8e:    60a0        .`      STR      r0,[r4,#8]
        0x0000fe90:    9800        ..      LDR      r0,[sp,#0]
        0x0000fe92:    f7fcf9db    ....    BL       am_hal_interrupt_master_set ; 0xc24c
        0x0000fe96:    2500        .%      MOVS     r5,#0
        0x0000fe98:    eb060687    ....    ADD      r6,r6,r7,LSL #2
        0x0000fe9c:    20a0        .       MOVS     r0,#0xa0
        0x0000fe9e:    f7fef81f    ....    BL       am_hal_flash_delay ; 0xdee0
        0x0000fea2:    69a0        .i      LDR      r0,[r4,#0x18]
        0x0000fea4:    6871        qh      LDR      r1,[r6,#4]
        0x0000fea6:    4208        .B      TST      r0,r1
        0x0000fea8:    d002        ..      BEQ      0xfeb0 ; am_hal_pwrctrl_periph_disable + 60
        0x0000feaa:    350a        .5      ADDS     r5,r5,#0xa
        0x0000feac:    2d14        .-      CMP      r5,#0x14
        0x0000feae:    d3f5        ..      BCC      0xfe9c ; am_hal_pwrctrl_periph_disable + 40
        0x0000feb0:    69a0        .i      LDR      r0,[r4,#0x18]
        0x0000feb2:    4008        .@      ANDS     r0,r0,r1
        0x0000feb4:    bf18        ..      IT       NE
        0x0000feb6:    2001        .       MOVNE    r0,#1
        0x0000feb8:    bdf8        ..      POP      {r3-r7,pc}
    $d
        0x0000feba:    0000        ..      DCW    0
        0x0000febc:    40021000    ...@    DCD    1073876992
        0x0000fec0:    000127b0    .'..    DCD    75696
    $t
    i.am_hal_pwrctrl_periph_enable
    am_hal_pwrctrl_periph_enable
        0x0000fec4:    b5f8        ..      PUSH     {r3-r7,lr}
        0x0000fec6:    4605        .F      MOV      r5,r0
        0x0000fec8:    f7fcf9bc    ....    BL       am_hal_interrupt_master_disable ; 0xc244
        0x0000fecc:    4c0f        .L      LDR      r4,[pc,#60] ; [0xff0c] = 0x40021000
        0x0000fece:    9000        ..      STR      r0,[sp,#0]
        0x0000fed0:    68a0        .h      LDR      r0,[r4,#8]
        0x0000fed2:    4e0f        .N      LDR      r6,[pc,#60] ; [0xff10] = 0x127b0
        0x0000fed4:    eb050745    ..E.    ADD      r7,r5,r5,LSL #1
        0x0000fed8:    f8561027    V.'.    LDR      r1,[r6,r7,LSL #2]
        0x0000fedc:    4308        .C      ORRS     r0,r0,r1
        0x0000fede:    60a0        .`      STR      r0,[r4,#8]
        0x0000fee0:    9800        ..      LDR      r0,[sp,#0]
        0x0000fee2:    f7fcf9b3    ....    BL       am_hal_interrupt_master_set ; 0xc24c
        0x0000fee6:    2500        .%      MOVS     r5,#0
        0x0000fee8:    eb060687    ....    ADD      r6,r6,r7,LSL #2
        0x0000feec:    20a0        .       MOVS     r0,#0xa0
        0x0000feee:    f7fdfff7    ....    BL       am_hal_flash_delay ; 0xdee0
        0x0000fef2:    69a0        .i      LDR      r0,[r4,#0x18]
        0x0000fef4:    6871        qh      LDR      r1,[r6,#4]
        0x0000fef6:    4208        .B      TST      r0,r1
        0x0000fef8:    d102        ..      BNE      0xff00 ; am_hal_pwrctrl_periph_enable + 60
        0x0000fefa:    350a        .5      ADDS     r5,r5,#0xa
        0x0000fefc:    2d14        .-      CMP      r5,#0x14
        0x0000fefe:    d3f5        ..      BCC      0xfeec ; am_hal_pwrctrl_periph_enable + 40
        0x0000ff00:    69a0        .i      LDR      r0,[r4,#0x18]
        0x0000ff02:    4208        .B      TST      r0,r1
        0x0000ff04:    bf14        ..      ITE      NE
        0x0000ff06:    2000        .       MOVNE    r0,#0
        0x0000ff08:    2001        .       MOVEQ    r0,#1
        0x0000ff0a:    bdf8        ..      POP      {r3-r7,pc}
    $d
        0x0000ff0c:    40021000    ...@    DCD    1073876992
        0x0000ff10:    000127b0    .'..    DCD    75696
    $t
    i.am_hal_rtc_osc_disable
    am_hal_rtc_osc_disable
        0x0000ff14:    f04f2040    O.@     MOV      r0,#0x40004000
        0x0000ff18:    f8d01250    ..P.    LDR      r1,[r0,#0x250]
        0x0000ff1c:    f0410110    A...    ORR      r1,r1,#0x10
        0x0000ff20:    f8c01250    ..P.    STR      r1,[r0,#0x250]
        0x0000ff24:    4770        pG      BX       lr
        0x0000ff26:    0000        ..      MOVS     r0,r0
    i.am_hal_tpiu_enable
    am_hal_tpiu_enable
        0x0000ff28:    e92d41f0    -..A    PUSH     {r4-r8,lr}
        0x0000ff2c:    4c1d        .L      LDR      r4,[pc,#116] ; [0xffa4] = 0xe0040000
        0x0000ff2e:    b084        ..      SUB      sp,sp,#0x10
        0x0000ff30:    2600        .&      MOVS     r6,#0
        0x0000ff32:    6805        .h      LDR      r5,[r0,#0]
        0x0000ff34:    f8c46304    ...c    STR      r6,[r4,#0x304]
        0x0000ff38:    4f1b        .O      LDR      r7,[pc,#108] ; [0xffa8] = 0xe0040f00
        0x0000ff3a:    f8df8070    ..p.    LDR      r8,[pc,#112] ; [0xffac] = 0x40020000
        0x0000ff3e:    2101        .!      MOVS     r1,#1
        0x0000ff40:    b31d        ..      CBZ      r5,0xff8a ; am_hal_tpiu_enable + 98
        0x0000ff42:    6061        a`      STR      r1,[r4,#4]
        0x0000ff44:    491a        .I      LDR      r1,[pc,#104] ; [0xffb0] = 0x1da381
        0x0000ff46:    f5a54061    ..a@    SUB      r0,r5,#0xe100
        0x0000ff4a:    4288        .B      CMP      r0,r1
        0x0000ff4c:    bf28        (.      IT       CS
        0x0000ff4e:    4d19        .M      LDRCS    r5,[pc,#100] ; [0xffb4] = 0xf4240
        0x0000ff50:    4668        hF      MOV      r0,sp
        0x0000ff52:    f7fdfb17    ....    BL       am_hal_clkgen_status_get ; 0xd584
        0x0000ff56:    9800        ..      LDR      r0,[sp,#0]
        0x0000ff58:    f1b03fff    ...?    CMP      r0,#0xffffffff
        0x0000ff5c:    bf1d        ..      ITTTE    NE
        0x0000ff5e:    08c0        ..      LSRNE    r0,r0,#3
        0x0000ff60:    fbb0f0f5    ....    UDIVNE   r0,r0,r5
        0x0000ff64:    1e40        @.      SUBNE    r0,r0,#1
        0x0000ff66:    2005        .       MOVEQ    r0,#5
        0x0000ff68:    b280        ..      UXTH     r0,r0
        0x0000ff6a:    6120         a      STR      r0,[r4,#0x10]
        0x0000ff6c:    2002        .       MOVS     r0,#2
        0x0000ff6e:    f8c400f0    ....    STR      r0,[r4,#0xf0]
        0x0000ff72:    603e        >`      STR      r6,[r7,#0]
        0x0000ff74:    f2402001    @..     MOV      r0,#0x201
        0x0000ff78:    f8c80250    ..P.    STR      r0,[r8,#0x250]
        0x0000ff7c:    f44f7048    O.Hp    MOV      r0,#0x320
        0x0000ff80:    f7fdffae    ....    BL       am_hal_flash_delay ; 0xdee0
        0x0000ff84:    b004        ..      ADD      sp,sp,#0x10
        0x0000ff86:    e8bd81f0    ....    POP      {r4-r8,pc}
        0x0000ff8a:    6902        .i      LDR      r2,[r0,#0x10]
        0x0000ff8c:    6122        "a      STR      r2,[r4,#0x10]
        0x0000ff8e:    6882        .h      LDR      r2,[r0,#8]
        0x0000ff90:    f8c420f0    ...     STR      r2,[r4,#0xf0]
        0x0000ff94:    7b02        .{      LDRB     r2,[r0,#0xc]
        0x0000ff96:    1e52        R.      SUBS     r2,r2,#1
        0x0000ff98:    4091        .@      LSLS     r1,r1,r2
        0x0000ff9a:    6061        a`      STR      r1,[r4,#4]
        0x0000ff9c:    603e        >`      STR      r6,[r7,#0]
        0x0000ff9e:    6840        @h      LDR      r0,[r0,#4]
        0x0000ffa0:    e7ea        ..      B        0xff78 ; am_hal_tpiu_enable + 80
    $d
        0x0000ffa2:    0000        ..      DCW    0
        0x0000ffa4:    e0040000    ....    DCD    3758358528
        0x0000ffa8:    e0040f00    ....    DCD    3758362368
        0x0000ffac:    40020000    ...@    DCD    1073872896
        0x0000ffb0:    001da381    ....    DCD    1942401
        0x0000ffb4:    000f4240    @B..    DCD    1000000
    $t
    i.am_mspi1_isr
    am_mspi1_isr
        0x0000ffb8:    b538        8.      PUSH     {r3-r5,lr}
        0x0000ffba:    4c07        .L      LDR      r4,[pc,#28] ; [0xffd8] = 0x10011000
        0x0000ffbc:    2200        ."      MOVS     r2,#0
        0x0000ffbe:    4669        iF      MOV      r1,sp
        0x0000ffc0:    69a0        .i      LDR      r0,[r4,#0x18]
        0x0000ffc2:    f7fffc4d    ..M.    BL       am_hal_mspi_interrupt_status_get ; 0xf860
        0x0000ffc6:    9900        ..      LDR      r1,[sp,#0]
        0x0000ffc8:    69a0        .i      LDR      r0,[r4,#0x18]
        0x0000ffca:    f7fffac5    ....    BL       am_hal_mspi_interrupt_clear ; 0xf558
        0x0000ffce:    9900        ..      LDR      r1,[sp,#0]
        0x0000ffd0:    69a0        .i      LDR      r0,[r4,#0x18]
        0x0000ffd2:    f7fffaf7    ....    BL       am_hal_mspi_interrupt_service ; 0xf5c4
        0x0000ffd6:    bd38        8.      POP      {r3-r5,pc}
    $d
        0x0000ffd8:    10011000    ....    DCD    268505088
    $t
    i.am_util_delay_us
    am_util_delay_us
        0x0000ffdc:    b510        ..      PUSH     {r4,lr}
        0x0000ffde:    b084        ..      SUB      sp,sp,#0x10
        0x0000ffe0:    4604        .F      MOV      r4,r0
        0x0000ffe2:    4668        hF      MOV      r0,sp
        0x0000ffe4:    f7fdface    ....    BL       am_hal_clkgen_status_get ; 0xd584
        0x0000ffe8:    4904        .I      LDR      r1,[pc,#16] ; [0xfffc] = 0x2dc6c0
        0x0000ffea:    9800        ..      LDR      r0,[sp,#0]
        0x0000ffec:    fbb0f0f1    ....    UDIV     r0,r0,r1
        0x0000fff0:    4360        `C      MULS     r0,r4,r0
        0x0000fff2:    f7fdff75    ..u.    BL       am_hal_flash_delay ; 0xdee0
        0x0000fff6:    b004        ..      ADD      sp,sp,#0x10
        0x0000fff8:    bd10        ..      POP      {r4,pc}
    $d
        0x0000fffa:    0000        ..      DCW    0
        0x0000fffc:    002dc6c0    ..-.    DCD    3000000
    $t
    i.am_util_faultisr_collect_data
    am_util_faultisr_collect_data
        0x00010000:    b092        ..      SUB      sp,sp,#0x48
        0x00010002:    4604        .F      MOV      r4,r0
        0x00010004:    2000        .       MOVS     r0,#0
        0x00010006:    900c        ..      STR      r0,[sp,#0x30]
        0x00010008:    900f        ..      STR      r0,[sp,#0x3c]
        0x0001000a:    900d        ..      STR      r0,[sp,#0x34]
        0x0001000c:    900e        ..      STR      r0,[sp,#0x38]
        0x0001000e:    9010        ..      STR      r0,[sp,#0x40]
        0x00010010:    9011        ..      STR      r0,[sp,#0x44]
        0x00010012:    900a        ..      STR      r0,[sp,#0x28]
        0x00010014:    4825        %H      LDR      r0,[pc,#148] ; [0x100ac] = 0xe000ed28
        0x00010016:    6800        .h      LDR      r0,[r0,#0]
        0x00010018:    900a        ..      STR      r0,[sp,#0x28]
        0x0001001a:    980a        ..      LDR      r0,[sp,#0x28]
        0x0001001c:    f88d002c    ..,.    STRB     r0,[sp,#0x2c]
        0x00010020:    980a        ..      LDR      r0,[sp,#0x28]
        0x00010022:    0a00        ..      LSRS     r0,r0,#8
        0x00010024:    f88d002d    ..-.    STRB     r0,[sp,#0x2d]
        0x00010028:    980a        ..      LDR      r0,[sp,#0x28]
        0x0001002a:    0c00        ..      LSRS     r0,r0,#16
        0x0001002c:    f8ad002e    ....    STRH     r0,[sp,#0x2e]
        0x00010030:    481f        .H      LDR      r0,[pc,#124] ; [0x100b0] = 0xe000ed38
        0x00010032:    6800        .h      LDR      r0,[r0,#0]
        0x00010034:    9009        ..      STR      r0,[sp,#0x24]
        0x00010036:    f89d002d    ..-.    LDRB     r0,[sp,#0x2d]
        0x0001003a:    f0100f02    ....    TST      r0,#2
        0x0001003e:    bf08        ..      IT       EQ
        0x00010040:    f04f30ff    O..0    MOVEQ    r0,#0xffffffff
        0x00010044:    d003        ..      BEQ      0x1004e ; am_util_faultisr_collect_data + 78
        0x00010046:    4621        !F      MOV      r1,r4
        0x00010048:    2006        .       MOVS     r0,#6
        0x0001004a:    f7fcf8f2    ....    BL       getStackedReg ; 0xc232
        0x0001004e:    9008        ..      STR      r0,[sp,#0x20]
        0x00010050:    4621        !F      MOV      r1,r4
        0x00010052:    2000        .       MOVS     r0,#0
        0x00010054:    f7fcf8ed    ....    BL       getStackedReg ; 0xc232
        0x00010058:    9000        ..      STR      r0,[sp,#0]
        0x0001005a:    4621        !F      MOV      r1,r4
        0x0001005c:    2001        .       MOVS     r0,#1
        0x0001005e:    f7fcf8e8    ....    BL       getStackedReg ; 0xc232
        0x00010062:    9001        ..      STR      r0,[sp,#4]
        0x00010064:    4621        !F      MOV      r1,r4
        0x00010066:    2002        .       MOVS     r0,#2
        0x00010068:    f7fcf8e3    ....    BL       getStackedReg ; 0xc232
        0x0001006c:    9002        ..      STR      r0,[sp,#8]
        0x0001006e:    4621        !F      MOV      r1,r4
        0x00010070:    2003        .       MOVS     r0,#3
        0x00010072:    f7fcf8de    ....    BL       getStackedReg ; 0xc232
        0x00010076:    9003        ..      STR      r0,[sp,#0xc]
        0x00010078:    4621        !F      MOV      r1,r4
        0x0001007a:    2004        .       MOVS     r0,#4
        0x0001007c:    f7fcf8d9    ....    BL       getStackedReg ; 0xc232
        0x00010080:    9004        ..      STR      r0,[sp,#0x10]
        0x00010082:    4621        !F      MOV      r1,r4
        0x00010084:    2005        .       MOVS     r0,#5
        0x00010086:    f7fcf8d4    ....    BL       getStackedReg ; 0xc232
        0x0001008a:    9005        ..      STR      r0,[sp,#0x14]
        0x0001008c:    4621        !F      MOV      r1,r4
        0x0001008e:    2006        .       MOVS     r0,#6
        0x00010090:    f7fcf8cf    ....    BL       getStackedReg ; 0xc232
        0x00010094:    9006        ..      STR      r0,[sp,#0x18]
        0x00010096:    4621        !F      MOV      r1,r4
        0x00010098:    2007        .       MOVS     r0,#7
        0x0001009a:    f7fcf8ca    ....    BL       getStackedReg ; 0xc232
        0x0001009e:    9007        ..      STR      r0,[sp,#0x1c]
        0x000100a0:    a90c        ..      ADD      r1,sp,#0x30
        0x000100a2:    2002        .       MOVS     r0,#2
        0x000100a4:    f7fef9da    ....    BL       am_hal_mcuctrl_info_get ; 0xe45c
        0x000100a8:    e7fe        ..      B        0x100a8 ; am_util_faultisr_collect_data + 168
    $d
        0x000100aa:    0000        ..      DCW    0
        0x000100ac:    e000ed28    (...    DCD    3758157096
        0x000100b0:    e000ed38    8...    DCD    3758157112
    $t
    i.am_util_stdio_printf
    am_util_stdio_printf
        0x000100b4:    b40f        ..      PUSH     {r0-r3}
        0x000100b6:    b570        p.      PUSH     {r4-r6,lr}
        0x000100b8:    4c09        .L      LDR      r4,[pc,#36] ; [0x100e0] = 0x1001111c
        0x000100ba:    6860        `h      LDR      r0,[r4,#4]
        0x000100bc:    2800        .(      CMP      r0,#0
        0x000100be:    bf04        ..      ITT      EQ
        0x000100c0:    bc70        p.      POPEQ    {r4-r6}
        0x000100c2:    f85dfb14    ]...    LDREQ    pc,[sp],#0x14
        0x000100c6:    aa05        ..      ADD      r2,sp,#0x14
        0x000100c8:    4806        .H      LDR      r0,[pc,#24] ; [0x100e4] = 0x100159d0
        0x000100ca:    9904        ..      LDR      r1,[sp,#0x10]
        0x000100cc:    f000f830    ..0.    BL       am_util_stdio_vsprintf ; 0x10130
        0x000100d0:    4605        .F      MOV      r5,r0
        0x000100d2:    6861        ah      LDR      r1,[r4,#4]
        0x000100d4:    4803        .H      LDR      r0,[pc,#12] ; [0x100e4] = 0x100159d0
        0x000100d6:    4788        .G      BLX      r1
        0x000100d8:    4628        (F      MOV      r0,r5
        0x000100da:    bc70        p.      POP      {r4-r6}
        0x000100dc:    f85dfb14    ]...    LDR      pc,[sp],#0x14
    $d
        0x000100e0:    1001111c    ....    DCD    268505372
        0x000100e4:    100159d0    .Y..    DCD    268523984
    $t
    i.am_util_stdio_printf_init
    am_util_stdio_printf_init
        0x000100e8:    4901        .I      LDR      r1,[pc,#4] ; [0x100f0] = 0x1001111c
        0x000100ea:    6048        H`      STR      r0,[r1,#4]
        0x000100ec:    4770        pG      BX       lr
    $d
        0x000100ee:    0000        ..      DCW    0
        0x000100f0:    1001111c    ....    DCD    268505372
    $t
    i.am_util_stdio_terminal_clear
    am_util_stdio_terminal_clear
        0x000100f4:    b538        8.      PUSH     {r3-r5,lr}
        0x000100f6:    4c0c        .L      LDR      r4,[pc,#48] ; [0x10128] = 0x1001111c
        0x000100f8:    a106        ..      ADR      r1,{pc}+0x1c ; 0x10114
        0x000100fa:    9100        ..      STR      r1,[sp,#0]
        0x000100fc:    6860        `h      LDR      r0,[r4,#4]
        0x000100fe:    2800        .(      CMP      r0,#0
        0x00010100:    bf08        ..      IT       EQ
        0x00010102:    bd38        8.      POPEQ    {r3-r5,pc}
        0x00010104:    aa01        ..      ADD      r2,sp,#4
        0x00010106:    4809        .H      LDR      r0,[pc,#36] ; [0x1012c] = 0x100159d0
        0x00010108:    f000f812    ....    BL       am_util_stdio_vsprintf ; 0x10130
        0x0001010c:    6861        ah      LDR      r1,[r4,#4]
        0x0001010e:    4807        .H      LDR      r0,[pc,#28] ; [0x1012c] = 0x100159d0
        0x00010110:    4788        .G      BLX      r1
        0x00010112:    bd38        8.      POP      {r3-r5,pc}
    $d
        0x00010114:    0a0a0a0a    ....    DCD    168430090
        0x00010118:    0a0a0a0a    ....    DCD    168430090
        0x0001011c:    0a0a0a0a    ....    DCD    168430090
        0x00010120:    0a0a0a0a    ....    DCD    168430090
        0x00010124:    00000a0a    ....    DCD    2570
        0x00010128:    1001111c    ....    DCD    268505372
        0x0001012c:    100159d0    .Y..    DCD    268523984
    $t
    i.am_util_stdio_vsprintf
    am_util_stdio_vsprintf
        0x00010130:    e92d4ff7    -..O    PUSH     {r0-r2,r4-r11,lr}
        0x00010134:    4604        .F      MOV      r4,r0
        0x00010136:    7808        .x      LDRB     r0,[r1,#0]
        0x00010138:    2500        .%      MOVS     r5,#0
        0x0001013a:    b088        ..      SUB      sp,sp,#0x20
        0x0001013c:    2800        .(      CMP      r0,#0
        0x0001013e:    f0008385    ....    BEQ.W    0x1084c ; am_util_stdio_vsprintf + 1820
        0x00010142:    bf00        ..      NOP      
        0x00010144:    b2c0        ..      UXTB     r0,r0
        0x00010146:    f04f0906    O...    MOV      r9,#6
        0x0001014a:    2825        %(      CMP      r0,#0x25
        0x0001014c:    d010        ..      BEQ      0x10170 ; am_util_stdio_vsprintf + 64
        0x0001014e:    b15c        \.      CBZ      r4,0x10168 ; am_util_stdio_vsprintf + 56
        0x00010150:    280a        .(      CMP      r0,#0xa
        0x00010152:    d106        ..      BNE      0x10162 ; am_util_stdio_vsprintf + 50
        0x00010154:    48fe        .H      LDR      r0,[pc,#1016] ; [0x10550] = 0x1001111c
        0x00010156:    7800        .x      LDRB     r0,[r0,#0]
        0x00010158:    b118        ..      CBZ      r0,0x10162 ; am_util_stdio_vsprintf + 50
        0x0001015a:    200d        .       MOVS     r0,#0xd
        0x0001015c:    f8040b01    ....    STRB     r0,[r4],#1
        0x00010160:    1c6d        m.      ADDS     r5,r5,#1
        0x00010162:    7808        .x      LDRB     r0,[r1,#0]
        0x00010164:    f8040b01    ....    STRB     r0,[r4],#1
        0x00010168:    1c49        I.      ADDS     r1,r1,#1
        0x0001016a:    1c6d        m.      ADDS     r5,r5,#1
        0x0001016c:    f000bb6a    ..j.    B.W      0x10844 ; am_util_stdio_vsprintf + 1812
        0x00010170:    2020                MOVS     r0,#0x20
        0x00010172:    9001        ..      STR      r0,[sp,#4]
        0x00010174:    2700        .'      MOVS     r7,#0
        0x00010176:    f8110f01    ....    LDRB     r0,[r1,#1]!
        0x0001017a:    46bc        .F      MOV      r12,r7
        0x0001017c:    2830        0(      CMP      r0,#0x30
        0x0001017e:    d101        ..      BNE      0x10184 ; am_util_stdio_vsprintf + 84
        0x00010180:    1c49        I.      ADDS     r1,r1,#1
        0x00010182:    9001        ..      STR      r0,[sp,#4]
        0x00010184:    2600        .&      MOVS     r6,#0
        0x00010186:    f891a000    ....    LDRB     r10,[r1,#0]
        0x0001018a:    460a        .F      MOV      r2,r1
        0x0001018c:    f10d0808    ....    ADD      r8,sp,#8
        0x00010190:    4630        0F      MOV      r0,r6
        0x00010192:    4633        3F      MOV      r3,r6
        0x00010194:    f1ba0f2d    ..-.    CMP      r10,#0x2d
        0x00010198:    d102        ..      BNE      0x101a0 ; am_util_stdio_vsprintf + 112
        0x0001019a:    2601        .&      MOVS     r6,#1
        0x0001019c:    1c4a        J.      ADDS     r2,r1,#1
        0x0001019e:    4633        3F      MOV      r3,r6
        0x000101a0:    f892a000    ....    LDRB     r10,[r2,#0]
        0x000101a4:    f1aa0a30    ..0.    SUB      r10,r10,#0x30
        0x000101a8:    f1ba0f09    ....    CMP      r10,#9
        0x000101ac:    d80f        ..      BHI      0x101ce ; am_util_stdio_vsprintf + 158
        0x000101ae:    bf00        ..      NOP      
        0x000101b0:    eb000080    ....    ADD      r0,r0,r0,LSL #2
        0x000101b4:    0040        @.      LSLS     r0,r0,#1
        0x000101b6:    f812ab01    ....    LDRB     r10,[r2],#1
        0x000101ba:    3830        08      SUBS     r0,r0,#0x30
        0x000101bc:    4450        PD      ADD      r0,r0,r10
        0x000101be:    f892a000    ....    LDRB     r10,[r2,#0]
        0x000101c2:    1c5b        [.      ADDS     r3,r3,#1
        0x000101c4:    f1aa0a30    ..0.    SUB      r10,r10,#0x30
        0x000101c8:    f1ba0f09    ....    CMP      r10,#9
        0x000101cc:    d9f0        ..      BLS      0x101b0 ; am_util_stdio_vsprintf + 128
        0x000101ce:    f1b80f00    ....    CMP      r8,#0
        0x000101d2:    bf18        ..      IT       NE
        0x000101d4:    9302        ..      STRNE    r3,[sp,#8]
        0x000101d6:    2e00        ..      CMP      r6,#0
        0x000101d8:    bf18        ..      IT       NE
        0x000101da:    4240        @B      RSBNE    r0,r0,#0
        0x000101dc:    9000        ..      STR      r0,[sp,#0]
        0x000101de:    9802        ..      LDR      r0,[sp,#8]
        0x000101e0:    180e        ..      ADDS     r6,r1,r0
        0x000101e2:    7830        0x      LDRB     r0,[r6,#0]
        0x000101e4:    2873        s(      CMP      r0,#0x73
        0x000101e6:    d037        7.      BEQ      0x10258 ; am_util_stdio_vsprintf + 296
        0x000101e8:    9900        ..      LDR      r1,[sp,#0]
        0x000101ea:    2900        .)      CMP      r1,#0
        0x000101ec:    bfbc        ..      ITT      LT
        0x000101ee:    4249        IB      RSBLT    r1,r1,#0
        0x000101f0:    9100        ..      STRLT    r1,[sp,#0]
        0x000101f2:    282e        .(      CMP      r0,#0x2e
        0x000101f4:    d003        ..      BEQ      0x101fe ; am_util_stdio_vsprintf + 206
        0x000101f6:    7830        0x      LDRB     r0,[r6,#0]
        0x000101f8:    286c        l(      CMP      r0,#0x6c
        0x000101fa:    d12d        -.      BNE      0x10258 ; am_util_stdio_vsprintf + 296
        0x000101fc:    e025        %.      B        0x1024a ; am_util_stdio_vsprintf + 282
        0x000101fe:    1c72        r.      ADDS     r2,r6,#1
        0x00010200:    2300        .#      MOVS     r3,#0
        0x00010202:    7811        .x      LDRB     r1,[r2,#0]
        0x00010204:    4616        .F      MOV      r6,r2
        0x00010206:    4699        .F      MOV      r9,r3
        0x00010208:    4618        .F      MOV      r0,r3
        0x0001020a:    292d        -)      CMP      r1,#0x2d
        0x0001020c:    d102        ..      BNE      0x10214 ; am_util_stdio_vsprintf + 228
        0x0001020e:    2301        .#      MOVS     r3,#1
        0x00010210:    1c56        V.      ADDS     r6,r2,#1
        0x00010212:    4618        .F      MOV      r0,r3
        0x00010214:    7831        1x      LDRB     r1,[r6,#0]
        0x00010216:    3930        09      SUBS     r1,r1,#0x30
        0x00010218:    2909        .)      CMP      r1,#9
        0x0001021a:    d80b        ..      BHI      0x10234 ; am_util_stdio_vsprintf + 260
        0x0001021c:    eb090189    ....    ADD      r1,r9,r9,LSL #2
        0x00010220:    0049        I.      LSLS     r1,r1,#1
        0x00010222:    f8169b01    ....    LDRB     r9,[r6],#1
        0x00010226:    3930        09      SUBS     r1,r1,#0x30
        0x00010228:    4489        .D      ADD      r9,r9,r1
        0x0001022a:    7831        1x      LDRB     r1,[r6,#0]
        0x0001022c:    1c40        @.      ADDS     r0,r0,#1
        0x0001022e:    3930        09      SUBS     r1,r1,#0x30
        0x00010230:    2909        .)      CMP      r1,#9
        0x00010232:    d9f3        ..      BLS      0x1021c ; am_util_stdio_vsprintf + 236
        0x00010234:    f1b80f00    ....    CMP      r8,#0
        0x00010238:    bf18        ..      IT       NE
        0x0001023a:    9002        ..      STRNE    r0,[sp,#8]
        0x0001023c:    2b00        .+      CMP      r3,#0
        0x0001023e:    bf18        ..      IT       NE
        0x00010240:    f1c90900    ....    RSBNE    r9,r9,#0
        0x00010244:    9802        ..      LDR      r0,[sp,#8]
        0x00010246:    1816        ..      ADDS     r6,r2,r0
        0x00010248:    e7d5        ..      B        0x101f6 ; am_util_stdio_vsprintf + 198
        0x0001024a:    f8160f01    ....    LDRB     r0,[r6,#1]!
        0x0001024e:    286c        l(      CMP      r0,#0x6c
        0x00010250:    bf04        ..      ITT      EQ
        0x00010252:    f04f0c01    O...    MOVEQ    r12,#1
        0x00010256:    1c76        v.      ADDEQ    r6,r6,#1
        0x00010258:    7830        0x      LDRB     r0,[r6,#0]
        0x0001025a:    2866        f(      CMP      r0,#0x66
        0x0001025c:    f000822a    ..*.    BEQ.W    0x106b4 ; am_util_stdio_vsprintf + 1412
        0x00010260:    dc0a        ..      BGT      0x10278 ; am_util_stdio_vsprintf + 328
        0x00010262:    2846        F(      CMP      r0,#0x46
        0x00010264:    f0008226    ..&.    BEQ.W    0x106b4 ; am_util_stdio_vsprintf + 1412
        0x00010268:    2858        X(      CMP      r0,#0x58
        0x0001026a:    d07d        }.      BEQ      0x10368 ; am_util_stdio_vsprintf + 568
        0x0001026c:    2863        c(      CMP      r0,#0x63
        0x0001026e:    d014        ..      BEQ      0x1029a ; am_util_stdio_vsprintf + 362
        0x00010270:    2864        d(      CMP      r0,#0x64
        0x00010272:    f00081b5    ....    BEQ.W    0x105e0 ; am_util_stdio_vsprintf + 1200
        0x00010276:    e00b        ..      B        0x10290 ; am_util_stdio_vsprintf + 352
        0x00010278:    2869        i(      CMP      r0,#0x69
        0x0001027a:    f00081b1    ....    BEQ.W    0x105e0 ; am_util_stdio_vsprintf + 1200
        0x0001027e:    2873        s(      CMP      r0,#0x73
        0x00010280:    d016        ..      BEQ      0x102b0 ; am_util_stdio_vsprintf + 384
        0x00010282:    2875        u(      CMP      r0,#0x75
        0x00010284:    f000810c    ....    BEQ.W    0x104a0 ; am_util_stdio_vsprintf + 880
        0x00010288:    2878        x(      CMP      r0,#0x78
        0x0001028a:    bf08        ..      IT       EQ
        0x0001028c:    2701        .'      MOVEQ    r7,#1
        0x0001028e:    d06e        n.      BEQ      0x1036e ; am_util_stdio_vsprintf + 574
        0x00010290:    2c00        .,      CMP      r4,#0
        0x00010292:    bf18        ..      IT       NE
        0x00010294:    f8040b01    ....    STRBNE   r0,[r4],#1
        0x00010298:    e007        ..      B        0x102aa ; am_util_stdio_vsprintf + 378
        0x0001029a:    980a        ..      LDR      r0,[sp,#0x28]
        0x0001029c:    2c00        .,      CMP      r4,#0
        0x0001029e:    f8101b04    ....    LDRB     r1,[r0],#4
        0x000102a2:    900a        ..      STR      r0,[sp,#0x28]
        0x000102a4:    bf18        ..      IT       NE
        0x000102a6:    f8041b01    ....    STRBNE   r1,[r4],#1
        0x000102aa:    1c6d        m.      ADDS     r5,r5,#1
        0x000102ac:    f000bac9    ....    B.W      0x10842 ; am_util_stdio_vsprintf + 1810
        0x000102b0:    990a        ..      LDR      r1,[sp,#0x28]
        0x000102b2:    2200        ."      MOVS     r2,#0
        0x000102b4:    f8510b04    Q...    LDR      r0,[r1],#4
        0x000102b8:    910a        ..      STR      r1,[sp,#0x28]
        0x000102ba:    b140        @.      CBZ      r0,0x102ce ; am_util_stdio_vsprintf + 414
        0x000102bc:    7803        .x      LDRB     r3,[r0,#0]
        0x000102be:    1c41        A.      ADDS     r1,r0,#1
        0x000102c0:    b12b        +.      CBZ      r3,0x102ce ; am_util_stdio_vsprintf + 414
        0x000102c2:    bf00        ..      NOP      
        0x000102c4:    f8113b01    ...;    LDRB     r3,[r1],#1
        0x000102c8:    1c52        R.      ADDS     r2,r2,#1
        0x000102ca:    2b00        .+      CMP      r3,#0
        0x000102cc:    d1fa        ..      BNE      0x102c4 ; am_util_stdio_vsprintf + 404
        0x000102ce:    9900        ..      LDR      r1,[sp,#0]
        0x000102d0:    2900        .)      CMP      r1,#0
        0x000102d2:    dd1e        ..      BLE      0x10312 ; am_util_stdio_vsprintf + 482
        0x000102d4:    428a        .B      CMP      r2,r1
        0x000102d6:    d21c        ..      BCS      0x10312 ; am_util_stdio_vsprintf + 482
        0x000102d8:    1a8b        ..      SUBS     r3,r1,r2
        0x000102da:    9f01        ..      LDR      r7,[sp,#4]
        0x000102dc:    4621        !F      MOV      r1,r4
        0x000102de:    f04f0c00    O...    MOV      r12,#0
        0x000102e2:    2b00        .+      CMP      r3,#0
        0x000102e4:    bfc4        ..      ITT      GT
        0x000102e6:    1e5b        [.      SUBGT    r3,r3,#1
        0x000102e8:    f1b33fff    ...?    CMPGT    r3,#0xffffffff
        0x000102ec:    dd09        ..      BLE      0x10302 ; am_util_stdio_vsprintf + 466
        0x000102ee:    2900        .)      CMP      r1,#0
        0x000102f0:    bf18        ..      IT       NE
        0x000102f2:    f8017b01    ...{    STRBNE   r7,[r1],#1
        0x000102f6:    1e5b        [.      SUBS     r3,r3,#1
        0x000102f8:    f10c0c01    ....    ADD      r12,r12,#1
        0x000102fc:    f1b33fff    ...?    CMP      r3,#0xffffffff
        0x00010300:    dcf5        ..      BGT      0x102ee ; am_util_stdio_vsprintf + 446
        0x00010302:    2c00        .,      CMP      r4,#0
        0x00010304:    bf14        ..      ITE      NE
        0x00010306:    4661        aF      MOVNE    r1,r12
        0x00010308:    2100        .!      MOVEQ    r1,#0
        0x0001030a:    440c        .D      ADD      r4,r4,r1
        0x0001030c:    2100        .!      MOVS     r1,#0
        0x0001030e:    4465        eD      ADD      r5,r5,r12
        0x00010310:    9100        ..      STR      r1,[sp,#0]
        0x00010312:    7801        .x      LDRB     r1,[r0,#0]
        0x00010314:    b139        9.      CBZ      r1,0x10326 ; am_util_stdio_vsprintf + 502
        0x00010316:    b10c        ..      CBZ      r4,0x1031c ; am_util_stdio_vsprintf + 492
        0x00010318:    f8041b01    ....    STRB     r1,[r4],#1
        0x0001031c:    f8101f01    ....    LDRB     r1,[r0,#1]!
        0x00010320:    1c6d        m.      ADDS     r5,r5,#1
        0x00010322:    2900        .)      CMP      r1,#0
        0x00010324:    d1f7        ..      BNE      0x10316 ; am_util_stdio_vsprintf + 486
        0x00010326:    9800        ..      LDR      r0,[sp,#0]
        0x00010328:    2800        .(      CMP      r0,#0
        0x0001032a:    bf1c        ..      ITT      NE
        0x0001032c:    4240        @B      RSBNE    r0,r0,#0
        0x0001032e:    4282        .B      CMPNE    r2,r0
        0x00010330:    f0808287    ....    BCS.W    0x10842 ; am_util_stdio_vsprintf + 1810
        0x00010334:    1a82        ..      SUBS     r2,r0,r2
        0x00010336:    2000        .       MOVS     r0,#0
        0x00010338:    9b01        ..      LDR      r3,[sp,#4]
        0x0001033a:    4621        !F      MOV      r1,r4
        0x0001033c:    2a00        .*      CMP      r2,#0
        0x0001033e:    bfc4        ..      ITT      GT
        0x00010340:    1e52        R.      SUBGT    r2,r2,#1
        0x00010342:    f1b23fff    ...?    CMPGT    r2,#0xffffffff
        0x00010346:    dd08        ..      BLE      0x1035a ; am_util_stdio_vsprintf + 554
        0x00010348:    2900        .)      CMP      r1,#0
        0x0001034a:    bf18        ..      IT       NE
        0x0001034c:    f8013b01    ...;    STRBNE   r3,[r1],#1
        0x00010350:    1c40        @.      ADDS     r0,r0,#1
        0x00010352:    1e52        R.      SUBS     r2,r2,#1
        0x00010354:    f1b23fff    ...?    CMP      r2,#0xffffffff
        0x00010358:    dcf6        ..      BGT      0x10348 ; am_util_stdio_vsprintf + 536
        0x0001035a:    2c00        .,      CMP      r4,#0
        0x0001035c:    bf14        ..      ITE      NE
        0x0001035e:    4601        .F      MOVNE    r1,r0
        0x00010360:    2100        .!      MOVEQ    r1,#0
        0x00010362:    440c        .D      ADD      r4,r4,r1
        0x00010364:    4405        .D      ADD      r5,r5,r0
        0x00010366:    e000        ..      B        0x1036a ; am_util_stdio_vsprintf + 570
        0x00010368:    e001        ..      B        0x1036e ; am_util_stdio_vsprintf + 574
        0x0001036a:    f000ba6a    ..j.    B.W      0x10842 ; am_util_stdio_vsprintf + 1810
        0x0001036e:    f1bc0f00    ....    CMP      r12,#0
        0x00010372:    d007        ..      BEQ      0x10384 ; am_util_stdio_vsprintf + 596
        0x00010374:    980a        ..      LDR      r0,[sp,#0x28]
        0x00010376:    1dc0        ..      ADDS     r0,r0,#7
        0x00010378:    f0200207     ...    BIC      r2,r0,#7
        0x0001037c:    e8f20102    ....    LDRD     r0,r1,[r2],#8
        0x00010380:    920a        ..      STR      r2,[sp,#0x28]
        0x00010382:    e004        ..      B        0x1038e ; am_util_stdio_vsprintf + 606
        0x00010384:    990a        ..      LDR      r1,[sp,#0x28]
        0x00010386:    f8510b04    Q...    LDR      r0,[r1],#4
        0x0001038a:    910a        ..      STR      r1,[sp,#0x28]
        0x0001038c:    2100        .!      MOVS     r1,#0
        0x0001038e:    9a00        ..      LDR      r2,[sp,#0]
        0x00010390:    b38a        ..      CBZ      r2,0x103f6 ; am_util_stdio_vsprintf + 710
        0x00010392:    460b        .F      MOV      r3,r1
        0x00010394:    4602        .F      MOV      r2,r0
        0x00010396:    ea500c03    P...    ORRS     r12,r0,r3
        0x0001039a:    bf0c        ..      ITE      EQ
        0x0001039c:    f04f0c01    O...    MOVEQ    r12,#1
        0x000103a0:    f04f0c00    O...    MOVNE    r12,#0
        0x000103a4:    d008        ..      BEQ      0x103b8 ; am_util_stdio_vsprintf + 648
        0x000103a6:    0912        ..      LSRS     r2,r2,#4
        0x000103a8:    ea427203    B..r    ORR      r2,r2,r3,LSL #28
        0x000103ac:    091b        ..      LSRS     r3,r3,#4
        0x000103ae:    f10c0c01    ....    ADD      r12,r12,#1
        0x000103b2:    ea520803    R...    ORRS     r8,r2,r3
        0x000103b6:    d1f6        ..      BNE      0x103a6 ; am_util_stdio_vsprintf + 630
        0x000103b8:    9a00        ..      LDR      r2,[sp,#0]
        0x000103ba:    9b01        ..      LDR      r3,[sp,#4]
        0x000103bc:    eba2020c    ....    SUB      r2,r2,r12
        0x000103c0:    46a4        .F      MOV      r12,r4
        0x000103c2:    f04f0800    O...    MOV      r8,#0
        0x000103c6:    2a00        .*      CMP      r2,#0
        0x000103c8:    bfc4        ..      ITT      GT
        0x000103ca:    1e52        R.      SUBGT    r2,r2,#1
        0x000103cc:    f1b23fff    ...?    CMPGT    r2,#0xffffffff
        0x000103d0:    dd0b        ..      BLE      0x103ea ; am_util_stdio_vsprintf + 698
        0x000103d2:    bf00        ..      NOP      
        0x000103d4:    f1bc0f00    ....    CMP      r12,#0
        0x000103d8:    bf18        ..      IT       NE
        0x000103da:    f80c3b01    ...;    STRBNE   r3,[r12],#1
        0x000103de:    1e52        R.      SUBS     r2,r2,#1
        0x000103e0:    f1080801    ....    ADD      r8,r8,#1
        0x000103e4:    f1b23fff    ...?    CMP      r2,#0xffffffff
        0x000103e8:    dcf4        ..      BGT      0x103d4 ; am_util_stdio_vsprintf + 676
        0x000103ea:    2c00        .,      CMP      r4,#0
        0x000103ec:    bf14        ..      ITE      NE
        0x000103ee:    4642        BF      MOVNE    r2,r8
        0x000103f0:    2200        ."      MOVEQ    r2,#0
        0x000103f2:    4414        .D      ADD      r4,r4,r2
        0x000103f4:    4445        ED      ADD      r5,r5,r8
        0x000103f6:    46a0        .F      MOV      r8,r4
        0x000103f8:    f04f0c00    O...    MOV      r12,#0
        0x000103fc:    ea500201    P...    ORRS     r2,r0,r1
        0x00010400:    d106        ..      BNE      0x10410 ; am_util_stdio_vsprintf + 736
        0x00010402:    bf00        ..      NOP      
        0x00010404:    f04f0230    O.0.    MOV      r2,#0x30
        0x00010408:    f88d200c    ...     STRB     r2,[sp,#0xc]
        0x0001040c:    f04f0c01    O...    MOV      r12,#1
        0x00010410:    bf18        ..      IT       NE
        0x00010412:    ab03        ..      ADDNE    r3,sp,#0xc
        0x00010414:    d017        ..      BEQ      0x10446 ; am_util_stdio_vsprintf + 790
        0x00010416:    bf00        ..      NOP      
        0x00010418:    f000020f    ....    AND      r2,r0,#0xf
        0x0001041c:    2a09        .*      CMP      r2,#9
        0x0001041e:    d906        ..      BLS      0x1042e ; am_util_stdio_vsprintf + 766
        0x00010420:    2f00        ./      CMP      r7,#0
        0x00010422:    bf14        ..      ITE      NE
        0x00010424:    f04f0927    O.'.    MOVNE    r9,#0x27
        0x00010428:    f04f0907    O...    MOVEQ    r9,#7
        0x0001042c:    444a        JD      ADD      r2,r2,r9
        0x0001042e:    3230        02      ADDS     r2,r2,#0x30
        0x00010430:    0900        ..      LSRS     r0,r0,#4
        0x00010432:    f803200c    ...     STRB     r2,[r3,r12]
        0x00010436:    ea407001    @..p    ORR      r0,r0,r1,LSL #28
        0x0001043a:    0909        ..      LSRS     r1,r1,#4
        0x0001043c:    f10c0c01    ....    ADD      r12,r12,#1
        0x00010440:    ea500201    P...    ORRS     r2,r0,r1
        0x00010444:    d1e8        ..      BNE      0x10418 ; am_util_stdio_vsprintf + 744
        0x00010446:    f1b80f00    ....    CMP      r8,#0
        0x0001044a:    d022        ".      BEQ      0x10492 ; am_util_stdio_vsprintf + 866
        0x0001044c:    f1ac0301    ....    SUB      r3,r12,#1
        0x00010450:    f1bc0200    ....    SUBS     r2,r12,#0
        0x00010454:    dd1a        ..      BLE      0x1048c ; am_util_stdio_vsprintf + 860
        0x00010456:    a803        ..      ADD      r0,sp,#0xc
        0x00010458:    4418        .D      ADD      r0,r0,r3
        0x0001045a:    1c41        A.      ADDS     r1,r0,#1
        0x0001045c:    f1a80001    ....    SUB      r0,r8,#1
        0x00010460:    f0130f01    ....    TST      r3,#1
        0x00010464:    d103        ..      BNE      0x1046e ; am_util_stdio_vsprintf + 830
        0x00010466:    f8117d01    ...}    LDRB     r7,[r1,#-1]!
        0x0001046a:    f8007f01    ....    STRB     r7,[r0,#1]!
        0x0001046e:    1052        R.      ASRS     r2,r2,#1
        0x00010470:    d009        ..      BEQ      0x10486 ; am_util_stdio_vsprintf + 854
        0x00010472:    bf00        ..      NOP      
        0x00010474:    f8117c01    ...|    LDRB     r7,[r1,#-1]
        0x00010478:    7047        Gp      STRB     r7,[r0,#1]
        0x0001047a:    f8117d02    ...}    LDRB     r7,[r1,#-2]!
        0x0001047e:    f8007f02    ....    STRB     r7,[r0,#2]!
        0x00010482:    1e52        R.      SUBS     r2,r2,#1
        0x00010484:    d1f6        ..      BNE      0x10474 ; am_util_stdio_vsprintf + 836
        0x00010486:    18e0        ..      ADDS     r0,r4,r3
        0x00010488:    f1000801    ....    ADD      r8,r0,#1
        0x0001048c:    2000        .       MOVS     r0,#0
        0x0001048e:    f8880000    ....    STRB     r0,[r8,#0]
        0x00010492:    2c00        .,      CMP      r4,#0
        0x00010494:    bf18        ..      IT       NE
        0x00010496:    4464        dD      ADDNE    r4,r4,r12
        0x00010498:    4465        eD      ADD      r5,r5,r12
        0x0001049a:    f000b9d2    ....    B.W      0x10842 ; am_util_stdio_vsprintf + 1810
        0x0001049e:    bf00        ..      NOP      
        0x000104a0:    980a        ..      LDR      r0,[sp,#0x28]
        0x000104a2:    f1bc0f00    ....    CMP      r12,#0
        0x000104a6:    d006        ..      BEQ      0x104b6 ; am_util_stdio_vsprintf + 902
        0x000104a8:    1dc0        ..      ADDS     r0,r0,#7
        0x000104aa:    f0200107     ...    BIC      r1,r0,#7
        0x000104ae:    e8f1e002    ....    LDRD     lr,r0,[r1],#8
        0x000104b2:    910a        ..      STR      r1,[sp,#0x28]
        0x000104b4:    e003        ..      B        0x104be ; am_util_stdio_vsprintf + 910
        0x000104b6:    f850eb04    P...    LDR      lr,[r0],#4
        0x000104ba:    900a        ..      STR      r0,[sp,#0x28]
        0x000104bc:    2000        .       MOVS     r0,#0
        0x000104be:    9003        ..      STR      r0,[sp,#0xc]
        0x000104c0:    9800        ..      LDR      r0,[sp,#0]
        0x000104c2:    2800        .(      CMP      r0,#0
        0x000104c4:    d07e        ~.      BEQ      0x105c4 ; am_util_stdio_vsprintf + 1172
        0x000104c6:    9903        ..      LDR      r1,[sp,#0xc]
        0x000104c8:    4670        pF      MOV      r0,lr
        0x000104ca:    ea5e0201    ^...    ORRS     r2,lr,r1
        0x000104ce:    bf0e        ..      ITEE     EQ
        0x000104d0:    2301        .#      MOVEQ    r3,#1
        0x000104d2:    2300        .#      MOVNE    r3,#0
        0x000104d4:    f04f0c00    O...    MOVNE    r12,#0
        0x000104d8:    d05e        ^.      BEQ      0x10598 ; am_util_stdio_vsprintf + 1128
        0x000104da:    b3c1        ..      CBZ      r1,0x1054e ; am_util_stdio_vsprintf + 1054
        0x000104dc:    084a        J.      LSRS     r2,r1,#1
        0x000104de:    ea4f0990    O...    LSR      r9,r0,#2
        0x000104e2:    ea4f0730    O.0.    RRX      r7,r0
        0x000104e6:    ea497881    I..x    ORR      r8,r9,r1,LSL #30
        0x000104ea:    eb170708    ....    ADDS     r7,r7,r8
        0x000104ee:    eb420291    B...    ADC      r2,r2,r1,LSR #2
        0x000104f2:    ea4f1917    O...    LSR      r9,r7,#4
        0x000104f6:    ea497802    I..x    ORR      r8,r9,r2,LSL #28
        0x000104fa:    eb180707    ....    ADDS     r7,r8,r7
        0x000104fe:    eb421812    B...    ADC      r8,r2,r2,LSR #4
        0x00010502:    ea4f2917    O..)    LSR      r9,r7,#8
        0x00010506:    ea496208    I..b    ORR      r2,r9,r8,LSL #24
        0x0001050a:    19d2        ..      ADDS     r2,r2,r7
        0x0001050c:    eb482718    H..'    ADC      r7,r8,r8,LSR #8
        0x00010510:    ea4f4912    O..I    LSR      r9,r2,#16
        0x00010514:    ea494807    I..H    ORR      r8,r9,r7,LSL #16
        0x00010518:    eb180802    ....    ADDS     r8,r8,r2
        0x0001051c:    eb474217    G..B    ADC      r2,r7,r7,LSR #16
        0x00010520:    eb180702    ....    ADDS     r7,r8,r2
        0x00010524:    eb42020c    B...    ADC      r2,r2,r12
        0x00010528:    08ff        ..      LSRS     r7,r7,#3
        0x0001052a:    ea477742    G.Bw    ORR      r7,r7,r2,LSL #29
        0x0001052e:    f04f080a    O...    MOV      r8,#0xa
        0x00010532:    fba7ab08    ....    UMULL    r10,r11,r7,r8
        0x00010536:    08d2        ..      LSRS     r2,r2,#3
        0x00010538:    fb02b808    ....    MLA      r8,r2,r8,r11
        0x0001053c:    f04f0900    O...    MOV      r9,#0
        0x00010540:    fb078909    ....    MLA      r9,r7,r9,r8
        0x00010544:    ebb0080a    ....    SUBS     r8,r0,r10
        0x00010548:    eb610009    a...    SBC      r0,r1,r9
        0x0001054c:    e002        ..      B        0x10554 ; am_util_stdio_vsprintf + 1060
        0x0001054e:    e00c        ..      B        0x1056a ; am_util_stdio_vsprintf + 1082
    $d
        0x00010550:    1001111c    ....    DCD    268505372
    $t
        0x00010554:    f1180106    ....    ADDS     r1,r8,#6
        0x00010558:    f1400800    @...    ADC      r8,r0,#0
        0x0001055c:    0909        ..      LSRS     r1,r1,#4
        0x0001055e:    ea417008    A..p    ORR      r0,r1,r8,LSL #28
        0x00010562:    19c0        ..      ADDS     r0,r0,r7
        0x00010564:    eb421118    B...    ADC      r1,r2,r8,LSR #4
        0x00010568:    e012        ..      B        0x10590 ; am_util_stdio_vsprintf + 1120
        0x0001056a:    0841        A.      LSRS     r1,r0,#1
        0x0001056c:    eb010190    ....    ADD      r1,r1,r0,LSR #2
        0x00010570:    eb011111    ....    ADD      r1,r1,r1,LSR #4
        0x00010574:    eb012111    ...!    ADD      r1,r1,r1,LSR #8
        0x00010578:    eb014111    ...A    ADD      r1,r1,r1,LSR #16
        0x0001057c:    08c9        ..      LSRS     r1,r1,#3
        0x0001057e:    424a        JB      RSBS     r2,r1,#0
        0x00010580:    eb020282    ....    ADD      r2,r2,r2,LSL #2
        0x00010584:    eb000042    ..B.    ADD      r0,r0,r2,LSL #1
        0x00010588:    1d80        ..      ADDS     r0,r0,#6
        0x0001058a:    eb011010    ....    ADD      r0,r1,r0,LSR #4
        0x0001058e:    4661        aF      MOV      r1,r12
        0x00010590:    1c5b        [.      ADDS     r3,r3,#1
        0x00010592:    ea500201    P...    ORRS     r2,r0,r1
        0x00010596:    d1a0        ..      BNE      0x104da ; am_util_stdio_vsprintf + 938
        0x00010598:    9800        ..      LDR      r0,[sp,#0]
        0x0001059a:    2100        .!      MOVS     r1,#0
        0x0001059c:    1ac2        ..      SUBS     r2,r0,r3
        0x0001059e:    9b01        ..      LDR      r3,[sp,#4]
        0x000105a0:    4620         F      MOV      r0,r4
        0x000105a2:    2a00        .*      CMP      r2,#0
        0x000105a4:    bfc4        ..      ITT      GT
        0x000105a6:    1e52        R.      SUBGT    r2,r2,#1
        0x000105a8:    f1b23fff    ...?    CMPGT    r2,#0xffffffff
        0x000105ac:    dd08        ..      BLE      0x105c0 ; am_util_stdio_vsprintf + 1168
        0x000105ae:    2800        .(      CMP      r0,#0
        0x000105b0:    bf18        ..      IT       NE
        0x000105b2:    f8003b01    ...;    STRBNE   r3,[r0],#1
        0x000105b6:    1c49        I.      ADDS     r1,r1,#1
        0x000105b8:    1e52        R.      SUBS     r2,r2,#1
        0x000105ba:    f1b23fff    ...?    CMP      r2,#0xffffffff
        0x000105be:    dcf6        ..      BGT      0x105ae ; am_util_stdio_vsprintf + 1150
        0x000105c0:    2c00        .,      CMP      r4,#0
        0x000105c2:    e000        ..      B        0x105c6 ; am_util_stdio_vsprintf + 1174
        0x000105c4:    e004        ..      B        0x105d0 ; am_util_stdio_vsprintf + 1184
        0x000105c6:    bf14        ..      ITE      NE
        0x000105c8:    4608        .F      MOVNE    r0,r1
        0x000105ca:    2000        .       MOVEQ    r0,#0
        0x000105cc:    4404        .D      ADD      r4,r4,r0
        0x000105ce:    440d        .D      ADD      r5,r5,r1
        0x000105d0:    4622        "F      MOV      r2,r4
        0x000105d2:    4670        pF      MOV      r0,lr
        0x000105d4:    9903        ..      LDR      r1,[sp,#0xc]
        0x000105d6:    f001fb01    ....    BL       uint64_to_str ; 0x11bdc
        0x000105da:    bbdc        ..      CBNZ     r4,0x10654 ; am_util_stdio_vsprintf + 1316
        0x000105dc:    4405        .D      ADD      r5,r5,r0
        0x000105de:    e130        0.      B        0x10842 ; am_util_stdio_vsprintf + 1810
        0x000105e0:    980a        ..      LDR      r0,[sp,#0x28]
        0x000105e2:    f1bc0f00    ....    CMP      r12,#0
        0x000105e6:    d006        ..      BEQ      0x105f6 ; am_util_stdio_vsprintf + 1222
        0x000105e8:    1dc0        ..      ADDS     r0,r0,#7
        0x000105ea:    f0200007     ...    BIC      r0,r0,#7
        0x000105ee:    e8f08702    ....    LDRD     r8,r7,[r0],#8
        0x000105f2:    900a        ..      STR      r0,[sp,#0x28]
        0x000105f4:    e004        ..      B        0x10600 ; am_util_stdio_vsprintf + 1232
        0x000105f6:    f8508b04    P...    LDR      r8,[r0],#4
        0x000105fa:    900a        ..      STR      r0,[sp,#0x28]
        0x000105fc:    ea4f77e8    O..w    ASR      r7,r8,#31
        0x00010600:    2f00        ./      CMP      r7,#0
        0x00010602:    bfa8        ..      IT       GE
        0x00010604:    f04f0900    O...    MOVGE    r9,#0
        0x00010608:    da06        ..      BGE      0x10618 ; am_util_stdio_vsprintf + 1256
        0x0001060a:    2000        .       MOVS     r0,#0
        0x0001060c:    f1d80800    ....    RSBS     r8,r8,#0
        0x00010610:    eb600707    `...    SBC      r7,r0,r7
        0x00010614:    f04f0901    O...    MOV      r9,#1
        0x00010618:    9800        ..      LDR      r0,[sp,#0]
        0x0001061a:    b3d8        ..      CBZ      r0,0x10694 ; am_util_stdio_vsprintf + 1380
        0x0001061c:    4640        @F      MOV      r0,r8
        0x0001061e:    0039        9.      MOVS     r1,r7
        0x00010620:    d503        ..      BPL      0x1062a ; am_util_stdio_vsprintf + 1274
        0x00010622:    2200        ."      MOVS     r2,#0
        0x00010624:    4240        @B      RSBS     r0,r0,#0
        0x00010626:    eb620107    b...    SBC      r1,r2,r7
        0x0001062a:    f001f94f    ..O.    BL       ndigits_in_u64 ; 0x118cc
        0x0001062e:    9900        ..      LDR      r1,[sp,#0]
        0x00010630:    1a0a        ..      SUBS     r2,r1,r0
        0x00010632:    f1b90f00    ....    CMP      r9,#0
        0x00010636:    d008        ..      BEQ      0x1064a ; am_util_stdio_vsprintf + 1306
        0x00010638:    9801        ..      LDR      r0,[sp,#4]
        0x0001063a:    1e52        R.      SUBS     r2,r2,#1
        0x0001063c:    2830        0(      CMP      r0,#0x30
        0x0001063e:    d104        ..      BNE      0x1064a ; am_util_stdio_vsprintf + 1306
        0x00010640:    b114        ..      CBZ      r4,0x10648 ; am_util_stdio_vsprintf + 1304
        0x00010642:    202d        -       MOVS     r0,#0x2d
        0x00010644:    f8040b01    ....    STRB     r0,[r4],#1
        0x00010648:    1c6d        m.      ADDS     r5,r5,#1
        0x0001064a:    2100        .!      MOVS     r1,#0
        0x0001064c:    4620         F      MOV      r0,r4
        0x0001064e:    9b01        ..      LDR      r3,[sp,#4]
        0x00010650:    2a00        .*      CMP      r2,#0
        0x00010652:    e000        ..      B        0x10656 ; am_util_stdio_vsprintf + 1318
        0x00010654:    e02c        ,.      B        0x106b0 ; am_util_stdio_vsprintf + 1408
        0x00010656:    bfc4        ..      ITT      GT
        0x00010658:    1e52        R.      SUBGT    r2,r2,#1
        0x0001065a:    f1b23fff    ...?    CMPGT    r2,#0xffffffff
        0x0001065e:    dd08        ..      BLE      0x10672 ; am_util_stdio_vsprintf + 1346
        0x00010660:    2800        .(      CMP      r0,#0
        0x00010662:    bf18        ..      IT       NE
        0x00010664:    f8003b01    ...;    STRBNE   r3,[r0],#1
        0x00010668:    1c49        I.      ADDS     r1,r1,#1
        0x0001066a:    1e52        R.      SUBS     r2,r2,#1
        0x0001066c:    f1b23fff    ...?    CMP      r2,#0xffffffff
        0x00010670:    dcf6        ..      BGT      0x10660 ; am_util_stdio_vsprintf + 1328
        0x00010672:    2c00        .,      CMP      r4,#0
        0x00010674:    bf14        ..      ITE      NE
        0x00010676:    4608        .F      MOVNE    r0,r1
        0x00010678:    2000        .       MOVEQ    r0,#0
        0x0001067a:    4404        .D      ADD      r4,r4,r0
        0x0001067c:    440d        .D      ADD      r5,r5,r1
        0x0001067e:    f1b90f00    ....    CMP      r9,#0
        0x00010682:    d00e        ..      BEQ      0x106a2 ; am_util_stdio_vsprintf + 1394
        0x00010684:    9801        ..      LDR      r0,[sp,#4]
        0x00010686:    2820         (      CMP      r0,#0x20
        0x00010688:    d10b        ..      BNE      0x106a2 ; am_util_stdio_vsprintf + 1394
        0x0001068a:    b14c        L.      CBZ      r4,0x106a0 ; am_util_stdio_vsprintf + 1392
        0x0001068c:    202d        -       MOVS     r0,#0x2d
        0x0001068e:    f8040b01    ....    STRB     r0,[r4],#1
        0x00010692:    e005        ..      B        0x106a0 ; am_util_stdio_vsprintf + 1392
        0x00010694:    e7ff        ..      B        0x10696 ; am_util_stdio_vsprintf + 1382
        0x00010696:    f1b90f00    ....    CMP      r9,#0
        0x0001069a:    d002        ..      BEQ      0x106a2 ; am_util_stdio_vsprintf + 1394
        0x0001069c:    2c00        .,      CMP      r4,#0
        0x0001069e:    d1f5        ..      BNE      0x1068c ; am_util_stdio_vsprintf + 1372
        0x000106a0:    1c6d        m.      ADDS     r5,r5,#1
        0x000106a2:    4622        "F      MOV      r2,r4
        0x000106a4:    4640        @F      MOV      r0,r8
        0x000106a6:    4639        9F      MOV      r1,r7
        0x000106a8:    f001fa98    ....    BL       uint64_to_str ; 0x11bdc
        0x000106ac:    2c00        .,      CMP      r4,#0
        0x000106ae:    d095        ..      BEQ      0x105dc ; am_util_stdio_vsprintf + 1196
        0x000106b0:    4404        .D      ADD      r4,r4,r0
        0x000106b2:    e793        ..      B        0x105dc ; am_util_stdio_vsprintf + 1196
        0x000106b4:    2c00        .,      CMP      r4,#0
        0x000106b6:    d07d        }.      BEQ      0x107b4 ; am_util_stdio_vsprintf + 1668
        0x000106b8:    980a        ..      LDR      r0,[sp,#0x28]
        0x000106ba:    1dc0        ..      ADDS     r0,r0,#7
        0x000106bc:    f0200007     ...    BIC      r0,r0,#7
        0x000106c0:    ecb00b02    ....    VLDM     r0!,{d0}
        0x000106c4:    900a        ..      STR      r0,[sp,#0x28]
        0x000106c6:    ec510b10    Q...    VMOV     r0,r1,d0
        0x000106ca:    f001fb1b    ....    BL       __aeabi_d2f ; 0x11d04
        0x000106ce:    ee000a10    ....    VMOV     s0,r0
        0x000106d2:    f04f0a14    O...    MOV      r10,#0x14
        0x000106d6:    4627        'F      MOV      r7,r4
        0x000106d8:    eeb50ac0    ....    VCMPE.F32 s0,#0.0
        0x000106dc:    f8c4a000    ....    STR      r10,[r4,#0]
        0x000106e0:    eef1fa10    ....    VMRS     APSR_nzcv,FPSCR
        0x000106e4:    d103        ..      BNE      0x106ee ; am_util_stdio_vsprintf + 1470
        0x000106e6:    485f        _H      LDR      r0,[pc,#380] ; [0x10864] = 0x302e30
        0x000106e8:    6020         `      STR      r0,[r4,#0]
        0x000106ea:    2003        .       MOVS     r0,#3
        0x000106ec:    e0a7        ..      B        0x1083e ; am_util_stdio_vsprintf + 1806
        0x000106ee:    ee100a10    ....    VMOV     r0,s0
        0x000106f2:    f04f0800    O...    MOV      r8,#0
        0x000106f6:    46a3        .F      MOV      r11,r4
        0x000106f8:    f3c051c7    ...Q    UBFX     r1,r0,#23,#8
        0x000106fc:    f020427f     ..B    BIC      r2,r0,#0xff000000
        0x00010700:    397f        .9      SUBS     r1,r1,#0x7f
        0x00010702:    f4420200    B...    ORR      r2,r2,#0x800000
        0x00010706:    4643        CF      MOV      r3,r8
        0x00010708:    291f        .)      CMP      r1,#0x1f
        0x0001070a:    da7d        }.      BGE      0x10808 ; am_util_stdio_vsprintf + 1752
        0x0001070c:    f1110f17    ....    CMN      r1,#0x17
        0x00010710:    db7b        {.      BLT      0x1080a ; am_util_stdio_vsprintf + 1754
        0x00010712:    2917        .)      CMP      r1,#0x17
        0x00010714:    bfa4        ..      ITT      GE
        0x00010716:    3917        .9      SUBGE    r1,r1,#0x17
        0x00010718:    fa02f301    ....    LSLGE    r3,r2,r1
        0x0001071c:    da0e        ..      BGE      0x1073c ; am_util_stdio_vsprintf + 1548
        0x0001071e:    2900        .)      CMP      r1,#0
        0x00010720:    bfbc        ..      ITT      LT
        0x00010722:    43c9        .C      MVNLT    r1,r1
        0x00010724:    fa22f801    "...    LSRLT    r8,r2,r1
        0x00010728:    db08        ..      BLT      0x1073c ; am_util_stdio_vsprintf + 1548
        0x0001072a:    f1c10317    ....    RSB      r3,r1,#0x17
        0x0001072e:    fa42f303    B...    ASR      r3,r2,r3
        0x00010732:    1c49        I.      ADDS     r1,r1,#1
        0x00010734:    fa02f101    ....    LSL      r1,r2,r1
        0x00010738:    f021487f    !..H    BIC      r8,r1,#0xff000000
        0x0001073c:    2800        .(      CMP      r0,#0
        0x0001073e:    da03        ..      BGE      0x10748 ; am_util_stdio_vsprintf + 1560
        0x00010740:    202d        -       MOVS     r0,#0x2d
        0x00010742:    7038        8p      STRB     r0,[r7,#0]
        0x00010744:    f10b0701    ....    ADD      r7,r11,#1
        0x00010748:    2b00        .+      CMP      r3,#0
        0x0001074a:    bf04        ..      ITT      EQ
        0x0001074c:    2030        0       MOVEQ    r0,#0x30
        0x0001074e:    f8070b01    ....    STRBEQ   r0,[r7],#1
        0x00010752:    d015        ..      BEQ      0x10780 ; am_util_stdio_vsprintf + 1616
        0x00010754:    dd06        ..      BLE      0x10764 ; am_util_stdio_vsprintf + 1588
        0x00010756:    463a        :F      MOV      r2,r7
        0x00010758:    4618        .F      MOV      r0,r3
        0x0001075a:    ea4f71e3    O..q    ASR      r1,r3,#31
        0x0001075e:    f001fa3d    ..=.    BL       uint64_to_str ; 0x11bdc
        0x00010762:    e007        ..      B        0x10774 ; am_util_stdio_vsprintf + 1604
        0x00010764:    202d        -       MOVS     r0,#0x2d
        0x00010766:    f8070b01    ....    STRB     r0,[r7],#1
        0x0001076a:    4258        XB      RSBS     r0,r3,#0
        0x0001076c:    463a        :F      MOV      r2,r7
        0x0001076e:    17c1        ..      ASRS     r1,r0,#31
        0x00010770:    f001fa34    ..4.    BL       uint64_to_str ; 0x11bdc
        0x00010774:    7838        8x      LDRB     r0,[r7,#0]
        0x00010776:    b118        ..      CBZ      r0,0x10780 ; am_util_stdio_vsprintf + 1616
        0x00010778:    f8170f01    ....    LDRB     r0,[r7,#1]!
        0x0001077c:    2800        .(      CMP      r0,#0
        0x0001077e:    d1fb        ..      BNE      0x10778 ; am_util_stdio_vsprintf + 1608
        0x00010780:    202e        .       MOVS     r0,#0x2e
        0x00010782:    1c7a        z.      ADDS     r2,r7,#1
        0x00010784:    7038        8p      STRB     r0,[r7,#0]
        0x00010786:    f1b80f00    ....    CMP      r8,#0
        0x0001078a:    d041        A.      BEQ      0x10810 ; am_util_stdio_vsprintf + 1760
        0x0001078c:    eba2000b    ....    SUB      r0,r2,r11
        0x00010790:    ebaa0000    ....    SUB      r0,r10,r0
        0x00010794:    f1a00c01    ....    SUB      r12,r0,#1
        0x00010798:    45cc        .E      CMP      r12,r9
        0x0001079a:    bfc8        ..      IT       GT
        0x0001079c:    46cc        .F      MOVGT    r12,r9
        0x0001079e:    f1bc0f00    ....    CMP      r12,#0
        0x000107a2:    dd11        ..      BLE      0x107c8 ; am_util_stdio_vsprintf + 1688
        0x000107a4:    4617        .F      MOV      r7,r2
        0x000107a6:    4660        `F      MOV      r0,r12
        0x000107a8:    f05f0330    _.0.    MOVS.W   r3,#0x30
        0x000107ac:    eb080188    ....    ADD      r1,r8,r8,LSL #2
        0x000107b0:    0049        I.      LSLS     r1,r1,#1
        0x000107b2:    e000        ..      B        0x107b6 ; am_util_stdio_vsprintf + 1670
        0x000107b4:    e045        E.      B        0x10842 ; am_util_stdio_vsprintf + 1810
        0x000107b6:    eb036821    ..!h    ADD      r8,r3,r1,ASR #24
        0x000107ba:    f8078b01    ....    STRB     r8,[r7],#1
        0x000107be:    f021487f    !..H    BIC      r8,r1,#0xff000000
        0x000107c2:    1e40        @.      SUBS     r0,r0,#1
        0x000107c4:    d1f2        ..      BNE      0x107ac ; am_util_stdio_vsprintf + 1660
        0x000107c6:    4462        bD      ADD      r2,r2,r12
        0x000107c8:    eb080088    ....    ADD      r0,r8,r8,LSL #2
        0x000107cc:    0041        A.      LSLS     r1,r0,#1
        0x000107ce:    2005        .       MOVS     r0,#5
        0x000107d0:    ebb06f21    ..!o    CMP      r0,r1,ASR #24
        0x000107d4:    dc24        $.      BGT      0x10820 ; am_util_stdio_vsprintf + 1776
        0x000107d6:    1e50        P.      SUBS     r0,r2,#1
        0x000107d8:    ebab0300    ....    SUB      r3,r11,r0
        0x000107dc:    2101        .!      MOVS     r1,#1
        0x000107de:    f1c30301    ....    RSB      r3,r3,#1
        0x000107e2:    2b01        .+      CMP      r3,#1
        0x000107e4:    bfa8        ..      IT       GE
        0x000107e6:    2730        0'      MOVGE    r7,#0x30
        0x000107e8:    db1a        ..      BLT      0x10820 ; am_util_stdio_vsprintf + 1776
        0x000107ea:    bf00        ..      NOP      
        0x000107ec:    f890c000    ....    LDRB     r12,[r0,#0]
        0x000107f0:    f1bc0f2e    ....    CMP      r12,#0x2e
        0x000107f4:    d010        ..      BEQ      0x10818 ; am_util_stdio_vsprintf + 1768
        0x000107f6:    f1bc0f39    ..9.    CMP      r12,#0x39
        0x000107fa:    bf08        ..      IT       EQ
        0x000107fc:    7007        .p      STRBEQ   r7,[r0,#0]
        0x000107fe:    d00b        ..      BEQ      0x10818 ; am_util_stdio_vsprintf + 1768
        0x00010800:    f00c01ff    ....    AND      r1,r12,#0xff
        0x00010804:    1c49        I.      ADDS     r1,r1,#1
        0x00010806:    e001        ..      B        0x1080c ; am_util_stdio_vsprintf + 1756
        0x00010808:    e02a        *.      B        0x10860 ; am_util_stdio_vsprintf + 1840
        0x0001080a:    e027        '.      B        0x1085c ; am_util_stdio_vsprintf + 1836
        0x0001080c:    7001        .p      STRB     r1,[r0,#0]
        0x0001080e:    e007        ..      B        0x10820 ; am_util_stdio_vsprintf + 1776
        0x00010810:    2030        0       MOVS     r0,#0x30
        0x00010812:    f8020b01    ....    STRB     r0,[r2],#1
        0x00010816:    e003        ..      B        0x10820 ; am_util_stdio_vsprintf + 1776
        0x00010818:    1e40        @.      SUBS     r0,r0,#1
        0x0001081a:    1c49        I.      ADDS     r1,r1,#1
        0x0001081c:    428b        .B      CMP      r3,r1
        0x0001081e:    dae5        ..      BGE      0x107ec ; am_util_stdio_vsprintf + 1724
        0x00010820:    2000        .       MOVS     r0,#0
        0x00010822:    7010        .p      STRB     r0,[r2,#0]
        0x00010824:    ebb2000b    ....    SUBS     r0,r2,r11
        0x00010828:    d509        ..      BPL      0x1083e ; am_util_stdio_vsprintf + 1806
        0x0001082a:    f1b03fff    ...?    CMP      r0,#0xffffffff
        0x0001082e:    d015        ..      BEQ      0x1085c ; am_util_stdio_vsprintf + 1836
        0x00010830:    f1100f02    ....    CMN      r0,#2
        0x00010834:    bf18        ..      IT       NE
        0x00010836:    480c        .H      LDRNE    r0,[pc,#48] ; [0x10868] = 0x3f2e3f
        0x00010838:    d012        ..      BEQ      0x10860 ; am_util_stdio_vsprintf + 1840
        0x0001083a:    6020         `      STR      r0,[r4,#0]
        0x0001083c:    2003        .       MOVS     r0,#3
        0x0001083e:    4405        .D      ADD      r5,r5,r0
        0x00010840:    4404        .D      ADD      r4,r4,r0
        0x00010842:    1c71        q.      ADDS     r1,r6,#1
        0x00010844:    7808        .x      LDRB     r0,[r1,#0]
        0x00010846:    2800        .(      CMP      r0,#0
        0x00010848:    f47fac7c    ..|.    BNE      0x10144 ; am_util_stdio_vsprintf + 20
        0x0001084c:    2c00        .,      CMP      r4,#0
        0x0001084e:    bf1c        ..      ITT      NE
        0x00010850:    2000        .       MOVNE    r0,#0
        0x00010852:    7020         p      STRBNE   r0,[r4,#0]
        0x00010854:    4628        (F      MOV      r0,r5
        0x00010856:    b00b        ..      ADD      sp,sp,#0x2c
        0x00010858:    e8bd8ff0    ....    POP      {r4-r11,pc}
        0x0001085c:    4801        .H      LDR      r0,[pc,#4] ; [0x10864] = 0x302e30
        0x0001085e:    e7ec        ..      B        0x1083a ; am_util_stdio_vsprintf + 1802
        0x00010860:    4802        .H      LDR      r0,[pc,#8] ; [0x1086c] = 0x232e23
        0x00010862:    e7ea        ..      B        0x1083a ; am_util_stdio_vsprintf + 1802
    $d
        0x00010864:    00302e30    0.0.    DCD    3157552
        0x00010868:    003f2e3f    ?.?.    DCD    4140607
        0x0001086c:    00232e23    #.#.    DCD    2305571
    $t
    i.build_dma_cmdlist
    build_dma_cmdlist
        0x00010870:    b470        p.      PUSH     {r4-r6}
        0x00010872:    f8d0c004    ....    LDR      r12,[r0,#4]
        0x00010876:    b111        ..      CBZ      r1,0x1087e ; build_dma_cmdlist + 14
        0x00010878:    2901        .)      CMP      r1,#1
        0x0001087a:    d05c        \.      BEQ      0x10936 ; build_dma_cmdlist + 198
        0x0001087c:    e0b7        ..      B        0x109ee ; build_dma_cmdlist + 382
        0x0001087e:    6819        .h      LDR      r1,[r3,#0]
        0x00010880:    f5b13f80    ...?    CMP      r1,#0x10000
        0x00010884:    d25b        [.      BCS      0x1093e ; build_dma_cmdlist + 206
        0x00010886:    495f        _I      LDR      r1,[pc,#380] ; [0x10a04] = 0x50014008
        0x00010888:    f44f6400    O..d    MOV      r4,#0x800
        0x0001088c:    eb01310c    ...1    ADD      r1,r1,r12,LSL #12
        0x00010890:    6011        .`      STR      r1,[r2,#0]
        0x00010892:    6899        .h      LDR      r1,[r3,#8]
        0x00010894:    6051        Q`      STR      r1,[r2,#4]
        0x00010896:    495c        \I      LDR      r1,[pc,#368] ; [0x10a08] = 0x5001400c
        0x00010898:    eb01310c    ...1    ADD      r1,r1,r12,LSL #12
        0x0001089c:    6091        .`      STR      r1,[r2,#8]
        0x0001089e:    89d9        ..      LDRH     r1,[r3,#0xe]
        0x000108a0:    60d1        .`      STR      r1,[r2,#0xc]
        0x000108a2:    495a        ZI      LDR      r1,[pc,#360] ; [0x10a0c] = 0x50014000
        0x000108a4:    eb01310c    ...1    ADD      r1,r1,r12,LSL #12
        0x000108a8:    6111        .a      STR      r1,[r2,#0x10]
        0x000108aa:    7959        Yy      LDRB     r1,[r3,#5]
        0x000108ac:    f44f5c80    O..\    MOV      r12,#0x1000
        0x000108b0:    ea0c3101    ...1    AND      r1,r12,r1,LSL #12
        0x000108b4:    f8b3c000    ....    LDRH     r12,[r3,#0]
        0x000108b8:    7a80        .z      LDRB     r0,[r0,#0xa]
        0x000108ba:    ea41410c    A..A    ORR      r1,r1,r12,LSL #16
        0x000108be:    f893c004    ....    LDRB     r12,[r3,#4]
        0x000108c2:    ea042ccc    ...,    AND      r12,r4,r12,LSL #11
        0x000108c6:    ea41010c    A...    ORR      r1,r1,r12
        0x000108ca:    f893c006    ....    LDRB     r12,[r3,#6]
        0x000108ce:    1064        d.      ASRS     r4,r4,#1
        0x000108d0:    ea042c8c    ...,    AND      r12,r4,r12,LSL #10
        0x000108d4:    ea41010c    A...    ORR      r1,r1,r12
        0x000108d8:    f893c00c    ....    LDRB     r12,[r3,#0xc]
        0x000108dc:    1064        d.      ASRS     r4,r4,#1
        0x000108de:    ea042c4c    ..L,    AND      r12,r4,r12,LSL #9
        0x000108e2:    ea41010c    A...    ORR      r1,r1,r12
        0x000108e6:    f893c007    ....    LDRB     r12,[r3,#7]
        0x000108ea:    1064        d.      ASRS     r4,r4,#1
        0x000108ec:    ea042c0c    ...,    AND      r12,r4,r12,LSL #8
        0x000108f0:    ea41010c    A...    ORR      r1,r1,r12
        0x000108f4:    f893c010    ....    LDRB     r12,[r3,#0x10]
        0x000108f8:    2480        .$      MOVS     r4,#0x80
        0x000108fa:    ea041ccc    ....    AND      r12,r4,r12,LSL #7
        0x000108fe:    ea41010c    A...    ORR      r1,r1,r12
        0x00010902:    f04f0c40    O.@.    MOV      r12,#0x40
        0x00010906:    ea0c1080    ....    AND      r0,r12,r0,LSL #6
        0x0001090a:    4308        .C      ORRS     r0,r0,r1
        0x0001090c:    7cd9        .|      LDRB     r1,[r3,#0x13]
        0x0001090e:    f04f0c20    O. .    MOV      r12,#0x20
        0x00010912:    ea0c1141    ..A.    AND      r1,r12,r1,LSL #5
        0x00010916:    4308        .C      ORRS     r0,r0,r1
        0x00010918:    7c59        Y|      LDRB     r1,[r3,#0x11]
        0x0001091a:    f04f0c10    O...    MOV      r12,#0x10
        0x0001091e:    ea0c1101    ....    AND      r1,r12,r1,LSL #4
        0x00010922:    4308        .C      ORRS     r0,r0,r1
        0x00010924:    7c99        .|      LDRB     r1,[r3,#0x12]
        0x00010926:    2308        .#      MOVS     r3,#8
        0x00010928:    ea0301c1    ....    AND      r1,r3,r1,LSL #3
        0x0001092c:    4308        .C      ORRS     r0,r0,r1
        0x0001092e:    f0400001    @...    ORR      r0,r0,#1
        0x00010932:    6150        Pa      STR      r0,[r2,#0x14]
        0x00010934:    e05b        [.      B        0x109ee ; build_dma_cmdlist + 382
        0x00010936:    6859        Yh      LDR      r1,[r3,#4]
        0x00010938:    f1b17f80    ....    CMP      r1,#0x1000000
        0x0001093c:    d302        ..      BCC      0x10944 ; build_dma_cmdlist + 212
        0x0001093e:    bc70        p.      POP      {r4-r6}
        0x00010940:    2005        .       MOVS     r0,#5
        0x00010942:    4770        pG      BX       lr
        0x00010944:    f8d01834    ..4.    LDR      r1,[r0,#0x834]
        0x00010948:    2900        .)      CMP      r1,#0
        0x0001094a:    bf1f        ..      ITTTT    NE
        0x0001094c:    6919        .i      LDRNE    r1,[r3,#0x10]
        0x0001094e:    2900        .)      CMPNE    r1,#0
        0x00010950:    2007        .       MOVNE    r0,#7
        0x00010952:    bc70        p.      POPNE    {r4-r6}
        0x00010954:    bf18        ..      IT       NE
        0x00010956:    4770        pG      BXNE     lr
        0x00010958:    492d        -I      LDR      r1,[pc,#180] ; [0x10a10] = 0x50014250
        0x0001095a:    4d2e        .M      LDR      r5,[pc,#184] ; [0x10a14] = 0x50014258
        0x0001095c:    eb01310c    ...1    ADD      r1,r1,r12,LSL #12
        0x00010960:    eb05350c    ...5    ADD      r5,r5,r12,LSL #12
        0x00010964:    f04f0400    O...    MOV      r4,#0
        0x00010968:    6115        .a      STR      r5,[r2,#0x10]
        0x0001096a:    e9c21410    ....    STRD     r1,r4,[r2,#0x40]
        0x0001096e:    68dd        .h      LDR      r5,[r3,#0xc]
        0x00010970:    6155        Ua      STR      r5,[r2,#0x14]
        0x00010972:    4d29        )M      LDR      r5,[pc,#164] ; [0x10a18] = 0x5001425c
        0x00010974:    f04f0604    O...    MOV      r6,#4
        0x00010978:    eb05350c    ...5    ADD      r5,r5,r12,LSL #12
        0x0001097c:    6195        .a      STR      r5,[r2,#0x18]
        0x0001097e:    689d        .h      LDR      r5,[r3,#8]
        0x00010980:    61d5        .a      STR      r5,[r2,#0x1c]
        0x00010982:    4d26        &M      LDR      r5,[pc,#152] ; [0x10a1c] = 0x50014260
        0x00010984:    eb05350c    ...5    ADD      r5,r5,r12,LSL #12
        0x00010988:    6215        .b      STR      r5,[r2,#0x20]
        0x0001098a:    685d        ]h      LDR      r5,[r3,#4]
        0x0001098c:    e9c25109    ...Q    STRD     r5,r1,[r2,#0x24]
        0x00010990:    7819        .x      LDRB     r1,[r3,#0]
        0x00010992:    f04f0518    O...    MOV      r5,#0x18
        0x00010996:    ea0501c1    ....    AND      r1,r5,r1,LSL #3
        0x0001099a:    785d        ]x      LDRB     r5,[r3,#1]
        0x0001099c:    ea060585    ....    AND      r5,r6,r5,LSL #2
        0x000109a0:    ea410105    A...    ORR      r1,r1,r5
        0x000109a4:    f0410103    A...    ORR      r1,r1,#3
        0x000109a8:    62d1        .b      STR      r1,[r2,#0x2c]
        0x000109aa:    491d        .I      LDR      r1,[pc,#116] ; [0x10a20] = 0x500142b4
        0x000109ac:    eb01310c    ...1    ADD      r1,r1,r12,LSL #12
        0x000109b0:    e9c2140c    ....    STRD     r1,r4,[r2,#0x30]
        0x000109b4:    e9c2140e    ....    STRD     r1,r4,[r2,#0x38]
        0x000109b8:    4c1a        .L      LDR      r4,[pc,#104] ; [0x10a24] = 0x500142b8
        0x000109ba:    eb043c0c    ...<    ADD      r12,r4,r12,LSL #12
        0x000109be:    f8c2c008    ....    STR      r12,[r2,#8]
        0x000109c2:    f8c2c000    ....    STR      r12,[r2,#0]
        0x000109c6:    f8d04834    ..4H    LDR      r4,[r0,#0x834]
        0x000109ca:    f8d3c010    ....    LDR      r12,[r3,#0x10]
        0x000109ce:    2c01        .,      CMP      r4,#1
        0x000109d0:    d010        ..      BEQ      0x109f4 ; build_dma_cmdlist + 388
        0x000109d2:    2c02        .,      CMP      r4,#2
        0x000109d4:    bf0c        ..      ITE      EQ
        0x000109d6:    f44f4c80    O..L    MOVEQ    r12,#0x4000
        0x000109da:    f44c4c81    L..L    ORRNE    r12,r12,#0x4080
        0x000109de:    f44f4080    O..@    MOV      r0,#0x4000
        0x000109e2:    f8c2c004    ....    STR      r12,[r2,#4]
        0x000109e6:    60d0        .`      STR      r0,[r2,#0xc]
        0x000109e8:    6958        Xi      LDR      r0,[r3,#0x14]
        0x000109ea:    e9c21012    ....    STRD     r1,r0,[r2,#0x48]
        0x000109ee:    bc70        p.      POP      {r4-r6}
        0x000109f0:    2000        .       MOVS     r0,#0
        0x000109f2:    4770        pG      BX       lr
        0x000109f4:    f24404a0    D...    MOV      r4,#0x40a0
        0x000109f8:    ea4c0c04    L...    ORR      r12,r12,r4
        0x000109fc:    2402        .$      MOVS     r4,#2
        0x000109fe:    f8c04834    ..4H    STR      r4,[r0,#0x834]
        0x00010a02:    e7ec        ..      B        0x109de ; build_dma_cmdlist + 366
    $d
        0x00010a04:    50014008    .@.P    DCD    1342259208
        0x00010a08:    5001400c    .@.P    DCD    1342259212
        0x00010a0c:    50014000    .@.P    DCD    1342259200
        0x00010a10:    50014250    PB.P    DCD    1342259792
        0x00010a14:    50014258    XB.P    DCD    1342259800
        0x00010a18:    5001425c    \B.P    DCD    1342259804
        0x00010a1c:    50014260    `B.P    DCD    1342259808
        0x00010a20:    500142b4    .B.P    DCD    1342259892
        0x00010a24:    500142b8    .B.P    DCD    1342259896
    $t
    i.flush_mspi_psram_data
    flush_mspi_psram_data
        0x00010a28:    e92d4ff8    -..O    PUSH     {r3-r11,lr}
        0x00010a2c:    f8df9114    ....    LDR      r9,[pc,#276] ; [0x10b44] = 0x10011000
        0x00010a30:    2700        .'      MOVS     r7,#0
        0x00010a32:    f8d90008    ....    LDR      r0,[r9,#8]
        0x00010a36:    2800        .(      CMP      r0,#0
        0x00010a38:    d96e        n.      BLS      0x10b18 ; flush_mspi_psram_data + 240
        0x00010a3a:    4e44        DN      LDR      r6,[pc,#272] ; [0x10b4c] = 0x10011198
        0x00010a3c:    4c42        BL      LDR      r4,[pc,#264] ; [0x10b48] = 0x40018000
        0x00010a3e:    f04f0b02    O...    MOV      r11,#2
        0x00010a42:    f04f0a01    O...    MOV      r10,#1
        0x00010a46:    f1060820    .. .    ADD      r8,r6,#0x20
        0x00010a4a:    bf00        ..      NOP      
        0x00010a4c:    f1a80004    ....    SUB      r0,r8,#4
        0x00010a50:    f05f0180    _...    MOVS.W   r1,#0x80
        0x00010a54:    f8d92000    ...     LDR      r2,[r9,#0]
        0x00010a58:    1e49        I.      SUBS     r1,r1,#1
        0x00010a5a:    ea422302    B..#    ORR      r3,r2,r2,LSL #8
        0x00010a5e:    ea434302    C..C    ORR      r3,r3,r2,LSL #16
        0x00010a62:    ea436202    C..b    ORR      r2,r3,r2,LSL #24
        0x00010a66:    6042        B`      STR      r2,[r0,#4]
        0x00010a68:    f8402f08    @../    STR      r2,[r0,#8]!
        0x00010a6c:    d1f2        ..      BNE      0x10a54 ; flush_mspi_psram_data + 44
        0x00010a6e:    f7fbfbe9    ....    BL       am_hal_interrupt_master_disable ; 0xc244
        0x00010a72:    9000        ..      STR      r0,[sp,#0]
        0x00010a74:    6820         h      LDR      r0,[r4,#0]
        0x00010a76:    f0407080    @..p    ORR      r0,r0,#0x1000000
        0x00010a7a:    6020         `      STR      r0,[r4,#0]
        0x00010a7c:    f8c4b008    ....    STR      r11,[r4,#8]
        0x00010a80:    9800        ..      LDR      r0,[sp,#0]
        0x00010a82:    f7fbfbe3    ....    BL       am_hal_interrupt_master_set ; 0xc24c
        0x00010a86:    f8cda000    ....    STR      r10,[sp,#0]
        0x00010a8a:    f44f6380    O..c    MOV      r3,#0x400
        0x00010a8e:    463a        :F      MOV      r2,r7
        0x00010a90:    492f        /I      LDR      r1,[pc,#188] ; [0x10b50] = 0x100111b8
        0x00010a92:    f8d90014    ....    LDR      r0,[r9,#0x14]
        0x00010a96:    f7fcfab3    ....    BL       am_devices_mspi_psram_write ; 0xd000
        0x00010a9a:    4605        .F      MOV      r5,r0
        0x00010a9c:    f7fbfbd2    ....    BL       am_hal_interrupt_master_disable ; 0xc244
        0x00010aa0:    9000        ..      STR      r0,[sp,#0]
        0x00010aa2:    6820         h      LDR      r0,[r4,#0]
        0x00010aa4:    f0207080     ..p    BIC      r0,r0,#0x1000000
        0x00010aa8:    6020         `      STR      r0,[r4,#0]
        0x00010aaa:    6830        0h      LDR      r0,[r6,#0]
        0x00010aac:    6c21        !l      LDR      r1,[r4,#0x40]
        0x00010aae:    4408        .D      ADD      r0,r0,r1
        0x00010ab0:    6030        0`      STR      r0,[r6,#0]
        0x00010ab2:    6870        ph      LDR      r0,[r6,#4]
        0x00010ab4:    6c61        al      LDR      r1,[r4,#0x44]
        0x00010ab6:    4408        .D      ADD      r0,r0,r1
        0x00010ab8:    6070        p`      STR      r0,[r6,#4]
        0x00010aba:    68b0        .h      LDR      r0,[r6,#8]
        0x00010abc:    6ca1        .l      LDR      r1,[r4,#0x48]
        0x00010abe:    4408        .D      ADD      r0,r0,r1
        0x00010ac0:    60b0        .`      STR      r0,[r6,#8]
        0x00010ac2:    68f0        .h      LDR      r0,[r6,#0xc]
        0x00010ac4:    6ce1        .l      LDR      r1,[r4,#0x4c]
        0x00010ac6:    4408        .D      ADD      r0,r0,r1
        0x00010ac8:    60f0        .`      STR      r0,[r6,#0xc]
        0x00010aca:    9800        ..      LDR      r0,[sp,#0]
        0x00010acc:    f7fbfbbe    ....    BL       am_hal_interrupt_master_set ; 0xc24c
        0x00010ad0:    b135        5.      CBZ      r5,0x10ae0 ; flush_mspi_psram_data + 184
        0x00010ad2:    a020         .      ADR      r0,{pc}+0x82 ; 0x10b54
        0x00010ad4:    f7fffaee    ....    BL       am_util_stdio_printf ; 0x100b4
        0x00010ad8:    f04f30ff    O..0    MOV      r0,#0xffffffff
        0x00010adc:    e8bd8ff8    ....    POP      {r3-r11,pc}
        0x00010ae0:    f8cda000    ....    STR      r10,[sp,#0]
        0x00010ae4:    f44f6380    O..c    MOV      r3,#0x400
        0x00010ae8:    463a        :F      MOV      r2,r7
        0x00010aea:    f5086180    ...a    ADD      r1,r8,#0x400
        0x00010aee:    f8d90014    ....    LDR      r0,[r9,#0x14]
        0x00010af2:    f7fcfa47    ..G.    BL       am_devices_mspi_psram_read ; 0xcf84
        0x00010af6:    b130        0.      CBZ      r0,0x10b06 ; flush_mspi_psram_data + 222
        0x00010af8:    a021        !.      ADR      r0,{pc}+0x88 ; 0x10b80
        0x00010afa:    f7fffadb    ....    BL       am_util_stdio_printf ; 0x100b4
        0x00010afe:    f04f30ff    O..0    MOV      r0,#0xffffffff
        0x00010b02:    e8bd8ff8    ....    POP      {r3-r11,pc}
        0x00010b06:    eb080180    ....    ADD      r1,r8,r0,LSL #2
        0x00010b0a:    f8582020    X.      LDR      r2,[r8,r0,LSL #2]
        0x00010b0e:    f8d11400    ....    LDR      r1,[r1,#0x400]
        0x00010b12:    4291        .B      CMP      r1,r2
        0x00010b14:    d008        ..      BEQ      0x10b28 ; flush_mspi_psram_data + 256
        0x00010b16:    e000        ..      B        0x10b1a ; flush_mspi_psram_data + 242
        0x00010b18:    e010        ..      B        0x10b3c ; flush_mspi_psram_data + 276
        0x00010b1a:    a024        $.      ADR      r0,{pc}+0x92 ; 0x10bac
        0x00010b1c:    f7fffaca    ....    BL       am_util_stdio_printf ; 0x100b4
        0x00010b20:    f04f30ff    O..0    MOV      r0,#0xffffffff
        0x00010b24:    e8bd8ff8    ....    POP      {r3-r11,pc}
        0x00010b28:    1c40        @.      ADDS     r0,r0,#1
        0x00010b2a:    f5b07f80    ....    CMP      r0,#0x100
        0x00010b2e:    d3ea        ..      BCC      0x10b06 ; flush_mspi_psram_data + 222
        0x00010b30:    f8d90008    ....    LDR      r0,[r9,#8]
        0x00010b34:    f5076780    ...g    ADD      r7,r7,#0x400
        0x00010b38:    4287        .B      CMP      r7,r0
        0x00010b3a:    d387        ..      BCC      0x10a4c ; flush_mspi_psram_data + 36
        0x00010b3c:    2000        .       MOVS     r0,#0
        0x00010b3e:    e8bd8ff8    ....    POP      {r3-r11,pc}
    $d
        0x00010b42:    0000        ..      DCW    0
        0x00010b44:    10011000    ....    DCD    268505088
        0x00010b48:    40018000    ...@    DCD    1073840128
        0x00010b4c:    10011198    ....    DCD    268505496
        0x00010b50:    100111b8    ....    DCD    268505528
        0x00010b54:    6961460a    .Fai    DCD    1767982602
        0x00010b58:    2064656c    led     DCD    543450476
        0x00010b5c:    77206f74    to w    DCD    1998614388
        0x00010b60:    65746972    rite    DCD    1702127986
        0x00010b64:    66756220     buf    DCD    1718968864
        0x00010b68:    20726566    fer     DCD    544367974
        0x00010b6c:    50206f74    to P    DCD    1344302964
        0x00010b70:    4d415253    SRAM    DCD    1296126547
        0x00010b74:    76654420     Dev    DCD    1986348064
        0x00010b78:    21656369    ice!    DCD    560292713
        0x00010b7c:    0000000a    ....    DCD    10
        0x00010b80:    6961460a    .Fai    DCD    1767982602
        0x00010b84:    2064656c    led     DCD    543450476
        0x00010b88:    72206f74    to r    DCD    1914728308
        0x00010b8c:    20646165    ead     DCD    543449445
        0x00010b90:    66667562    buff    DCD    1717990754
        0x00010b94:    74207265    er t    DCD    1948283493
        0x00010b98:    5350206f    o PS    DCD    1397760111
        0x00010b9c:    204d4152    RAM     DCD    541933906
        0x00010ba0:    69766544    Devi    DCD    1769366852
        0x00010ba4:    0a216563    ce!.    DCD    169960803
        0x00010ba8:    00000000    ....    DCD    0
        0x00010bac:    2058540a    .TX     DCD    542659594
        0x00010bb0:    20646e61    and     DCD    543452769
        0x00010bb4:    62205852    RX b    DCD    1646286930
        0x00010bb8:    65666675    uffe    DCD    1701209717
        0x00010bbc:    66207372    rs f    DCD    1713402738
        0x00010bc0:    656c6961    aile    DCD    1701603681
        0x00010bc4:    6f742064    d to    DCD    1869881444
        0x00010bc8:    6d6f6320     com    DCD    1836016416
        0x00010bcc:    65726170    pare    DCD    1701994864
        0x00010bd0:    00000a21    !...    DCD    2593
        0x00010bd4:    00000000    ....    DCD    0
    $t
    i.main
    main
        0x00010bd8:    ed2d8b04    -...    VPUSH    {d8-d9}
        0x00010bdc:    2100        .!      MOVS     r1,#0
        0x00010bde:    b082        ..      SUB      sp,sp,#8
        0x00010be0:    4608        .F      MOV      r0,r1
        0x00010be2:    f7fcfc51    ..Q.    BL       am_hal_clkgen_control ; 0xd488
        0x00010be6:    48d6        .H      LDR      r0,[pc,#856] ; [0x10f40] = 0x1230a
        0x00010be8:    f7fcfa48    ..H.    BL       am_hal_cachectrl_config ; 0xd07c
        0x00010bec:    f7fcfc42    ..B.    BL       am_hal_cachectrl_enable ; 0xd474
        0x00010bf0:    f7fbfcb4    ....    BL       am_bsp_low_power_init ; 0xc55c
        0x00010bf4:    f7fbfc94    ....    BL       am_bsp_itm_printf_enable ; 0xc520
        0x00010bf8:    f7fffa7c    ..|.    BL       am_util_stdio_terminal_clear ; 0x100f4
        0x00010bfc:    a0d1        ..      ADR      r0,{pc}+0x348 ; 0x10f44
        0x00010bfe:    f7fffa59    ..Y.    BL       am_util_stdio_printf ; 0x100b4
        0x00010c02:    a1da        ..      ADR      r1,{pc}+0x36a ; 0x10f6c
        0x00010c04:    a0dd        ..      ADR      r0,{pc}+0x378 ; 0x10f7c
        0x00010c06:    f7fffa55    ..U.    BL       am_util_stdio_printf ; 0x100b4
        0x00010c0a:    49e2        .I      LDR      r1,[pc,#904] ; [0x10f94] = 0x1236f
        0x00010c0c:    a0e2        ..      ADR      r0,{pc}+0x38c ; 0x10f98
        0x00010c0e:    f7fffa51    ..Q.    BL       am_util_stdio_printf ; 0x100b4
        0x00010c12:    4ce7        .L      LDR      r4,[pc,#924] ; [0x10fb0] = 0x12380
        0x00010c14:    8820         .      LDRH     r0,[r4,#0]
        0x00010c16:    f3c02307    ...#    UBFX     r3,r0,#8,#8
        0x00010c1a:    6820         h      LDR      r0,[r4,#0]
        0x00010c1c:    f3c04207    ...B    UBFX     r2,r0,#16,#8
        0x00010c20:    0e01        ..      LSRS     r1,r0,#24
        0x00010c22:    a0e4        ..      ADR      r0,{pc}+0x392 ; 0x10fb4
        0x00010c24:    f7fffa46    ..F.    BL       am_util_stdio_printf ; 0x100b4
        0x00010c28:    7820         x      LDRB     r0,[r4,#0]
        0x00010c2a:    f0100f80    ....    TST      r0,#0x80
        0x00010c2e:    bf14        ..      ITE      NE
        0x00010c30:    a1e7        ..      ADRNE    r1,{pc}+0x3a0 ; 0x10fd0
        0x00010c32:    a1e9        ..      ADREQ    r1,{pc}+0x3a6 ; 0x10fd8
        0x00010c34:    a0ea        ..      ADR      r0,{pc}+0x3ac ; 0x10fe0
        0x00010c36:    f7fffa3d    ..=.    BL       am_util_stdio_printf ; 0x100b4
        0x00010c3a:    4bf3        .K      LDR      r3,[pc,#972] ; [0x11008] = 0x10011018
        0x00010c3c:    2001        .       MOVS     r0,#1
        0x00010c3e:    1f1a        ..      SUBS     r2,r3,#4
        0x00010c40:    f1020158    ..X.    ADD      r1,r2,#0x58
        0x00010c44:    f7fbff72    ..r.    BL       am_devices_mspi_psram_init ; 0xcb2c
        0x00010c48:    b130        0.      CBZ      r0,0x10c58 ; main + 128
        0x00010c4a:    48f0        .H      LDR      r0,[pc,#960] ; [0x1100c] = 0x11710
        0x00010c4c:    f7fffa32    ..2.    BL       am_util_stdio_printf ; 0x100b4
        0x00010c50:    a0ef        ..      ADR      r0,{pc}+0x3c0 ; 0x11010
        0x00010c52:    f7fffa2f    ../.    BL       am_util_stdio_printf ; 0x100b4
        0x00010c56:    e7fe        ..      B        0x10c56 ; main + 126
        0x00010c58:    48f6        .H      LDR      r0,[pc,#984] ; [0x11034] = 0xe000e004
        0x00010c5a:    2401        .$      MOVS     r4,#1
        0x00010c5c:    f8c04100    ...A    STR      r4,[r0,#0x100]
        0x00010c60:    f7fbfaec    ....    BL       am_hal_interrupt_master_enable ; 0xc23c
        0x00010c64:    a0f4        ..      ADR      r0,{pc}+0x3d4 ; 0x11038
        0x00010c66:    f7fffa25    ..%.    BL       am_util_stdio_printf ; 0x100b4
        0x00010c6a:    f8df93f8    ....    LDR      r9,[pc,#1016] ; [0x11064] = 0x100111b8
        0x00010c6e:    4efe        .N      LDR      r6,[pc,#1016] ; [0x11068] = 0x40018000
        0x00010c70:    4dfe        .M      LDR      r5,[pc,#1016] ; [0x1106c] = 0x10011000
        0x00010c72:    f04f0b02    O...    MOV      r11,#2
        0x00010c76:    f1a90820    .. .    SUB      r8,r9,#0x20
        0x00010c7a:    ed9f8afd    ....    VLDR     s16,[pc,#1012] ; [0x11070] = 0x42c80000
        0x00010c7e:    2000        .       MOVS     r0,#0
        0x00010c80:    f8c80000    ....    STR      r0,[r8,#0]
        0x00010c84:    f8c80004    ....    STR      r0,[r8,#4]
        0x00010c88:    f8c80008    ....    STR      r0,[r8,#8]
        0x00010c8c:    4607        .F      MOV      r7,r0
        0x00010c8e:    f8c8000c    ....    STR      r0,[r8,#0xc]
        0x00010c92:    68a8        .h      LDR      r0,[r5,#8]
        0x00010c94:    2800        .(      CMP      r0,#0
        0x00010c96:    bf88        ..      IT       HI
        0x00010c98:    f04f0a01    O...    MOVHI    r10,#1
        0x00010c9c:    d971        q.      BLS      0x10d82 ; main + 426
        0x00010c9e:    bf00        ..      NOP      
        0x00010ca0:    f1a90004    ....    SUB      r0,r9,#4
        0x00010ca4:    2280        ."      MOVS     r2,#0x80
        0x00010ca6:    6829        )h      LDR      r1,[r5,#0]
        0x00010ca8:    1e52        R.      SUBS     r2,r2,#1
        0x00010caa:    ea412301    A..#    ORR      r3,r1,r1,LSL #8
        0x00010cae:    ea434301    C..C    ORR      r3,r3,r1,LSL #16
        0x00010cb2:    ea436101    C..a    ORR      r1,r3,r1,LSL #24
        0x00010cb6:    6041        A`      STR      r1,[r0,#4]
        0x00010cb8:    f8401f08    @...    STR      r1,[r0,#8]!
        0x00010cbc:    d1f3        ..      BNE      0x10ca6 ; main + 206
        0x00010cbe:    f7fbfac1    ....    BL       am_hal_interrupt_master_disable ; 0xc244
        0x00010cc2:    9000        ..      STR      r0,[sp,#0]
        0x00010cc4:    6830        0h      LDR      r0,[r6,#0]
        0x00010cc6:    f0407080    @..p    ORR      r0,r0,#0x1000000
        0x00010cca:    6030        0`      STR      r0,[r6,#0]
        0x00010ccc:    f8c6b008    ....    STR      r11,[r6,#8]
        0x00010cd0:    9800        ..      LDR      r0,[sp,#0]
        0x00010cd2:    f7fbfabb    ....    BL       am_hal_interrupt_master_set ; 0xc24c
        0x00010cd6:    f8cda000    ....    STR      r10,[sp,#0]
        0x00010cda:    f44f6380    O..c    MOV      r3,#0x400
        0x00010cde:    463a        :F      MOV      r2,r7
        0x00010ce0:    49e0        .I      LDR      r1,[pc,#896] ; [0x11064] = 0x100111b8
        0x00010ce2:    6968        hi      LDR      r0,[r5,#0x14]
        0x00010ce4:    f7fcf98c    ....    BL       am_devices_mspi_psram_write ; 0xd000
        0x00010ce8:    4604        .F      MOV      r4,r0
        0x00010cea:    f7fbfaab    ....    BL       am_hal_interrupt_master_disable ; 0xc244
        0x00010cee:    9000        ..      STR      r0,[sp,#0]
        0x00010cf0:    6830        0h      LDR      r0,[r6,#0]
        0x00010cf2:    f0207080     ..p    BIC      r0,r0,#0x1000000
        0x00010cf6:    6030        0`      STR      r0,[r6,#0]
        0x00010cf8:    f8d80000    ....    LDR      r0,[r8,#0]
        0x00010cfc:    6c31        1l      LDR      r1,[r6,#0x40]
        0x00010cfe:    4408        .D      ADD      r0,r0,r1
        0x00010d00:    f8c80000    ....    STR      r0,[r8,#0]
        0x00010d04:    f8d80004    ....    LDR      r0,[r8,#4]
        0x00010d08:    6c71        ql      LDR      r1,[r6,#0x44]
        0x00010d0a:    4408        .D      ADD      r0,r0,r1
        0x00010d0c:    f8c80004    ....    STR      r0,[r8,#4]
        0x00010d10:    f8d80008    ....    LDR      r0,[r8,#8]
        0x00010d14:    6cb1        .l      LDR      r1,[r6,#0x48]
        0x00010d16:    4408        .D      ADD      r0,r0,r1
        0x00010d18:    f8c80008    ....    STR      r0,[r8,#8]
        0x00010d1c:    f8d8000c    ....    LDR      r0,[r8,#0xc]
        0x00010d20:    6cf1        .l      LDR      r1,[r6,#0x4c]
        0x00010d22:    4408        .D      ADD      r0,r0,r1
        0x00010d24:    f8c8000c    ....    STR      r0,[r8,#0xc]
        0x00010d28:    9800        ..      LDR      r0,[sp,#0]
        0x00010d2a:    f7fbfa8f    ....    BL       am_hal_interrupt_master_set ; 0xc24c
        0x00010d2e:    b11c        ..      CBZ      r4,0x10d38 ; main + 352
        0x00010d30:    48d0        .H      LDR      r0,[pc,#832] ; [0x11074] = 0x10b54
        0x00010d32:    f7fff9bf    ....    BL       am_util_stdio_printf ; 0x100b4
        0x00010d36:    e017        ..      B        0x10d68 ; main + 400
        0x00010d38:    f8cda000    ....    STR      r10,[sp,#0]
        0x00010d3c:    f44f6380    O..c    MOV      r3,#0x400
        0x00010d40:    463a        :F      MOV      r2,r7
        0x00010d42:    f5096180    ...a    ADD      r1,r9,#0x400
        0x00010d46:    6968        hi      LDR      r0,[r5,#0x14]
        0x00010d48:    f7fcf91c    ....    BL       am_devices_mspi_psram_read ; 0xcf84
        0x00010d4c:    b108        ..      CBZ      r0,0x10d52 ; main + 378
        0x00010d4e:    48ca        .H      LDR      r0,[pc,#808] ; [0x11078] = 0x10b80
        0x00010d50:    e008        ..      B        0x10d64 ; main + 396
        0x00010d52:    eb090180    ....    ADD      r1,r9,r0,LSL #2
        0x00010d56:    f8592020    Y.      LDR      r2,[r9,r0,LSL #2]
        0x00010d5a:    f8d11400    ....    LDR      r1,[r1,#0x400]
        0x00010d5e:    4291        .B      CMP      r1,r2
        0x00010d60:    d006        ..      BEQ      0x10d70 ; main + 408
        0x00010d62:    48c6        .H      LDR      r0,[pc,#792] ; [0x1107c] = 0x10bac
        0x00010d64:    f7fff9a6    ....    BL       am_util_stdio_printf ; 0x100b4
        0x00010d68:    a0c5        ..      ADR      r0,{pc}+0x318 ; 0x11080
        0x00010d6a:    f7fff9a3    ....    BL       am_util_stdio_printf ; 0x100b4
        0x00010d6e:    e7fe        ..      B        0x10d6e ; main + 406
        0x00010d70:    1c40        @.      ADDS     r0,r0,#1
        0x00010d72:    f5b07f80    ....    CMP      r0,#0x100
        0x00010d76:    d3ec        ..      BCC      0x10d52 ; main + 378
        0x00010d78:    68a8        .h      LDR      r0,[r5,#8]
        0x00010d7a:    f5076780    ...g    ADD      r7,r7,#0x400
        0x00010d7e:    4287        .B      CMP      r7,r0
        0x00010d80:    d38e        ..      BCC      0x10ca0 ; main + 200
        0x00010d82:    e9d80101    ....    LDRD     r0,r1,[r8,#4]
        0x00010d86:    ee001a10    ....    VMOV     s0,r1
        0x00010d8a:    1a42        B.      SUBS     r2,r0,r1
        0x00010d8c:    612a        *a      STR      r2,[r5,#0x10]
        0x00010d8e:    eeb81a40    ..@.    VCVT.F32.U32 s2,s0
        0x00010d92:    ee000a10    ....    VMOV     s0,r0
        0x00010d96:    a0c1        ..      ADR      r0,{pc}+0x306 ; 0x1109c
        0x00010d98:    eef80a40    ..@.    VCVT.F32.U32 s1,s0
        0x00010d9c:    ee810a20    .. .    VDIV.F32 s0,s2,s1
        0x00010da0:    ee200a08     ...    VMUL.F32 s0,s0,s16
        0x00010da4:    ed850a03    ....    VSTR     s0,[r5,#0xc]
        0x00010da8:    6869        ih      LDR      r1,[r5,#4]
        0x00010daa:    f7fff983    ....    BL       am_util_stdio_printf ; 0x100b4
        0x00010dae:    a0c3        ..      ADR      r0,{pc}+0x30e ; 0x110bc
        0x00010db0:    f8d81000    ....    LDR      r1,[r8,#0]
        0x00010db4:    f7fff97e    ..~.    BL       am_util_stdio_printf ; 0x100b4
        0x00010db8:    a0c6        ..      ADR      r0,{pc}+0x31c ; 0x110d4
        0x00010dba:    f8d81004    ....    LDR      r1,[r8,#4]
        0x00010dbe:    f7fff979    ..y.    BL       am_util_stdio_printf ; 0x100b4
        0x00010dc2:    a0c9        ..      ADR      r0,{pc}+0x326 ; 0x110e8
        0x00010dc4:    6929        )i      LDR      r1,[r5,#0x10]
        0x00010dc6:    f7fff975    ..u.    BL       am_util_stdio_printf ; 0x100b4
        0x00010dca:    68e8        .h      LDR      r0,[r5,#0xc]
        0x00010dcc:    f001fa22    ..".    BL       __aeabi_f2d ; 0x12214
        0x00010dd0:    ec410b10    A...    VMOV     d0,r0,r1
        0x00010dd4:    a0ca        ..      ADR      r0,{pc}+0x32c ; 0x11100
        0x00010dd6:    ec532b10    S..+    VMOV     r2,r3,d0
        0x00010dda:    f7fff96b    ..k.    BL       am_util_stdio_printf ; 0x100b4
        0x00010dde:    6868        hh      LDR      r0,[r5,#4]
        0x00010de0:    1c40        @.      ADDS     r0,r0,#1
        0x00010de2:    6068        h`      STR      r0,[r5,#4]
        0x00010de4:    280a        .(      CMP      r0,#0xa
        0x00010de6:    d30d        ..      BCC      0x10e04 ; main + 556
        0x00010de8:    2700        .'      MOVS     r7,#0
        0x00010dea:    a0cc        ..      ADR      r0,{pc}+0x332 ; 0x1111c
        0x00010dec:    606f        o`      STR      r7,[r5,#4]
        0x00010dee:    f7fff961    ..a.    BL       am_util_stdio_printf ; 0x100b4
        0x00010df2:    a0d4        ..      ADR      r0,{pc}+0x352 ; 0x11144
        0x00010df4:    f7fff95e    ..^.    BL       am_util_stdio_printf ; 0x100b4
        0x00010df8:    f8dfa374    ..t.    LDR      r10,[pc,#884] ; [0x11170] = 0x1001101c
        0x00010dfc:    4cdd        .L      LDR      r4,[pc,#884] ; [0x11174] = 0x100111a8
        0x00010dfe:    ed9f9bde    ....    VLDR     d9,[pc,#888] ; [0x11178] = 0
        0x00010e02:    e006        ..      B        0x10e12 ; main + 570
        0x00010e04:    6828        (h      LDR      r0,[r5,#0]
        0x00010e06:    3011        .0      ADDS     r0,r0,#0x11
        0x00010e08:    6028        (`      STR      r0,[r5,#0]
        0x00010e0a:    68a8        .h      LDR      r0,[r5,#8]
        0x00010e0c:    0040        @.      LSLS     r0,r0,#1
        0x00010e0e:    60a8        .`      STR      r0,[r5,#8]
        0x00010e10:    e735        5.      B        0x10c7e ; main + 166
        0x00010e12:    f8c87010    ...p    STR      r7,[r8,#0x10]
        0x00010e16:    f8c87014    ...p    STR      r7,[r8,#0x14]
        0x00010e1a:    f8c87018    ...p    STR      r7,[r8,#0x18]
        0x00010e1e:    f8c8701c    ...p    STR      r7,[r8,#0x1c]
        0x00010e22:    f7fbfa0f    ....    BL       am_hal_interrupt_master_disable ; 0xc244
        0x00010e26:    9000        ..      STR      r0,[sp,#0]
        0x00010e28:    6830        0h      LDR      r0,[r6,#0]
        0x00010e2a:    f0407080    @..p    ORR      r0,r0,#0x1000000
        0x00010e2e:    6030        0`      STR      r0,[r6,#0]
        0x00010e30:    2002        .       MOVS     r0,#2
        0x00010e32:    60b0        .`      STR      r0,[r6,#8]
        0x00010e34:    9800        ..      LDR      r0,[sp,#0]
        0x00010e36:    f7fbfa09    ....    BL       am_hal_interrupt_master_set ; 0xc24c
        0x00010e3a:    6868        hh      LDR      r0,[r5,#4]
        0x00010e3c:    2201        ."      MOVS     r2,#1
        0x00010e3e:    2100        .!      MOVS     r1,#0
        0x00010e40:    f85a0020    Z. .    LDR      r0,[r10,r0,LSL #2]
        0x00010e44:    f000fda8    ....    BL       prime_number ; 0x11998
        0x00010e48:    4681        .F      MOV      r9,r0
        0x00010e4a:    f7fbf9fb    ....    BL       am_hal_interrupt_master_disable ; 0xc244
        0x00010e4e:    9000        ..      STR      r0,[sp,#0]
        0x00010e50:    6830        0h      LDR      r0,[r6,#0]
        0x00010e52:    f0207080     ..p    BIC      r0,r0,#0x1000000
        0x00010e56:    6030        0`      STR      r0,[r6,#0]
        0x00010e58:    6d30        0m      LDR      r0,[r6,#0x50]
        0x00010e5a:    6020         `      STR      r0,[r4,#0]
        0x00010e5c:    6d70        pm      LDR      r0,[r6,#0x54]
        0x00010e5e:    6060        ``      STR      r0,[r4,#4]
        0x00010e60:    6db0        .m      LDR      r0,[r6,#0x58]
        0x00010e62:    60a0        .`      STR      r0,[r4,#8]
        0x00010e64:    6df0        .m      LDR      r0,[r6,#0x5c]
        0x00010e66:    60e0        .`      STR      r0,[r4,#0xc]
        0x00010e68:    9800        ..      LDR      r0,[sp,#0]
        0x00010e6a:    f7fbf9ef    ....    BL       am_hal_interrupt_master_set ; 0xc24c
        0x00010e6e:    48c4        .H      LDR      r0,[pc,#784] ; [0x11180] = 0x10011044
        0x00010e70:    f8d5b004    ....    LDR      r11,[r5,#4]
        0x00010e74:    f850002b    P.+.    LDR      r0,[r0,r11,LSL #2]
        0x00010e78:    4548        HE      CMP      r0,r9
        0x00010e7a:    d006        ..      BEQ      0x10e8a ; main + 690
        0x00010e7c:    f85a102b    Z.+.    LDR      r1,[r10,r11,LSL #2]
        0x00010e80:    464a        JF      MOV      r2,r9
        0x00010e82:    a0c0        ..      ADR      r0,{pc}+0x302 ; 0x11184
        0x00010e84:    f7fff916    ....    BL       am_util_stdio_printf ; 0x100b4
        0x00010e88:    e7fe        ..      B        0x10e88 ; main + 688
        0x00010e8a:    e9d40901    ....    LDRD     r0,r9,[r4,#4]
        0x00010e8e:    ee000a10    ....    VMOV     s0,r0
        0x00010e92:    eba00109    ....    SUB      r1,r0,r9
        0x00010e96:    6129        )a      STR      r1,[r5,#0x10]
        0x00010e98:    eeb80a40    ..@.    VCVT.F32.U32 s0,s0
        0x00010e9c:    ee100a10    ....    VMOV     r0,s0
        0x00010ea0:    f001f9b8    ....    BL       __aeabi_f2d ; 0x12214
        0x00010ea4:    ee009a10    ....    VMOV     s0,r9
        0x00010ea8:    ec410b18    A...    VMOV     d8,r0,r1
        0x00010eac:    eeb80a40    ..@.    VCVT.F32.U32 s0,s0
        0x00010eb0:    ee100a10    ....    VMOV     r0,s0
        0x00010eb4:    f001f9ae    ....    BL       __aeabi_f2d ; 0x12214
        0x00010eb8:    ec532b19    S..+    VMOV     r2,r3,d9
        0x00010ebc:    f001f8ac    ....    BL       __aeabi_dmul ; 0x12018
        0x00010ec0:    ec532b18    S..+    VMOV     r2,r3,d8
        0x00010ec4:    f000ff50    ..P.    BL       __aeabi_ddiv ; 0x11d68
        0x00010ec8:    f000ff1c    ....    BL       __aeabi_d2f ; 0x11d04
        0x00010ecc:    60e8        .`      STR      r0,[r5,#0xc]
        0x00010ece:    4659        YF      MOV      r1,r11
        0x00010ed0:    a072        r.      ADR      r0,{pc}+0x1cc ; 0x1109c
        0x00010ed2:    f7fff8ef    ....    BL       am_util_stdio_printf ; 0x100b4
        0x00010ed6:    a079        y.      ADR      r0,{pc}+0x1e6 ; 0x110bc
        0x00010ed8:    6821        !h      LDR      r1,[r4,#0]
        0x00010eda:    f7fff8eb    ....    BL       am_util_stdio_printf ; 0x100b4
        0x00010ede:    a07d        }.      ADR      r0,{pc}+0x1f6 ; 0x110d4
        0x00010ee0:    f8d81004    ....    LDR      r1,[r8,#4]
        0x00010ee4:    f7fff8e6    ....    BL       am_util_stdio_printf ; 0x100b4
        0x00010ee8:    a07f        ..      ADR      r0,{pc}+0x200 ; 0x110e8
        0x00010eea:    6929        )i      LDR      r1,[r5,#0x10]
        0x00010eec:    f7fff8e2    ....    BL       am_util_stdio_printf ; 0x100b4
        0x00010ef0:    68e8        .h      LDR      r0,[r5,#0xc]
        0x00010ef2:    f001f98f    ....    BL       __aeabi_f2d ; 0x12214
        0x00010ef6:    ec410b10    A...    VMOV     d0,r0,r1
        0x00010efa:    a081        ..      ADR      r0,{pc}+0x206 ; 0x11100
        0x00010efc:    ec532b10    S..+    VMOV     r2,r3,d0
        0x00010f00:    f7fff8d8    ....    BL       am_util_stdio_printf ; 0x100b4
        0x00010f04:    6868        hh      LDR      r0,[r5,#4]
        0x00010f06:    1c40        @.      ADDS     r0,r0,#1
        0x00010f08:    6068        h`      STR      r0,[r5,#4]
        0x00010f0a:    280a        .(      CMP      r0,#0xa
        0x00010f0c:    d381        ..      BCC      0x10e12 ; main + 570
        0x00010f0e:    a0a9        ..      ADR      r0,{pc}+0x2a6 ; 0x111b4
        0x00010f10:    606f        o`      STR      r7,[r5,#4]
        0x00010f12:    f7fff8cf    ....    BL       am_util_stdio_printf ; 0x100b4
        0x00010f16:    f04f6280    O..b    MOV      r2,#0x4000000
        0x00010f1a:    2162        b!      MOVS     r1,#0x62
        0x00010f1c:    48af        .H      LDR      r0,[pc,#700] ; [0x111dc] = 0x117d8
        0x00010f1e:    f7fff8c9    ....    BL       am_util_stdio_printf ; 0x100b4
        0x00010f22:    2001        .       MOVS     r0,#1
        0x00010f24:    9000        ..      STR      r0,[sp,#0]
        0x00010f26:    2362        b#      MOVS     r3,#0x62
        0x00010f28:    2200        ."      MOVS     r2,#0
        0x00010f2a:    49ad        .I      LDR      r1,[pc,#692] ; [0x111e0] = 0x1230d
        0x00010f2c:    6968        hi      LDR      r0,[r5,#0x14]
        0x00010f2e:    f7fcf867    ..g.    BL       am_devices_mspi_psram_write ; 0xd000
        0x00010f32:    b108        ..      CBZ      r0,0x10f38 ; main + 864
        0x00010f34:    48ab        .H      LDR      r0,[pc,#684] ; [0x111e4] = 0x11818
        0x00010f36:    e157        W.      B        0x111e8 ; main + 1552
        0x00010f38:    e159        Y.      B        0x111ee ; main + 1558
    $d
        0x00010f3a:    0000        ..      DCW    0
        0x00010f3c:    00000000    ....    DCD    0
        0x00010f40:    0001230a    .#..    DCD    74506
        0x00010f44:    69626d41    Ambi    DCD    1768058177
        0x00010f48:    694d2071    q Mi    DCD    1766662257
        0x00010f4c:    206f7263    cro     DCD    544174691
        0x00010f50:    68636163    cach    DCD    1751343459
        0x00010f54:    6f6d2065    e mo    DCD    1869422693
        0x00010f58:    6f74696e    nito    DCD    1869900142
        0x00010f5c:    78652072    r ex    DCD    2019893362
        0x00010f60:    6c706d61    ampl    DCD    1819307361
        0x00010f64:    0a0a2e65    e...    DCD    168439397
        0x00010f68:    00000000    ....    DCD    0
        0x00010f6c:    434d5241    ARMC    DCD    1129140801
        0x00010f70:    30352043    C 50    DCD    808788035
        0x00010f74:    35373036    6075    DCD    892809270
        0x00010f78:    00000030    0...    DCD    48
        0x00010f7c:    20707041    App     DCD    544239681
        0x00010f80:    706d6f43    Comp    DCD    1886220099
        0x00010f84:    72656c69    iler    DCD    1919249513
        0x00010f88:    2020203a    :       DCD    538976314
        0x00010f8c:    0a732520     %s.    DCD    175318304
        0x00010f90:    00000000    ....    DCD    0
        0x00010f94:    0001236f    o#..    DCD    74607
        0x00010f98:    204c4148    HAL     DCD    541868360
        0x00010f9c:    706d6f43    Comp    DCD    1886220099
        0x00010fa0:    72656c69    iler    DCD    1919249513
        0x00010fa4:    2020203a    :       DCD    538976314
        0x00010fa8:    0a732520     %s.    DCD    175318304
        0x00010fac:    00000000    ....    DCD    0
        0x00010fb0:    00012380    .#..    DCD    74624
        0x00010fb4:    204c4148    HAL     DCD    541868360
        0x00010fb8:    204b4453    SDK     DCD    541803603
        0x00010fbc:    73726576    vers    DCD    1936876918
        0x00010fc0:    3a6e6f69    ion:    DCD    980316009
        0x00010fc4:    2e642520     %d.    DCD    778315040
        0x00010fc8:    252e6425    %d.%    DCD    623797285
        0x00010fcc:    00000a64    d...    DCD    2660
        0x00010fd0:    525f4d41    AM_R    DCD    1381977409
        0x00010fd4:    00004745    EG..    DCD    18245
        0x00010fd8:    49534d43    CMSI    DCD    1230196035
        0x00010fdc:    00000053    S...    DCD    83
        0x00010fe0:    204c4148    HAL     DCD    541868360
        0x00010fe4:    706d6f63    comp    DCD    1886220131
        0x00010fe8:    64656c69    iled    DCD    1684368489
        0x00010fec:    74697720     wit    DCD    1953068832
        0x00010ff0:    73252068    h %s    DCD    1931812968
        0x00010ff4:    7974732d    -sty    DCD    2037674797
        0x00010ff8:    7220656c    le r    DCD    1914725740
        0x00010ffc:    73696765    egis    DCD    1936287589
        0x00011000:    73726574    ters    DCD    1936876916
        0x00011004:    0000000a    ....    DCD    10
        0x00011008:    10011018    ....    DCD    268505112
        0x0001100c:    00011710    ....    DCD    71440
        0x00011010:    62616e55    Unab    DCD    1650552405
        0x00011014:    7420656c    le t    DCD    1948280172
        0x00011018:    6e69206f    o in    DCD    1852383343
        0x0001101c:    61697469    itia    DCD    1634301033
        0x00011020:    657a696c    lize    DCD    1702521196
        0x00011024:    50534d20     MSP    DCD    1347636512
        0x00011028:    73702049    I ps    DCD    1936728137
        0x0001102c:    0a6d6172    ram.    DCD    174940530
        0x00011030:    00000000    ....    DCD    0
        0x00011034:    e000e004    ....    DCD    3758153732
        0x00011038:    43414344    DCAC    DCD    1128350532
        0x0001103c:    50204548    HE P    DCD    1344292168
        0x00011040:    6f667265    erfo    DCD    1868984933
        0x00011044:    6e616d72    rman    DCD    1851878770
        0x00011048:    44206563    ce D    DCD    1142973795
        0x0001104c:    6e6f6d65    emon    DCD    1852796261
        0x00011050:    61727473    stra    DCD    1634890867
        0x00011054:    6e6f6974    tion    DCD    1852795252
        0x00011058:    61745320     Sta    DCD    1635013408
        0x0001105c:    0a217472    rt!.    DCD    169964658
        0x00011060:    00000000    ....    DCD    0
        0x00011064:    100111b8    ....    DCD    268505528
        0x00011068:    40018000    ...@    DCD    1073840128
        0x0001106c:    10011000    ....    DCD    268505088
        0x00011070:    42c80000    ...B    DCD    1120403456
        0x00011074:    00010b54    T...    DCD    68436
        0x00011078:    00010b80    ....    DCD    68480
        0x0001107c:    00010bac    ....    DCD    68524
        0x00011080:    62616e55    Unab    DCD    1650552405
        0x00011084:    7420656c    le t    DCD    1948280172
        0x00011088:    6c66206f    o fl    DCD    1818632303
        0x0001108c:    20687375    ush     DCD    543716213
        0x00011090:    4950534d    MSPI    DCD    1230000973
        0x00011094:    72737020     psr    DCD    1920167968
        0x00011098:    000a6d61    am..    DCD    683361
        0x0001109c:    2a2a2a2a    ****    DCD    707406378
        0x000110a0:    6574492a    *Ite    DCD    1702119722
        0x000110a4:    69746172    rati    DCD    1769234802
        0x000110a8:    64256e6f    on%d    DCD    1680174703
        0x000110ac:    6d6f6320     com    DCD    1836016416
        0x000110b0:    74656c70    plet    DCD    1952803952
        0x000110b4:    2a2a2a65    e***    DCD    707406437
        0x000110b8:    000a2a2a    **..    DCD    666154
        0x000110bc:    61746f54    Tota    DCD    1635020628
        0x000110c0:    6566206c    l fe    DCD    1701191788
        0x000110c4:    20686374    tch     DCD    543712116
        0x000110c8:    626d756e    numb    DCD    1651340654
        0x000110cc:    203a7265    er:     DCD    540701285
        0x000110d0:    000a6425    %d..    DCD    680997
        0x000110d4:    6b6f6f4c    Look    DCD    1802465100
        0x000110d8:    20707520     up     DCD    544240928
        0x000110dc:    626d756e    numb    DCD    1651340654
        0x000110e0:    203a7265    er:     DCD    540701285
        0x000110e4:    000a6425    %d..    DCD    680997
        0x000110e8:    68636143    Cach    DCD    1751343427
        0x000110ec:    696d2065    e mi    DCD    1768759397
        0x000110f0:    6e207373    ss n    DCD    1847620467
        0x000110f4:    65626d75    umbe    DCD    1700949365
        0x000110f8:    25203a72    r: %    DCD    622869106
        0x000110fc:    00000a64    d...    DCD    2660
        0x00011100:    68636143    Cach    DCD    1751343427
        0x00011104:    69682065    e hi    DCD    1768431717
        0x00011108:    61722074    t ra    DCD    1634869364
        0x0001110c:    203a6574    te:     DCD    540697972
        0x00011110:    322e3625    %6.2    DCD    841889317
        0x00011114:    0a252566    f%%.    DCD    170206566
        0x00011118:    00000000    ....    DCD    0
        0x0001111c:    43414344    DCAC    DCD    1128350532
        0x00011120:    50204548    HE P    DCD    1344292168
        0x00011124:    6f667265    erfo    DCD    1868984933
        0x00011128:    6e616d72    rman    DCD    1851878770
        0x0001112c:    44206563    ce D    DCD    1142973795
        0x00011130:    6e6f6d65    emon    DCD    1852796261
        0x00011134:    61727473    stra    DCD    1634890867
        0x00011138:    6e6f6974    tion    DCD    1852795252
        0x0001113c:    646e4520     End    DCD    1684948256
        0x00011140:    00000a21    !...    DCD    2593
        0x00011144:    43414349    ICAC    DCD    1128350537
        0x00011148:    50204548    HE P    DCD    1344292168
        0x0001114c:    6f667265    erfo    DCD    1868984933
        0x00011150:    6e616d72    rman    DCD    1851878770
        0x00011154:    44206563    ce D    DCD    1142973795
        0x00011158:    6e6f6d65    emon    DCD    1852796261
        0x0001115c:    61727473    stra    DCD    1634890867
        0x00011160:    6e6f6974    tion    DCD    1852795252
        0x00011164:    61745320     Sta    DCD    1635013408
        0x00011168:    0a217472    rt!.    DCD    169964658
        0x0001116c:    00000000    ....    DCD    0
        0x00011170:    1001101c    ....    DCD    268505116
        0x00011174:    100111a8    ....    DCD    268505512
        0x00011178:    00000000    ....    DCD    0
        0x0001117c:    40590000    ..Y@    DCD    1079574528
        0x00011180:    10011044    D...    DCD    268505156
        0x00011184:    4f525245    ERRO    DCD    1330795077
        0x00011188:    49203a52    R: I    DCD    1226848850
        0x0001118c:    6c61766e    nval    DCD    1818326638
        0x00011190:    72206469    id r    DCD    1914725481
        0x00011194:    6c757365    esul    DCD    1819636581
        0x00011198:    45202e74    t. E    DCD    1159736948
        0x0001119c:    63657078    xpec    DCD    1667592312
        0x000111a0:    20646574    ted     DCD    543450484
        0x000111a4:    202c6425    %d,     DCD    539780133
        0x000111a8:    20746f67    got     DCD    544501607
        0x000111ac:    0a2e6425    %d..    DCD    170812453
        0x000111b0:    00000000    ....    DCD    0
        0x000111b4:    43414349    ICAC    DCD    1128350537
        0x000111b8:    50204548    HE P    DCD    1344292168
        0x000111bc:    6f667265    erfo    DCD    1868984933
        0x000111c0:    6e616d72    rman    DCD    1851878770
        0x000111c4:    44206563    ce D    DCD    1142973795
        0x000111c8:    6e6f6d65    emon    DCD    1852796261
        0x000111cc:    61727473    stra    DCD    1634890867
        0x000111d0:    6e6f6974    tion    DCD    1852795252
        0x000111d4:    646e4520     End    DCD    1684948256
        0x000111d8:    00000a21    !...    DCD    2593
        0x000111dc:    000117d8    ....    DCD    71640
        0x000111e0:    0001230d    .#..    DCD    74509
        0x000111e4:    00011818    ....    DCD    71704
    $t
        0x000111e8:    f7feff64    ..d.    BL       am_util_stdio_printf ; 0x100b4
        0x000111ec:    e00c        ..      B        0x11208 ; main + 1584
        0x000111ee:    4824        $H      LDR      r0,[pc,#144] ; [0x11280] = 0x11850
        0x000111f0:    f7feff60    ..`.    BL       am_util_stdio_printf ; 0x100b4
        0x000111f4:    6968        hi      LDR      r0,[r5,#0x14]
        0x000111f6:    f7fbfc8f    ....    BL       am_devices_mspi_psram_enable_xip ; 0xcb18
        0x000111fa:    2800        .(      CMP      r0,#0
        0x000111fc:    bf18        ..      IT       NE
        0x000111fe:    4821        !H      LDRNE    r0,[pc,#132] ; [0x11284] = 0x11884
        0x00011200:    d006        ..      BEQ      0x11210 ; main + 1592
        0x00011202:    bf00        ..      NOP      
        0x00011204:    f7feff56    ..V.    BL       am_util_stdio_printf ; 0x100b4
        0x00011208:    a01f        ..      ADR      r0,{pc}+0x80 ; 0x11288
        0x0001120a:    f7feff53    ..S.    BL       am_util_stdio_printf ; 0x100b4
        0x0001120e:    e7fe        ..      B        0x1120e ; main + 1590
        0x00011210:    2100        .!      MOVS     r1,#0
        0x00011212:    2001        .       MOVS     r0,#1
        0x00011214:    f7fbff58    ..X.    BL       am_hal_cachectrl_control ; 0xd0c8
        0x00011218:    2800        .(      CMP      r0,#0
        0x0001121a:    bf18        ..      IT       NE
        0x0001121c:    481f        .H      LDRNE    r0,[pc,#124] ; [0x1129c] = 0x118ac
        0x0001121e:    d1f1        ..      BNE      0x11204 ; main + 1580
        0x00011220:    f64f71ff    O..q    MOV      r1,#0xffff
        0x00011224:    2000        .       MOVS     r0,#0
        0x00011226:    f7fcfc57    ..W.    BL       am_hal_ctimer_clear ; 0xdad8
        0x0001122a:    491d        .I      LDR      r1,[pc,#116] ; [0x112a0] = 0x10011080
        0x0001122c:    2000        .       MOVS     r0,#0
        0x0001122e:    f7fcfc67    ..g.    BL       am_hal_ctimer_config ; 0xdb00
        0x00011232:    f44f6296    O..b    MOV      r2,#0x4b0
        0x00011236:    1053        S.      ASRS     r3,r2,#1
        0x00011238:    f64f71ff    O..q    MOV      r1,#0xffff
        0x0001123c:    2000        .       MOVS     r0,#0
        0x0001123e:    f7fcfdd3    ....    BL       am_hal_ctimer_period_set ; 0xdde8
        0x00011242:    2001        .       MOVS     r0,#1
        0x00011244:    f7fcfc98    ....    BL       am_hal_ctimer_int_clear ; 0xdb78
        0x00011248:    4916        .I      LDR      r1,[pc,#88] ; [0x112a4] = 0xc2e9
        0x0001124a:    2001        .       MOVS     r0,#1
        0x0001124c:    f7fcfcc8    ....    BL       am_hal_ctimer_int_register ; 0xdbe0
        0x00011250:    2001        .       MOVS     r0,#1
        0x00011252:    f7fcfcb3    ....    BL       am_hal_ctimer_int_enable ; 0xdbbc
        0x00011256:    f04f21e0    O..!    MOV      r1,#0xe000e000
        0x0001125a:    f44f4080    O..@    MOV      r0,#0x4000
        0x0001125e:    f8c10100    ....    STR      r0,[r1,#0x100]
        0x00011262:    f64f71ff    O..q    MOV      r1,#0xffff
        0x00011266:    2000        .       MOVS     r0,#0
        0x00011268:    f7fcfe24    ..$.    BL       am_hal_ctimer_stop ; 0xdeb4
        0x0001126c:    f64f71ff    O..q    MOV      r1,#0xffff
        0x00011270:    2000        .       MOVS     r0,#0
        0x00011272:    f7fcfdf7    ....    BL       am_hal_ctimer_start ; 0xde64
        0x00011276:    a00c        ..      ADR      r0,{pc}+0x32 ; 0x112a8
        0x00011278:    f7feff1c    ....    BL       am_util_stdio_printf ; 0x100b4
        0x0001127c:    e7fe        ..      B        0x1127c ; main + 1700
    $d
        0x0001127e:    0000        ..      DCW    0
        0x00011280:    00011850    P...    DCD    71760
        0x00011284:    00011884    ....    DCD    71812
        0x00011288:    62616e55    Unab    DCD    1650552405
        0x0001128c:    7420656c    le t    DCD    1948280172
        0x00011290:    6e69206f    o in    DCD    1852383343
        0x00011294:    58207469    it X    DCD    1478521961
        0x00011298:    000a5049    IP..    DCD    675913
        0x0001129c:    000118ac    ....    DCD    71852
        0x000112a0:    10011080    ....    DCD    268505216
        0x000112a4:    0000c2e9    ....    DCD    49897
        0x000112a8:    20504958    XIP     DCD    542132568
        0x000112ac:    68636143    Cach    DCD    1751343427
        0x000112b0:    65502065    e Pe    DCD    1699749989
        0x000112b4:    726f6672    rfor    DCD    1919903346
        0x000112b8:    636e616d    manc    DCD    1668178285
        0x000112bc:    65442065    e De    DCD    1698963557
        0x000112c0:    736e6f6d    mons    DCD    1936617325
        0x000112c4:    74617274    trat    DCD    1952543348
        0x000112c8:    206e6f69    ion     DCD    544108393
        0x000112cc:    72617453    Star    DCD    1918989395
        0x000112d0:    000a2174    t!..    DCD    663924
    $t
    i.mspi_device_configure
    mspi_device_configure
        0x000112d4:    6840        @h      LDR      r0,[r0,#4]
        0x000112d6:    2914        .)      CMP      r1,#0x14
        0x000112d8:    f0808202    ....    BCS.W    0x116e0 ; mspi_device_configure + 1036
        0x000112dc:    e8dff001    ....    TBB      [pc,r1]
    $d
        0x000112e0:    5b40250a    .%@[    DCD    1530930442
        0x000112e4:    c7ac9176    v...    DCD    3349975414
        0x000112e8:    fde4e2e2    ....    DCD    4259635938
        0x000112ec:    f9fafbfc    ....    DCD    4193975292
        0x000112f0:    f5f6f7f8    ....    DCD    4126603256
    $t
        0x000112f4:    0300        ..      LSLS     r0,r0,#12
        0x000112f6:    f10040a0    ...@    ADD      r0,r0,#0x50000000
        0x000112fa:    f50030a0    ...0    ADD      r0,r0,#0x14000
        0x000112fe:    6841        Ah      LDR      r1,[r0,#4]
        0x00011300:    f021010f    !...    BIC      r1,r1,#0xf
        0x00011304:    1c49        I.      ADDS     r1,r1,#1
        0x00011306:    6041        A`      STR      r1,[r0,#4]
        0x00011308:    6841        Ah      LDR      r1,[r0,#4]
        0x0001130a:    f0410180    A...    ORR      r1,r1,#0x80
        0x0001130e:    6041        A`      STR      r1,[r0,#4]
        0x00011310:    f8d01120    .. .    LDR      r1,[r0,#0x120]
        0x00011314:    f42161e0    !..a    BIC      r1,r1,#0x700
        0x00011318:    f8c01120    .. .    STR      r1,[r0,#0x120]
        0x0001131c:    2100        .!      MOVS     r1,#0
        0x0001131e:    f8c01110    ....    STR      r1,[r0,#0x110]
        0x00011322:    f2401103    @...    MOV      r1,#0x103
        0x00011326:    f000b9d9    ....    B.W      0x116dc ; mspi_device_configure + 1032
        0x0001132a:    0300        ..      LSLS     r0,r0,#12
        0x0001132c:    f10040a0    ...@    ADD      r0,r0,#0x50000000
        0x00011330:    f50030a0    ...0    ADD      r0,r0,#0x14000
        0x00011334:    6841        Ah      LDR      r1,[r0,#4]
        0x00011336:    f021010f    !...    BIC      r1,r1,#0xf
        0x0001133a:    1c89        ..      ADDS     r1,r1,#2
        0x0001133c:    6041        A`      STR      r1,[r0,#4]
        0x0001133e:    6841        Ah      LDR      r1,[r0,#4]
        0x00011340:    f0410180    A...    ORR      r1,r1,#0x80
        0x00011344:    6041        A`      STR      r1,[r0,#4]
        0x00011346:    f8d01120    .. .    LDR      r1,[r0,#0x120]
        0x0001134a:    f42161e0    !..a    BIC      r1,r1,#0x700
        0x0001134e:    f8c01120    .. .    STR      r1,[r0,#0x120]
        0x00011352:    2100        .!      MOVS     r1,#0
        0x00011354:    f8c01110    ....    STR      r1,[r0,#0x110]
        0x00011358:    f44f7198    O..q    MOV      r1,#0x130
        0x0001135c:    f000b9be    ....    B.W      0x116dc ; mspi_device_configure + 1032
        0x00011360:    0300        ..      LSLS     r0,r0,#12
        0x00011362:    f10040a0    ...@    ADD      r0,r0,#0x50000000
        0x00011366:    f50030a0    ...0    ADD      r0,r0,#0x14000
        0x0001136a:    6841        Ah      LDR      r1,[r0,#4]
        0x0001136c:    f021010f    !...    BIC      r1,r1,#0xf
        0x00011370:    1d49        I.      ADDS     r1,r1,#5
        0x00011372:    6041        A`      STR      r1,[r0,#4]
        0x00011374:    6841        Ah      LDR      r1,[r0,#4]
        0x00011376:    f0210180    !...    BIC      r1,r1,#0x80
        0x0001137a:    6041        A`      STR      r1,[r0,#4]
        0x0001137c:    f8d01120    .. .    LDR      r1,[r0,#0x120]
        0x00011380:    f42161e0    !..a    BIC      r1,r1,#0x700
        0x00011384:    f8c01120    .. .    STR      r1,[r0,#0x120]
        0x00011388:    2100        .!      MOVS     r1,#0
        0x0001138a:    f8c01110    ....    STR      r1,[r0,#0x110]
        0x0001138e:    f2401103    @...    MOV      r1,#0x103
        0x00011392:    f000b9a3    ....    B.W      0x116dc ; mspi_device_configure + 1032
        0x00011396:    0300        ..      LSLS     r0,r0,#12
        0x00011398:    f10040a0    ...@    ADD      r0,r0,#0x50000000
        0x0001139c:    f50030a0    ...0    ADD      r0,r0,#0x14000
        0x000113a0:    6841        Ah      LDR      r1,[r0,#4]
        0x000113a2:    f021010f    !...    BIC      r1,r1,#0xf
        0x000113a6:    1d89        ..      ADDS     r1,r1,#6
        0x000113a8:    6041        A`      STR      r1,[r0,#4]
        0x000113aa:    6841        Ah      LDR      r1,[r0,#4]
        0x000113ac:    f0210180    !...    BIC      r1,r1,#0x80
        0x000113b0:    6041        A`      STR      r1,[r0,#4]
        0x000113b2:    f8d01120    .. .    LDR      r1,[r0,#0x120]
        0x000113b6:    f42161e0    !..a    BIC      r1,r1,#0x700
        0x000113ba:    f8c01120    .. .    STR      r1,[r0,#0x120]
        0x000113be:    2100        .!      MOVS     r1,#0
        0x000113c0:    f8c01110    ....    STR      r1,[r0,#0x110]
        0x000113c4:    f44f7198    O..q    MOV      r1,#0x130
        0x000113c8:    f000b988    ....    B.W      0x116dc ; mspi_device_configure + 1032
        0x000113cc:    0300        ..      LSLS     r0,r0,#12
        0x000113ce:    f10040a0    ...@    ADD      r0,r0,#0x50000000
        0x000113d2:    f50030a0    ...0    ADD      r0,r0,#0x14000
        0x000113d6:    6841        Ah      LDR      r1,[r0,#4]
        0x000113d8:    f021010f    !...    BIC      r1,r1,#0xf
        0x000113dc:    3109        .1      ADDS     r1,r1,#9
        0x000113de:    6041        A`      STR      r1,[r0,#4]
        0x000113e0:    6841        Ah      LDR      r1,[r0,#4]
        0x000113e2:    f0210180    !...    BIC      r1,r1,#0x80
        0x000113e6:    6041        A`      STR      r1,[r0,#4]
        0x000113e8:    f8d01120    .. .    LDR      r1,[r0,#0x120]
        0x000113ec:    f42161e0    !..a    BIC      r1,r1,#0x700
        0x000113f0:    f8c01120    .. .    STR      r1,[r0,#0x120]
        0x000113f4:    2100        .!      MOVS     r1,#0
        0x000113f6:    f8c01110    ....    STR      r1,[r0,#0x110]
        0x000113fa:    f240110f    @...    MOV      r1,#0x10f
        0x000113fe:    f000b96d    ..m.    B.W      0x116dc ; mspi_device_configure + 1032
        0x00011402:    0300        ..      LSLS     r0,r0,#12
        0x00011404:    f10040a0    ...@    ADD      r0,r0,#0x50000000
        0x00011408:    f50030a0    ...0    ADD      r0,r0,#0x14000
        0x0001140c:    6841        Ah      LDR      r1,[r0,#4]
        0x0001140e:    f021010f    !...    BIC      r1,r1,#0xf
        0x00011412:    310a        .1      ADDS     r1,r1,#0xa
        0x00011414:    6041        A`      STR      r1,[r0,#4]
        0x00011416:    6841        Ah      LDR      r1,[r0,#4]
        0x00011418:    f0210180    !...    BIC      r1,r1,#0x80
        0x0001141c:    6041        A`      STR      r1,[r0,#4]
        0x0001141e:    f8d01120    .. .    LDR      r1,[r0,#0x120]
        0x00011422:    f42161e0    !..a    BIC      r1,r1,#0x700
        0x00011426:    f8c01120    .. .    STR      r1,[r0,#0x120]
        0x0001142a:    2100        .!      MOVS     r1,#0
        0x0001142c:    f8c01110    ....    STR      r1,[r0,#0x110]
        0x00011430:    f44f71f8    O..q    MOV      r1,#0x1f0
        0x00011434:    f000b952    ..R.    B.W      0x116dc ; mspi_device_configure + 1032
        0x00011438:    0300        ..      LSLS     r0,r0,#12
        0x0001143a:    f10040a0    ...@    ADD      r0,r0,#0x50000000
        0x0001143e:    f50030a0    ...0    ADD      r0,r0,#0x14000
        0x00011442:    6841        Ah      LDR      r1,[r0,#4]
        0x00011444:    f021010f    !...    BIC      r1,r1,#0xf
        0x00011448:    310d        .1      ADDS     r1,r1,#0xd
        0x0001144a:    6041        A`      STR      r1,[r0,#4]
        0x0001144c:    6841        Ah      LDR      r1,[r0,#4]
        0x0001144e:    f0210180    !...    BIC      r1,r1,#0x80
        0x00011452:    6041        A`      STR      r1,[r0,#4]
        0x00011454:    f8d01120    .. .    LDR      r1,[r0,#0x120]
        0x00011458:    f42161e0    !..a    BIC      r1,r1,#0x700
        0x0001145c:    f8c01120    .. .    STR      r1,[r0,#0x120]
        0x00011460:    2100        .!      MOVS     r1,#0
        0x00011462:    f8c01110    ....    STR      r1,[r0,#0x110]
        0x00011466:    f24031ff    @..1    MOV      r1,#0x3ff
        0x0001146a:    f000b937    ..7.    B.W      0x116dc ; mspi_device_configure + 1032
        0x0001146e:    0300        ..      LSLS     r0,r0,#12
        0x00011470:    f10040a0    ...@    ADD      r0,r0,#0x50000000
        0x00011474:    f50030a0    ...0    ADD      r0,r0,#0x14000
        0x00011478:    6841        Ah      LDR      r1,[r0,#4]
        0x0001147a:    f021010f    !...    BIC      r1,r1,#0xf
        0x0001147e:    310e        .1      ADDS     r1,r1,#0xe
        0x00011480:    6041        A`      STR      r1,[r0,#4]
        0x00011482:    6841        Ah      LDR      r1,[r0,#4]
        0x00011484:    f0210180    !...    BIC      r1,r1,#0x80
        0x00011488:    6041        A`      STR      r1,[r0,#4]
        0x0001148a:    f8d01120    .. .    LDR      r1,[r0,#0x120]
        0x0001148e:    f42161e0    !..a    BIC      r1,r1,#0x700
        0x00011492:    f8c01120    .. .    STR      r1,[r0,#0x120]
        0x00011496:    2100        .!      MOVS     r1,#0
        0x00011498:    f8c01110    ....    STR      r1,[r0,#0x110]
        0x0001149c:    f24031ff    @..1    MOV      r1,#0x3ff
        0x000114a0:    f000b91c    ....    B.W      0x116dc ; mspi_device_configure + 1032
        0x000114a4:    2006        .       MOVS     r0,#6
        0x000114a6:    4770        pG      BX       lr
        0x000114a8:    0300        ..      LSLS     r0,r0,#12
        0x000114aa:    f10040a0    ...@    ADD      r0,r0,#0x50000000
        0x000114ae:    f50030a0    ...0    ADD      r0,r0,#0x14000
        0x000114b2:    6841        Ah      LDR      r1,[r0,#4]
        0x000114b4:    f021010f    !...    BIC      r1,r1,#0xf
        0x000114b8:    1c49        I.      ADDS     r1,r1,#1
        0x000114ba:    6041        A`      STR      r1,[r0,#4]
        0x000114bc:    6841        Ah      LDR      r1,[r0,#4]
        0x000114be:    f0210180    !...    BIC      r1,r1,#0x80
        0x000114c2:    6041        A`      STR      r1,[r0,#4]
        0x000114c4:    f8d01120    .. .    LDR      r1,[r0,#0x120]
        0x000114c8:    e008        ..      B        0x114dc ; mspi_device_configure + 520
        0x000114ca:    e0ee        ..      B        0x116aa ; mspi_device_configure + 982
        0x000114cc:    e0d3        ..      B        0x11676 ; mspi_device_configure + 930
        0x000114ce:    e0b8        ..      B        0x11642 ; mspi_device_configure + 878
        0x000114d0:    e09d        ..      B        0x1160e ; mspi_device_configure + 826
        0x000114d2:    e080        ..      B        0x115d6 ; mspi_device_configure + 770
        0x000114d4:    e063        c.      B        0x1159e ; mspi_device_configure + 714
        0x000114d6:    e046        F.      B        0x11566 ; mspi_device_configure + 658
        0x000114d8:    e029        ).      B        0x1152e ; mspi_device_configure + 602
        0x000114da:    e00c        ..      B        0x114f6 ; mspi_device_configure + 546
        0x000114dc:    f42161e0    !..a    BIC      r1,r1,#0x700
        0x000114e0:    f5017180    ...q    ADD      r1,r1,#0x100
        0x000114e4:    f8c01120    .. .    STR      r1,[r0,#0x120]
        0x000114e8:    2100        .!      MOVS     r1,#0
        0x000114ea:    f8c01110    ....    STR      r1,[r0,#0x110]
        0x000114ee:    f2401103    @...    MOV      r1,#0x103
        0x000114f2:    f000b8f3    ....    B.W      0x116dc ; mspi_device_configure + 1032
        0x000114f6:    0300        ..      LSLS     r0,r0,#12
        0x000114f8:    f10040a0    ...@    ADD      r0,r0,#0x50000000
        0x000114fc:    f50030a0    ...0    ADD      r0,r0,#0x14000
        0x00011500:    6841        Ah      LDR      r1,[r0,#4]
        0x00011502:    f021010f    !...    BIC      r1,r1,#0xf
        0x00011506:    1c89        ..      ADDS     r1,r1,#2
        0x00011508:    6041        A`      STR      r1,[r0,#4]
        0x0001150a:    6841        Ah      LDR      r1,[r0,#4]
        0x0001150c:    f0210180    !...    BIC      r1,r1,#0x80
        0x00011510:    6041        A`      STR      r1,[r0,#4]
        0x00011512:    f8d01120    .. .    LDR      r1,[r0,#0x120]
        0x00011516:    f42161e0    !..a    BIC      r1,r1,#0x700
        0x0001151a:    f5017180    ...q    ADD      r1,r1,#0x100
        0x0001151e:    f8c01120    .. .    STR      r1,[r0,#0x120]
        0x00011522:    2100        .!      MOVS     r1,#0
        0x00011524:    f8c01110    ....    STR      r1,[r0,#0x110]
        0x00011528:    f44f7198    O..q    MOV      r1,#0x130
        0x0001152c:    e0d6        ..      B        0x116dc ; mspi_device_configure + 1032
        0x0001152e:    0300        ..      LSLS     r0,r0,#12
        0x00011530:    f10040a0    ...@    ADD      r0,r0,#0x50000000
        0x00011534:    f50030a0    ...0    ADD      r0,r0,#0x14000
        0x00011538:    6841        Ah      LDR      r1,[r0,#4]
        0x0001153a:    f021010f    !...    BIC      r1,r1,#0xf
        0x0001153e:    1c49        I.      ADDS     r1,r1,#1
        0x00011540:    6041        A`      STR      r1,[r0,#4]
        0x00011542:    6841        Ah      LDR      r1,[r0,#4]
        0x00011544:    f0210180    !...    BIC      r1,r1,#0x80
        0x00011548:    6041        A`      STR      r1,[r0,#4]
        0x0001154a:    f8d01120    .. .    LDR      r1,[r0,#0x120]
        0x0001154e:    f42161e0    !..a    BIC      r1,r1,#0x700
        0x00011552:    f5017140    ..@q    ADD      r1,r1,#0x300
        0x00011556:    f8c01120    .. .    STR      r1,[r0,#0x120]
        0x0001155a:    2100        .!      MOVS     r1,#0
        0x0001155c:    f8c01110    ....    STR      r1,[r0,#0x110]
        0x00011560:    f2401103    @...    MOV      r1,#0x103
        0x00011564:    e0ba        ..      B        0x116dc ; mspi_device_configure + 1032
        0x00011566:    0300        ..      LSLS     r0,r0,#12
        0x00011568:    f10040a0    ...@    ADD      r0,r0,#0x50000000
        0x0001156c:    f50030a0    ...0    ADD      r0,r0,#0x14000
        0x00011570:    6841        Ah      LDR      r1,[r0,#4]
        0x00011572:    f021010f    !...    BIC      r1,r1,#0xf
        0x00011576:    1c89        ..      ADDS     r1,r1,#2
        0x00011578:    6041        A`      STR      r1,[r0,#4]
        0x0001157a:    6841        Ah      LDR      r1,[r0,#4]
        0x0001157c:    f0210180    !...    BIC      r1,r1,#0x80
        0x00011580:    6041        A`      STR      r1,[r0,#4]
        0x00011582:    f8d01120    .. .    LDR      r1,[r0,#0x120]
        0x00011586:    f42161e0    !..a    BIC      r1,r1,#0x700
        0x0001158a:    f5017140    ..@q    ADD      r1,r1,#0x300
        0x0001158e:    f8c01120    .. .    STR      r1,[r0,#0x120]
        0x00011592:    2100        .!      MOVS     r1,#0
        0x00011594:    f8c01110    ....    STR      r1,[r0,#0x110]
        0x00011598:    f44f7198    O..q    MOV      r1,#0x130
        0x0001159c:    e09e        ..      B        0x116dc ; mspi_device_configure + 1032
        0x0001159e:    0300        ..      LSLS     r0,r0,#12
        0x000115a0:    f10040a0    ...@    ADD      r0,r0,#0x50000000
        0x000115a4:    f50030a0    ...0    ADD      r0,r0,#0x14000
        0x000115a8:    6841        Ah      LDR      r1,[r0,#4]
        0x000115aa:    f021010f    !...    BIC      r1,r1,#0xf
        0x000115ae:    1c49        I.      ADDS     r1,r1,#1
        0x000115b0:    6041        A`      STR      r1,[r0,#4]
        0x000115b2:    6841        Ah      LDR      r1,[r0,#4]
        0x000115b4:    f0210180    !...    BIC      r1,r1,#0x80
        0x000115b8:    6041        A`      STR      r1,[r0,#4]
        0x000115ba:    f8d01120    .. .    LDR      r1,[r0,#0x120]
        0x000115be:    f42161e0    !..a    BIC      r1,r1,#0x700
        0x000115c2:    f50161a0    ...a    ADD      r1,r1,#0x500
        0x000115c6:    f8c01120    .. .    STR      r1,[r0,#0x120]
        0x000115ca:    2100        .!      MOVS     r1,#0
        0x000115cc:    f8c01110    ....    STR      r1,[r0,#0x110]
        0x000115d0:    f240110f    @...    MOV      r1,#0x10f
        0x000115d4:    e082        ..      B        0x116dc ; mspi_device_configure + 1032
        0x000115d6:    0300        ..      LSLS     r0,r0,#12
        0x000115d8:    f10040a0    ...@    ADD      r0,r0,#0x50000000
        0x000115dc:    f50030a0    ...0    ADD      r0,r0,#0x14000
        0x000115e0:    6841        Ah      LDR      r1,[r0,#4]
        0x000115e2:    f021010f    !...    BIC      r1,r1,#0xf
        0x000115e6:    1c89        ..      ADDS     r1,r1,#2
        0x000115e8:    6041        A`      STR      r1,[r0,#4]
        0x000115ea:    6841        Ah      LDR      r1,[r0,#4]
        0x000115ec:    f0210180    !...    BIC      r1,r1,#0x80
        0x000115f0:    6041        A`      STR      r1,[r0,#4]
        0x000115f2:    f8d01120    .. .    LDR      r1,[r0,#0x120]
        0x000115f6:    f42161e0    !..a    BIC      r1,r1,#0x700
        0x000115fa:    f50161a0    ...a    ADD      r1,r1,#0x500
        0x000115fe:    f8c01120    .. .    STR      r1,[r0,#0x120]
        0x00011602:    2100        .!      MOVS     r1,#0
        0x00011604:    f8c01110    ....    STR      r1,[r0,#0x110]
        0x00011608:    f44f71f8    O..q    MOV      r1,#0x1f0
        0x0001160c:    e066        f.      B        0x116dc ; mspi_device_configure + 1032
        0x0001160e:    0300        ..      LSLS     r0,r0,#12
        0x00011610:    f10040a0    ...@    ADD      r0,r0,#0x50000000
        0x00011614:    f50030a0    ...0    ADD      r0,r0,#0x14000
        0x00011618:    6841        Ah      LDR      r1,[r0,#4]
        0x0001161a:    f021010f    !...    BIC      r1,r1,#0xf
        0x0001161e:    1c49        I.      ADDS     r1,r1,#1
        0x00011620:    6041        A`      STR      r1,[r0,#4]
        0x00011622:    6841        Ah      LDR      r1,[r0,#4]
        0x00011624:    f0210180    !...    BIC      r1,r1,#0x80
        0x00011628:    6041        A`      STR      r1,[r0,#4]
        0x0001162a:    f8d01120    .. .    LDR      r1,[r0,#0x120]
        0x0001162e:    f44161e0    A..a    ORR      r1,r1,#0x700
        0x00011632:    f8c01120    .. .    STR      r1,[r0,#0x120]
        0x00011636:    2100        .!      MOVS     r1,#0
        0x00011638:    f8c01110    ....    STR      r1,[r0,#0x110]
        0x0001163c:    f240110f    @...    MOV      r1,#0x10f
        0x00011640:    e04c        L.      B        0x116dc ; mspi_device_configure + 1032
        0x00011642:    0300        ..      LSLS     r0,r0,#12
        0x00011644:    f10040a0    ...@    ADD      r0,r0,#0x50000000
        0x00011648:    f50030a0    ...0    ADD      r0,r0,#0x14000
        0x0001164c:    6841        Ah      LDR      r1,[r0,#4]
        0x0001164e:    f021010f    !...    BIC      r1,r1,#0xf
        0x00011652:    1c89        ..      ADDS     r1,r1,#2
        0x00011654:    6041        A`      STR      r1,[r0,#4]
        0x00011656:    6841        Ah      LDR      r1,[r0,#4]
        0x00011658:    f0210180    !...    BIC      r1,r1,#0x80
        0x0001165c:    6041        A`      STR      r1,[r0,#4]
        0x0001165e:    f8d01120    .. .    LDR      r1,[r0,#0x120]
        0x00011662:    f44161e0    A..a    ORR      r1,r1,#0x700
        0x00011666:    f8c01120    .. .    STR      r1,[r0,#0x120]
        0x0001166a:    2100        .!      MOVS     r1,#0
        0x0001166c:    f8c01110    ....    STR      r1,[r0,#0x110]
        0x00011670:    f44f71f8    O..q    MOV      r1,#0x1f0
        0x00011674:    e032        2.      B        0x116dc ; mspi_device_configure + 1032
        0x00011676:    0300        ..      LSLS     r0,r0,#12
        0x00011678:    f10040a0    ...@    ADD      r0,r0,#0x50000000
        0x0001167c:    f50030a0    ...0    ADD      r0,r0,#0x14000
        0x00011680:    6841        Ah      LDR      r1,[r0,#4]
        0x00011682:    f021010f    !...    BIC      r1,r1,#0xf
        0x00011686:    1c49        I.      ADDS     r1,r1,#1
        0x00011688:    6041        A`      STR      r1,[r0,#4]
        0x0001168a:    6841        Ah      LDR      r1,[r0,#4]
        0x0001168c:    f0210180    !...    BIC      r1,r1,#0x80
        0x00011690:    6041        A`      STR      r1,[r0,#4]
        0x00011692:    f8d01120    .. .    LDR      r1,[r0,#0x120]
        0x00011696:    f42161e0    !..a    BIC      r1,r1,#0x700
        0x0001169a:    f8c01120    .. .    STR      r1,[r0,#0x120]
        0x0001169e:    2100        .!      MOVS     r1,#0
        0x000116a0:    f8c01110    ....    STR      r1,[r0,#0x110]
        0x000116a4:    f2401103    @...    MOV      r1,#0x103
        0x000116a8:    e018        ..      B        0x116dc ; mspi_device_configure + 1032
        0x000116aa:    0300        ..      LSLS     r0,r0,#12
        0x000116ac:    f10040a0    ...@    ADD      r0,r0,#0x50000000
        0x000116b0:    f50030a0    ...0    ADD      r0,r0,#0x14000
        0x000116b4:    6841        Ah      LDR      r1,[r0,#4]
        0x000116b6:    f021010f    !...    BIC      r1,r1,#0xf
        0x000116ba:    1c89        ..      ADDS     r1,r1,#2
        0x000116bc:    6041        A`      STR      r1,[r0,#4]
        0x000116be:    6841        Ah      LDR      r1,[r0,#4]
        0x000116c0:    f0210180    !...    BIC      r1,r1,#0x80
        0x000116c4:    6041        A`      STR      r1,[r0,#4]
        0x000116c6:    f8d01120    .. .    LDR      r1,[r0,#0x120]
        0x000116ca:    f42161e0    !..a    BIC      r1,r1,#0x700
        0x000116ce:    f8c01120    .. .    STR      r1,[r0,#0x120]
        0x000116d2:    2100        .!      MOVS     r1,#0
        0x000116d4:    f8c01110    ....    STR      r1,[r0,#0x110]
        0x000116d8:    f44f7198    O..q    MOV      r1,#0x130
        0x000116dc:    f8c01114    ....    STR      r1,[r0,#0x114]
        0x000116e0:    2000        .       MOVS     r0,#0
        0x000116e2:    4770        pG      BX       lr
    i.mspi_dummy_callback
    mspi_dummy_callback
        0x000116e4:    4770        pG      BX       lr
        0x000116e6:    0000        ..      MOVS     r0,r0
    i.mspi_psram_init
    mspi_psram_init
        0x000116e8:    4b08        .K      LDR      r3,[pc,#32] ; [0x1170c] = 0x10011018
        0x000116ea:    b510        ..      PUSH     {r4,lr}
        0x000116ec:    1f1a        ..      SUBS     r2,r3,#4
        0x000116ee:    f1020158    ..X.    ADD      r1,r2,#0x58
        0x000116f2:    2001        .       MOVS     r0,#1
        0x000116f4:    f7fbfa1a    ....    BL       am_devices_mspi_psram_init ; 0xcb2c
        0x000116f8:    2800        .(      CMP      r0,#0
        0x000116fa:    bf08        ..      IT       EQ
        0x000116fc:    bd10        ..      POPEQ    {r4,pc}
        0x000116fe:    a004        ..      ADR      r0,{pc}+0x12 ; 0x11710
        0x00011700:    f7fefcd8    ....    BL       am_util_stdio_printf ; 0x100b4
        0x00011704:    f04f30ff    O..0    MOV      r0,#0xffffffff
        0x00011708:    bd10        ..      POP      {r4,pc}
    $d
        0x0001170a:    0000        ..      DCW    0
        0x0001170c:    10011018    ....    DCD    268505112
        0x00011710:    6c696146    Fail    DCD    1818845510
        0x00011714:    74206465    ed t    DCD    1948279909
        0x00011718:    6f63206f    o co    DCD    1868767343
        0x0001171c:    6769666e    nfig    DCD    1734960750
        0x00011720:    20657275    ure     DCD    543519349
        0x00011724:    20656874    the     DCD    543516788
        0x00011728:    4950534d    MSPI    DCD    1230000973
        0x0001172c:    646e6120     and    DCD    1684955424
        0x00011730:    52535020     PSR    DCD    1381191712
        0x00011734:    44204d41    AM D    DCD    1142967617
        0x00011738:    63697665    evic    DCD    1667855973
        0x0001173c:    6f632065    e co    DCD    1868767333
        0x00011740:    63657272    rrec    DCD    1667592818
        0x00011744:    21796c74    tly!    DCD    561605748
        0x00011748:    0000000a    ....    DCD    10
    $t
    i.mspi_seq_loopback
    mspi_seq_loopback
        0x0001174c:    f8d0182c    ..,.    LDR      r1,[r0,#0x82c]
        0x00011750:    1c49        I.      ADDS     r1,r1,#1
        0x00011752:    61c1        .a      STR      r1,[r0,#0x1c]
        0x00011754:    2100        .!      MOVS     r1,#0
        0x00011756:    6181        .a      STR      r1,[r0,#0x18]
        0x00011758:    2101        .!      MOVS     r1,#1
        0x0001175a:    f8801830    ..0.    STRB     r1,[r0,#0x830]
        0x0001175e:    6840        @h      LDR      r0,[r0,#4]
        0x00011760:    2140        @!      MOVS     r1,#0x40
        0x00011762:    0300        ..      LSLS     r0,r0,#12
        0x00011764:    f10040a0    ...@    ADD      r0,r0,#0x50000000
        0x00011768:    f50030a0    ...0    ADD      r0,r0,#0x14000
        0x0001176c:    f8c012b4    ....    STR      r1,[r0,#0x2b4]
        0x00011770:    4770        pG      BX       lr
        0x00011772:    0000        ..      MOVS     r0,r0
    i.mspi_xip_init
    mspi_xip_init
        0x00011774:    b538        8.      PUSH     {r3-r5,lr}
        0x00011776:    f04f6280    O..b    MOV      r2,#0x4000000
        0x0001177a:    2162        b!      MOVS     r1,#0x62
        0x0001177c:    a016        ..      ADR      r0,{pc}+0x5c ; 0x117d8
        0x0001177e:    f7fefc99    ....    BL       am_util_stdio_printf ; 0x100b4
        0x00011782:    4c24        $L      LDR      r4,[pc,#144] ; [0x11814] = 0x10011000
        0x00011784:    2001        .       MOVS     r0,#1
        0x00011786:    9000        ..      STR      r0,[sp,#0]
        0x00011788:    2362        b#      MOVS     r3,#0x62
        0x0001178a:    2200        ."      MOVS     r2,#0
        0x0001178c:    4920         I      LDR      r1,[pc,#128] ; [0x11810] = 0x1230d
        0x0001178e:    6960        `i      LDR      r0,[r4,#0x14]
        0x00011790:    f7fbfc36    ..6.    BL       am_devices_mspi_psram_write ; 0xd000
        0x00011794:    b128        (.      CBZ      r0,0x117a2 ; mspi_xip_init + 46
        0x00011796:    a020         .      ADR      r0,{pc}+0x82 ; 0x11818
        0x00011798:    f7fefc8c    ....    BL       am_util_stdio_printf ; 0x100b4
        0x0001179c:    f04f30ff    O..0    MOV      r0,#0xffffffff
        0x000117a0:    bd38        8.      POP      {r3-r5,pc}
        0x000117a2:    a02b        +.      ADR      r0,{pc}+0xae ; 0x11850
        0x000117a4:    f7fefc86    ....    BL       am_util_stdio_printf ; 0x100b4
        0x000117a8:    6960        `i      LDR      r0,[r4,#0x14]
        0x000117aa:    f7fbf9b5    ....    BL       am_devices_mspi_psram_enable_xip ; 0xcb18
        0x000117ae:    b128        (.      CBZ      r0,0x117bc ; mspi_xip_init + 72
        0x000117b0:    a034        4.      ADR      r0,{pc}+0xd4 ; 0x11884
        0x000117b2:    f7fefc7f    ....    BL       am_util_stdio_printf ; 0x100b4
        0x000117b6:    f04f30ff    O..0    MOV      r0,#0xffffffff
        0x000117ba:    bd38        8.      POP      {r3-r5,pc}
        0x000117bc:    2100        .!      MOVS     r1,#0
        0x000117be:    2001        .       MOVS     r0,#1
        0x000117c0:    f7fbfc82    ....    BL       am_hal_cachectrl_control ; 0xd0c8
        0x000117c4:    2800        .(      CMP      r0,#0
        0x000117c6:    bf08        ..      IT       EQ
        0x000117c8:    bd38        8.      POPEQ    {r3-r5,pc}
        0x000117ca:    a038        8.      ADR      r0,{pc}+0xe2 ; 0x118ac
        0x000117cc:    f7fefc72    ..r.    BL       am_util_stdio_printf ; 0x100b4
        0x000117d0:    f04f30ff    O..0    MOV      r0,#0xffffffff
        0x000117d4:    bd38        8.      POP      {r3-r5,pc}
    $d
        0x000117d6:    0000        ..      DCW    0
        0x000117d8:    74697257    Writ    DCD    1953067607
        0x000117dc:    20676e69    ing     DCD    543649385
        0x000117e0:    63657845    Exec    DCD    1667594309
        0x000117e4:    62617475    utab    DCD    1650553973
        0x000117e8:    6620656c    le f    DCD    1713399148
        0x000117ec:    74636e75    unct    DCD    1952673397
        0x000117f0:    206e6f69    ion     DCD    544108393
        0x000117f4:    2520666f    of %    DCD    622880367
        0x000117f8:    79422064    d By    DCD    2034376804
        0x000117fc:    20736574    tes     DCD    544433524
        0x00011800:    61206f74    to a    DCD    1629515636
        0x00011804:    65726464    ddre    DCD    1701995620
        0x00011808:    25207373    ss %    DCD    622883699
        0x0001180c:    00000a64    d...    DCD    2660
        0x00011810:    0001230d    .#..    DCD    74509
        0x00011814:    10011000    ....    DCD    268505088
        0x00011818:    6c696146    Fail    DCD    1818845510
        0x0001181c:    74206465    ed t    DCD    1948279909
        0x00011820:    7277206f    o wr    DCD    1920409711
        0x00011824:    20657469    ite     DCD    543519849
        0x00011828:    63657865    exec    DCD    1667594341
        0x0001182c:    62617475    utab    DCD    1650553973
        0x00011830:    6620656c    le f    DCD    1713399148
        0x00011834:    74636e75    unct    DCD    1952673397
        0x00011838:    206e6f69    ion     DCD    544108393
        0x0001183c:    46206f74    to F    DCD    1176530804
        0x00011840:    6873616c    lash    DCD    1752392044
        0x00011844:    76654420     Dev    DCD    1986348064
        0x00011848:    21656369    ice!    DCD    560292713
        0x0001184c:    0000000a    ....    DCD    10
        0x00011850:    74747550    Putt    DCD    1953789264
        0x00011854:    20676e69    ing     DCD    543649385
        0x00011858:    20656874    the     DCD    543516788
        0x0001185c:    4950534d    MSPI    DCD    1230000973
        0x00011860:    646e6120     and    DCD    1684955424
        0x00011864:    74784520     Ext    DCD    1954039072
        0x00011868:    616e7265    erna    DCD    1634628197
        0x0001186c:    5350206c    l PS    DCD    1397760108
        0x00011870:    204d4152    RAM     DCD    541933906
        0x00011874:    6f746e69    into    DCD    1869901417
        0x00011878:    50495820     XIP    DCD    1346983968
        0x0001187c:    646f6d20     mod    DCD    1685024032
        0x00011880:    00000a65    e...    DCD    2661
        0x00011884:    6c696146    Fail    DCD    1818845510
        0x00011888:    74206465    ed t    DCD    1948279909
        0x0001188c:    7570206f    o pu    DCD    1970282607
        0x00011890:    68742074    t th    DCD    1752440948
        0x00011894:    534d2065    e MS    DCD    1397563493
        0x00011898:    69204950    PI i    DCD    1763723600
        0x0001189c:    206f746e    nto     DCD    544175214
        0x000118a0:    20504958    XIP     DCD    542132568
        0x000118a4:    65646f6d    mode    DCD    1701080941
        0x000118a8:    00000a21    !...    DCD    2593
        0x000118ac:    6c696146    Fail    DCD    1818845510
        0x000118b0:    74206465    ed t    DCD    1948279909
        0x000118b4:    6e69206f    o in    DCD    1852383343
        0x000118b8:    696c6176    vali    DCD    1768710518
        0x000118bc:    65746164    date    DCD    1702125924
        0x000118c0:    63614320     Cac    DCD    1667318560
        0x000118c4:    0a216568    he!.    DCD    169960808
        0x000118c8:    00000000    ....    DCD    0
    $t
    i.ndigits_in_u64
    ndigits_in_u64
        0x000118cc:    e92d01f0    -...    PUSH     {r4-r8}
        0x000118d0:    ea500201    P...    ORRS     r2,r0,r1
        0x000118d4:    bf0e        ..      ITEE     EQ
        0x000118d6:    2301        .#      MOVEQ    r3,#1
        0x000118d8:    2300        .#      MOVNE    r3,#0
        0x000118da:    f04f0c00    O...    MOVNE    r12,#0
        0x000118de:    d054        T.      BEQ      0x1198a ; ndigits_in_u64 + 190
        0x000118e0:    2900        .)      CMP      r1,#0
        0x000118e2:    d03b        ;.      BEQ      0x1195c ; ndigits_in_u64 + 144
        0x000118e4:    084c        L.      LSRS     r4,r1,#1
        0x000118e6:    ea4f0690    O...    LSR      r6,r0,#2
        0x000118ea:    ea4f0230    O.0.    RRX      r2,r0
        0x000118ee:    ea467681    F..v    ORR      r6,r6,r1,LSL #30
        0x000118f2:    1992        ..      ADDS     r2,r2,r6
        0x000118f4:    eb440491    D...    ADC      r4,r4,r1,LSR #2
        0x000118f8:    ea4f1612    O...    LSR      r6,r2,#4
        0x000118fc:    ea467504    F..u    ORR      r5,r6,r4,LSL #28
        0x00011900:    18aa        ..      ADDS     r2,r5,r2
        0x00011902:    eb441414    D...    ADC      r4,r4,r4,LSR #4
        0x00011906:    ea4f2612    O..&    LSR      r6,r2,#8
        0x0001190a:    ea466504    F..e    ORR      r5,r6,r4,LSL #24
        0x0001190e:    18aa        ..      ADDS     r2,r5,r2
        0x00011910:    eb442514    D..%    ADC      r5,r4,r4,LSR #8
        0x00011914:    ea4f4612    O..F    LSR      r6,r2,#16
        0x00011918:    ea464405    F..D    ORR      r4,r6,r5,LSL #16
        0x0001191c:    18a4        ..      ADDS     r4,r4,r2
        0x0001191e:    eb454215    E..B    ADC      r2,r5,r5,LSR #16
        0x00011922:    18a4        ..      ADDS     r4,r4,r2
        0x00011924:    eb42020c    B...    ADC      r2,r2,r12
        0x00011928:    08e4        ..      LSRS     r4,r4,#3
        0x0001192a:    ea447442    D.Bt    ORR      r4,r4,r2,LSL #29
        0x0001192e:    270a        .'      MOVS     r7,#0xa
        0x00011930:    fba45807    ...X    UMULL    r5,r8,r4,r7
        0x00011934:    08d2        ..      LSRS     r2,r2,#3
        0x00011936:    fb028707    ....    MLA      r7,r2,r7,r8
        0x0001193a:    2600        .&      MOVS     r6,#0
        0x0001193c:    fb047606    ...v    MLA      r6,r4,r6,r7
        0x00011940:    1b40        @.      SUBS     r0,r0,r5
        0x00011942:    eb610106    a...    SBC      r1,r1,r6
        0x00011946:    1d85        ..      ADDS     r5,r0,#6
        0x00011948:    f1410000    A...    ADC      r0,r1,#0
        0x0001194c:    092d        -.      LSRS     r5,r5,#4
        0x0001194e:    ea457100    E..q    ORR      r1,r5,r0,LSL #28
        0x00011952:    0905        ..      LSRS     r5,r0,#4
        0x00011954:    1908        ..      ADDS     r0,r1,r4
        0x00011956:    eb450102    E...    ADC      r1,r5,r2
        0x0001195a:    e012        ..      B        0x11982 ; ndigits_in_u64 + 182
        0x0001195c:    0841        A.      LSRS     r1,r0,#1
        0x0001195e:    eb010190    ....    ADD      r1,r1,r0,LSR #2
        0x00011962:    eb011111    ....    ADD      r1,r1,r1,LSR #4
        0x00011966:    eb012111    ...!    ADD      r1,r1,r1,LSR #8
        0x0001196a:    eb014111    ...A    ADD      r1,r1,r1,LSR #16
        0x0001196e:    08c9        ..      LSRS     r1,r1,#3
        0x00011970:    424a        JB      RSBS     r2,r1,#0
        0x00011972:    eb020282    ....    ADD      r2,r2,r2,LSL #2
        0x00011976:    eb000042    ..B.    ADD      r0,r0,r2,LSL #1
        0x0001197a:    1d80        ..      ADDS     r0,r0,#6
        0x0001197c:    eb011010    ....    ADD      r0,r1,r0,LSR #4
        0x00011980:    4661        aF      MOV      r1,r12
        0x00011982:    1c5b        [.      ADDS     r3,r3,#1
        0x00011984:    ea500201    P...    ORRS     r2,r0,r1
        0x00011988:    d1aa        ..      BNE      0x118e0 ; ndigits_in_u64 + 20
        0x0001198a:    e8bd01f0    ....    POP      {r4-r8}
        0x0001198e:    4618        .F      MOV      r0,r3
        0x00011990:    4770        pG      BX       lr
    i.pfnMSPI_PSRAM_Callback
    pfnMSPI_PSRAM_Callback
        0x00011992:    2101        .!      MOVS     r1,#1
        0x00011994:    7001        .p      STRB     r1,[r0,#0]
        0x00011996:    4770        pG      BX       lr
    i.prime_number
    prime_number
        0x00011998:    b430        0.      PUSH     {r4,r5}
        0x0001199a:    4604        .F      MOV      r4,r0
        0x0001199c:    2000        .       MOVS     r0,#0
        0x0001199e:    1c89        ..      ADDS     r1,r1,#2
        0x000119a0:    42a1        .B      CMP      r1,r4
        0x000119a2:    bfc4        ..      ITT      GT
        0x000119a4:    bc30        0.      POPGT    {r4,r5}
        0x000119a6:    4770        pG      BXGT     lr
        0x000119a8:    2501        .%      MOVS     r5,#1
        0x000119aa:    2302        .#      MOVS     r3,#2
        0x000119ac:    2902        .)      CMP      r1,#2
        0x000119ae:    dd09        ..      BLE      0x119c4 ; prime_number + 44
        0x000119b0:    fb91fcf3    ....    SDIV     r12,r1,r3
        0x000119b4:    fb031c1c    ....    MLS      r12,r3,r12,r1
        0x000119b8:    f1bc0f00    ....    CMP      r12,#0
        0x000119bc:    d008        ..      BEQ      0x119d0 ; prime_number + 56
        0x000119be:    1c5b        [.      ADDS     r3,r3,#1
        0x000119c0:    428b        .B      CMP      r3,r1
        0x000119c2:    dbf5        ..      BLT      0x119b0 ; prime_number + 24
        0x000119c4:    4411        .D      ADD      r1,r1,r2
        0x000119c6:    4428        (D      ADD      r0,r0,r5
        0x000119c8:    42a1        .B      CMP      r1,r4
        0x000119ca:    dded        ..      BLE      0x119a8 ; prime_number + 16
        0x000119cc:    bc30        0.      POP      {r4,r5}
        0x000119ce:    4770        pG      BX       lr
        0x000119d0:    2500        .%      MOVS     r5,#0
        0x000119d2:    e7f7        ..      B        0x119c4 ; prime_number + 44
    i.psram_nonblocking_transfer
    psram_nonblocking_transfer
        0x000119d4:    e92d4ff0    -..O    PUSH     {r4-r11,lr}
        0x000119d8:    b089        ..      SUB      sp,sp,#0x24
        0x000119da:    4689        .F      MOV      r9,r1
        0x000119dc:    e9dd5113    ...Q    LDRD     r5,r1,[sp,#0x4c]
        0x000119e0:    461f        .F      MOV      r7,r3
        0x000119e2:    2301        .#      MOVS     r3,#1
        0x000119e4:    4680        .F      MOV      r8,r0
        0x000119e6:    2000        .       MOVS     r0,#0
        0x000119e8:    f88d3008    ...0    STRB     r3,[sp,#8]
        0x000119ec:    f8ddb05c    ..\.    LDR      r11,[sp,#0x5c]
        0x000119f0:    f8dda054    ..T.    LDR      r10,[sp,#0x54]
        0x000119f4:    9e12        ..      LDR      r6,[sp,#0x48]
        0x000119f6:    f88d2009    ...     STRB     r2,[sp,#9]
        0x000119fa:    9106        ..      STR      r1,[sp,#0x18]
        0x000119fc:    9007        ..      STR      r0,[sp,#0x1c]
        0x000119fe:    2d00        .-      CMP      r5,#0
        0x00011a00:    bf04        ..      ITT      EQ
        0x00011a02:    b009        ..      ADDEQ    sp,sp,#0x24
        0x00011a04:    e8bd8ff0    ....    POPEQ    {r4-r11,pc}
        0x00011a08:    f0160f03    ....    TST      r6,#3
        0x00011a0c:    d00a        ..      BEQ      0x11a24 ; psram_nonblocking_transfer + 80
        0x00011a0e:    f3c60009    ....    UBFX     r0,r6,#0,#10
        0x00011a12:    f5c06080    ...`    RSB      r0,r0,#0x400
        0x00011a16:    4285        .B      CMP      r5,r0
        0x00011a18:    bf84        ..      ITT      HI
        0x00011a1a:    f0060003    ....    ANDHI    r0,r6,#3
        0x00011a1e:    f1c00404    ....    RSBHI    r4,r0,#4
        0x00011a22:    d800        ..      BHI      0x11a26 ; psram_nonblocking_transfer + 82
        0x00011a24:    462c        ,F      MOV      r4,r5
        0x00011a26:    42ac        .B      CMP      r4,r5
        0x00011a28:    bf0c        ..      ITE      EQ
        0x00011a2a:    2001        .       MOVEQ    r0,#1
        0x00011a2c:    2000        .       MOVNE    r0,#0
        0x00011a2e:    9705        ..      STR      r7,[sp,#0x14]
        0x00011a30:    e9cd4603    ...F    STRD     r4,r6,[sp,#0xc]
        0x00011a34:    2800        .(      CMP      r0,#0
        0x00011a36:    bf18        ..      IT       NE
        0x00011a38:    f8cda01c    ....    STRNE    r10,[sp,#0x1c]
        0x00011a3c:    f1b90f00    ....    CMP      r9,#0
        0x00011a40:    d00d        ..      BEQ      0x11a5e ; psram_nonblocking_transfer + 138
        0x00011a42:    2800        .(      CMP      r0,#0
        0x00011a44:    bf07        ..      ITTEE    EQ
        0x00011a46:    9000        ..      STREQ    r0,[sp,#0]
        0x00011a48:    2300        .#      MOVEQ    r3,#0
        0x00011a4a:    f8cdb000    ....    STRNE    r11,[sp,#0]
        0x00011a4e:    9b16        ..      LDRNE    r3,[sp,#0x58]
        0x00011a50:    2201        ."      MOVS     r2,#1
        0x00011a52:    a902        ..      ADD      r1,sp,#8
        0x00011a54:    f8d80004    ....    LDR      r0,[r8,#4]
        0x00011a58:    f7fdfce2    ....    BL       am_hal_mspi_highprio_transfer ; 0xf420
        0x00011a5c:    e00e        ..      B        0x11a7c ; psram_nonblocking_transfer + 168
        0x00011a5e:    2800        .(      CMP      r0,#0
        0x00011a60:    bf19        ..      ITTEE    NE
        0x00011a62:    f8cdb000    ....    STRNE    r11,[sp,#0]
        0x00011a66:    9b16        ..      LDRNE    r3,[sp,#0x58]
        0x00011a68:    2000        .       MOVEQ    r0,#0
        0x00011a6a:    9000        ..      STREQ    r0,[sp,#0]
        0x00011a6c:    bf08        ..      IT       EQ
        0x00011a6e:    2300        .#      MOVEQ    r3,#0
        0x00011a70:    2201        ."      MOVS     r2,#1
        0x00011a72:    a902        ..      ADD      r1,sp,#8
        0x00011a74:    f8d80004    ....    LDR      r0,[r8,#4]
        0x00011a78:    f7fdff16    ....    BL       am_hal_mspi_nonblocking_transfer ; 0xf8a8
        0x00011a7c:    2800        .(      CMP      r0,#0
        0x00011a7e:    bf1c        ..      ITT      NE
        0x00011a80:    b009        ..      ADDNE    sp,sp,#0x24
        0x00011a82:    e8bd8ff0    ....    POPNE    {r4-r11,pc}
        0x00011a86:    4426        &D      ADD      r6,r6,r4
        0x00011a88:    f04f0100    O...    MOV      r1,#0
        0x00011a8c:    1b2d        -.      SUBS     r5,r5,r4
        0x00011a8e:    4427        'D      ADD      r7,r7,r4
        0x00011a90:    9106        ..      STR      r1,[sp,#0x18]
        0x00011a92:    d1b9        ..      BNE      0x11a08 ; psram_nonblocking_transfer + 52
        0x00011a94:    b009        ..      ADD      sp,sp,#0x24
        0x00011a96:    e8bd8ff0    ....    POP      {r4-r11,pc}
        0x00011a9a:    0000        ..      MOVS     r0,r0
    i.sched_hiprio
    sched_hiprio
        0x00011a9c:    b5f8        ..      PUSH     {r3-r7,lr}
        0x00011a9e:    460e        .F      MOV      r6,r1
        0x00011aa0:    4604        .F      MOV      r4,r0
        0x00011aa2:    2500        .%      MOVS     r5,#0
        0x00011aa4:    f7fafbce    ....    BL       am_hal_interrupt_master_disable ; 0xc244
        0x00011aa8:    9000        ..      STR      r0,[sp,#0]
        0x00011aaa:    f8d4783c    ..<x    LDR      r7,[r4,#0x83c]
        0x00011aae:    19b8        ..      ADDS     r0,r7,r6
        0x00011ab0:    f8c4083c    ..<.    STR      r0,[r4,#0x83c]
        0x00011ab4:    9800        ..      LDR      r0,[sp,#0]
        0x00011ab6:    f7fafbc9    ....    BL       am_hal_interrupt_master_set ; 0xc24c
        0x00011aba:    2f00        ./      CMP      r7,#0
        0x00011abc:    d17e        ~.      BNE      0x11bbc ; sched_hiprio + 288
        0x00011abe:    6861        ah      LDR      r1,[r4,#4]
        0x00011ac0:    4e44        DN      LDR      r6,[pc,#272] ; [0x11bd4] = 0x186a0
        0x00011ac2:    ea4f3101    O..1    LSL      r1,r1,#12
        0x00011ac6:    f10141a0    ...A    ADD      r1,r1,#0x50000000
        0x00011aca:    f50131a0    ...1    ADD      r1,r1,#0x14000
        0x00011ace:    f44f0000    O...    MOV      r0,#0x800000
        0x00011ad2:    4635        5F      MOV      r5,r6
        0x00011ad4:    f8c102b4    ....    STR      r0,[r1,#0x2b4]
        0x00011ad8:    6860        `h      LDR      r0,[r4,#4]
        0x00011ada:    ea4f3000    O..0    LSL      r0,r0,#12
        0x00011ade:    f10040a0    ...@    ADD      r0,r0,#0x50000000
        0x00011ae2:    f50030a0    ...0    ADD      r0,r0,#0x14000
        0x00011ae6:    f8d002a0    ....    LDR      r0,[r0,#0x2a0]
        0x00011aea:    f0100f01    ....    TST      r0,#1
        0x00011aee:    d020         .      BEQ      0x11b32 ; sched_hiprio + 150
        0x00011af0:    6860        `h      LDR      r0,[r4,#4]
        0x00011af2:    ea4f3000    O..0    LSL      r0,r0,#12
        0x00011af6:    f10040a0    ...@    ADD      r0,r0,#0x50000000
        0x00011afa:    f50030a0    ...0    ADD      r0,r0,#0x14000
        0x00011afe:    f8d012ac    ....    LDR      r1,[r0,#0x2ac]
        0x00011b02:    f0110f08    ....    TST      r1,#8
        0x00011b06:    bf1c        ..      ITT      NE
        0x00011b08:    f8d002b8    ....    LDRNE    r0,[r0,#0x2b8]
        0x00011b0c:    f0100f80    ....    TSTNE    r0,#0x80
        0x00011b10:    d10f        ..      BNE      0x11b32 ; sched_hiprio + 150
        0x00011b12:    1e6d        m.      SUBS     r5,r5,#1
        0x00011b14:    d35b        [.      BCC      0x11bce ; sched_hiprio + 306
        0x00011b16:    2010        .       MOVS     r0,#0x10
        0x00011b18:    f7fcf9e2    ....    BL       am_hal_flash_delay ; 0xdee0
        0x00011b1c:    6860        `h      LDR      r0,[r4,#4]
        0x00011b1e:    0300        ..      LSLS     r0,r0,#12
        0x00011b20:    f10040a0    ...@    ADD      r0,r0,#0x50000000
        0x00011b24:    f50030a0    ...0    ADD      r0,r0,#0x14000
        0x00011b28:    f8d002a0    ....    LDR      r0,[r0,#0x2a0]
        0x00011b2c:    f0100f01    ....    TST      r0,#1
        0x00011b30:    d1de        ..      BNE      0x11af0 ; sched_hiprio + 84
        0x00011b32:    2701        .'      MOVS     r7,#1
        0x00011b34:    9700        ..      STR      r7,[sp,#0]
        0x00011b36:    4928        (I      LDR      r1,[pc,#160] ; [0x11bd8] = 0x50014254
        0x00011b38:    6860        `h      LDR      r0,[r4,#4]
        0x00011b3a:    2300        .#      MOVS     r3,#0
        0x00011b3c:    eb013100    ...1    ADD      r1,r1,r0,LSL #12
        0x00011b40:    463a        :F      MOV      r2,r7
        0x00011b42:    4630        0F      MOV      r0,r6
        0x00011b44:    f7fcf9de    ....    BL       am_hal_flash_delay_status_check ; 0xdf04
        0x00011b48:    0005        ..      MOVS     r5,r0
        0x00011b4a:    bf18        ..      IT       NE
        0x00011b4c:    bdf8        ..      POPNE    {r3-r7,pc}
        0x00011b4e:    2200        ."      MOVS     r2,#0
        0x00011b50:    6222        "b      STR      r2,[r4,#0x20]
        0x00011b52:    6861        ah      LDR      r1,[r4,#4]
        0x00011b54:    2040        @       MOVS     r0,#0x40
        0x00011b56:    0309        ..      LSLS     r1,r1,#12
        0x00011b58:    f10141a0    ...A    ADD      r1,r1,#0x50000000
        0x00011b5c:    f50131a0    ...1    ADD      r1,r1,#0x14000
        0x00011b60:    f8c10208    ....    STR      r0,[r1,#0x208]
        0x00011b64:    6860        `h      LDR      r0,[r4,#4]
        0x00011b66:    0300        ..      LSLS     r0,r0,#12
        0x00011b68:    f10040a0    ...@    ADD      r0,r0,#0x50000000
        0x00011b6c:    f50030a0    ...0    ADD      r0,r0,#0x14000
        0x00011b70:    f8d01200    ....    LDR      r1,[r0,#0x200]
        0x00011b74:    f0410140    A.@.    ORR      r1,r1,#0x40
        0x00011b78:    f8c01200    ....    STR      r1,[r0,#0x200]
        0x00011b7c:    f8847838    ..8x    STRB     r7,[r4,#0x838]
        0x00011b80:    f8d4084c    ..L.    LDR      r0,[r4,#0x84c]
        0x00011b84:    f8d43844    ..D8    LDR      r3,[r4,#0x844]
        0x00011b88:    1c40        @.      ADDS     r0,r0,#1
        0x00011b8a:    fbb0fcf3    ....    UDIV     r12,r0,r3
        0x00011b8e:    6861        ah      LDR      r1,[r4,#4]
        0x00011b90:    fb03001c    ....    MLS      r0,r3,r12,r0
        0x00011b94:    0309        ..      LSLS     r1,r1,#12
        0x00011b96:    f10141a0    ...A    ADD      r1,r1,#0x50000000
        0x00011b9a:    f8d43850    ..P8    LDR      r3,[r4,#0x850]
        0x00011b9e:    f50131a0    ...1    ADD      r1,r1,#0x14000
        0x00011ba2:    eb000040    ..@.    ADD      r0,r0,r0,LSL #1
        0x00011ba6:    eb0300c0    ....    ADD      r0,r3,r0,LSL #3
        0x00011baa:    f8c12250    ..P"    STR      r2,[r1,#0x250]
        0x00011bae:    6802        .h      LDR      r2,[r0,#0]
        0x00011bb0:    f8c12258    ..X"    STR      r2,[r1,#0x258]
        0x00011bb4:    6842        Bh      LDR      r2,[r0,#4]
        0x00011bb6:    f8c1225c    ..\"    STR      r2,[r1,#0x25c]
        0x00011bba:    e000        ..      B        0x11bbe ; sched_hiprio + 290
        0x00011bbc:    e005        ..      B        0x11bca ; sched_hiprio + 302
        0x00011bbe:    6882        .h      LDR      r2,[r0,#8]
        0x00011bc0:    f8c12260    ..`"    STR      r2,[r1,#0x260]
        0x00011bc4:    68c0        .h      LDR      r0,[r0,#0xc]
        0x00011bc6:    f8c10250    ..P.    STR      r0,[r1,#0x250]
        0x00011bca:    4628        (F      MOV      r0,r5
        0x00011bcc:    bdf8        ..      POP      {r3-r7,pc}
        0x00011bce:    2004        .       MOVS     r0,#4
        0x00011bd0:    bdf8        ..      POP      {r3-r7,pc}
    $d
        0x00011bd2:    0000        ..      DCW    0
        0x00011bd4:    000186a0    ....    DCD    100000
        0x00011bd8:    50014254    TB.P    DCD    1342259796
    $t
    i.uint64_to_str
    uint64_to_str
        0x00011bdc:    e92d07f0    -...    PUSH     {r4-r10}
        0x00011be0:    b087        ..      SUB      sp,sp,#0x1c
        0x00011be2:    f04f0c00    O...    MOV      r12,#0
        0x00011be6:    4666        fF      MOV      r6,r12
        0x00011be8:    466d        mF      MOV      r5,sp
        0x00011bea:    2900        .)      CMP      r1,#0
        0x00011bec:    d03f        ?.      BEQ      0x11c6e ; uint64_to_str + 146
        0x00011bee:    084f        O.      LSRS     r7,r1,#1
        0x00011bf0:    ea4f0390    O...    LSR      r3,r0,#2
        0x00011bf4:    ea4f0430    O.0.    RRX      r4,r0
        0x00011bf8:    ea437381    C..s    ORR      r3,r3,r1,LSL #30
        0x00011bfc:    18e4        ..      ADDS     r4,r4,r3
        0x00011bfe:    eb470391    G...    ADC      r3,r7,r1,LSR #2
        0x00011c02:    ea4f1814    O...    LSR      r8,r4,#4
        0x00011c06:    ea487803    H..x    ORR      r8,r8,r3,LSL #28
        0x00011c0a:    eb180404    ....    ADDS     r4,r8,r4
        0x00011c0e:    eb431313    C...    ADC      r3,r3,r3,LSR #4
        0x00011c12:    ea4f2814    O..(    LSR      r8,r4,#8
        0x00011c16:    ea486803    H..h    ORR      r8,r8,r3,LSL #24
        0x00011c1a:    eb180404    ....    ADDS     r4,r8,r4
        0x00011c1e:    eb432313    C..#    ADC      r3,r3,r3,LSR #8
        0x00011c22:    ea4f4814    O..H    LSR      r8,r4,#16
        0x00011c26:    ea484803    H..H    ORR      r8,r8,r3,LSL #16
        0x00011c2a:    eb180404    ....    ADDS     r4,r8,r4
        0x00011c2e:    eb434313    C..C    ADC      r3,r3,r3,LSR #16
        0x00011c32:    18e7        ..      ADDS     r7,r4,r3
        0x00011c34:    eb430406    C...    ADC      r4,r3,r6
        0x00011c38:    08ff        ..      LSRS     r7,r7,#3
        0x00011c3a:    ea477344    G.Ds    ORR      r3,r7,r4,LSL #29
        0x00011c3e:    270a        .'      MOVS     r7,#0xa
        0x00011c40:    fba39a07    ....    UMULL    r9,r10,r3,r7
        0x00011c44:    08e4        ..      LSRS     r4,r4,#3
        0x00011c46:    fb04a707    ....    MLA      r7,r4,r7,r10
        0x00011c4a:    f04f0800    O...    MOV      r8,#0
        0x00011c4e:    fb037808    ...x    MLA      r8,r3,r8,r7
        0x00011c52:    ebb00709    ....    SUBS     r7,r0,r9
        0x00011c56:    eb610108    a...    SBC      r1,r1,r8
        0x00011c5a:    1dbf        ..      ADDS     r7,r7,#6
        0x00011c5c:    f1410100    A...    ADC      r1,r1,#0
        0x00011c60:    093f        ?.      LSRS     r7,r7,#4
        0x00011c62:    ea477701    G..w    ORR      r7,r7,r1,LSL #28
        0x00011c66:    18fb        ..      ADDS     r3,r7,r3
        0x00011c68:    eb441411    D...    ADC      r4,r4,r1,LSR #4
        0x00011c6c:    e012        ..      B        0x11c94 ; uint64_to_str + 184
        0x00011c6e:    0843        C.      LSRS     r3,r0,#1
        0x00011c70:    eb030390    ....    ADD      r3,r3,r0,LSR #2
        0x00011c74:    eb031313    ....    ADD      r3,r3,r3,LSR #4
        0x00011c78:    eb032313    ...#    ADD      r3,r3,r3,LSR #8
        0x00011c7c:    eb034313    ...C    ADD      r3,r3,r3,LSR #16
        0x00011c80:    08db        ..      LSRS     r3,r3,#3
        0x00011c82:    425c        \B      RSBS     r4,r3,#0
        0x00011c84:    eb040484    ....    ADD      r4,r4,r4,LSL #2
        0x00011c88:    eb000144    ..D.    ADD      r1,r0,r4,LSL #1
        0x00011c8c:    1d89        ..      ADDS     r1,r1,#6
        0x00011c8e:    eb031311    ....    ADD      r3,r3,r1,LSR #4
        0x00011c92:    4634        4F      MOV      r4,r6
        0x00011c94:    4621        !F      MOV      r1,r4
        0x00011c96:    240a        .$      MOVS     r4,#0xa
        0x00011c98:    fba34704    ...G    UMULL    r4,r7,r3,r4
        0x00011c9c:    1b00        ..      SUBS     r0,r0,r4
        0x00011c9e:    f1000030    ..0.    ADD      r0,r0,#0x30
        0x00011ca2:    f805000c    ....    STRB     r0,[r5,r12]
        0x00011ca6:    4618        .F      MOV      r0,r3
        0x00011ca8:    f10c0c01    ....    ADD      r12,r12,#1
        0x00011cac:    430b        .C      ORRS     r3,r3,r1
        0x00011cae:    d19c        ..      BNE      0x11bea ; uint64_to_str + 14
        0x00011cb0:    4660        `F      MOV      r0,r12
        0x00011cb2:    2a00        .*      CMP      r2,#0
        0x00011cb4:    bf02        ..      ITTT     EQ
        0x00011cb6:    b007        ..      ADDEQ    sp,sp,#0x1c
        0x00011cb8:    e8bd07f0    ....    POPEQ    {r4-r10}
        0x00011cbc:    4770        pG      BXEQ     lr
        0x00011cbe:    1e47        G.      SUBS     r7,r0,#1
        0x00011cc0:    f1b00c00    ....    SUBS     r12,r0,#0
        0x00011cc4:    dd18        ..      BLE      0x11cf8 ; uint64_to_str + 284
        0x00011cc6:    19e9        ..      ADDS     r1,r5,r7
        0x00011cc8:    1c4b        K.      ADDS     r3,r1,#1
        0x00011cca:    1e51        Q.      SUBS     r1,r2,#1
        0x00011ccc:    f0170f01    ....    TST      r7,#1
        0x00011cd0:    d103        ..      BNE      0x11cda ; uint64_to_str + 254
        0x00011cd2:    f8134d01    ...M    LDRB     r4,[r3,#-1]!
        0x00011cd6:    f8014f01    ...O    STRB     r4,[r1,#1]!
        0x00011cda:    ea5f046c    _.l.    ASRS     r4,r12,#1
        0x00011cde:    d009        ..      BEQ      0x11cf4 ; uint64_to_str + 280
        0x00011ce0:    f813cc01    ....    LDRB     r12,[r3,#-1]
        0x00011ce4:    f881c001    ....    STRB     r12,[r1,#1]
        0x00011ce8:    f813cd02    ....    LDRB     r12,[r3,#-2]!
        0x00011cec:    f801cf02    ....    STRB     r12,[r1,#2]!
        0x00011cf0:    1e64        d.      SUBS     r4,r4,#1
        0x00011cf2:    d1f5        ..      BNE      0x11ce0 ; uint64_to_str + 260
        0x00011cf4:    19d1        ..      ADDS     r1,r2,r7
        0x00011cf6:    1c4a        J.      ADDS     r2,r1,#1
        0x00011cf8:    7016        .p      STRB     r6,[r2,#0]
        0x00011cfa:    b007        ..      ADD      sp,sp,#0x1c
        0x00011cfc:    e8bd07f0    ....    POP      {r4-r10}
        0x00011d00:    4770        pG      BX       lr
        0x00011d02:    0000        ..      MOVS     r0,r0
    x$fpl$d2f
    $v0
    __aeabi_d2f
    _d2f
        0x00011d04:    f0214200    !..B    BIC      r2,r1,#0x80000000
        0x00011d08:    f1a25260    ..`R    SUB      r2,r2,#0x38000000
        0x00011d0c:    f5b21f80    ....    CMP      r2,#0x100000
        0x00011d10:    f0014300    ...C    AND      r3,r1,#0x80000000
        0x00011d14:    bf28        (.      IT       CS
        0x00011d16:    f1d26c7f    ...l    RSBSCS   r12,r2,#0xff00000
        0x00011d1a:    d90b        ..      BLS      0x11d34 ; __aeabi_d2f + 48
        0x00011d1c:    ea5f1c00    _...    LSLS     r12,r0,#4
        0x00011d20:    ea4302c2    C...    ORR      r2,r3,r2,LSL #3
        0x00011d24:    eb427050    B.Pp    ADC      r0,r2,r0,LSR #29
        0x00011d28:    bf18        ..      IT       NE
        0x00011d2a:    4770        pG      BXNE     lr
        0x00011d2c:    bf28        (.      IT       CS
        0x00011d2e:    f0200001     ...    BICCS    r0,r0,#1
        0x00011d32:    4770        pG      BX       lr
        0x00011d34:    f5b21f80    ....    CMP      r2,#0x100000
        0x00011d38:    bfbc        ..      ITT      LT
        0x00011d3a:    4618        .F      MOVLT    r0,r3
        0x00011d3c:    4770        pG      BXLT     lr
        0x00011d3e:    ea4f0c41    O.A.    LSL      r12,r1,#1
        0x00011d42:    f51c1f00    ....    CMN      r12,#0x200000
        0x00011d46:    d202        ..      BCS      0x11d4e ; __aeabi_d2f + 74
        0x00011d48:    4608        .F      MOV      r0,r1
        0x00011d4a:    f000bad9    ....    B.W      __fpl_fretinf ; 0x12300
        0x00011d4e:    b570        p.      PUSH     {r4-r6,lr}
        0x00011d50:    f000fa0c    ....    BL       __fpl_dnaninf ; 0x1216c
    $d
        0x00011d54:    89000000    ....    DCD    2298478592
    $t
        0x00011d58:    f7ffbff6    ....    B.W      0x11d48 ; __aeabi_d2f + 68
        0x00011d5c:    f04f4000    O..@    MOV      r0,#0x80000000
        0x00011d60:    f5a00080    ....    SUB      r0,r0,#0x400000
        0x00011d64:    4770        pG      BX       lr
        0x00011d66:    0000        ..      MOVS     r0,r0
    x$fpl$ddiv
    $v0
    __aeabi_ddiv
    _ddiv
        0x00011d68:    e92d41c0    -..A    PUSH     {r6-r8,lr}
        0x00011d6c:    b430        0.      PUSH     {r4,r5}
    ddiv_entry
        0x00011d6e:    f8dfc2a0    ....    LDR      r12,[pc,#672] ; [0x12010] = 0x7ff0000
        0x00011d72:    ea3c1411    <...    BICS     r4,r12,r1,LSR #4
        0x00011d76:    bf18        ..      IT       NE
        0x00011d78:    ea3c1413    <...    BICSNE   r4,r12,r3,LSR #4
        0x00011d7c:    f00080ec    ....    BEQ.W    0x11f58 ; ddiv_entry + 490
        0x00011d80:    ea810503    ....    EOR      r5,r1,r3
        0x00011d84:    ea1c1411    ....    ANDS     r4,r12,r1,LSR #4
        0x00011d88:    ea4474d5    D..t    ORR      r4,r4,r5,LSR #31
        0x00011d8c:    bf18        ..      IT       NE
        0x00011d8e:    ea1c1513    ....    ANDSNE   r5,r12,r3,LSR #4
        0x00011d92:    f00080c7    ....    BEQ.W    0x11f24 ; ddiv_entry + 438
        0x00011d96:    eba40405    ....    SUB      r4,r4,r5
        0x00011d9a:    f04f4500    O..E    MOV      r5,#0x80000000
        0x00011d9e:    ea4521c1    E..!    ORR      r1,r5,r1,LSL #11
        0x00011da2:    ea4523c3    E..#    ORR      r3,r5,r3,LSL #11
        0x00011da6:    ea415150    A.PQ    ORR      r1,r1,r0,LSR #21
        0x00011daa:    ea435352    C.RS    ORR      r3,r3,r2,LSR #21
        0x00011dae:    f104747f    ...t    ADD      r4,r4,#0x3fc0000
        0x00011db2:    4299        .B      CMP      r1,r3
        0x00011db4:    f5043400    ...4    ADD      r4,r4,#0x20000
        0x00011db8:    ea4f20c0    O..     LSL      r0,r0,#11
        0x00011dbc:    ea4f22c2    O.."    LSL      r2,r2,#11
        0x00011dc0:    bf08        ..      IT       EQ
        0x00011dc2:    4290        .B      CMPEQ    r0,r2
        0x00011dc4:    f000809c    ....    BEQ.W    0x11f00 ; ddiv_entry + 402
        0x00011dc8:    ea4f6513    O..e    LSR      r5,r3,#24
        0x00011dcc:    f20f1640    ..@.    ADR.W    r6,{pc}+0x144 ; 0x11f10
        0x00011dd0:    5d76        v]      LDRB     r6,[r6,r5]
        0x00011dd2:    ea4f4513    O..E    LSR      r5,r3,#16
        0x00011dd6:    fb06f705    ....    MUL      r7,r6,r5
        0x00011dda:    f1c77780    ...w    RSB      r7,r7,#0x1000000
        0x00011dde:    fb06f707    ....    MUL      r7,r6,r7
        0x00011de2:    ea4f37d7    O..7    LSR      r7,r7,#15
        0x00011de6:    fba76803    ...h    UMULL    r6,r8,r7,r3
        0x00011dea:    4276        vB      RSBS     r6,r6,#0
        0x00011dec:    f5c83880    ...8    RSB      r8,r8,#0x10000
        0x00011df0:    fba7ce06    ....    UMULL    r12,lr,r7,r6
        0x00011df4:    bf38        8.      IT       CC
        0x00011df6:    f1a80801    ....    SUBCC    r8,r8,#1
        0x00011dfa:    fb07e608    ....    MLA      r6,r7,r8,lr
        0x00011dfe:    f04f0e00    O...    MOV      lr,#0
        0x00011e02:    fba68c02    ....    UMULL    r8,r12,r6,r2
        0x00011e06:    fbe6ce03    ....    UMLAL    r12,lr,r6,r3
        0x00011e0a:    f1dc0c00    ....    RSBS     r12,r12,#0
        0x00011e0e:    f1ce4e00    ...N    RSB      lr,lr,#0x80000000
        0x00011e12:    bf38        8.      IT       CC
        0x00011e14:    f1ae0e01    ....    SUBCC    lr,lr,#1
        0x00011e18:    fba6580c    ...X    UMULL    r5,r8,r6,r12
        0x00011e1c:    f04f0700    O...    MOV      r7,#0
        0x00011e20:    f04f0500    O...    MOV      r5,#0
        0x00011e24:    fbe6870e    ....    UMLAL    r8,r7,r6,lr
        0x00011e28:    fba1c608    ....    UMULL    r12,r6,r1,r8
        0x00011e2c:    fba0ce07    ....    UMULL    r12,lr,r0,r7
        0x00011e30:    eb16060e    ....    ADDS     r6,r6,lr
        0x00011e34:    f1450500    E...    ADC      r5,r5,#0
        0x00011e38:    fbe16507    ...e    UMLAL    r6,r5,r1,r7
        0x00011e3c:    f1154ee0    ...N    ADDS     lr,r5,#0x70000000
        0x00011e40:    bf7e        ~.      ITTT     VC
        0x00011e42:    f5a43480    ...4    SUBVC    r4,r4,#0x10000
        0x00011e46:    ea5f0646    _.F.    LSLSVC   r6,r6,#1
        0x00011e4a:    416d        mA      ADCVC    r5,r5,r5
        0x00011e4c:    f1160780    ....    ADDS     r7,r6,#0x80
        0x00011e50:    f1450500    E...    ADC      r5,r5,#0
        0x00011e54:    ea4f2717    O..'    LSR      r7,r7,#8
        0x00011e58:    ea4f6606    O..f    LSL      r6,r6,#24
        0x00011e5c:    ea476705    G..g    ORR      r7,r7,r5,LSL #24
        0x00011e60:    f1a646de    ...F    SUB      r6,r6,#0x6f000000
        0x00011e64:    f1b65f80    ..._    CMP      r6,#0x10000000
        0x00011e68:    ea4f2515    O..%    LSR      r5,r5,#8
        0x00011e6c:    d91f        ..      BLS      0x11eae ; ddiv_entry + 320
        0x00011e6e:    4638        8F      MOV      r0,r7
        0x00011e70:    f0240c01    $...    BIC      r12,r4,#1
        0x00011e74:    eb0571c4    ...q    ADD      r1,r5,r4,LSL #31
        0x00011e78:    f1bc6ffe    ...o    CMP      r12,#0x7f00000
        0x00011e7c:    eb01110c    ....    ADD      r1,r1,r12,LSL #4
        0x00011e80:    d802        ..      BHI      0x11e88 ; ddiv_entry + 282
        0x00011e82:    bcf0        ..      POP      {r4-r7}
        0x00011e84:    e8bd8100    ....    POP      {r8,pc}
        0x00011e88:    4224        $B      TST      r4,r4
        0x00011e8a:    bf5c        \.      ITT      PL
        0x00011e8c:    f5011e80    ....    ADDPL    lr,r1,#0x100000
        0x00011e90:    ea9e7fc4    ....    TEQPL    lr,r4,LSL #31
        0x00011e94:    d402        ..      BMI      0x11e9c ; ddiv_entry + 302
        0x00011e96:    bcf0        ..      POP      {r4-r7}
        0x00011e98:    e8bd8100    ....    POP      {r8,pc}
        0x00011e9c:    4224        $B      TST      r4,r4
        0x00011e9e:    d438        8.      BMI      0x11f12 ; ddiv_entry + 420
        0x00011ea0:    bcf0        ..      POP      {r4-r7}
        0x00011ea2:    f1a141c0    ...A    SUB      r1,r1,#0x60000000
        0x00011ea6:    e8bd4100    ...A    POP      {r8,lr}
        0x00011eaa:    f000b9ad    ....    B.W      __fpl_dretinf ; 0x12208
        0x00011eae:    ea4f22d2    O.."    LSR      r2,r2,#11
        0x00011eb2:    ea425243    B.CR    ORR      r2,r2,r3,LSL #21
        0x00011eb6:    ea4f23d3    O..#    LSR      r3,r3,#11
        0x00011eba:    fba78602    ....    UMULL    r8,r6,r7,r2
        0x00011ebe:    ea4f20d0    O..     LSR      r0,r0,#11
        0x00011ec2:    ea405041    @.AP    ORR      r0,r0,r1,LSL #21
        0x00011ec6:    fb076603    ...f    MLA      r6,r7,r3,r6
        0x00011eca:    ea1e0f0e    ....    TST      lr,lr
        0x00011ece:    ea4f21d1    O..!    LSR      r1,r1,#11
        0x00011ed2:    fb056602    ...f    MLA      r6,r5,r2,r6
        0x00011ed6:    bf58        X.      IT       PL
        0x00011ed8:    eba65600    ...V    SUBPL    r6,r6,r0,LSL #20
        0x00011edc:    ebb65600    ...V    SUBS     r6,r6,r0,LSL #20
        0x00011ee0:    ea4f0e52    O.R.    LSR      lr,r2,#1
        0x00011ee4:    ea4e7ec3    N..~    ORR      lr,lr,r3,LSL #31
        0x00011ee8:    eb180e0e    ....    ADDS     lr,r8,lr
        0x00011eec:    eb560e53    V.S.    ADCS     lr,r6,r3,LSR #1
        0x00011ef0:    d5bd        ..      BPL      0x11e6e ; ddiv_entry + 256
        0x00011ef2:    eb180802    ....    ADDS     r8,r8,r2
        0x00011ef6:    415e        ^A      ADCS     r6,r6,r3
        0x00011ef8:    1c7f        ..      ADDS     r7,r7,#1
        0x00011efa:    f1550500    U...    ADCS     r5,r5,#0
        0x00011efe:    e7b6        ..      B        0x11e6e ; ddiv_entry + 256
        0x00011f00:    f44f1580    O...    MOV      r5,#0x100000
        0x00011f04:    f04f0700    O...    MOV      r7,#0
        0x00011f08:    f04f0600    O...    MOV      r6,#0
        0x00011f0c:    f04f0800    O...    MOV      r8,#0
        0x00011f10:    e7ad        ..      B        0x11e6e ; ddiv_entry + 256
        0x00011f12:    bcf0        ..      POP      {r4-r7}
        0x00011f14:    f04f0000    O...    MOV      r0,#0
        0x00011f18:    f10141c0    ...A    ADD      r1,r1,#0x60000000
        0x00011f1c:    f0014100    ...A    AND      r1,r1,#0x80000000
        0x00011f20:    e8bd8100    ....    POP      {r8,pc}
        0x00011f24:    ea111f0c    ....    TST      r1,r12,LSL #4
        0x00011f28:    ea0c1513    ....    AND      r5,r12,r3,LSR #4
        0x00011f2c:    d000        ..      BEQ      0x11f30 ; ddiv_entry + 450
        0x00011f2e:    e00c        ..      B        0x11f4a ; ddiv_entry + 476
        0x00011f30:    ea131f0c    ....    TST      r3,r12,LSL #4
        0x00011f34:    f0008025    ..%.    BEQ.W    0x11f82 ; ddiv_entry + 532
        0x00011f38:    f04f0000    O...    MOV      r0,#0
        0x00011f3c:    bcf0        ..      POP      {r4-r7}
        0x00011f3e:    ea810103    ....    EOR      r1,r1,r3
        0x00011f42:    f0014100    ...A    AND      r1,r1,#0x80000000
        0x00011f46:    e8bd8100    ....    POP      {r8,pc}
        0x00011f4a:    bcf0        ..      POP      {r4-r7}
        0x00011f4c:    e8bd4100    ...A    POP      {r8,lr}
        0x00011f50:    ea810103    ....    EOR      r1,r1,r3
        0x00011f54:    f000b958    ..X.    B.W      __fpl_dretinf ; 0x12208
        0x00011f58:    bcf0        ..      POP      {r4-r7}
        0x00011f5a:    e8bd4100    ...A    POP      {r8,lr}
        0x00011f5e:    b570        p.      PUSH     {r4-r6,lr}
        0x00011f60:    f000f904    ....    BL       __fpl_dnaninf ; 0x1216c
    $d
        0x00011f64:    3efc7e09    .~.>    DCD    1056734729
    $t
        0x00011f68:    f000b807    ....    B.W      0x11f7a ; ddiv_entry + 524
        0x00011f6c:    ea810103    ....    EOR      r1,r1,r3
        0x00011f70:    f04f0000    O...    MOV      r0,#0
        0x00011f74:    f0014100    ...A    AND      r1,r1,#0x80000000
        0x00011f78:    4770        pG      BX       lr
        0x00011f7a:    ea810103    ....    EOR      r1,r1,r3
        0x00011f7e:    f000b943    ..C.    B.W      __fpl_dretinf ; 0x12208
        0x00011f82:    bcf0        ..      POP      {r4-r7}
        0x00011f84:    e8bd4100    ...A    POP      {r8,lr}
        0x00011f88:    f04f0000    O...    MOV      r0,#0
        0x00011f8c:    4921        !I      LDR      r1,[pc,#132] ; [0x12014] = 0x7ff80000
        0x00011f8e:    4770        pG      BX       lr
    $d
        0x00011f90:    f9fbfdff    ....    DCD    4194041343
        0x00011f94:    f2f4f5f7    ....    DCD    4076140023
        0x00011f98:    ebedeef0    ....    DCD    3958238960
        0x00011f9c:    e4e6e8e9    ....    DCD    3840338153
        0x00011fa0:    dee0e1e3    ....    DCD    3739279843
        0x00011fa4:    d8dadbdd    ....    DCD    3638221789
        0x00011fa8:    d3d4d5d7    ....    DCD    3553940951
        0x00011fac:    cdcfd0d1    ....    DCD    3452948689
        0x00011fb0:    c8cacbcc    ....    DCD    3368733644
        0x00011fb4:    c4c5c6c7    ....    DCD    3301295815
        0x00011fb8:    bfc0c1c2    ....    DCD    3217080770
        0x00011fbc:    bbbcbdbe    ....    DCD    3149708734
        0x00011fc0:    b7b8b9ba    ....    DCD    3082336698
        0x00011fc4:    b3b4b5b6    ....    DCD    3014964662
        0x00011fc8:    afb0b1b2    ....    DCD    2947592626
        0x00011fcc:    abacadae    ....    DCD    2880220590
        0x00011fd0:    a8a8a9aa    ....    DCD    2829625770
        0x00011fd4:    a4a5a6a7    ....    DCD    2762319527
        0x00011fd8:    a1a2a3a3    ....    DCD    2711790499
        0x00011fdc:    9e9f9fa0    ....    DCD    2661261216
        0x00011fe0:    9b9c9c9d    ....    DCD    2610732189
        0x00011fe4:    9899999a    ....    DCD    2560203162
        0x00011fe8:    95969797    ....    DCD    2509674391
        0x00011fec:    93939495    ....    DCD    2475922581
        0x00011ff0:    90919192    ....    DCD    2425459090
        0x00011ff4:    8e8e8f8f    ....    DCD    2391707535
        0x00011ff8:    8b8c8c8d    ....    DCD    2341244045
        0x00011ffc:    89898a8b    ....    DCD    2307492491
        0x00012000:    87878888    ....    DCD    2273806472
        0x00012004:    84858586    ....    DCD    2223342982
        0x00012008:    82838384    ....    DCD    2189656964
        0x0001200c:    80818182    ....    DCD    2155970946
        0x00012010:    07ff0000    ....    DCD    134152192
        0x00012014:    7ff80000    ....    DCD    2146959360
    $t
    x$fpl$dmul
    $v0
    __aeabi_dmul
    _dmul
        0x00012018:    f8dfc148    ..H.    LDR      r12,[pc,#328] ; [0x12164] = 0x7ff0000
        0x0001201c:    b570        p.      PUSH     {r4-r6,lr}
        0x0001201e:    ea1c1e11    ....    ANDS     lr,r12,r1,LSR #4
        0x00012022:    bf1e        ..      ITTT     NE
        0x00012024:    ea1c1513    ....    ANDSNE   r5,r12,r3,LSR #4
        0x00012028:    ea9e0f0c    ....    TEQNE    lr,r12
        0x0001202c:    ea950f0c    ....    TEQNE    r5,r12
        0x00012030:    f000806f    ..o.    BEQ.W    0x12112 ; __aeabi_dmul + 250
        0x00012034:    ea810403    ....    EOR      r4,r1,r3
        0x00012038:    ea23134c    #.L.    BIC      r3,r3,r12,LSL #5
        0x0001203c:    ea4e7ed4    N..~    ORR      lr,lr,r4,LSR #31
        0x00012040:    ea21114c    !.L.    BIC      r1,r1,r12,LSL #5
        0x00012044:    f4411180    A...    ORR      r1,r1,#0x100000
        0x00012048:    f4431380    C...    ORR      r3,r3,#0x100000
        0x0001204c:    44ae        .D      ADD      lr,lr,r5
        0x0001204e:    fba14c02    ...L    UMULL    r4,r12,r1,r2
        0x00012052:    fba06503    ...e    UMULL    r6,r5,r0,r3
        0x00012056:    f1ae7e7f    ...~    SUB      lr,lr,#0x3fc0000
        0x0001205a:    1936        6.      ADDS     r6,r6,r4
        0x0001205c:    eb55050c    U...    ADCS     r5,r5,r12
        0x00012060:    fba14c03    ...L    UMULL    r4,r12,r1,r3
        0x00012064:    f14c0300    L...    ADC      r3,r12,#0
        0x00012068:    fba01c02    ....    UMULL    r1,r12,r0,r2
        0x0001206c:    eb16060c    ....    ADDS     r6,r6,r12
        0x00012070:    4165        eA      ADCS     r5,r5,r4
        0x00012072:    f1530300    S...    ADCS     r3,r3,#0
        0x00012076:    4209        .B      TST      r1,r1
        0x00012078:    bf18        ..      IT       NE
        0x0001207a:    f0460601    F...    ORRNE    r6,r6,#1
        0x0001207e:    f4137f00    ....    TST      r3,#0x200
        0x00012082:    d10b        ..      BNE      0x1209c ; __aeabi_dmul + 132
        0x00012084:    ea4f3103    O..1    LSL      r1,r3,#12
        0x00012088:    ea4f3005    O..0    LSL      r0,r5,#12
        0x0001208c:    0334        4.      LSLS     r4,r6,#12
        0x0001208e:    ea415115    A..Q    ORR      r1,r1,r5,LSR #20
        0x00012092:    ea405016    @..P    ORR      r0,r0,r6,LSR #20
        0x00012096:    f06f0203    o...    MVN      r2,#3
        0x0001209a:    e00a        ..      B        0x120b2 ; __aeabi_dmul + 154
        0x0001209c:    ea4f21c3    O..!    LSL      r1,r3,#11
        0x000120a0:    ea4f20c5    O..     LSL      r0,r5,#11
        0x000120a4:    02f4        ..      LSLS     r4,r6,#11
        0x000120a6:    ea415155    A.UQ    ORR      r1,r1,r5,LSR #21
        0x000120aa:    ea405056    @.VP    ORR      r0,r0,r6,LSR #21
        0x000120ae:    f06f0202    o...    MVN      r2,#2
        0x000120b2:    eb02422e    ...B    ADD      r2,r2,lr,ASR #16
        0x000120b6:    eb015502    ...U    ADD      r5,r1,r2,LSL #20
        0x000120ba:    ea8571ce    ...q    EOR      r1,r5,lr,LSL #31
        0x000120be:    d00a        ..      BEQ      0x120d6 ; __aeabi_dmul + 190
        0x000120c0:    ea5f0c44    _.D.    LSLS     r12,r4,#1
        0x000120c4:    bf18        ..      IT       NE
        0x000120c6:    f0244400    $..D    BICNE    r4,r4,#0x80000000
        0x000120ca:    f1500000    P...    ADCS     r0,r0,#0
        0x000120ce:    f1410100    A...    ADC      r1,r1,#0
        0x000120d2:    ea2070d4     ..p    BIC      r0,r0,r4,LSR #31
        0x000120d6:    f2407cfe    @..|    MOV      r12,#0x7fe
        0x000120da:    4562        bE      CMP      r2,r12
        0x000120dc:    d200        ..      BCS      0x120e0 ; __aeabi_dmul + 200
        0x000120de:    bd70        p.      POP      {r4-r6,pc}
        0x000120e0:    42a8        .B      CMP      r0,r5
        0x000120e2:    bf14        ..      ITE      NE
        0x000120e4:    f04f4480    O..D    MOVNE    r4,#0x40000000
        0x000120e8:    f04f4440    O.@D    MOVEQ    r4,#0xc0000000
        0x000120ec:    2e00        ..      CMP      r6,#0
        0x000120ee:    bf08        ..      IT       EQ
        0x000120f0:    2400        .$      MOVEQ    r4,#0
        0x000120f2:    f1be6f80    ...o    CMP      lr,#0x4000000
        0x000120f6:    bfa8        ..      IT       GE
        0x000120f8:    f1a141c0    ...A    SUBGE    r1,r1,#0x60000000
        0x000120fc:    e8bd4070    ..p@    POP      {r4-r6,lr}
        0x00012100:    f2808082    ....    BGE.W    __fpl_dretinf ; 0x12208
        0x00012104:    f04f0000    O...    MOV      r0,#0
        0x00012108:    f10141c0    ...A    ADD      r1,r1,#0x60000000
        0x0001210c:    f0014100    ...A    AND      r1,r1,#0x80000000
        0x00012110:    4770        pG      BX       lr
        0x00012112:    ea9e0f0c    ....    TEQ      lr,r12
        0x00012116:    ea0c1513    ....    AND      r5,r12,r3,LSR #4
        0x0001211a:    bf18        ..      IT       NE
        0x0001211c:    ea950f0c    ....    TEQNE    r5,r12
        0x00012120:    d006        ..      BEQ      0x12130 ; __aeabi_dmul + 280
        0x00012122:    f04f0000    O...    MOV      r0,#0
        0x00012126:    ea810e03    ....    EOR      lr,r1,r3
        0x0001212a:    f00e4100    ...A    AND      r1,lr,#0x80000000
        0x0001212e:    bd70        p.      POP      {r4-r6,pc}
        0x00012130:    f000f81c    ....    BL       __fpl_dnaninf ; 0x1216c
    $d
        0x00012134:    3e010089    ...>    DCD    1040253065
    $t
        0x00012138:    f000b807    ....    B.W      0x1214a ; __aeabi_dmul + 306
        0x0001213c:    f000b809    ....    B.W      0x12152 ; __aeabi_dmul + 314
        0x00012140:    ea4f0c43    O.C.    LSL      r12,r3,#1
        0x00012144:    ea5f5c5c    _.\\    LSRS     r12,r12,#21
        0x00012148:    d008        ..      BEQ      0x1215c ; __aeabi_dmul + 324
        0x0001214a:    ea810103    ....    EOR      r1,r1,r3
        0x0001214e:    f000b85b    ..[.    B.W      __fpl_dretinf ; 0x12208
        0x00012152:    ea4f0c41    O.A.    LSL      r12,r1,#1
        0x00012156:    ea5f5c5c    _.\\    LSRS     r12,r12,#21
        0x0001215a:    d1f6        ..      BNE      0x1214a ; __aeabi_dmul + 306
        0x0001215c:    f04f0000    O...    MOV      r0,#0
        0x00012160:    4901        .I      LDR      r1,[pc,#4] ; [0x12168] = 0x7ff80000
        0x00012162:    4770        pG      BX       lr
    $d
        0x00012164:    07ff0000    ....    DCD    134152192
        0x00012168:    7ff80000    ....    DCD    2146959360
    $t
    x$fpl$dnaninf
    $v0
    __fpl_dnaninf
        0x0001216c:    f10e0e02    ....    ADD      lr,lr,#2
        0x00012170:    f02e0e03    ....    BIC      lr,lr,#3
        0x00012174:    f85e6b04    ^..k    LDR      r6,[lr],#4
        0x00012178:    4236        6B      TST      r6,r6
        0x0001217a:    d405        ..      BMI      0x12188 ; __fpl_dnaninf + 28
        0x0001217c:    2a01        .*      CMP      r2,#1
        0x0001217e:    eb430503    C...    ADC      r5,r3,r3
        0x00012182:    f5151f00    ....    CMN      r5,#0x200000
        0x00012186:    d812        ..      BHI      0x121ae ; __fpl_dnaninf + 66
        0x00012188:    2801        .(      CMP      r0,#1
        0x0001218a:    eb410c01    A...    ADC      r12,r1,r1
        0x0001218e:    f51c1f00    ....    CMN      r12,#0x200000
        0x00012192:    d80c        ..      BHI      0x121ae ; __fpl_dnaninf + 66
        0x00012194:    d10e        ..      BNE      0x121b4 ; __fpl_dnaninf + 72
        0x00012196:    ea4f7cd1    O..|    LSR      r12,r1,#31
        0x0001219a:    f5151f00    ....    CMN      r5,#0x200000
        0x0001219e:    eb0c0c4c    ..L.    ADD      r12,r12,r12,LSL #1
        0x000121a2:    f10c0c02    ....    ADD      r12,r12,#2
        0x000121a6:    bf08        ..      IT       EQ
        0x000121a8:    eb4c7cd3    L..|    ADCEQ    r12,r12,r3,LSR #31
        0x000121ac:    e004        ..      B        0x121b8 ; __fpl_dnaninf + 76
        0x000121ae:    f04f0c08    O...    MOV      r12,#8
        0x000121b2:    e001        ..      B        0x121b8 ; __fpl_dnaninf + 76
        0x000121b4:    ea4f7cd3    O..|    LSR      r12,r3,#31
        0x000121b8:    eb0c054c    ..L.    ADD      r5,r12,r12,LSL #1
        0x000121bc:    fa26f605    &...    LSR      r6,r6,r5
        0x000121c0:    f0060607    ....    AND      r6,r6,#7
        0x000121c4:    f1b60c04    ....    SUBS     r12,r6,#4
        0x000121c8:    d206        ..      BCS      0x121d8 ; __fpl_dnaninf + 108
        0x000121ca:    eb0e0c86    ....    ADD      r12,lr,r6,LSL #2
        0x000121ce:    e8bd4070    ..p@    POP      {r4-r6,lr}
        0x000121d2:    f04c0c01    L...    ORR      r12,r12,#1
        0x000121d6:    4760        `G      BX       r12
        0x000121d8:    e8dff00c    ....    TBB      [pc,r12]
    $d
        0x000121dc:    02020b09    ....    DCD    33688329
    $t
        0x000121e0:    f04f4100    O..A    MOV      r1,#0x80000000
        0x000121e4:    f04f0000    O...    MOV      r0,#0
        0x000121e8:    f5a12100    ...!    SUB      r1,r1,#0x80000
        0x000121ec:    bd70        p.      POP      {r4-r6,pc}
        0x000121ee:    4619        .F      MOV      r1,r3
        0x000121f0:    4610        .F      MOV      r0,r2
        0x000121f2:    2801        .(      CMP      r0,#1
        0x000121f4:    eb510401    Q...    ADCS     r4,r1,r1
        0x000121f8:    bf18        ..      IT       NE
        0x000121fa:    f5d41400    ....    RSBSNE   r4,r4,#0x200000
        0x000121fe:    bf84        ..      ITT      HI
        0x00012200:    2000        .       MOVHI    r0,#0
        0x00012202:    f0014100    ...A    ANDHI    r1,r1,#0x80000000
        0x00012206:    bd70        p.      POP      {r4-r6,pc}
    x$fpl$dretinf
    $v0
    __fpl_dretinf
        0x00012208:    0808        ..      LSRS     r0,r1,#32
        0x0001220a:    f5a01100    ....    SUB      r1,r0,#0x200000
        0x0001220e:    ea4f0131    O.1.    RRX      r1,r1
        0x00012212:    4770        pG      BX       lr
    x$fpl$f2d
    $v0
    __aeabi_f2d
    _f2d
        0x00012214:    0043        C.      LSLS     r3,r0,#1
        0x00012216:    ea4f0cd3    O...    LSR      r12,r3,#3
        0x0001221a:    ea4f0c3c    O.<.    RRX      r12,r12
        0x0001221e:    4043        C@      EORS     r3,r3,r0
        0x00012220:    bf1f        ..      ITTTT    NE
        0x00012222:    0740        @.      LSLNE    r0,r0,#29
        0x00012224:    f10c5160    ..`Q    ADDNE    r1,r12,#0x38000000
        0x00012228:    f0134ffe    ...O    TSTNE    r3,#0x7f000000
        0x0001222c:    4770        pG      BXNE     lr
        0x0001222e:    f01c6f00    ...o    TST      r12,#0x8000000
        0x00012232:    d103        ..      BNE      0x1223c ; __aeabi_f2d + 40
        0x00012234:    2000        .       MOVS     r0,#0
        0x00012236:    f00c4100    ...A    AND      r1,r12,#0x80000000
        0x0001223a:    4770        pG      BX       lr
        0x0001223c:    f00c4300    ...C    AND      r3,r12,#0x80000000
        0x00012240:    ea437050    C.Pp    ORR      r0,r3,r0,LSR #29
        0x00012244:    b510        ..      PUSH     {r4,lr}
        0x00012246:    ea4000cc    @...    ORR      r0,r0,r12,LSL #3
        0x0001224a:    f000f80e    ....    BL       __fpl_fnaninf ; 0x1226a
        0x0001224e:    bf00        ..      NOP      
    $d
        0x00012250:    92000000    ....    DCD    2449473536
    $t
        0x00012254:    ea4f0100    O...    MOV.W    r1,r0
        0x00012258:    f7ffbfd6    ....    B.W      __fpl_dretinf ; 0x12208
        0x0001225c:    f04f4100    O..A    MOV      r1,#0x80000000
        0x00012260:    f04f0000    O...    MOV      r0,#0
        0x00012264:    f5a12100    ...!    SUB      r1,r1,#0x80000
        0x00012268:    4770        pG      BX       lr
    x$fpl$fnaninf
    $v0
    __fpl_fnaninf
        0x0001226a:    f10e0e02    ....    ADD      lr,lr,#2
        0x0001226e:    f02e0e03    ....    BIC      lr,lr,#3
        0x00012272:    f85e4b04    ^..K    LDR      r4,[lr],#4
        0x00012276:    4224        $B      TST      r4,r4
        0x00012278:    d404        ..      BMI      0x12284 ; __fpl_fnaninf + 26
        0x0001227a:    ea4f0241    O.A.    LSL      r2,r1,#1
        0x0001227e:    f1b24f7f    ...O    CMP      r2,#0xff000000
        0x00012282:    d811        ..      BHI      0x122a8 ; __fpl_fnaninf + 62
        0x00012284:    ea4f0340    O.@.    LSL      r3,r0,#1
        0x00012288:    f1b34f7f    ...O    CMP      r3,#0xff000000
        0x0001228c:    d80c        ..      BHI      0x122a8 ; __fpl_fnaninf + 62
        0x0001228e:    d10e        ..      BNE      0x122ae ; __fpl_fnaninf + 68
        0x00012290:    ea4f7cd0    O..|    LSR      r12,r0,#31
        0x00012294:    f1b24f7f    ...O    CMP      r2,#0xff000000
        0x00012298:    eb0c0c4c    ..L.    ADD      r12,r12,r12,LSL #1
        0x0001229c:    f10c0c02    ....    ADD      r12,r12,#2
        0x000122a0:    bf08        ..      IT       EQ
        0x000122a2:    eb4c7cd1    L..|    ADCEQ    r12,r12,r1,LSR #31
        0x000122a6:    e004        ..      B        0x122b2 ; __fpl_fnaninf + 72
        0x000122a8:    f04f0c08    O...    MOV      r12,#8
        0x000122ac:    e001        ..      B        0x122b2 ; __fpl_fnaninf + 72
        0x000122ae:    ea4f7cd1    O..|    LSR      r12,r1,#31
        0x000122b2:    eb0c034c    ..L.    ADD      r3,r12,r12,LSL #1
        0x000122b6:    fa24f403    $...    LSR      r4,r4,r3
        0x000122ba:    f0040407    ....    AND      r4,r4,#7
        0x000122be:    f1b40c04    ....    SUBS     r12,r4,#4
        0x000122c2:    d206        ..      BCS      0x122d2 ; __fpl_fnaninf + 104
        0x000122c4:    eb0e0c84    ....    ADD      r12,lr,r4,LSL #2
        0x000122c8:    e8bd4010    ...@    POP      {r4,lr}
        0x000122cc:    f04c0c01    L...    ORR      r12,r12,#1
        0x000122d0:    4760        `G      BX       r12
        0x000122d2:    e8dff00c    ....    TBB      [pc,r12]
    $d
        0x000122d6:    0807        ..      DCW    2055
        0x000122d8:    0202        ..      DCW    514
    $t
        0x000122da:    f04f4000    O..@    MOV      r0,#0x80000000
        0x000122de:    f5a00080    ....    SUB      r0,r0,#0x400000
        0x000122e2:    bd10        ..      POP      {r4,pc}
        0x000122e4:    4608        .F      MOV      r0,r1
        0x000122e6:    0042        B.      LSLS     r2,r0,#1
        0x000122e8:    bf18        ..      IT       NE
        0x000122ea:    f1d27280    ...r    RSBSNE   r2,r2,#0x1000000
        0x000122ee:    bf88        ..      IT       HI
        0x000122f0:    f0004000    ...@    ANDHI    r0,r0,#0x80000000
        0x000122f4:    bd10        ..      POP      {r4,pc}
    x$fpl$fpinit
    $v0
    _fp_init
        0x000122f6:    f04f7040    O.@p    MOV      r0,#0x3000000
        0x000122fa:    eee10a10    ....    VMSR     FPSCR,r0
    __fplib_config_fpu_vfp
    __fplib_config_pureend_doubles
        0x000122fe:    4770        pG      BX       lr
    x$fpl$fretinf
    $v0
    __fpl_fretinf
        0x00012300:    21ff        .!      MOVS     r1,#0xff
        0x00012302:    ea4150d0    A..P    ORR      r0,r1,r0,LSR #23
        0x00012306:    05c0        ..      LSLS     r0,r0,#23
        0x00012308:    4770        pG      BX       lr
    $d.realdata
    .constdata
    x$fpl$usenofp
    __I$use$fp
    cache_monitor_cachectrl
        0x0001230a:    0308        ..      DCW    776
        0x0001230c:    00          .       DCB    0
    Kc_PRIME_MPI
        0x0001230d:    70b404      p..     DCB    112,180,4
        0x00012310:    89200046    F. .    DCD    2300575814
        0x00012314:    28428c1c    ..B(    DCD    675449884
        0x00012318:    021c45db    .E..    DCD    35407323
        0x0001231c:    20428e26    &.B     DCD    541232678
        0x00012320:    f6fb91da    ....    DCD    4143682010
        0x00012324:    13fb06f3    ....    DCD    335218419
        0x00012328:    76b1d313    ...v    DCD    1991365395
        0x0001232c:    18428e1c    ..B.    DCD    407014940
        0x00012330:    f6fb91da    ....    DCD    4143682010
        0x00012334:    13fb06f3    ....    DCD    335218419
        0x00012338:    76b19313    ...v    DCD    1991349011
        0x0001233c:    10428e1c    ..B.    DCD    272797212
        0x00012340:    f6fb91da    ....    DCD    4143682010
        0x00012344:    13fb06f3    ....    DCD    335218419
        0x00012348:    76b15313    .S.v    DCD    1991332627
        0x0001234c:    08428e1c    ..B.    DCD    138579484
        0x00012350:    f6fb91da    ....    DCD    4143682010
        0x00012354:    13fb06f3    ....    DCD    335218419
        0x00012358:    182b0013    ..+.    DCD    405471251
        0x0001235c:    dd1c76bf    .v..    DCD    3709630143
        0x00012360:    514605d1    ..FQ    DCD    1363543505
        0x00012364:    28428c18    ..B(    DCD    675449880
        0x00012368:    70dad646    F..p    DCD    1893389894
        0x0001236c:    70bc        .p      DCW    28860
        0x0001236e:    47          G       DCB    71
    .constdata
    g_ui8HALcompiler
        0x0001236f:    41          A       DCB    65
        0x00012370:    43434d52    RMCC    DCD    1128484178
        0x00012374:    36303520     506    DCD    909128992
        0x00012378:    30353730    0750    DCD    808793904
        0x0001237c:    00000000    ....    DCD    0
    .constdata
    g_ui32HALversion
        0x00012380:    02050000    ....    DCD    33882112
    .constdata
        0x00012384:    bf006001    .`..    DCD    3204472833
        0x00012388:    bf006800    .h..    DCD    3204474880
        0x0001238c:    bf004770    pG..    DCD    3204466544
    .constdata
    g_am_hal_mcuctrl_flash_size
        0x00012390:    00004000    .@..    DCD    16384
        0x00012394:    00008000    ....    DCD    32768
        0x00012398:    00010000    ....    DCD    65536
        0x0001239c:    00020000    ....    DCD    131072
        0x000123a0:    00040000    ....    DCD    262144
        0x000123a4:    00080000    ....    DCD    524288
        0x000123a8:    00100000    ....    DCD    1048576
        0x000123ac:    00200000    .. .    DCD    2097152
        0x000123b0:    00180000    ....    DCD    1572864
        0x000123b4:    00000000    ....    DCD    0
        0x000123b8:    00000000    ....    DCD    0
        0x000123bc:    00000000    ....    DCD    0
        0x000123c0:    00000000    ....    DCD    0
        0x000123c4:    00000000    ....    DCD    0
        0x000123c8:    00000000    ....    DCD    0
        0x000123cc:    00000000    ....    DCD    0
    g_am_hal_mcuctrl_sram_size
        0x000123d0:    00004000    .@..    DCD    16384
        0x000123d4:    00008000    ....    DCD    32768
        0x000123d8:    00010000    ....    DCD    65536
        0x000123dc:    00020000    ....    DCD    131072
        0x000123e0:    00040000    ....    DCD    262144
        0x000123e4:    00080000    ....    DCD    524288
        0x000123e8:    00100000    ....    DCD    1048576
        0x000123ec:    00060000    ....    DCD    393216
        0x000123f0:    000c0000    ....    DCD    786432
        0x000123f4:    00000000    ....    DCD    0
        0x000123f8:    00000000    ....    DCD    0
        0x000123fc:    00000000    ....    DCD    0
        0x00012400:    00000000    ....    DCD    0
        0x00012404:    00000000    ....    DCD    0
        0x00012408:    00000000    ....    DCD    0
        0x0001240c:    00000000    ....    DCD    0
    .constdata
    gAmHalCmdQReg
        0x00012410:    50004294    .B.P    DCD    1342194324
        0x00012414:    50004298    .B.P    DCD    1342194328
        0x00012418:    500042ac    .B.P    DCD    1342194348
        0x0001241c:    500042b0    .B.P    DCD    1342194352
        0x00012420:    500042a8    .B.P    DCD    1342194344
        0x00012424:    00008000    ....    DCD    32768
        0x00012428:    5000429c    .B.P    DCD    1342194332
        0x0001242c:    00000001    ....    DCD    1
        0x00012430:    00000004    ....    DCD    4
        0x00012434:    00000002    ....    DCD    2
        0x00012438:    50005294    .R.P    DCD    1342198420
        0x0001243c:    50005298    .R.P    DCD    1342198424
        0x00012440:    500052ac    .R.P    DCD    1342198444
        0x00012444:    500052b0    .R.P    DCD    1342198448
        0x00012448:    500052a8    .R.P    DCD    1342198440
        0x0001244c:    00008000    ....    DCD    32768
        0x00012450:    5000529c    .R.P    DCD    1342198428
        0x00012454:    00000001    ....    DCD    1
        0x00012458:    00000004    ....    DCD    4
        0x0001245c:    00000002    ....    DCD    2
        0x00012460:    50006294    .b.P    DCD    1342202516
        0x00012464:    50006298    .b.P    DCD    1342202520
        0x00012468:    500062ac    .b.P    DCD    1342202540
        0x0001246c:    500062b0    .b.P    DCD    1342202544
        0x00012470:    500062a8    .b.P    DCD    1342202536
        0x00012474:    00008000    ....    DCD    32768
        0x00012478:    5000629c    .b.P    DCD    1342202524
        0x0001247c:    00000001    ....    DCD    1
        0x00012480:    00000004    ....    DCD    4
        0x00012484:    00000002    ....    DCD    2
        0x00012488:    50007294    .r.P    DCD    1342206612
        0x0001248c:    50007298    .r.P    DCD    1342206616
        0x00012490:    500072ac    .r.P    DCD    1342206636
        0x00012494:    500072b0    .r.P    DCD    1342206640
        0x00012498:    500072a8    .r.P    DCD    1342206632
        0x0001249c:    00008000    ....    DCD    32768
        0x000124a0:    5000729c    .r.P    DCD    1342206620
        0x000124a4:    00000001    ....    DCD    1
        0x000124a8:    00000004    ....    DCD    4
        0x000124ac:    00000002    ....    DCD    2
        0x000124b0:    50008294    ...P    DCD    1342210708
        0x000124b4:    50008298    ...P    DCD    1342210712
        0x000124b8:    500082ac    ...P    DCD    1342210732
        0x000124bc:    500082b0    ...P    DCD    1342210736
        0x000124c0:    500082a8    ...P    DCD    1342210728
        0x000124c4:    00008000    ....    DCD    32768
        0x000124c8:    5000829c    ...P    DCD    1342210716
        0x000124cc:    00000001    ....    DCD    1
        0x000124d0:    00000004    ....    DCD    4
        0x000124d4:    00000002    ....    DCD    2
        0x000124d8:    50009294    ...P    DCD    1342214804
        0x000124dc:    50009298    ...P    DCD    1342214808
        0x000124e0:    500092ac    ...P    DCD    1342214828
        0x000124e4:    500092b0    ...P    DCD    1342214832
        0x000124e8:    500092a8    ...P    DCD    1342214824
        0x000124ec:    00008000    ....    DCD    32768
        0x000124f0:    5000929c    ...P    DCD    1342214812
        0x000124f4:    00000001    ....    DCD    1
        0x000124f8:    00000004    ....    DCD    4
        0x000124fc:    00000002    ....    DCD    2
        0x00012500:    500142a0    .B.P    DCD    1342259872
        0x00012504:    500142a8    .B.P    DCD    1342259880
        0x00012508:    500142c0    .B.P    DCD    1342259904
        0x0001250c:    500142c4    .B.P    DCD    1342259908
        0x00012510:    500142b8    .B.P    DCD    1342259896
        0x00012514:    00004000    .@..    DCD    16384
        0x00012518:    500142ac    .B.P    DCD    1342259884
        0x0001251c:    00000001    ....    DCD    1
        0x00012520:    00000004    ....    DCD    4
        0x00012524:    00000008    ....    DCD    8
        0x00012528:    500152a0    .R.P    DCD    1342263968
        0x0001252c:    500152a8    .R.P    DCD    1342263976
        0x00012530:    500152c0    .R.P    DCD    1342264000
        0x00012534:    500152c4    .R.P    DCD    1342264004
        0x00012538:    500152b8    .R.P    DCD    1342263992
        0x0001253c:    00004000    .@..    DCD    16384
        0x00012540:    500152ac    .R.P    DCD    1342263980
        0x00012544:    00000001    ....    DCD    1
        0x00012548:    00000004    ....    DCD    4
        0x0001254c:    00000008    ....    DCD    8
        0x00012550:    500162a0    .b.P    DCD    1342268064
        0x00012554:    500162a8    .b.P    DCD    1342268072
        0x00012558:    500162c0    .b.P    DCD    1342268096
        0x0001255c:    500162c4    .b.P    DCD    1342268100
        0x00012560:    500162b8    .b.P    DCD    1342268088
        0x00012564:    00004000    .@..    DCD    16384
        0x00012568:    500162ac    .b.P    DCD    1342268076
        0x0001256c:    00000001    ....    DCD    1
        0x00012570:    00000004    ....    DCD    4
        0x00012574:    00000008    ....    DCD    8
        0x00012578:    5000c248    H..P    DCD    1342227016
        0x0001257c:    5000c24c    L..P    DCD    1342227020
        0x00012580:    5000c260    `..P    DCD    1342227040
        0x00012584:    5000c264    d..P    DCD    1342227044
        0x00012588:    5000c25c    \..P    DCD    1342227036
        0x0001258c:    00008000    ....    DCD    32768
        0x00012590:    5000c250    P..P    DCD    1342227024
        0x00012594:    00000001    ....    DCD    1
        0x00012598:    00000004    ....    DCD    4
        0x0001259c:    00000002    ....    DCD    2
    .constdata
    g_AM_HAL_GPIO_DISABLE
        0x000125a0:    00000003    ....    DCD    3
    g_ui8Inpen
        0x000125a4:    62272323    ##'b    DCD    1646732067
        0x000125a8:    108703a1    ....    DCD    277283745
        0x000125ac:    e1005303    .S..    DCD    3774894851
        0x000125b0:    55418151    Q.AU    DCD    1430356305
        0x000125b4:    4080c405    ...@    DCD    1082180613
        0x000125b8:    4140b101    ..@A    DCD    1094758657
        0x000125bc:    31a03114    .1.1    DCD    832581908
        0x000125c0:    1180f100    ....    DCD    293662976
        0x000125c4:    11c12191    .!..    DCD    297869713
        0x000125c8:    304511e5    ..E0    DCD    809832933
        0x000125cc:    31300037    7.01    DCD    825229367
        0x000125d0:    40007100    .q.@    DCD    1073770752
        0x000125d4:    01003130    01..    DCD    16789808
        0x000125d8:    01010101    ....    DCD    16843009
        0x000125dc:    01010101    ....    DCD    16843009
        0x000125e0:    a050a001    ..P.    DCD    2689638401
        0x000125e4:    01010101    ....    DCD    16843009
        0x000125e8:    a0a0a001    ....    DCD    2694881281
        0x000125ec:    50a0        .P      DCW    20640
    g_ui8Bit76Capabilities
        0x000125ee:    0101        ..      DCW    257
        0x000125f0:    01800280    ....    DCD    25166464
        0x000125f4:    01018001    ....    DCD    16875521
        0x000125f8:    80808080    ....    DCD    2155905152
        0x000125fc:    80808080    ....    DCD    2155905152
        0x00012600:    80088080    ....    DCD    2148040832
        0x00012604:    01808080    ....    DCD    25198720
        0x00012608:    80800180    ....    DCD    2155872640
        0x0001260c:    80808080    ....    DCD    2155905152
        0x00012610:    04028080    ....    DCD    67272832
        0x00012614:    04010180    ....    DCD    67174784
        0x00012618:    80800101    ....    DCD    2155872513
        0x0001261c:    01018080    ....    DCD    16875648
        0x00012620:    80808080    ....    DCD    2155905152
        0x00012624:    80808080    ....    DCD    2155905152
        0x00012628:    80808080    ....    DCD    2155905152
        0x0001262c:    80808080    ....    DCD    2155905152
        0x00012630:    80808080    ....    DCD    2155905152
        0x00012634:    80808080    ....    DCD    2155905152
    g_ui8nCEpins
        0x00012638:    02070707    ....    DCD    34014983
        0x0001263c:    00080802    ....    DCD    526338
        0x00012640:    01020202    ....    DCD    16908802
        0x00012644:    01010101    ....    DCD    16843009
        0x00012648:    01010101    ....    DCD    16843009
        0x0001264c:    01010101    ....    DCD    16843009
        0x00012650:    01010101    ....    DCD    16843009
        0x00012654:    01010101    ....    DCD    16843009
        0x00012658:    01010101    ....    DCD    16843009
        0x0001265c:    08010101    ....    DCD    134283521
        0x00012660:    01010008    ....    DCD    16842760
        0x00012664:    01010101    ....    DCD    16843009
        0x00012668:    01010101    ....    DCD    16843009
        0x0001266c:    01010101    ....    DCD    16843009
        0x00012670:    01010101    ....    DCD    16843009
        0x00012674:    01010101    ....    DCD    16843009
        0x00012678:    01010101    ....    DCD    16843009
        0x0001267c:    01010101    ....    DCD    16843009
        0x00012680:    0101        ..      DCW    257
    g_ui8NCEtable
        0x00012682:    a4a3        ..      DCW    42147
        0x00012684:    a1a00112    ....    DCD    2711617810
        0x00012688:    02b3a4a2    ....    DCD    45327522
        0x0001268c:    848392b5    ....    DCD    2223215285
        0x00012690:    94938285    ....    DCD    2492695173
        0x00012694:    ffff9101    ....    DCD    4294938881
        0x00012698:    ffffffff    ....    DCD    4294967295
        0x0001269c:    1201ffff    ....    DCD    302120959
        0x000126a0:    84830095    ....    DCD    2223177877
        0x000126a4:    b4018002    ....    DCD    3019997186
        0x000126a8:    a4a3b2b5    ....    DCD    2762191541
        0x000126ac:    81800011    ....    DCD    2172649489
        0x000126b0:    02838382    ....    DCD    42173314
        0x000126b4:    94931085    ....    DCD    2492665989
        0x000126b8:    12a09095    ....    DCD    312512661
        0x000126bc:    b101a4a2    ....    DCD    2969674914
        0x000126c0:    028000b2    ....    DCD    41943218
        0x000126c4:    919085b2    ....    DCD    2442167730
        0x000126c8:    a1029402    ....    DCD    2701300738
        0x000126cc:    11b0a3a2    ....    DCD    296788898
        0x000126d0:    001200b3    ....    DCD    1179827
        0x000126d4:    a4a39295    ....    DCD    2762183317
        0x000126d8:    b4b30102    ....    DCD    3031630082
        0x000126dc:    818002b5    ....    DCD    2172650165
        0x000126e0:    01908482    ....    DCD    26248322
        0x000126e4:    01a39592    ....    DCD    27497874
        0x000126e8:    b4b3a0a5    ....    DCD    3031670949
        0x000126ec:    8402b1b5    ....    DCD    2214769077
        0x000126f0:    94938100    ....    DCD    2492694784
        0x000126f4:    12a30095    ....    DCD    312672405
        0x000126f8:    b400a1a5    ....    DCD    3019940261
        0x000126fc:    0201b002    ....    DCD    33665026
        0x00012700:    b1908482    ....    DCD    2979038338
        0x00012704:    11a01001    ....    DCD    295702529
        0x00012708:    02b0a592    ....    DCD    45131154
        0x0001270c:    810111b2    ....    DCD    2164330930
        0x00012710:    94930282    ....    DCD    2492662402
        0x00012714:    a4931095    ....    DCD    2761101461
        0x00012718:    b1b000a5    ....    DCD    2981101733
        0x0001271c:    ffffb512    ....    DCD    4294948114
        0x00012720:    ffffffff    ....    DCD    4294967295
        0x00012724:    9102ffff    ....    DCD    2432892927
        0x00012728:    01801011    ....    DCD    25169937
        0x0001272c:    91908582    ....    DCD    2442167682
        0x00012730:    00a01002    ....    DCD    10489858
        0x00012734:    b4b3a5a2    ....    DCD    3031672226
        0x00012738:    0183b185    ....    DCD    25407877
        0x0001273c:    81111002    ....    DCD    2165379074
        0x00012740:    a1019392    ....    DCD    2701235090
        0x00012744:    11b012a2    ....    DCD    296751778
        0x00012748:    020181b2    ....    DCD    33653170
        0x0001274c:    91a480b2    ....    DCD    2443477170
        0x00012750:    a1908092    ....    DCD    2710601874
        0x00012754:    b1a09200    ....    DCD    2980090368
        0x00012758:    84028202    ....    DCD    2214756866
        0x0001275c:    00838385    ....    DCD    8618885
        0x00012760:    b4a38495    ....    DCD    3030615189
        0x00012764:    b40010a5    ....    DCD    3019903141
        0x00012768:    81b390b5    ....    DCD    2176028853
        0x0001276c:    9111b500    ....    DCD    2433856768
        0x00012770:    a1100092    ....    DCD    2702180498
        0x00012774:    b100b0a2    ....    DCD    2969612450
        0x00012778:    84100102    ....    DCD    2215641346
        0x0001277c:    94011185    ....    DCD    2483097989
        0x00012780:    a4800002    ....    DCD    2759852034
        0x00012784:    009010a5    ....    DCD    9441445
        0x00012788:    810193a5    ....    DCD    2164364197
        0x0001278c:    91b09482    ....    DCD    2444268674
        0x00012790:    008395b2    ....    DCD    8623538
        0x00012794:    b193a0a2    ....    DCD    2979242146
        0x00012798:    02a30100    ....    DCD    44237056
        0x0001279c:    94b31185    ....    DCD    2494763397
        0x000127a0:    0200a1b0    ....    DCD    33595824
        0x000127a4:    b401a201    ....    DCD    3020005889
        0x000127a8:    000002b5    ....    DCD    693
    .constdata
    g_AM_HAL_GPIO_OUTPUT
        0x000127ac:    00000403    ....    DCD    1027
    .constdata
    am_hal_pwrctrl_peripheral_control
        0x000127b0:    00000000    ....    DCD    0
        0x000127b4:    00000000    ....    DCD    0
        0x000127b8:    00000000    ....    DCD    0
        0x000127bc:    00000001    ....    DCD    1
        0x000127c0:    00000004    ....    DCD    4
        0x000127c4:    00000004    ....    DCD    4
        0x000127c8:    00000002    ....    DCD    2
        0x000127cc:    00000008    ....    DCD    8
        0x000127d0:    00000008    ....    DCD    8
        0x000127d4:    00000004    ....    DCD    4
        0x000127d8:    00000008    ....    DCD    8
        0x000127dc:    00000008    ....    DCD    8
        0x000127e0:    00000008    ....    DCD    8
        0x000127e4:    00000008    ....    DCD    8
        0x000127e8:    00000008    ....    DCD    8
        0x000127ec:    00000010    ....    DCD    16
        0x000127f0:    00000010    ....    DCD    16
        0x000127f4:    00000010    ....    DCD    16
        0x000127f8:    00000020     ...    DCD    32
        0x000127fc:    00000010    ....    DCD    16
        0x00012800:    00000010    ....    DCD    16
        0x00012804:    00000040    @...    DCD    64
        0x00012808:    00000010    ....    DCD    16
        0x0001280c:    00000010    ....    DCD    16
        0x00012810:    00000080    ....    DCD    128
        0x00012814:    00000004    ....    DCD    4
        0x00012818:    00000004    ....    DCD    4
        0x0001281c:    00000100    ....    DCD    256
        0x00012820:    00000004    ....    DCD    4
        0x00012824:    00000004    ....    DCD    4
        0x00012828:    00000200    ....    DCD    512
        0x0001282c:    00000020     ...    DCD    32
        0x00012830:    00000020     ...    DCD    32
        0x00012834:    00000400    ....    DCD    1024
        0x00012838:    00000004    ....    DCD    4
        0x0001283c:    00000004    ....    DCD    4
        0x00012840:    00000800    ....    DCD    2048
        0x00012844:    00000040    @...    DCD    64
        0x00012848:    00000040    @...    DCD    64
        0x0001284c:    00001000    ....    DCD    4096
        0x00012850:    00000040    @...    DCD    64
        0x00012854:    00000040    @...    DCD    64
        0x00012858:    00002000    . ..    DCD    8192
        0x0001285c:    00000040    @...    DCD    64
        0x00012860:    00000040    @...    DCD    64
        0x00012864:    00004000    .@..    DCD    16384
        0x00012868:    00000080    ....    DCD    128
        0x0001286c:    00000080    ....    DCD    128
        0x00012870:    00008000    ....    DCD    32768
        0x00012874:    00000100    ....    DCD    256
        0x00012878:    00000100    ....    DCD    256
    am_hal_pwrctrl_memory_control
        0x0001287c:    00000000    ....    DCD    0
        0x00012880:    00000000    ....    DCD    0
        0x00012884:    00000000    ....    DCD    0
        0x00012888:    00000000    ....    DCD    0
        0x0001288c:    00000000    ....    DCD    0
        0x00012890:    00000000    ....    DCD    0
        0x00012894:    00000001    ....    DCD    1
        0x00012898:    00000001    ....    DCD    1
        0x0001289c:    00000001    ....    DCD    1
        0x000128a0:    00001fff    ....    DCD    8191
        0x000128a4:    00001fff    ....    DCD    8191
        0x000128a8:    00000001    ....    DCD    1
        0x000128ac:    00000003    ....    DCD    3
        0x000128b0:    00000003    ....    DCD    3
        0x000128b4:    00000003    ....    DCD    3
        0x000128b8:    00001fff    ....    DCD    8191
        0x000128bc:    00001fff    ....    DCD    8191
        0x000128c0:    00000003    ....    DCD    3
        0x000128c4:    00000007    ....    DCD    7
        0x000128c8:    00000007    ....    DCD    7
        0x000128cc:    00000007    ....    DCD    7
        0x000128d0:    00001fff    ....    DCD    8191
        0x000128d4:    00001fff    ....    DCD    8191
        0x000128d8:    00000007    ....    DCD    7
        0x000128dc:    0000000f    ....    DCD    15
        0x000128e0:    0000000f    ....    DCD    15
        0x000128e4:    0000000f    ....    DCD    15
        0x000128e8:    00001fff    ....    DCD    8191
        0x000128ec:    00001fff    ....    DCD    8191
        0x000128f0:    0000000f    ....    DCD    15
        0x000128f4:    0000001f    ....    DCD    31
        0x000128f8:    0000001f    ....    DCD    31
        0x000128fc:    0000001f    ....    DCD    31
        0x00012900:    00001fff    ....    DCD    8191
        0x00012904:    00001fff    ....    DCD    8191
        0x00012908:    0000001f    ....    DCD    31
        0x0001290c:    0000003f    ?...    DCD    63
        0x00012910:    0000003f    ?...    DCD    63
        0x00012914:    0000003f    ?...    DCD    63
        0x00012918:    00001fff    ....    DCD    8191
        0x0001291c:    00001fff    ....    DCD    8191
        0x00012920:    0000003f    ?...    DCD    63
        0x00012924:    0000007f    ....    DCD    127
        0x00012928:    0000007f    ....    DCD    127
        0x0001292c:    0000007f    ....    DCD    127
        0x00012930:    00001fff    ....    DCD    8191
        0x00012934:    00001fff    ....    DCD    8191
        0x00012938:    0000007f    ....    DCD    127
        0x0001293c:    000000ff    ....    DCD    255
        0x00012940:    000000ff    ....    DCD    255
        0x00012944:    000000ff    ....    DCD    255
        0x00012948:    00001fff    ....    DCD    8191
        0x0001294c:    00001fff    ....    DCD    8191
        0x00012950:    000000ff    ....    DCD    255
        0x00012954:    000001ff    ....    DCD    511
        0x00012958:    000001ff    ....    DCD    511
        0x0001295c:    000001ff    ....    DCD    511
        0x00012960:    00001fff    ....    DCD    8191
        0x00012964:    00001fff    ....    DCD    8191
        0x00012968:    000001ff    ....    DCD    511
        0x0001296c:    000003ff    ....    DCD    1023
        0x00012970:    000003ff    ....    DCD    1023
        0x00012974:    000003ff    ....    DCD    1023
        0x00012978:    00001fff    ....    DCD    8191
        0x0001297c:    00001fff    ....    DCD    8191
        0x00012980:    000003ff    ....    DCD    1023
        0x00012984:    000007ff    ....    DCD    2047
        0x00012988:    000007ff    ....    DCD    2047
        0x0001298c:    000007ff    ....    DCD    2047
        0x00012990:    00001fff    ....    DCD    8191
        0x00012994:    00001fff    ....    DCD    8191
        0x00012998:    000007ff    ....    DCD    2047
        0x0001299c:    00000fff    ....    DCD    4095
        0x000129a0:    00000fff    ....    DCD    4095
        0x000129a4:    00000fff    ....    DCD    4095
        0x000129a8:    00001fff    ....    DCD    8191
        0x000129ac:    00001fff    ....    DCD    8191
        0x000129b0:    00000fff    ....    DCD    4095
        0x000129b4:    00001fff    ....    DCD    8191
        0x000129b8:    00001fff    ....    DCD    8191
        0x000129bc:    00001fff    ....    DCD    8191
        0x000129c0:    00001fff    ....    DCD    8191
        0x000129c4:    00001fff    ....    DCD    8191
        0x000129c8:    00001fff    ....    DCD    8191
        0x000129cc:    00002000    . ..    DCD    8192
        0x000129d0:    00002000    . ..    DCD    8192
        0x000129d4:    00002000    . ..    DCD    8192
        0x000129d8:    00006000    .`..    DCD    24576
        0x000129dc:    00006000    .`..    DCD    24576
        0x000129e0:    00002000    . ..    DCD    8192
        0x000129e4:    00006000    .`..    DCD    24576
        0x000129e8:    00006000    .`..    DCD    24576
        0x000129ec:    00006000    .`..    DCD    24576
        0x000129f0:    00006000    .`..    DCD    24576
        0x000129f4:    00006000    .`..    DCD    24576
        0x000129f8:    00006000    .`..    DCD    24576
        0x000129fc:    c0000000    ....    DCD    3221225472
        0x00012a00:    00000000    ....    DCD    0
        0x00012a04:    c0000000    ....    DCD    3221225472
        0x00012a08:    c0000000    ....    DCD    3221225472
        0x00012a0c:    00000000    ....    DCD    0
        0x00012a10:    80000000    ....    DCD    2147483648
        0x00012a14:    c0007fff    ....    DCD    3221258239
        0x00012a18:    00007fff    ....    DCD    32767
        0x00012a1c:    c0007fff    ....    DCD    3221258239
        0x00012a20:    c0007fff    ....    DCD    3221258239
        0x00012a24:    00007fff    ....    DCD    32767
        0x00012a28:    80007fff    ....    DCD    2147516415
    .constdata
    g_AM_BSP_GPIO_MSPI0_CE0
        0x00012a2c:    00000701    ....    DCD    1793
    .constdata
    g_AM_BSP_GPIO_MSPI0_CE1
        0x00012a30:    00000701    ....    DCD    1793
    .constdata
    g_AM_BSP_GPIO_MSPI0_D0
        0x00012a34:    00000206    ....    DCD    518
    .constdata
    g_AM_BSP_GPIO_MSPI0_D1
        0x00012a38:    00000205    ....    DCD    517
    .constdata
    g_AM_BSP_GPIO_MSPI0_D2
        0x00012a3c:    00000207    ....    DCD    519
    .constdata
    g_AM_BSP_GPIO_MSPI0_D3
        0x00012a40:    00000206    ....    DCD    518
    .constdata
    g_AM_BSP_GPIO_MSPI0_SCK
        0x00012a44:    00000302    ....    DCD    770
    .constdata
    g_AM_BSP_GPIO_MSPI1_CE0
        0x00012a48:    00020701    ....    DCD    132865
    .constdata
    g_AM_BSP_GPIO_MSPI1_CE1
        0x00012a4c:    00000701    ....    DCD    1793
    .constdata
    g_AM_BSP_GPIO_MSPI1_D0
        0x00012a50:    00020200    ....    DCD    131584
    .constdata
    g_AM_BSP_GPIO_MSPI1_D1
        0x00012a54:    00020200    ....    DCD    131584
    .constdata
    g_AM_BSP_GPIO_MSPI1_D2
        0x00012a58:    00020200    ....    DCD    131584
    .constdata
    g_AM_BSP_GPIO_MSPI1_D3
        0x00012a5c:    00020200    ....    DCD    131584
    .constdata
    g_AM_BSP_GPIO_MSPI1_D4
        0x00012a60:    00020200    ....    DCD    131584
    .constdata
    g_AM_BSP_GPIO_MSPI1_D5
        0x00012a64:    00020200    ....    DCD    131584
    .constdata
    g_AM_BSP_GPIO_MSPI1_D6
        0x00012a68:    00020200    ....    DCD    131584
    .constdata
    g_AM_BSP_GPIO_MSPI1_D7
        0x00012a6c:    00020200    ....    DCD    131584
    .constdata
    g_AM_BSP_GPIO_MSPI1_SCK
        0x00012a70:    00020300    ....    DCD    131840
    .constdata
    g_AM_BSP_GPIO_MSPI1_DMDQS
        0x00012a74:    00020300    ....    DCD    131840
    .constdata
    g_AM_BSP_GPIO_MSPI2_CE0
        0x00012a78:    00040701    ....    DCD    263937
    .constdata
    g_AM_BSP_GPIO_MSPI2_CE1
        0x00012a7c:    00000701    ....    DCD    1793
    .constdata
    g_AM_BSP_GPIO_MSPI2_D0
        0x00012a80:    00040200    ....    DCD    262656
    .constdata
    g_AM_BSP_GPIO_MSPI2_D1
        0x00012a84:    00040200    ....    DCD    262656
    .constdata
    g_AM_BSP_GPIO_MSPI2_D2
        0x00012a88:    00040200    ....    DCD    262656
    .constdata
    g_AM_BSP_GPIO_MSPI2_D3
        0x00012a8c:    00040200    ....    DCD    262656
    .constdata
    g_AM_BSP_GPIO_MSPI2_SCK
        0x00012a90:    00040200    ....    DCD    262656
    .constdata
    g_AM_BSP_GPIO_ITM_SWO
        0x00012a94:    00000002    ....    DCD    2
    .constdata
    g_AM_BSP_GPIO_DSPL0_CE0
        0x00012a98:    00000701    ....    DCD    1793
    .constdata
    g_AM_BSP_GPIO_DSPL0_D0
        0x00012a9c:    00000206    ....    DCD    518
    .constdata
    g_AM_BSP_GPIO_DSPL0_D1
        0x00012aa0:    00000205    ....    DCD    517
    .constdata
    g_AM_BSP_GPIO_DSPL0_D2
        0x00012aa4:    00000207    ....    DCD    519
    .constdata
    g_AM_BSP_GPIO_DSPL0_D3
        0x00012aa8:    00000206    ....    DCD    518
    .constdata
    g_AM_BSP_GPIO_DSPL0_SCK
        0x00012aac:    00000202    ....    DCD    514
    .constdata
    g_AM_BSP_GPIO_PSRAM_CE0
        0x00012ab0:    00020701    ....    DCD    132865
    .constdata
    g_AM_BSP_GPIO_PSRAM_D0
        0x00012ab4:    00020200    ....    DCD    131584
    .constdata
    g_AM_BSP_GPIO_PSRAM_D1
        0x00012ab8:    00020200    ....    DCD    131584
    .constdata
    g_AM_BSP_GPIO_PSRAM_D2
        0x00012abc:    00020200    ....    DCD    131584
    .constdata
    g_AM_BSP_GPIO_PSRAM_D3
        0x00012ac0:    00020200    ....    DCD    131584
    .constdata
    g_AM_BSP_GPIO_PSRAM_SCK
        0x00012ac4:    00040200    ....    DCD    262656
    .constdata
    g_AM_BSP_GPIO_FLASH0_CE0
        0x00012ac8:    00040701    ....    DCD    263937
    .constdata
    g_AM_BSP_GPIO_FLASH0_D0
        0x00012acc:    00040200    ....    DCD    262656
    .constdata
    g_AM_BSP_GPIO_FLASH0_D1
        0x00012ad0:    00040200    ....    DCD    262656
    .constdata
    g_AM_BSP_GPIO_FLASH0_D2
        0x00012ad4:    00040200    ....    DCD    262656
    .constdata
    g_AM_BSP_GPIO_FLASH0_D3
        0x00012ad8:    00040200    ....    DCD    262656
    .constdata
    g_AM_BSP_GPIO_FLASH0_SCK
        0x00012adc:    00040200    ....    DCD    262656
    .constdata
    g_AM_BSP_GPIO_FLASH1_CE0
        0x00012ae0:    00020701    ....    DCD    132865
    .constdata
    g_AM_BSP_GPIO_FLASH1_D0
        0x00012ae4:    00020200    ....    DCD    131584
    .constdata
    g_AM_BSP_GPIO_FLASH1_D1
        0x00012ae8:    00020200    ....    DCD    131584
    .constdata
    g_AM_BSP_GPIO_FLASH1_D2
        0x00012aec:    00020200    ....    DCD    131584
    .constdata
    g_AM_BSP_GPIO_FLASH1_D3
        0x00012af0:    00020200    ....    DCD    131584
    .constdata
    g_AM_BSP_GPIO_FLASH1_D4
        0x00012af4:    00020200    ....    DCD    131584
    .constdata
    g_AM_BSP_GPIO_FLASH1_D5
        0x00012af8:    00020200    ....    DCD    131584
    .constdata
    g_AM_BSP_GPIO_FLASH1_D6
        0x00012afc:    00020200    ....    DCD    131584
    .constdata
    g_AM_BSP_GPIO_FLASH1_D7
        0x00012b00:    00020200    ....    DCD    131584
    .constdata
    g_AM_BSP_GPIO_FLASH1_SCK
        0x00012b04:    00020200    ....    DCD    131584
    .constdata
    g_AM_BSP_GPIO_FLASH1_DS
        0x00012b08:    00020200    ....    DCD    131584
    Region$$Table$$Base
        0x00012b0c:    00012b3c    <+..    DCD    76604
        0x00012b10:    10011000    ....    DCD    268505088
        0x00012b14:    00000198    ....    DCD    408
        0x00012b18:    0000c174    t...    DCD    49524
        0x00012b1c:    00012bd4    .+..    DCD    76756
        0x00012b20:    10011198    ....    DCD    268505496
        0x00012b24:    00006da8    .m..    DCD    28072
        0x00012b28:    0000c1d0    ....    DCD    49616
        0x00012b2c:    00012bd4    .+..    DCD    76756
        0x00012b30:    10010000    ....    DCD    268500992
        0x00012b34:    00001000    ....    DCD    4096
        0x00012b38:    0000c1d0    ....    DCD    49616
    Region$$Table$$Limit

** Section #2 'RWMEM' (SHT_PROGBITS) [SHF_ALLOC + SHF_WRITE]
    Size   : 152 bytes (alignment 4)
    Address: 0x10011000

    Data section was compressed (Original size: 408 bytes)

    0x10011000:   12 00 00 00 00 00 00 00 40 38 00 00 00 00 00 00    ........@8......
    0x10011010:   00 00 00 00 00 00 00 00 00 00 00 00 0a 00 00 00    ................
    0x10011020:   14 00 00 00 32 00 00 00 64 00 00 00 c8 00 00 00    ....2...d.......
    0x10011030:   f4 01 00 00 e8 03 00 00 d0 07 00 00 88 13 00 00    ................
    0x10011040:   10 27 00 00 04 00 00 00 08 00 00 00 0f 00 00 00    .'..............
    0x10011050:   19 00 00 00 2e 00 00 00 5f 00 00 00 a8 00 00 00    ........_.......
    0x10011060:   2f 01 00 00 9d 02 00 00 cd 04 00 00 04 06 00 00    /...............
    0x10011070:   b8 19 01 10 00 10 00 00 00 00 00 00 00 00 00 00    ................
    0x10011080:   00 00 00 00 4a 02 00 00 00 00 00 00 08 02 00 0b    ....J...........
    0x10011090:   02 00 00 00 02 00 01 01 01 00 50 00 06 00 00 00    ..........P.....
    0x100110a0:   00 00 00 00 00 00 00 00 00 00 00 00 00 00 00 00    ................
    0x100110b0:   08 02 00 0b 02 01 00 00 02 00 01 01 01 00 50 00    ..............P.
    0x100110c0:   06 00 00 00 00 00 00 00 00 00 00 00 00 00 00 00    ................
    0x100110d0:   00 00 00 00 06 02 00 eb 38 04 00 00 02 00 01 01    ........8.......
    0x100110e0:   01 00 1e 00 06 00 00 00 00 00 00 00 00 00 00 00    ................
    0x100110f0:   00 00 00 00 00 00 00 00 06 02 00 eb 38 05 00 00    ............8...
    0x10011100:   02 00 01 01 01 00 1e 00 06 00 00 00 00 00 00 00    ................
    0x10011110:   00 00 00 00 00 00 00 00 00 00 00 00 00 00 00 00    ................
    0x10011120:   00 00 00 00 00 00 00 00 ff ff ff ff ff ff ff ff    ................
    0x10011130:   ff ff ff ff ff ff ff ff 00 00 00 00 00 00 00 00    ................
    0x10011140:   0a 00 00 00 03 00 00 00 1e 00 00 00 03 00 00 00    ................
    0x10011150:   0f 00 00 00 03 00 00 00 0e 00 00 00 03 00 00 00    ................
    0x10011160:   11 00 00 00 03 00 00 00 00 c2 01 00 60 00 00 00    ............`...
    0x10011170:   00 00 00 00 00 00 00 00 00 00 00 00 12 00 00 00    ................
    0x10011180:   24 75 01 10 00 04 00 00 24 79 01 10 00 04 00 00    $u......$y......
    0x10011190:   00 00 00 00 00 00 00 00                            ........


** Section #3 'RWMEM' (SHT_NOBITS) [SHF_ALLOC + SHF_WRITE]
    Size   : 28072 bytes (alignment 8)
    Address: 0x10011198


** Section #4 'STACKMEM' (SHT_NOBITS) [SHF_ALLOC + SHF_WRITE]
    Size   : 4096 bytes (alignment 8)
    Address: 0x10010000


** Section #5 '.debug_abbrev' (SHT_PROGBITS)
    Size   : 1476 bytes


** Section #6 '.debug_frame' (SHT_PROGBITS)
    Size   : 4720 bytes


** Section #7 '.debug_info' (SHT_PROGBITS)
    Size   : 324084 bytes


** Section #8 '.debug_line' (SHT_PROGBITS)
    Size   : 9724 bytes


** Section #9 '.debug_loc' (SHT_PROGBITS)
    Size   : 5272 bytes


** Section #10 '.debug_macinfo' (SHT_PROGBITS)
    Size   : 258812 bytes


** Section #11 '.debug_pubnames' (SHT_PROGBITS)
    Size   : 1374 bytes


** Section #12 '.symtab' (SHT_SYMTAB)
    Size   : 14368 bytes (alignment 4)
    String table #13 '.strtab'
    Last local symbol no. 594

    Symbol table .symtab (897 symbols, 594 local)

      #  Symbol Name                Value      Bind  Sec  Type  Vis  Size
    ========================================================================

      1  $d                         0x0000c000   Lc    1   --   De 
      2  $t                         0x0000c100   Lc    1   --   De 
      3  $d                         0x0000c132   Lc    1   --   De 
      4  $t                         0x0000c138   Lc    1   --   De 
      5  $d                         0x0000c16c   Lc    1   --   De 
      6  $t                         0x0000c174   Lc    1   --   De 
      7  $d                         0x0000c25e   Lc    1   --   De 
      8  $t                         0x0000c26c   Lc    1   --   De 
      9  $d                         0x0000c2d4   Lc    1   --   De 
     10  $t                         0x0000c2d8   Lc    1   --   De 
     11  $d                         0x0000c2e0   Lc    1   --   De 
     12  $t                         0x0000c2e4   Lc    1   --   De 
     13  $d                         0x0000c412   Lc    1   --   De 
     14  $t                         0x0000c520   Lc    1   --   De 
     15  $d                         0x0000c54c   Lc    1   --   De 
     16  $t                         0x0000c55c   Lc    1   --   De 
     17  $d                         0x0000c596   Lc    1   --   De 
     18  $t                         0x0000c5a0   Lc    1   --   De 
     19  $d                         0x0000c5b8   Lc    1   --   De 
     20  $t                         0x0000c5cc   Lc    1   --   De 
     21  $d                         0x0000c5d6   Lc    1   --   De 
     22  $t                         0x0000c5ea   Lc    1   --   De 
     23  $d                         0x0000c6d0   Lc    1   --   De 
     24  $t                         0x0000c6e4   Lc    1   --   De 
     25  $d                         0x0000c986   Lc    1   --   De 
     26  $t                         0x0000ca64   Lc    1   --   De 
     27  $d                         0x0000cb12   Lc    1   --   De 
     28  $t                         0x0000cb18   Lc    1   --   De 
     29  $d                         0x0000cea4   Lc    1   --   De 
     30  $t                         0x0000cf84   Lc    1   --   De 
     31  $d                         0x0000cff6   Lc    1   --   De 
     32  $t                         0x0000d000   Lc    1   --   De 
     33  $d                         0x0000d072   Lc    1   --   De 
     34  $t                         0x0000d07c   Lc    1   --   De 
     35  $d                         0x0000d0c2   Lc    1   --   De 
     36  $t                         0x0000d0c8   Lc    1   --   De 
     37  $d                         0x0000d0d4   Lc    1   --   De 
     38  $t                         0x0000d0e6   Lc    1   --   De 
     39  $d                         0x0000d46c   Lc    1   --   De 
     40  $t                         0x0000d474   Lc    1   --   De 
     41  $d                         0x0000d482   Lc    1   --   De 
     42  $t                         0x0000d488   Lc    1   --   De 
     43  $d                         0x0000d4a0   Lc    1   --   De 
     44  $t                         0x0000d4aa   Lc    1   --   De 
     45  $d                         0x0000d574   Lc    1   --   De 
     46  $t                         0x0000d584   Lc    1   --   De 
     47  $d                         0x0000d5b0   Lc    1   --   De 
     48  $t                         0x0000d5b8   Lc    1   --   De 
     49  $d                         0x0000d680   Lc    1   --   De 
     50  $t                         0x0000d684   Lc    1   --   De 
     51  $d                         0x0000d6c0   Lc    1   --   De 
     52  $t                         0x0000d6c4   Lc    1   --   De 
     53  $d                         0x0000d700   Lc    1   --   De 
     54  $t                         0x0000d704   Lc    1   --   De 
     55  $d                         0x0000d774   Lc    1   --   De 
     56  $t                         0x0000d778   Lc    1   --   De 
     57  $d                         0x0000d816   Lc    1   --   De 
     58  $t                         0x0000d81c   Lc    1   --   De 
     59  $d                         0x0000d8fe   Lc    1   --   De 
     60  $t                         0x0000d90c   Lc    1   --   De 
     61  $d                         0x0000d954   Lc    1   --   De 
     62  $t                         0x0000d958   Lc    1   --   De 
     63  $d                         0x0000d9ae   Lc    1   --   De 
     64  $t                         0x0000d9b4   Lc    1   --   De 
     65  $d                         0x0000d9e6   Lc    1   --   De 
     66  $t                         0x0000d9ec   Lc    1   --   De 
     67  $d                         0x0000da4a   Lc    1   --   De 
     68  $t                         0x0000da50   Lc    1   --   De 
     69  $d                         0x0000dad4   Lc    1   --   De 
     70  $t                         0x0000dad8   Lc    1   --   De 
     71  $d                         0x0000dafc   Lc    1   --   De 
     72  $t                         0x0000db00   Lc    1   --   De 
     73  $d                         0x0000db6e   Lc    1   --   De 
     74  $t                         0x0000db78   Lc    1   --   De 
     75  $d                         0x0000db92   Lc    1   --   De 
     76  $t                         0x0000db98   Lc    1   --   De 
     77  $d                         0x0000dbb8   Lc    1   --   De 
     78  $t                         0x0000dbbc   Lc    1   --   De 
     79  $d                         0x0000dbdc   Lc    1   --   De 
     80  $t                         0x0000dbe0   Lc    1   --   De 
     81  $d                         0x0000dd46   Lc    1   --   De 
     82  $t                         0x0000dd84   Lc    1   --   De 
     83  $d                         0x0000ddb2   Lc    1   --   De 
     84  $t                         0x0000ddb8   Lc    1   --   De 
     85  $d                         0x0000dde4   Lc    1   --   De 
     86  $t                         0x0000dde8   Lc    1   --   De 
     87  $d                         0x0000de5a   Lc    1   --   De 
     88  $t                         0x0000de64   Lc    1   --   De 
     89  $d                         0x0000deaa   Lc    1   --   De 
     90  $t                         0x0000deb4   Lc    1   --   De 
     91  $d                         0x0000ded8   Lc    1   --   De 
     92  $t                         0x0000dedc   Lc    1   --   De 
     93  $d                         0x0000defe   Lc    1   --   De 
     94  $t                         0x0000df04   Lc    1   --   De 
     95  $d                         0x0000df5a   Lc    1   --   De 
     96  $t                         0x0000df60   Lc    1   --   De 
     97  $d                         0x0000df64   Lc    1   --   De 
     98  $t                         0x0000df68   Lc    1   --   De 
     99  $d                         0x0000df8c   Lc    1   --   De 
    100  $t                         0x0000df90   Lc    1   --   De 
    101  $d                         0x0000e1da   Lc    1   --   De 
    102  $t                         0x0000e210   Lc    1   --   De 
    103  $d                         0x0000e24e   Lc    1   --   De 
    104  $t                         0x0000e254   Lc    1   --   De 
    105  $d                         0x0000e2bc   Lc    1   --   De 
    106  $t                         0x0000e2d8   Lc    1   --   De 
    107  $d                         0x0000e314   Lc    1   --   De 
    108  $t                         0x0000e31a   Lc    1   --   De 
    109  $d                         0x0000e3b0   Lc    1   --   De 
    110  $t                         0x0000e3c0   Lc    1   --   De 
    111  $d                         0x0000e412   Lc    1   --   De 
    112  $t                         0x0000e422   Lc    1   --   De 
    113  $d                         0x0000e456   Lc    1   --   De 
    114  $t                         0x0000e45c   Lc    1   --   De 
    115  $d                         0x0000e572   Lc    1   --   De 
    116  $t                         0x0000e594   Lc    1   --   De 
    117  $d                         0x0000e7cc   Lc    1   --   De 
    118  $t                         0x0000e7dc   Lc    1   --   De 
    119  $d                         0x0000e814   Lc    1   --   De 
    120  $t                         0x0000e82e   Lc    1   --   De 
    121  $d                         0x0000ebf0   Lc    1   --   De 
    122  $t                         0x0000ec00   Lc    1   --   De 
    123  $d                         0x0000f036   Lc    1   --   De 
    124  $t                         0x0000f054   Lc    1   --   De 
    125  $d                         0x0000f2fc   Lc    1   --   De 
    126  $t                         0x0000f30c   Lc    1   --   De 
    127  $d                         0x0000f36e   Lc    1   --   De 
    128  $t                         0x0000f378   Lc    1   --   De 
    129  $d                         0x0000f412   Lc    1   --   De 
    130  $t                         0x0000f420   Lc    1   --   De 
    131  $d                         0x0000f504   Lc    1   --   De 
    132  $t                         0x0000f508   Lc    1   --   De 
    133  $d                         0x0000f550   Lc    1   --   De 
    134  $t                         0x0000f558   Lc    1   --   De 
    135  $d                         0x0000f586   Lc    1   --   De 
    136  $t                         0x0000f58c   Lc    1   --   De 
    137  $d                         0x0000f5c0   Lc    1   --   De 
    138  $t                         0x0000f5c4   Lc    1   --   De 
    139  $d                         0x0000f856   Lc    1   --   De 
    140  $t                         0x0000f860   Lc    1   --   De 
    141  $d                         0x0000f8a2   Lc    1   --   De 
    142  $t                         0x0000f8a8   Lc    1   --   De 
    143  $d                         0x0000fa1c   Lc    1   --   De 
    144  $t                         0x0000fa24   Lc    1   --   De 
    145  $d                         0x0000fd10   Lc    1   --   De 
    146  $t                         0x0000fd14   Lc    1   --   De 
    147  $d                         0x0000fe5c   Lc    1   --   De 
    148  $t                         0x0000fe74   Lc    1   --   De 
    149  $d                         0x0000feba   Lc    1   --   De 
    150  $t                         0x0000fec4   Lc    1   --   De 
    151  $d                         0x0000ff0c   Lc    1   --   De 
    152  $t                         0x0000ff14   Lc    1   --   De 
    153  $d                         0x0000ffa2   Lc    1   --   De 
    154  $t                         0x0000ffb8   Lc    1   --   De 
    155  $d                         0x0000ffd8   Lc    1   --   De 
    156  $t                         0x0000ffdc   Lc    1   --   De 
    157  $d                         0x0000fffa   Lc    1   --   De 
    158  $t                         0x00010000   Lc    1   --   De 
    159  $d                         0x000100aa   Lc    1   --   De 
    160  $t                         0x000100b4   Lc    1   --   De 
    161  $d                         0x000100e0   Lc    1   --   De 
    162  $t                         0x000100e8   Lc    1   --   De 
    163  $d                         0x000100ee   Lc    1   --   De 
    164  $t                         0x000100f4   Lc    1   --   De 
    165  $d                         0x00010114   Lc    1   --   De 
    166  $t                         0x00010130   Lc    1   --   De 
    167  $d                         0x00010550   Lc    1   --   De 
    168  $t                         0x00010554   Lc    1   --   De 
    169  $d                         0x00010864   Lc    1   --   De 
    170  $t                         0x00010870   Lc    1   --   De 
    171  $d                         0x00010a04   Lc    1   --   De 
    172  $t                         0x00010a28   Lc    1   --   De 
    173  $d                         0x00010b42   Lc    1   --   De 
    174  $t                         0x00010bd8   Lc    1   --   De 
    175  $d                         0x00010f3a   Lc    1   --   De 
    176  $t                         0x000111e8   Lc    1   --   De 
    177  $d                         0x0001127e   Lc    1   --   De 
    178  $t                         0x000112d4   Lc    1   --   De 
    179  $d                         0x000112e0   Lc    1   --   De 
    180  $t                         0x000112f4   Lc    1   --   De 
    181  $d                         0x0001170a   Lc    1   --   De 
    182  $t                         0x0001174c   Lc    1   --   De 
    183  $d                         0x000117d6   Lc    1   --   De 
    184  $t                         0x000118cc   Lc    1   --   De 
    185  $d                         0x00011bd2   Lc    1   --   De 
    186  $t                         0x00011bdc   Lc    1   --   De 
    187  $d                         0x00011d54   Lc    1   --   De 
    188  $t                         0x00011d58   Lc    1   --   De 
    189  $d                         0x00011f64   Lc    1   --   De 
    190  $t                         0x00011f68   Lc    1   --   De 
    191  $d                         0x00011f90   Lc    1   --   De 
    192  $t                         0x00012018   Lc    1   --   De 
    193  $d                         0x00012134   Lc    1   --   De 
    194  $t                         0x00012138   Lc    1   --   De 
    195  $d                         0x00012164   Lc    1   --   De 
    196  $t                         0x0001216c   Lc    1   --   De 
    197  $d                         0x000121dc   Lc    1   --   De 
    198  $t                         0x000121e0   Lc    1   --   De 
    199  $d                         0x00012250   Lc    1   --   De 
    200  $t                         0x00012254   Lc    1   --   De 
    201  $d                         0x000122d6   Lc    1   --   De 
    202  $t                         0x000122da   Lc    1   --   De 
    203  $d.realdata                0x0001230a   Lc    1   --   De 
    204  $d.realdata                0x10011000   Lc    2   --   De 
    205  $d.realdata                0x10010000   Lc    4   --   De 
    206  ..\src\cache_monitor.c     0x00000000   Lc  Abs  File  De 
    207  ../src/cache_monitor.c     0x00000000   Lc  Abs  File  De 
    208  i.XIP_handler              0x0000c2e8   Lc    1  Sect  De 
    209  XIP_handler                0x0000c2e9   Lc    1  Code  De   0x12a
    210  i.am_ctimer_isr            0x0000ca64   Lc    1  Sect  De 
    211  i.am_mspi1_isr             0x0000ffb8   Lc    1  Sect  De 
    212  i.flush_mspi_psram_data    0x00010a28   Lc    1  Sect  De 
    213  i.main                     0x00010bd8   Lc    1  Sect  De 
    214  i.mspi_psram_init          0x000116e8   Lc    1  Sect  De 
    215  i.mspi_xip_init            0x00011774   Lc    1  Sect  De 
    216  .bss                       0x10011198   Lc    3  Sect  De   0x820
    217  .bss                       0x100119b8   Lc    3  Sect  De   0x4000
    218  .constdata                 0x0001230a   Lc    1  Sect  De   0x65
    219  .data                      0x10011000   Lc    2  Sect  De   0x8c
    220  g_sTimer                   0x10011080   Lc    2  Data  De   0xc
    221  ../../../../../third_party/prime_mpi/src/prime_mpi.c
                                    0x00000000   Lc  Abs  File  De 
    222  i.prime_number             0x00011998   Lc    1  Sect  De 
    223  ..\..\..\..\..\devices\am_devices_mspi_psram_aps6404l.c
                                    0x00000000   Lc  Abs  File  De 
    224  ../../../../../devices/am_devices_mspi_psram_aps6404l.c
                                    0x00000000   Lc  Abs  File  De 
    225  i.am_devices_mspi_psram_aps6404l_reset
                                    0x0000ca7c   Lc    1  Sect  De 
    226  am_devices_mspi_psram_aps6404l_reset
                                    0x0000ca7d   Lc    1  Code  De   0x96
    227  i.am_devices_mspi_psram_enable_xip
                                    0x0000cb18   Lc    1  Sect  De 
    228  i.am_devices_mspi_psram_init
                                    0x0000cb2c   Lc    1  Sect  De 
    229  i.am_devices_mspi_psram_read
                                    0x0000cf84   Lc    1  Sect  De 
    230  i.am_devices_mspi_psram_write
                                    0x0000d000   Lc    1  Sect  De 
    231  i.pfnMSPI_PSRAM_Callback   0x00011992   Lc    1  Sect  De 
    232  i.psram_nonblocking_transfer
                                    0x000119d4   Lc    1  Sect  De 
    233  psram_nonblocking_transfer 0x000119d5   Lc    1  Code  De   0xc6
    234  .bss                       0x100159b8   Lc    3  Sect  De   0x18
    235  .data                      0x1001108c   Lc    2  Sect  De   0x90
    236  ..\..\..\..\..\utils\am_util_delay.c
                                    0x00000000   Lc  Abs  File  De 
    237  ../../../../../utils/am_util_delay.c
                                    0x00000000   Lc  Abs  File  De 
    238  i.am_util_delay_us         0x0000ffdc   Lc    1  Sect  De 
    239  ..\..\..\..\..\utils\am_util_faultisr.c
                                    0x00000000   Lc  Abs  File  De 
    240  .emb_text                  0x0000c218   Lc    1  Sect  De   0x22
    241  $v0                        0x0000c218   Lc    1   --   De 
    242  ../../../../../utils/am_util_faultisr.c
                                    0x00000000   Lc  Abs  File  De 
    243  i.am_util_faultisr_collect_data
                                    0x00010000   Lc    1  Sect  De 
    244  ../../../../../utils/am_util_stdio.c
                                    0x00000000   Lc  Abs  File  De 
    245  i.am_util_stdio_printf     0x000100b4   Lc    1  Sect  De 
    246  i.am_util_stdio_printf_init
                                    0x000100e8   Lc    1  Sect  De 
    247  i.am_util_stdio_terminal_clear
                                    0x000100f4   Lc    1  Sect  De 
    248  i.am_util_stdio_vsprintf   0x00010130   Lc    1  Sect  De 
    249  i.ndigits_in_u64           0x000118cc   Lc    1  Sect  De 
    250  ndigits_in_u64             0x000118cd   Lc    1  Code  De   0xc6
    251  i.uint64_to_str            0x00011bdc   Lc    1  Sect  De 
    252  uint64_to_str              0x00011bdd   Lc    1  Code  De   0x126
    253  .bss                       0x100159d0   Lc    3  Sect  De   0x100
    254  g_prfbuf                   0x100159d0   Lc    3  Data  De   0x100
    255  .data                      0x1001111c   Lc    2  Sect  De   0x8
    256  g_bTxtXlate                0x1001111c   Lc    2  Data  De   0x1
    257  ../keil/startup_keil.s     0x00000000   Lc  Abs  File  De 
    258  STACK                      0x10010000   Lc    4  Sect  De   0x1000
    259  StackMem                   0x10010000   Lc    4  Data  De 
    260  HEAP                       0x10017f40   Lc    3  Sect  De 
    261  HeapMem                    0x10017f40   Lc    3  Data  De 
    262  RESET                      0x0000c000   Lc    1  Sect  De   0x138
    263  $v0                        0x0000c100   Lc    1   --   De 
    264  .text                      0x0000c254   Lc    1  Sect  De   0x18
    265  $v0                        0x0000c254   Lc    1   --   De 
    266  ..\am_hal_global.c         0x00000000   Lc  Abs  File  De 
    267  ../am_hal_global.c         0x00000000   Lc  Abs  File  De 
    268  .constdata                 0x0001236f   Lc    1  Sect  De   0xe
    269  .constdata                 0x00012380   Lc    1  Sect  De   0x4
    270  .data                      0x10011124   Lc    2  Sect  De   0x4
    271  ..\am_hal_cachectrl.c      0x00000000   Lc  Abs  File  De 
    272  ../am_hal_cachectrl.c      0x00000000   Lc  Abs  File  De 
    273  i.am_hal_cachectrl_config  0x0000d07c   Lc    1  Sect  De 
    274  i.am_hal_cachectrl_control 0x0000d0c8   Lc    1  Sect  De 
    275  i.am_hal_cachectrl_enable  0x0000d474   Lc    1  Sect  De 
    276  ..\am_hal_clkgen.c         0x00000000   Lc  Abs  File  De 
    277  ../am_hal_clkgen.c         0x00000000   Lc  Abs  File  De 
    278  i.am_hal_clkgen_control    0x0000d488   Lc    1  Sect  De 
    279  i.am_hal_clkgen_status_get 0x0000d584   Lc    1  Sect  De 
    280  ..\am_hal_ctimer.c         0x00000000   Lc  Abs  File  De 
    281  ../am_hal_ctimer.c         0x00000000   Lc  Abs  File  De 
    282  i.am_hal_ctimer_clear      0x0000dad8   Lc    1  Sect  De 
    283  i.am_hal_ctimer_config     0x0000db00   Lc    1  Sect  De 
    284  i.am_hal_ctimer_int_clear  0x0000db78   Lc    1  Sect  De 
    285  i.am_hal_ctimer_int_disable
                                    0x0000db98   Lc    1  Sect  De 
    286  i.am_hal_ctimer_int_enable 0x0000dbbc   Lc    1  Sect  De 
    287  i.am_hal_ctimer_int_register
                                    0x0000dbe0   Lc    1  Sect  De 
    288  i.am_hal_ctimer_int_service
                                    0x0000dd84   Lc    1  Sect  De 
    289  i.am_hal_ctimer_int_status_get
                                    0x0000ddb8   Lc    1  Sect  De 
    290  i.am_hal_ctimer_period_set 0x0000dde8   Lc    1  Sect  De 
    291  i.am_hal_ctimer_start      0x0000de64   Lc    1  Sect  De 
    292  i.am_hal_ctimer_stop       0x0000deb4   Lc    1  Sect  De 
    293  .bss                       0x10015ad0   Lc    3  Sect  De   0x80
    294  g_am_hal_ctimer_ppfnHandlers
                                    0x10015ad0   Lc    3  Data  De   0x80
    295  .data                      0x10011128   Lc    2  Sect  De   0x10
    296  g_ui8ClkSrc                0x10011128   Lc    2  Data  De   0x10
    297  ..\am_hal_flash.c          0x00000000   Lc  Abs  File  De 
    298  ../am_hal_flash.c          0x00000000   Lc  Abs  File  De 
    299  i.am_hal_flash_delay       0x0000dee0   Lc    1  Sect  De 
    300  i.am_hal_flash_delay_status_check
                                    0x0000df04   Lc    1  Sect  De 
    301  i.am_hal_flash_load_ui32   0x0000df60   Lc    1  Sect  De 
    302  i.am_hal_flash_store_ui32  0x0000df68   Lc    1  Sect  De 
    303  .constdata                 0x00012384   Lc    1  Sect  De   0xc
    304  ..\am_hal_interrupt.c      0x00000000   Lc  Abs  File  De 
    305  .emb_text                  0x0000c23c   Lc    1  Sect  De   0x16
    306  $v0                        0x0000c23c   Lc    1   --   De 
    307  ../am_hal_interrupt.c      0x00000000   Lc  Abs  File  De 
    308  ..\am_hal_mcuctrl.c        0x00000000   Lc  Abs  File  De 
    309  ../am_hal_mcuctrl.c        0x00000000   Lc  Abs  File  De 
    310  i.am_hal_mcuctrl_control   0x0000e308   Lc    1  Sect  De 
    311  i.am_hal_mcuctrl_info_get  0x0000e45c   Lc    1  Sect  De 
    312  .constdata                 0x00012390   Lc    1  Sect  De   0x80
    313  ..\am_hal_mspi.c           0x00000000   Lc  Abs  File  De 
    314  ../am_hal_mspi.c           0x00000000   Lc  Abs  File  De 
    315  i.am_hal_mspi_blocking_transfer
                                    0x0000e594   Lc    1  Sect  De 
    316  i.am_hal_mspi_control      0x0000e7dc   Lc    1  Sect  De 
    317  i.am_hal_mspi_device_configure
                                    0x0000f0a8   Lc    1  Sect  De 
    318  i.am_hal_mspi_disable      0x0000f30c   Lc    1  Sect  De 
    319  i.am_hal_mspi_enable       0x0000f378   Lc    1  Sect  De 
    320  i.am_hal_mspi_highprio_transfer
                                    0x0000f420   Lc    1  Sect  De 
    321  i.am_hal_mspi_initialize   0x0000f508   Lc    1  Sect  De 
    322  i.am_hal_mspi_interrupt_clear
                                    0x0000f558   Lc    1  Sect  De 
    323  i.am_hal_mspi_interrupt_enable
                                    0x0000f58c   Lc    1  Sect  De 
    324  i.am_hal_mspi_interrupt_service
                                    0x0000f5c4   Lc    1  Sect  De 
    325  i.am_hal_mspi_interrupt_status_get
                                    0x0000f860   Lc    1  Sect  De 
    326  i.am_hal_mspi_nonblocking_transfer
                                    0x0000f8a8   Lc    1  Sect  De 
    327  i.am_hal_mspi_power_control
                                    0x0000fa24   Lc    1  Sect  De 
    328  i.build_dma_cmdlist        0x00010870   Lc    1  Sect  De 
    329  i.mspi_device_configure    0x000112d4   Lc    1  Sect  De 
    330  mspi_device_configure      0x000112d5   Lc    1  Code  De   0x410
    331  i.mspi_dummy_callback      0x000116e4   Lc    1  Sect  De 
    332  mspi_dummy_callback        0x000116e5   Lc    1  Code  De   0x2
    333  i.mspi_seq_loopback        0x0001174c   Lc    1  Sect  De 
    334  mspi_seq_loopback          0x0001174d   Lc    1  Code  De   0x26
    335  i.sched_hiprio             0x00011a9c   Lc    1  Sect  De 
    336  sched_hiprio               0x00011a9d   Lc    1  Code  De   0x136
    337  .bss                       0x10015b50   Lc    3  Sect  De   0x19d4
    338  ..\am_bsp.c                0x00000000   Lc  Abs  File  De 
    339  ../am_bsp.c                0x00000000   Lc  Abs  File  De 
    340  i.am_bsp_itm_printf_enable 0x0000c520   Lc    1  Sect  De 
    341  i.am_bsp_low_power_init    0x0000c55c   Lc    1  Sect  De 
    342  i.am_bsp_mspi_pins_enable  0x0000c5a0   Lc    1  Sect  De 
    343  .bss                       0x10017524   Lc    3  Sect  De   0x400
    344  pui8UartTxBuffer           0x10017524   Lc    3  Data  De   0x400
    345  .bss                       0x10017924   Lc    3  Sect  De   0x400
    346  pui8UartRxBuffer           0x10017924   Lc    3  Data  De   0x400
    347  .data                      0x10011138   Lc    2  Sect  De   0x58
    348  g_ui32PrintInterface       0x10011138   Lc    2  Data  De   0x4
    349  g_sCOMUART                 0x1001113c   Lc    2  Data  De   0x4
    350  g_sBspUartBufferedConfig   0x10011168   Lc    2  Data  De   0x28
    351  ..\am_hal_cmdq.c           0x00000000   Lc  Abs  File  De 
    352  ../am_hal_cmdq.c           0x00000000   Lc  Abs  File  De 
    353  i.am_hal_cmdq_alloc_block  0x0000d5b8   Lc    1  Sect  De 
    354  i.am_hal_cmdq_disable      0x0000d684   Lc    1  Sect  De 
    355  i.am_hal_cmdq_enable       0x0000d6c4   Lc    1  Sect  De 
    356  i.am_hal_cmdq_error_resume 0x0000d704   Lc    1  Sect  De 
    357  i.am_hal_cmdq_get_status   0x0000d778   Lc    1  Sect  De 
    358  i.am_hal_cmdq_init         0x0000d81c   Lc    1  Sect  De 
    359  i.am_hal_cmdq_post_block   0x0000d90c   Lc    1  Sect  De 
    360  i.am_hal_cmdq_post_loop_block
                                    0x0000d958   Lc    1  Sect  De 
    361  i.am_hal_cmdq_release_block
                                    0x0000d9b4   Lc    1  Sect  De 
    362  i.am_hal_cmdq_reset        0x0000d9ec   Lc    1  Sect  De 
    363  i.am_hal_cmdq_term         0x0000da50   Lc    1  Sect  De 
    364  .bss                       0x10017d24   Lc    3  Sect  De   0x1b8
    365  gAmHalCmdq                 0x10017d24   Lc    3  Data  De   0x1b8
    366  .constdata                 0x00012410   Lc    1  Sect  De   0x190
    367  gAmHalCmdQReg              0x00012410   Lc    1  Data  De   0x190
    368  ..\am_hal_debug.c          0x00000000   Lc  Abs  File  De 
    369  ../am_hal_debug.c          0x00000000   Lc  Abs  File  De 
    370  i.am_hal_debug_error       0x0000dedc   Lc    1  Sect  De 
    371  ..\am_hal_gpio.c           0x00000000   Lc  Abs  File  De 
    372  ../am_hal_gpio.c           0x00000000   Lc  Abs  File  De 
    373  i.am_hal_gpio_pinconfig    0x0000df90   Lc    1  Sect  De 
    374  i.am_hal_gpio_state_write  0x0000e210   Lc    1  Sect  De 
    375  .constdata                 0x000125a0   Lc    1  Sect  De   0x20a
    376  g_ui8Inpen                 0x000125a4   Lc    1  Data  De   0x4a
    377  g_ui8Bit76Capabilities     0x000125ee   Lc    1  Data  De   0x4a
    378  g_ui8nCEpins               0x00012638   Lc    1  Data  De   0x4a
    379  g_ui8NCEtable              0x00012682   Lc    1  Data  De   0x128
    380  .constdata                 0x000127ac   Lc    1  Sect  De   0x4
    381  ..\am_hal_itm.c            0x00000000   Lc  Abs  File  De 
    382  ../am_hal_itm.c            0x00000000   Lc  Abs  File  De 
    383  i.am_hal_itm_enable        0x0000e290   Lc    1  Sect  De 
    384  i.am_hal_itm_print         0x0000e2d8   Lc    1  Sect  De 
    385  ..\am_hal_pwrctrl.c        0x00000000   Lc  Abs  File  De 
    386  ../am_hal_pwrctrl.c        0x00000000   Lc  Abs  File  De 
    387  i.am_hal_pwrctrl_low_power_init
                                    0x0000fd14   Lc    1  Sect  De 
    388  i.am_hal_pwrctrl_periph_disable
                                    0x0000fe74   Lc    1  Sect  De 
    389  i.am_hal_pwrctrl_periph_enable
                                    0x0000fec4   Lc    1  Sect  De 
    390  .constdata                 0x000127b0   Lc    1  Sect  De   0x27c
    391  .data                      0x10011190   Lc    2  Sect  De   0x1
    392  ..\am_hal_reset.c          0x00000000   Lc  Abs  File  De 
    393  ../am_hal_reset.c          0x00000000   Lc  Abs  File  De 
    394  .data                      0x10011194   Lc    2  Sect  De   0x4
    395  ..\am_hal_rtc.c            0x00000000   Lc  Abs  File  De 
    396  ../am_hal_rtc.c            0x00000000   Lc  Abs  File  De 
    397  i.am_hal_rtc_osc_disable   0x0000ff14   Lc    1  Sect  De 
    398  ..\am_hal_tpiu.c           0x00000000   Lc  Abs  File  De 
    399  ../am_hal_tpiu.c           0x00000000   Lc  Abs  File  De 
    400  i.am_hal_tpiu_enable       0x0000ff28   Lc    1  Sect  De 
    401  ..\am_hal_uart.c           0x00000000   Lc  Abs  File  De 
    402  ../am_hal_uart.c           0x00000000   Lc  Abs  File  De 
    403  ..\am_bsp_pins.c           0x00000000   Lc  Abs  File  De 
    404  ../am_bsp_pins.c           0x00000000   Lc  Abs  File  De 
    405  .constdata                 0x00012a2c   Lc    1  Sect  De   0x4
    406  .constdata                 0x00012a30   Lc    1  Sect  De   0x4
    407  .constdata                 0x00012a34   Lc    1  Sect  De   0x4
    408  .constdata                 0x00012a38   Lc    1  Sect  De   0x4
    409  .constdata                 0x00012a3c   Lc    1  Sect  De   0x4
    410  .constdata                 0x00012a40   Lc    1  Sect  De   0x4
    411  .constdata                 0x00012a44   Lc    1  Sect  De   0x4
    412  .constdata                 0x00012a48   Lc    1  Sect  De   0x4
    413  .constdata                 0x00012a4c   Lc    1  Sect  De   0x4
    414  .constdata                 0x00012a50   Lc    1  Sect  De   0x4
    415  .constdata                 0x00012a54   Lc    1  Sect  De   0x4
    416  .constdata                 0x00012a58   Lc    1  Sect  De   0x4
    417  .constdata                 0x00012a5c   Lc    1  Sect  De   0x4
    418  .constdata                 0x00012a60   Lc    1  Sect  De   0x4
    419  .constdata                 0x00012a64   Lc    1  Sect  De   0x4
    420  .constdata                 0x00012a68   Lc    1  Sect  De   0x4
    421  .constdata                 0x00012a6c   Lc    1  Sect  De   0x4
    422  .constdata                 0x00012a70   Lc    1  Sect  De   0x4
    423  .constdata                 0x00012a74   Lc    1  Sect  De   0x4
    424  .constdata                 0x00012a78   Lc    1  Sect  De   0x4
    425  .constdata                 0x00012a7c   Lc    1  Sect  De   0x4
    426  .constdata                 0x00012a80   Lc    1  Sect  De   0x4
    427  .constdata                 0x00012a84   Lc    1  Sect  De   0x4
    428  .constdata                 0x00012a88   Lc    1  Sect  De   0x4
    429  .constdata                 0x00012a8c   Lc    1  Sect  De   0x4
    430  .constdata                 0x00012a90   Lc    1  Sect  De   0x4
    431  .constdata                 0x00012a94   Lc    1  Sect  De   0x4
    432  .constdata                 0x00012a98   Lc    1  Sect  De   0x4
    433  .constdata                 0x00012a9c   Lc    1  Sect  De   0x4
    434  .constdata                 0x00012aa0   Lc    1  Sect  De   0x4
    435  .constdata                 0x00012aa4   Lc    1  Sect  De   0x4
    436  .constdata                 0x00012aa8   Lc    1  Sect  De   0x4
    437  .constdata                 0x00012aac   Lc    1  Sect  De   0x4
    438  .constdata                 0x00012ab0   Lc    1  Sect  De   0x4
    439  .constdata                 0x00012ab4   Lc    1  Sect  De   0x4
    440  .constdata                 0x00012ab8   Lc    1  Sect  De   0x4
    441  .constdata                 0x00012abc   Lc    1  Sect  De   0x4
    442  .constdata                 0x00012ac0   Lc    1  Sect  De   0x4
    443  .constdata                 0x00012ac4   Lc    1  Sect  De   0x4
    444  .constdata                 0x00012ac8   Lc    1  Sect  De   0x4
    445  .constdata                 0x00012acc   Lc    1  Sect  De   0x4
    446  .constdata                 0x00012ad0   Lc    1  Sect  De   0x4
    447  .constdata                 0x00012ad4   Lc    1  Sect  De   0x4
    448  .constdata                 0x00012ad8   Lc    1  Sect  De   0x4
    449  .constdata                 0x00012adc   Lc    1  Sect  De   0x4
    450  .constdata                 0x00012ae0   Lc    1  Sect  De   0x4
    451  .constdata                 0x00012ae4   Lc    1  Sect  De   0x4
    452  .constdata                 0x00012ae8   Lc    1  Sect  De   0x4
    453  .constdata                 0x00012aec   Lc    1  Sect  De   0x4
    454  .constdata                 0x00012af0   Lc    1  Sect  De   0x4
    455  .constdata                 0x00012af4   Lc    1  Sect  De   0x4
    456  .constdata                 0x00012af8   Lc    1  Sect  De   0x4
    457  .constdata                 0x00012afc   Lc    1  Sect  De   0x4
    458  .constdata                 0x00012b00   Lc    1  Sect  De   0x4
    459  .constdata                 0x00012b04   Lc    1  Sect  De   0x4
    460  .constdata                 0x00012b08   Lc    1  Sect  De   0x4
    461  ..\am_hal_queue.c          0x00000000   Lc  Abs  File  De 
    462  ../am_hal_queue.c          0x00000000   Lc  Abs  File  De 
    463  dc.s                       0x00000000   Lc  Abs  File  De 
    464  ../clib/longlong.s         0x00000000   Lc  Abs  File  De 
    465  ../clib/heapaux.c          0x00000000   Lc  Abs  File  De 
    466  .text                      0x0000c26c   Lc    1  Sect  De 
    467  ../clib/angel/startup.s    0x00000000   Lc  Abs  File  De 
    468  !!!main                    0x0000c138   Lc    1  Sect  De   0x8
    469  ../fplib/d2f.s             0x00000000   Lc  Abs  File  De 
    470  x$fpl$d2f                  0x00011d04   Lc    1  Sect  De   0x62
    471  $v0                        0x00011d04   Lc    1   --   De 
    472  ../fplib/ddiv.s            0x00000000   Lc  Abs  File  De 
    473  x$fpl$ddiv                 0x00011d68   Lc    1  Sect  De   0x2b0
    474  $v0                        0x00011d68   Lc    1   --   De 
    475  ddiv_entry                 0x00011d6f   Lc    1  Code  De 
    476  ../fplib/dmul.s            0x00000000   Lc  Abs  File  De 
    477  x$fpl$dmul                 0x00012018   Lc    1  Sect  De   0x154
    478  $v0                        0x00012018   Lc    1   --   De 
    479  ../fplib/f2d.s             0x00000000   Lc  Abs  File  De 
    480  x$fpl$f2d                  0x00012214   Lc    1  Sect  De   0x56
    481  $v0                        0x00012214   Lc    1   --   De 
    482  ../clib/angel/kernel.s     0x00000000   Lc  Abs  File  De 
    483  .ARM.Collect$$rtentry$$00000000
                                    0x0000c1f8   Lc    1  Sect  De 
    484  ../fplib/dnaninf.s         0x00000000   Lc  Abs  File  De 
    485  x$fpl$dnaninf              0x0001216c   Lc    1  Sect  De   0x9c
    486  $v0                        0x0001216c   Lc    1   --   De 
    487  ../fplib/dretinf.s         0x00000000   Lc  Abs  File  De 
    488  x$fpl$dretinf              0x00012208   Lc    1  Sect  De   0xc
    489  $v0                        0x00012208   Lc    1   --   De 
    490  ../fplib/fnaninf.s         0x00000000   Lc  Abs  File  De 
    491  x$fpl$fnaninf              0x0001226a   Lc    1  Sect  De   0x8c
    492  $v0                        0x0001226a   Lc    1   --   De 
    493  ../fplib/fretinf.s         0x00000000   Lc  Abs  File  De 
    494  x$fpl$fretinf              0x00012300   Lc    1  Sect  De   0xa
    495  $v0                        0x00012300   Lc    1   --   De 
    496  ../fplib/usenofp.s         0x00000000   Lc  Abs  File  De 
    497  x$fpl$usenofp              0x0001230a   Lc    1  Sect  De 
    498  ../clib/angel/kernel.s     0x00000000   Lc  Abs  File  De 
    499  .ARM.Collect$$rtentry$$00000002
                                    0x0000c1f8   Lc    1  Sect  De 
    500  .ARM.Collect$$rtentry$$00000009
                                    0x0000c1fe   Lc    1  Sect  De 
    501  .ARM.Collect$$rtentry$$0000000A
                                    0x0000c1fe   Lc    1  Sect  De   0x4
    502  .ARM.Collect$$rtentry$$0000000C
                                    0x0000c202   Lc    1  Sect  De 
    503  .ARM.Collect$$rtentry$$0000000D
                                    0x0000c202   Lc    1  Sect  De   0x8
    504  ../clib/angel/kernel.s     0x00000000   Lc  Abs  File  De 
    505  .ARM.Collect$$rtentry$$00000004
                                    0x0000c1f8   Lc    1  Sect  De   0x6
    506  ../clib/angel/sys.s        0x00000000   Lc  Abs  File  De 
    507  .text                      0x0000c272   Lc    1  Sect  De   0x4a
    508  ../clib/stdlib.c           0x00000000   Lc  Abs  File  De 
    509  .text                      0x0000c2bc   Lc    1  Sect  De 
    510  ../clib/angel/boardlib.s   0x00000000   Lc  Abs  File  De 
    511  ../clib/angel/boardlib.s   0x00000000   Lc  Abs  File  De 
    512  ../clib/angel/boardlib.s   0x00000000   Lc  Abs  File  De 
    513  ../clib/libinit.s          0x00000000   Lc  Abs  File  De 
    514  .ARM.Collect$$libinit$$00000000
                                    0x0000c1ec   Lc    1  Sect  De   0x2
    515  ../clib/angel/sys.s        0x00000000   Lc  Abs  File  De 
    516  .text                      0x0000c2d0   Lc    1  Sect  De   0x8
    517  .bss                       0x10017edc   Lc    3  Sect  De   0x60
    518  ../clib/angel/kernel.s     0x00000000   Lc  Abs  File  De 
    519  .ARM.Collect$$rtexit$$00000000
                                    0x0000c20a   Lc    1  Sect  De   0x2
    520  ../clib/libinit.s          0x00000000   Lc  Abs  File  De 
    521  .ARM.Collect$$libinit$$00000001
                                    0x0000c1ee   Lc    1  Sect  De   0x4
    522  .ARM.Collect$$libinit$$00000004
                                    0x0000c1f2   Lc    1  Sect  De 
    523  .ARM.Collect$$libinit$$0000000A
                                    0x0000c1f2   Lc    1  Sect  De 
    524  .ARM.Collect$$libinit$$0000000C
                                    0x0000c1f2   Lc    1  Sect  De 
    525  .ARM.Collect$$libinit$$0000000E
                                    0x0000c1f2   Lc    1  Sect  De 
    526  .ARM.Collect$$libinit$$00000011
                                    0x0000c1f2   Lc    1  Sect  De 
    527  .ARM.Collect$$libinit$$00000013
                                    0x0000c1f2   Lc    1  Sect  De 
    528  .ARM.Collect$$libinit$$00000015
                                    0x0000c1f2   Lc    1  Sect  De 
    529  .ARM.Collect$$libinit$$00000017
                                    0x0000c1f2   Lc    1  Sect  De 
    530  .ARM.Collect$$libinit$$00000019
                                    0x0000c1f2   Lc    1  Sect  De 
    531  .ARM.Collect$$libinit$$0000001B
                                    0x0000c1f2   Lc    1  Sect  De 
    532  .ARM.Collect$$libinit$$0000001D
                                    0x0000c1f2   Lc    1  Sect  De 
    533  .ARM.Collect$$libinit$$0000001F
                                    0x0000c1f2   Lc    1  Sect  De 
    534  .ARM.Collect$$libinit$$00000021
                                    0x0000c1f2   Lc    1  Sect  De 
    535  .ARM.Collect$$libinit$$00000023
                                    0x0000c1f2   Lc    1  Sect  De 
    536  .ARM.Collect$$libinit$$00000025
                                    0x0000c1f2   Lc    1  Sect  De 
    537  .ARM.Collect$$libinit$$0000002C
                                    0x0000c1f2   Lc    1  Sect  De 
    538  .ARM.Collect$$libinit$$0000002E
                                    0x0000c1f2   Lc    1  Sect  De 
    539  .ARM.Collect$$libinit$$00000030
                                    0x0000c1f2   Lc    1  Sect  De 
    540  .ARM.Collect$$libinit$$00000032
                                    0x0000c1f2   Lc    1  Sect  De 
    541  .ARM.Collect$$libinit$$00000033
                                    0x0000c1f2   Lc    1  Sect  De   0x2
    542  ../clib/angel/kernel.s     0x00000000   Lc  Abs  File  De 
    543  .ARM.Collect$$rtexit$$00000002
                                    0x0000c20c   Lc    1  Sect  De 
    544  .ARM.Collect$$rtexit$$00000003
                                    0x0000c20c   Lc    1  Sect  De   0x4
    545  .ARM.Collect$$rtexit$$00000004
                                    0x0000c210   Lc    1  Sect  De   0x6
    546  ../clib/armsys.c           0x00000000   Lc  Abs  File  De 
    547  ../clib/armsys.c           0x00000000   Lc  Abs  File  De 
    548  ../fplib/fpinit.s          0x00000000   Lc  Abs  File  De 
    549  x$fpl$fpinit               0x000122f6   Lc    1  Sect  De   0xa
    550  $v0                        0x000122f6   Lc    1   --   De 
    551  ../clib/angel/sysapp.c     0x00000000   Lc  Abs  File  De 
    552  .text                      0x0000c2d8   Lc    1  Sect  De 
    553  ../clib/angel/boardlib.s   0x00000000   Lc  Abs  File  De 
    554  ../clib/armsys.c           0x00000000   Lc  Abs  File  De 
    555  ../clib/armsys.c           0x00000000   Lc  Abs  File  De 
    556  ../clib/libinit.s          0x00000000   Lc  Abs  File  De 
    557  .ARM.Collect$$libshutdown$$00000000
                                    0x0000c1f4   Lc    1  Sect  De   0x2
    558  ../clib/angel/sysapp.c     0x00000000   Lc  Abs  File  De 
    559  ../clib/angel/sys.s        0x00000000   Lc  Abs  File  De 
    560  .text                      0x0000c2e4   Lc    1  Sect  De   0x2
    561  ../clib/angel/sys.s        0x00000000   Lc  Abs  File  De 
    562  .text                      0x0000c2e6   Lc    1  Sect  De 
    563  ../clib/heapalloc.c        0x00000000   Lc  Abs  File  De 
    564  ../clib/signal.c           0x00000000   Lc  Abs  File  De 
    565  ../clib/signal.c           0x00000000   Lc  Abs  File  De 
    566  ../clib/libinit.s          0x00000000   Lc  Abs  File  De 
    567  .ARM.Collect$$libshutdown$$00000002
                                    0x0000c1f6   Lc    1  Sect  De 
    568  .ARM.Collect$$libshutdown$$00000004
                                    0x0000c1f6   Lc    1  Sect  De 
    569  .ARM.Collect$$libshutdown$$00000007
                                    0x0000c1f6   Lc    1  Sect  De 
    570  .ARM.Collect$$libshutdown$$0000000A
                                    0x0000c1f6   Lc    1  Sect  De 
    571  .ARM.Collect$$libshutdown$$0000000C
                                    0x0000c1f6   Lc    1  Sect  De 
    572  .ARM.Collect$$libshutdown$$0000000F
                                    0x0000c1f6   Lc    1  Sect  De 
    573  .ARM.Collect$$libshutdown$$00000010
                                    0x0000c1f6   Lc    1  Sect  De   0x2
    574  ../clib/angel/rt.s         0x00000000   Lc  Abs  File  De 
    575  ../clib/signal.c           0x00000000   Lc  Abs  File  De 
    576  ../clib/signal.c           0x00000000   Lc  Abs  File  De 
    577  ../clib/signal.c           0x00000000   Lc  Abs  File  De 
    578  ../clib/signal.c           0x00000000   Lc  Abs  File  De 
    579  ../clib/angel/sysapp.c     0x00000000   Lc  Abs  File  De 
    580  ../clib/signal.s           0x00000000   Lc  Abs  File  De 
    581  ../clib/signal.c           0x00000000   Lc  Abs  File  De 
    582  ../clib/signal.c           0x00000000   Lc  Abs  File  De 
    583  ../clib/signal.c           0x00000000   Lc  Abs  File  De 
    584  ../clib/signal.c           0x00000000   Lc  Abs  File  De 
    585  ../clib/signal.c           0x00000000   Lc  Abs  File  De 
    586  ../clib/signal.c           0x00000000   Lc  Abs  File  De 
    587  ../clib/signal.c           0x00000000   Lc  Abs  File  De 
    588  ../clib/signal.c           0x00000000   Lc  Abs  File  De 
    589  ../clib/angel/dczerorl2.s  0x00000000   Lc  Abs  File  De 
    590  !!dczerorl2                0x0000c174   Lc    1  Sect  De   0x5a
    591  ../clib/angel/scatter.s    0x00000000   Lc  Abs  File  De 
    592  !!!scatter                 0x0000c140   Lc    1  Sect  De   0x34
    593  ../clib/angel/handlers.s   0x00000000   Lc  Abs  File  De 
    594  !!handler_zi               0x0000c1d0   Lc    1  Sect  De   0x1c
    595  BuildAttributes$$THM_ISAv4$E$P$D$K$B$S$7EM$VFPi3$EXTD16$VFPS$VFMA$PE$A:L22UL41UL21$X:L11$S22US41US21$IEEE1$IW$USESV6$~STKCKD$USESV7$~SHL$OTIME$ROPI$EBA8$UX$STANDARDLIB$REQ8$PRES8$EABIv2
                                    0x00000000   Gb  Abs   --   Hi 
    596  __ARM_use_no_argv          0x00000000   Gb  Abs   --   Hi 
    597  __Vectors                  0x0000c000   Gb    1  Data  Hi 
    598  __Patchable                0x0000c0c8   Gb    1  Data  Hi 
    599  Reset_Handler              0x0000c101   Wk    1  Code  Hi   0x1c
    600  NMI_Handler                0x0000c11f   Wk    1  Code  Hi   0x2
    601  MemManage_Handler          0x0000c121   Wk    1  Code  Hi   0x2
    602  BusFault_Handler           0x0000c123   Wk    1  Code  Hi   0x2
    603  UsageFault_Handler         0x0000c125   Wk    1  Code  Hi   0x2
    604  SecureFault_Handler        0x0000c127   Wk    1  Code  Hi   0x2
    605  SVC_Handler                0x0000c129   Wk    1  Code  Hi   0x2
    606  DebugMon_Handler           0x0000c12b   Wk    1  Code  Hi   0x2
    607  PendSV_Handler             0x0000c12d   Wk    1  Code  Hi   0x2
    608  SysTick_Handler            0x0000c12f   Wk    1  Code  Hi   0x2
    609  am_adc_isr                 0x0000c131   Wk    1  Code  Hi 
    610  am_ble_isr                 0x0000c131   Wk    1  Code  Hi 
    611  am_brownout_isr            0x0000c131   Wk    1  Code  Hi 
    612  am_clkgen_isr              0x0000c131   Wk    1  Code  Hi 
    613  am_gpio_isr                0x0000c131   Wk    1  Code  Hi 
    614  am_iomaster0_isr           0x0000c131   Wk    1  Code  Hi 
    615  am_iomaster1_isr           0x0000c131   Wk    1  Code  Hi 
    616  am_iomaster2_isr           0x0000c131   Wk    1  Code  Hi 
    617  am_iomaster3_isr           0x0000c131   Wk    1  Code  Hi 
    618  am_iomaster4_isr           0x0000c131   Wk    1  Code  Hi 
    619  am_iomaster5_isr           0x0000c131   Wk    1  Code  Hi 
    620  am_ioslave_acc_isr         0x0000c131   Wk    1  Code  Hi 
    621  am_ioslave_ios_isr         0x0000c131   Wk    1  Code  Hi 
    622  am_mspi0_isr               0x0000c131   Wk    1  Code  Hi 
    623  am_mspi2_isr               0x0000c131   Wk    1  Code  Hi 
    624  am_pdm0_isr                0x0000c131   Wk    1  Code  Hi 
    625  am_rtc_isr                 0x0000c131   Wk    1  Code  Hi 
    626  am_scard_isr               0x0000c131   Wk    1  Code  Hi 
    627  am_software0_isr           0x0000c131   Wk    1  Code  Hi 
    628  am_stimer_cmpr0_isr        0x0000c131   Wk    1  Code  Hi 
    629  am_stimer_cmpr1_isr        0x0000c131   Wk    1  Code  Hi 
    630  am_stimer_cmpr2_isr        0x0000c131   Wk    1  Code  Hi 
    631  am_stimer_cmpr3_isr        0x0000c131   Wk    1  Code  Hi 
    632  am_stimer_cmpr4_isr        0x0000c131   Wk    1  Code  Hi 
    633  am_stimer_cmpr5_isr        0x0000c131   Wk    1  Code  Hi 
    634  am_stimer_cmpr6_isr        0x0000c131   Wk    1  Code  Hi 
    635  am_stimer_cmpr7_isr        0x0000c131   Wk    1  Code  Hi 
    636  am_stimer_isr              0x0000c131   Wk    1  Code  Hi 
    637  am_uart0_isr               0x0000c131   Wk    1  Code  Hi 
    638  am_uart1_isr               0x0000c131   Wk    1  Code  Hi 
    639  am_uart_isr                0x0000c131   Wk    1  Code  Hi 
    640  am_vcomp_isr               0x0000c131   Wk    1  Code  Hi 
    641  am_watchdog_isr            0x0000c131   Wk    1  Code  Hi 
    642  __main                     0x0000c139   Gb    1  Code  Hi   0x8
    643  __scatterload              0x0000c141   Gb    1  Code  Hi 
    644  __scatterload_rt2          0x0000c141   Gb    1  Code  Hi   0x2c
    645  __scatterload_rt2_thumb_only
                                    0x0000c141   Gb    1  Code  Hi 
    646  __scatterload_null         0x0000c14f   Gb    1  Code  Hi 
    647  __decompress               0x0000c175   Gb    1  Code  Hi   0x5a
    648  __decompress1              0x0000c175   Gb    1  Code  Hi 
    649  __scatterload_zeroinit     0x0000c1d1   Gb    1  Code  Hi   0x1c
    650  __rt_lib_init              0x0000c1ed   Gb    1  Code  De 
    651  __rt_lib_init_fp_1         0x0000c1ef   Gb    1  Code  Hi 
    652  __rt_lib_init_alloca_1     0x0000c1f3   Gb    1  Code  Hi 
    653  __rt_lib_init_argv_1       0x0000c1f3   Gb    1  Code  Hi 
    654  __rt_lib_init_atexit_1     0x0000c1f3   Gb    1  Code  Hi 
    655  __rt_lib_init_clock_1      0x0000c1f3   Gb    1  Code  Hi 
    656  __rt_lib_init_cpp_1        0x0000c1f3   Gb    1  Code  Hi 
    657  __rt_lib_init_exceptions_1 0x0000c1f3   Gb    1  Code  Hi 
    658  __rt_lib_init_fp_trap_1    0x0000c1f3   Gb    1  Code  Hi 
    659  __rt_lib_init_getenv_1     0x0000c1f3   Gb    1  Code  Hi 
    660  __rt_lib_init_heap_1       0x0000c1f3   Gb    1  Code  Hi 
    661  __rt_lib_init_lc_collate_1 0x0000c1f3   Gb    1  Code  Hi 
    662  __rt_lib_init_lc_ctype_1   0x0000c1f3   Gb    1  Code  Hi 
    663  __rt_lib_init_lc_monetary_1
                                    0x0000c1f3   Gb    1  Code  Hi 
    664  __rt_lib_init_lc_numeric_1 0x0000c1f3   Gb    1  Code  Hi 
    665  __rt_lib_init_lc_time_1    0x0000c1f3   Gb    1  Code  Hi 
    666  __rt_lib_init_preinit_1    0x0000c1f3   Gb    1  Code  Hi 
    667  __rt_lib_init_rand_1       0x0000c1f3   Gb    1  Code  Hi 
    668  __rt_lib_init_return       0x0000c1f3   Gb    1  Code  Hi 
    669  __rt_lib_init_signal_1     0x0000c1f3   Gb    1  Code  Hi 
    670  __rt_lib_init_stdio_1      0x0000c1f3   Gb    1  Code  Hi 
    671  __rt_lib_init_user_alloc_1 0x0000c1f3   Gb    1  Code  Hi 
    672  __rt_lib_shutdown          0x0000c1f5   Gb    1  Code  De 
    673  __rt_lib_shutdown_cpp_1    0x0000c1f7   Gb    1  Code  Hi 
    674  __rt_lib_shutdown_fp_trap_1
                                    0x0000c1f7   Gb    1  Code  Hi 
    675  __rt_lib_shutdown_heap_1   0x0000c1f7   Gb    1  Code  Hi 
    676  __rt_lib_shutdown_return   0x0000c1f7   Gb    1  Code  Hi 
    677  __rt_lib_shutdown_signal_1 0x0000c1f7   Gb    1  Code  Hi 
    678  __rt_lib_shutdown_stdio_1  0x0000c1f7   Gb    1  Code  Hi 
    679  __rt_lib_shutdown_user_alloc_1
                                    0x0000c1f7   Gb    1  Code  Hi 
    680  __rt_entry                 0x0000c1f9   Gb    1  Code  Hi 
    681  __rt_entry_presh_1         0x0000c1f9   Gb    1  Code  Hi 
    682  __rt_entry_sh              0x0000c1f9   Gb    1  Code  Hi 
    683  __rt_entry_li              0x0000c1ff   Gb    1  Code  Hi 
    684  __rt_entry_postsh_1        0x0000c1ff   Gb    1  Code  Hi 
    685  __rt_entry_main            0x0000c203   Gb    1  Code  Hi 
    686  __rt_entry_postli_1        0x0000c203   Gb    1  Code  Hi 
    687  __rt_exit                  0x0000c20b   Gb    1  Code  De 
    688  __rt_exit_ls               0x0000c20d   Gb    1  Code  Hi 
    689  __rt_exit_prels_1          0x0000c20d   Gb    1  Code  Hi 
    690  __rt_exit_exit             0x0000c211   Gb    1  Code  Hi 
    691  HardFault_Handler          0x0000c219   Gb    1  Code  Hi   0x1a
    692  getStackedReg              0x0000c233   Gb    1  Code  Hi   0x8
    693  am_hal_interrupt_master_enable
                                    0x0000c23d   Gb    1  Code  Hi   0x8
    694  am_hal_interrupt_master_disable
                                    0x0000c245   Gb    1  Code  Hi   0x8
    695  am_hal_interrupt_master_set
                                    0x0000c24d   Gb    1  Code  Hi   0x6
    696  __user_initial_stackheap   0x0000c255   Gb    1  Code  Hi   0xa
    697  __use_two_region_memory    0x0000c26d   Gb    1  Code  Hi   0x2
    698  __rt_heap_escrow$2region   0x0000c26f   Gb    1  Code  De   0x2
    699  __rt_heap_expand$2region   0x0000c271   Gb    1  Code  De   0x2
    700  __user_setup_stackheap     0x0000c273   Gb    1  Code  De   0x4a
    701  exit                       0x0000c2bd   Gb    1  Code  De   0x12
    702  __user_libspace            0x0000c2d1   Wk    1  Code  De   0x8
    703  __user_perproc_libspace    0x0000c2d1   Wk    1  Code  De 
    704  __user_perthread_libspace  0x0000c2d1   Wk    1  Code  De 
    705  _sys_exit                  0x0000c2d9   Gb    1  Code  De   0x8
    706  __I$use$semihosting        0x0000c2e5   Gb    1  Code  Hi 
    707  __use_no_semihosting_swi   0x0000c2e5   Gb    1  Code  Hi   0x2
    708  __semihosting_library_function
                                    0x0000c2e7   Gb    1  Code  Hi 
    709  am_bsp_itm_printf_enable   0x0000c521   Gb    1  Code  Hi   0x2c
    710  am_bsp_low_power_init      0x0000c55d   Gb    1  Code  Hi   0x3a
    711  am_bsp_mspi_pins_enable    0x0000c5a1   Gb    1  Code  Hi   0x3e6
    712  am_ctimer_isr              0x0000ca65   Gb    1  Code  Hi   0x18
    713  am_devices_mspi_psram_enable_xip
                                    0x0000cb19   Gb    1  Code  Hi   0x14
    714  am_devices_mspi_psram_init 0x0000cb2d   Gb    1  Code  Hi   0x378
    715  am_devices_mspi_psram_read 0x0000cf85   Gb    1  Code  Hi   0x72
    716  am_devices_mspi_psram_write
                                    0x0000d001   Gb    1  Code  Hi   0x72
    717  am_hal_cachectrl_config    0x0000d07d   Gb    1  Code  Hi   0x46
    718  am_hal_cachectrl_control   0x0000d0c9   Gb    1  Code  Hi   0x3a4
    719  am_hal_cachectrl_enable    0x0000d475   Gb    1  Code  Hi   0xe
    720  am_hal_clkgen_control      0x0000d489   Gb    1  Code  Hi   0xec
    721  am_hal_clkgen_status_get   0x0000d585   Gb    1  Code  Hi   0x2c
    722  am_hal_cmdq_alloc_block    0x0000d5b9   Gb    1  Code  Hi   0xc8
    723  am_hal_cmdq_disable        0x0000d685   Gb    1  Code  Hi   0x3c
    724  am_hal_cmdq_enable         0x0000d6c5   Gb    1  Code  Hi   0x3c
    725  am_hal_cmdq_error_resume   0x0000d705   Gb    1  Code  Hi   0x70
    726  am_hal_cmdq_get_status     0x0000d779   Gb    1  Code  Hi   0x9e
    727  am_hal_cmdq_init           0x0000d81d   Gb    1  Code  Hi   0xe2
    728  am_hal_cmdq_post_block     0x0000d90d   Gb    1  Code  Hi   0x48
    729  am_hal_cmdq_post_loop_block
                                    0x0000d959   Gb    1  Code  Hi   0x56
    730  am_hal_cmdq_release_block  0x0000d9b5   Gb    1  Code  Hi   0x32
    731  am_hal_cmdq_reset          0x0000d9ed   Gb    1  Code  Hi   0x5e
    732  am_hal_cmdq_term           0x0000da51   Gb    1  Code  Hi   0x84
    733  am_hal_ctimer_clear        0x0000dad9   Gb    1  Code  Hi   0x24
    734  am_hal_ctimer_config       0x0000db01   Gb    1  Code  Hi   0x6e
    735  am_hal_ctimer_int_clear    0x0000db79   Gb    1  Code  Hi   0x1a
    736  am_hal_ctimer_int_disable  0x0000db99   Gb    1  Code  Hi   0x20
    737  am_hal_ctimer_int_enable   0x0000dbbd   Gb    1  Code  Hi   0x20
    738  am_hal_ctimer_int_register 0x0000dbe1   Gb    1  Code  Hi   0x166
    739  am_hal_ctimer_int_service  0x0000dd85   Gb    1  Code  Hi   0x2e
    740  am_hal_ctimer_int_status_get
                                    0x0000ddb9   Gb    1  Code  Hi   0x2c
    741  am_hal_ctimer_period_set   0x0000dde9   Gb    1  Code  Hi   0x72
    742  am_hal_ctimer_start        0x0000de65   Gb    1  Code  Hi   0x46
    743  am_hal_ctimer_stop         0x0000deb5   Gb    1  Code  Hi   0x24
    744  am_hal_debug_error         0x0000dedd   Wk    1  Code  Hi   0x2
    745  am_hal_flash_delay         0x0000dee1   Gb    1  Code  Hi   0x1e
    746  am_hal_flash_delay_status_check
                                    0x0000df05   Gb    1  Code  Hi   0x56
    747  am_hal_flash_load_ui32     0x0000df61   Gb    1  Code  Hi   0x4
    748  am_hal_flash_store_ui32    0x0000df69   Gb    1  Code  Hi   0x24
    749  am_hal_gpio_pinconfig      0x0000df91   Gb    1  Code  Hi   0x24a
    750  am_hal_gpio_state_write    0x0000e211   Gb    1  Code  Hi   0x80
    751  am_hal_itm_enable          0x0000e291   Gb    1  Code  Hi   0x2c
    752  am_hal_itm_print           0x0000e2d9   Gb    1  Code  Hi   0x30
    753  am_hal_mcuctrl_control     0x0000e309   Gb    1  Code  Hi   0x14e
    754  am_hal_mcuctrl_info_get    0x0000e45d   Gb    1  Code  Hi   0x116
    755  am_hal_mspi_blocking_transfer
                                    0x0000e595   Gb    1  Code  Hi   0x238
    756  am_hal_mspi_control        0x0000e7dd   Gb    1  Code  Hi   0x8cc
    757  am_hal_mspi_device_configure
                                    0x0000f0a9   Gb    1  Code  Hi   0x254
    758  am_hal_mspi_disable        0x0000f30d   Gb    1  Code  Hi   0x62
    759  am_hal_mspi_enable         0x0000f379   Gb    1  Code  Hi   0x9a
    760  am_hal_mspi_highprio_transfer
                                    0x0000f421   Gb    1  Code  Hi   0xe4
    761  am_hal_mspi_initialize     0x0000f509   Gb    1  Code  Hi   0x48
    762  am_hal_mspi_interrupt_clear
                                    0x0000f559   Gb    1  Code  Hi   0x2e
    763  am_hal_mspi_interrupt_enable
                                    0x0000f58d   Gb    1  Code  Hi   0x34
    764  am_hal_mspi_interrupt_service
                                    0x0000f5c5   Gb    1  Code  Hi   0x292
    765  am_hal_mspi_interrupt_status_get
                                    0x0000f861   Gb    1  Code  Hi   0x42
    766  am_hal_mspi_nonblocking_transfer
                                    0x0000f8a9   Gb    1  Code  Hi   0x174
    767  am_hal_mspi_power_control  0x0000fa25   Gb    1  Code  Hi   0x2ec
    768  am_hal_pwrctrl_low_power_init
                                    0x0000fd15   Gb    1  Code  Hi   0x148
    769  am_hal_pwrctrl_periph_disable
                                    0x0000fe75   Gb    1  Code  Hi   0x46
    770  am_hal_pwrctrl_periph_enable
                                    0x0000fec5   Gb    1  Code  Hi   0x48
    771  am_hal_rtc_osc_disable     0x0000ff15   Gb    1  Code  Hi   0x12
    772  am_hal_tpiu_enable         0x0000ff29   Gb    1  Code  Hi   0x7a
    773  am_mspi1_isr               0x0000ffb9   Gb    1  Code  Hi   0x20
    774  am_util_delay_us           0x0000ffdd   Gb    1  Code  Hi   0x1e
    775  am_util_faultisr_collect_data
                                    0x00010001   Gb    1  Code  Hi   0xaa
    776  am_util_stdio_printf       0x000100b5   Gb    1  Code  Hi   0x2c
    777  am_util_stdio_printf_init  0x000100e9   Gb    1  Code  Hi   0x6
    778  am_util_stdio_terminal_clear
                                    0x000100f5   Gb    1  Code  Hi   0x20
    779  am_util_stdio_vsprintf     0x00010131   Gb    1  Code  Hi   0x734
    780  build_dma_cmdlist          0x00010871   Gb    1  Code  Hi   0x194
    781  flush_mspi_psram_data      0x00010a29   Gb    1  Code  Hi   0x11a
    782  main                       0x00010bd9   Gb    1  Code  Hi   0x6a6
    783  mspi_psram_init            0x000116e9   Gb    1  Code  Hi   0x22
    784  mspi_xip_init              0x00011775   Gb    1  Code  Hi   0x62
    785  pfnMSPI_PSRAM_Callback     0x00011993   Gb    1  Code  Hi   0x6
    786  prime_number               0x00011999   Gb    1  Code  Hi   0x3c
    787  __aeabi_d2f                0x00011d05   Gb    1  Code  Hi 
    788  _d2f                       0x00011d05   Gb    1  Code  De   0x62
    789  __aeabi_ddiv               0x00011d69   Gb    1  Code  Hi 
    790  _ddiv                      0x00011d69   Gb    1  Code  De   0x228
    791  __aeabi_dmul               0x00012019   Gb    1  Code  Hi 
    792  _dmul                      0x00012019   Gb    1  Code  De   0x14c
    793  __fpl_dnaninf              0x0001216d   Gb    1  Code  De   0x9c
    794  __fpl_dretinf              0x00012209   Gb    1  Code  De   0xc
    795  __aeabi_f2d                0x00012215   Gb    1  Code  Hi 
    796  _f2d                       0x00012215   Gb    1  Code  De   0x56
    797  __fpl_fnaninf              0x0001226b   Gb    1  Code  De   0x8c
    798  _fp_init                   0x000122f7   Gb    1  Code  De   0xa
    799  __fplib_config_fpu_vfp     0x000122ff   Gb    1  Code  De 
    800  __fplib_config_pureend_doubles
                                    0x000122ff   Gb    1  Code  De 
    801  __fpl_fretinf              0x00012301   Gb    1  Code  De   0xa
    802  __I$use$fp                 0x0001230a   Gb    1   --   De 
    803  cache_monitor_cachectrl    0x0001230a   Gb    1  Data  Hi   0x3
    804  Kc_PRIME_MPI               0x0001230d   Gb    1  Data  Hi   0x62
    805  g_ui8HALcompiler           0x0001236f   Gb    1  Data  Hi   0xe
    806  g_ui32HALversion           0x00012380   Gb    1  Data  Hi   0x4
    807  g_am_hal_mcuctrl_flash_size
                                    0x00012390   Gb    1  Data  Hi   0x40
    808  g_am_hal_mcuctrl_sram_size 0x000123d0   Gb    1  Data  Hi   0x40
    809  g_AM_HAL_GPIO_DISABLE      0x000125a0   Gb    1  Data  Hi   0x4
    810  g_AM_HAL_GPIO_OUTPUT       0x000127ac   Gb    1  Data  Hi   0x4
    811  am_hal_pwrctrl_peripheral_control
                                    0x000127b0   Gb    1  Data  Hi   0xcc
    812  am_hal_pwrctrl_memory_control
                                    0x0001287c   Gb    1  Data  Hi   0x1b0
    813  g_AM_BSP_GPIO_MSPI0_CE0    0x00012a2c   Gb    1  Data  Hi   0x4
    814  g_AM_BSP_GPIO_MSPI0_CE1    0x00012a30   Gb    1  Data  Hi   0x4
    815  g_AM_BSP_GPIO_MSPI0_D0     0x00012a34   Gb    1  Data  Hi   0x4
    816  g_AM_BSP_GPIO_MSPI0_D1     0x00012a38   Gb    1  Data  Hi   0x4
    817  g_AM_BSP_GPIO_MSPI0_D2     0x00012a3c   Gb    1  Data  Hi   0x4
    818  g_AM_BSP_GPIO_MSPI0_D3     0x00012a40   Gb    1  Data  Hi   0x4
    819  g_AM_BSP_GPIO_MSPI0_SCK    0x00012a44   Gb    1  Data  Hi   0x4
    820  g_AM_BSP_GPIO_MSPI1_CE0    0x00012a48   Gb    1  Data  Hi   0x4
    821  g_AM_BSP_GPIO_MSPI1_CE1    0x00012a4c   Gb    1  Data  Hi   0x4
    822  g_AM_BSP_GPIO_MSPI1_D0     0x00012a50   Gb    1  Data  Hi   0x4
    823  g_AM_BSP_GPIO_MSPI1_D1     0x00012a54   Gb    1  Data  Hi   0x4
    824  g_AM_BSP_GPIO_MSPI1_D2     0x00012a58   Gb    1  Data  Hi   0x4
    825  g_AM_BSP_GPIO_MSPI1_D3     0x00012a5c   Gb    1  Data  Hi   0x4
    826  g_AM_BSP_GPIO_MSPI1_D4     0x00012a60   Gb    1  Data  Hi   0x4
    827  g_AM_BSP_GPIO_MSPI1_D5     0x00012a64   Gb    1  Data  Hi   0x4
    828  g_AM_BSP_GPIO_MSPI1_D6     0x00012a68   Gb    1  Data  Hi   0x4
    829  g_AM_BSP_GPIO_MSPI1_D7     0x00012a6c   Gb    1  Data  Hi   0x4
    830  g_AM_BSP_GPIO_MSPI1_SCK    0x00012a70   Gb    1  Data  Hi   0x4
    831  g_AM_BSP_GPIO_MSPI1_DMDQS  0x00012a74   Gb    1  Data  Hi   0x4
    832  g_AM_BSP_GPIO_MSPI2_CE0    0x00012a78   Gb    1  Data  Hi   0x4
    833  g_AM_BSP_GPIO_MSPI2_CE1    0x00012a7c   Gb    1  Data  Hi   0x4
    834  g_AM_BSP_GPIO_MSPI2_D0     0x00012a80   Gb    1  Data  Hi   0x4
    835  g_AM_BSP_GPIO_MSPI2_D1     0x00012a84   Gb    1  Data  Hi   0x4
    836  g_AM_BSP_GPIO_MSPI2_D2     0x00012a88   Gb    1  Data  Hi   0x4
    837  g_AM_BSP_GPIO_MSPI2_D3     0x00012a8c   Gb    1  Data  Hi   0x4
    838  g_AM_BSP_GPIO_MSPI2_SCK    0x00012a90   Gb    1  Data  Hi   0x4
    839  g_AM_BSP_GPIO_ITM_SWO      0x00012a94   Gb    1  Data  Hi   0x4
    840  g_AM_BSP_GPIO_DSPL0_CE0    0x00012a98   Gb    1  Data  Hi   0x4
    841  g_AM_BSP_GPIO_DSPL0_D0     0x00012a9c   Gb    1  Data  Hi   0x4
    842  g_AM_BSP_GPIO_DSPL0_D1     0x00012aa0   Gb    1  Data  Hi   0x4
    843  g_AM_BSP_GPIO_DSPL0_D2     0x00012aa4   Gb    1  Data  Hi   0x4
    844  g_AM_BSP_GPIO_DSPL0_D3     0x00012aa8   Gb    1  Data  Hi   0x4
    845  g_AM_BSP_GPIO_DSPL0_SCK    0x00012aac   Gb    1  Data  Hi   0x4
    846  g_AM_BSP_GPIO_PSRAM_CE0    0x00012ab0   Gb    1  Data  Hi   0x4
    847  g_AM_BSP_GPIO_PSRAM_D0     0x00012ab4   Gb    1  Data  Hi   0x4
    848  g_AM_BSP_GPIO_PSRAM_D1     0x00012ab8   Gb    1  Data  Hi   0x4
    849  g_AM_BSP_GPIO_PSRAM_D2     0x00012abc   Gb    1  Data  Hi   0x4
    850  g_AM_BSP_GPIO_PSRAM_D3     0x00012ac0   Gb    1  Data  Hi   0x4
    851  g_AM_BSP_GPIO_PSRAM_SCK    0x00012ac4   Gb    1  Data  Hi   0x4
    852  g_AM_BSP_GPIO_FLASH0_CE0   0x00012ac8   Gb    1  Data  Hi   0x4
    853  g_AM_BSP_GPIO_FLASH0_D0    0x00012acc   Gb    1  Data  Hi   0x4
    854  g_AM_BSP_GPIO_FLASH0_D1    0x00012ad0   Gb    1  Data  Hi   0x4
    855  g_AM_BSP_GPIO_FLASH0_D2    0x00012ad4   Gb    1  Data  Hi   0x4
    856  g_AM_BSP_GPIO_FLASH0_D3    0x00012ad8   Gb    1  Data  Hi   0x4
    857  g_AM_BSP_GPIO_FLASH0_SCK   0x00012adc   Gb    1  Data  Hi   0x4
    858  g_AM_BSP_GPIO_FLASH1_CE0   0x00012ae0   Gb    1  Data  Hi   0x4
    859  g_AM_BSP_GPIO_FLASH1_D0    0x00012ae4   Gb    1  Data  Hi   0x4
    860  g_AM_BSP_GPIO_FLASH1_D1    0x00012ae8   Gb    1  Data  Hi   0x4
    861  g_AM_BSP_GPIO_FLASH1_D2    0x00012aec   Gb    1  Data  Hi   0x4
    862  g_AM_BSP_GPIO_FLASH1_D3    0x00012af0   Gb    1  Data  Hi   0x4
    863  g_AM_BSP_GPIO_FLASH1_D4    0x00012af4   Gb    1  Data  Hi   0x4
    864  g_AM_BSP_GPIO_FLASH1_D5    0x00012af8   Gb    1  Data  Hi   0x4
    865  g_AM_BSP_GPIO_FLASH1_D6    0x00012afc   Gb    1  Data  Hi   0x4
    866  g_AM_BSP_GPIO_FLASH1_D7    0x00012b00   Gb    1  Data  Hi   0x4
    867  g_AM_BSP_GPIO_FLASH1_SCK   0x00012b04   Gb    1  Data  Hi   0x4
    868  g_AM_BSP_GPIO_FLASH1_DS    0x00012b08   Gb    1  Data  Hi   0x4
    869  Region$$Table$$Base        0x00012b0c   Gb    1   --   Hi 
    870  Region$$Table$$Limit       0x00012b3c   Gb    1   --   Hi 
    871  g_ui32CurData              0x10011000   Gb    2  Data  Hi   0x4
    872  g_iteration                0x10011004   Gb    2  Data  Hi   0x4
    873  g_data_size                0x10011008   Gb    2  Data  Hi   0x4
    874  g_hit_rate                 0x1001100c   Gb    2  Data  Hi   0x4
    875  g_cache_miss               0x10011010   Gb    2  Data  Hi   0x4
    876  g_MSPIDevHdl               0x10011014   Gb    2  Data  Hi   0x4
    877  g_MSPIHdl                  0x10011018   Gb    2  Data  Hi   0x4
    878  g_prime_num                0x1001101c   Gb    2  Data  Hi   0x28
    879  g_exp_prime                0x10011044   Gb    2  Data  Hi   0x28
    880  MSPI_PSRAM_QuadCE0MSPIConfig
                                    0x1001106c   Gb    2  Data  Hi   0x14
    881  SerialCE0MSPIConfig        0x1001108c   Gb    2  Data  Hi   0x24
    882  SerialCE1MSPIConfig        0x100110b0   Gb    2  Data  Hi   0x24
    883  QuadCE0MSPIConfig          0x100110d4   Gb    2  Data  Hi   0x24
    884  QuadCE1MSPIConfig          0x100110f8   Gb    2  Data  Hi   0x24
    885  g_pfnCharPrint             0x10011120   Gb    2  Data  Hi   0x4
    886  g_ui32HALflags             0x10011124   Gb    2  Data  Hi   0x4
    887  am_bsp_psLEDs              0x10011140   Gb    2  Data  Hi   0x28
    888  g_bSimobuckTrimsDone       0x10011190   Gb    2  Data  Hi   0x1
    889  gAmHalResetStatus          0x10011194   Gb    2  Data  Hi   0x4
    890  g_DMON                     0x10011198   Gb    3  Data  Hi   0x10
    891  g_IMON                     0x100111a8   Gb    3  Data  Hi   0x10
    892  g_TempBuf                  0x100111b8   Gb    3  Data  Hi   0x800
    893  DMATCBBuffer               0x100119b8   Gb    3  Data  Hi   0x4000
    894  gAmPsram                   0x100159b8   Gb    3  Data  Hi   0x18
    895  g_MSPIState                0x10015b50   Gb    3  Data  Hi   0x19d4
    896  __libspace_start           0x10017edc   Gb    3  Data  De   0x60
    897  __temporary_stack_top$libspace
                                    0x10017f3c   Gb    3  Data  De 


** Section #13 '.strtab' (SHT_STRTAB)
    Size   : 12236 bytes

            #  Offset String
        ====================================

            1      1: $d
            2      4: $t
            3      7: $d.realdata
            4     19: ..\src\cache_monitor.c
            5     42: ../src/cache_monitor.c
            6     65: i.XIP_handler
            7     79: XIP_handler
            8     91: i.am_ctimer_isr
            9    107: i.am_mspi1_isr
           10    122: i.flush_mspi_psram_data
           11    146: i.main
           12    153: i.mspi_psram_init
           13    171: i.mspi_xip_init
           14    187: .bss
           15    192: .constdata
           16    203: .data
           17    209: g_sTimer
           18    218: ../../../../../third_party/prime_mpi/src/prime_mpi.c
           19    271: i.prime_number
           20    286: ..\..\..\..\..\devices\am_devices_mspi_psram_aps6404l.c
           21    342: ../../../../../devices/am_devices_mspi_psram_aps6404l.c
           22    398: i.am_devices_mspi_psram_aps6404l_reset
           23    437: am_devices_mspi_psram_aps6404l_reset
           24    474: i.am_devices_mspi_psram_enable_xip
           25    509: i.am_devices_mspi_psram_init
           26    538: i.am_devices_mspi_psram_read
           27    567: i.am_devices_mspi_psram_write
           28    597: i.pfnMSPI_PSRAM_Callback
           29    622: i.psram_nonblocking_transfer
           30    651: psram_nonblocking_transfer
           31    678: ..\..\..\..\..\utils\am_util_delay.c
           32    715: ../../../../../utils/am_util_delay.c
           33    752: i.am_util_delay_us
           34    771: ..\..\..\..\..\utils\am_util_faultisr.c
           35    811: .emb_text
           36    821: $v0
           37    825: ../../../../../utils/am_util_faultisr.c
           38    865: i.am_util_faultisr_collect_data
           39    897: ../../../../../utils/am_util_stdio.c
           40    934: i.am_util_stdio_printf
           41    957: i.am_util_stdio_printf_init
           42    985: i.am_util_stdio_terminal_clear
           43   1016: i.am_util_stdio_vsprintf
           44   1041: i.ndigits_in_u64
           45   1058: ndigits_in_u64
           46   1073: i.uint64_to_str
           47   1089: uint64_to_str
           48   1103: g_prfbuf
           49   1112: g_bTxtXlate
           50   1124: ../keil/startup_keil.s
           51   1147: STACK
           52   1153: StackMem
           53   1162: HEAP
           54   1167: HeapMem
           55   1175: RESET
           56   1181: .text
           57   1187: ..\am_hal_global.c
           58   1206: ../am_hal_global.c
           59   1225: ..\am_hal_cachectrl.c
           60   1247: ../am_hal_cachectrl.c
           61   1269: i.am_hal_cachectrl_config
           62   1295: i.am_hal_cachectrl_control
           63   1322: i.am_hal_cachectrl_enable
           64   1348: ..\am_hal_clkgen.c
           65   1367: ../am_hal_clkgen.c
           66   1386: i.am_hal_clkgen_control
           67   1410: i.am_hal_clkgen_status_get
           68   1437: ..\am_hal_ctimer.c
           69   1456: ../am_hal_ctimer.c
           70   1475: i.am_hal_ctimer_clear
           71   1497: i.am_hal_ctimer_config
           72   1520: i.am_hal_ctimer_int_clear
           73   1546: i.am_hal_ctimer_int_disable
           74   1574: i.am_hal_ctimer_int_enable
           75   1601: i.am_hal_ctimer_int_register
           76   1630: i.am_hal_ctimer_int_service
           77   1658: i.am_hal_ctimer_int_status_get
           78   1689: i.am_hal_ctimer_period_set
           79   1716: i.am_hal_ctimer_start
           80   1738: i.am_hal_ctimer_stop
           81   1759: g_am_hal_ctimer_ppfnHandlers
           82   1788: g_ui8ClkSrc
           83   1800: ..\am_hal_flash.c
           84   1818: ../am_hal_flash.c
           85   1836: i.am_hal_flash_delay
           86   1857: i.am_hal_flash_delay_status_check
           87   1891: i.am_hal_flash_load_ui32
           88   1916: i.am_hal_flash_store_ui32
           89   1942: ..\am_hal_interrupt.c
           90   1964: ../am_hal_interrupt.c
           91   1986: ..\am_hal_mcuctrl.c
           92   2006: ../am_hal_mcuctrl.c
           93   2026: i.am_hal_mcuctrl_control
           94   2051: i.am_hal_mcuctrl_info_get
           95   2077: ..\am_hal_mspi.c
           96   2094: ../am_hal_mspi.c
           97   2111: i.am_hal_mspi_blocking_transfer
           98   2143: i.am_hal_mspi_control
           99   2165: i.am_hal_mspi_device_configure
          100   2196: i.am_hal_mspi_disable
          101   2218: i.am_hal_mspi_enable
          102   2239: i.am_hal_mspi_highprio_transfer
          103   2271: i.am_hal_mspi_initialize
          104   2296: i.am_hal_mspi_interrupt_clear
          105   2326: i.am_hal_mspi_interrupt_enable
          106   2357: i.am_hal_mspi_interrupt_service
          107   2389: i.am_hal_mspi_interrupt_status_get
          108   2424: i.am_hal_mspi_nonblocking_transfer
          109   2459: i.am_hal_mspi_power_control
          110   2487: i.build_dma_cmdlist
          111   2507: i.mspi_device_configure
          112   2531: mspi_device_configure
          113   2553: i.mspi_dummy_callback
          114   2575: mspi_dummy_callback
          115   2595: i.mspi_seq_loopback
          116   2615: mspi_seq_loopback
          117   2633: i.sched_hiprio
          118   2648: sched_hiprio
          119   2661: ..\am_bsp.c
          120   2673: ../am_bsp.c
          121   2685: i.am_bsp_itm_printf_enable
          122   2712: i.am_bsp_low_power_init
          123   2736: i.am_bsp_mspi_pins_enable
          124   2762: pui8UartTxBuffer
          125   2779: pui8UartRxBuffer
          126   2796: g_ui32PrintInterface
          127   2817: g_sCOMUART
          128   2828: g_sBspUartBufferedConfig
          129   2853: ..\am_hal_cmdq.c
          130   2870: ../am_hal_cmdq.c
          131   2887: i.am_hal_cmdq_alloc_block
          132   2913: i.am_hal_cmdq_disable
          133   2935: i.am_hal_cmdq_enable
          134   2956: i.am_hal_cmdq_error_resume
          135   2983: i.am_hal_cmdq_get_status
          136   3008: i.am_hal_cmdq_init
          137   3027: i.am_hal_cmdq_post_block
          138   3052: i.am_hal_cmdq_post_loop_block
          139   3082: i.am_hal_cmdq_release_block
          140   3110: i.am_hal_cmdq_reset
          141   3130: i.am_hal_cmdq_term
          142   3149: gAmHalCmdq
          143   3160: gAmHalCmdQReg
          144   3174: ..\am_hal_debug.c
          145   3192: ../am_hal_debug.c
          146   3210: i.am_hal_debug_error
          147   3231: ..\am_hal_gpio.c
          148   3248: ../am_hal_gpio.c
          149   3265: i.am_hal_gpio_pinconfig
          150   3289: i.am_hal_gpio_state_write
          151   3315: g_ui8Inpen
          152   3326: g_ui8Bit76Capabilities
          153   3349: g_ui8nCEpins
          154   3362: g_ui8NCEtable
          155   3376: ..\am_hal_itm.c
          156   3392: ../am_hal_itm.c
          157   3408: i.am_hal_itm_enable
          158   3428: i.am_hal_itm_print
          159   3447: ..\am_hal_pwrctrl.c
          160   3467: ../am_hal_pwrctrl.c
          161   3487: i.am_hal_pwrctrl_low_power_init
          162   3519: i.am_hal_pwrctrl_periph_disable
          163   3551: i.am_hal_pwrctrl_periph_enable
          164   3582: ..\am_hal_reset.c
          165   3600: ../am_hal_reset.c
          166   3618: ..\am_hal_rtc.c
          167   3634: ../am_hal_rtc.c
          168   3650: i.am_hal_rtc_osc_disable
          169   3675: ..\am_hal_tpiu.c
          170   3692: ../am_hal_tpiu.c
          171   3709: i.am_hal_tpiu_enable
          172   3730: ..\am_hal_uart.c
          173   3747: ../am_hal_uart.c
          174   3764: ..\am_bsp_pins.c
          175   3781: ../am_bsp_pins.c
          176   3798: ..\am_hal_queue.c
          177   3816: ../am_hal_queue.c
          178   3834: dc.s
          179   3839: ../clib/longlong.s
          180   3858: ../clib/heapaux.c
          181   3876: ../clib/angel/startup.s
          182   3900: !!!main
          183   3908: ../fplib/d2f.s
          184   3923: x$fpl$d2f
          185   3933: ../fplib/ddiv.s
          186   3949: x$fpl$ddiv
          187   3960: ddiv_entry
          188   3971: ../fplib/dmul.s
          189   3987: x$fpl$dmul
          190   3998: ../fplib/f2d.s
          191   4013: x$fpl$f2d
          192   4023: ../clib/angel/kernel.s
          193   4046: .ARM.Collect$$rtentry$$00000000
          194   4078: ../fplib/dnaninf.s
          195   4097: x$fpl$dnaninf
          196   4111: ../fplib/dretinf.s
          197   4130: x$fpl$dretinf
          198   4144: ../fplib/fnaninf.s
          199   4163: x$fpl$fnaninf
          200   4177: ../fplib/fretinf.s
          201   4196: x$fpl$fretinf
          202   4210: ../fplib/usenofp.s
          203   4229: x$fpl$usenofp
          204   4243: .ARM.Collect$$rtentry$$00000002
          205   4275: .ARM.Collect$$rtentry$$00000009
          206   4307: .ARM.Collect$$rtentry$$0000000A
          207   4339: .ARM.Collect$$rtentry$$0000000C
          208   4371: .ARM.Collect$$rtentry$$0000000D
          209   4403: .ARM.Collect$$rtentry$$00000004
          210   4435: ../clib/angel/sys.s
          211   4455: ../clib/stdlib.c
          212   4472: ../clib/angel/boardlib.s
          213   4497: ../clib/libinit.s
          214   4515: .ARM.Collect$$libinit$$00000000
          215   4547: .ARM.Collect$$rtexit$$00000000
          216   4578: .ARM.Collect$$libinit$$00000001
          217   4610: .ARM.Collect$$libinit$$00000004
          218   4642: .ARM.Collect$$libinit$$0000000A
          219   4674: .ARM.Collect$$libinit$$0000000C
          220   4706: .ARM.Collect$$libinit$$0000000E
          221   4738: .ARM.Collect$$libinit$$00000011
          222   4770: .ARM.Collect$$libinit$$00000013
          223   4802: .ARM.Collect$$libinit$$00000015
          224   4834: .ARM.Collect$$libinit$$00000017
          225   4866: .ARM.Collect$$libinit$$00000019
          226   4898: .ARM.Collect$$libinit$$0000001B
          227   4930: .ARM.Collect$$libinit$$0000001D
          228   4962: .ARM.Collect$$libinit$$0000001F
          229   4994: .ARM.Collect$$libinit$$00000021
          230   5026: .ARM.Collect$$libinit$$00000023
          231   5058: .ARM.Collect$$libinit$$00000025
          232   5090: .ARM.Collect$$libinit$$0000002C
          233   5122: .ARM.Collect$$libinit$$0000002E
          234   5154: .ARM.Collect$$libinit$$00000030
          235   5186: .ARM.Collect$$libinit$$00000032
          236   5218: .ARM.Collect$$libinit$$00000033
          237   5250: .ARM.Collect$$rtexit$$00000002
          238   5281: .ARM.Collect$$rtexit$$00000003
          239   5312: .ARM.Collect$$rtexit$$00000004
          240   5343: ../clib/armsys.c
          241   5360: ../fplib/fpinit.s
          242   5378: x$fpl$fpinit
          243   5391: ../clib/angel/sysapp.c
          244   5414: .ARM.Collect$$libshutdown$$00000000
          245   5450: ../clib/heapalloc.c
          246   5470: ../clib/signal.c
          247   5487: .ARM.Collect$$libshutdown$$00000002
          248   5523: .ARM.Collect$$libshutdown$$00000004
          249   5559: .ARM.Collect$$libshutdown$$00000007
          250   5595: .ARM.Collect$$libshutdown$$0000000A
          251   5631: .ARM.Collect$$libshutdown$$0000000C
          252   5667: .ARM.Collect$$libshutdown$$0000000F
          253   5703: .ARM.Collect$$libshutdown$$00000010
          254   5739: ../clib/angel/rt.s
          255   5758: ../clib/signal.s
          256   5775: ../clib/angel/dczerorl2.s
          257   5801: !!dczerorl2
          258   5813: ../clib/angel/scatter.s
          259   5837: !!!scatter
          260   5848: ../clib/angel/handlers.s
          261   5873: !!handler_zi
          262   5886: BuildAttributes$$THM_ISAv4$E$P$D$K$B$S$7EM$VFPi3$EXTD16$VFPS$VFMA$PE$A:L22UL41UL21$X:L11$S22US41US21$IEEE1$IW$USESV6$~STKCKD$USESV7$~SHL$OTIME$ROPI$EBA8$UX$STANDARDLIB$REQ8$PRES8$EABIv2
          263   6072: __ARM_use_no_argv
          264   6090: __Vectors
          265   6100: __Patchable
          266   6112: Reset_Handler
          267   6126: NMI_Handler
          268   6138: MemManage_Handler
          269   6156: BusFault_Handler
          270   6173: UsageFault_Handler
          271   6192: SecureFault_Handler
          272   6212: SVC_Handler
          273   6224: DebugMon_Handler
          274   6241: PendSV_Handler
          275   6256: SysTick_Handler
          276   6272: am_adc_isr
          277   6283: am_ble_isr
          278   6294: am_brownout_isr
          279   6310: am_clkgen_isr
          280   6324: am_gpio_isr
          281   6336: am_iomaster0_isr
          282   6353: am_iomaster1_isr
          283   6370: am_iomaster2_isr
          284   6387: am_iomaster3_isr
          285   6404: am_iomaster4_isr
          286   6421: am_iomaster5_isr
          287   6438: am_ioslave_acc_isr
          288   6457: am_ioslave_ios_isr
          289   6476: am_mspi0_isr
          290   6489: am_mspi2_isr
          291   6502: am_pdm0_isr
          292   6514: am_rtc_isr
          293   6525: am_scard_isr
          294   6538: am_software0_isr
          295   6555: am_stimer_cmpr0_isr
          296   6575: am_stimer_cmpr1_isr
          297   6595: am_stimer_cmpr2_isr
          298   6615: am_stimer_cmpr3_isr
          299   6635: am_stimer_cmpr4_isr
          300   6655: am_stimer_cmpr5_isr
          301   6675: am_stimer_cmpr6_isr
          302   6695: am_stimer_cmpr7_isr
          303   6715: am_stimer_isr
          304   6729: am_uart0_isr
          305   6742: am_uart1_isr
          306   6755: am_uart_isr
          307   6767: am_vcomp_isr
          308   6780: am_watchdog_isr
          309   6796: __main
          310   6803: __scatterload
          311   6817: __scatterload_rt2
          312   6835: __scatterload_rt2_thumb_only
          313   6864: __scatterload_null
          314   6883: __decompress
          315   6896: __decompress1
          316   6910: __scatterload_zeroinit
          317   6933: __rt_lib_init
          318   6947: __rt_lib_init_fp_1
          319   6966: __rt_lib_init_alloca_1
          320   6989: __rt_lib_init_argv_1
          321   7010: __rt_lib_init_atexit_1
          322   7033: __rt_lib_init_clock_1
          323   7055: __rt_lib_init_cpp_1
          324   7075: __rt_lib_init_exceptions_1
          325   7102: __rt_lib_init_fp_trap_1
          326   7126: __rt_lib_init_getenv_1
          327   7149: __rt_lib_init_heap_1
          328   7170: __rt_lib_init_lc_collate_1
          329   7197: __rt_lib_init_lc_ctype_1
          330   7222: __rt_lib_init_lc_monetary_1
          331   7250: __rt_lib_init_lc_numeric_1
          332   7277: __rt_lib_init_lc_time_1
          333   7301: __rt_lib_init_preinit_1
          334   7325: __rt_lib_init_rand_1
          335   7346: __rt_lib_init_return
          336   7367: __rt_lib_init_signal_1
          337   7390: __rt_lib_init_stdio_1
          338   7412: __rt_lib_init_user_alloc_1
          339   7439: __rt_lib_shutdown
          340   7457: __rt_lib_shutdown_cpp_1
          341   7481: __rt_lib_shutdown_fp_trap_1
          342   7509: __rt_lib_shutdown_heap_1
          343   7534: __rt_lib_shutdown_return
          344   7559: __rt_lib_shutdown_signal_1
          345   7586: __rt_lib_shutdown_stdio_1
          346   7612: __rt_lib_shutdown_user_alloc_1
          347   7643: __rt_entry
          348   7654: __rt_entry_presh_1
          349   7673: __rt_entry_sh
          350   7687: __rt_entry_li
          351   7701: __rt_entry_postsh_1
          352   7721: __rt_entry_main
          353   7737: __rt_entry_postli_1
          354   7757: __rt_exit
          355   7767: __rt_exit_ls
          356   7780: __rt_exit_prels_1
          357   7798: __rt_exit_exit
          358   7813: HardFault_Handler
          359   7831: getStackedReg
          360   7845: am_hal_interrupt_master_enable
          361   7876: am_hal_interrupt_master_disable
          362   7908: am_hal_interrupt_master_set
          363   7936: __user_initial_stackheap
          364   7961: __use_two_region_memory
          365   7985: __rt_heap_escrow$2region
          366   8010: __rt_heap_expand$2region
          367   8035: __user_setup_stackheap
          368   8058: exit
          369   8063: __user_libspace
          370   8079: __user_perproc_libspace
          371   8103: __user_perthread_libspace
          372   8129: _sys_exit
          373   8139: __I$use$semihosting
          374   8159: __use_no_semihosting_swi
          375   8184: __semihosting_library_function
          376   8215: am_bsp_itm_printf_enable
          377   8240: am_bsp_low_power_init
          378   8262: am_bsp_mspi_pins_enable
          379   8286: am_ctimer_isr
          380   8300: am_devices_mspi_psram_enable_xip
          381   8333: am_devices_mspi_psram_init
          382   8360: am_devices_mspi_psram_read
          383   8387: am_devices_mspi_psram_write
          384   8415: am_hal_cachectrl_config
          385   8439: am_hal_cachectrl_control
          386   8464: am_hal_cachectrl_enable
          387   8488: am_hal_clkgen_control
          388   8510: am_hal_clkgen_status_get
          389   8535: am_hal_cmdq_alloc_block
          390   8559: am_hal_cmdq_disable
          391   8579: am_hal_cmdq_enable
          392   8598: am_hal_cmdq_error_resume
          393   8623: am_hal_cmdq_get_status
          394   8646: am_hal_cmdq_init
          395   8663: am_hal_cmdq_post_block
          396   8686: am_hal_cmdq_post_loop_block
          397   8714: am_hal_cmdq_release_block
          398   8740: am_hal_cmdq_reset
          399   8758: am_hal_cmdq_term
          400   8775: am_hal_ctimer_clear
          401   8795: am_hal_ctimer_config
          402   8816: am_hal_ctimer_int_clear
          403   8840: am_hal_ctimer_int_disable
          404   8866: am_hal_ctimer_int_enable
          405   8891: am_hal_ctimer_int_register
          406   8918: am_hal_ctimer_int_service
          407   8944: am_hal_ctimer_int_status_get
          408   8973: am_hal_ctimer_period_set
          409   8998: am_hal_ctimer_start
          410   9018: am_hal_ctimer_stop
          411   9037: am_hal_debug_error
          412   9056: am_hal_flash_delay
          413   9075: am_hal_flash_delay_status_check
          414   9107: am_hal_flash_load_ui32
          415   9130: am_hal_flash_store_ui32
          416   9154: am_hal_gpio_pinconfig
          417   9176: am_hal_gpio_state_write
          418   9200: am_hal_itm_enable
          419   9218: am_hal_itm_print
          420   9235: am_hal_mcuctrl_control
          421   9258: am_hal_mcuctrl_info_get
          422   9282: am_hal_mspi_blocking_transfer
          423   9312: am_hal_mspi_control
          424   9332: am_hal_mspi_device_configure
          425   9361: am_hal_mspi_disable
          426   9381: am_hal_mspi_enable
          427   9400: am_hal_mspi_highprio_transfer
          428   9430: am_hal_mspi_initialize
          429   9453: am_hal_mspi_interrupt_clear
          430   9481: am_hal_mspi_interrupt_enable
          431   9510: am_hal_mspi_interrupt_service
          432   9540: am_hal_mspi_interrupt_status_get
          433   9573: am_hal_mspi_nonblocking_transfer
          434   9606: am_hal_mspi_power_control
          435   9632: am_hal_pwrctrl_low_power_init
          436   9662: am_hal_pwrctrl_periph_disable
          437   9692: am_hal_pwrctrl_periph_enable
          438   9721: am_hal_rtc_osc_disable
          439   9744: am_hal_tpiu_enable
          440   9763: am_mspi1_isr
          441   9776: am_util_delay_us
          442   9793: am_util_faultisr_collect_data
          443   9823: am_util_stdio_printf
          444   9844: am_util_stdio_printf_init
          445   9870: am_util_stdio_terminal_clear
          446   9899: am_util_stdio_vsprintf
          447   9922: build_dma_cmdlist
          448   9940: flush_mspi_psram_data
          449   9962: main
          450   9967: mspi_psram_init
          451   9983: mspi_xip_init
          452   9997: pfnMSPI_PSRAM_Callback
          453  10020: prime_number
          454  10033: __aeabi_d2f
          455  10045: _d2f
          456  10050: __aeabi_ddiv
          457  10063: _ddiv
          458  10069: __aeabi_dmul
          459  10082: _dmul
          460  10088: __fpl_dnaninf
          461  10102: __fpl_dretinf
          462  10116: __aeabi_f2d
          463  10128: _f2d
          464  10133: __fpl_fnaninf
          465  10147: _fp_init
          466  10156: __fplib_config_fpu_vfp
          467  10179: __fplib_config_pureend_doubles
          468  10210: __fpl_fretinf
          469  10224: __I$use$fp
          470  10235: cache_monitor_cachectrl
          471  10259: Kc_PRIME_MPI
          472  10272: g_ui8HALcompiler
          473  10289: g_ui32HALversion
          474  10306: g_am_hal_mcuctrl_flash_size
          475  10334: g_am_hal_mcuctrl_sram_size
          476  10361: g_AM_HAL_GPIO_DISABLE
          477  10383: g_AM_HAL_GPIO_OUTPUT
          478  10404: am_hal_pwrctrl_peripheral_control
          479  10438: am_hal_pwrctrl_memory_control
          480  10468: g_AM_BSP_GPIO_MSPI0_CE0
          481  10492: g_AM_BSP_GPIO_MSPI0_CE1
          482  10516: g_AM_BSP_GPIO_MSPI0_D0
          483  10539: g_AM_BSP_GPIO_MSPI0_D1
          484  10562: g_AM_BSP_GPIO_MSPI0_D2
          485  10585: g_AM_BSP_GPIO_MSPI0_D3
          486  10608: g_AM_BSP_GPIO_MSPI0_SCK
          487  10632: g_AM_BSP_GPIO_MSPI1_CE0
          488  10656: g_AM_BSP_GPIO_MSPI1_CE1
          489  10680: g_AM_BSP_GPIO_MSPI1_D0
          490  10703: g_AM_BSP_GPIO_MSPI1_D1
          491  10726: g_AM_BSP_GPIO_MSPI1_D2
          492  10749: g_AM_BSP_GPIO_MSPI1_D3
          493  10772: g_AM_BSP_GPIO_MSPI1_D4
          494  10795: g_AM_BSP_GPIO_MSPI1_D5
          495  10818: g_AM_BSP_GPIO_MSPI1_D6
          496  10841: g_AM_BSP_GPIO_MSPI1_D7
          497  10864: g_AM_BSP_GPIO_MSPI1_SCK
          498  10888: g_AM_BSP_GPIO_MSPI1_DMDQS
          499  10914: g_AM_BSP_GPIO_MSPI2_CE0
          500  10938: g_AM_BSP_GPIO_MSPI2_CE1
          501  10962: g_AM_BSP_GPIO_MSPI2_D0
          502  10985: g_AM_BSP_GPIO_MSPI2_D1
          503  11008: g_AM_BSP_GPIO_MSPI2_D2
          504  11031: g_AM_BSP_GPIO_MSPI2_D3
          505  11054: g_AM_BSP_GPIO_MSPI2_SCK
          506  11078: g_AM_BSP_GPIO_ITM_SWO
          507  11100: g_AM_BSP_GPIO_DSPL0_CE0
          508  11124: g_AM_BSP_GPIO_DSPL0_D0
          509  11147: g_AM_BSP_GPIO_DSPL0_D1
          510  11170: g_AM_BSP_GPIO_DSPL0_D2
          511  11193: g_AM_BSP_GPIO_DSPL0_D3
          512  11216: g_AM_BSP_GPIO_DSPL0_SCK
          513  11240: g_AM_BSP_GPIO_PSRAM_CE0
          514  11264: g_AM_BSP_GPIO_PSRAM_D0
          515  11287: g_AM_BSP_GPIO_PSRAM_D1
          516  11310: g_AM_BSP_GPIO_PSRAM_D2
          517  11333: g_AM_BSP_GPIO_PSRAM_D3
          518  11356: g_AM_BSP_GPIO_PSRAM_SCK
          519  11380: g_AM_BSP_GPIO_FLASH0_CE0
          520  11405: g_AM_BSP_GPIO_FLASH0_D0
          521  11429: g_AM_BSP_GPIO_FLASH0_D1
          522  11453: g_AM_BSP_GPIO_FLASH0_D2
          523  11477: g_AM_BSP_GPIO_FLASH0_D3
          524  11501: g_AM_BSP_GPIO_FLASH0_SCK
          525  11526: g_AM_BSP_GPIO_FLASH1_CE0
          526  11551: g_AM_BSP_GPIO_FLASH1_D0
          527  11575: g_AM_BSP_GPIO_FLASH1_D1
          528  11599: g_AM_BSP_GPIO_FLASH1_D2
          529  11623: g_AM_BSP_GPIO_FLASH1_D3
          530  11647: g_AM_BSP_GPIO_FLASH1_D4
          531  11671: g_AM_BSP_GPIO_FLASH1_D5
          532  11695: g_AM_BSP_GPIO_FLASH1_D6
          533  11719: g_AM_BSP_GPIO_FLASH1_D7
          534  11743: g_AM_BSP_GPIO_FLASH1_SCK
          535  11768: g_AM_BSP_GPIO_FLASH1_DS
          536  11792: Region$$Table$$Base
          537  11812: Region$$Table$$Limit
          538  11833: g_ui32CurData
          539  11847: g_iteration
          540  11859: g_data_size
          541  11871: g_hit_rate
          542  11882: g_cache_miss
          543  11895: g_MSPIDevHdl
          544  11908: g_MSPIHdl
          545  11918: g_prime_num
          546  11930: g_exp_prime
          547  11942: MSPI_PSRAM_QuadCE0MSPIConfig
          548  11971: SerialCE0MSPIConfig
          549  11991: SerialCE1MSPIConfig
          550  12011: QuadCE0MSPIConfig
          551  12029: QuadCE1MSPIConfig
          552  12047: g_pfnCharPrint
          553  12062: g_ui32HALflags
          554  12077: am_bsp_psLEDs
          555  12091: g_bSimobuckTrimsDone
          556  12112: gAmHalResetStatus
          557  12130: g_DMON
          558  12137: g_IMON
          559  12144: g_TempBuf
          560  12154: DMATCBBuffer
          561  12167: gAmPsram
          562  12176: g_MSPIState
          563  12188: __libspace_start
          564  12205: __temporary_stack_top$libspace


** Section #14 '.note' (SHT_NOTE)
    Size   : 32 bytes (alignment 4)


** Section #15 '.comment' (SHT_PROGBITS)
    Size   : 30776 bytes


** Section #16 '.shstrtab' (SHT_STRTAB)
    Size   : 160 bytes

            #  Offset String
        ====================================

            1      1: ROMEM
            2      7: RWMEM
            3     13: TCM
            4     17: STACKMEM
            5     26: .debug_abbrev
            6     40: .debug_frame
            7     53: .debug_info
            8     65: .debug_line
            9     77: .debug_loc
           10     88: .debug_macinfo
           11    103: .debug_pubnames
           12    119: .symtab
           13    127: .strtab
           14    135: .note
           15    141: .comment
           16    150: .shstrtab


