
========================================================================

** ELF Header Information

    File Name: bin\stimer.axf

    Machine class: ELFCLASS32 (32-bit)
    Data encoding: ELFDATA2LSB (Little endian)
    Header version: EV_CURRENT (Current version)
    Operating System ABI: none
    ABI Version: 0
    File Type: ET_EXEC (Executable) (2)
    Machine: EM_ARM (ARM)

    Image Entry point: 0x0000c139
    Flags: EF_ARM_HASENTRY + EF_ARM_ABI_FLOAT_HARD (0x05000402)

    ARM ELF revision: 5 (ABI version 2)

    Conforms to Hard float procedure-call standard

    Built with
    Component: ARM Compiler 5.06 update 6 (build 750) Tool: armasm [4d35ec]
    Component: ARM Compiler 5.06 update 6 (build 750) Tool: armlink [4d35ed]

    Header size: 52 bytes (0x34)
    Program header entry size: 32 bytes (0x20)
    Section header entry size: 40 bytes (0x28)

    Program header entries: 1
    Section header entries: 17

    Program header offset: 628060 (0x0009955c)
    Section header offset: 628092 (0x0009957c)

    Section header string table index: 16

========================================================================

** Program header #0 (PT_LOAD) [PF_X + PF_W + PF_R + PF_ARM_ENTRY]
    Size : 16756 bytes (10256 bytes in file)
    Virtual address: 0x0000c000 (Alignment 8)


========================================================================

** Section #1 'ROMEM' (SHT_PROGBITS) [SHF_ALLOC + SHF_EXECINSTR]
    Size   : 10140 bytes (alignment 4)
    Address: 0x0000c000

    $d
    RESET
    __Vectors
        0x0000c000:    10011000    ....    DCD    268505088
        0x0000c004:    0000c101    ....    DCD    49409
        0x0000c008:    0000c11f    ....    DCD    49439
        0x0000c00c:    0000c1d9    ....    DCD    49625
        0x0000c010:    0000c121    !...    DCD    49441
        0x0000c014:    0000c123    #...    DCD    49443
        0x0000c018:    0000c125    %...    DCD    49445
        0x0000c01c:    0000c127    '...    DCD    49447
        0x0000c020:    00000000    ....    DCD    0
        0x0000c024:    00000000    ....    DCD    0
        0x0000c028:    00000000    ....    DCD    0
        0x0000c02c:    0000c129    )...    DCD    49449
        0x0000c030:    0000c12b    +...    DCD    49451
        0x0000c034:    00000000    ....    DCD    0
        0x0000c038:    0000c12d    -...    DCD    49453
        0x0000c03c:    0000c12f    /...    DCD    49455
        0x0000c040:    0000c131    1...    DCD    49457
        0x0000c044:    0000c131    1...    DCD    49457
        0x0000c048:    0000c131    1...    DCD    49457
        0x0000c04c:    0000c131    1...    DCD    49457
        0x0000c050:    0000c131    1...    DCD    49457
        0x0000c054:    0000c131    1...    DCD    49457
        0x0000c058:    0000c131    1...    DCD    49457
        0x0000c05c:    0000c131    1...    DCD    49457
        0x0000c060:    0000c131    1...    DCD    49457
        0x0000c064:    0000c131    1...    DCD    49457
        0x0000c068:    0000c131    1...    DCD    49457
        0x0000c06c:    0000c131    1...    DCD    49457
        0x0000c070:    0000c131    1...    DCD    49457
        0x0000c074:    0000c131    1...    DCD    49457
        0x0000c078:    0000c131    1...    DCD    49457
        0x0000c07c:    0000c131    1...    DCD    49457
        0x0000c080:    0000c131    1...    DCD    49457
        0x0000c084:    0000c131    1...    DCD    49457
        0x0000c088:    0000c131    1...    DCD    49457
        0x0000c08c:    0000c131    1...    DCD    49457
        0x0000c090:    0000c131    1...    DCD    49457
        0x0000c094:    0000c131    1...    DCD    49457
        0x0000c098:    0000c131    1...    DCD    49457
        0x0000c09c:    0000d6b5    ....    DCD    54965
        0x0000c0a0:    0000c131    1...    DCD    49457
        0x0000c0a4:    0000c131    1...    DCD    49457
        0x0000c0a8:    0000c131    1...    DCD    49457
        0x0000c0ac:    0000c131    1...    DCD    49457
        0x0000c0b0:    0000c131    1...    DCD    49457
        0x0000c0b4:    0000c131    1...    DCD    49457
        0x0000c0b8:    0000c131    1...    DCD    49457
        0x0000c0bc:    0000c131    1...    DCD    49457
        0x0000c0c0:    0000c131    1...    DCD    49457
        0x0000c0c4:    0000c131    1...    DCD    49457
    __Patchable
        0x0000c0c8:    00000000    ....    DCD    0
        0x0000c0cc:    00000000    ....    DCD    0
        0x0000c0d0:    00000000    ....    DCD    0
        0x0000c0d4:    00000000    ....    DCD    0
        0x0000c0d8:    00000000    ....    DCD    0
        0x0000c0dc:    00000000    ....    DCD    0
        0x0000c0e0:    00000000    ....    DCD    0
        0x0000c0e4:    00000000    ....    DCD    0
        0x0000c0e8:    00000000    ....    DCD    0
        0x0000c0ec:    00000000    ....    DCD    0
        0x0000c0f0:    00000000    ....    DCD    0
        0x0000c0f4:    00000000    ....    DCD    0
        0x0000c0f8:    00000000    ....    DCD    0
        0x0000c0fc:    00000000    ....    DCD    0
    $t
    $v0
    Reset_Handler
        0x0000c100:    f64e5088    N..P    MOV      r0,#0xed88
        0x0000c104:    f2ce0000    ....    MOVT     r0,#0xe000
        0x0000c108:    6801        .h      LDR      r1,[r0,#0]
        0x0000c10a:    f4410170    A.p.    ORR      r1,r1,#0xf00000
        0x0000c10e:    6001        .`      STR      r1,[r0,#0]
        0x0000c110:    f3bf8f4f    ..O.    DSB      
        0x0000c114:    f3bf8f6f    ..o.    ISB      
        0x0000c118:    4806        .H      LDR      r0,[pc,#24] ; [0xc134] = 0xc139
        0x0000c11a:    4700        .G      BX       r0
        0x0000c11c:    e7fe        ..      B        0xc11c ; Reset_Handler + 28
    NMI_Handler
        0x0000c11e:    e7fe        ..      B        NMI_Handler ; 0xc11e
    MemManage_Handler
        0x0000c120:    e7fe        ..      B        MemManage_Handler ; 0xc120
    BusFault_Handler
        0x0000c122:    e7fe        ..      B        BusFault_Handler ; 0xc122
    UsageFault_Handler
        0x0000c124:    e7fe        ..      B        UsageFault_Handler ; 0xc124
    SecureFault_Handler
        0x0000c126:    e7fe        ..      B        SecureFault_Handler ; 0xc126
    SVC_Handler
        0x0000c128:    e7fe        ..      B        SVC_Handler ; 0xc128
    DebugMon_Handler
        0x0000c12a:    e7fe        ..      B        DebugMon_Handler ; 0xc12a
    PendSV_Handler
        0x0000c12c:    e7fe        ..      B        PendSV_Handler ; 0xc12c
    SysTick_Handler
        0x0000c12e:    e7fe        ..      B        SysTick_Handler ; 0xc12e
    am_adc_isr
    am_ble_isr
    am_brownout_isr
    am_clkgen_isr
    am_ctimer_isr
    am_gpio_isr
    am_iomaster0_isr
    am_iomaster1_isr
    am_iomaster2_isr
    am_iomaster3_isr
    am_iomaster4_isr
    am_iomaster5_isr
    am_ioslave_acc_isr
    am_ioslave_ios_isr
    am_mspi0_isr
    am_mspi1_isr
    am_mspi2_isr
    am_pdm0_isr
    am_rtc_isr
    am_scard_isr
    am_software0_isr
    am_stimer_cmpr1_isr
    am_stimer_cmpr2_isr
    am_stimer_cmpr3_isr
    am_stimer_cmpr4_isr
    am_stimer_cmpr5_isr
    am_stimer_cmpr6_isr
    am_stimer_cmpr7_isr
    am_stimer_isr
    am_uart0_isr
    am_uart1_isr
    am_uart_isr
    am_vcomp_isr
    am_watchdog_isr
        0x0000c130:    e7fe        ..      B        am_adc_isr ; 0xc130
    $d
        0x0000c132:    0000        ..      DCW    0
        0x0000c134:    0000c139    9...    DCD    49465
    $t
    !!!main
    __main
        0x0000c138:    f000f802    ....    BL       __scatterload ; 0xc140
        0x0000c13c:    f000f83c    ..<.    BL       __rt_entry ; 0xc1b8
    !!!scatter
    __scatterload
    __scatterload_rt2
    __scatterload_rt2_thumb_only
        0x0000c140:    a00a        ..      ADR      r0,{pc}+0x2c ; 0xc16c
        0x0000c142:    e8900c00    ....    LDM      r0,{r10,r11}
        0x0000c146:    4482        .D      ADD      r10,r10,r0
        0x0000c148:    4483        .D      ADD      r11,r11,r0
        0x0000c14a:    f1aa0701    ....    SUB      r7,r10,#1
    __scatterload_null
        0x0000c14e:    45da        .E      CMP      r10,r11
        0x0000c150:    d101        ..      BNE      0xc156 ; __scatterload_null + 8
        0x0000c152:    f000f831    ..1.    BL       __rt_entry ; 0xc1b8
        0x0000c156:    f2af0e09    ....    ADR      lr,{pc}-7 ; 0xc14f
        0x0000c15a:    e8ba000f    ....    LDM      r10!,{r0-r3}
        0x0000c15e:    f0130f01    ....    TST      r3,#1
        0x0000c162:    bf18        ..      IT       NE
        0x0000c164:    1afb        ..      SUBNE    r3,r7,r3
        0x0000c166:    f0430301    C...    ORR      r3,r3,#1
        0x0000c16a:    4718        .G      BX       r3
    $d
        0x0000c16c:    00002600    .&..    DCD    9728
        0x0000c170:    00002630    0&..    DCD    9776
    $t
    !!handler_copy
    __scatterload_copy
        0x0000c174:    3a10        .:      SUBS     r2,r2,#0x10
        0x0000c176:    bf24        $.      ITT      CS
        0x0000c178:    c878        x.      LDMCS    r0!,{r3-r6}
        0x0000c17a:    c178        x.      STMCS    r1!,{r3-r6}
        0x0000c17c:    d8fa        ..      BHI      __scatterload_copy ; 0xc174
        0x0000c17e:    0752        R.      LSLS     r2,r2,#29
        0x0000c180:    bf24        $.      ITT      CS
        0x0000c182:    c830        0.      LDMCS    r0!,{r4,r5}
        0x0000c184:    c130        0.      STMCS    r1!,{r4,r5}
        0x0000c186:    bf44        D.      ITT      MI
        0x0000c188:    6804        .h      LDRMI    r4,[r0,#0]
        0x0000c18a:    600c        .`      STRMI    r4,[r1,#0]
        0x0000c18c:    4770        pG      BX       lr
        0x0000c18e:    0000        ..      MOVS     r0,r0
    !!handler_zi
    __scatterload_zeroinit
        0x0000c190:    2300        .#      MOVS     r3,#0
        0x0000c192:    2400        .$      MOVS     r4,#0
        0x0000c194:    2500        .%      MOVS     r5,#0
        0x0000c196:    2600        .&      MOVS     r6,#0
        0x0000c198:    3a10        .:      SUBS     r2,r2,#0x10
        0x0000c19a:    bf28        (.      IT       CS
        0x0000c19c:    c178        x.      STMCS    r1!,{r3-r6}
        0x0000c19e:    d8fb        ..      BHI      0xc198 ; __scatterload_zeroinit + 8
        0x0000c1a0:    0752        R.      LSLS     r2,r2,#29
        0x0000c1a2:    bf28        (.      IT       CS
        0x0000c1a4:    c130        0.      STMCS    r1!,{r4,r5}
        0x0000c1a6:    bf48        H.      IT       MI
        0x0000c1a8:    600b        .`      STRMI    r3,[r1,#0]
        0x0000c1aa:    4770        pG      BX       lr
    .ARM.Collect$$libinit$$00000000
    __rt_lib_init
        0x0000c1ac:    b51f        ..      PUSH     {r0-r4,lr}
    .ARM.Collect$$libinit$$00000001
    __rt_lib_init_fp_1
        0x0000c1ae:    f002f81e    ....    BL       _fp_init ; 0xe1ee
    .ARM.Collect$$libinit$$00000004
    .ARM.Collect$$libinit$$0000000A
    .ARM.Collect$$libinit$$0000000C
    .ARM.Collect$$libinit$$0000000E
    .ARM.Collect$$libinit$$00000011
    .ARM.Collect$$libinit$$00000013
    .ARM.Collect$$libinit$$00000015
    .ARM.Collect$$libinit$$00000017
    .ARM.Collect$$libinit$$00000019
    .ARM.Collect$$libinit$$0000001B
    .ARM.Collect$$libinit$$0000001D
    .ARM.Collect$$libinit$$0000001F
    .ARM.Collect$$libinit$$00000021
    .ARM.Collect$$libinit$$00000023
    .ARM.Collect$$libinit$$00000025
    .ARM.Collect$$libinit$$0000002C
    .ARM.Collect$$libinit$$0000002E
    .ARM.Collect$$libinit$$00000030
    .ARM.Collect$$libinit$$00000032
    .ARM.Collect$$libinit$$00000033
    __rt_lib_init_alloca_1
    __rt_lib_init_argv_1
    __rt_lib_init_atexit_1
    __rt_lib_init_clock_1
    __rt_lib_init_cpp_1
    __rt_lib_init_exceptions_1
    __rt_lib_init_fp_trap_1
    __rt_lib_init_getenv_1
    __rt_lib_init_heap_1
    __rt_lib_init_lc_collate_1
    __rt_lib_init_lc_ctype_1
    __rt_lib_init_lc_monetary_1
    __rt_lib_init_lc_numeric_1
    __rt_lib_init_lc_time_1
    __rt_lib_init_preinit_1
    __rt_lib_init_rand_1
    __rt_lib_init_return
    __rt_lib_init_signal_1
    __rt_lib_init_stdio_1
    __rt_lib_init_user_alloc_1
        0x0000c1b2:    bd1f        ..      POP      {r0-r4,pc}
    .ARM.Collect$$libshutdown$$00000000
    __rt_lib_shutdown
        0x0000c1b4:    b510        ..      PUSH     {r4,lr}
    .ARM.Collect$$libshutdown$$00000002
    .ARM.Collect$$libshutdown$$00000004
    .ARM.Collect$$libshutdown$$00000007
    .ARM.Collect$$libshutdown$$0000000A
    .ARM.Collect$$libshutdown$$0000000C
    .ARM.Collect$$libshutdown$$0000000F
    .ARM.Collect$$libshutdown$$00000010
    __rt_lib_shutdown_cpp_1
    __rt_lib_shutdown_fp_trap_1
    __rt_lib_shutdown_heap_1
    __rt_lib_shutdown_return
    __rt_lib_shutdown_signal_1
    __rt_lib_shutdown_stdio_1
    __rt_lib_shutdown_user_alloc_1
        0x0000c1b6:    bd10        ..      POP      {r4,pc}
    .ARM.Collect$$rtentry$$00000000
    .ARM.Collect$$rtentry$$00000002
    .ARM.Collect$$rtentry$$00000004
    __rt_entry
    __rt_entry_presh_1
    __rt_entry_sh
        0x0000c1b8:    f000f862    ..b.    BL       __user_setup_stackheap ; 0xc280
        0x0000c1bc:    4611        .F      MOV      r1,r2
    .ARM.Collect$$rtentry$$00000009
    .ARM.Collect$$rtentry$$0000000A
    __rt_entry_li
    __rt_entry_postsh_1
        0x0000c1be:    f7fffff5    ....    BL       __rt_lib_init ; 0xc1ac
    .ARM.Collect$$rtentry$$0000000C
    .ARM.Collect$$rtentry$$0000000D
    __rt_entry_main
    __rt_entry_postli_1
        0x0000c1c2:    f001fe57    ..W.    BL       main ; 0xde74
        0x0000c1c6:    f000f880    ....    BL       exit ; 0xc2ca
    .ARM.Collect$$rtexit$$00000000
    __rt_exit
        0x0000c1ca:    b403        ..      PUSH     {r0,r1}
    .ARM.Collect$$rtexit$$00000002
    .ARM.Collect$$rtexit$$00000003
    __rt_exit_ls
    __rt_exit_prels_1
        0x0000c1cc:    f7fffff2    ....    BL       __rt_lib_shutdown ; 0xc1b4
    .ARM.Collect$$rtexit$$00000004
    __rt_exit_exit
        0x0000c1d0:    bc03        ..      POP      {r0,r1}
        0x0000c1d2:    f000f887    ....    BL       _sys_exit ; 0xc2e4
        0x0000c1d6:    0000        ..      MOVS     r0,r0
    .emb_text
    $v0
    HardFault_Handler
        0x0000c1d8:    b501        ..      PUSH     {r0,lr}
        0x0000c1da:    f01e0f04    ....    TST      lr,#4
        0x0000c1de:    bf0a        ..      ITET     EQ
        0x0000c1e0:    f3ef8008    ....    MRSEQ    r0,MSP
        0x0000c1e4:    f3ef8009    ....    MRSNE    r0,PSP
        0x0000c1e8:    f1100008    ....    ADDSEQ   r0,r0,#8
        0x0000c1ec:    f001fa94    ....    BL       am_util_faultisr_collect_data ; 0xd718
        0x0000c1f0:    bd01        ..      POP      {r0,pc}
    getStackedReg
        0x0000c1f2:    0080        ..      LSLS     r0,r0,#2
        0x0000c1f4:    1840        @.      ADDS     r0,r0,r1
        0x0000c1f6:    6800        .h      LDR      r0,[r0,#0]
        0x0000c1f8:    4770        pG      BX       lr
        0x0000c1fa:    0000        ..      MOVS     r0,r0
    .emb_text
    $v0
    am_hal_interrupt_master_enable
        0x0000c1fc:    f3ef8010    ....    MRS      r0,PRIMASK
        0x0000c200:    b662        b.      CPSIE    i
        0x0000c202:    4770        pG      BX       lr
    am_hal_interrupt_master_disable
        0x0000c204:    f3ef8010    ....    MRS      r0,PRIMASK
        0x0000c208:    b672        r.      CPSID    i
        0x0000c20a:    4770        pG      BX       lr
    am_hal_interrupt_master_set
        0x0000c20c:    f3808810    ....    MSR      PRIMASK,r0
        0x0000c210:    4770        pG      BX       lr
        0x0000c212:    0000        ..      MOVS     r0,r0
    .text
    $v0
    __user_initial_stackheap
        0x0000c214:    4802        .H      LDR      r0,[pc,#8] ; [0xc220] = 0x100119d8
        0x0000c216:    4903        .I      LDR      r1,[pc,#12] ; [0xc224] = 0x10011000
        0x0000c218:    4a01        .J      LDR      r2,[pc,#4] ; [0xc220] = 0x100119d8
        0x0000c21a:    4b03        .K      LDR      r3,[pc,#12] ; [0xc228] = 0x10010000
        0x0000c21c:    4770        pG      BX       lr
    $d
        0x0000c21e:    0000        ..      DCW    0
        0x0000c220:    100119d8    ....    DCD    268507608
        0x0000c224:    10011000    ....    DCD    268505088
        0x0000c228:    10010000    ....    DCD    268500992
    $t
    .text
    __aeabi_memclr4
    __aeabi_memclr8
    __rt_memclr_w
        0x0000c22c:    f04f0200    O...    MOV      r2,#0
    _memset_w
        0x0000c230:    b500        ..      PUSH     {lr}
        0x0000c232:    4613        .F      MOV      r3,r2
        0x0000c234:    4694        .F      MOV      r12,r2
        0x0000c236:    4696        .F      MOV      lr,r2
        0x0000c238:    3920         9      SUBS     r1,r1,#0x20
        0x0000c23a:    bf22        ".      ITTT     CS
        0x0000c23c:    e8a0500c    ...P    STMCS    r0!,{r2,r3,r12,lr}
        0x0000c240:    e8a0500c    ...P    STMCS    r0!,{r2,r3,r12,lr}
        0x0000c244:    f1b10120    .. .    SUBSCS   r1,r1,#0x20
        0x0000c248:    f4bfaff7    ....    BCS.W    0xc23a ; _memset_w + 10
        0x0000c24c:    0709        ..      LSLS     r1,r1,#28
        0x0000c24e:    bf28        (.      IT       CS
        0x0000c250:    e8a0500c    ...P    STMCS    r0!,{r2,r3,r12,lr}
        0x0000c254:    bf48        H.      IT       MI
        0x0000c256:    c00c        ..      STMMI    r0!,{r2,r3}
        0x0000c258:    f85deb04    ]...    POP      {lr}
        0x0000c25c:    0089        ..      LSLS     r1,r1,#2
        0x0000c25e:    bf28        (.      IT       CS
        0x0000c260:    f8402b04    @..+    STRCS    r2,[r0],#4
        0x0000c264:    bf08        ..      IT       EQ
        0x0000c266:    4770        pG      BXEQ     lr
        0x0000c268:    bf48        H.      IT       MI
        0x0000c26a:    f8202b02     ..+    STRHMI   r2,[r0],#2
        0x0000c26e:    f0114f80    ...O    TST      r1,#0x40000000
        0x0000c272:    bf18        ..      IT       NE
        0x0000c274:    f8002b01    ...+    STRBNE   r2,[r0],#1
        0x0000c278:    4770        pG      BX       lr
    .text
    __use_two_region_memory
        0x0000c27a:    4770        pG      BX       lr
    __rt_heap_escrow$2region
        0x0000c27c:    4770        pG      BX       lr
    __rt_heap_expand$2region
        0x0000c27e:    4770        pG      BX       lr
    .text
    __user_setup_stackheap
        0x0000c280:    4675        uF      MOV      r5,lr
        0x0000c282:    f000f82b    ..+.    BL       __user_libspace ; 0xc2dc
        0x0000c286:    46ae        .F      MOV      lr,r5
        0x0000c288:    0005        ..      MOVS     r5,r0
        0x0000c28a:    4669        iF      MOV      r1,sp
        0x0000c28c:    4653        SF      MOV      r3,r10
        0x0000c28e:    f0200007     ...    BIC      r0,r0,#7
        0x0000c292:    4685        .F      MOV      sp,r0
        0x0000c294:    b018        ..      ADD      sp,sp,#0x60
        0x0000c296:    b520         .      PUSH     {r5,lr}
        0x0000c298:    f7ffffbc    ....    BL       __user_initial_stackheap ; 0xc214
        0x0000c29c:    e8bd4020    .. @    POP      {r5,lr}
        0x0000c2a0:    f04f0600    O...    MOV      r6,#0
        0x0000c2a4:    f04f0700    O...    MOV      r7,#0
        0x0000c2a8:    f04f0800    O...    MOV      r8,#0
        0x0000c2ac:    f04f0b00    O...    MOV      r11,#0
        0x0000c2b0:    f0210107    !...    BIC      r1,r1,#7
        0x0000c2b4:    46ac        .F      MOV      r12,r5
        0x0000c2b6:    e8ac09c0    ....    STM      r12!,{r6-r8,r11}
        0x0000c2ba:    e8ac09c0    ....    STM      r12!,{r6-r8,r11}
        0x0000c2be:    e8ac09c0    ....    STM      r12!,{r6-r8,r11}
        0x0000c2c2:    e8ac09c0    ....    STM      r12!,{r6-r8,r11}
        0x0000c2c6:    468d        .F      MOV      sp,r1
        0x0000c2c8:    4770        pG      BX       lr
    .text
    exit
        0x0000c2ca:    b510        ..      PUSH     {r4,lr}
        0x0000c2cc:    4604        .F      MOV      r4,r0
        0x0000c2ce:    f3af8000    ....    NOP.W    
        0x0000c2d2:    4620         F      MOV      r0,r4
        0x0000c2d4:    e8bd4010    ...@    POP      {r4,lr}
        0x0000c2d8:    f7ffbf77    ..w.    B.W      __rt_exit ; 0xc1ca
    .text
    __user_libspace
    __user_perproc_libspace
    __user_perthread_libspace
        0x0000c2dc:    4800        .H      LDR      r0,[pc,#0] ; [0xc2e0] = 0x10011974
        0x0000c2de:    4770        pG      BX       lr
    $d
        0x0000c2e0:    10011974    t...    DCD    268507508
    $t
    .text
    _sys_exit
        0x0000c2e4:    4901        .I      LDR      r1,[pc,#4] ; [0xc2ec] = 0x20026
        0x0000c2e6:    2018        .       MOVS     r0,#0x18
        0x0000c2e8:    beab        ..      BKPT     #0xab
        0x0000c2ea:    e7fe        ..      B        0xc2ea ; _sys_exit + 6
    $d
        0x0000c2ec:    00020026    &...    DCD    131110
    $t
    .text
    __I$use$semihosting
    __use_no_semihosting_swi
        0x0000c2f0:    4770        pG      BX       lr
    .text
    __semihosting_library_function
        0x0000c2f2:    0000        ..      MOVS     r0,r0
    i.am_bsp_debug_printf_disable
    am_bsp_debug_printf_disable
        0x0000c2f4:    b570        p.      PUSH     {r4-r6,lr}
        0x0000c2f6:    4c15        .L      LDR      r4,[pc,#84] ; [0xc34c] = 0x10011010
        0x0000c2f8:    4d15        .M      LDR      r5,[pc,#84] ; [0xc350] = 0xe214
        0x0000c2fa:    6820         h      LDR      r0,[r4,#0]
        0x0000c2fc:    2801        .(      CMP      r0,#1
        0x0000c2fe:    d01a        ..      BEQ      0xc336 ; am_bsp_debug_printf_disable + 66
        0x0000c300:    2802        .(      CMP      r0,#2
        0x0000c302:    bf18        ..      IT       NE
        0x0000c304:    bd70        p.      POPNE    {r4-r6,pc}
        0x0000c306:    6860        `h      LDR      r0,[r4,#4]
        0x0000c308:    f001f9a6    ....    BL       am_hal_uart_tx_flush ; 0xd658
        0x0000c30c:    2000        .       MOVS     r0,#0
        0x0000c30e:    f001fa7d    ..}.    BL       am_util_stdio_printf_init ; 0xd80c
        0x0000c312:    2200        ."      MOVS     r2,#0
        0x0000c314:    2102        .!      MOVS     r1,#2
        0x0000c316:    6860        `h      LDR      r0,[r4,#4]
        0x0000c318:    f001f928    ..(.    BL       am_hal_uart_power_control ; 0xd56c
        0x0000c31c:    6860        `h      LDR      r0,[r4,#4]
        0x0000c31e:    f001f90d    ....    BL       am_hal_uart_deinitialize ; 0xd53c
        0x0000c322:    2016        .       MOVS     r0,#0x16
        0x0000c324:    6829        )h      LDR      r1,[r5,#0]
        0x0000c326:    f000fc4b    ..K.    BL       am_hal_gpio_pinconfig ; 0xcbc0
        0x0000c32a:    6829        )h      LDR      r1,[r5,#0]
        0x0000c32c:    e8bd4070    ..p@    POP      {r4-r6,lr}
        0x0000c330:    2017        .       MOVS     r0,#0x17
        0x0000c332:    f000bc45    ..E.    B.W      am_hal_gpio_pinconfig ; 0xcbc0
        0x0000c336:    f000fdc3    ....    BL       am_hal_itm_disable ; 0xcec0
        0x0000c33a:    2000        .       MOVS     r0,#0
        0x0000c33c:    f001fa66    ..f.    BL       am_util_stdio_printf_init ; 0xd80c
        0x0000c340:    6829        )h      LDR      r1,[r5,#0]
        0x0000c342:    e8bd4070    ..p@    POP      {r4-r6,lr}
        0x0000c346:    2029        )       MOVS     r0,#0x29
        0x0000c348:    f000bc3a    ..:.    B.W      am_hal_gpio_pinconfig ; 0xcbc0
    $d
        0x0000c34c:    10011010    ....    DCD    268505104
        0x0000c350:    0000e214    ....    DCD    57876
    $t
    i.am_bsp_itm_printf_enable
    am_bsp_itm_printf_enable
        0x0000c354:    b500        ..      PUSH     {lr}
        0x0000c356:    490a        .I      LDR      r1,[pc,#40] ; [0xc380] = 0x10011010
        0x0000c358:    b085        ..      SUB      sp,sp,#0x14
        0x0000c35a:    2001        .       MOVS     r0,#1
        0x0000c35c:    6008        .`      STR      r0,[r1,#0]
        0x0000c35e:    f000fe05    ....    BL       am_hal_itm_enable ; 0xcf6c
        0x0000c362:    4808        .H      LDR      r0,[pc,#32] ; [0xc384] = 0xf4240
        0x0000c364:    9000        ..      STR      r0,[sp,#0]
        0x0000c366:    4668        hF      MOV      r0,sp
        0x0000c368:    f001f8a0    ....    BL       am_hal_tpiu_enable ; 0xd4ac
        0x0000c36c:    4806        .H      LDR      r0,[pc,#24] ; [0xc388] = 0xe4a8
        0x0000c36e:    6801        .h      LDR      r1,[r0,#0]
        0x0000c370:    2029        )       MOVS     r0,#0x29
        0x0000c372:    f000fc25    ..%.    BL       am_hal_gpio_pinconfig ; 0xcbc0
        0x0000c376:    4805        .H      LDR      r0,[pc,#20] ; [0xc38c] = 0xcfb5
        0x0000c378:    f001fa48    ..H.    BL       am_util_stdio_printf_init ; 0xd80c
        0x0000c37c:    b005        ..      ADD      sp,sp,#0x14
        0x0000c37e:    bd00        ..      POP      {pc}
    $d
        0x0000c380:    10011010    ....    DCD    268505104
        0x0000c384:    000f4240    @B..    DCD    1000000
        0x0000c388:    0000e4a8    ....    DCD    58536
        0x0000c38c:    0000cfb5    ....    DCD    53173
    $t
    i.am_bsp_low_power_init
    am_bsp_low_power_init
        0x0000c390:    e92d41f0    -..A    PUSH     {r4-r8,lr}
        0x0000c394:    f000fec2    ....    BL       am_hal_pwrctrl_low_power_init ; 0xd11c
        0x0000c398:    f000ffc0    ....    BL       am_hal_rtc_osc_disable ; 0xd31c
        0x0000c39c:    4f0b        .O      LDR      r7,[pc,#44] ; [0xc3cc] = 0x10011018
        0x0000c39e:    4e0c        .N      LDR      r6,[pc,#48] ; [0xc3d0] = 0xe424
        0x0000c3a0:    2400        .$      MOVS     r4,#0
        0x0000c3a2:    bf00        ..      NOP      
        0x0000c3a4:    f8575034    W.4P    LDR      r5,[r7,r4,LSL #3]
        0x0000c3a8:    6831        1h      LDR      r1,[r6,#0]
        0x0000c3aa:    4628        (F      MOV      r0,r5
        0x0000c3ac:    f000fc08    ....    BL       am_hal_gpio_pinconfig ; 0xcbc0
        0x0000c3b0:    2103        .!      MOVS     r1,#3
        0x0000c3b2:    4628        (F      MOV      r0,r5
        0x0000c3b4:    f000fd44    ..D.    BL       am_hal_gpio_state_write ; 0xce40
        0x0000c3b8:    2100        .!      MOVS     r1,#0
        0x0000c3ba:    4628        (F      MOV      r0,r5
        0x0000c3bc:    f000fd40    ..@.    BL       am_hal_gpio_state_write ; 0xce40
        0x0000c3c0:    1c64        d.      ADDS     r4,r4,#1
        0x0000c3c2:    2c05        .,      CMP      r4,#5
        0x0000c3c4:    d3ee        ..      BCC      0xc3a4 ; am_bsp_low_power_init + 20
        0x0000c3c6:    e8bd81f0    ....    POP      {r4-r8,pc}
    $d
        0x0000c3ca:    0000        ..      DCW    0
        0x0000c3cc:    10011018    ....    DCD    268505112
        0x0000c3d0:    0000e424    $...    DCD    58404
    $t
    i.am_devices_led_array_init
    am_devices_led_array_init
        0x0000c3d4:    b570        p.      PUSH     {r4-r6,lr}
        0x0000c3d6:    4605        .F      MOV      r5,r0
        0x0000c3d8:    460e        .F      MOV      r6,r1
        0x0000c3da:    b10d        ..      CBZ      r5,0xc3e0 ; am_devices_led_array_init + 12
        0x0000c3dc:    2e1f        ..      CMP      r6,#0x1f
        0x0000c3de:    d900        ..      BLS      0xc3e2 ; am_devices_led_array_init + 14
        0x0000c3e0:    bd70        p.      POP      {r4-r6,pc}
        0x0000c3e2:    2400        .$      MOVS     r4,#0
        0x0000c3e4:    e004        ..      B        0xc3f0 ; am_devices_led_array_init + 28
        0x0000c3e6:    eb0500c4    ....    ADD      r0,r5,r4,LSL #3
        0x0000c3ea:    f000f81f    ....    BL       am_devices_led_init ; 0xc42c
        0x0000c3ee:    1c64        d.      ADDS     r4,r4,#1
        0x0000c3f0:    42b4        .B      CMP      r4,r6
        0x0000c3f2:    d3f8        ..      BCC      0xc3e6 ; am_devices_led_array_init + 18
        0x0000c3f4:    bf00        ..      NOP      
        0x0000c3f6:    e7f3        ..      B        0xc3e0 ; am_devices_led_array_init + 12
    i.am_devices_led_array_out
    am_devices_led_array_out
        0x0000c3f8:    e92d41f0    -..A    PUSH     {r4-r8,lr}
        0x0000c3fc:    4607        .F      MOV      r7,r0
        0x0000c3fe:    460d        .F      MOV      r5,r1
        0x0000c400:    4616        .F      MOV      r6,r2
        0x0000c402:    2400        .$      MOVS     r4,#0
        0x0000c404:    e00d        ..      B        0xc422 ; am_devices_led_array_out + 42
        0x0000c406:    2001        .       MOVS     r0,#1
        0x0000c408:    40a0        .@      LSLS     r0,r0,r4
        0x0000c40a:    4030        0@      ANDS     r0,r0,r6
        0x0000c40c:    b120         .      CBZ      r0,0xc418 ; am_devices_led_array_out + 32
        0x0000c40e:    4621        !F      MOV      r1,r4
        0x0000c410:    4638        8F      MOV      r0,r7
        0x0000c412:    f000f85f    .._.    BL       am_devices_led_on ; 0xc4d4
        0x0000c416:    e003        ..      B        0xc420 ; am_devices_led_array_out + 40
        0x0000c418:    4621        !F      MOV      r1,r4
        0x0000c41a:    4638        8F      MOV      r0,r7
        0x0000c41c:    f000f836    ..6.    BL       am_devices_led_off ; 0xc48c
        0x0000c420:    1c64        d.      ADDS     r4,r4,#1
        0x0000c422:    42ac        .B      CMP      r4,r5
        0x0000c424:    d3ef        ..      BCC      0xc406 ; am_devices_led_array_out + 14
        0x0000c426:    e8bd81f0    ....    POP      {r4-r8,pc}
        0x0000c42a:    0000        ..      MOVS     r0,r0
    i.am_devices_led_init
    am_devices_led_init
        0x0000c42c:    b510        ..      PUSH     {r4,lr}
        0x0000c42e:    4604        .F      MOV      r4,r0
        0x0000c430:    b114        ..      CBZ      r4,0xc438 ; am_devices_led_init + 12
        0x0000c432:    6820         h      LDR      r0,[r4,#0]
        0x0000c434:    284a        J(      CMP      r0,#0x4a
        0x0000c436:    d300        ..      BCC      0xc43a ; am_devices_led_init + 14
        0x0000c438:    bd10        ..      POP      {r4,pc}
        0x0000c43a:    7920         y      LDRB     r0,[r4,#4]
        0x0000c43c:    f0000002    ....    AND      r0,r0,#2
        0x0000c440:    b178        x.      CBZ      r0,0xc462 ; am_devices_led_init + 54
        0x0000c442:    4910        .I      LDR      r1,[pc,#64] ; [0xc484] = 0xe424
        0x0000c444:    6820         h      LDR      r0,[r4,#0]
        0x0000c446:    6809        .h      LDR      r1,[r1,#0]
        0x0000c448:    f000fbba    ....    BL       am_hal_gpio_pinconfig ; 0xcbc0
        0x0000c44c:    2103        .!      MOVS     r1,#3
        0x0000c44e:    6820         h      LDR      r0,[r4,#0]
        0x0000c450:    f000fcf6    ....    BL       am_hal_gpio_state_write ; 0xce40
        0x0000c454:    7922        "y      LDRB     r2,[r4,#4]
        0x0000c456:    f0020101    ....    AND      r1,r2,#1
        0x0000c45a:    6820         h      LDR      r0,[r4,#0]
        0x0000c45c:    f000fcf0    ....    BL       am_hal_gpio_state_write ; 0xce40
        0x0000c460:    e00e        ..      B        0xc480 ; am_devices_led_init + 84
        0x0000c462:    4909        .I      LDR      r1,[pc,#36] ; [0xc488] = 0xe420
        0x0000c464:    6820         h      LDR      r0,[r4,#0]
        0x0000c466:    6809        .h      LDR      r1,[r1,#0]
        0x0000c468:    f000fbaa    ....    BL       am_hal_gpio_pinconfig ; 0xcbc0
        0x0000c46c:    2103        .!      MOVS     r1,#3
        0x0000c46e:    6820         h      LDR      r0,[r4,#0]
        0x0000c470:    f000fce6    ....    BL       am_hal_gpio_state_write ; 0xce40
        0x0000c474:    7922        "y      LDRB     r2,[r4,#4]
        0x0000c476:    f0020101    ....    AND      r1,r2,#1
        0x0000c47a:    6820         h      LDR      r0,[r4,#0]
        0x0000c47c:    f000fce0    ....    BL       am_hal_gpio_state_write ; 0xce40
        0x0000c480:    bf00        ..      NOP      
        0x0000c482:    e7d9        ..      B        0xc438 ; am_devices_led_init + 12
    $d
        0x0000c484:    0000e424    $...    DCD    58404
        0x0000c488:    0000e420     ...    DCD    58400
    $t
    i.am_devices_led_off
    am_devices_led_off
        0x0000c48c:    b570        p.      PUSH     {r4-r6,lr}
        0x0000c48e:    4604        .F      MOV      r4,r0
        0x0000c490:    460d        .F      MOV      r5,r1
        0x0000c492:    b12c        ,.      CBZ      r4,0xc4a0 ; am_devices_led_off + 20
        0x0000c494:    2d1f        .-      CMP      r5,#0x1f
        0x0000c496:    d203        ..      BCS      0xc4a0 ; am_devices_led_off + 20
        0x0000c498:    f8540035    T.5.    LDR      r0,[r4,r5,LSL #3]
        0x0000c49c:    284a        J(      CMP      r0,#0x4a
        0x0000c49e:    d300        ..      BCC      0xc4a2 ; am_devices_led_off + 22
        0x0000c4a0:    bd70        p.      POP      {r4-r6,pc}
        0x0000c4a2:    eb0400c5    ....    ADD      r0,r4,r5,LSL #3
        0x0000c4a6:    7900        .y      LDRB     r0,[r0,#4]
        0x0000c4a8:    f0000002    ....    AND      r0,r0,#2
        0x0000c4ac:    b158        X.      CBZ      r0,0xc4c6 ; am_devices_led_off + 58
        0x0000c4ae:    eb0402c5    ....    ADD      r2,r4,r5,LSL #3
        0x0000c4b2:    7912        .y      LDRB     r2,[r2,#4]
        0x0000c4b4:    f0020201    ....    AND      r2,r2,#1
        0x0000c4b8:    f0820101    ....    EOR      r1,r2,#1
        0x0000c4bc:    f8540035    T.5.    LDR      r0,[r4,r5,LSL #3]
        0x0000c4c0:    f000fcbe    ....    BL       am_hal_gpio_state_write ; 0xce40
        0x0000c4c4:    e004        ..      B        0xc4d0 ; am_devices_led_off + 68
        0x0000c4c6:    f8540035    T.5.    LDR      r0,[r4,r5,LSL #3]
        0x0000c4ca:    2103        .!      MOVS     r1,#3
        0x0000c4cc:    f000fcb8    ....    BL       am_hal_gpio_state_write ; 0xce40
        0x0000c4d0:    bf00        ..      NOP      
        0x0000c4d2:    e7e5        ..      B        0xc4a0 ; am_devices_led_off + 20
    i.am_devices_led_on
    am_devices_led_on
        0x0000c4d4:    b570        p.      PUSH     {r4-r6,lr}
        0x0000c4d6:    4604        .F      MOV      r4,r0
        0x0000c4d8:    460d        .F      MOV      r5,r1
        0x0000c4da:    b12c        ,.      CBZ      r4,0xc4e8 ; am_devices_led_on + 20
        0x0000c4dc:    2d1f        .-      CMP      r5,#0x1f
        0x0000c4de:    d203        ..      BCS      0xc4e8 ; am_devices_led_on + 20
        0x0000c4e0:    f8540035    T.5.    LDR      r0,[r4,r5,LSL #3]
        0x0000c4e4:    284a        J(      CMP      r0,#0x4a
        0x0000c4e6:    d300        ..      BCC      0xc4ea ; am_devices_led_on + 22
        0x0000c4e8:    bd70        p.      POP      {r4-r6,pc}
        0x0000c4ea:    eb0400c5    ....    ADD      r0,r4,r5,LSL #3
        0x0000c4ee:    7900        .y      LDRB     r0,[r0,#4]
        0x0000c4f0:    f0000002    ....    AND      r0,r0,#2
        0x0000c4f4:    b148        H.      CBZ      r0,0xc50a ; am_devices_led_on + 54
        0x0000c4f6:    eb0402c5    ....    ADD      r2,r4,r5,LSL #3
        0x0000c4fa:    7912        .y      LDRB     r2,[r2,#4]
        0x0000c4fc:    f0020101    ....    AND      r1,r2,#1
        0x0000c500:    f8540035    T.5.    LDR      r0,[r4,r5,LSL #3]
        0x0000c504:    f000fc9c    ....    BL       am_hal_gpio_state_write ; 0xce40
        0x0000c508:    e004        ..      B        0xc514 ; am_devices_led_on + 64
        0x0000c50a:    f8540035    T.5.    LDR      r0,[r4,r5,LSL #3]
        0x0000c50e:    2104        .!      MOVS     r1,#4
        0x0000c510:    f000fc96    ....    BL       am_hal_gpio_state_write ; 0xce40
        0x0000c514:    bf00        ..      NOP      
        0x0000c516:    e7e7        ..      B        0xc4e8 ; am_devices_led_on + 20
    i.am_hal_burst_mode_disable
    am_hal_burst_mode_disable
        0x0000c518:    b5f8        ..      PUSH     {r3-r7,lr}
        0x0000c51a:    4604        .F      MOV      r4,r0
        0x0000c51c:    f7fffe72    ..r.    BL       am_hal_interrupt_master_disable ; 0xc204
        0x0000c520:    4e12        .N      LDR      r6,[pc,#72] ; [0xc56c] = 0x40004034
        0x0000c522:    9000        ..      STR      r0,[sp,#0]
        0x0000c524:    2100        .!      MOVS     r1,#0
        0x0000c526:    4630        0F      MOV      r0,r6
        0x0000c528:    f000fb36    ..6.    BL       am_hal_flash_store_ui32 ; 0xcb98
        0x0000c52c:    9800        ..      LDR      r0,[sp,#0]
        0x0000c52e:    f7fffe6d    ..m.    BL       am_hal_interrupt_master_set ; 0xc20c
        0x0000c532:    480f        .H      LDR      r0,[pc,#60] ; [0xc570] = 0x40021000
        0x0000c534:    6a81        .j      LDR      r1,[r0,#0x28]
        0x0000c536:    f0214100    !..A    BIC      r1,r1,#0x80000000
        0x0000c53a:    6281        .b      STR      r1,[r0,#0x28]
        0x0000c53c:    2501        .%      MOVS     r5,#1
        0x0000c53e:    2300        .#      MOVS     r3,#0
        0x0000c540:    2204        ."      MOVS     r2,#4
        0x0000c542:    4631        1F      MOV      r1,r6
        0x0000c544:    f2427010    B..p    MOV      r0,#0x2710
        0x0000c548:    9500        ..      STR      r5,[sp,#0]
        0x0000c54a:    f000faf3    ....    BL       am_hal_flash_delay_status_check ; 0xcb34
        0x0000c54e:    2800        .(      CMP      r0,#0
        0x0000c550:    bf1c        ..      ITT      NE
        0x0000c552:    7025        %p      STRBNE   r5,[r4,#0]
        0x0000c554:    bdf8        ..      POPNE    {r3-r7,pc}
        0x0000c556:    f04f2040    O.@     MOV      r0,#0x40004000
        0x0000c55a:    6b40        @k      LDR      r0,[r0,#0x34]
        0x0000c55c:    f0100f04    ....    TST      r0,#4
        0x0000c560:    bf1a        ..      ITTE     NE
        0x0000c562:    2000        .       MOVNE    r0,#0
        0x0000c564:    7020         p      STRBNE   r0,[r4,#0]
        0x0000c566:    7025        %p      STRBEQ   r5,[r4,#0]
        0x0000c568:    2000        .       MOVS     r0,#0
        0x0000c56a:    bdf8        ..      POP      {r3-r7,pc}
    $d
        0x0000c56c:    40004034    4@.@    DCD    1073758260
        0x0000c570:    40021000    ...@    DCD    1073876992
    $t
    i.am_hal_burst_mode_enable
    am_hal_burst_mode_enable
        0x0000c574:    b5f8        ..      PUSH     {r3-r7,lr}
        0x0000c576:    4604        .F      MOV      r4,r0
        0x0000c578:    4814        .H      LDR      r0,[pc,#80] ; [0xc5cc] = 0x1001106c
        0x0000c57a:    2501        .%      MOVS     r5,#1
        0x0000c57c:    7800        .x      LDRB     r0,[r0,#0]
        0x0000c57e:    2800        .(      CMP      r0,#0
        0x0000c580:    bf02        ..      ITTT     EQ
        0x0000c582:    7025        %p      STRBEQ   r5,[r4,#0]
        0x0000c584:    2007        .       MOVEQ    r0,#7
        0x0000c586:    bdf8        ..      POPEQ    {r3-r7,pc}
        0x0000c588:    f04f2640    O.@&    MOV      r6,#0x40004000
        0x0000c58c:    6b70        pk      LDR      r0,[r6,#0x34]
        0x0000c58e:    f0400001    @...    ORR      r0,r0,#1
        0x0000c592:    6370        pc      STR      r0,[r6,#0x34]
        0x0000c594:    2304        .#      MOVS     r3,#4
        0x0000c596:    461a        .F      MOV      r2,r3
        0x0000c598:    490d        .I      LDR      r1,[pc,#52] ; [0xc5d0] = 0x40004034
        0x0000c59a:    f2427010    B..p    MOV      r0,#0x2710
        0x0000c59e:    9500        ..      STR      r5,[sp,#0]
        0x0000c5a0:    f000fac8    ....    BL       am_hal_flash_delay_status_check ; 0xcb34
        0x0000c5a4:    2800        .(      CMP      r0,#0
        0x0000c5a6:    bf1c        ..      ITT      NE
        0x0000c5a8:    7025        %p      STRBNE   r5,[r4,#0]
        0x0000c5aa:    bdf8        ..      POPNE    {r3-r7,pc}
        0x0000c5ac:    6b70        pk      LDR      r0,[r6,#0x34]
        0x0000c5ae:    f0100f02    ....    TST      r0,#2
        0x0000c5b2:    bf02        ..      ITTT     EQ
        0x0000c5b4:    7025        %p      STRBEQ   r5,[r4,#0]
        0x0000c5b6:    2001        .       MOVEQ    r0,#1
        0x0000c5b8:    bdf8        ..      POPEQ    {r3-r7,pc}
        0x0000c5ba:    6b70        pk      LDR      r0,[r6,#0x34]
        0x0000c5bc:    f0100f04    ....    TST      r0,#4
        0x0000c5c0:    bf1a        ..      ITTE     NE
        0x0000c5c2:    2000        .       MOVNE    r0,#0
        0x0000c5c4:    7020         p      STRBNE   r0,[r4,#0]
        0x0000c5c6:    7025        %p      STRBEQ   r5,[r4,#0]
        0x0000c5c8:    2000        .       MOVS     r0,#0
        0x0000c5ca:    bdf8        ..      POP      {r3-r7,pc}
    $d
        0x0000c5cc:    1001106c    l...    DCD    268505196
        0x0000c5d0:    40004034    4@.@    DCD    1073758260
    $t
    i.am_hal_cachectrl_config
    am_hal_cachectrl_config
        0x0000c5d4:    b538        8.      PUSH     {r3-r5,lr}
        0x0000c5d6:    4604        .F      MOV      r4,r0
        0x0000c5d8:    f7fffe14    ....    BL       am_hal_interrupt_master_disable ; 0xc204
        0x0000c5dc:    4d0f        .M      LDR      r5,[pc,#60] ; [0xc61c] = 0x40018000
        0x0000c5de:    9000        ..      STR      r0,[sp,#0]
        0x0000c5e0:    6828        (h      LDR      r0,[r5,#0]
        0x0000c5e2:    f4207040     .@p    BIC      r0,r0,#0x300
        0x0000c5e6:    6028        (`      STR      r0,[r5,#0]
        0x0000c5e8:    9800        ..      LDR      r0,[sp,#0]
        0x0000c5ea:    f7fffe0f    ....    BL       am_hal_interrupt_master_set ; 0xc20c
        0x0000c5ee:    78a0        .x      LDRB     r0,[r4,#2]
        0x0000c5f0:    2102        .!      MOVS     r1,#2
        0x0000c5f2:    ea010040    ..@.    AND      r0,r1,r0,LSL #1
        0x0000c5f6:    7821        !x      LDRB     r1,[r4,#0]
        0x0000c5f8:    22f0        ."      MOVS     r2,#0xf0
        0x0000c5fa:    ea021101    ....    AND      r1,r2,r1,LSL #4
        0x0000c5fe:    4308        .C      ORRS     r0,r0,r1
        0x0000c600:    7861        ax      LDRB     r1,[r4,#1]
        0x0000c602:    f44f7240    O.@r    MOV      r2,#0x300
        0x0000c606:    ea022101    ...!    AND      r1,r2,r1,LSL #8
        0x0000c60a:    4308        .C      ORRS     r0,r0,r1
        0x0000c60c:    f4406080    @..`    ORR      r0,r0,#0x400
        0x0000c610:    f4401080    @...    ORR      r0,r0,#0x100000
        0x0000c614:    6028        (`      STR      r0,[r5,#0]
        0x0000c616:    2000        .       MOVS     r0,#0
        0x0000c618:    bd38        8.      POP      {r3-r5,pc}
    $d
        0x0000c61a:    0000        ..      DCW    0
        0x0000c61c:    40018000    ...@    DCD    1073840128
    $t
    i.am_hal_cachectrl_control
    am_hal_cachectrl_control
        0x0000c620:    b5f8        ..      PUSH     {r3-r7,lr}
        0x0000c622:    2812        .(      CMP      r0,#0x12
        0x0000c624:    f08081b9    ....    BCS.W    0xc99a ; am_hal_cachectrl_control + 890
        0x0000c628:    e8dff000    ....    TBB      [pc,r0]
    $d
        0x0000c62c:    140b09fe    ....    DCD    336267774
        0x0000c630:    1e1c1a17    ....    DCD    505158167
        0x0000c634:    3f332721    !'3?    DCD    1060316961
        0x0000c638:    fcfde793    ....    DCD    4244498323
        0x0000c63c:    fafb        ..      DCW    64251
    $t
        0x0000c63e:    2001        .       MOVS     r0,#1
        0x0000c640:    e017        ..      B        0xc672 ; am_hal_cachectrl_control + 82
        0x0000c642:    48e0        .H      LDR      r0,[pc,#896] ; [0xc9c4] = 0x40018000
        0x0000c644:    6800        .h      LDR      r0,[r0,#0]
        0x0000c646:    f0107f80    ....    TST      r0,#0x1000000
        0x0000c64a:    bf0a        ..      ITET     EQ
        0x0000c64c:    2007        .       MOVEQ    r0,#7
        0x0000c64e:    2002        .       MOVNE    r0,#2
        0x0000c650:    bdf8        ..      POPEQ    {r3-r7,pc}
        0x0000c652:    e00e        ..      B        0xc672 ; am_hal_cachectrl_control + 82
        0x0000c654:    f44f6088    O..`    MOV      r0,#0x440
        0x0000c658:    e00b        ..      B        0xc672 ; am_hal_cachectrl_control + 82
        0x0000c65a:    f44f7008    O..p    MOV      r0,#0x220
        0x0000c65e:    e008        ..      B        0xc672 ; am_hal_cachectrl_control + 82
        0x0000c660:    2040        @       MOVS     r0,#0x40
        0x0000c662:    e006        ..      B        0xc672 ; am_hal_cachectrl_control + 82
        0x0000c664:    2020                MOVS     r0,#0x20
        0x0000c666:    e004        ..      B        0xc672 ; am_hal_cachectrl_control + 82
        0x0000c668:    f44f6080    O..`    MOV      r0,#0x400
        0x0000c66c:    e001        ..      B        0xc672 ; am_hal_cachectrl_control + 82
        0x0000c66e:    f44f7000    O..p    MOV      r0,#0x200
        0x0000c672:    49d4        .I      LDR      r1,[pc,#848] ; [0xc9c4] = 0x40018000
        0x0000c674:    6088        .`      STR      r0,[r1,#8]
        0x0000c676:    2000        .       MOVS     r0,#0
        0x0000c678:    bdf8        ..      POP      {r3-r7,pc}
        0x0000c67a:    f7fffdc3    ....    BL       am_hal_interrupt_master_disable ; 0xc204
        0x0000c67e:    9000        ..      STR      r0,[sp,#0]
        0x0000c680:    48d0        .H      LDR      r0,[pc,#832] ; [0xc9c4] = 0x40018000
        0x0000c682:    6801        .h      LDR      r1,[r0,#0]
        0x0000c684:    f0417180    A..q    ORR      r1,r1,#0x1000000
        0x0000c688:    6001        .`      STR      r1,[r0,#0]
        0x0000c68a:    9800        ..      LDR      r0,[sp,#0]
        0x0000c68c:    f7fffdbe    ....    BL       am_hal_interrupt_master_set ; 0xc20c
        0x0000c690:    e7f1        ..      B        0xc676 ; am_hal_cachectrl_control + 86
        0x0000c692:    f7fffdb7    ....    BL       am_hal_interrupt_master_disable ; 0xc204
        0x0000c696:    9000        ..      STR      r0,[sp,#0]
        0x0000c698:    48ca        .H      LDR      r0,[pc,#808] ; [0xc9c4] = 0x40018000
        0x0000c69a:    6801        .h      LDR      r1,[r0,#0]
        0x0000c69c:    f0217180    !..q    BIC      r1,r1,#0x1000000
        0x0000c6a0:    6001        .`      STR      r1,[r0,#0]
        0x0000c6a2:    9800        ..      LDR      r0,[sp,#0]
        0x0000c6a4:    f7fffdb2    ....    BL       am_hal_interrupt_master_set ; 0xc20c
        0x0000c6a8:    e7e5        ..      B        0xc676 ; am_hal_cachectrl_control + 86
        0x0000c6aa:    2000        .       MOVS     r0,#0
        0x0000c6ac:    f44f5140    O.@Q    MOV      r1,#0x3000
        0x0000c6b0:    4cc5        .L      LDR      r4,[pc,#788] ; [0xc9c8] = 0x40018100
        0x0000c6b2:    4605        .F      MOV      r5,r0
        0x0000c6b4:    ea013600    ...6    AND      r6,r1,r0,LSL #12
        0x0000c6b8:    eb040785    ....    ADD      r7,r4,r5,LSL #2
        0x0000c6bc:    f7fffda2    ....    BL       am_hal_interrupt_master_disable ; 0xc204
        0x0000c6c0:    9000        ..      STR      r0,[sp,#0]
        0x0000c6c2:    4638        8F      MOV      r0,r7
        0x0000c6c4:    f000fa64    ..d.    BL       am_hal_flash_load_ui32 ; 0xcb90
        0x0000c6c8:    f420507c     .|P    BIC      r0,r0,#0x3f00
        0x0000c6cc:    4330        0C      ORRS     r0,r0,r6
        0x0000c6ce:    f44061e0    @..a    ORR      r1,r0,#0x700
        0x0000c6d2:    4638        8F      MOV      r0,r7
        0x0000c6d4:    f000fa60    ..`.    BL       am_hal_flash_store_ui32 ; 0xcb98
        0x0000c6d8:    9800        ..      LDR      r0,[sp,#0]
        0x0000c6da:    f7fffd97    ....    BL       am_hal_interrupt_master_set ; 0xc20c
        0x0000c6de:    1c6d        m.      ADDS     r5,r5,#1
        0x0000c6e0:    2d04        .-      CMP      r5,#4
        0x0000c6e2:    d3e9        ..      BCC      0xc6b8 ; am_hal_cachectrl_control + 152
        0x0000c6e4:    2007        .       MOVS     r0,#7
        0x0000c6e6:    2500        .%      MOVS     r5,#0
        0x0000c6e8:    2170        p!      MOVS     r1,#0x70
        0x0000c6ea:    ea011600    ....    AND      r6,r1,r0,LSL #4
        0x0000c6ee:    bf00        ..      NOP      
        0x0000c6f0:    eb040785    ....    ADD      r7,r4,r5,LSL #2
        0x0000c6f4:    f7fffd86    ....    BL       am_hal_interrupt_master_disable ; 0xc204
        0x0000c6f8:    9000        ..      STR      r0,[sp,#0]
        0x0000c6fa:    4638        8F      MOV      r0,r7
        0x0000c6fc:    f000fa48    ..H.    BL       am_hal_flash_load_ui32 ; 0xcb90
        0x0000c700:    f4206077     .w`    BIC      r0,r0,#0xf70
        0x0000c704:    4330        0C      ORRS     r0,r0,r6
        0x0000c706:    f44061e0    @..a    ORR      r1,r0,#0x700
        0x0000c70a:    4638        8F      MOV      r0,r7
        0x0000c70c:    f000fa44    ..D.    BL       am_hal_flash_store_ui32 ; 0xcb98
        0x0000c710:    9800        ..      LDR      r0,[sp,#0]
        0x0000c712:    f7fffd7b    ..{.    BL       am_hal_interrupt_master_set ; 0xc20c
        0x0000c716:    1c6d        m.      ADDS     r5,r5,#1
        0x0000c718:    2d04        .-      CMP      r5,#4
        0x0000c71a:    d3e9        ..      BCC      0xc6f0 ; am_hal_cachectrl_control + 208
        0x0000c71c:    2603        .&      MOVS     r6,#3
        0x0000c71e:    2500        .%      MOVS     r5,#0
        0x0000c720:    eb040785    ....    ADD      r7,r4,r5,LSL #2
        0x0000c724:    f7fffd6e    ..n.    BL       am_hal_interrupt_master_disable ; 0xc204
        0x0000c728:    9000        ..      STR      r0,[sp,#0]
        0x0000c72a:    4638        8F      MOV      r0,r7
        0x0000c72c:    f000fa30    ..0.    BL       am_hal_flash_load_ui32 ; 0xcb90
        0x0000c730:    f020000f     ...    BIC      r0,r0,#0xf
        0x0000c734:    f4206070     .p`    BIC      r0,r0,#0xf00
        0x0000c738:    4330        0C      ORRS     r0,r0,r6
        0x0000c73a:    f44061e0    @..a    ORR      r1,r0,#0x700
        0x0000c73e:    4638        8F      MOV      r0,r7
        0x0000c740:    f000fa2a    ..*.    BL       am_hal_flash_store_ui32 ; 0xcb98
        0x0000c744:    9800        ..      LDR      r0,[sp,#0]
        0x0000c746:    f7fffd61    ..a.    BL       am_hal_interrupt_master_set ; 0xc20c
        0x0000c74a:    1c6d        m.      ADDS     r5,r5,#1
        0x0000c74c:    2d04        .-      CMP      r5,#4
        0x0000c74e:    d3e7        ..      BCC      0xc720 ; am_hal_cachectrl_control + 256
        0x0000c750:    e791        ..      B        0xc676 ; am_hal_cachectrl_control + 86
        0x0000c752:    2001        .       MOVS     r0,#1
        0x0000c754:    f44f5140    O.@Q    MOV      r1,#0x3000
        0x0000c758:    4c9b        .L      LDR      r4,[pc,#620] ; [0xc9c8] = 0x40018100
        0x0000c75a:    2500        .%      MOVS     r5,#0
        0x0000c75c:    ea013600    ...6    AND      r6,r1,r0,LSL #12
        0x0000c760:    eb040785    ....    ADD      r7,r4,r5,LSL #2
        0x0000c764:    f7fffd4e    ..N.    BL       am_hal_interrupt_master_disable ; 0xc204
        0x0000c768:    9000        ..      STR      r0,[sp,#0]
        0x0000c76a:    4638        8F      MOV      r0,r7
        0x0000c76c:    f000fa10    ....    BL       am_hal_flash_load_ui32 ; 0xcb90
        0x0000c770:    f420507c     .|P    BIC      r0,r0,#0x3f00
        0x0000c774:    4330        0C      ORRS     r0,r0,r6
        0x0000c776:    f44061e0    @..a    ORR      r1,r0,#0x700
        0x0000c77a:    4638        8F      MOV      r0,r7
        0x0000c77c:    f000fa0c    ....    BL       am_hal_flash_store_ui32 ; 0xcb98
        0x0000c780:    9800        ..      LDR      r0,[sp,#0]
        0x0000c782:    f7fffd43    ..C.    BL       am_hal_interrupt_master_set ; 0xc20c
        0x0000c786:    1c6d        m.      ADDS     r5,r5,#1
        0x0000c788:    2d04        .-      CMP      r5,#4
        0x0000c78a:    d3e9        ..      BCC      0xc760 ; am_hal_cachectrl_control + 320
        0x0000c78c:    2005        .       MOVS     r0,#5
        0x0000c78e:    2500        .%      MOVS     r5,#0
        0x0000c790:    2170        p!      MOVS     r1,#0x70
        0x0000c792:    ea011600    ....    AND      r6,r1,r0,LSL #4
        0x0000c796:    bf00        ..      NOP      
        0x0000c798:    eb040785    ....    ADD      r7,r4,r5,LSL #2
        0x0000c79c:    f7fffd32    ..2.    BL       am_hal_interrupt_master_disable ; 0xc204
        0x0000c7a0:    9000        ..      STR      r0,[sp,#0]
        0x0000c7a2:    4638        8F      MOV      r0,r7
        0x0000c7a4:    f000f9f4    ....    BL       am_hal_flash_load_ui32 ; 0xcb90
        0x0000c7a8:    f4206077     .w`    BIC      r0,r0,#0xf70
        0x0000c7ac:    4330        0C      ORRS     r0,r0,r6
        0x0000c7ae:    f44061e0    @..a    ORR      r1,r0,#0x700
        0x0000c7b2:    4638        8F      MOV      r0,r7
        0x0000c7b4:    f000f9f0    ....    BL       am_hal_flash_store_ui32 ; 0xcb98
        0x0000c7b8:    9800        ..      LDR      r0,[sp,#0]
        0x0000c7ba:    f7fffd27    ..'.    BL       am_hal_interrupt_master_set ; 0xc20c
        0x0000c7be:    1c6d        m.      ADDS     r5,r5,#1
        0x0000c7c0:    2d04        .-      CMP      r5,#4
        0x0000c7c2:    d3e9        ..      BCC      0xc798 ; am_hal_cachectrl_control + 376
        0x0000c7c4:    2601        .&      MOVS     r6,#1
        0x0000c7c6:    2500        .%      MOVS     r5,#0
        0x0000c7c8:    eb040785    ....    ADD      r7,r4,r5,LSL #2
        0x0000c7cc:    f7fffd1a    ....    BL       am_hal_interrupt_master_disable ; 0xc204
        0x0000c7d0:    9000        ..      STR      r0,[sp,#0]
        0x0000c7d2:    4638        8F      MOV      r0,r7
        0x0000c7d4:    f000f9dc    ....    BL       am_hal_flash_load_ui32 ; 0xcb90
        0x0000c7d8:    f020000f     ...    BIC      r0,r0,#0xf
        0x0000c7dc:    f4206070     .p`    BIC      r0,r0,#0xf00
        0x0000c7e0:    4330        0C      ORRS     r0,r0,r6
        0x0000c7e2:    f44061e0    @..a    ORR      r1,r0,#0x700
        0x0000c7e6:    4638        8F      MOV      r0,r7
        0x0000c7e8:    f000f9d6    ....    BL       am_hal_flash_store_ui32 ; 0xcb98
        0x0000c7ec:    9800        ..      LDR      r0,[sp,#0]
        0x0000c7ee:    f7fffd0d    ....    BL       am_hal_interrupt_master_set ; 0xc20c
        0x0000c7f2:    1c6d        m.      ADDS     r5,r5,#1
        0x0000c7f4:    2d04        .-      CMP      r5,#4
        0x0000c7f6:    d3e7        ..      BCC      0xc7c8 ; am_hal_cachectrl_control + 424
        0x0000c7f8:    e73d        =.      B        0xc676 ; am_hal_cachectrl_control + 86
        0x0000c7fa:    2001        .       MOVS     r0,#1
        0x0000c7fc:    f44f5140    O.@Q    MOV      r1,#0x3000
        0x0000c800:    4c71        qL      LDR      r4,[pc,#452] ; [0xc9c8] = 0x40018100
        0x0000c802:    2500        .%      MOVS     r5,#0
        0x0000c804:    ea013600    ...6    AND      r6,r1,r0,LSL #12
        0x0000c808:    eb040785    ....    ADD      r7,r4,r5,LSL #2
        0x0000c80c:    f7fffcfa    ....    BL       am_hal_interrupt_master_disable ; 0xc204
        0x0000c810:    9000        ..      STR      r0,[sp,#0]
        0x0000c812:    4638        8F      MOV      r0,r7
        0x0000c814:    f000f9bc    ....    BL       am_hal_flash_load_ui32 ; 0xcb90
        0x0000c818:    f420507c     .|P    BIC      r0,r0,#0x3f00
        0x0000c81c:    4330        0C      ORRS     r0,r0,r6
        0x0000c81e:    e004        ..      B        0xc82a ; am_hal_cachectrl_control + 522
        0x0000c820:    e0ad        ..      B        0xc97e ; am_hal_cachectrl_control + 862
        0x0000c822:    e086        ..      B        0xc932 ; am_hal_cachectrl_control + 786
        0x0000c824:    e065        e.      B        0xc8f2 ; am_hal_cachectrl_control + 722
        0x0000c826:    e042        B.      B        0xc8ae ; am_hal_cachectrl_control + 654
        0x0000c828:    e0a2        ..      B        0xc970 ; am_hal_cachectrl_control + 848
        0x0000c82a:    f44061e0    @..a    ORR      r1,r0,#0x700
        0x0000c82e:    4638        8F      MOV      r0,r7
        0x0000c830:    f000f9b2    ....    BL       am_hal_flash_store_ui32 ; 0xcb98
        0x0000c834:    9800        ..      LDR      r0,[sp,#0]
        0x0000c836:    f7fffce9    ....    BL       am_hal_interrupt_master_set ; 0xc20c
        0x0000c83a:    1c6d        m.      ADDS     r5,r5,#1
        0x0000c83c:    2d04        .-      CMP      r5,#4
        0x0000c83e:    d3e3        ..      BCC      0xc808 ; am_hal_cachectrl_control + 488
        0x0000c840:    2006        .       MOVS     r0,#6
        0x0000c842:    2500        .%      MOVS     r5,#0
        0x0000c844:    2170        p!      MOVS     r1,#0x70
        0x0000c846:    ea011600    ....    AND      r6,r1,r0,LSL #4
        0x0000c84a:    bf00        ..      NOP      
        0x0000c84c:    eb040785    ....    ADD      r7,r4,r5,LSL #2
        0x0000c850:    f7fffcd8    ....    BL       am_hal_interrupt_master_disable ; 0xc204
        0x0000c854:    9000        ..      STR      r0,[sp,#0]
        0x0000c856:    4638        8F      MOV      r0,r7
        0x0000c858:    f000f99a    ....    BL       am_hal_flash_load_ui32 ; 0xcb90
        0x0000c85c:    f4206077     .w`    BIC      r0,r0,#0xf70
        0x0000c860:    4330        0C      ORRS     r0,r0,r6
        0x0000c862:    f44061e0    @..a    ORR      r1,r0,#0x700
        0x0000c866:    4638        8F      MOV      r0,r7
        0x0000c868:    f000f996    ....    BL       am_hal_flash_store_ui32 ; 0xcb98
        0x0000c86c:    9800        ..      LDR      r0,[sp,#0]
        0x0000c86e:    f7fffccd    ....    BL       am_hal_interrupt_master_set ; 0xc20c
        0x0000c872:    1c6d        m.      ADDS     r5,r5,#1
        0x0000c874:    2d04        .-      CMP      r5,#4
        0x0000c876:    d3e9        ..      BCC      0xc84c ; am_hal_cachectrl_control + 556
        0x0000c878:    2601        .&      MOVS     r6,#1
        0x0000c87a:    2500        .%      MOVS     r5,#0
        0x0000c87c:    eb040785    ....    ADD      r7,r4,r5,LSL #2
        0x0000c880:    f7fffcc0    ....    BL       am_hal_interrupt_master_disable ; 0xc204
        0x0000c884:    9000        ..      STR      r0,[sp,#0]
        0x0000c886:    4638        8F      MOV      r0,r7
        0x0000c888:    f000f982    ....    BL       am_hal_flash_load_ui32 ; 0xcb90
        0x0000c88c:    f020000f     ...    BIC      r0,r0,#0xf
        0x0000c890:    f4206070     .p`    BIC      r0,r0,#0xf00
        0x0000c894:    4330        0C      ORRS     r0,r0,r6
        0x0000c896:    f44061e0    @..a    ORR      r1,r0,#0x700
        0x0000c89a:    4638        8F      MOV      r0,r7
        0x0000c89c:    f000f97c    ..|.    BL       am_hal_flash_store_ui32 ; 0xcb98
        0x0000c8a0:    9800        ..      LDR      r0,[sp,#0]
        0x0000c8a2:    f7fffcb3    ....    BL       am_hal_interrupt_master_set ; 0xc20c
        0x0000c8a6:    1c6d        m.      ADDS     r5,r5,#1
        0x0000c8a8:    2d04        .-      CMP      r5,#4
        0x0000c8aa:    d3e7        ..      BCC      0xc87c ; am_hal_cachectrl_control + 604
        0x0000c8ac:    e6e3        ..      B        0xc676 ; am_hal_cachectrl_control + 86
        0x0000c8ae:    2900        .)      CMP      r1,#0
        0x0000c8b0:    d073        s.      BEQ      0xc99a ; am_hal_cachectrl_control + 890
        0x0000c8b2:    6808        .h      LDR      r0,[r1,#0]
        0x0000c8b4:    2803        .(      CMP      r0,#3
        0x0000c8b6:    d840        @.      BHI      0xc93a ; am_hal_cachectrl_control + 794
        0x0000c8b8:    f44f5140    O.@Q    MOV      r1,#0x3000
        0x0000c8bc:    4f42        BO      LDR      r7,[pc,#264] ; [0xc9c8] = 0x40018100
        0x0000c8be:    2400        .$      MOVS     r4,#0
        0x0000c8c0:    ea013500    ...5    AND      r5,r1,r0,LSL #12
        0x0000c8c4:    eb070684    ....    ADD      r6,r7,r4,LSL #2
        0x0000c8c8:    f7fffc9c    ....    BL       am_hal_interrupt_master_disable ; 0xc204
        0x0000c8cc:    9000        ..      STR      r0,[sp,#0]
        0x0000c8ce:    4630        0F      MOV      r0,r6
        0x0000c8d0:    f000f95e    ..^.    BL       am_hal_flash_load_ui32 ; 0xcb90
        0x0000c8d4:    f420507c     .|P    BIC      r0,r0,#0x3f00
        0x0000c8d8:    4328        (C      ORRS     r0,r0,r5
        0x0000c8da:    f44061e0    @..a    ORR      r1,r0,#0x700
        0x0000c8de:    4630        0F      MOV      r0,r6
        0x0000c8e0:    f000f95a    ..Z.    BL       am_hal_flash_store_ui32 ; 0xcb98
        0x0000c8e4:    9800        ..      LDR      r0,[sp,#0]
        0x0000c8e6:    f7fffc91    ....    BL       am_hal_interrupt_master_set ; 0xc20c
        0x0000c8ea:    1c64        d.      ADDS     r4,r4,#1
        0x0000c8ec:    2c04        .,      CMP      r4,#4
        0x0000c8ee:    d3e9        ..      BCC      0xc8c4 ; am_hal_cachectrl_control + 676
        0x0000c8f0:    e6c1        ..      B        0xc676 ; am_hal_cachectrl_control + 86
        0x0000c8f2:    b3e9        ..      CBZ      r1,0xc970 ; am_hal_cachectrl_control + 848
        0x0000c8f4:    6808        .h      LDR      r0,[r1,#0]
        0x0000c8f6:    2807        .(      CMP      r0,#7
        0x0000c8f8:    d81f        ..      BHI      0xc93a ; am_hal_cachectrl_control + 794
        0x0000c8fa:    2400        .$      MOVS     r4,#0
        0x0000c8fc:    2170        p!      MOVS     r1,#0x70
        0x0000c8fe:    4f32        2O      LDR      r7,[pc,#200] ; [0xc9c8] = 0x40018100
        0x0000c900:    ea011600    ....    AND      r6,r1,r0,LSL #4
        0x0000c904:    eb070584    ....    ADD      r5,r7,r4,LSL #2
        0x0000c908:    f7fffc7c    ..|.    BL       am_hal_interrupt_master_disable ; 0xc204
        0x0000c90c:    9000        ..      STR      r0,[sp,#0]
        0x0000c90e:    4628        (F      MOV      r0,r5
        0x0000c910:    f000f93e    ..>.    BL       am_hal_flash_load_ui32 ; 0xcb90
        0x0000c914:    f4206077     .w`    BIC      r0,r0,#0xf70
        0x0000c918:    4330        0C      ORRS     r0,r0,r6
        0x0000c91a:    f44061e0    @..a    ORR      r1,r0,#0x700
        0x0000c91e:    4628        (F      MOV      r0,r5
        0x0000c920:    f000f93a    ..:.    BL       am_hal_flash_store_ui32 ; 0xcb98
        0x0000c924:    9800        ..      LDR      r0,[sp,#0]
        0x0000c926:    f7fffc71    ..q.    BL       am_hal_interrupt_master_set ; 0xc20c
        0x0000c92a:    1c64        d.      ADDS     r4,r4,#1
        0x0000c92c:    2c04        .,      CMP      r4,#4
        0x0000c92e:    d3e9        ..      BCC      0xc904 ; am_hal_cachectrl_control + 740
        0x0000c930:    e6a1        ..      B        0xc676 ; am_hal_cachectrl_control + 86
        0x0000c932:    b1e9        ..      CBZ      r1,0xc970 ; am_hal_cachectrl_control + 848
        0x0000c934:    6808        .h      LDR      r0,[r1,#0]
        0x0000c936:    280f        .(      CMP      r0,#0xf
        0x0000c938:    d901        ..      BLS      0xc93e ; am_hal_cachectrl_control + 798
        0x0000c93a:    2001        .       MOVS     r0,#1
        0x0000c93c:    bdf8        ..      POP      {r3-r7,pc}
        0x0000c93e:    4f22        "O      LDR      r7,[pc,#136] ; [0xc9c8] = 0x40018100
        0x0000c940:    2400        .$      MOVS     r4,#0
        0x0000c942:    f000050f    ....    AND      r5,r0,#0xf
        0x0000c946:    bf00        ..      NOP      
        0x0000c948:    eb070684    ....    ADD      r6,r7,r4,LSL #2
        0x0000c94c:    f7fffc5a    ..Z.    BL       am_hal_interrupt_master_disable ; 0xc204
        0x0000c950:    9000        ..      STR      r0,[sp,#0]
        0x0000c952:    4630        0F      MOV      r0,r6
        0x0000c954:    f000f91c    ....    BL       am_hal_flash_load_ui32 ; 0xcb90
        0x0000c958:    f020000f     ...    BIC      r0,r0,#0xf
        0x0000c95c:    f4206070     .p`    BIC      r0,r0,#0xf00
        0x0000c960:    4328        (C      ORRS     r0,r0,r5
        0x0000c962:    f44061e0    @..a    ORR      r1,r0,#0x700
        0x0000c966:    4630        0F      MOV      r0,r6
        0x0000c968:    f000f916    ....    BL       am_hal_flash_store_ui32 ; 0xcb98
        0x0000c96c:    9800        ..      LDR      r0,[sp,#0]
        0x0000c96e:    e000        ..      B        0xc972 ; am_hal_cachectrl_control + 850
        0x0000c970:    e013        ..      B        0xc99a ; am_hal_cachectrl_control + 890
        0x0000c972:    f7fffc4b    ..K.    BL       am_hal_interrupt_master_set ; 0xc20c
        0x0000c976:    1c64        d.      ADDS     r4,r4,#1
        0x0000c978:    2c04        .,      CMP      r4,#4
        0x0000c97a:    d3e5        ..      BCC      0xc948 ; am_hal_cachectrl_control + 808
        0x0000c97c:    e67b        {.      B        0xc676 ; am_hal_cachectrl_control + 86
        0x0000c97e:    b161        a.      CBZ      r1,0xc99a ; am_hal_cachectrl_control + 890
        0x0000c980:    684a        Jh      LDR      r2,[r1,#4]
        0x0000c982:    4610        .F      MOV      r0,r2
        0x0000c984:    f36f101a    o...    BFC      r0,#4,#23
        0x0000c988:    b938        8.      CBNZ     r0,0xc99a ; am_hal_cachectrl_control + 890
        0x0000c98a:    6888        .h      LDR      r0,[r1,#8]
        0x0000c98c:    f36f101a    o...    BFC      r0,#4,#23
        0x0000c990:    b918        ..      CBNZ     r0,0xc99a ; am_hal_cachectrl_control + 890
        0x0000c992:    7808        .x      LDRB     r0,[r1,#0]
        0x0000c994:    b118        ..      CBZ      r0,0xc99e ; am_hal_cachectrl_control + 894
        0x0000c996:    2801        .(      CMP      r0,#1
        0x0000c998:    d00a        ..      BEQ      0xc9b0 ; am_hal_cachectrl_control + 912
        0x0000c99a:    2006        .       MOVS     r0,#6
        0x0000c99c:    bdf8        ..      POP      {r3-r7,pc}
        0x0000c99e:    4809        .H      LDR      r0,[pc,#36] ; [0xc9c4] = 0x40018000
        0x0000c9a0:    6102        .a      STR      r2,[r0,#0x10]
        0x0000c9a2:    688a        .h      LDR      r2,[r1,#8]
        0x0000c9a4:    6142        Ba      STR      r2,[r0,#0x14]
        0x0000c9a6:    784a        Jx      LDRB     r2,[r1,#1]
        0x0000c9a8:    6801        .h      LDR      r1,[r0,#0]
        0x0000c9aa:    f3620182    b...    BFI      r1,r2,#2,#1
        0x0000c9ae:    e007        ..      B        0xc9c0 ; am_hal_cachectrl_control + 928
        0x0000c9b0:    4804        .H      LDR      r0,[pc,#16] ; [0xc9c4] = 0x40018000
        0x0000c9b2:    6182        .a      STR      r2,[r0,#0x18]
        0x0000c9b4:    688a        .h      LDR      r2,[r1,#8]
        0x0000c9b6:    61c2        .a      STR      r2,[r0,#0x1c]
        0x0000c9b8:    784a        Jx      LDRB     r2,[r1,#1]
        0x0000c9ba:    6801        .h      LDR      r1,[r0,#0]
        0x0000c9bc:    f36201c3    b...    BFI      r1,r2,#3,#1
        0x0000c9c0:    6001        .`      STR      r1,[r0,#0]
        0x0000c9c2:    e658        X.      B        0xc676 ; am_hal_cachectrl_control + 86
    $d
        0x0000c9c4:    40018000    ...@    DCD    1073840128
        0x0000c9c8:    40018100    ...@    DCD    1073840384
    $t
    i.am_hal_cachectrl_enable
    am_hal_cachectrl_enable
        0x0000c9cc:    4803        .H      LDR      r0,[pc,#12] ; [0xc9dc] = 0x40018000
        0x0000c9ce:    6801        .h      LDR      r1,[r0,#0]
        0x0000c9d0:    f0410101    A...    ORR      r1,r1,#1
        0x0000c9d4:    6001        .`      STR      r1,[r0,#0]
        0x0000c9d6:    2000        .       MOVS     r0,#0
        0x0000c9d8:    4770        pG      BX       lr
    $d
        0x0000c9da:    0000        ..      DCW    0
        0x0000c9dc:    40018000    ...@    DCD    1073840128
    $t
    i.am_hal_clkgen_control
    am_hal_clkgen_control
        0x0000c9e0:    b510        ..      PUSH     {r4,lr}
        0x0000c9e2:    460c        .F      MOV      r4,r1
        0x0000c9e4:    4939        9I      LDR      r1,[pc,#228] ; [0xcacc] = 0x10011070
        0x0000c9e6:    680a        .h      LDR      r2,[r1,#0]
        0x0000c9e8:    b912        ..      CBNZ     r2,0xc9f0 ; am_hal_clkgen_control + 16
        0x0000c9ea:    4a39        9J      LDR      r2,[pc,#228] ; [0xcad0] = 0x4ffff000
        0x0000c9ec:    6812        .h      LDR      r2,[r2,#0]
        0x0000c9ee:    600a        .`      STR      r2,[r1,#0]
        0x0000c9f0:    280a        .(      CMP      r0,#0xa
        0x0000c9f2:    d269        i.      BCS      0xcac8 ; am_hal_clkgen_control + 232
        0x0000c9f4:    e8dff000    ....    TBB      [pc,r0]
    $d
        0x0000c9f8:    27151b05    ...'    DCD    655694597
        0x0000c9fc:    3a400c21    !.@:    DCD    977275937
        0x0000ca00:    6047        G`      DCW    24647
    $t
        0x0000ca02:    f04f2040    O.@     MOV      r0,#0x40004000
        0x0000ca06:    2147        G!      MOVS     r1,#0x47
        0x0000ca08:    6141        Aa      STR      r1,[r0,#0x14]
        0x0000ca0a:    2100        .!      MOVS     r1,#0
        0x0000ca0c:    6181        .a      STR      r1,[r0,#0x18]
        0x0000ca0e:    e006        ..      B        0xca1e ; am_hal_clkgen_control + 62
        0x0000ca10:    f04f2040    O.@     MOV      r0,#0x40004000
        0x0000ca14:    2147        G!      MOVS     r1,#0x47
        0x0000ca16:    6141        Aa      STR      r1,[r0,#0x14]
        0x0000ca18:    2101        .!      MOVS     r1,#1
        0x0000ca1a:    6181        .a      STR      r1,[r0,#0x18]
        0x0000ca1c:    2100        .!      MOVS     r1,#0
        0x0000ca1e:    6141        Aa      STR      r1,[r0,#0x14]
        0x0000ca20:    e050        P.      B        0xcac4 ; am_hal_clkgen_control + 228
        0x0000ca22:    f04f2040    O.@     MOV      r0,#0x40004000
        0x0000ca26:    68c1        .h      LDR      r1,[r0,#0xc]
        0x0000ca28:    f0210102    !...    BIC      r1,r1,#2
        0x0000ca2c:    e029        ).      B        0xca82 ; am_hal_clkgen_control + 162
        0x0000ca2e:    f04f2040    O.@     MOV      r0,#0x40004000
        0x0000ca32:    68c1        .h      LDR      r1,[r0,#0xc]
        0x0000ca34:    f0210101    !...    BIC      r1,r1,#1
        0x0000ca38:    e023        #.      B        0xca82 ; am_hal_clkgen_control + 162
        0x0000ca3a:    f04f2040    O.@     MOV      r0,#0x40004000
        0x0000ca3e:    68c1        .h      LDR      r1,[r0,#0xc]
        0x0000ca40:    f0410102    A...    ORR      r1,r1,#2
        0x0000ca44:    e01d        ..      B        0xca82 ; am_hal_clkgen_control + 162
        0x0000ca46:    4823        #H      LDR      r0,[pc,#140] ; [0xcad4] = 0x40020000
        0x0000ca48:    68c1        .h      LDR      r1,[r0,#0xc]
        0x0000ca4a:    b2c9        ..      UXTB     r1,r1
        0x0000ca4c:    2921        !)      CMP      r1,#0x21
        0x0000ca4e:    d307        ..      BCC      0xca60 ; am_hal_clkgen_control + 128
        0x0000ca50:    f8d01120    .. .    LDR      r1,[r0,#0x120]
        0x0000ca54:    f4217140    !.@q    BIC      r1,r1,#0x300
        0x0000ca58:    f5017180    ...q    ADD      r1,r1,#0x100
        0x0000ca5c:    f8c01120    .. .    STR      r1,[r0,#0x120]
        0x0000ca60:    f04f2040    O.@     MOV      r0,#0x40004000
        0x0000ca64:    68c1        .h      LDR      r1,[r0,#0xc]
        0x0000ca66:    f0410101    A...    ORR      r1,r1,#1
        0x0000ca6a:    e00a        ..      B        0xca82 ; am_hal_clkgen_control + 162
        0x0000ca6c:    f04f2040    O.@     MOV      r0,#0x40004000
        0x0000ca70:    68c1        .h      LDR      r1,[r0,#0xc]
        0x0000ca72:    f0410180    A...    ORR      r1,r1,#0x80
        0x0000ca76:    e004        ..      B        0xca82 ; am_hal_clkgen_control + 162
        0x0000ca78:    f04f2040    O.@     MOV      r0,#0x40004000
        0x0000ca7c:    68c1        .h      LDR      r1,[r0,#0xc]
        0x0000ca7e:    f0210180    !...    BIC      r1,r1,#0x80
        0x0000ca82:    60c1        .`      STR      r1,[r0,#0xc]
        0x0000ca84:    e01e        ..      B        0xcac4 ; am_hal_clkgen_control + 228
        0x0000ca86:    4813        .H      LDR      r0,[pc,#76] ; [0xcad4] = 0x40020000
        0x0000ca88:    68c1        .h      LDR      r1,[r0,#0xc]
        0x0000ca8a:    b2c9        ..      UXTB     r1,r1
        0x0000ca8c:    2921        !)      CMP      r1,#0x21
        0x0000ca8e:    d309        ..      BCC      0xcaa4 ; am_hal_clkgen_control + 196
        0x0000ca90:    f8d01120    .. .    LDR      r1,[r0,#0x120]
        0x0000ca94:    f4417140    A.@q    ORR      r1,r1,#0x300
        0x0000ca98:    f8c01120    .. .    STR      r1,[r0,#0x120]
        0x0000ca9c:    f44f507a    O.zP    MOV      r0,#0x3e80
        0x0000caa0:    f000f836    ..6.    BL       am_hal_flash_delay ; 0xcb10
        0x0000caa4:    2c00        .,      CMP      r4,#0
        0x0000caa6:    bf0c        ..      ITE      EQ
        0x0000caa8:    480b        .H      LDREQ    r0,[pc,#44] ; [0xcad8] = 0x25b801
        0x0000caaa:    6820         h      LDRNE    r0,[r4,#0]
        0x0000caac:    f0400001    @...    ORR      r0,r0,#1
        0x0000cab0:    f04f2140    O.@!    MOV      r1,#0x40004000
        0x0000cab4:    6208        .b      STR      r0,[r1,#0x20]
        0x0000cab6:    e005        ..      B        0xcac4 ; am_hal_clkgen_control + 228
        0x0000cab8:    f04f2040    O.@     MOV      r0,#0x40004000
        0x0000cabc:    6a01        .j      LDR      r1,[r0,#0x20]
        0x0000cabe:    f0210101    !...    BIC      r1,r1,#1
        0x0000cac2:    6201        .b      STR      r1,[r0,#0x20]
        0x0000cac4:    2000        .       MOVS     r0,#0
        0x0000cac6:    bd10        ..      POP      {r4,pc}
        0x0000cac8:    2006        .       MOVS     r0,#6
        0x0000caca:    bd10        ..      POP      {r4,pc}
    $d
        0x0000cacc:    10011070    p...    DCD    268505200
        0x0000cad0:    4ffff000    ...O    DCD    1342173184
        0x0000cad4:    40020000    ...@    DCD    1073872896
        0x0000cad8:    0025b801    ..%.    DCD    2471937
    $t
    i.am_hal_clkgen_status_get
    am_hal_clkgen_status_get
        0x0000cadc:    2800        .(      CMP      r0,#0
        0x0000cade:    bf04        ..      ITT      EQ
        0x0000cae0:    2006        .       MOVEQ    r0,#6
        0x0000cae2:    4770        pG      BXEQ     lr
        0x0000cae4:    f04f2140    O.@!    MOV      r1,#0x40004000
        0x0000cae8:    698a        .i      LDR      r2,[r1,#0x18]
        0x0000caea:    f0120f01    ....    TST      r2,#1
        0x0000caee:    bf14        ..      ITE      NE
        0x0000caf0:    4a05        .J      LDRNE    r2,[pc,#20] ; [0xcb08] = 0x16e3600
        0x0000caf2:    4a06        .J      LDREQ    r2,[pc,#24] ; [0xcb0c] = 0x2dc6c00
        0x0000caf4:    6002        .`      STR      r2,[r0,#0]
        0x0000caf6:    69c9        .i      LDR      r1,[r1,#0x1c]
        0x0000caf8:    f0010201    ....    AND      r2,r1,#1
        0x0000cafc:    f3c10140    ..@.    UBFX     r1,r1,#1,#1
        0x0000cb00:    6042        B`      STR      r2,[r0,#4]
        0x0000cb02:    7201        .r      STRB     r1,[r0,#8]
        0x0000cb04:    2000        .       MOVS     r0,#0
        0x0000cb06:    4770        pG      BX       lr
    $d
        0x0000cb08:    016e3600    .6n.    DCD    24000000
        0x0000cb0c:    02dc6c00    .l..    DCD    48000000
    $t
    i.am_hal_flash_delay
    am_hal_flash_delay
        0x0000cb10:    f04f2140    O.@!    MOV      r1,#0x40004000
        0x0000cb14:    6b49        Ik      LDR      r1,[r1,#0x34]
        0x0000cb16:    f0110f04    ....    TST      r1,#4
        0x0000cb1a:    bf1a        ..      ITTE     NE
        0x0000cb1c:    0040        @.      LSLNE    r0,r0,#1
        0x0000cb1e:    210e        .!      MOVNE    r1,#0xe
        0x0000cb20:    210b        .!      MOVEQ    r1,#0xb
        0x0000cb22:    4288        .B      CMP      r0,r1
        0x0000cb24:    bf98        ..      IT       LS
        0x0000cb26:    4770        pG      BXLS     lr
        0x0000cb28:    1a40        @.      SUBS     r0,r0,r1
        0x0000cb2a:    4901        .I      LDR      r1,[pc,#4] ; [0xcb30] = 0x800009d
        0x0000cb2c:    4708        .G      BX       r1
    $d
        0x0000cb2e:    0000        ..      DCW    0
        0x0000cb30:    0800009d    ....    DCD    134217885
    $t
    i.am_hal_flash_delay_status_check
    am_hal_flash_delay_status_check
        0x0000cb34:    e92d47f0    -..G    PUSH     {r4-r10,lr}
        0x0000cb38:    f8dfa050    ..P.    LDR      r10,[pc,#80] ; [0xcb8c] = 0x800009d
        0x0000cb3c:    f8dd8020    .. .    LDR      r8,[sp,#0x20]
        0x0000cb40:    461c        .F      MOV      r4,r3
        0x0000cb42:    4615        .F      MOV      r5,r2
        0x0000cb44:    460e        .F      MOV      r6,r1
        0x0000cb46:    4607        .F      MOV      r7,r0
        0x0000cb48:    f04f2940    O.@)    MOV      r9,#0x40004000
        0x0000cb4c:    6830        0h      LDR      r0,[r6,#0]
        0x0000cb4e:    f1b80f00    ....    CMP      r8,#0
        0x0000cb52:    ea000005    ....    AND      r0,r0,r5
        0x0000cb56:    d002        ..      BEQ      0xcb5e ; am_hal_flash_delay_status_check + 42
        0x0000cb58:    42a0        .B      CMP      r0,r4
        0x0000cb5a:    d002        ..      BEQ      0xcb62 ; am_hal_flash_delay_status_check + 46
        0x0000cb5c:    e004        ..      B        0xcb68 ; am_hal_flash_delay_status_check + 52
        0x0000cb5e:    42a0        .B      CMP      r0,r4
        0x0000cb60:    d002        ..      BEQ      0xcb68 ; am_hal_flash_delay_status_check + 52
        0x0000cb62:    2000        .       MOVS     r0,#0
        0x0000cb64:    e8bd87f0    ....    POP      {r4-r10,pc}
        0x0000cb68:    1e7f        ..      SUBS     r7,r7,#1
        0x0000cb6a:    d30b        ..      BCC      0xcb84 ; am_hal_flash_delay_status_check + 80
        0x0000cb6c:    f8d91034    ..4.    LDR      r1,[r9,#0x34]
        0x0000cb70:    2010        .       MOVS     r0,#0x10
        0x0000cb72:    f0110f04    ....    TST      r1,#4
        0x0000cb76:    bf1a        ..      ITTE     NE
        0x0000cb78:    2020                MOVNE    r0,#0x20
        0x0000cb7a:    210e        .!      MOVNE    r1,#0xe
        0x0000cb7c:    210b        .!      MOVEQ    r1,#0xb
        0x0000cb7e:    1a40        @.      SUBS     r0,r0,r1
        0x0000cb80:    47d0        .G      BLX      r10
        0x0000cb82:    e7e3        ..      B        0xcb4c ; am_hal_flash_delay_status_check + 24
        0x0000cb84:    2004        .       MOVS     r0,#4
        0x0000cb86:    e8bd87f0    ....    POP      {r4-r10,pc}
    $d
        0x0000cb8a:    0000        ..      DCW    0
        0x0000cb8c:    0800009d    ....    DCD    134217885
    $t
    i.am_hal_flash_load_ui32
    am_hal_flash_load_ui32
        0x0000cb90:    4900        .I      LDR      r1,[pc,#0] ; [0xcb94] = 0x8000075
        0x0000cb92:    4708        .G      BX       r1
    $d
        0x0000cb94:    08000075    u...    DCD    134217845
    $t
    i.am_hal_flash_store_ui32
    am_hal_flash_store_ui32
        0x0000cb98:    b500        ..      PUSH     {lr}
        0x0000cb9a:    f8dfc020    .. .    LDR      r12,[pc,#32] ; [0xcbbc] = 0xe208
        0x0000cb9e:    b083        ..      SUB      sp,sp,#0xc
        0x0000cba0:    e9dc2300    ...#    LDRD     r2,r3,[r12,#0]
        0x0000cba4:    f8dcc008    ....    LDR      r12,[r12,#8]
        0x0000cba8:    e9cd2300    ...#    STRD     r2,r3,[sp,#0]
        0x0000cbac:    466a        jF      MOV      r2,sp
        0x0000cbae:    f8cdc008    ....    STR      r12,[sp,#8]
        0x0000cbb2:    f0420201    B...    ORR      r2,r2,#1
        0x0000cbb6:    4790        .G      BLX      r2
        0x0000cbb8:    b003        ..      ADD      sp,sp,#0xc
        0x0000cbba:    bd00        ..      POP      {pc}
    $d
        0x0000cbbc:    0000e208    ....    DCD    57864
    $t
    i.am_hal_gpio_pinconfig
    am_hal_gpio_pinconfig
        0x0000cbc0:    e92d4ff0    -..O    PUSH     {r4-r11,lr}
        0x0000cbc4:    2500        .%      MOVS     r5,#0
        0x0000cbc6:    b08b        ..      SUB      sp,sp,#0x2c
        0x0000cbc8:    4604        .F      MOV      r4,r0
        0x0000cbca:    284a        J(      CMP      r0,#0x4a
        0x0000cbcc:    bf22        ".      ITTT     CS
        0x0000cbce:    2006        .       MOVCS    r0,#6
        0x0000cbd0:    b00b        ..      ADDCS    sp,sp,#0x2c
        0x0000cbd2:    e8bd8ff0    ....    POPCS    {r4-r11,pc}
        0x0000cbd6:    2200        ."      MOVS     r2,#0
        0x0000cbd8:    f0010c07    ....    AND      r12,r1,#7
        0x0000cbdc:    4f8b        .O      LDR      r7,[pc,#556] ; [0xce0c] = 0xe262
        0x0000cbde:    f3c103c1    ....    UBFX     r3,r1,#3,#2
        0x0000cbe2:    ea4200cc    B...    ORR      r0,r2,r12,LSL #3
        0x0000cbe6:    f0110fe0    ....    TST      r1,#0xe0
        0x0000cbea:    d021        !.      BEQ      0xcc30 ; am_hal_gpio_pinconfig + 112
        0x0000cbec:    f3c11642    ..B.    UBFX     r6,r1,#5,#3
        0x0000cbf0:    f1a60902    ....    SUB      r9,r6,#2
        0x0000cbf4:    f8df8218    ....    LDR      r8,[pc,#536] ; [0xce10] = 0x8000100
        0x0000cbf8:    f0400001    @...    ORR      r0,r0,#1
        0x0000cbfc:    f1b90f03    ....    CMP      r9,#3
        0x0000cc00:    d809        ..      BHI      0xcc16 ; am_hal_gpio_pinconfig + 86
        0x0000cc02:    f06f097f    o...    MVN      r9,#0x7f
        0x0000cc06:    eb091686    ....    ADD      r6,r9,r6,LSL #6
        0x0000cc0a:    4330        0C      ORRS     r0,r0,r6
        0x0000cc0c:    5d3e        >]      LDRB     r6,[r7,r4]
        0x0000cc0e:    f0160f01    ....    TST      r6,#1
        0x0000cc12:    d10d        ..      BNE      0xcc30 ; am_hal_gpio_pinconfig + 112
        0x0000cc14:    e012        ..      B        0xcc3c ; am_hal_gpio_pinconfig + 124
        0x0000cc16:    2e06        ..      CMP      r6,#6
        0x0000cc18:    d004        ..      BEQ      0xcc24 ; am_hal_gpio_pinconfig + 100
        0x0000cc1a:    2e01        ..      CMP      r6,#1
        0x0000cc1c:    bf08        ..      IT       EQ
        0x0000cc1e:    2c14        .,      CMPEQ    r4,#0x14
        0x0000cc20:    d00c        ..      BEQ      0xcc3c ; am_hal_gpio_pinconfig + 124
        0x0000cc22:    e005        ..      B        0xcc30 ; am_hal_gpio_pinconfig + 112
        0x0000cc24:    2c14        .,      CMP      r4,#0x14
        0x0000cc26:    bf1e        ..      ITTT     NE
        0x0000cc28:    487a        zH      LDRNE    r0,[pc,#488] ; [0xce14] = 0x8000101
        0x0000cc2a:    b00b        ..      ADDNE    sp,sp,#0x2c
        0x0000cc2c:    e8bd8ff0    ....    POPNE    {r4-r11,pc}
        0x0000cc30:    b17b        {.      CBZ      r3,0xcc52 ; am_hal_gpio_pinconfig + 146
        0x0000cc32:    2b01        .+      CMP      r3,#1
        0x0000cc34:    d006        ..      BEQ      0xcc44 ; am_hal_gpio_pinconfig + 132
        0x0000cc36:    2b02        .+      CMP      r3,#2
        0x0000cc38:    d022        ".      BEQ      0xcc80 ; am_hal_gpio_pinconfig + 192
        0x0000cc3a:    e028        (.      B        0xcc8e ; am_hal_gpio_pinconfig + 206
        0x0000cc3c:    b00b        ..      ADD      sp,sp,#0x2c
        0x0000cc3e:    4640        @F      MOV      r0,r8
        0x0000cc40:    e8bd8ff0    ....    POP      {r4-r11,pc}
        0x0000cc44:    5d3b        ;]      LDRB     r3,[r7,r4]
        0x0000cc46:    f0130f02    ....    TST      r3,#2
        0x0000cc4a:    bf18        ..      IT       NE
        0x0000cc4c:    f0400040    @.@.    ORRNE    r0,r0,#0x40
        0x0000cc50:    d01d        ..      BEQ      0xcc8e ; am_hal_gpio_pinconfig + 206
        0x0000cc52:    4b71        qK      LDR      r3,[pc,#452] ; [0xce18] = 0xe218
        0x0000cc54:    5d1e        .]      LDRB     r6,[r3,r4]
        0x0000cc56:    2301        .#      MOVS     r3,#1
        0x0000cc58:    fa03f30c    ....    LSL      r3,r3,r12
        0x0000cc5c:    4033        3@      ANDS     r3,r3,r6
        0x0000cc5e:    bf18        ..      IT       NE
        0x0000cc60:    2302        .#      MOVNE    r3,#2
        0x0000cc62:    4318        .C      ORRS     r0,r0,r3
        0x0000cc64:    4b6d        mK      LDR      r3,[pc,#436] ; [0xce1c] = 0xe2ac
        0x0000cc66:    5d1b        .]      LDRB     r3,[r3,r4]
        0x0000cc68:    4563        cE      CMP      r3,r12
        0x0000cc6a:    d13f        ?.      BNE      0xccec ; am_hal_gpio_pinconfig + 300
        0x0000cc6c:    f8dfc1b0    ....    LDR      r12,[pc,#432] ; [0xce20] = 0x8000103
        0x0000cc70:    f4113f80    ...?    TST      r1,#0x10000
        0x0000cc74:    f3c14342    ..BC    UBFX     r3,r1,#17,#3
        0x0000cc78:    d00d        ..      BEQ      0xcc96 ; am_hal_gpio_pinconfig + 214
        0x0000cc7a:    2b06        .+      CMP      r3,#6
        0x0000cc7c:    d20d        ..      BCS      0xcc9a ; am_hal_gpio_pinconfig + 218
        0x0000cc7e:    e010        ..      B        0xcca2 ; am_hal_gpio_pinconfig + 226
        0x0000cc80:    5d3b        ;]      LDRB     r3,[r7,r4]
        0x0000cc82:    f0130f04    ....    TST      r3,#4
        0x0000cc86:    bf18        ..      IT       NE
        0x0000cc88:    f0400080    @...    ORRNE    r0,r0,#0x80
        0x0000cc8c:    d1e1        ..      BNE      0xcc52 ; am_hal_gpio_pinconfig + 146
        0x0000cc8e:    b00b        ..      ADD      sp,sp,#0x2c
        0x0000cc90:    4864        dH      LDR      r0,[pc,#400] ; [0xce24] = 0x8000102
        0x0000cc92:    e8bd8ff0    ....    POP      {r4-r11,pc}
        0x0000cc96:    2b03        .+      CMP      r3,#3
        0x0000cc98:    d303        ..      BCC      0xcca2 ; am_hal_gpio_pinconfig + 226
        0x0000cc9a:    b00b        ..      ADD      sp,sp,#0x2c
        0x0000cc9c:    4660        `F      MOV      r0,r12
        0x0000cc9e:    e8bd8ff0    ....    POP      {r4-r11,pc}
        0x0000cca2:    f3c14c00    ...L    UBFX     r12,r1,#16,#1
        0x0000cca6:    ea4f1ccc    O...    LSL      r12,r12,#7
        0x0000ccaa:    f3c15601    ...V    UBFX     r6,r1,#20,#2
        0x0000ccae:    ea4c1c06    L...    ORR      r12,r12,r6,LSL #4
        0x0000ccb2:    ea4c0603    L...    ORR      r6,r12,r3
        0x0000ccb6:    f8dfc170    ..p.    LDR      r12,[pc,#368] ; [0xce28] = 0xe2f6
        0x0000ccba:    2300        .#      MOVS     r3,#0
        0x0000ccbc:    eb0c0c84    ....    ADD      r12,r12,r4,LSL #2
        0x0000ccc0:    f81c7003    ...p    LDRB     r7,[r12,r3]
        0x0000ccc4:    42b7        .B      CMP      r7,r6
        0x0000ccc6:    d003        ..      BEQ      0xccd0 ; am_hal_gpio_pinconfig + 272
        0x0000ccc8:    1c5b        [.      ADDS     r3,r3,#1
        0x0000ccca:    2b04        .+      CMP      r3,#4
        0x0000cccc:    d3f8        ..      BCC      0xccc0 ; am_hal_gpio_pinconfig + 256
        0x0000ccce:    e001        ..      B        0xccd4 ; am_hal_gpio_pinconfig + 276
        0x0000ccd0:    2b04        .+      CMP      r3,#4
        0x0000ccd2:    d303        ..      BCC      0xccdc ; am_hal_gpio_pinconfig + 284
        0x0000ccd4:    b00b        ..      ADD      sp,sp,#0x2c
        0x0000ccd6:    4855        UH      LDR      r0,[pc,#340] ; [0xce2c] = 0x8000104
        0x0000ccd8:    e8bd8ff0    ....    POP      {r4-r11,pc}
        0x0000ccdc:    005b        [.      LSLS     r3,r3,#1
        0x0000ccde:    f3c15c80    ...\    UBFX     r12,r1,#22,#1
        0x0000cce2:    ea430ccc    C...    ORR      r12,r3,r12,LSL #3
        0x0000cce6:    ea4c0302    L...    ORR      r3,r12,r2
        0x0000ccea:    e022        ".      B        0xcd32 ; am_hal_gpio_pinconfig + 370
        0x0000ccec:    f3c13300    ...3    UBFX     r3,r1,#12,#1
        0x0000ccf0:    f3c12c81    ...,    UBFX     r12,r1,#10,#2
        0x0000ccf4:    ea400043    @.C.    ORR      r0,r0,r3,LSL #1
        0x0000ccf8:    ea4f034c    O.L.    LSL      r3,r12,#1
        0x0000ccfc:    f3c13640    ..@6    UBFX     r6,r1,#13,#1
        0x0000cd00:    ea4303c6    C...    ORR      r3,r3,r6,LSL #3
        0x0000cd04:    f3c13641    ..A6    UBFX     r6,r1,#13,#2
        0x0000cd08:    ea430356    C.V.    ORR      r3,r3,r6,LSR #1
        0x0000cd0c:    f1bc0f01    ....    CMP      r12,#1
        0x0000cd10:    d005        ..      BEQ      0xcd1e ; am_hal_gpio_pinconfig + 350
        0x0000cd12:    f8dfc11c    ....    LDR      r12,[pc,#284] ; [0xce30] = 0xe214
        0x0000cd16:    f8dcc000    ....    LDR      r12,[r12,#0]
        0x0000cd1a:    4561        aE      CMP      r1,r12
        0x0000cd1c:    d100        ..      BNE      0xcd20 ; am_hal_gpio_pinconfig + 352
        0x0000cd1e:    2501        .%      MOVS     r5,#1
        0x0000cd20:    f4114fc0    ...O    TST      r1,#0x6000
        0x0000cd24:    d105        ..      BNE      0xcd32 ; am_hal_gpio_pinconfig + 370
        0x0000cd26:    f0230301    #...    BIC      r3,r3,#1
        0x0000cd2a:    f3c13cc0    ...<    UBFX     r12,r1,#15,#1
        0x0000cd2e:    ea4c0303    L...    ORR      r3,r12,r3
        0x0000cd32:    f3c12101    ...!    UBFX     r1,r1,#8,#2
        0x0000cd36:    b179        y.      CBZ      r1,0xcd58 ; am_hal_gpio_pinconfig + 408
        0x0000cd38:    2901        .)      CMP      r1,#1
        0x0000cd3a:    bf08        ..      IT       EQ
        0x0000cd3c:    f0400004    @...    ORREQ    r0,r0,#4
        0x0000cd40:    d00a        ..      BEQ      0xcd58 ; am_hal_gpio_pinconfig + 408
        0x0000cd42:    2902        .)      CMP      r1,#2
        0x0000cd44:    bf08        ..      IT       EQ
        0x0000cd46:    f0420201    B...    ORREQ    r2,r2,#1
        0x0000cd4a:    d005        ..      BEQ      0xcd58 ; am_hal_gpio_pinconfig + 408
        0x0000cd4c:    2903        .)      CMP      r1,#3
        0x0000cd4e:    bf04        ..      ITT      EQ
        0x0000cd50:    f0400004    @...    ORREQ    r0,r0,#4
        0x0000cd54:    f0420201    B...    ORREQ    r2,r2,#1
        0x0000cd58:    f06f0103    o...    MVN      r1,#3
        0x0000cd5c:    ea010c54    ..T.    AND      r12,r1,r4,LSR #1
        0x0000cd60:    4934        4I      LDR      r1,[pc,#208] ; [0xce34] = 0x4001004c
        0x0000cd62:    260f        .&      MOVS     r6,#0xf
        0x0000cd64:    eb0c0901    ....    ADD      r9,r12,r1
        0x0000cd68:    f0240103    $...    BIC      r1,r4,#3
        0x0000cd6c:    f8dfc0c8    ....    LDR      r12,[pc,#200] ; [0xce38] = 0x400100f8
        0x0000cd70:    f1014880    ...H    ADD      r8,r1,#0x40000000
        0x0000cd74:    eb01070c    ....    ADD      r7,r1,r12
        0x0000cd78:    0761        a.      LSLS     r1,r4,#29
        0x0000cd7a:    ea4f6cd1    O..l    LSR      r12,r1,#27
        0x0000cd7e:    07a1        ..      LSLS     r1,r4,#30
        0x0000cd80:    0ec9        ..      LSRS     r1,r1,#27
        0x0000cd82:    fa06f60c    ....    LSL      r6,r6,r12
        0x0000cd86:    ea6f0a06    o...    MVN      r10,r6
        0x0000cd8a:    26ff        .&      MOVS     r6,#0xff
        0x0000cd8c:    408e        .@      LSLS     r6,r6,r1
        0x0000cd8e:    4088        .@      LSLS     r0,r0,r1
        0x0000cd90:    9000        ..      STR      r0,[sp,#0]
        0x0000cd92:    fa02f001    ....    LSL      r0,r2,r1
        0x0000cd96:    f5083880    ...8    ADD      r8,r8,#0x10000
        0x0000cd9a:    43f6        .C      MVNS     r6,r6
        0x0000cd9c:    fa03fb0c    ....    LSL      r11,r3,r12
        0x0000cda0:    9002        ..      STR      r0,[sp,#8]
        0x0000cda2:    f7fffa2f    ../.    BL       am_hal_interrupt_master_disable ; 0xc204
        0x0000cda6:    9003        ..      STR      r0,[sp,#0xc]
        0x0000cda8:    b16d        m.      CBZ      r5,0xcdc6 ; am_hal_gpio_pinconfig + 518
        0x0000cdaa:    f004011f    ....    AND      r1,r4,#0x1f
        0x0000cdae:    2001        .       MOVS     r0,#1
        0x0000cdb0:    fa00f101    ....    LSL      r1,r0,r1
        0x0000cdb4:    200c        .       MOVS     r0,#0xc
        0x0000cdb6:    ea0000d4    ....    AND      r0,r0,r4,LSR #3
        0x0000cdba:    f1004080    ...@    ADD      r0,r0,#0x40000000
        0x0000cdbe:    f5003080    ...0    ADD      r0,r0,#0x10000
        0x0000cdc2:    f8c010c8    ....    STR      r1,[r0,#0xc8]
        0x0000cdc6:    481d        .H      LDR      r0,[pc,#116] ; [0xce3c] = 0x40010000
        0x0000cdc8:    2173        s!      MOVS     r1,#0x73
        0x0000cdca:    6741        Ag      STR      r1,[r0,#0x74]
        0x0000cdcc:    f8d81000    ....    LDR      r1,[r8,#0]
        0x0000cdd0:    ea010206    ....    AND      r2,r1,r6
        0x0000cdd4:    9900        ..      LDR      r1,[sp,#0]
        0x0000cdd6:    4311        .C      ORRS     r1,r1,r2
        0x0000cdd8:    f8c81000    ....    STR      r1,[r8,#0]
        0x0000cddc:    f8d91000    ....    LDR      r1,[r9,#0]
        0x0000cde0:    ea01010a    ....    AND      r1,r1,r10
        0x0000cde4:    ea41010b    A...    ORR      r1,r1,r11
        0x0000cde8:    f8c91000    ....    STR      r1,[r9,#0]
        0x0000cdec:    6839        9h      LDR      r1,[r7,#0]
        0x0000cdee:    ea010206    ....    AND      r2,r1,r6
        0x0000cdf2:    9902        ..      LDR      r1,[sp,#8]
        0x0000cdf4:    4311        .C      ORRS     r1,r1,r2
        0x0000cdf6:    6039        9`      STR      r1,[r7,#0]
        0x0000cdf8:    2100        .!      MOVS     r1,#0
        0x0000cdfa:    6741        Ag      STR      r1,[r0,#0x74]
        0x0000cdfc:    9803        ..      LDR      r0,[sp,#0xc]
        0x0000cdfe:    f7fffa05    ....    BL       am_hal_interrupt_master_set ; 0xc20c
        0x0000ce02:    b00b        ..      ADD      sp,sp,#0x2c
        0x0000ce04:    2000        .       MOVS     r0,#0
        0x0000ce06:    e8bd8ff0    ....    POP      {r4-r11,pc}
    $d
        0x0000ce0a:    0000        ..      DCW    0
        0x0000ce0c:    0000e262    b...    DCD    57954
        0x0000ce10:    08000100    ....    DCD    134217984
        0x0000ce14:    08000101    ....    DCD    134217985
        0x0000ce18:    0000e218    ....    DCD    57880
        0x0000ce1c:    0000e2ac    ....    DCD    58028
        0x0000ce20:    08000103    ....    DCD    134217987
        0x0000ce24:    08000102    ....    DCD    134217986
        0x0000ce28:    0000e2f6    ....    DCD    58102
        0x0000ce2c:    08000104    ....    DCD    134217988
        0x0000ce30:    0000e214    ....    DCD    57876
        0x0000ce34:    4001004c    L..@    DCD    1073807436
        0x0000ce38:    400100f8    ...@    DCD    1073807608
        0x0000ce3c:    40010000    ...@    DCD    1073807360
    $t
    i.am_hal_gpio_state_write
    am_hal_gpio_state_write
        0x0000ce40:    b5f8        ..      PUSH     {r3-r7,lr}
        0x0000ce42:    2700        .'      MOVS     r7,#0
        0x0000ce44:    460d        .F      MOV      r5,r1
        0x0000ce46:    4606        .F      MOV      r6,r0
        0x0000ce48:    284a        J(      CMP      r0,#0x4a
        0x0000ce4a:    bf24        $.      ITT      CS
        0x0000ce4c:    2005        .       MOVCS    r0,#5
        0x0000ce4e:    bdf8        ..      POPCS    {r3-r7,pc}
        0x0000ce50:    2d05        .-      CMP      r5,#5
        0x0000ce52:    bf84        ..      ITT      HI
        0x0000ce54:    2006        .       MOVHI    r0,#6
        0x0000ce56:    bdf8        ..      POPHI    {r3-r7,pc}
        0x0000ce58:    f006001f    ....    AND      r0,r6,#0x1f
        0x0000ce5c:    2101        .!      MOVS     r1,#1
        0x0000ce5e:    fa01f400    ....    LSL      r4,r1,r0
        0x0000ce62:    f7fff9cf    ....    BL       am_hal_interrupt_master_disable ; 0xc204
        0x0000ce66:    9000        ..      STR      r0,[sp,#0]
        0x0000ce68:    200c        .       MOVS     r0,#0xc
        0x0000ce6a:    ea0000d6    ....    AND      r0,r0,r6,LSR #3
        0x0000ce6e:    f1004080    ...@    ADD      r0,r0,#0x40000000
        0x0000ce72:    f5003080    ...0    ADD      r0,r0,#0x10000
        0x0000ce76:    2d06        .-      CMP      r5,#6
        0x0000ce78:    d21c        ..      BCS      0xceb4 ; am_hal_gpio_state_write + 116
        0x0000ce7a:    e8dff005    ....    TBB      [pc,r5]
    $d
        0x0000ce7e:    0306        ..      DCW    774
        0x0000ce80:    150f1209    ....    DCD    353309193
    $t
        0x0000ce84:    f8c04098    ...@    STR      r4,[r0,#0x98]
        0x0000ce88:    e015        ..      B        0xceb6 ; am_hal_gpio_state_write + 118
        0x0000ce8a:    f8c040a4    ...@    STR      r4,[r0,#0xa4]
        0x0000ce8e:    e012        ..      B        0xceb6 ; am_hal_gpio_state_write + 118
        0x0000ce90:    f8d0108c    ....    LDR      r1,[r0,#0x8c]
        0x0000ce94:    4061        a@      EORS     r1,r1,r4
        0x0000ce96:    f8c0108c    ....    STR      r1,[r0,#0x8c]
        0x0000ce9a:    e00c        ..      B        0xceb6 ; am_hal_gpio_state_write + 118
        0x0000ce9c:    f8c040bc    ...@    STR      r4,[r0,#0xbc]
        0x0000cea0:    e009        ..      B        0xceb6 ; am_hal_gpio_state_write + 118
        0x0000cea2:    f8c040c8    ...@    STR      r4,[r0,#0xc8]
        0x0000cea6:    e006        ..      B        0xceb6 ; am_hal_gpio_state_write + 118
        0x0000cea8:    f8d010c8    ....    LDR      r1,[r0,#0xc8]
        0x0000ceac:    4061        a@      EORS     r1,r1,r4
        0x0000ceae:    f8c010c8    ....    STR      r1,[r0,#0xc8]
        0x0000ceb2:    e000        ..      B        0xceb6 ; am_hal_gpio_state_write + 118
        0x0000ceb4:    2706        .'      MOVS     r7,#6
        0x0000ceb6:    9800        ..      LDR      r0,[sp,#0]
        0x0000ceb8:    f7fff9a8    ....    BL       am_hal_interrupt_master_set ; 0xc20c
        0x0000cebc:    4638        8F      MOV      r0,r7
        0x0000cebe:    bdf8        ..      POP      {r3-r7,pc}
    i.am_hal_itm_disable
    am_hal_itm_disable
        0x0000cec0:    e92d41f0    -..A    PUSH     {r4-r8,lr}
        0x0000cec4:    4e20         N      LDR      r6,[pc,#128] ; [0xcf48] = 0x40020000
        0x0000cec6:    f8d60250    ..P.    LDR      r0,[r6,#0x250]
        0x0000ceca:    4f20         O      LDR      r7,[pc,#128] ; [0xcf4c] = 0xc5acce55
        0x0000cecc:    f8df8080    ....    LDR      r8,[pc,#128] ; [0xcf50] = 0xe0000fb0
        0x0000ced0:    4c20         L      LDR      r4,[pc,#128] ; [0xcf54] = 0xe0000e80
        0x0000ced2:    4d21        !M      LDR      r5,[pc,#132] ; [0xcf58] = 0xe000edfc
        0x0000ced4:    b988        ..      CBNZ     r0,0xcefa ; am_hal_itm_disable + 58
        0x0000ced6:    6828        (h      LDR      r0,[r5,#0]
        0x0000ced8:    f0407080    @..p    ORR      r0,r0,#0x1000000
        0x0000cedc:    6028        (`      STR      r0,[r5,#0]
        0x0000cede:    6828        (h      LDR      r0,[r5,#0]
        0x0000cee0:    f0107f80    ....    TST      r0,#0x1000000
        0x0000cee4:    d0fb        ..      BEQ      0xcede ; am_hal_itm_disable + 30
        0x0000cee6:    f8c87000    ...p    STR      r7,[r8,#0]
        0x0000ceea:    491c        .I      LDR      r1,[pc,#112] ; [0xcf5c] = 0xe0000e40
        0x0000ceec:    200f        .       MOVS     r0,#0xf
        0x0000ceee:    6008        .`      STR      r0,[r1,#0]
        0x0000cef0:    1748        H.      ASRS     r0,r1,#29
        0x0000cef2:    491b        .I      LDR      r1,[pc,#108] ; [0xcf60] = 0xe0000e00
        0x0000cef4:    6008        .`      STR      r0,[r1,#0]
        0x0000cef6:    481b        .H      LDR      r0,[pc,#108] ; [0xcf64] = 0x150511
        0x0000cef8:    6020         `      STR      r0,[r4,#0]
        0x0000cefa:    6820         h      LDR      r0,[r4,#0]
        0x0000cefc:    f4100f00    ....    TST      r0,#0x800000
        0x0000cf00:    d1fb        ..      BNE      0xcefa ; am_hal_itm_disable + 58
        0x0000cf02:    f44f7048    O.Hp    MOV      r0,#0x320
        0x0000cf06:    f7fffe03    ....    BL       am_hal_flash_delay ; 0xcb10
        0x0000cf0a:    f8c87000    ...p    STR      r7,[r8,#0]
        0x0000cf0e:    4816        .H      LDR      r0,[pc,#88] ; [0xcf68] = 0x800001
        0x0000cf10:    2200        ."      MOVS     r2,#0
        0x0000cf12:    6821        !h      LDR      r1,[r4,#0]
        0x0000cf14:    f0210101    !...    BIC      r1,r1,#1
        0x0000cf18:    6021        !`      STR      r1,[r4,#0]
        0x0000cf1a:    6821        !h      LDR      r1,[r4,#0]
        0x0000cf1c:    4201        .B      TST      r1,r0
        0x0000cf1e:    d1fc        ..      BNE      0xcf1a ; am_hal_itm_disable + 90
        0x0000cf20:    1c52        R.      ADDS     r2,r2,#1
        0x0000cf22:    2a64        d*      CMP      r2,#0x64
        0x0000cf24:    dbf5        ..      BLT      0xcf12 ; am_hal_itm_disable + 82
        0x0000cf26:    6828        (h      LDR      r0,[r5,#0]
        0x0000cf28:    f0207080     ..p    BIC      r0,r0,#0x1000000
        0x0000cf2c:    6028        (`      STR      r0,[r5,#0]
        0x0000cf2e:    6828        (h      LDR      r0,[r5,#0]
        0x0000cf30:    f0107f80    ....    TST      r0,#0x1000000
        0x0000cf34:    d1fb        ..      BNE      0xcf2e ; am_hal_itm_disable + 110
        0x0000cf36:    2000        .       MOVS     r0,#0
        0x0000cf38:    f8c60250    ..P.    STR      r0,[r6,#0x250]
        0x0000cf3c:    f8d60250    ..P.    LDR      r0,[r6,#0x250]
        0x0000cf40:    2800        .(      CMP      r0,#0
        0x0000cf42:    d1fb        ..      BNE      0xcf3c ; am_hal_itm_disable + 124
        0x0000cf44:    e8bd81f0    ....    POP      {r4-r8,pc}
    $d
        0x0000cf48:    40020000    ...@    DCD    1073872896
        0x0000cf4c:    c5acce55    U...    DCD    3316436565
        0x0000cf50:    e0000fb0    ....    DCD    3758100400
        0x0000cf54:    e0000e80    ....    DCD    3758100096
        0x0000cf58:    e000edfc    ....    DCD    3758157308
        0x0000cf5c:    e0000e40    @...    DCD    3758100032
        0x0000cf60:    e0000e00    ....    DCD    3758099968
        0x0000cf64:    00150511    ....    DCD    1377553
        0x0000cf68:    00800001    ....    DCD    8388609
    $t
    i.am_hal_itm_enable
    am_hal_itm_enable
        0x0000cf6c:    480a        .H      LDR      r0,[pc,#40] ; [0xcf98] = 0xe000edfc
        0x0000cf6e:    6801        .h      LDR      r1,[r0,#0]
        0x0000cf70:    f0417180    A..q    ORR      r1,r1,#0x1000000
        0x0000cf74:    6001        .`      STR      r1,[r0,#0]
        0x0000cf76:    6801        .h      LDR      r1,[r0,#0]
        0x0000cf78:    f0117f80    ....    TST      r1,#0x1000000
        0x0000cf7c:    d0fb        ..      BEQ      0xcf76 ; am_hal_itm_enable + 10
        0x0000cf7e:    4908        .I      LDR      r1,[pc,#32] ; [0xcfa0] = 0xe0000fb0
        0x0000cf80:    4806        .H      LDR      r0,[pc,#24] ; [0xcf9c] = 0xc5acce55
        0x0000cf82:    6008        .`      STR      r0,[r1,#0]
        0x0000cf84:    4907        .I      LDR      r1,[pc,#28] ; [0xcfa4] = 0xe0000e40
        0x0000cf86:    200f        .       MOVS     r0,#0xf
        0x0000cf88:    6008        .`      STR      r0,[r1,#0]
        0x0000cf8a:    1748        H.      ASRS     r0,r1,#29
        0x0000cf8c:    4906        .I      LDR      r1,[pc,#24] ; [0xcfa8] = 0xe0000e00
        0x0000cf8e:    6008        .`      STR      r0,[r1,#0]
        0x0000cf90:    4907        .I      LDR      r1,[pc,#28] ; [0xcfb0] = 0xe0000e80
        0x0000cf92:    4806        .H      LDR      r0,[pc,#24] ; [0xcfac] = 0x150511
        0x0000cf94:    6008        .`      STR      r0,[r1,#0]
        0x0000cf96:    4770        pG      BX       lr
    $d
        0x0000cf98:    e000edfc    ....    DCD    3758157308
        0x0000cf9c:    c5acce55    U...    DCD    3316436565
        0x0000cfa0:    e0000fb0    ....    DCD    3758100400
        0x0000cfa4:    e0000e40    @...    DCD    3758100032
        0x0000cfa8:    e0000e00    ....    DCD    3758099968
        0x0000cfac:    00150511    ....    DCD    1377553
        0x0000cfb0:    e0000e80    ....    DCD    3758100096
    $t
    i.am_hal_itm_print
    am_hal_itm_print
        0x0000cfb4:    7802        .x      LDRB     r2,[r0,#0]
        0x0000cfb6:    2100        .!      MOVS     r1,#0
        0x0000cfb8:    2a00        .*      CMP      r2,#0
        0x0000cfba:    bf08        ..      IT       EQ
        0x0000cfbc:    4770        pG      BXEQ     lr
        0x0000cfbe:    1c49        I.      ADDS     r1,r1,#1
        0x0000cfc0:    5c42        B\      LDRB     r2,[r0,r1]
        0x0000cfc2:    2a00        .*      CMP      r2,#0
        0x0000cfc4:    d1fb        ..      BNE      0xcfbe ; am_hal_itm_print + 10
        0x0000cfc6:    2900        .)      CMP      r1,#0
        0x0000cfc8:    bf08        ..      IT       EQ
        0x0000cfca:    4770        pG      BXEQ     lr
        0x0000cfcc:    f810cb01    ....    LDRB     r12,[r0],#1
        0x0000cfd0:    f04f4260    O.`B    MOV      r2,#0xe0000000
        0x0000cfd4:    6813        .h      LDR      r3,[r2,#0]
        0x0000cfd6:    2b00        .+      CMP      r3,#0
        0x0000cfd8:    d0fc        ..      BEQ      0xcfd4 ; am_hal_itm_print + 32
        0x0000cfda:    f882c000    ....    STRB     r12,[r2,#0]
        0x0000cfde:    1e49        I.      SUBS     r1,r1,#1
        0x0000cfe0:    d1f4        ..      BNE      0xcfcc ; am_hal_itm_print + 24
        0x0000cfe2:    4770        pG      BX       lr
    i.am_hal_mcuctrl_info_get
    am_hal_mcuctrl_info_get
        0x0000cfe4:    b129        ).      CBZ      r1,0xcff2 ; am_hal_mcuctrl_info_get + 14
        0x0000cfe6:    4a45        EJ      LDR      r2,[pc,#276] ; [0xd0fc] = 0x40020000
        0x0000cfe8:    b128        (.      CBZ      r0,0xcff6 ; am_hal_mcuctrl_info_get + 18
        0x0000cfea:    2801        .(      CMP      r0,#1
        0x0000cfec:    d017        ..      BEQ      0xd01e ; am_hal_mcuctrl_info_get + 58
        0x0000cfee:    2802        .(      CMP      r0,#2
        0x0000cff0:    d069        i.      BEQ      0xd0c6 ; am_hal_mcuctrl_info_get + 226
        0x0000cff2:    2006        .       MOVS     r0,#6
        0x0000cff4:    4770        pG      BX       lr
        0x0000cff6:    6990        .i      LDR      r0,[r2,#0x18]
        0x0000cff8:    f3c01380    ....    UBFX     r3,r0,#6,#1
        0x0000cffc:    700b        .p      STRB     r3,[r1,#0]
        0x0000cffe:    f3c00080    ....    UBFX     r0,r0,#2,#1
        0x0000d002:    7048        Hp      STRB     r0,[r1,#1]
        0x0000d004:    f8d201a0    ....    LDR      r0,[r2,#0x1a0]
        0x0000d008:    f3c06081    ...`    UBFX     r0,r0,#26,#2
        0x0000d00c:    7108        .q      STRB     r0,[r1,#4]
        0x0000d00e:    6950        Pi      LDR      r0,[r2,#0x14]
        0x0000d010:    f3c00240    ..@.    UBFX     r2,r0,#1,#1
        0x0000d014:    708a        .p      STRB     r2,[r1,#2]
        0x0000d016:    f0000001    ....    AND      r0,r0,#1
        0x0000d01a:    70c8        .p      STRB     r0,[r1,#3]
        0x0000d01c:    e06b        k.      B        0xd0f6 ; am_hal_mcuctrl_info_get + 274
        0x0000d01e:    6810        .h      LDR      r0,[r2,#0]
        0x0000d020:    6008        .`      STR      r0,[r1,#0]
        0x0000d022:    6853        Sh      LDR      r3,[r2,#4]
        0x0000d024:    604b        K`      STR      r3,[r1,#4]
        0x0000d026:    6893        .h      LDR      r3,[r2,#8]
        0x0000d028:    608b        .`      STR      r3,[r1,#8]
        0x0000d02a:    68d3        .h      LDR      r3,[r2,#0xc]
        0x0000d02c:    60cb        .`      STR      r3,[r1,#0xc]
        0x0000d02e:    6913        .i      LDR      r3,[r2,#0x10]
        0x0000d030:    610b        .a      STR      r3,[r1,#0x10]
        0x0000d032:    6952        Ri      LDR      r2,[r2,#0x14]
        0x0000d034:    614a        Ja      STR      r2,[r1,#0x14]
        0x0000d036:    f0000201    ....    AND      r2,r0,#1
        0x0000d03a:    618a        .a      STR      r2,[r1,#0x18]
        0x0000d03c:    223c        <"      MOVS     r2,#0x3c
        0x0000d03e:    ea024390    ...C    AND      r3,r2,r0,LSR #18
        0x0000d042:    f8dfc0bc    ....    LDR      r12,[pc,#188] ; [0xd100] = 0xe428
        0x0000d046:    ea023090    ...0    AND      r0,r2,r0,LSR #14
        0x0000d04a:    f10c0240    ..@.    ADD      r2,r12,#0x40
        0x0000d04e:    f85c3003    \..0    LDR      r3,[r12,r3]
        0x0000d052:    61cb        .a      STR      r3,[r1,#0x1c]
        0x0000d054:    5810        .X      LDR      r0,[r2,r0]
        0x0000d056:    6208        .b      STR      r0,[r1,#0x20]
        0x0000d058:    482a        *H      LDR      r0,[pc,#168] ; [0xd104] = 0xf0000fe0
        0x0000d05a:    6800        .h      LDR      r0,[r0,#0]
        0x0000d05c:    4a2a        *J      LDR      r2,[pc,#168] ; [0xd108] = 0xf0000fe4
        0x0000d05e:    b2c0        ..      UXTB     r0,r0
        0x0000d060:    6248        Hb      STR      r0,[r1,#0x24]
        0x0000d062:    6813        .h      LDR      r3,[r2,#0]
        0x0000d064:    f003030f    ....    AND      r3,r3,#0xf
        0x0000d068:    ea402003    @..     ORR      r0,r0,r3,LSL #8
        0x0000d06c:    6248        Hb      STR      r0,[r1,#0x24]
        0x0000d06e:    6810        .h      LDR      r0,[r2,#0]
        0x0000d070:    1d12        ..      ADDS     r2,r2,#4
        0x0000d072:    f3c01003    ....    UBFX     r0,r0,#4,#4
        0x0000d076:    6288        .b      STR      r0,[r1,#0x28]
        0x0000d078:    6813        .h      LDR      r3,[r2,#0]
        0x0000d07a:    f003030f    ....    AND      r3,r3,#0xf
        0x0000d07e:    ea401003    @...    ORR      r0,r0,r3,LSL #4
        0x0000d082:    6288        .b      STR      r0,[r1,#0x28]
        0x0000d084:    6810        .h      LDR      r0,[r2,#0]
        0x0000d086:    f3c01003    ....    UBFX     r0,r0,#4,#4
        0x0000d08a:    0100        ..      LSLS     r0,r0,#4
        0x0000d08c:    1d12        ..      ADDS     r2,r2,#4
        0x0000d08e:    62c8        .b      STR      r0,[r1,#0x2c]
        0x0000d090:    6812        .h      LDR      r2,[r2,#0]
        0x0000d092:    f3c21203    ....    UBFX     r2,r2,#4,#4
        0x0000d096:    4310        .C      ORRS     r0,r0,r2
        0x0000d098:    62c8        .b      STR      r0,[r1,#0x2c]
        0x0000d09a:    481c        .H      LDR      r0,[pc,#112] ; [0xd10c] = 0xf0000ffc
        0x0000d09c:    6800        .h      LDR      r0,[r0,#0]
        0x0000d09e:    4a1c        .J      LDR      r2,[pc,#112] ; [0xd110] = 0xf0000ff8
        0x0000d0a0:    0600        ..      LSLS     r0,r0,#24
        0x0000d0a2:    6308        .c      STR      r0,[r1,#0x30]
        0x0000d0a4:    6812        .h      LDR      r2,[r2,#0]
        0x0000d0a6:    b2d2        ..      UXTB     r2,r2
        0x0000d0a8:    ea404002    @..@    ORR      r0,r0,r2,LSL #16
        0x0000d0ac:    4a19        .J      LDR      r2,[pc,#100] ; [0xd114] = 0xf0000ff4
        0x0000d0ae:    6308        .c      STR      r0,[r1,#0x30]
        0x0000d0b0:    6812        .h      LDR      r2,[r2,#0]
        0x0000d0b2:    b2d2        ..      UXTB     r2,r2
        0x0000d0b4:    ea402002    @..     ORR      r0,r0,r2,LSL #8
        0x0000d0b8:    4a17        .J      LDR      r2,[pc,#92] ; [0xd118] = 0xf0000ff0
        0x0000d0ba:    6308        .c      STR      r0,[r1,#0x30]
        0x0000d0bc:    6812        .h      LDR      r2,[r2,#0]
        0x0000d0be:    b2d2        ..      UXTB     r2,r2
        0x0000d0c0:    4310        .C      ORRS     r0,r0,r2
        0x0000d0c2:    6308        .c      STR      r0,[r1,#0x30]
        0x0000d0c4:    e017        ..      B        0xd0f6 ; am_hal_mcuctrl_info_get + 274
        0x0000d0c6:    f8d201cc    ....    LDR      r0,[r2,#0x1cc]
        0x0000d0ca:    f0000301    ....    AND      r3,r0,#1
        0x0000d0ce:    700b        .p      STRB     r3,[r1,#0]
        0x0000d0d0:    f3c00340    ..@.    UBFX     r3,r0,#1,#1
        0x0000d0d4:    720b        .r      STRB     r3,[r1,#8]
        0x0000d0d6:    f3c00080    ....    UBFX     r0,r0,#2,#1
        0x0000d0da:    7408        .t      STRB     r0,[r1,#0x10]
        0x0000d0dc:    f8d201c4    ....    LDR      r0,[r2,#0x1c4]
        0x0000d0e0:    60c8        .`      STR      r0,[r1,#0xc]
        0x0000d0e2:    6848        Hh      LDR      r0,[r1,#4]
        0x0000d0e4:    f8d231c0    ...1    LDR      r3,[r2,#0x1c0]
        0x0000d0e8:    4318        .C      ORRS     r0,r0,r3
        0x0000d0ea:    6048        H`      STR      r0,[r1,#4]
        0x0000d0ec:    6948        Hi      LDR      r0,[r1,#0x14]
        0x0000d0ee:    f8d221c8    ...!    LDR      r2,[r2,#0x1c8]
        0x0000d0f2:    4310        .C      ORRS     r0,r0,r2
        0x0000d0f4:    6148        Ha      STR      r0,[r1,#0x14]
        0x0000d0f6:    2000        .       MOVS     r0,#0
        0x0000d0f8:    4770        pG      BX       lr
    $d
        0x0000d0fa:    0000        ..      DCW    0
        0x0000d0fc:    40020000    ...@    DCD    1073872896
        0x0000d100:    0000e428    (...    DCD    58408
        0x0000d104:    f0000fe0    ....    DCD    4026535904
        0x0000d108:    f0000fe4    ....    DCD    4026535908
        0x0000d10c:    f0000ffc    ....    DCD    4026535932
        0x0000d110:    f0000ff8    ....    DCD    4026535928
        0x0000d114:    f0000ff4    ....    DCD    4026535924
        0x0000d118:    f0000ff0    ....    DCD    4026535920
    $t
    i.am_hal_pwrctrl_low_power_init
    am_hal_pwrctrl_low_power_init
        0x0000d11c:    b5f8        ..      PUSH     {r3-r7,lr}
        0x0000d11e:    4851        QH      LDR      r0,[pc,#324] ; [0xd264] = 0x10011070
        0x0000d120:    6801        .h      LDR      r1,[r0,#0]
        0x0000d122:    b911        ..      CBNZ     r1,0xd12a ; am_hal_pwrctrl_low_power_init + 14
        0x0000d124:    4950        PI      LDR      r1,[pc,#320] ; [0xd268] = 0x4ffff000
        0x0000d126:    6809        .h      LDR      r1,[r1,#0]
        0x0000d128:    6001        .`      STR      r1,[r0,#0]
        0x0000d12a:    4c50        PL      LDR      r4,[pc,#320] ; [0xd26c] = 0x40020000
        0x0000d12c:    68e0        .h      LDR      r0,[r4,#0xc]
        0x0000d12e:    2601        .&      MOVS     r6,#1
        0x0000d130:    b2c0        ..      UXTB     r0,r0
        0x0000d132:    2821        !(      CMP      r0,#0x21
        0x0000d134:    d302        ..      BCC      0xd13c ; am_hal_pwrctrl_low_power_init + 32
        0x0000d136:    484e        NH      LDR      r0,[pc,#312] ; [0xd270] = 0x1001106d
        0x0000d138:    7801        .x      LDRB     r1,[r0,#0]
        0x0000d13a:    b199        ..      CBZ      r1,0xd164 ; am_hal_pwrctrl_low_power_init + 72
        0x0000d13c:    68e0        .h      LDR      r0,[r4,#0xc]
        0x0000d13e:    b2c0        ..      UXTB     r0,r0
        0x0000d140:    2812        .(      CMP      r0,#0x12
        0x0000d142:    d305        ..      BCC      0xd150 ; am_hal_pwrctrl_low_power_init + 52
        0x0000d144:    f8d4035c    ..\.    LDR      r0,[r4,#0x35c]
        0x0000d148:    f0207080     ..p    BIC      r0,r0,#0x1000000
        0x0000d14c:    f8c4035c    ..\.    STR      r0,[r4,#0x35c]
        0x0000d150:    2100        .!      MOVS     r1,#0
        0x0000d152:    200c        .       MOVS     r0,#0xc
        0x0000d154:    f7fffa64    ..d.    BL       am_hal_cachectrl_control ; 0xc620
        0x0000d158:    4d46        FM      LDR      r5,[pc,#280] ; [0xd274] = 0x40021000
        0x0000d15a:    69a8        .i      LDR      r0,[r5,#0x18]
        0x0000d15c:    f4107f80    ....    TST      r0,#0x100
        0x0000d160:    d047        G.      BEQ      0xd1f2 ; am_hal_pwrctrl_low_power_init + 214
        0x0000d162:    e07d        }.      B        0xd260 ; am_hal_pwrctrl_low_power_init + 324
        0x0000d164:    7006        .p      STRB     r6,[r0,#0]
        0x0000d166:    f8d40350    ..P.    LDR      r0,[r4,#0x350]
        0x0000d16a:    f3c05085    ...P    UBFX     r0,r0,#22,#6
        0x0000d16e:    280c        .(      CMP      r0,#0xc
        0x0000d170:    bf8c        ..      ITE      HI
        0x0000d172:    380c        .8      SUBHI    r0,r0,#0xc
        0x0000d174:    2000        .       MOVLS    r0,#0
        0x0000d176:    f8d41350    ..P.    LDR      r1,[r4,#0x350]
        0x0000d17a:    f360519b    `..Q    BFI      r1,r0,#22,#6
        0x0000d17e:    f8c41350    ..P.    STR      r1,[r4,#0x350]
        0x0000d182:    f8d40354    ..T.    LDR      r0,[r4,#0x354]
        0x0000d186:    f4200070     .p.    BIC      r0,r0,#0xf00000
        0x0000d18a:    f5000000    ....    ADD      r0,r0,#0x800000
        0x0000d18e:    f8c40354    ..T.    STR      r0,[r4,#0x354]
        0x0000d192:    f8d40354    ..T.    LDR      r0,[r4,#0x354]
        0x0000d196:    f4202070     .p     BIC      r0,r0,#0xf0000
        0x0000d19a:    f50020a0    ...     ADD      r0,r0,#0x50000
        0x0000d19e:    f8c40354    ..T.    STR      r0,[r4,#0x354]
        0x0000d1a2:    f8d4035c    ..\.    LDR      r0,[r4,#0x35c]
        0x0000d1a6:    f020000f     ...    BIC      r0,r0,#0xf
        0x0000d1aa:    3008        .0      ADDS     r0,r0,#8
        0x0000d1ac:    f8c4035c    ..\.    STR      r0,[r4,#0x35c]
        0x0000d1b0:    f8d40358    ..X.    LDR      r0,[r4,#0x358]
        0x0000d1b4:    f02040f0     ..@    BIC      r0,r0,#0x78000000
        0x0000d1b8:    f1005040    ..@P    ADD      r0,r0,#0x30000000
        0x0000d1bc:    f8c40358    ..X.    STR      r0,[r4,#0x358]
        0x0000d1c0:    f8d4035c    ..\.    LDR      r0,[r4,#0x35c]
        0x0000d1c4:    f4400000    @...    ORR      r0,r0,#0x800000
        0x0000d1c8:    f8c4035c    ..\.    STR      r0,[r4,#0x35c]
        0x0000d1cc:    f8d4035c    ..\.    LDR      r0,[r4,#0x35c]
        0x0000d1d0:    f0207080     ..p    BIC      r0,r0,#0x1000000
        0x0000d1d4:    f8c4035c    ..\.    STR      r0,[r4,#0x35c]
        0x0000d1d8:    f8d40354    ..T.    LDR      r0,[r4,#0x354]
        0x0000d1dc:    f0405040    @.@P    ORR      r0,r0,#0x30000000
        0x0000d1e0:    f8c40354    ..T.    STR      r0,[r4,#0x354]
        0x0000d1e4:    f8d40354    ..T.    LDR      r0,[r4,#0x354]
        0x0000d1e8:    f040001f    @...    ORR      r0,r0,#0x1f
        0x0000d1ec:    f8c40354    ..T.    STR      r0,[r4,#0x354]
        0x0000d1f0:    e7a4        ..      B        0xd13c ; am_hal_pwrctrl_low_power_init + 32
        0x0000d1f2:    68e0        .h      LDR      r0,[r4,#0xc]
        0x0000d1f4:    b2c0        ..      UXTB     r0,r0
        0x0000d1f6:    2812        .(      CMP      r0,#0x12
        0x0000d1f8:    d31a        ..      BCC      0xd230 ; am_hal_pwrctrl_low_power_init + 276
        0x0000d1fa:    f7fff803    ....    BL       am_hal_interrupt_master_disable ; 0xc204
        0x0000d1fe:    9000        ..      STR      r0,[sp,#0]
        0x0000d200:    f8d40368    ..h.    LDR      r0,[r4,#0x368]
        0x0000d204:    f420607c     .|`    BIC      r0,r0,#0xfc0
        0x0000d208:    f50060c8    ...`    ADD      r0,r0,#0x640
        0x0000d20c:    f8c40368    ..h.    STR      r0,[r4,#0x368]
        0x0000d210:    f8d40368    ..h.    LDR      r0,[r4,#0x368]
        0x0000d214:    f020003f     .?.    BIC      r0,r0,#0x3f
        0x0000d218:    300c        .0      ADDS     r0,r0,#0xc
        0x0000d21a:    f8c40368    ..h.    STR      r0,[r4,#0x368]
        0x0000d21e:    f04f2040    O.@     MOV      r0,#0x40004000
        0x0000d222:    6bc1        .k      LDR      r1,[r0,#0x3c]
        0x0000d224:    f4210180    !...    BIC      r1,r1,#0x400000
        0x0000d228:    63c1        .c      STR      r1,[r0,#0x3c]
        0x0000d22a:    9800        ..      LDR      r0,[sp,#0]
        0x0000d22c:    f7feffee    ....    BL       am_hal_interrupt_master_set ; 0xc20c
        0x0000d230:    69a0        .i      LDR      r0,[r4,#0x18]
        0x0000d232:    f0400001    @...    ORR      r0,r0,#1
        0x0000d236:    61a0        .a      STR      r0,[r4,#0x18]
        0x0000d238:    2307        .#      MOVS     r3,#7
        0x0000d23a:    461a        .F      MOV      r2,r3
        0x0000d23c:    490e        .I      LDR      r1,[pc,#56] ; [0xd278] = 0x40020018
        0x0000d23e:    f2427010    B..p    MOV      r0,#0x2710
        0x0000d242:    9600        ..      STR      r6,[sp,#0]
        0x0000d244:    f7fffc76    ..v.    BL       am_hal_flash_delay_status_check ; 0xcb34
        0x0000d248:    2800        .(      CMP      r0,#0
        0x0000d24a:    bf1c        ..      ITT      NE
        0x0000d24c:    2004        .       MOVNE    r0,#4
        0x0000d24e:    bdf8        ..      POPNE    {r3-r7,pc}
        0x0000d250:    6828        (h      LDR      r0,[r5,#0]
        0x0000d252:    f0400001    @...    ORR      r0,r0,#1
        0x0000d256:    6028        (`      STR      r0,[r5,#0]
        0x0000d258:    6a68        hj      LDR      r0,[r5,#0x24]
        0x0000d25a:    f0400040    @.@.    ORR      r0,r0,#0x40
        0x0000d25e:    6268        hb      STR      r0,[r5,#0x24]
        0x0000d260:    2000        .       MOVS     r0,#0
        0x0000d262:    bdf8        ..      POP      {r3-r7,pc}
    $d
        0x0000d264:    10011070    p...    DCD    268505200
        0x0000d268:    4ffff000    ...O    DCD    1342173184
        0x0000d26c:    40020000    ...@    DCD    1073872896
        0x0000d270:    1001106d    m...    DCD    268505197
        0x0000d274:    40021000    ...@    DCD    1073876992
        0x0000d278:    40020018    ...@    DCD    1073872920
    $t
    i.am_hal_pwrctrl_periph_disable
    am_hal_pwrctrl_periph_disable
        0x0000d27c:    b5f8        ..      PUSH     {r3-r7,lr}
        0x0000d27e:    4605        .F      MOV      r5,r0
        0x0000d280:    f7feffc0    ....    BL       am_hal_interrupt_master_disable ; 0xc204
        0x0000d284:    4c0f        .L      LDR      r4,[pc,#60] ; [0xd2c4] = 0x40021000
        0x0000d286:    9000        ..      STR      r0,[sp,#0]
        0x0000d288:    68a0        .h      LDR      r0,[r4,#8]
        0x0000d28a:    4e0f        .N      LDR      r6,[pc,#60] ; [0xd2c8] = 0xe4ac
        0x0000d28c:    eb050745    ..E.    ADD      r7,r5,r5,LSL #1
        0x0000d290:    f8561027    V.'.    LDR      r1,[r6,r7,LSL #2]
        0x0000d294:    4388        .C      BICS     r0,r0,r1
        0x0000d296:    60a0        .`      STR      r0,[r4,#8]
        0x0000d298:    9800        ..      LDR      r0,[sp,#0]
        0x0000d29a:    f7feffb7    ....    BL       am_hal_interrupt_master_set ; 0xc20c
        0x0000d29e:    2500        .%      MOVS     r5,#0
        0x0000d2a0:    eb060687    ....    ADD      r6,r6,r7,LSL #2
        0x0000d2a4:    20a0        .       MOVS     r0,#0xa0
        0x0000d2a6:    f7fffc33    ..3.    BL       am_hal_flash_delay ; 0xcb10
        0x0000d2aa:    69a0        .i      LDR      r0,[r4,#0x18]
        0x0000d2ac:    6871        qh      LDR      r1,[r6,#4]
        0x0000d2ae:    4208        .B      TST      r0,r1
        0x0000d2b0:    d002        ..      BEQ      0xd2b8 ; am_hal_pwrctrl_periph_disable + 60
        0x0000d2b2:    350a        .5      ADDS     r5,r5,#0xa
        0x0000d2b4:    2d14        .-      CMP      r5,#0x14
        0x0000d2b6:    d3f5        ..      BCC      0xd2a4 ; am_hal_pwrctrl_periph_disable + 40
        0x0000d2b8:    69a0        .i      LDR      r0,[r4,#0x18]
        0x0000d2ba:    4008        .@      ANDS     r0,r0,r1
        0x0000d2bc:    bf18        ..      IT       NE
        0x0000d2be:    2001        .       MOVNE    r0,#1
        0x0000d2c0:    bdf8        ..      POP      {r3-r7,pc}
    $d
        0x0000d2c2:    0000        ..      DCW    0
        0x0000d2c4:    40021000    ...@    DCD    1073876992
        0x0000d2c8:    0000e4ac    ....    DCD    58540
    $t
    i.am_hal_pwrctrl_periph_enable
    am_hal_pwrctrl_periph_enable
        0x0000d2cc:    b5f8        ..      PUSH     {r3-r7,lr}
        0x0000d2ce:    4605        .F      MOV      r5,r0
        0x0000d2d0:    f7feff98    ....    BL       am_hal_interrupt_master_disable ; 0xc204
        0x0000d2d4:    4c0f        .L      LDR      r4,[pc,#60] ; [0xd314] = 0x40021000
        0x0000d2d6:    9000        ..      STR      r0,[sp,#0]
        0x0000d2d8:    68a0        .h      LDR      r0,[r4,#8]
        0x0000d2da:    4e0f        .N      LDR      r6,[pc,#60] ; [0xd318] = 0xe4ac
        0x0000d2dc:    eb050745    ..E.    ADD      r7,r5,r5,LSL #1
        0x0000d2e0:    f8561027    V.'.    LDR      r1,[r6,r7,LSL #2]
        0x0000d2e4:    4308        .C      ORRS     r0,r0,r1
        0x0000d2e6:    60a0        .`      STR      r0,[r4,#8]
        0x0000d2e8:    9800        ..      LDR      r0,[sp,#0]
        0x0000d2ea:    f7feff8f    ....    BL       am_hal_interrupt_master_set ; 0xc20c
        0x0000d2ee:    2500        .%      MOVS     r5,#0
        0x0000d2f0:    eb060687    ....    ADD      r6,r6,r7,LSL #2
        0x0000d2f4:    20a0        .       MOVS     r0,#0xa0
        0x0000d2f6:    f7fffc0b    ....    BL       am_hal_flash_delay ; 0xcb10
        0x0000d2fa:    69a0        .i      LDR      r0,[r4,#0x18]
        0x0000d2fc:    6871        qh      LDR      r1,[r6,#4]
        0x0000d2fe:    4208        .B      TST      r0,r1
        0x0000d300:    d102        ..      BNE      0xd308 ; am_hal_pwrctrl_periph_enable + 60
        0x0000d302:    350a        .5      ADDS     r5,r5,#0xa
        0x0000d304:    2d14        .-      CMP      r5,#0x14
        0x0000d306:    d3f5        ..      BCC      0xd2f4 ; am_hal_pwrctrl_periph_enable + 40
        0x0000d308:    69a0        .i      LDR      r0,[r4,#0x18]
        0x0000d30a:    4208        .B      TST      r0,r1
        0x0000d30c:    bf14        ..      ITE      NE
        0x0000d30e:    2000        .       MOVNE    r0,#0
        0x0000d310:    2001        .       MOVEQ    r0,#1
        0x0000d312:    bdf8        ..      POP      {r3-r7,pc}
    $d
        0x0000d314:    40021000    ...@    DCD    1073876992
        0x0000d318:    0000e4ac    ....    DCD    58540
    $t
    i.am_hal_rtc_osc_disable
    am_hal_rtc_osc_disable
        0x0000d31c:    f04f2040    O.@     MOV      r0,#0x40004000
        0x0000d320:    f8d01250    ..P.    LDR      r1,[r0,#0x250]
        0x0000d324:    f0410110    A...    ORR      r1,r1,#0x10
        0x0000d328:    f8c01250    ..P.    STR      r1,[r0,#0x250]
        0x0000d32c:    4770        pG      BX       lr
        0x0000d32e:    0000        ..      MOVS     r0,r0
    i.am_hal_stimer_compare_delta_set
    am_hal_stimer_compare_delta_set
        0x0000d330:    2807        .(      CMP      r0,#7
        0x0000d332:    bf88        ..      IT       HI
        0x0000d334:    4770        pG      BXHI     lr
        0x0000d336:    b5f8        ..      PUSH     {r3-r7,lr}
        0x0000d338:    460c        .F      MOV      r4,r1
        0x0000d33a:    4605        .F      MOV      r5,r0
        0x0000d33c:    f7feff62    ..b.    BL       am_hal_interrupt_master_disable ; 0xc204
        0x0000d340:    4925        %I      LDR      r1,[pc,#148] ; [0xd3d8] = 0x40008000
        0x0000d342:    9000        ..      STR      r0,[sp,#0]
        0x0000d344:    f8d16140    ..@a    LDR      r6,[r1,#0x140]
        0x0000d348:    f8d12140    ..@!    LDR      r2,[r1,#0x140]
        0x0000d34c:    1588        ..      ASRS     r0,r1,#22
        0x0000d34e:    fa00fc05    ....    LSL      r12,r0,r5
        0x0000d352:    ea22000c    "...    BIC      r0,r2,r12
        0x0000d356:    f8c10140    ..@.    STR      r0,[r1,#0x140]
        0x0000d35a:    f8d10144    ..D.    LDR      r0,[r1,#0x144]
        0x0000d35e:    1902        ..      ADDS     r2,r0,r4
        0x0000d360:    00a8        ..      LSLS     r0,r5,#2
        0x0000d362:    4408        .D      ADD      r0,r0,r1
        0x0000d364:    f102070a    ....    ADD      r7,r2,#0xa
        0x0000d368:    f8c04150    ..PA    STR      r4,[r0,#0x150]
        0x0000d36c:    f8d03150    ..P1    LDR      r3,[r0,#0x150]
        0x0000d370:    1a9a        ..      SUBS     r2,r3,r2
        0x0000d372:    d402        ..      BMI      0xd37a ; am_hal_stimer_compare_delta_set + 74
        0x0000d374:    1bda        ..      SUBS     r2,r3,r7
        0x0000d376:    2a00        .*      CMP      r2,#0
        0x0000d378:    dd21        !.      BLE      0xd3be ; am_hal_stimer_compare_delta_set + 142
        0x0000d37a:    f8d12144    ..D!    LDR      r2,[r1,#0x144]
        0x0000d37e:    f8c04150    ..PA    STR      r4,[r0,#0x150]
        0x0000d382:    4422        "D      ADD      r2,r2,r4
        0x0000d384:    f102050a    ....    ADD      r5,r2,#0xa
        0x0000d388:    f8d03150    ..P1    LDR      r3,[r0,#0x150]
        0x0000d38c:    1a9a        ..      SUBS     r2,r3,r2
        0x0000d38e:    d402        ..      BMI      0xd396 ; am_hal_stimer_compare_delta_set + 102
        0x0000d390:    1b5a        Z.      SUBS     r2,r3,r5
        0x0000d392:    2a00        .*      CMP      r2,#0
        0x0000d394:    dd13        ..      BLE      0xd3be ; am_hal_stimer_compare_delta_set + 142
        0x0000d396:    f8d12144    ..D!    LDR      r2,[r1,#0x144]
        0x0000d39a:    f8c04150    ..PA    STR      r4,[r0,#0x150]
        0x0000d39e:    4422        "D      ADD      r2,r2,r4
        0x0000d3a0:    f102050a    ....    ADD      r5,r2,#0xa
        0x0000d3a4:    f8d03150    ..P1    LDR      r3,[r0,#0x150]
        0x0000d3a8:    1a9a        ..      SUBS     r2,r3,r2
        0x0000d3aa:    d402        ..      BMI      0xd3b2 ; am_hal_stimer_compare_delta_set + 130
        0x0000d3ac:    1b5a        Z.      SUBS     r2,r3,r5
        0x0000d3ae:    2a00        .*      CMP      r2,#0
        0x0000d3b0:    dd05        ..      BLE      0xd3be ; am_hal_stimer_compare_delta_set + 142
        0x0000d3b2:    f8d12144    ..D!    LDR      r2,[r1,#0x144]
        0x0000d3b6:    f8c04150    ..PA    STR      r4,[r0,#0x150]
        0x0000d3ba:    f8d00150    ..P.    LDR      r0,[r0,#0x150]
        0x0000d3be:    f8d10140    ..@.    LDR      r0,[r1,#0x140]
        0x0000d3c2:    ea0c0206    ....    AND      r2,r12,r6
        0x0000d3c6:    4310        .C      ORRS     r0,r0,r2
        0x0000d3c8:    f8c10140    ..@.    STR      r0,[r1,#0x140]
        0x0000d3cc:    9800        ..      LDR      r0,[sp,#0]
        0x0000d3ce:    e8bd40f8    ...@    POP      {r3-r7,lr}
        0x0000d3d2:    f7febf1b    ....    B        am_hal_interrupt_master_set ; 0xc20c
    $d
        0x0000d3d6:    0000        ..      DCW    0
        0x0000d3d8:    40008000    ...@    DCD    1073774592
    $t
    i.am_hal_stimer_config
    am_hal_stimer_config
        0x0000d3dc:    4903        .I      LDR      r1,[pc,#12] ; [0xd3ec] = 0x40008000
        0x0000d3de:    f8d12140    ..@!    LDR      r2,[r1,#0x140]
        0x0000d3e2:    f8c10140    ..@.    STR      r0,[r1,#0x140]
        0x0000d3e6:    4610        .F      MOV      r0,r2
        0x0000d3e8:    4770        pG      BX       lr
    $d
        0x0000d3ea:    0000        ..      DCW    0
        0x0000d3ec:    40008000    ...@    DCD    1073774592
    $t
    i.am_hal_stimer_int_clear
    am_hal_stimer_int_clear
        0x0000d3f0:    4901        .I      LDR      r1,[pc,#4] ; [0xd3f8] = 0x40008000
        0x0000d3f2:    f8c10308    ....    STR      r0,[r1,#0x308]
        0x0000d3f6:    4770        pG      BX       lr
    $d
        0x0000d3f8:    40008000    ...@    DCD    1073774592
    $t
    i.am_hal_stimer_int_enable
    am_hal_stimer_int_enable
        0x0000d3fc:    4903        .I      LDR      r1,[pc,#12] ; [0xd40c] = 0x40008000
        0x0000d3fe:    f8d12300    ...#    LDR      r2,[r1,#0x300]
        0x0000d402:    4310        .C      ORRS     r0,r0,r2
        0x0000d404:    f8c10300    ....    STR      r0,[r1,#0x300]
        0x0000d408:    4770        pG      BX       lr
    $d
        0x0000d40a:    0000        ..      DCW    0
        0x0000d40c:    40008000    ...@    DCD    1073774592
    $t
    i.am_hal_sysctrl_sleep
    am_hal_sysctrl_sleep
        0x0000d410:    b530        0.      PUSH     {r4,r5,lr}
        0x0000d412:    b083        ..      SUB      sp,sp,#0xc
        0x0000d414:    4605        .F      MOV      r5,r0
        0x0000d416:    f7fefef5    ....    BL       am_hal_interrupt_master_disable ; 0xc204
        0x0000d41a:    9001        ..      STR      r0,[sp,#4]
        0x0000d41c:    f04f2040    O.@     MOV      r0,#0x40004000
        0x0000d420:    6b40        @k      LDR      r0,[r0,#0x34]
        0x0000d422:    f0100f04    ....    TST      r0,#4
        0x0000d426:    bf08        ..      IT       EQ
        0x0000d428:    2400        .$      MOVEQ    r4,#0
        0x0000d42a:    d00a        ..      BEQ      0xd442 ; am_hal_sysctrl_sleep + 50
        0x0000d42c:    2401        .$      MOVS     r4,#1
        0x0000d42e:    4668        hF      MOV      r0,sp
        0x0000d430:    f7fff872    ..r.    BL       am_hal_burst_mode_disable ; 0xc518
        0x0000d434:    2800        .(      CMP      r0,#0
        0x0000d436:    bf04        ..      ITT      EQ
        0x0000d438:    f89d0000    ....    LDRBEQ   r0,[sp,#0]
        0x0000d43c:    2801        .(      CMPEQ    r0,#1
        0x0000d43e:    d000        ..      BEQ      0xd442 ; am_hal_sysctrl_sleep + 50
        0x0000d440:    e7fe        ..      B        0xd440 ; am_hal_sysctrl_sleep + 48
        0x0000d442:    4914        .I      LDR      r1,[pc,#80] ; [0xd494] = 0xe000ed10
        0x0000d444:    b12d        -.      CBZ      r5,0xd452 ; am_hal_sysctrl_sleep + 66
        0x0000d446:    4814        .H      LDR      r0,[pc,#80] ; [0xd498] = 0x40020000
        0x0000d448:    f8d00250    ..P.    LDR      r0,[r0,#0x250]
        0x0000d44c:    f0100f01    ....    TST      r0,#1
        0x0000d450:    d003        ..      BEQ      0xd45a ; am_hal_sysctrl_sleep + 74
        0x0000d452:    6808        .h      LDR      r0,[r1,#0]
        0x0000d454:    f0200004     ...    BIC      r0,r0,#4
        0x0000d458:    e008        ..      B        0xd46c ; am_hal_sysctrl_sleep + 92
        0x0000d45a:    4810        .H      LDR      r0,[pc,#64] ; [0xd49c] = 0x10011070
        0x0000d45c:    6802        .h      LDR      r2,[r0,#0]
        0x0000d45e:    b912        ..      CBNZ     r2,0xd466 ; am_hal_sysctrl_sleep + 86
        0x0000d460:    4a0f        .J      LDR      r2,[pc,#60] ; [0xd4a0] = 0x4ffff000
        0x0000d462:    6812        .h      LDR      r2,[r2,#0]
        0x0000d464:    6002        .`      STR      r2,[r0,#0]
        0x0000d466:    6808        .h      LDR      r0,[r1,#0]
        0x0000d468:    f0400004    @...    ORR      r0,r0,#4
        0x0000d46c:    6008        .`      STR      r0,[r1,#0]
        0x0000d46e:    f3bf8f4f    ..O.    DSB      
        0x0000d472:    480c        .H      LDR      r0,[pc,#48] ; [0xd4a4] = 0x5fff0000
        0x0000d474:    490c        .I      LDR      r1,[pc,#48] ; [0xd4a8] = 0x10011068
        0x0000d476:    6800        .h      LDR      r0,[r0,#0]
        0x0000d478:    6008        .`      STR      r0,[r1,#0]
        0x0000d47a:    bf30        0.      WFI      
        0x0000d47c:    f3bf8f6f    ..o.    ISB      
        0x0000d480:    2c00        .,      CMP      r4,#0
        0x0000d482:    bf1c        ..      ITT      NE
        0x0000d484:    4668        hF      MOVNE    r0,sp
        0x0000d486:    f7fff875    ..u.    BLNE     am_hal_burst_mode_enable ; 0xc574
        0x0000d48a:    9801        ..      LDR      r0,[sp,#4]
        0x0000d48c:    f7fefebe    ....    BL       am_hal_interrupt_master_set ; 0xc20c
        0x0000d490:    b003        ..      ADD      sp,sp,#0xc
        0x0000d492:    bd30        0.      POP      {r4,r5,pc}
    $d
        0x0000d494:    e000ed10    ....    DCD    3758157072
        0x0000d498:    40020000    ...@    DCD    1073872896
        0x0000d49c:    10011070    p...    DCD    268505200
        0x0000d4a0:    4ffff000    ...O    DCD    1342173184
        0x0000d4a4:    5fff0000    ..._    DCD    1610547200
        0x0000d4a8:    10011068    h...    DCD    268505192
    $t
    i.am_hal_tpiu_enable
    am_hal_tpiu_enable
        0x0000d4ac:    e92d41f0    -..A    PUSH     {r4-r8,lr}
        0x0000d4b0:    4c1d        .L      LDR      r4,[pc,#116] ; [0xd528] = 0xe0040000
        0x0000d4b2:    b084        ..      SUB      sp,sp,#0x10
        0x0000d4b4:    2600        .&      MOVS     r6,#0
        0x0000d4b6:    6805        .h      LDR      r5,[r0,#0]
        0x0000d4b8:    f8c46304    ...c    STR      r6,[r4,#0x304]
        0x0000d4bc:    4f1b        .O      LDR      r7,[pc,#108] ; [0xd52c] = 0xe0040f00
        0x0000d4be:    f8df8070    ..p.    LDR      r8,[pc,#112] ; [0xd530] = 0x40020000
        0x0000d4c2:    2101        .!      MOVS     r1,#1
        0x0000d4c4:    b31d        ..      CBZ      r5,0xd50e ; am_hal_tpiu_enable + 98
        0x0000d4c6:    6061        a`      STR      r1,[r4,#4]
        0x0000d4c8:    491a        .I      LDR      r1,[pc,#104] ; [0xd534] = 0x1da381
        0x0000d4ca:    f5a54061    ..a@    SUB      r0,r5,#0xe100
        0x0000d4ce:    4288        .B      CMP      r0,r1
        0x0000d4d0:    bf28        (.      IT       CS
        0x0000d4d2:    4d19        .M      LDRCS    r5,[pc,#100] ; [0xd538] = 0xf4240
        0x0000d4d4:    4668        hF      MOV      r0,sp
        0x0000d4d6:    f7fffb01    ....    BL       am_hal_clkgen_status_get ; 0xcadc
        0x0000d4da:    9800        ..      LDR      r0,[sp,#0]
        0x0000d4dc:    f1b03fff    ...?    CMP      r0,#0xffffffff
        0x0000d4e0:    bf1d        ..      ITTTE    NE
        0x0000d4e2:    08c0        ..      LSRNE    r0,r0,#3
        0x0000d4e4:    fbb0f0f5    ....    UDIVNE   r0,r0,r5
        0x0000d4e8:    1e40        @.      SUBNE    r0,r0,#1
        0x0000d4ea:    2005        .       MOVEQ    r0,#5
        0x0000d4ec:    b280        ..      UXTH     r0,r0
        0x0000d4ee:    6120         a      STR      r0,[r4,#0x10]
        0x0000d4f0:    2002        .       MOVS     r0,#2
        0x0000d4f2:    f8c400f0    ....    STR      r0,[r4,#0xf0]
        0x0000d4f6:    603e        >`      STR      r6,[r7,#0]
        0x0000d4f8:    f2402001    @..     MOV      r0,#0x201
        0x0000d4fc:    f8c80250    ..P.    STR      r0,[r8,#0x250]
        0x0000d500:    f44f7048    O.Hp    MOV      r0,#0x320
        0x0000d504:    f7fffb04    ....    BL       am_hal_flash_delay ; 0xcb10
        0x0000d508:    b004        ..      ADD      sp,sp,#0x10
        0x0000d50a:    e8bd81f0    ....    POP      {r4-r8,pc}
        0x0000d50e:    6902        .i      LDR      r2,[r0,#0x10]
        0x0000d510:    6122        "a      STR      r2,[r4,#0x10]
        0x0000d512:    6882        .h      LDR      r2,[r0,#8]
        0x0000d514:    f8c420f0    ...     STR      r2,[r4,#0xf0]
        0x0000d518:    7b02        .{      LDRB     r2,[r0,#0xc]
        0x0000d51a:    1e52        R.      SUBS     r2,r2,#1
        0x0000d51c:    4091        .@      LSLS     r1,r1,r2
        0x0000d51e:    6061        a`      STR      r1,[r4,#4]
        0x0000d520:    603e        >`      STR      r6,[r7,#0]
        0x0000d522:    6840        @h      LDR      r0,[r0,#4]
        0x0000d524:    e7ea        ..      B        0xd4fc ; am_hal_tpiu_enable + 80
    $d
        0x0000d526:    0000        ..      DCW    0
        0x0000d528:    e0040000    ....    DCD    3758358528
        0x0000d52c:    e0040f00    ....    DCD    3758362368
        0x0000d530:    40020000    ...@    DCD    1073872896
        0x0000d534:    001da381    ....    DCD    1942401
        0x0000d538:    000f4240    @B..    DCD    1000000
    $t
    i.am_hal_uart_deinitialize
    am_hal_uart_deinitialize
        0x0000d53c:    2800        .(      CMP      r0,#0
        0x0000d53e:    bf1c        ..      ITT      NE
        0x0000d540:    6801        .h      LDRNE    r1,[r0,#0]
        0x0000d542:    f0117f80    ....    TSTNE    r1,#0x1000000
        0x0000d546:    d004        ..      BEQ      0xd552 ; am_hal_uart_deinitialize + 22
        0x0000d548:    4b07        .K      LDR      r3,[pc,#28] ; [0xd568] = 0xea9e06
        0x0000d54a:    f021427f    !..B    BIC      r2,r1,#0xff000000
        0x0000d54e:    429a        .B      CMP      r2,r3
        0x0000d550:    d001        ..      BEQ      0xd556 ; am_hal_uart_deinitialize + 26
        0x0000d552:    2002        .       MOVS     r0,#2
        0x0000d554:    4770        pG      BX       lr
        0x0000d556:    f0217180    !..q    BIC      r1,r1,#0x1000000
        0x0000d55a:    6001        .`      STR      r1,[r0,#0]
        0x0000d55c:    2100        .!      MOVS     r1,#0
        0x0000d55e:    6241        Ab      STR      r1,[r0,#0x24]
        0x0000d560:    7101        .q      STRB     r1,[r0,#4]
        0x0000d562:    4608        .F      MOV      r0,r1
        0x0000d564:    4770        pG      BX       lr
    $d
        0x0000d566:    0000        ..      DCW    0
        0x0000d568:    00ea9e06    ....    DCD    15375878
    $t
    i.am_hal_uart_power_control
    am_hal_uart_power_control
        0x0000d56c:    b5f8        ..      PUSH     {r3-r7,lr}
        0x0000d56e:    6a47        Gj      LDR      r7,[r0,#0x24]
        0x0000d570:    1e04        ..      SUBS     r4,r0,#0
        0x0000d572:    f1070308    ....    ADD      r3,r7,#8
        0x0000d576:    b2dd        ..      UXTB     r5,r3
        0x0000d578:    bf1c        ..      ITT      NE
        0x0000d57a:    6820         h      LDRNE    r0,[r4,#0]
        0x0000d57c:    f0107f80    ....    TSTNE    r0,#0x1000000
        0x0000d580:    d004        ..      BEQ      0xd58c ; am_hal_uart_power_control + 32
        0x0000d582:    4e34        4N      LDR      r6,[pc,#208] ; [0xd654] = 0xea9e06
        0x0000d584:    f020407f     ..@    BIC      r0,r0,#0xff000000
        0x0000d588:    42b0        .B      CMP      r0,r6
        0x0000d58a:    d001        ..      BEQ      0xd590 ; am_hal_uart_power_control + 36
        0x0000d58c:    2002        .       MOVS     r0,#2
        0x0000d58e:    bdf8        ..      POP      {r3-r7,pc}
        0x0000d590:    2900        .)      CMP      r1,#0
        0x0000d592:    d036        6.      BEQ      0xd602 ; am_hal_uart_power_control + 150
        0x0000d594:    2901        .)      CMP      r1,#1
        0x0000d596:    bf1e        ..      ITTT     NE
        0x0000d598:    2902        .)      CMPNE    r1,#2
        0x0000d59a:    2006        .       MOVNE    r0,#6
        0x0000d59c:    bdf8        ..      POPNE    {r3-r7,pc}
        0x0000d59e:    b1d2        ..      CBZ      r2,0xd5d6 ; am_hal_uart_power_control + 106
        0x0000d5a0:    f7fefe30    ..0.    BL       am_hal_interrupt_master_disable ; 0xc204
        0x0000d5a4:    9000        ..      STR      r0,[sp,#0]
        0x0000d5a6:    0338        8.      LSLS     r0,r7,#12
        0x0000d5a8:    f1004080    ...@    ADD      r0,r0,#0x40000000
        0x0000d5ac:    f50030e0    ...0    ADD      r0,r0,#0x1c000
        0x0000d5b0:    6a01        .j      LDR      r1,[r0,#0x20]
        0x0000d5b2:    60a1        .`      STR      r1,[r4,#8]
        0x0000d5b4:    6a41        Aj      LDR      r1,[r0,#0x24]
        0x0000d5b6:    60e1        .`      STR      r1,[r4,#0xc]
        0x0000d5b8:    6a81        .j      LDR      r1,[r0,#0x28]
        0x0000d5ba:    6121        !a      STR      r1,[r4,#0x10]
        0x0000d5bc:    6ac1        .j      LDR      r1,[r0,#0x2c]
        0x0000d5be:    6161        aa      STR      r1,[r4,#0x14]
        0x0000d5c0:    6b01        .k      LDR      r1,[r0,#0x30]
        0x0000d5c2:    61a1        .a      STR      r1,[r4,#0x18]
        0x0000d5c4:    6b41        Ak      LDR      r1,[r0,#0x34]
        0x0000d5c6:    61e1        .a      STR      r1,[r4,#0x1c]
        0x0000d5c8:    6b80        .k      LDR      r0,[r0,#0x38]
        0x0000d5ca:    6220         b      STR      r0,[r4,#0x20]
        0x0000d5cc:    2001        .       MOVS     r0,#1
        0x0000d5ce:    7120         q      STRB     r0,[r4,#4]
        0x0000d5d0:    9800        ..      LDR      r0,[sp,#0]
        0x0000d5d2:    f7fefe1b    ....    BL       am_hal_interrupt_master_set ; 0xc20c
        0x0000d5d6:    6822        "h      LDR      r2,[r4,#0]
        0x0000d5d8:    6a61        aj      LDR      r1,[r4,#0x24]
        0x0000d5da:    f04f30ff    O..0    MOV      r0,#0xffffffff
        0x0000d5de:    f0127f80    ....    TST      r2,#0x1000000
        0x0000d5e2:    d009        ..      BEQ      0xd5f8 ; am_hal_uart_power_control + 140
        0x0000d5e4:    f022427f    "..B    BIC      r2,r2,#0xff000000
        0x0000d5e8:    42b2        .B      CMP      r2,r6
        0x0000d5ea:    d105        ..      BNE      0xd5f8 ; am_hal_uart_power_control + 140
        0x0000d5ec:    0309        ..      LSLS     r1,r1,#12
        0x0000d5ee:    f1014180    ...A    ADD      r1,r1,#0x40000000
        0x0000d5f2:    f50131e0    ...1    ADD      r1,r1,#0x1c000
        0x0000d5f6:    6448        Hd      STR      r0,[r1,#0x44]
        0x0000d5f8:    4628        (F      MOV      r0,r5
        0x0000d5fa:    f7fffe3f    ..?.    BL       am_hal_pwrctrl_periph_disable ; 0xd27c
        0x0000d5fe:    2000        .       MOVS     r0,#0
        0x0000d600:    bdf8        ..      POP      {r3-r7,pc}
        0x0000d602:    b31a        ..      CBZ      r2,0xd64c ; am_hal_uart_power_control + 224
        0x0000d604:    7920         y      LDRB     r0,[r4,#4]
        0x0000d606:    2800        .(      CMP      r0,#0
        0x0000d608:    bf04        ..      ITT      EQ
        0x0000d60a:    2007        .       MOVEQ    r0,#7
        0x0000d60c:    bdf8        ..      POPEQ    {r3-r7,pc}
        0x0000d60e:    4628        (F      MOV      r0,r5
        0x0000d610:    f7fffe5c    ..\.    BL       am_hal_pwrctrl_periph_enable ; 0xd2cc
        0x0000d614:    f7fefdf6    ....    BL       am_hal_interrupt_master_disable ; 0xc204
        0x0000d618:    9000        ..      STR      r0,[sp,#0]
        0x0000d61a:    0338        8.      LSLS     r0,r7,#12
        0x0000d61c:    f1004080    ...@    ADD      r0,r0,#0x40000000
        0x0000d620:    f50030e0    ...0    ADD      r0,r0,#0x1c000
        0x0000d624:    68a1        .h      LDR      r1,[r4,#8]
        0x0000d626:    6201        .b      STR      r1,[r0,#0x20]
        0x0000d628:    68e1        .h      LDR      r1,[r4,#0xc]
        0x0000d62a:    6241        Ab      STR      r1,[r0,#0x24]
        0x0000d62c:    6921        !i      LDR      r1,[r4,#0x10]
        0x0000d62e:    6281        .b      STR      r1,[r0,#0x28]
        0x0000d630:    6961        ai      LDR      r1,[r4,#0x14]
        0x0000d632:    62c1        .b      STR      r1,[r0,#0x2c]
        0x0000d634:    69a1        .i      LDR      r1,[r4,#0x18]
        0x0000d636:    6301        .c      STR      r1,[r0,#0x30]
        0x0000d638:    69e1        .i      LDR      r1,[r4,#0x1c]
        0x0000d63a:    6341        Ac      STR      r1,[r0,#0x34]
        0x0000d63c:    6a21        !j      LDR      r1,[r4,#0x20]
        0x0000d63e:    6381        .c      STR      r1,[r0,#0x38]
        0x0000d640:    2000        .       MOVS     r0,#0
        0x0000d642:    7120         q      STRB     r0,[r4,#4]
        0x0000d644:    9800        ..      LDR      r0,[sp,#0]
        0x0000d646:    f7fefde1    ....    BL       am_hal_interrupt_master_set ; 0xc20c
        0x0000d64a:    e7d8        ..      B        0xd5fe ; am_hal_uart_power_control + 146
        0x0000d64c:    4628        (F      MOV      r0,r5
        0x0000d64e:    f7fffe3d    ..=.    BL       am_hal_pwrctrl_periph_enable ; 0xd2cc
        0x0000d652:    e7d4        ..      B        0xd5fe ; am_hal_uart_power_control + 146
    $d
        0x0000d654:    00ea9e06    ....    DCD    15375878
    $t
    i.am_hal_uart_tx_flush
    am_hal_uart_tx_flush
        0x0000d658:    b570        p.      PUSH     {r4-r6,lr}
        0x0000d65a:    4604        .F      MOV      r4,r0
        0x0000d65c:    6a46        Fj      LDR      r6,[r0,#0x24]
        0x0000d65e:    f8900028    ..(.    LDRB     r0,[r0,#0x28]
        0x0000d662:    4d13        .M      LDR      r5,[pc,#76] ; [0xd6b0] = 0xb71b00
        0x0000d664:    2800        .(      CMP      r0,#0
        0x0000d666:    bf1c        ..      ITT      NE
        0x0000d668:    6b60        `k      LDRNE    r0,[r4,#0x34]
        0x0000d66a:    2800        .(      CMPNE    r0,#0
        0x0000d66c:    d009        ..      BEQ      0xd682 ; am_hal_uart_tx_flush + 42
        0x0000d66e:    6e20         n      LDR      r0,[r4,#0x60]
        0x0000d670:    fbb5f0f0    ....    UDIV     r0,r5,r0
        0x0000d674:    ea4f1000    O...    LSL      r0,r0,#4
        0x0000d678:    f7fffa4a    ..J.    BL       am_hal_flash_delay ; 0xcb10
        0x0000d67c:    6b60        `k      LDR      r0,[r4,#0x34]
        0x0000d67e:    2800        .(      CMP      r0,#0
        0x0000d680:    d1f5        ..      BNE      0xd66e ; am_hal_uart_tx_flush + 22
        0x0000d682:    0330        0.      LSLS     r0,r6,#12
        0x0000d684:    f1004680    ...F    ADD      r6,r0,#0x40000000
        0x0000d688:    f50636e0    ...6    ADD      r6,r6,#0x1c000
        0x0000d68c:    69b0        .i      LDR      r0,[r6,#0x18]
        0x0000d68e:    f0100f08    ....    TST      r0,#8
        0x0000d692:    d00a        ..      BEQ      0xd6aa ; am_hal_uart_tx_flush + 82
        0x0000d694:    6e20         n      LDR      r0,[r4,#0x60]
        0x0000d696:    fbb5f0f0    ....    UDIV     r0,r5,r0
        0x0000d69a:    ea4f1000    O...    LSL      r0,r0,#4
        0x0000d69e:    f7fffa37    ..7.    BL       am_hal_flash_delay ; 0xcb10
        0x0000d6a2:    69b0        .i      LDR      r0,[r6,#0x18]
        0x0000d6a4:    f0100f08    ....    TST      r0,#8
        0x0000d6a8:    d1f4        ..      BNE      0xd694 ; am_hal_uart_tx_flush + 60
        0x0000d6aa:    f04f0000    O...    MOV      r0,#0
        0x0000d6ae:    bd70        p.      POP      {r4-r6,pc}
    $d
        0x0000d6b0:    00b71b00    ....    DCD    12000000
    $t
    i.am_stimer_cmpr0_isr
    am_stimer_cmpr0_isr
        0x0000d6b4:    b510        ..      PUSH     {r4,lr}
        0x0000d6b6:    2001        .       MOVS     r0,#1
        0x0000d6b8:    f7fffe9a    ....    BL       am_hal_stimer_int_clear ; 0xd3f0
        0x0000d6bc:    f44f4100    O..A    MOV      r1,#0x8000
        0x0000d6c0:    2000        .       MOVS     r0,#0
        0x0000d6c2:    f7fffe35    ..5.    BL       am_hal_stimer_compare_delta_set ; 0xd330
        0x0000d6c6:    480a        .H      LDR      r0,[pc,#40] ; [0xd6f0] = 0x10011000
        0x0000d6c8:    6800        .h      LDR      r0,[r0,#0]
        0x0000d6ca:    2105        .!      MOVS     r1,#5
        0x0000d6cc:    fbb0f2f1    ....    UDIV     r2,r0,r1
        0x0000d6d0:    fb010112    ....    MLS      r1,r1,r2,r0
        0x0000d6d4:    2001        .       MOVS     r0,#1
        0x0000d6d6:    fa00f401    ....    LSL      r4,r0,r1
        0x0000d6da:    4622        "F      MOV      r2,r4
        0x0000d6dc:    2105        .!      MOVS     r1,#5
        0x0000d6de:    4805        .H      LDR      r0,[pc,#20] ; [0xd6f4] = 0x10011018
        0x0000d6e0:    f7fefe8a    ....    BL       am_devices_led_array_out ; 0xc3f8
        0x0000d6e4:    4802        .H      LDR      r0,[pc,#8] ; [0xd6f0] = 0x10011000
        0x0000d6e6:    6800        .h      LDR      r0,[r0,#0]
        0x0000d6e8:    1c40        @.      ADDS     r0,r0,#1
        0x0000d6ea:    4901        .I      LDR      r1,[pc,#4] ; [0xd6f0] = 0x10011000
        0x0000d6ec:    6008        .`      STR      r0,[r1,#0]
        0x0000d6ee:    bd10        ..      POP      {r4,pc}
    $d
        0x0000d6f0:    10011000    ....    DCD    268505088
        0x0000d6f4:    10011018    ....    DCD    268505112
    $t
    i.am_util_delay_ms
    am_util_delay_ms
        0x0000d6f8:    b5fe        ..      PUSH     {r1-r7,lr}
        0x0000d6fa:    4604        .F      MOV      r4,r0
        0x0000d6fc:    4668        hF      MOV      r0,sp
        0x0000d6fe:    f7fff9ed    ....    BL       am_hal_clkgen_status_get ; 0xcadc
        0x0000d702:    9e00        ..      LDR      r6,[sp,#0]
        0x0000d704:    f64030b8    @..0    MOV      r0,#0xbb8
        0x0000d708:    fbb6f0f0    ....    UDIV     r0,r6,r0
        0x0000d70c:    fb00f504    ....    MUL      r5,r0,r4
        0x0000d710:    4628        (F      MOV      r0,r5
        0x0000d712:    f7fff9fd    ....    BL       am_hal_flash_delay ; 0xcb10
        0x0000d716:    bdfe        ..      POP      {r1-r7,pc}
    i.am_util_faultisr_collect_data
    am_util_faultisr_collect_data
        0x0000d718:    b092        ..      SUB      sp,sp,#0x48
        0x0000d71a:    4604        .F      MOV      r4,r0
        0x0000d71c:    2118        .!      MOVS     r1,#0x18
        0x0000d71e:    4668        hF      MOV      r0,sp
        0x0000d720:    f7fefd84    ....    BL       __aeabi_memclr4 ; 0xc22c
        0x0000d724:    2500        .%      MOVS     r5,#0
        0x0000d726:    9510        ..      STR      r5,[sp,#0x40]
        0x0000d728:    4828        (H      LDR      r0,[pc,#160] ; [0xd7cc] = 0xe000ed28
        0x0000d72a:    6800        .h      LDR      r0,[r0,#0]
        0x0000d72c:    9010        ..      STR      r0,[sp,#0x40]
        0x0000d72e:    9810        ..      LDR      r0,[sp,#0x40]
        0x0000d730:    b2c0        ..      UXTB     r0,r0
        0x0000d732:    f88d0044    ..D.    STRB     r0,[sp,#0x44]
        0x0000d736:    9810        ..      LDR      r0,[sp,#0x40]
        0x0000d738:    0a00        ..      LSRS     r0,r0,#8
        0x0000d73a:    f88d0045    ..E.    STRB     r0,[sp,#0x45]
        0x0000d73e:    9810        ..      LDR      r0,[sp,#0x40]
        0x0000d740:    f64f71ff    O..q    MOV      r1,#0xffff
        0x0000d744:    ea014010    ...@    AND      r0,r1,r0,LSR #16
        0x0000d748:    f8ad0046    ..F.    STRH     r0,[sp,#0x46]
        0x0000d74c:    481f        .H      LDR      r0,[pc,#124] ; [0xd7cc] = 0xe000ed28
        0x0000d74e:    3010        .0      ADDS     r0,r0,#0x10
        0x0000d750:    6800        .h      LDR      r0,[r0,#0]
        0x0000d752:    900f        ..      STR      r0,[sp,#0x3c]
        0x0000d754:    f89d0045    ..E.    LDRB     r0,[sp,#0x45]
        0x0000d758:    f0000002    ....    AND      r0,r0,#2
        0x0000d75c:    b120         .      CBZ      r0,0xd768 ; am_util_faultisr_collect_data + 80
        0x0000d75e:    4621        !F      MOV      r1,r4
        0x0000d760:    2006        .       MOVS     r0,#6
        0x0000d762:    f7fefd46    ..F.    BL       getStackedReg ; 0xc1f2
        0x0000d766:    e001        ..      B        0xd76c ; am_util_faultisr_collect_data + 84
        0x0000d768:    f04f30ff    O..0    MOV      r0,#0xffffffff
        0x0000d76c:    900e        ..      STR      r0,[sp,#0x38]
        0x0000d76e:    4621        !F      MOV      r1,r4
        0x0000d770:    2000        .       MOVS     r0,#0
        0x0000d772:    f7fefd3e    ..>.    BL       getStackedReg ; 0xc1f2
        0x0000d776:    9006        ..      STR      r0,[sp,#0x18]
        0x0000d778:    4621        !F      MOV      r1,r4
        0x0000d77a:    2001        .       MOVS     r0,#1
        0x0000d77c:    f7fefd39    ..9.    BL       getStackedReg ; 0xc1f2
        0x0000d780:    9007        ..      STR      r0,[sp,#0x1c]
        0x0000d782:    4621        !F      MOV      r1,r4
        0x0000d784:    2002        .       MOVS     r0,#2
        0x0000d786:    f7fefd34    ..4.    BL       getStackedReg ; 0xc1f2
        0x0000d78a:    9008        ..      STR      r0,[sp,#0x20]
        0x0000d78c:    4621        !F      MOV      r1,r4
        0x0000d78e:    2003        .       MOVS     r0,#3
        0x0000d790:    f7fefd2f    ../.    BL       getStackedReg ; 0xc1f2
        0x0000d794:    9009        ..      STR      r0,[sp,#0x24]
        0x0000d796:    4621        !F      MOV      r1,r4
        0x0000d798:    2004        .       MOVS     r0,#4
        0x0000d79a:    f7fefd2a    ..*.    BL       getStackedReg ; 0xc1f2
        0x0000d79e:    900a        ..      STR      r0,[sp,#0x28]
        0x0000d7a0:    4621        !F      MOV      r1,r4
        0x0000d7a2:    2005        .       MOVS     r0,#5
        0x0000d7a4:    f7fefd25    ..%.    BL       getStackedReg ; 0xc1f2
        0x0000d7a8:    900b        ..      STR      r0,[sp,#0x2c]
        0x0000d7aa:    4621        !F      MOV      r1,r4
        0x0000d7ac:    2006        .       MOVS     r0,#6
        0x0000d7ae:    f7fefd20    .. .    BL       getStackedReg ; 0xc1f2
        0x0000d7b2:    900c        ..      STR      r0,[sp,#0x30]
        0x0000d7b4:    4621        !F      MOV      r1,r4
        0x0000d7b6:    2007        .       MOVS     r0,#7
        0x0000d7b8:    f7fefd1b    ....    BL       getStackedReg ; 0xc1f2
        0x0000d7bc:    900d        ..      STR      r0,[sp,#0x34]
        0x0000d7be:    4669        iF      MOV      r1,sp
        0x0000d7c0:    2002        .       MOVS     r0,#2
        0x0000d7c2:    f7fffc0f    ....    BL       am_hal_mcuctrl_info_get ; 0xcfe4
        0x0000d7c6:    bf00        ..      NOP      
        0x0000d7c8:    bf00        ..      NOP      
        0x0000d7ca:    e7fe        ..      B        0xd7ca ; am_util_faultisr_collect_data + 178
    $d
        0x0000d7cc:    e000ed28    (...    DCD    3758157096
    $t
    i.am_util_stdio_printf
    am_util_stdio_printf
        0x0000d7d0:    b40f        ..      PUSH     {r0-r3}
        0x0000d7d2:    b538        8.      PUSH     {r3-r5,lr}
        0x0000d7d4:    480b        .H      LDR      r0,[pc,#44] ; [0xd804] = 0x10011004
        0x0000d7d6:    6800        .h      LDR      r0,[r0,#0]
        0x0000d7d8:    b918        ..      CBNZ     r0,0xd7e2 ; am_util_stdio_printf + 18
        0x0000d7da:    2000        .       MOVS     r0,#0
        0x0000d7dc:    bc38        8.      POP      {r3-r5}
        0x0000d7de:    f85dfb14    ]...    LDR      pc,[sp],#0x14
        0x0000d7e2:    a805        ..      ADD      r0,sp,#0x14
        0x0000d7e4:    9000        ..      STR      r0,[sp,#0]
        0x0000d7e6:    4808        .H      LDR      r0,[pc,#32] ; [0xd808] = 0x10011074
        0x0000d7e8:    9a00        ..      LDR      r2,[sp,#0]
        0x0000d7ea:    9904        ..      LDR      r1,[sp,#0x10]
        0x0000d7ec:    f000f824    ..$.    BL       am_util_stdio_vsprintf ; 0xd838
        0x0000d7f0:    4604        .F      MOV      r4,r0
        0x0000d7f2:    2000        .       MOVS     r0,#0
        0x0000d7f4:    9000        ..      STR      r0,[sp,#0]
        0x0000d7f6:    4804        .H      LDR      r0,[pc,#16] ; [0xd808] = 0x10011074
        0x0000d7f8:    4902        .I      LDR      r1,[pc,#8] ; [0xd804] = 0x10011004
        0x0000d7fa:    6809        .h      LDR      r1,[r1,#0]
        0x0000d7fc:    4788        .G      BLX      r1
        0x0000d7fe:    4620         F      MOV      r0,r4
        0x0000d800:    e7ec        ..      B        0xd7dc ; am_util_stdio_printf + 12
    $d
        0x0000d802:    0000        ..      DCW    0
        0x0000d804:    10011004    ....    DCD    268505092
        0x0000d808:    10011074    t...    DCD    268505204
    $t
    i.am_util_stdio_printf_init
    am_util_stdio_printf_init
        0x0000d80c:    4901        .I      LDR      r1,[pc,#4] ; [0xd814] = 0x10011004
        0x0000d80e:    6008        .`      STR      r0,[r1,#0]
        0x0000d810:    4770        pG      BX       lr
    $d
        0x0000d812:    0000        ..      DCW    0
        0x0000d814:    10011004    ....    DCD    268505092
    $t
    i.am_util_stdio_terminal_clear
    am_util_stdio_terminal_clear
        0x0000d818:    b510        ..      PUSH     {r4,lr}
        0x0000d81a:    a002        ..      ADR      r0,{pc}+0xa ; 0xd824
        0x0000d81c:    f7ffffd8    ....    BL       am_util_stdio_printf ; 0xd7d0
        0x0000d820:    bd10        ..      POP      {r4,pc}
    $d
        0x0000d822:    0000        ..      DCW    0
        0x0000d824:    0a0a0a0a    ....    DCD    168430090
        0x0000d828:    0a0a0a0a    ....    DCD    168430090
        0x0000d82c:    0a0a0a0a    ....    DCD    168430090
        0x0000d830:    0a0a0a0a    ....    DCD    168430090
        0x0000d834:    00000a0a    ....    DCD    2570
    $t
    i.am_util_stdio_vsprintf
    am_util_stdio_vsprintf
        0x0000d838:    e92d4ff7    -..O    PUSH     {r0-r2,r4-r11,lr}
        0x0000d83c:    ed2d8b02    -...    VPUSH    {d8}
        0x0000d840:    b08a        ..      SUB      sp,sp,#0x28
        0x0000d842:    4604        .F      MOV      r4,r0
        0x0000d844:    460d        .F      MOV      r5,r1
        0x0000d846:    f04f0900    O...    MOV      r9,#0
        0x0000d84a:    2000        .       MOVS     r0,#0
        0x0000d84c:    9000        ..      STR      r0,[sp,#0]
        0x0000d84e:    e1b9        ..      B        0xdbc4 ; am_util_stdio_vsprintf + 908
        0x0000d850:    2006        .       MOVS     r0,#6
        0x0000d852:    9006        ..      STR      r0,[sp,#0x18]
        0x0000d854:    7828        (x      LDRB     r0,[r5,#0]
        0x0000d856:    2825        %(      CMP      r0,#0x25
        0x0000d858:    d012        ..      BEQ      0xd880 ; am_util_stdio_vsprintf + 72
        0x0000d85a:    b16c        l.      CBZ      r4,0xd878 ; am_util_stdio_vsprintf + 64
        0x0000d85c:    7828        (x      LDRB     r0,[r5,#0]
        0x0000d85e:    280a        .(      CMP      r0,#0xa
        0x0000d860:    d107        ..      BNE      0xd872 ; am_util_stdio_vsprintf + 58
        0x0000d862:    48de        .H      LDR      r0,[pc,#888] ; [0xdbdc] = 0x10011008
        0x0000d864:    7800        .x      LDRB     r0,[r0,#0]
        0x0000d866:    b120         .      CBZ      r0,0xd872 ; am_util_stdio_vsprintf + 58
        0x0000d868:    200d        .       MOVS     r0,#0xd
        0x0000d86a:    f8040b01    ....    STRB     r0,[r4],#1
        0x0000d86e:    f1090901    ....    ADD      r9,r9,#1
        0x0000d872:    7828        (x      LDRB     r0,[r5,#0]
        0x0000d874:    f8040b01    ....    STRB     r0,[r4],#1
        0x0000d878:    1c6d        m.      ADDS     r5,r5,#1
        0x0000d87a:    f1090901    ....    ADD      r9,r9,#1
        0x0000d87e:    e1a1        ..      B        0xdbc4 ; am_util_stdio_vsprintf + 908
        0x0000d880:    1c6d        m.      ADDS     r5,r5,#1
        0x0000d882:    2000        .       MOVS     r0,#0
        0x0000d884:    9002        ..      STR      r0,[sp,#8]
        0x0000d886:    9003        ..      STR      r0,[sp,#0xc]
        0x0000d888:    2020                MOVS     r0,#0x20
        0x0000d88a:    9004        ..      STR      r0,[sp,#0x10]
        0x0000d88c:    7828        (x      LDRB     r0,[r5,#0]
        0x0000d88e:    2830        0(      CMP      r0,#0x30
        0x0000d890:    d101        ..      BNE      0xd896 ; am_util_stdio_vsprintf + 94
        0x0000d892:    9004        ..      STR      r0,[sp,#0x10]
        0x0000d894:    1c6d        m.      ADDS     r5,r5,#1
        0x0000d896:    a907        ..      ADD      r1,sp,#0x1c
        0x0000d898:    4628        (F      MOV      r0,r5
        0x0000d89a:    f000f9a7    ....    BL       decstr_to_int ; 0xdbec
        0x0000d89e:    4606        .F      MOV      r6,r0
        0x0000d8a0:    9807        ..      LDR      r0,[sp,#0x1c]
        0x0000d8a2:    4405        .D      ADD      r5,r5,r0
        0x0000d8a4:    7828        (x      LDRB     r0,[r5,#0]
        0x0000d8a6:    2873        s(      CMP      r0,#0x73
        0x0000d8a8:    d002        ..      BEQ      0xd8b0 ; am_util_stdio_vsprintf + 120
        0x0000d8aa:    2e00        ..      CMP      r6,#0
        0x0000d8ac:    da00        ..      BGE      0xd8b0 ; am_util_stdio_vsprintf + 120
        0x0000d8ae:    4276        vB      RSBS     r6,r6,#0
        0x0000d8b0:    7828        (x      LDRB     r0,[r5,#0]
        0x0000d8b2:    282e        .(      CMP      r0,#0x2e
        0x0000d8b4:    d107        ..      BNE      0xd8c6 ; am_util_stdio_vsprintf + 142
        0x0000d8b6:    1c6d        m.      ADDS     r5,r5,#1
        0x0000d8b8:    a907        ..      ADD      r1,sp,#0x1c
        0x0000d8ba:    4628        (F      MOV      r0,r5
        0x0000d8bc:    f000f996    ....    BL       decstr_to_int ; 0xdbec
        0x0000d8c0:    9006        ..      STR      r0,[sp,#0x18]
        0x0000d8c2:    9807        ..      LDR      r0,[sp,#0x1c]
        0x0000d8c4:    4405        .D      ADD      r5,r5,r0
        0x0000d8c6:    7828        (x      LDRB     r0,[r5,#0]
        0x0000d8c8:    286c        l(      CMP      r0,#0x6c
        0x0000d8ca:    d106        ..      BNE      0xd8da ; am_util_stdio_vsprintf + 162
        0x0000d8cc:    1c6d        m.      ADDS     r5,r5,#1
        0x0000d8ce:    7828        (x      LDRB     r0,[r5,#0]
        0x0000d8d0:    286c        l(      CMP      r0,#0x6c
        0x0000d8d2:    d102        ..      BNE      0xd8da ; am_util_stdio_vsprintf + 162
        0x0000d8d4:    1c6d        m.      ADDS     r5,r5,#1
        0x0000d8d6:    2001        .       MOVS     r0,#1
        0x0000d8d8:    9002        ..      STR      r0,[sp,#8]
        0x0000d8da:    7828        (x      LDRB     r0,[r5,#0]
        0x0000d8dc:    2866        f(      CMP      r0,#0x66
        0x0000d8de:    d06f        o.      BEQ      0xd9c0 ; am_util_stdio_vsprintf + 392
        0x0000d8e0:    dc08        ..      BGT      0xd8f4 ; am_util_stdio_vsprintf + 188
        0x0000d8e2:    2846        F(      CMP      r0,#0x46
        0x0000d8e4:    d06d        m.      BEQ      0xd9c2 ; am_util_stdio_vsprintf + 394
        0x0000d8e6:    2858        X(      CMP      r0,#0x58
        0x0000d8e8:    d05c        \.      BEQ      0xd9a4 ; am_util_stdio_vsprintf + 364
        0x0000d8ea:    2863        c(      CMP      r0,#0x63
        0x0000d8ec:    d00b        ..      BEQ      0xd906 ; am_util_stdio_vsprintf + 206
        0x0000d8ee:    2864        d(      CMP      r0,#0x64
        0x0000d8f0:    d168        h.      BNE      0xd9c4 ; am_util_stdio_vsprintf + 396
        0x0000d8f2:    e0c3        ..      B        0xda7c ; am_util_stdio_vsprintf + 580
        0x0000d8f4:    2869        i(      CMP      r0,#0x69
        0x0000d8f6:    d07d        }.      BEQ      0xd9f4 ; am_util_stdio_vsprintf + 444
        0x0000d8f8:    2873        s(      CMP      r0,#0x73
        0x0000d8fa:    d011        ..      BEQ      0xd920 ; am_util_stdio_vsprintf + 232
        0x0000d8fc:    2875        u(      CMP      r0,#0x75
        0x0000d8fe:    d07a        z.      BEQ      0xd9f6 ; am_util_stdio_vsprintf + 446
        0x0000d900:    2878        x(      CMP      r0,#0x78
        0x0000d902:    d1f5        ..      BNE      0xd8f0 ; am_util_stdio_vsprintf + 184
        0x0000d904:    e04b        K.      B        0xd99e ; am_util_stdio_vsprintf + 358
        0x0000d906:    980e        ..      LDR      r0,[sp,#0x38]
        0x0000d908:    f8101b04    ....    LDRB     r1,[r0],#4
        0x0000d90c:    900e        ..      STR      r0,[sp,#0x38]
        0x0000d90e:    b2c8        ..      UXTB     r0,r1
        0x0000d910:    9005        ..      STR      r0,[sp,#0x14]
        0x0000d912:    b114        ..      CBZ      r4,0xd91a ; am_util_stdio_vsprintf + 226
        0x0000d914:    9805        ..      LDR      r0,[sp,#0x14]
        0x0000d916:    f8040b01    ....    STRB     r0,[r4],#1
        0x0000d91a:    f1090901    ....    ADD      r9,r9,#1
        0x0000d91e:    e14e        N.      B        0xdbbe ; am_util_stdio_vsprintf + 902
        0x0000d920:    980e        ..      LDR      r0,[sp,#0x38]
        0x0000d922:    f850bb04    P...    LDR      r11,[r0],#4
        0x0000d926:    900e        ..      STR      r0,[sp,#0x38]
        0x0000d928:    4658        XF      MOV      r0,r11
        0x0000d92a:    f000fb33    ..3.    BL       simple_strlen ; 0xdf94
        0x0000d92e:    9000        ..      STR      r0,[sp,#0]
        0x0000d930:    2e00        ..      CMP      r6,#0
        0x0000d932:    dd11        ..      BLE      0xd958 ; am_util_stdio_vsprintf + 288
        0x0000d934:    9800        ..      LDR      r0,[sp,#0]
        0x0000d936:    42b0        .B      CMP      r0,r6
        0x0000d938:    d20e        ..      BCS      0xd958 ; am_util_stdio_vsprintf + 288
        0x0000d93a:    9800        ..      LDR      r0,[sp,#0]
        0x0000d93c:    1a36        6.      SUBS     r6,r6,r0
        0x0000d93e:    4632        2F      MOV      r2,r6
        0x0000d940:    4620         F      MOV      r0,r4
        0x0000d942:    9904        ..      LDR      r1,[sp,#0x10]
        0x0000d944:    f000fb15    ....    BL       padbuffer ; 0xdf72
        0x0000d948:    4606        .F      MOV      r6,r0
        0x0000d94a:    b10c        ..      CBZ      r4,0xd950 ; am_util_stdio_vsprintf + 280
        0x0000d94c:    4630        0F      MOV      r0,r6
        0x0000d94e:    e000        ..      B        0xd952 ; am_util_stdio_vsprintf + 282
        0x0000d950:    2000        .       MOVS     r0,#0
        0x0000d952:    4404        .D      ADD      r4,r4,r0
        0x0000d954:    44b1        .D      ADD      r9,r9,r6
        0x0000d956:    2600        .&      MOVS     r6,#0
        0x0000d958:    e008        ..      B        0xd96c ; am_util_stdio_vsprintf + 308
        0x0000d95a:    b11c        ..      CBZ      r4,0xd964 ; am_util_stdio_vsprintf + 300
        0x0000d95c:    f89b0000    ....    LDRB     r0,[r11,#0]
        0x0000d960:    f8040b01    ....    STRB     r0,[r4],#1
        0x0000d964:    f10b0b01    ....    ADD      r11,r11,#1
        0x0000d968:    f1090901    ....    ADD      r9,r9,#1
        0x0000d96c:    f89b0000    ....    LDRB     r0,[r11,#0]
        0x0000d970:    2800        .(      CMP      r0,#0
        0x0000d972:    d1f2        ..      BNE      0xd95a ; am_util_stdio_vsprintf + 290
        0x0000d974:    b196        ..      CBZ      r6,0xd99c ; am_util_stdio_vsprintf + 356
        0x0000d976:    4276        vB      RSBS     r6,r6,#0
        0x0000d978:    9800        ..      LDR      r0,[sp,#0]
        0x0000d97a:    42b0        .B      CMP      r0,r6
        0x0000d97c:    d20e        ..      BCS      0xd99c ; am_util_stdio_vsprintf + 356
        0x0000d97e:    9800        ..      LDR      r0,[sp,#0]
        0x0000d980:    1a36        6.      SUBS     r6,r6,r0
        0x0000d982:    4632        2F      MOV      r2,r6
        0x0000d984:    4620         F      MOV      r0,r4
        0x0000d986:    9904        ..      LDR      r1,[sp,#0x10]
        0x0000d988:    f000faf3    ....    BL       padbuffer ; 0xdf72
        0x0000d98c:    4606        .F      MOV      r6,r0
        0x0000d98e:    b10c        ..      CBZ      r4,0xd994 ; am_util_stdio_vsprintf + 348
        0x0000d990:    4630        0F      MOV      r0,r6
        0x0000d992:    e000        ..      B        0xd996 ; am_util_stdio_vsprintf + 350
        0x0000d994:    2000        .       MOVS     r0,#0
        0x0000d996:    4404        .D      ADD      r4,r4,r0
        0x0000d998:    44b1        .D      ADD      r9,r9,r6
        0x0000d99a:    2600        .&      MOVS     r6,#0
        0x0000d99c:    e10f        ..      B        0xdbbe ; am_util_stdio_vsprintf + 902
        0x0000d99e:    2001        .       MOVS     r0,#1
        0x0000d9a0:    9003        ..      STR      r0,[sp,#0xc]
        0x0000d9a2:    bf00        ..      NOP      
        0x0000d9a4:    9802        ..      LDR      r0,[sp,#8]
        0x0000d9a6:    b170        p.      CBZ      r0,0xd9c6 ; am_util_stdio_vsprintf + 398
        0x0000d9a8:    980e        ..      LDR      r0,[sp,#0x38]
        0x0000d9aa:    1dc0        ..      ADDS     r0,r0,#7
        0x0000d9ac:    f0200007     ...    BIC      r0,r0,#7
        0x0000d9b0:    4601        .F      MOV      r1,r0
        0x0000d9b2:    900e        ..      STR      r0,[sp,#0x38]
        0x0000d9b4:    6800        .h      LDR      r0,[r0,#0]
        0x0000d9b6:    6849        Ih      LDR      r1,[r1,#4]
        0x0000d9b8:    9a0e        ..      LDR      r2,[sp,#0x38]
        0x0000d9ba:    3208        .2      ADDS     r2,r2,#8
        0x0000d9bc:    920e        ..      STR      r2,[sp,#0x38]
        0x0000d9be:    e008        ..      B        0xd9d2 ; am_util_stdio_vsprintf + 410
        0x0000d9c0:    e0c3        ..      B        0xdb4a ; am_util_stdio_vsprintf + 786
        0x0000d9c2:    e0c3        ..      B        0xdb4c ; am_util_stdio_vsprintf + 788
        0x0000d9c4:    e0f4        ..      B        0xdbb0 ; am_util_stdio_vsprintf + 888
        0x0000d9c6:    980e        ..      LDR      r0,[sp,#0x38]
        0x0000d9c8:    6800        .h      LDR      r0,[r0,#0]
        0x0000d9ca:    990e        ..      LDR      r1,[sp,#0x38]
        0x0000d9cc:    1d09        ..      ADDS     r1,r1,#4
        0x0000d9ce:    910e        ..      STR      r1,[sp,#0x38]
        0x0000d9d0:    2100        .!      MOVS     r1,#0
        0x0000d9d2:    4607        .F      MOV      r7,r0
        0x0000d9d4:    4688        .F      MOV      r8,r1
        0x0000d9d6:    b19e        ..      CBZ      r6,0xda00 ; am_util_stdio_vsprintf + 456
        0x0000d9d8:    4638        8F      MOV      r0,r7
        0x0000d9da:    4641        AF      MOV      r1,r8
        0x0000d9dc:    f000fa80    ....    BL       ndigits_in_hex ; 0xdee0
        0x0000d9e0:    1a36        6.      SUBS     r6,r6,r0
        0x0000d9e2:    4632        2F      MOV      r2,r6
        0x0000d9e4:    4620         F      MOV      r0,r4
        0x0000d9e6:    9904        ..      LDR      r1,[sp,#0x10]
        0x0000d9e8:    f000fac3    ....    BL       padbuffer ; 0xdf72
        0x0000d9ec:    4606        .F      MOV      r6,r0
        0x0000d9ee:    b11c        ..      CBZ      r4,0xd9f8 ; am_util_stdio_vsprintf + 448
        0x0000d9f0:    4630        0F      MOV      r0,r6
        0x0000d9f2:    e002        ..      B        0xd9fa ; am_util_stdio_vsprintf + 450
        0x0000d9f4:    e043        C.      B        0xda7e ; am_util_stdio_vsprintf + 582
        0x0000d9f6:    e00e        ..      B        0xda16 ; am_util_stdio_vsprintf + 478
        0x0000d9f8:    2000        .       MOVS     r0,#0
        0x0000d9fa:    4404        .D      ADD      r4,r4,r0
        0x0000d9fc:    44b1        .D      ADD      r9,r9,r6
        0x0000d9fe:    2600        .&      MOVS     r6,#0
        0x0000da00:    4622        "F      MOV      r2,r4
        0x0000da02:    4638        8F      MOV      r0,r7
        0x0000da04:    4641        AF      MOV      r1,r8
        0x0000da06:    9b03        ..      LDR      r3,[sp,#0xc]
        0x0000da08:    f000faf4    ....    BL       uint64_to_hexstr ; 0xdff4
        0x0000da0c:    4682        .F      MOV      r10,r0
        0x0000da0e:    b104        ..      CBZ      r4,0xda12 ; am_util_stdio_vsprintf + 474
        0x0000da10:    4454        TD      ADD      r4,r4,r10
        0x0000da12:    44d1        .D      ADD      r9,r9,r10
        0x0000da14:    e0d3        ..      B        0xdbbe ; am_util_stdio_vsprintf + 902
        0x0000da16:    9802        ..      LDR      r0,[sp,#8]
        0x0000da18:    b158        X.      CBZ      r0,0xda32 ; am_util_stdio_vsprintf + 506
        0x0000da1a:    980e        ..      LDR      r0,[sp,#0x38]
        0x0000da1c:    1dc0        ..      ADDS     r0,r0,#7
        0x0000da1e:    f0200007     ...    BIC      r0,r0,#7
        0x0000da22:    4601        .F      MOV      r1,r0
        0x0000da24:    900e        ..      STR      r0,[sp,#0x38]
        0x0000da26:    6800        .h      LDR      r0,[r0,#0]
        0x0000da28:    6849        Ih      LDR      r1,[r1,#4]
        0x0000da2a:    9a0e        ..      LDR      r2,[sp,#0x38]
        0x0000da2c:    3208        .2      ADDS     r2,r2,#8
        0x0000da2e:    920e        ..      STR      r2,[sp,#0x38]
        0x0000da30:    e005        ..      B        0xda3e ; am_util_stdio_vsprintf + 518
        0x0000da32:    980e        ..      LDR      r0,[sp,#0x38]
        0x0000da34:    6800        .h      LDR      r0,[r0,#0]
        0x0000da36:    990e        ..      LDR      r1,[sp,#0x38]
        0x0000da38:    1d09        ..      ADDS     r1,r1,#4
        0x0000da3a:    910e        ..      STR      r1,[sp,#0x38]
        0x0000da3c:    2100        .!      MOVS     r1,#0
        0x0000da3e:    4607        .F      MOV      r7,r0
        0x0000da40:    4688        .F      MOV      r8,r1
        0x0000da42:    b18e        ..      CBZ      r6,0xda68 ; am_util_stdio_vsprintf + 560
        0x0000da44:    4638        8F      MOV      r0,r7
        0x0000da46:    4641        AF      MOV      r1,r8
        0x0000da48:    f000fa76    ..v.    BL       ndigits_in_u64 ; 0xdf38
        0x0000da4c:    1a36        6.      SUBS     r6,r6,r0
        0x0000da4e:    4632        2F      MOV      r2,r6
        0x0000da50:    4620         F      MOV      r0,r4
        0x0000da52:    9904        ..      LDR      r1,[sp,#0x10]
        0x0000da54:    f000fa8d    ....    BL       padbuffer ; 0xdf72
        0x0000da58:    4606        .F      MOV      r6,r0
        0x0000da5a:    b10c        ..      CBZ      r4,0xda60 ; am_util_stdio_vsprintf + 552
        0x0000da5c:    4630        0F      MOV      r0,r6
        0x0000da5e:    e000        ..      B        0xda62 ; am_util_stdio_vsprintf + 554
        0x0000da60:    2000        .       MOVS     r0,#0
        0x0000da62:    4404        .D      ADD      r4,r4,r0
        0x0000da64:    44b1        .D      ADD      r9,r9,r6
        0x0000da66:    2600        .&      MOVS     r6,#0
        0x0000da68:    4622        "F      MOV      r2,r4
        0x0000da6a:    4638        8F      MOV      r0,r7
        0x0000da6c:    4641        AF      MOV      r1,r8
        0x0000da6e:    f000fb06    ....    BL       uint64_to_str ; 0xe07e
        0x0000da72:    4682        .F      MOV      r10,r0
        0x0000da74:    b104        ..      CBZ      r4,0xda78 ; am_util_stdio_vsprintf + 576
        0x0000da76:    4454        TD      ADD      r4,r4,r10
        0x0000da78:    44d1        .D      ADD      r9,r9,r10
        0x0000da7a:    e0a0        ..      B        0xdbbe ; am_util_stdio_vsprintf + 902
        0x0000da7c:    bf00        ..      NOP      
        0x0000da7e:    9802        ..      LDR      r0,[sp,#8]
        0x0000da80:    b158        X.      CBZ      r0,0xda9a ; am_util_stdio_vsprintf + 610
        0x0000da82:    980e        ..      LDR      r0,[sp,#0x38]
        0x0000da84:    1dc0        ..      ADDS     r0,r0,#7
        0x0000da86:    f0200007     ...    BIC      r0,r0,#7
        0x0000da8a:    4601        .F      MOV      r1,r0
        0x0000da8c:    900e        ..      STR      r0,[sp,#0x38]
        0x0000da8e:    6800        .h      LDR      r0,[r0,#0]
        0x0000da90:    6849        Ih      LDR      r1,[r1,#4]
        0x0000da92:    9a0e        ..      LDR      r2,[sp,#0x38]
        0x0000da94:    3208        .2      ADDS     r2,r2,#8
        0x0000da96:    920e        ..      STR      r2,[sp,#0x38]
        0x0000da98:    e005        ..      B        0xdaa6 ; am_util_stdio_vsprintf + 622
        0x0000da9a:    980e        ..      LDR      r0,[sp,#0x38]
        0x0000da9c:    6800        .h      LDR      r0,[r0,#0]
        0x0000da9e:    990e        ..      LDR      r1,[sp,#0x38]
        0x0000daa0:    1d09        ..      ADDS     r1,r1,#4
        0x0000daa2:    910e        ..      STR      r1,[sp,#0x38]
        0x0000daa4:    17c1        ..      ASRS     r1,r0,#31
        0x0000daa6:    e9cd0108    ....    STRD     r0,r1,[sp,#0x20]
        0x0000daaa:    2300        .#      MOVS     r3,#0
        0x0000daac:    e9dd0108    ....    LDRD     r0,r1,[sp,#0x20]
        0x0000dab0:    1ac0        ..      SUBS     r0,r0,r3
        0x0000dab2:    4199        .A      SBCS     r1,r1,r3
        0x0000dab4:    da08        ..      BGE      0xdac8 ; am_util_stdio_vsprintf + 656
        0x0000dab6:    2200        ."      MOVS     r2,#0
        0x0000dab8:    e9dd1008    ....    LDRD     r1,r0,[sp,#0x20]
        0x0000dabc:    424f        OB      RSBS     r7,r1,#0
        0x0000dabe:    eb620800    b...    SBC      r8,r2,r0
        0x0000dac2:    2001        .       MOVS     r0,#1
        0x0000dac4:    9001        ..      STR      r0,[sp,#4]
        0x0000dac6:    e003        ..      B        0xdad0 ; am_util_stdio_vsprintf + 664
        0x0000dac8:    e9dd7808    ...x    LDRD     r7,r8,[sp,#0x20]
        0x0000dacc:    2000        .       MOVS     r0,#0
        0x0000dace:    9001        ..      STR      r0,[sp,#4]
        0x0000dad0:    b34e        N.      CBZ      r6,0xdb26 ; am_util_stdio_vsprintf + 750
        0x0000dad2:    4638        8F      MOV      r0,r7
        0x0000dad4:    4641        AF      MOV      r1,r8
        0x0000dad6:    f000fa1d    ....    BL       ndigits_in_i64 ; 0xdf14
        0x0000dada:    1a36        6.      SUBS     r6,r6,r0
        0x0000dadc:    9801        ..      LDR      r0,[sp,#4]
        0x0000dade:    b148        H.      CBZ      r0,0xdaf4 ; am_util_stdio_vsprintf + 700
        0x0000dae0:    1e76        v.      SUBS     r6,r6,#1
        0x0000dae2:    9804        ..      LDR      r0,[sp,#0x10]
        0x0000dae4:    2830        0(      CMP      r0,#0x30
        0x0000dae6:    d105        ..      BNE      0xdaf4 ; am_util_stdio_vsprintf + 700
        0x0000dae8:    b114        ..      CBZ      r4,0xdaf0 ; am_util_stdio_vsprintf + 696
        0x0000daea:    202d        -       MOVS     r0,#0x2d
        0x0000daec:    f8040b01    ....    STRB     r0,[r4],#1
        0x0000daf0:    f1090901    ....    ADD      r9,r9,#1
        0x0000daf4:    4632        2F      MOV      r2,r6
        0x0000daf6:    4620         F      MOV      r0,r4
        0x0000daf8:    9904        ..      LDR      r1,[sp,#0x10]
        0x0000dafa:    f000fa3a    ..:.    BL       padbuffer ; 0xdf72
        0x0000dafe:    4606        .F      MOV      r6,r0
        0x0000db00:    b10c        ..      CBZ      r4,0xdb06 ; am_util_stdio_vsprintf + 718
        0x0000db02:    4630        0F      MOV      r0,r6
        0x0000db04:    e000        ..      B        0xdb08 ; am_util_stdio_vsprintf + 720
        0x0000db06:    2000        .       MOVS     r0,#0
        0x0000db08:    4404        .D      ADD      r4,r4,r0
        0x0000db0a:    44b1        .D      ADD      r9,r9,r6
        0x0000db0c:    2600        .&      MOVS     r6,#0
        0x0000db0e:    9801        ..      LDR      r0,[sp,#4]
        0x0000db10:    b188        ..      CBZ      r0,0xdb36 ; am_util_stdio_vsprintf + 766
        0x0000db12:    9804        ..      LDR      r0,[sp,#0x10]
        0x0000db14:    2820         (      CMP      r0,#0x20
        0x0000db16:    d10e        ..      BNE      0xdb36 ; am_util_stdio_vsprintf + 766
        0x0000db18:    b114        ..      CBZ      r4,0xdb20 ; am_util_stdio_vsprintf + 744
        0x0000db1a:    202d        -       MOVS     r0,#0x2d
        0x0000db1c:    f8040b01    ....    STRB     r0,[r4],#1
        0x0000db20:    f1090901    ....    ADD      r9,r9,#1
        0x0000db24:    e007        ..      B        0xdb36 ; am_util_stdio_vsprintf + 766
        0x0000db26:    9801        ..      LDR      r0,[sp,#4]
        0x0000db28:    b128        (.      CBZ      r0,0xdb36 ; am_util_stdio_vsprintf + 766
        0x0000db2a:    b114        ..      CBZ      r4,0xdb32 ; am_util_stdio_vsprintf + 762
        0x0000db2c:    202d        -       MOVS     r0,#0x2d
        0x0000db2e:    f8040b01    ....    STRB     r0,[r4],#1
        0x0000db32:    f1090901    ....    ADD      r9,r9,#1
        0x0000db36:    4622        "F      MOV      r2,r4
        0x0000db38:    4638        8F      MOV      r0,r7
        0x0000db3a:    4641        AF      MOV      r1,r8
        0x0000db3c:    f000fa9f    ....    BL       uint64_to_str ; 0xe07e
        0x0000db40:    4682        .F      MOV      r10,r0
        0x0000db42:    b104        ..      CBZ      r4,0xdb46 ; am_util_stdio_vsprintf + 782
        0x0000db44:    4454        TD      ADD      r4,r4,r10
        0x0000db46:    44d1        .D      ADD      r9,r9,r10
        0x0000db48:    e039        9.      B        0xdbbe ; am_util_stdio_vsprintf + 902
        0x0000db4a:    bf00        ..      NOP      
        0x0000db4c:    b37c        |.      CBZ      r4,0xdbae ; am_util_stdio_vsprintf + 886
        0x0000db4e:    980e        ..      LDR      r0,[sp,#0x38]
        0x0000db50:    1dc0        ..      ADDS     r0,r0,#7
        0x0000db52:    f0200007     ...    BIC      r0,r0,#7
        0x0000db56:    900e        ..      STR      r0,[sp,#0x38]
        0x0000db58:    ecb01b02    ....    VLDM     r0!,{d1}
        0x0000db5c:    eeb00a41    ..A.    VMOV.F32 s0,s2
        0x0000db60:    eef00a61    ..a.    VMOV.F32 s1,s3
        0x0000db64:    900e        ..      STR      r0,[sp,#0x38]
        0x0000db66:    ec510b10    Q...    VMOV     r0,r1,d0
        0x0000db6a:    f000fac1    ....    BL       __aeabi_d2f ; 0xe0f0
        0x0000db6e:    ee080a10    ....    VMOV     s16,r0
        0x0000db72:    2014        .       MOVS     r0,#0x14
        0x0000db74:    6020         `      STR      r0,[r4,#0]
        0x0000db76:    4620         F      MOV      r0,r4
        0x0000db78:    eeb00a48    ..H.    VMOV.F32 s0,s16
        0x0000db7c:    9906        ..      LDR      r1,[sp,#0x18]
        0x0000db7e:    f000f8bd    ....    BL       ftoa ; 0xdcfc
        0x0000db82:    4682        .F      MOV      r10,r0
        0x0000db84:    f1ba0f00    ....    CMP      r10,#0
        0x0000db88:    da0e        ..      BGE      0xdba8 ; am_util_stdio_vsprintf + 880
        0x0000db8a:    f10a0101    ....    ADD      r1,r10,#1
        0x0000db8e:    b909        ..      CBNZ     r1,0xdb94 ; am_util_stdio_vsprintf + 860
        0x0000db90:    4813        .H      LDR      r0,[pc,#76] ; [0xdbe0] = 0x302e30
        0x0000db92:    e005        ..      B        0xdba0 ; am_util_stdio_vsprintf + 872
        0x0000db94:    f10a0102    ....    ADD      r1,r10,#2
        0x0000db98:    b909        ..      CBNZ     r1,0xdb9e ; am_util_stdio_vsprintf + 870
        0x0000db9a:    4812        .H      LDR      r0,[pc,#72] ; [0xdbe4] = 0x232e23
        0x0000db9c:    e000        ..      B        0xdba0 ; am_util_stdio_vsprintf + 872
        0x0000db9e:    4812        .H      LDR      r0,[pc,#72] ; [0xdbe8] = 0x3f2e3f
        0x0000dba0:    6020         `      STR      r0,[r4,#0]
        0x0000dba2:    f04f0a03    O...    MOV      r10,#3
        0x0000dba6:    bf00        ..      NOP      
        0x0000dba8:    44d1        .D      ADD      r9,r9,r10
        0x0000dbaa:    4454        TD      ADD      r4,r4,r10
        0x0000dbac:    bf00        ..      NOP      
        0x0000dbae:    e006        ..      B        0xdbbe ; am_util_stdio_vsprintf + 902
        0x0000dbb0:    b114        ..      CBZ      r4,0xdbb8 ; am_util_stdio_vsprintf + 896
        0x0000dbb2:    7828        (x      LDRB     r0,[r5,#0]
        0x0000dbb4:    f8040b01    ....    STRB     r0,[r4],#1
        0x0000dbb8:    f1090901    ....    ADD      r9,r9,#1
        0x0000dbbc:    bf00        ..      NOP      
        0x0000dbbe:    bf00        ..      NOP      
        0x0000dbc0:    1c6d        m.      ADDS     r5,r5,#1
        0x0000dbc2:    bf00        ..      NOP      
        0x0000dbc4:    7828        (x      LDRB     r0,[r5,#0]
        0x0000dbc6:    2800        .(      CMP      r0,#0
        0x0000dbc8:    f47fae42    ..B.    BNE      0xd850 ; am_util_stdio_vsprintf + 24
        0x0000dbcc:    b104        ..      CBZ      r4,0xdbd0 ; am_util_stdio_vsprintf + 920
        0x0000dbce:    7020         p      STRB     r0,[r4,#0]
        0x0000dbd0:    4648        HF      MOV      r0,r9
        0x0000dbd2:    b00a        ..      ADD      sp,sp,#0x28
        0x0000dbd4:    ecbd8b02    ....    VPOP     {d8}
        0x0000dbd8:    e8bd8ffe    ....    POP      {r1-r11,pc}
    $d
        0x0000dbdc:    10011008    ....    DCD    268505096
        0x0000dbe0:    00302e30    0.0.    DCD    3157552
        0x0000dbe4:    00232e23    #.#.    DCD    2305571
        0x0000dbe8:    003f2e3f    ?.?.    DCD    4140607
    $t
    i.decstr_to_int
    decstr_to_int
        0x0000dbec:    b530        0.      PUSH     {r4,r5,lr}
        0x0000dbee:    4602        .F      MOV      r2,r0
        0x0000dbf0:    2500        .%      MOVS     r5,#0
        0x0000dbf2:    2300        .#      MOVS     r3,#0
        0x0000dbf4:    2400        .$      MOVS     r4,#0
        0x0000dbf6:    7810        .x      LDRB     r0,[r2,#0]
        0x0000dbf8:    282d        -(      CMP      r0,#0x2d
        0x0000dbfa:    d102        ..      BNE      0xdc02 ; decstr_to_int + 22
        0x0000dbfc:    2501        .%      MOVS     r5,#1
        0x0000dbfe:    1c52        R.      ADDS     r2,r2,#1
        0x0000dc00:    1c64        d.      ADDS     r4,r4,#1
        0x0000dc02:    e007        ..      B        0xdc14 ; decstr_to_int + 40
        0x0000dc04:    1c64        d.      ADDS     r4,r4,#1
        0x0000dc06:    eb030083    ....    ADD      r0,r3,r3,LSL #2
        0x0000dc0a:    0043        C.      LSLS     r3,r0,#1
        0x0000dc0c:    7810        .x      LDRB     r0,[r2,#0]
        0x0000dc0e:    3830        08      SUBS     r0,r0,#0x30
        0x0000dc10:    4403        .D      ADD      r3,r3,r0
        0x0000dc12:    1c52        R.      ADDS     r2,r2,#1
        0x0000dc14:    7810        .x      LDRB     r0,[r2,#0]
        0x0000dc16:    2830        0(      CMP      r0,#0x30
        0x0000dc18:    db02        ..      BLT      0xdc20 ; decstr_to_int + 52
        0x0000dc1a:    7810        .x      LDRB     r0,[r2,#0]
        0x0000dc1c:    2839        9(      CMP      r0,#0x39
        0x0000dc1e:    ddf1        ..      BLE      0xdc04 ; decstr_to_int + 24
        0x0000dc20:    b101        ..      CBZ      r1,0xdc24 ; decstr_to_int + 56
        0x0000dc22:    600c        .`      STR      r4,[r1,#0]
        0x0000dc24:    b10d        ..      CBZ      r5,0xdc2a ; decstr_to_int + 62
        0x0000dc26:    4258        XB      RSBS     r0,r3,#0
        0x0000dc28:    bd30        0.      POP      {r4,r5,pc}
        0x0000dc2a:    4618        .F      MOV      r0,r3
        0x0000dc2c:    e7fc        ..      B        0xdc28 ; decstr_to_int + 60
    i.divu64_10
    divu64_10
        0x0000dc2e:    e92d4ff0    -..O    PUSH     {r4-r11,lr}
        0x0000dc32:    4604        .F      MOV      r4,r0
        0x0000dc34:    460d        .F      MOV      r5,r1
        0x0000dc36:    2000        .       MOVS     r0,#0
        0x0000dc38:    ea850100    ....    EOR      r1,r5,r0
        0x0000dc3c:    4040        @@      EORS     r0,r0,r0
        0x0000dc3e:    4301        .C      ORRS     r1,r1,r0
        0x0000dc40:    d044        D.      BEQ      0xdccc ; divu64_10 + 158
        0x0000dc42:    ea5f0a55    _.U.    LSRS     r10,r5,#1
        0x0000dc46:    ea4f0134    O.4.    RRX      r1,r4
        0x0000dc4a:    ea4f0b94    O...    LSR      r11,r4,#2
        0x0000dc4e:    ea4b7085    K..p    ORR      r0,r11,r5,LSL #30
        0x0000dc52:    180a        ..      ADDS     r2,r1,r0
        0x0000dc54:    eb4a0395    J...    ADC      r3,r10,r5,LSR #2
        0x0000dc58:    ea4f1012    O...    LSR      r0,r2,#4
        0x0000dc5c:    ea407a03    @..z    ORR      r10,r0,r3,LSL #28
        0x0000dc60:    eb1a0202    ....    ADDS     r2,r10,r2
        0x0000dc64:    eb431313    C...    ADC      r3,r3,r3,LSR #4
        0x0000dc68:    ea4f2012    O..     LSR      r0,r2,#8
        0x0000dc6c:    ea406a03    @..j    ORR      r10,r0,r3,LSL #24
        0x0000dc70:    eb1a0202    ....    ADDS     r2,r10,r2
        0x0000dc74:    eb432313    C..#    ADC      r3,r3,r3,LSR #8
        0x0000dc78:    ea4f4012    O..@    LSR      r0,r2,#16
        0x0000dc7c:    ea404a03    @..J    ORR      r10,r0,r3,LSL #16
        0x0000dc80:    eb1a0202    ....    ADDS     r2,r10,r2
        0x0000dc84:    eb434313    C..C    ADC      r3,r3,r3,LSR #16
        0x0000dc88:    189a        ..      ADDS     r2,r3,r2
        0x0000dc8a:    f1430300    C...    ADC      r3,r3,#0
        0x0000dc8e:    08d0        ..      LSRS     r0,r2,#3
        0x0000dc90:    ea407243    @.Cr    ORR      r2,r0,r3,LSL #29
        0x0000dc94:    08db        ..      LSRS     r3,r3,#3
        0x0000dc96:    210a        .!      MOVS     r1,#0xa
        0x0000dc98:    f04f0a00    O...    MOV      r10,#0
        0x0000dc9c:    fba20b01    ....    UMULL    r0,r11,r2,r1
        0x0000dca0:    fb03b101    ....    MLA      r1,r3,r1,r11
        0x0000dca4:    fb02110a    ....    MLA      r1,r2,r10,r1
        0x0000dca8:    1a26        &.      SUBS     r6,r4,r0
        0x0000dcaa:    eb650701    e...    SBC      r7,r5,r1
        0x0000dcae:    2106        .!      MOVS     r1,#6
        0x0000dcb0:    eb160a01    ....    ADDS     r10,r6,r1
        0x0000dcb4:    f1470100    G...    ADC      r1,r7,#0
        0x0000dcb8:    ea4f101a    O...    LSR      r0,r10,#4
        0x0000dcbc:    ea407a01    @..z    ORR      r10,r0,r1,LSL #28
        0x0000dcc0:    eb1a0002    ....    ADDS     r0,r10,r2
        0x0000dcc4:    eb431111    C...    ADC      r1,r3,r1,LSR #4
        0x0000dcc8:    e8bd8ff0    ....    POP      {r4-r11,pc}
        0x0000dccc:    46a0        .F      MOV      r8,r4
        0x0000dcce:    ea4f0058    O.X.    LSR      r0,r8,#1
        0x0000dcd2:    eb000c98    ....    ADD      r12,r0,r8,LSR #2
        0x0000dcd6:    eb0c1c1c    ....    ADD      r12,r12,r12,LSR #4
        0x0000dcda:    eb0c2c1c    ...,    ADD      r12,r12,r12,LSR #8
        0x0000dcde:    eb0c4c1c    ...L    ADD      r12,r12,r12,LSR #16
        0x0000dce2:    ea4f0cdc    O...    LSR      r12,r12,#3
        0x0000dce6:    eb0c008c    ....    ADD      r0,r12,r12,LSL #2
        0x0000dcea:    eba80940    ..@.    SUB      r9,r8,r0,LSL #1
        0x0000dcee:    f1090006    ....    ADD      r0,r9,#6
        0x0000dcf2:    eb0c1010    ....    ADD      r0,r12,r0,LSR #4
        0x0000dcf6:    2100        .!      MOVS     r1,#0
        0x0000dcf8:    e7e6        ..      B        0xdcc8 ; divu64_10 + 154
        0x0000dcfa:    0000        ..      MOVS     r0,r0
    i.ftoa
    ftoa
        0x0000dcfc:    e92d4ff3    -..O    PUSH     {r0,r1,r4-r11,lr}
        0x0000dd00:    ed2d0b02    -...    VPUSH    {d0}
        0x0000dd04:    ed2d8b02    -...    VPUSH    {d8}
        0x0000dd08:    b081        ..      SUB      sp,sp,#4
        0x0000dd0a:    eeb08a40    ..@.    VMOV.F32 s16,s0
        0x0000dd0e:    4604        .F      MOV      r4,r0
        0x0000dd10:    f8d4b000    ....    LDR      r11,[r4,#0]
        0x0000dd14:    f1bb0f04    ....    CMP      r11,#4
        0x0000dd18:    da07        ..      BGE      0xdd2a ; ftoa + 46
        0x0000dd1a:    f06f0002    o...    MVN      r0,#2
        0x0000dd1e:    b001        ..      ADD      sp,sp,#4
        0x0000dd20:    ecbd8b02    ....    VPOP     {d8}
        0x0000dd24:    b004        ..      ADD      sp,sp,#0x10
        0x0000dd26:    e8bd8ff0    ....    POP      {r4-r11,pc}
        0x0000dd2a:    eeb58ac0    ....    VCMPE.F32 s16,#0.0
        0x0000dd2e:    eef1fa10    ....    VMRS     APSR_nzcv,FPSCR
        0x0000dd32:    d103        ..      BNE      0xdd3c ; ftoa + 64
        0x0000dd34:    484e        NH      LDR      r0,[pc,#312] ; [0xde70] = 0x302e30
        0x0000dd36:    6020         `      STR      r0,[r4,#0]
        0x0000dd38:    2003        .       MOVS     r0,#3
        0x0000dd3a:    e7f0        ..      B        0xdd1e ; ftoa + 34
        0x0000dd3c:    46a2        .F      MOV      r10,r4
        0x0000dd3e:    ed8d8a00    ....    VSTR     s16,[sp,#0]
        0x0000dd42:    9800        ..      LDR      r0,[sp,#0]
        0x0000dd44:    f3c050c7    ...P    UBFX     r0,r0,#23,#8
        0x0000dd48:    f1a0057f    ....    SUB      r5,r0,#0x7f
        0x0000dd4c:    9800        ..      LDR      r0,[sp,#0]
        0x0000dd4e:    f020407f     ..@    BIC      r0,r0,#0xff000000
        0x0000dd52:    f4400900    @...    ORR      r9,r0,#0x800000
        0x0000dd56:    f04f0800    O...    MOV      r8,#0
        0x0000dd5a:    2700        .'      MOVS     r7,#0
        0x0000dd5c:    2d1f        .-      CMP      r5,#0x1f
        0x0000dd5e:    db01        ..      BLT      0xdd64 ; ftoa + 104
        0x0000dd60:    1eb8        ..      SUBS     r0,r7,#2
        0x0000dd62:    e7dc        ..      B        0xdd1e ; ftoa + 34
        0x0000dd64:    f1150f17    ....    CMN      r5,#0x17
        0x0000dd68:    da02        ..      BGE      0xdd70 ; ftoa + 116
        0x0000dd6a:    f04f30ff    O..0    MOV      r0,#0xffffffff
        0x0000dd6e:    e7d6        ..      B        0xdd1e ; ftoa + 34
        0x0000dd70:    2d17        .-      CMP      r5,#0x17
        0x0000dd72:    db04        ..      BLT      0xdd7e ; ftoa + 130
        0x0000dd74:    f1a50017    ....    SUB      r0,r5,#0x17
        0x0000dd78:    fa09f700    ....    LSL      r7,r9,r0
        0x0000dd7c:    e011        ..      B        0xdda2 ; ftoa + 166
        0x0000dd7e:    2d00        .-      CMP      r5,#0
        0x0000dd80:    db09        ..      BLT      0xdd96 ; ftoa + 154
        0x0000dd82:    f1c50017    ....    RSB      r0,r5,#0x17
        0x0000dd86:    fa49f700    I...    ASR      r7,r9,r0
        0x0000dd8a:    1c68        h.      ADDS     r0,r5,#1
        0x0000dd8c:    fa09f000    ....    LSL      r0,r9,r0
        0x0000dd90:    f020487f     ..H    BIC      r8,r0,#0xff000000
        0x0000dd94:    e005        ..      B        0xdda2 ; ftoa + 166
        0x0000dd96:    f029407f    )..@    BIC      r0,r9,#0xff000000
        0x0000dd9a:    1c69        i.      ADDS     r1,r5,#1
        0x0000dd9c:    4249        IB      RSBS     r1,r1,#0
        0x0000dd9e:    fa40f801    @...    ASR      r8,r0,r1
        0x0000dda2:    9800        ..      LDR      r0,[sp,#0]
        0x0000dda4:    2800        .(      CMP      r0,#0
        0x0000dda6:    da02        ..      BGE      0xddae ; ftoa + 178
        0x0000dda8:    202d        -       MOVS     r0,#0x2d
        0x0000ddaa:    f8040b01    ....    STRB     r0,[r4],#1
        0x0000ddae:    b91f        ..      CBNZ     r7,0xddb8 ; ftoa + 188
        0x0000ddb0:    2030        0       MOVS     r0,#0x30
        0x0000ddb2:    f8040b01    ....    STRB     r0,[r4],#1
        0x0000ddb6:    e014        ..      B        0xdde2 ; ftoa + 230
        0x0000ddb8:    2f00        ./      CMP      r7,#0
        0x0000ddba:    dd05        ..      BLE      0xddc8 ; ftoa + 204
        0x0000ddbc:    4622        "F      MOV      r2,r4
        0x0000ddbe:    4638        8F      MOV      r0,r7
        0x0000ddc0:    17f9        ..      ASRS     r1,r7,#31
        0x0000ddc2:    f000f95c    ..\.    BL       uint64_to_str ; 0xe07e
        0x0000ddc6:    e007        ..      B        0xddd8 ; ftoa + 220
        0x0000ddc8:    202d        -       MOVS     r0,#0x2d
        0x0000ddca:    f8040b01    ....    STRB     r0,[r4],#1
        0x0000ddce:    4622        "F      MOV      r2,r4
        0x0000ddd0:    4278        xB      RSBS     r0,r7,#0
        0x0000ddd2:    17c1        ..      ASRS     r1,r0,#31
        0x0000ddd4:    f000f953    ..S.    BL       uint64_to_str ; 0xe07e
        0x0000ddd8:    e000        ..      B        0xdddc ; ftoa + 224
        0x0000ddda:    1c64        d.      ADDS     r4,r4,#1
        0x0000dddc:    7820         x      LDRB     r0,[r4,#0]
        0x0000ddde:    2800        .(      CMP      r0,#0
        0x0000dde0:    d1fb        ..      BNE      0xddda ; ftoa + 222
        0x0000dde2:    202e        .       MOVS     r0,#0x2e
        0x0000dde4:    f8040b01    ....    STRB     r0,[r4],#1
        0x0000dde8:    f1b80f00    ....    CMP      r8,#0
        0x0000ddec:    d103        ..      BNE      0xddf6 ; ftoa + 250
        0x0000ddee:    2030        0       MOVS     r0,#0x30
        0x0000ddf0:    f8040b01    ....    STRB     r0,[r4],#1
        0x0000ddf4:    e036        6.      B        0xde64 ; ftoa + 360
        0x0000ddf6:    eba4020a    ....    SUB      r2,r4,r10
        0x0000ddfa:    ebab0202    ....    SUB      r2,r11,r2
        0x0000ddfe:    1e51        Q.      SUBS     r1,r2,#1
        0x0000de00:    9a06        ..      LDR      r2,[sp,#0x18]
        0x0000de02:    4291        .B      CMP      r1,r2
        0x0000de04:    dd01        ..      BLE      0xde0a ; ftoa + 270
        0x0000de06:    9a06        ..      LDR      r2,[sp,#0x18]
        0x0000de08:    e000        ..      B        0xde0c ; ftoa + 272
        0x0000de0a:    460a        .F      MOV      r2,r1
        0x0000de0c:    4611        .F      MOV      r1,r2
        0x0000de0e:    2000        .       MOVS     r0,#0
        0x0000de10:    e00b        ..      B        0xde2a ; ftoa + 302
        0x0000de12:    eb080288    ....    ADD      r2,r8,r8,LSL #2
        0x0000de16:    ea4f0842    O.B.    LSL      r8,r2,#1
        0x0000de1a:    2230        0"      MOVS     r2,#0x30
        0x0000de1c:    eb026228    ..(b    ADD      r2,r2,r8,ASR #24
        0x0000de20:    f8042b01    ...+    STRB     r2,[r4],#1
        0x0000de24:    f028487f    (..H    BIC      r8,r8,#0xff000000
        0x0000de28:    1c40        @.      ADDS     r0,r0,#1
        0x0000de2a:    4288        .B      CMP      r0,r1
        0x0000de2c:    dbf1        ..      BLT      0xde12 ; ftoa + 278
        0x0000de2e:    eb080288    ....    ADD      r2,r8,r8,LSL #2
        0x0000de32:    0052        R.      LSLS     r2,r2,#1
        0x0000de34:    2305        .#      MOVS     r3,#5
        0x0000de36:    ebb36f22    .."o    CMP      r3,r2,ASR #24
        0x0000de3a:    dc12        ..      BGT      0xde62 ; ftoa + 358
        0x0000de3c:    1e66        f.      SUBS     r6,r4,#1
        0x0000de3e:    e00d        ..      B        0xde5c ; ftoa + 352
        0x0000de40:    7832        2x      LDRB     r2,[r6,#0]
        0x0000de42:    2a2e        .*      CMP      r2,#0x2e
        0x0000de44:    d009        ..      BEQ      0xde5a ; ftoa + 350
        0x0000de46:    7832        2x      LDRB     r2,[r6,#0]
        0x0000de48:    2a39        9*      CMP      r2,#0x39
        0x0000de4a:    d102        ..      BNE      0xde52 ; ftoa + 342
        0x0000de4c:    2230        0"      MOVS     r2,#0x30
        0x0000de4e:    7032        2p      STRB     r2,[r6,#0]
        0x0000de50:    e003        ..      B        0xde5a ; ftoa + 350
        0x0000de52:    7832        2x      LDRB     r2,[r6,#0]
        0x0000de54:    1c52        R.      ADDS     r2,r2,#1
        0x0000de56:    7032        2p      STRB     r2,[r6,#0]
        0x0000de58:    e002        ..      B        0xde60 ; ftoa + 356
        0x0000de5a:    1e76        v.      SUBS     r6,r6,#1
        0x0000de5c:    4556        VE      CMP      r6,r10
        0x0000de5e:    d2ef        ..      BCS      0xde40 ; ftoa + 324
        0x0000de60:    bf00        ..      NOP      
        0x0000de62:    bf00        ..      NOP      
        0x0000de64:    2000        .       MOVS     r0,#0
        0x0000de66:    7020         p      STRB     r0,[r4,#0]
        0x0000de68:    eba4000a    ....    SUB      r0,r4,r10
        0x0000de6c:    e757        W.      B        0xdd1e ; ftoa + 34
    $d
        0x0000de6e:    0000        ..      DCW    0
        0x0000de70:    00302e30    0.0.    DCD    3157552
    $t
    i.main
    main
        0x0000de74:    2100        .!      MOVS     r1,#0
        0x0000de76:    4608        .F      MOV      r0,r1
        0x0000de78:    f7fefdb2    ....    BL       am_hal_clkgen_control ; 0xc9e0
        0x0000de7c:    4811        .H      LDR      r0,[pc,#68] ; [0xdec4] = 0xe202
        0x0000de7e:    f7fefba9    ....    BL       am_hal_cachectrl_config ; 0xc5d4
        0x0000de82:    f7fefda3    ....    BL       am_hal_cachectrl_enable ; 0xc9cc
        0x0000de86:    f7fefa83    ....    BL       am_bsp_low_power_init ; 0xc390
        0x0000de8a:    2105        .!      MOVS     r1,#5
        0x0000de8c:    480e        .H      LDR      r0,[pc,#56] ; [0xdec8] = 0x10011018
        0x0000de8e:    f7fefaa1    ....    BL       am_devices_led_array_init ; 0xc3d4
        0x0000de92:    f7fefa5f    .._.    BL       am_bsp_itm_printf_enable ; 0xc354
        0x0000de96:    f7fffcbf    ....    BL       am_util_stdio_terminal_clear ; 0xd818
        0x0000de9a:    a00c        ..      ADR      r0,{pc}+0x32 ; 0xdecc
        0x0000de9c:    f7fffc98    ....    BL       am_util_stdio_printf ; 0xd7d0
        0x0000dea0:    480e        .H      LDR      r0,[pc,#56] ; [0xdedc] = 0xe728
        0x0000dea2:    f7fffc95    ....    BL       am_util_stdio_printf ; 0xd7d0
        0x0000dea6:    200a        .       MOVS     r0,#0xa
        0x0000dea8:    f7fffc26    ..&.    BL       am_util_delay_ms ; 0xd6f8
        0x0000deac:    f000f87e    ..~.    BL       stimer_init ; 0xdfac
        0x0000deb0:    f7fef9a4    ....    BL       am_hal_interrupt_master_enable ; 0xc1fc
        0x0000deb4:    f7fefa1e    ....    BL       am_bsp_debug_printf_disable ; 0xc2f4
        0x0000deb8:    e002        ..      B        0xdec0 ; main + 76
        0x0000deba:    2001        .       MOVS     r0,#1
        0x0000debc:    f7fffaa8    ....    BL       am_hal_sysctrl_sleep ; 0xd410
        0x0000dec0:    e7fb        ..      B        0xdeba ; main + 70
    $d
        0x0000dec2:    0000        ..      DCW    0
        0x0000dec4:    0000e202    ....    DCD    57858
        0x0000dec8:    10011018    ....    DCD    268505112
        0x0000decc:    6d695453    STim    DCD    1835619411
        0x0000ded0:    45207265    er E    DCD    1159754341
        0x0000ded4:    706d6178    xamp    DCD    1886216568
        0x0000ded8:    000a656c    le..    DCD    681324
        0x0000dedc:    0000e728    (...    DCD    59176
    $t
    i.ndigits_in_hex
    ndigits_in_hex
        0x0000dee0:    b530        0.      PUSH     {r4,r5,lr}
        0x0000dee2:    4602        .F      MOV      r2,r0
        0x0000dee4:    460b        .F      MOV      r3,r1
        0x0000dee6:    2400        .$      MOVS     r4,#0
        0x0000dee8:    ea820104    ....    EOR      r1,r2,r4
        0x0000deec:    405c        \@      EORS     r4,r4,r3
        0x0000deee:    4321        !C      ORRS     r1,r1,r4
        0x0000def0:    d101        ..      BNE      0xdef6 ; ndigits_in_hex + 22
        0x0000def2:    2101        .!      MOVS     r1,#1
        0x0000def4:    e000        ..      B        0xdef8 ; ndigits_in_hex + 24
        0x0000def6:    2100        .!      MOVS     r1,#0
        0x0000def8:    4608        .F      MOV      r0,r1
        0x0000defa:    e004        ..      B        0xdf06 ; ndigits_in_hex + 38
        0x0000defc:    0911        ..      LSRS     r1,r2,#4
        0x0000defe:    ea417203    A..r    ORR      r2,r1,r3,LSL #28
        0x0000df02:    091b        ..      LSRS     r3,r3,#4
        0x0000df04:    1c40        @.      ADDS     r0,r0,#1
        0x0000df06:    2400        .$      MOVS     r4,#0
        0x0000df08:    ea820104    ....    EOR      r1,r2,r4
        0x0000df0c:    405c        \@      EORS     r4,r4,r3
        0x0000df0e:    4321        !C      ORRS     r1,r1,r4
        0x0000df10:    d1f4        ..      BNE      0xdefc ; ndigits_in_hex + 28
        0x0000df12:    bd30        0.      POP      {r4,r5,pc}
    i.ndigits_in_i64
    ndigits_in_i64
        0x0000df14:    b570        p.      PUSH     {r4-r6,lr}
        0x0000df16:    4604        .F      MOV      r4,r0
        0x0000df18:    460d        .F      MOV      r5,r1
        0x0000df1a:    2100        .!      MOVS     r1,#0
        0x0000df1c:    4608        .F      MOV      r0,r1
        0x0000df1e:    1a61        a.      SUBS     r1,r4,r1
        0x0000df20:    eb750000    u...    SBCS     r0,r5,r0
        0x0000df24:    da03        ..      BGE      0xdf2e ; ndigits_in_i64 + 26
        0x0000df26:    2200        ."      MOVS     r2,#0
        0x0000df28:    4264        dB      RSBS     r4,r4,#0
        0x0000df2a:    eb620505    b...    SBC      r5,r2,r5
        0x0000df2e:    4620         F      MOV      r0,r4
        0x0000df30:    4629        )F      MOV      r1,r5
        0x0000df32:    f000f801    ....    BL       ndigits_in_u64 ; 0xdf38
        0x0000df36:    bd70        p.      POP      {r4-r6,pc}
    i.ndigits_in_u64
    ndigits_in_u64
        0x0000df38:    b570        p.      PUSH     {r4-r6,lr}
        0x0000df3a:    4604        .F      MOV      r4,r0
        0x0000df3c:    460d        .F      MOV      r5,r1
        0x0000df3e:    2100        .!      MOVS     r1,#0
        0x0000df40:    ea840001    ....    EOR      r0,r4,r1
        0x0000df44:    4069        i@      EORS     r1,r1,r5
        0x0000df46:    4308        .C      ORRS     r0,r0,r1
        0x0000df48:    d101        ..      BNE      0xdf4e ; ndigits_in_u64 + 22
        0x0000df4a:    2001        .       MOVS     r0,#1
        0x0000df4c:    e000        ..      B        0xdf50 ; ndigits_in_u64 + 24
        0x0000df4e:    2000        .       MOVS     r0,#0
        0x0000df50:    4606        .F      MOV      r6,r0
        0x0000df52:    e006        ..      B        0xdf62 ; ndigits_in_u64 + 42
        0x0000df54:    4620         F      MOV      r0,r4
        0x0000df56:    4629        )F      MOV      r1,r5
        0x0000df58:    f7fffe69    ..i.    BL       divu64_10 ; 0xdc2e
        0x0000df5c:    4604        .F      MOV      r4,r0
        0x0000df5e:    460d        .F      MOV      r5,r1
        0x0000df60:    1c76        v.      ADDS     r6,r6,#1
        0x0000df62:    2100        .!      MOVS     r1,#0
        0x0000df64:    ea840001    ....    EOR      r0,r4,r1
        0x0000df68:    4069        i@      EORS     r1,r1,r5
        0x0000df6a:    4308        .C      ORRS     r0,r0,r1
        0x0000df6c:    d1f2        ..      BNE      0xdf54 ; ndigits_in_u64 + 28
        0x0000df6e:    4630        0F      MOV      r0,r6
        0x0000df70:    bd70        p.      POP      {r4-r6,pc}
    i.padbuffer
    padbuffer
        0x0000df72:    b530        0.      PUSH     {r4,r5,lr}
        0x0000df74:    4603        .F      MOV      r3,r0
        0x0000df76:    2000        .       MOVS     r0,#0
        0x0000df78:    2a00        .*      CMP      r2,#0
        0x0000df7a:    dc00        ..      BGT      0xdf7e ; padbuffer + 12
        0x0000df7c:    bd30        0.      POP      {r4,r5,pc}
        0x0000df7e:    e003        ..      B        0xdf88 ; padbuffer + 22
        0x0000df80:    b10b        ..      CBZ      r3,0xdf86 ; padbuffer + 20
        0x0000df82:    f8031b01    ....    STRB     r1,[r3],#1
        0x0000df86:    1c40        @.      ADDS     r0,r0,#1
        0x0000df88:    1e14        ..      SUBS     r4,r2,#0
        0x0000df8a:    f1a20201    ....    SUB      r2,r2,#1
        0x0000df8e:    d1f7        ..      BNE      0xdf80 ; padbuffer + 14
        0x0000df90:    bf00        ..      NOP      
        0x0000df92:    e7f3        ..      B        0xdf7c ; padbuffer + 10
    i.simple_strlen
    simple_strlen
        0x0000df94:    4601        .F      MOV      r1,r0
        0x0000df96:    2000        .       MOVS     r0,#0
        0x0000df98:    b901        ..      CBNZ     r1,0xdf9c ; simple_strlen + 8
        0x0000df9a:    4770        pG      BX       lr
        0x0000df9c:    e000        ..      B        0xdfa0 ; simple_strlen + 12
        0x0000df9e:    1c40        @.      ADDS     r0,r0,#1
        0x0000dfa0:    f8113b01    ...;    LDRB     r3,[r1],#1
        0x0000dfa4:    2b00        .+      CMP      r3,#0
        0x0000dfa6:    d1fa        ..      BNE      0xdf9e ; simple_strlen + 10
        0x0000dfa8:    bf00        ..      NOP      
        0x0000dfaa:    e7f6        ..      B        0xdf9a ; simple_strlen + 6
    i.stimer_init
    stimer_init
        0x0000dfac:    b510        ..      PUSH     {r4,lr}
        0x0000dfae:    2001        .       MOVS     r0,#1
        0x0000dfb0:    f7fffa24    ..$.    BL       am_hal_stimer_int_enable ; 0xd3fc
        0x0000dfb4:    2017        .       MOVS     r0,#0x17
        0x0000dfb6:    2800        .(      CMP      r0,#0
        0x0000dfb8:    db0d        ..      BLT      0xdfd6 ; stimer_init + 42
        0x0000dfba:    bf00        ..      NOP      
        0x0000dfbc:    bf00        ..      NOP      
        0x0000dfbe:    f000021f    ....    AND      r2,r0,#0x1f
        0x0000dfc2:    2101        .!      MOVS     r1,#1
        0x0000dfc4:    4091        .@      LSLS     r1,r1,r2
        0x0000dfc6:    0942        B.      LSRS     r2,r0,#5
        0x0000dfc8:    0092        ..      LSLS     r2,r2,#2
        0x0000dfca:    f10222e0    ..."    ADD      r2,r2,#0xe000e000
        0x0000dfce:    f8c21100    ....    STR      r1,[r2,#0x100]
        0x0000dfd2:    bf00        ..      NOP      
        0x0000dfd4:    bf00        ..      NOP      
        0x0000dfd6:    bf00        ..      NOP      
        0x0000dfd8:    f04f4040    O.@@    MOV      r0,#0xc0000000
        0x0000dfdc:    f7fff9fe    ....    BL       am_hal_stimer_config ; 0xd3dc
        0x0000dfe0:    f44f4100    O..A    MOV      r1,#0x8000
        0x0000dfe4:    2000        .       MOVS     r0,#0
        0x0000dfe6:    f7fff9a3    ....    BL       am_hal_stimer_compare_delta_set ; 0xd330
        0x0000dfea:    f2401003    @...    MOV      r0,#0x103
        0x0000dfee:    f7fff9f5    ....    BL       am_hal_stimer_config ; 0xd3dc
        0x0000dff2:    bd10        ..      POP      {r4,pc}
    i.uint64_to_hexstr
    uint64_to_hexstr
        0x0000dff4:    e92d41f0    -..A    PUSH     {r4-r8,lr}
        0x0000dff8:    b085        ..      SUB      sp,sp,#0x14
        0x0000dffa:    4604        .F      MOV      r4,r0
        0x0000dffc:    460d        .F      MOV      r5,r1
        0x0000dffe:    461e        .F      MOV      r6,r3
        0x0000e000:    2100        .!      MOVS     r1,#0
        0x0000e002:    468c        .F      MOV      r12,r1
        0x0000e004:    ea84070c    ....    EOR      r7,r4,r12
        0x0000e008:    ea850c0c    ....    EOR      r12,r5,r12
        0x0000e00c:    ea57070c    W...    ORRS     r7,r7,r12
        0x0000e010:    d105        ..      BNE      0xe01e ; uint64_to_hexstr + 42
        0x0000e012:    f04f0830    O.0.    MOV      r8,#0x30
        0x0000e016:    460f        .F      MOV      r7,r1
        0x0000e018:    1c49        I.      ADDS     r1,r1,#1
        0x0000e01a:    f80d8007    ....    STRB     r8,[sp,r7]
        0x0000e01e:    e016        ..      B        0xe04e ; uint64_to_hexstr + 90
        0x0000e020:    270f        .'      MOVS     r7,#0xf
        0x0000e022:    4027        '@      ANDS     r7,r7,r4
        0x0000e024:    b2fb        ..      UXTB     r3,r7
        0x0000e026:    2b09        .+      CMP      r3,#9
        0x0000e028:    dd05        ..      BLE      0xe036 ; uint64_to_hexstr + 66
        0x0000e02a:    b10e        ..      CBZ      r6,0xe030 ; uint64_to_hexstr + 60
        0x0000e02c:    2727        ''      MOVS     r7,#0x27
        0x0000e02e:    e000        ..      B        0xe032 ; uint64_to_hexstr + 62
        0x0000e030:    2707        .'      MOVS     r7,#7
        0x0000e032:    441f        .D      ADD      r7,r7,r3
        0x0000e034:    b2fb        ..      UXTB     r3,r7
        0x0000e036:    f1030730    ..0.    ADD      r7,r3,#0x30
        0x0000e03a:    f00708ff    ....    AND      r8,r7,#0xff
        0x0000e03e:    460f        .F      MOV      r7,r1
        0x0000e040:    1c49        I.      ADDS     r1,r1,#1
        0x0000e042:    f80d8007    ....    STRB     r8,[sp,r7]
        0x0000e046:    0927        '.      LSRS     r7,r4,#4
        0x0000e048:    ea477405    G..t    ORR      r4,r7,r5,LSL #28
        0x0000e04c:    092d        -.      LSRS     r5,r5,#4
        0x0000e04e:    f04f0c00    O...    MOV      r12,#0
        0x0000e052:    ea84070c    ....    EOR      r7,r4,r12
        0x0000e056:    ea850c0c    ....    EOR      r12,r5,r12
        0x0000e05a:    ea57070c    W...    ORRS     r7,r7,r12
        0x0000e05e:    d1df        ..      BNE      0xe020 ; uint64_to_hexstr + 44
        0x0000e060:    4608        .F      MOV      r0,r1
        0x0000e062:    b14a        J.      CBZ      r2,0xe078 ; uint64_to_hexstr + 132
        0x0000e064:    e003        ..      B        0xe06e ; uint64_to_hexstr + 122
        0x0000e066:    f81d7001    ...p    LDRB     r7,[sp,r1]
        0x0000e06a:    f8027b01    ...{    STRB     r7,[r2],#1
        0x0000e06e:    1e0f        ..      SUBS     r7,r1,#0
        0x0000e070:    f1a10101    ....    SUB      r1,r1,#1
        0x0000e074:    d1f7        ..      BNE      0xe066 ; uint64_to_hexstr + 114
        0x0000e076:    7017        .p      STRB     r7,[r2,#0]
        0x0000e078:    b005        ..      ADD      sp,sp,#0x14
        0x0000e07a:    e8bd81f0    ....    POP      {r4-r8,pc}
    i.uint64_to_str
    uint64_to_str
        0x0000e07e:    e92d4ff0    -..O    PUSH     {r4-r11,lr}
        0x0000e082:    b087        ..      SUB      sp,sp,#0x1c
        0x0000e084:    4607        .F      MOV      r7,r0
        0x0000e086:    4688        .F      MOV      r8,r1
        0x0000e088:    4616        .F      MOV      r6,r2
        0x0000e08a:    f04f0900    O...    MOV      r9,#0
        0x0000e08e:    46cb        .F      MOV      r11,r9
        0x0000e090:    bf00        ..      NOP      
        0x0000e092:    4638        8F      MOV      r0,r7
        0x0000e094:    4641        AF      MOV      r1,r8
        0x0000e096:    f7fffdca    ....    BL       divu64_10 ; 0xdc2e
        0x0000e09a:    4604        .F      MOV      r4,r0
        0x0000e09c:    460d        .F      MOV      r5,r1
        0x0000e09e:    210a        .!      MOVS     r1,#0xa
        0x0000e0a0:    fba40101    ....    UMULL    r0,r1,r4,r1
        0x0000e0a4:    ebb70a00    ....    SUBS     r10,r7,r0
        0x0000e0a8:    f10a0030    ..0.    ADD      r0,r10,#0x30
        0x0000e0ac:    b2c2        ..      UXTB     r2,r0
        0x0000e0ae:    4648        HF      MOV      r0,r9
        0x0000e0b0:    f1090901    ....    ADD      r9,r9,#1
        0x0000e0b4:    f80d2000    ...     STRB     r2,[sp,r0]
        0x0000e0b8:    4627        'F      MOV      r7,r4
        0x0000e0ba:    46a8        .F      MOV      r8,r5
        0x0000e0bc:    f04f0200    O...    MOV      r2,#0
        0x0000e0c0:    ea870002    ....    EOR      r0,r7,r2
        0x0000e0c4:    ea880102    ....    EOR      r1,r8,r2
        0x0000e0c8:    4308        .C      ORRS     r0,r0,r1
        0x0000e0ca:    d1e2        ..      BNE      0xe092 ; uint64_to_str + 20
        0x0000e0cc:    46cb        .F      MOV      r11,r9
        0x0000e0ce:    b156        V.      CBZ      r6,0xe0e6 ; uint64_to_str + 104
        0x0000e0d0:    e003        ..      B        0xe0da ; uint64_to_str + 92
        0x0000e0d2:    f81d0009    ....    LDRB     r0,[sp,r9]
        0x0000e0d6:    f8060b01    ....    STRB     r0,[r6],#1
        0x0000e0da:    f1b90000    ....    SUBS     r0,r9,#0
        0x0000e0de:    f1a90901    ....    SUB      r9,r9,#1
        0x0000e0e2:    d1f6        ..      BNE      0xe0d2 ; uint64_to_str + 84
        0x0000e0e4:    7030        0p      STRB     r0,[r6,#0]
        0x0000e0e6:    4658        XF      MOV      r0,r11
        0x0000e0e8:    b007        ..      ADD      sp,sp,#0x1c
        0x0000e0ea:    e8bd8ff0    ....    POP      {r4-r11,pc}
        0x0000e0ee:    0000        ..      MOVS     r0,r0
    x$fpl$d2f
    $v0
    __aeabi_d2f
    _d2f
        0x0000e0f0:    f0214200    !..B    BIC      r2,r1,#0x80000000
        0x0000e0f4:    f1a25260    ..`R    SUB      r2,r2,#0x38000000
        0x0000e0f8:    f5b21f80    ....    CMP      r2,#0x100000
        0x0000e0fc:    f0014300    ...C    AND      r3,r1,#0x80000000
        0x0000e100:    bf28        (.      IT       CS
        0x0000e102:    f1d26c7f    ...l    RSBSCS   r12,r2,#0xff00000
        0x0000e106:    d90b        ..      BLS      0xe120 ; __aeabi_d2f + 48
        0x0000e108:    ea5f1c00    _...    LSLS     r12,r0,#4
        0x0000e10c:    ea4302c2    C...    ORR      r2,r3,r2,LSL #3
        0x0000e110:    eb427050    B.Pp    ADC      r0,r2,r0,LSR #29
        0x0000e114:    bf18        ..      IT       NE
        0x0000e116:    4770        pG      BXNE     lr
        0x0000e118:    bf28        (.      IT       CS
        0x0000e11a:    f0200001     ...    BICCS    r0,r0,#1
        0x0000e11e:    4770        pG      BX       lr
        0x0000e120:    f5b21f80    ....    CMP      r2,#0x100000
        0x0000e124:    bfbc        ..      ITT      LT
        0x0000e126:    4618        .F      MOVLT    r0,r3
        0x0000e128:    4770        pG      BXLT     lr
        0x0000e12a:    ea4f0c41    O.A.    LSL      r12,r1,#1
        0x0000e12e:    f51c1f00    ....    CMN      r12,#0x200000
        0x0000e132:    d202        ..      BCS      0xe13a ; __aeabi_d2f + 74
        0x0000e134:    4608        .F      MOV      r0,r1
        0x0000e136:    f000b85f    .._.    B.W      __fpl_fretinf ; 0xe1f8
        0x0000e13a:    b570        p.      PUSH     {r4-r6,lr}
        0x0000e13c:    f000f809    ....    BL       __fpl_dnaninf ; 0xe152
    $d
        0x0000e140:    89000000    ....    DCD    2298478592
    $t
        0x0000e144:    f7ffbff6    ....    B.W      0xe134 ; __aeabi_d2f + 68
        0x0000e148:    f04f4000    O..@    MOV      r0,#0x80000000
        0x0000e14c:    f5a00080    ....    SUB      r0,r0,#0x400000
        0x0000e150:    4770        pG      BX       lr
    x$fpl$dnaninf
    $v0
    __fpl_dnaninf
        0x0000e152:    f10e0e02    ....    ADD      lr,lr,#2
        0x0000e156:    f02e0e03    ....    BIC      lr,lr,#3
        0x0000e15a:    f85e6b04    ^..k    LDR      r6,[lr],#4
        0x0000e15e:    4236        6B      TST      r6,r6
        0x0000e160:    d405        ..      BMI      0xe16e ; __fpl_dnaninf + 28
        0x0000e162:    2a01        .*      CMP      r2,#1
        0x0000e164:    eb430503    C...    ADC      r5,r3,r3
        0x0000e168:    f5151f00    ....    CMN      r5,#0x200000
        0x0000e16c:    d812        ..      BHI      0xe194 ; __fpl_dnaninf + 66
        0x0000e16e:    2801        .(      CMP      r0,#1
        0x0000e170:    eb410c01    A...    ADC      r12,r1,r1
        0x0000e174:    f51c1f00    ....    CMN      r12,#0x200000
        0x0000e178:    d80c        ..      BHI      0xe194 ; __fpl_dnaninf + 66
        0x0000e17a:    d10e        ..      BNE      0xe19a ; __fpl_dnaninf + 72
        0x0000e17c:    ea4f7cd1    O..|    LSR      r12,r1,#31
        0x0000e180:    f5151f00    ....    CMN      r5,#0x200000
        0x0000e184:    eb0c0c4c    ..L.    ADD      r12,r12,r12,LSL #1
        0x0000e188:    f10c0c02    ....    ADD      r12,r12,#2
        0x0000e18c:    bf08        ..      IT       EQ
        0x0000e18e:    eb4c7cd3    L..|    ADCEQ    r12,r12,r3,LSR #31
        0x0000e192:    e004        ..      B        0xe19e ; __fpl_dnaninf + 76
        0x0000e194:    f04f0c08    O...    MOV      r12,#8
        0x0000e198:    e001        ..      B        0xe19e ; __fpl_dnaninf + 76
        0x0000e19a:    ea4f7cd3    O..|    LSR      r12,r3,#31
        0x0000e19e:    eb0c054c    ..L.    ADD      r5,r12,r12,LSL #1
        0x0000e1a2:    fa26f605    &...    LSR      r6,r6,r5
        0x0000e1a6:    f0060607    ....    AND      r6,r6,#7
        0x0000e1aa:    f1b60c04    ....    SUBS     r12,r6,#4
        0x0000e1ae:    d206        ..      BCS      0xe1be ; __fpl_dnaninf + 108
        0x0000e1b0:    eb0e0c86    ....    ADD      r12,lr,r6,LSL #2
        0x0000e1b4:    e8bd4070    ..p@    POP      {r4-r6,lr}
        0x0000e1b8:    f04c0c01    L...    ORR      r12,r12,#1
        0x0000e1bc:    4760        `G      BX       r12
        0x0000e1be:    e8dff00c    ....    TBB      [pc,r12]
    $d
        0x0000e1c2:    0b09        ..      DCW    2825
        0x0000e1c4:    0202        ..      DCW    514
    $t
        0x0000e1c6:    f04f4100    O..A    MOV      r1,#0x80000000
        0x0000e1ca:    f04f0000    O...    MOV      r0,#0
        0x0000e1ce:    f5a12100    ...!    SUB      r1,r1,#0x80000
        0x0000e1d2:    bd70        p.      POP      {r4-r6,pc}
        0x0000e1d4:    4619        .F      MOV      r1,r3
        0x0000e1d6:    4610        .F      MOV      r0,r2
        0x0000e1d8:    2801        .(      CMP      r0,#1
        0x0000e1da:    eb510401    Q...    ADCS     r4,r1,r1
        0x0000e1de:    bf18        ..      IT       NE
        0x0000e1e0:    f5d41400    ....    RSBSNE   r4,r4,#0x200000
        0x0000e1e4:    bf84        ..      ITT      HI
        0x0000e1e6:    2000        .       MOVHI    r0,#0
        0x0000e1e8:    f0014100    ...A    ANDHI    r1,r1,#0x80000000
        0x0000e1ec:    bd70        p.      POP      {r4-r6,pc}
    x$fpl$fpinit
    $v0
    _fp_init
        0x0000e1ee:    f04f7040    O.@p    MOV      r0,#0x3000000
        0x0000e1f2:    eee10a10    ....    VMSR     FPSCR,r0
    __fplib_config_fpu_vfp
    __fplib_config_pureend_doubles
        0x0000e1f6:    4770        pG      BX       lr
    x$fpl$fretinf
    $v0
    __fpl_fretinf
        0x0000e1f8:    21ff        .!      MOVS     r1,#0xff
        0x0000e1fa:    ea4150d0    A..P    ORR      r0,r1,r0,LSR #23
        0x0000e1fe:    05c0        ..      LSLS     r0,r0,#23
        0x0000e200:    4770        pG      BX       lr
    $d.realdata
    .constdata
    x$fpl$usenofp
    __I$use$fp
    am_hal_cachectrl_defaults
        0x0000e202:    0308        ..      DCW    776
        0x0000e204:    00000000    ....    DCD    0
    .constdata
        0x0000e208:    bf006001    .`..    DCD    3204472833
        0x0000e20c:    bf006800    .h..    DCD    3204474880
        0x0000e210:    bf004770    pG..    DCD    3204466544
    .constdata
    g_AM_HAL_GPIO_DISABLE
        0x0000e214:    00000003    ....    DCD    3
    g_ui8Inpen
        0x0000e218:    62272323    ##'b    DCD    1646732067
        0x0000e21c:    108703a1    ....    DCD    277283745
        0x0000e220:    e1005303    .S..    DCD    3774894851
        0x0000e224:    55418151    Q.AU    DCD    1430356305
        0x0000e228:    4080c405    ...@    DCD    1082180613
        0x0000e22c:    4140b101    ..@A    DCD    1094758657
        0x0000e230:    31a03114    .1.1    DCD    832581908
        0x0000e234:    1180f100    ....    DCD    293662976
        0x0000e238:    11c12191    .!..    DCD    297869713
        0x0000e23c:    304511e5    ..E0    DCD    809832933
        0x0000e240:    31300037    7.01    DCD    825229367
        0x0000e244:    40007100    .q.@    DCD    1073770752
        0x0000e248:    01003130    01..    DCD    16789808
        0x0000e24c:    01010101    ....    DCD    16843009
        0x0000e250:    01010101    ....    DCD    16843009
        0x0000e254:    a050a001    ..P.    DCD    2689638401
        0x0000e258:    01010101    ....    DCD    16843009
        0x0000e25c:    a0a0a001    ....    DCD    2694881281
        0x0000e260:    50a0        .P      DCW    20640
    g_ui8Bit76Capabilities
        0x0000e262:    0101        ..      DCW    257
        0x0000e264:    01800280    ....    DCD    25166464
        0x0000e268:    01018001    ....    DCD    16875521
        0x0000e26c:    80808080    ....    DCD    2155905152
        0x0000e270:    80808080    ....    DCD    2155905152
        0x0000e274:    80088080    ....    DCD    2148040832
        0x0000e278:    01808080    ....    DCD    25198720
        0x0000e27c:    80800180    ....    DCD    2155872640
        0x0000e280:    80808080    ....    DCD    2155905152
        0x0000e284:    04028080    ....    DCD    67272832
        0x0000e288:    04010180    ....    DCD    67174784
        0x0000e28c:    80800101    ....    DCD    2155872513
        0x0000e290:    01018080    ....    DCD    16875648
        0x0000e294:    80808080    ....    DCD    2155905152
        0x0000e298:    80808080    ....    DCD    2155905152
        0x0000e29c:    80808080    ....    DCD    2155905152
        0x0000e2a0:    80808080    ....    DCD    2155905152
        0x0000e2a4:    80808080    ....    DCD    2155905152
        0x0000e2a8:    80808080    ....    DCD    2155905152
    g_ui8nCEpins
        0x0000e2ac:    02070707    ....    DCD    34014983
        0x0000e2b0:    00080802    ....    DCD    526338
        0x0000e2b4:    01020202    ....    DCD    16908802
        0x0000e2b8:    01010101    ....    DCD    16843009
        0x0000e2bc:    01010101    ....    DCD    16843009
        0x0000e2c0:    01010101    ....    DCD    16843009
        0x0000e2c4:    01010101    ....    DCD    16843009
        0x0000e2c8:    01010101    ....    DCD    16843009
        0x0000e2cc:    01010101    ....    DCD    16843009
        0x0000e2d0:    08010101    ....    DCD    134283521
        0x0000e2d4:    01010008    ....    DCD    16842760
        0x0000e2d8:    01010101    ....    DCD    16843009
        0x0000e2dc:    01010101    ....    DCD    16843009
        0x0000e2e0:    01010101    ....    DCD    16843009
        0x0000e2e4:    01010101    ....    DCD    16843009
        0x0000e2e8:    01010101    ....    DCD    16843009
        0x0000e2ec:    01010101    ....    DCD    16843009
        0x0000e2f0:    01010101    ....    DCD    16843009
        0x0000e2f4:    0101        ..      DCW    257
    g_ui8NCEtable
        0x0000e2f6:    a4a3        ..      DCW    42147
        0x0000e2f8:    a1a00112    ....    DCD    2711617810
        0x0000e2fc:    02b3a4a2    ....    DCD    45327522
        0x0000e300:    848392b5    ....    DCD    2223215285
        0x0000e304:    94938285    ....    DCD    2492695173
        0x0000e308:    ffff9101    ....    DCD    4294938881
        0x0000e30c:    ffffffff    ....    DCD    4294967295
        0x0000e310:    1201ffff    ....    DCD    302120959
        0x0000e314:    84830095    ....    DCD    2223177877
        0x0000e318:    b4018002    ....    DCD    3019997186
        0x0000e31c:    a4a3b2b5    ....    DCD    2762191541
        0x0000e320:    81800011    ....    DCD    2172649489
        0x0000e324:    02838382    ....    DCD    42173314
        0x0000e328:    94931085    ....    DCD    2492665989
        0x0000e32c:    12a09095    ....    DCD    312512661
        0x0000e330:    b101a4a2    ....    DCD    2969674914
        0x0000e334:    028000b2    ....    DCD    41943218
        0x0000e338:    919085b2    ....    DCD    2442167730
        0x0000e33c:    a1029402    ....    DCD    2701300738
        0x0000e340:    11b0a3a2    ....    DCD    296788898
        0x0000e344:    001200b3    ....    DCD    1179827
        0x0000e348:    a4a39295    ....    DCD    2762183317
        0x0000e34c:    b4b30102    ....    DCD    3031630082
        0x0000e350:    818002b5    ....    DCD    2172650165
        0x0000e354:    01908482    ....    DCD    26248322
        0x0000e358:    01a39592    ....    DCD    27497874
        0x0000e35c:    b4b3a0a5    ....    DCD    3031670949
        0x0000e360:    8402b1b5    ....    DCD    2214769077
        0x0000e364:    94938100    ....    DCD    2492694784
        0x0000e368:    12a30095    ....    DCD    312672405
        0x0000e36c:    b400a1a5    ....    DCD    3019940261
        0x0000e370:    0201b002    ....    DCD    33665026
        0x0000e374:    b1908482    ....    DCD    2979038338
        0x0000e378:    11a01001    ....    DCD    295702529
        0x0000e37c:    02b0a592    ....    DCD    45131154
        0x0000e380:    810111b2    ....    DCD    2164330930
        0x0000e384:    94930282    ....    DCD    2492662402
        0x0000e388:    a4931095    ....    DCD    2761101461
        0x0000e38c:    b1b000a5    ....    DCD    2981101733
        0x0000e390:    ffffb512    ....    DCD    4294948114
        0x0000e394:    ffffffff    ....    DCD    4294967295
        0x0000e398:    9102ffff    ....    DCD    2432892927
        0x0000e39c:    01801011    ....    DCD    25169937
        0x0000e3a0:    91908582    ....    DCD    2442167682
        0x0000e3a4:    00a01002    ....    DCD    10489858
        0x0000e3a8:    b4b3a5a2    ....    DCD    3031672226
        0x0000e3ac:    0183b185    ....    DCD    25407877
        0x0000e3b0:    81111002    ....    DCD    2165379074
        0x0000e3b4:    a1019392    ....    DCD    2701235090
        0x0000e3b8:    11b012a2    ....    DCD    296751778
        0x0000e3bc:    020181b2    ....    DCD    33653170
        0x0000e3c0:    91a480b2    ....    DCD    2443477170
        0x0000e3c4:    a1908092    ....    DCD    2710601874
        0x0000e3c8:    b1a09200    ....    DCD    2980090368
        0x0000e3cc:    84028202    ....    DCD    2214756866
        0x0000e3d0:    00838385    ....    DCD    8618885
        0x0000e3d4:    b4a38495    ....    DCD    3030615189
        0x0000e3d8:    b40010a5    ....    DCD    3019903141
        0x0000e3dc:    81b390b5    ....    DCD    2176028853
        0x0000e3e0:    9111b500    ....    DCD    2433856768
        0x0000e3e4:    a1100092    ....    DCD    2702180498
        0x0000e3e8:    b100b0a2    ....    DCD    2969612450
        0x0000e3ec:    84100102    ....    DCD    2215641346
        0x0000e3f0:    94011185    ....    DCD    2483097989
        0x0000e3f4:    a4800002    ....    DCD    2759852034
        0x0000e3f8:    009010a5    ....    DCD    9441445
        0x0000e3fc:    810193a5    ....    DCD    2164364197
        0x0000e400:    91b09482    ....    DCD    2444268674
        0x0000e404:    008395b2    ....    DCD    8623538
        0x0000e408:    b193a0a2    ....    DCD    2979242146
        0x0000e40c:    02a30100    ....    DCD    44237056
        0x0000e410:    94b31185    ....    DCD    2494763397
        0x0000e414:    0200a1b0    ....    DCD    33595824
        0x0000e418:    b401a201    ....    DCD    3020005889
        0x0000e41c:    000002b5    ....    DCD    693
    .constdata
    g_AM_HAL_GPIO_TRISTATE
        0x0000e420:    00000c03    ....    DCD    3075
    .constdata
    g_AM_HAL_GPIO_OUTPUT
        0x0000e424:    00000403    ....    DCD    1027
    .constdata
    g_am_hal_mcuctrl_flash_size
        0x0000e428:    00004000    .@..    DCD    16384
        0x0000e42c:    00008000    ....    DCD    32768
        0x0000e430:    00010000    ....    DCD    65536
        0x0000e434:    00020000    ....    DCD    131072
        0x0000e438:    00040000    ....    DCD    262144
        0x0000e43c:    00080000    ....    DCD    524288
        0x0000e440:    00100000    ....    DCD    1048576
        0x0000e444:    00200000    .. .    DCD    2097152
        0x0000e448:    00180000    ....    DCD    1572864
        0x0000e44c:    00000000    ....    DCD    0
        0x0000e450:    00000000    ....    DCD    0
        0x0000e454:    00000000    ....    DCD    0
        0x0000e458:    00000000    ....    DCD    0
        0x0000e45c:    00000000    ....    DCD    0
        0x0000e460:    00000000    ....    DCD    0
        0x0000e464:    00000000    ....    DCD    0
    g_am_hal_mcuctrl_sram_size
        0x0000e468:    00004000    .@..    DCD    16384
        0x0000e46c:    00008000    ....    DCD    32768
        0x0000e470:    00010000    ....    DCD    65536
        0x0000e474:    00020000    ....    DCD    131072
        0x0000e478:    00040000    ....    DCD    262144
        0x0000e47c:    00080000    ....    DCD    524288
        0x0000e480:    00100000    ....    DCD    1048576
        0x0000e484:    00060000    ....    DCD    393216
        0x0000e488:    000c0000    ....    DCD    786432
        0x0000e48c:    00000000    ....    DCD    0
        0x0000e490:    00000000    ....    DCD    0
        0x0000e494:    00000000    ....    DCD    0
        0x0000e498:    00000000    ....    DCD    0
        0x0000e49c:    00000000    ....    DCD    0
        0x0000e4a0:    00000000    ....    DCD    0
        0x0000e4a4:    00000000    ....    DCD    0
    .constdata
    g_AM_BSP_GPIO_ITM_SWO
        0x0000e4a8:    00000002    ....    DCD    2
    .constdata
    am_hal_pwrctrl_peripheral_control
        0x0000e4ac:    00000000    ....    DCD    0
        0x0000e4b0:    00000000    ....    DCD    0
        0x0000e4b4:    00000000    ....    DCD    0
        0x0000e4b8:    00000001    ....    DCD    1
        0x0000e4bc:    00000004    ....    DCD    4
        0x0000e4c0:    00000004    ....    DCD    4
        0x0000e4c4:    00000002    ....    DCD    2
        0x0000e4c8:    00000008    ....    DCD    8
        0x0000e4cc:    00000008    ....    DCD    8
        0x0000e4d0:    00000004    ....    DCD    4
        0x0000e4d4:    00000008    ....    DCD    8
        0x0000e4d8:    00000008    ....    DCD    8
        0x0000e4dc:    00000008    ....    DCD    8
        0x0000e4e0:    00000008    ....    DCD    8
        0x0000e4e4:    00000008    ....    DCD    8
        0x0000e4e8:    00000010    ....    DCD    16
        0x0000e4ec:    00000010    ....    DCD    16
        0x0000e4f0:    00000010    ....    DCD    16
        0x0000e4f4:    00000020     ...    DCD    32
        0x0000e4f8:    00000010    ....    DCD    16
        0x0000e4fc:    00000010    ....    DCD    16
        0x0000e500:    00000040    @...    DCD    64
        0x0000e504:    00000010    ....    DCD    16
        0x0000e508:    00000010    ....    DCD    16
        0x0000e50c:    00000080    ....    DCD    128
        0x0000e510:    00000004    ....    DCD    4
        0x0000e514:    00000004    ....    DCD    4
        0x0000e518:    00000100    ....    DCD    256
        0x0000e51c:    00000004    ....    DCD    4
        0x0000e520:    00000004    ....    DCD    4
        0x0000e524:    00000200    ....    DCD    512
        0x0000e528:    00000020     ...    DCD    32
        0x0000e52c:    00000020     ...    DCD    32
        0x0000e530:    00000400    ....    DCD    1024
        0x0000e534:    00000004    ....    DCD    4
        0x0000e538:    00000004    ....    DCD    4
        0x0000e53c:    00000800    ....    DCD    2048
        0x0000e540:    00000040    @...    DCD    64
        0x0000e544:    00000040    @...    DCD    64
        0x0000e548:    00001000    ....    DCD    4096
        0x0000e54c:    00000040    @...    DCD    64
        0x0000e550:    00000040    @...    DCD    64
        0x0000e554:    00002000    . ..    DCD    8192
        0x0000e558:    00000040    @...    DCD    64
        0x0000e55c:    00000040    @...    DCD    64
        0x0000e560:    00004000    .@..    DCD    16384
        0x0000e564:    00000080    ....    DCD    128
        0x0000e568:    00000080    ....    DCD    128
        0x0000e56c:    00008000    ....    DCD    32768
        0x0000e570:    00000100    ....    DCD    256
        0x0000e574:    00000100    ....    DCD    256
    am_hal_pwrctrl_memory_control
        0x0000e578:    00000000    ....    DCD    0
        0x0000e57c:    00000000    ....    DCD    0
        0x0000e580:    00000000    ....    DCD    0
        0x0000e584:    00000000    ....    DCD    0
        0x0000e588:    00000000    ....    DCD    0
        0x0000e58c:    00000000    ....    DCD    0
        0x0000e590:    00000001    ....    DCD    1
        0x0000e594:    00000001    ....    DCD    1
        0x0000e598:    00000001    ....    DCD    1
        0x0000e59c:    00001fff    ....    DCD    8191
        0x0000e5a0:    00001fff    ....    DCD    8191
        0x0000e5a4:    00000001    ....    DCD    1
        0x0000e5a8:    00000003    ....    DCD    3
        0x0000e5ac:    00000003    ....    DCD    3
        0x0000e5b0:    00000003    ....    DCD    3
        0x0000e5b4:    00001fff    ....    DCD    8191
        0x0000e5b8:    00001fff    ....    DCD    8191
        0x0000e5bc:    00000003    ....    DCD    3
        0x0000e5c0:    00000007    ....    DCD    7
        0x0000e5c4:    00000007    ....    DCD    7
        0x0000e5c8:    00000007    ....    DCD    7
        0x0000e5cc:    00001fff    ....    DCD    8191
        0x0000e5d0:    00001fff    ....    DCD    8191
        0x0000e5d4:    00000007    ....    DCD    7
        0x0000e5d8:    0000000f    ....    DCD    15
        0x0000e5dc:    0000000f    ....    DCD    15
        0x0000e5e0:    0000000f    ....    DCD    15
        0x0000e5e4:    00001fff    ....    DCD    8191
        0x0000e5e8:    00001fff    ....    DCD    8191
        0x0000e5ec:    0000000f    ....    DCD    15
        0x0000e5f0:    0000001f    ....    DCD    31
        0x0000e5f4:    0000001f    ....    DCD    31
        0x0000e5f8:    0000001f    ....    DCD    31
        0x0000e5fc:    00001fff    ....    DCD    8191
        0x0000e600:    00001fff    ....    DCD    8191
        0x0000e604:    0000001f    ....    DCD    31
        0x0000e608:    0000003f    ?...    DCD    63
        0x0000e60c:    0000003f    ?...    DCD    63
        0x0000e610:    0000003f    ?...    DCD    63
        0x0000e614:    00001fff    ....    DCD    8191
        0x0000e618:    00001fff    ....    DCD    8191
        0x0000e61c:    0000003f    ?...    DCD    63
        0x0000e620:    0000007f    ....    DCD    127
        0x0000e624:    0000007f    ....    DCD    127
        0x0000e628:    0000007f    ....    DCD    127
        0x0000e62c:    00001fff    ....    DCD    8191
        0x0000e630:    00001fff    ....    DCD    8191
        0x0000e634:    0000007f    ....    DCD    127
        0x0000e638:    000000ff    ....    DCD    255
        0x0000e63c:    000000ff    ....    DCD    255
        0x0000e640:    000000ff    ....    DCD    255
        0x0000e644:    00001fff    ....    DCD    8191
        0x0000e648:    00001fff    ....    DCD    8191
        0x0000e64c:    000000ff    ....    DCD    255
        0x0000e650:    000001ff    ....    DCD    511
        0x0000e654:    000001ff    ....    DCD    511
        0x0000e658:    000001ff    ....    DCD    511
        0x0000e65c:    00001fff    ....    DCD    8191
        0x0000e660:    00001fff    ....    DCD    8191
        0x0000e664:    000001ff    ....    DCD    511
        0x0000e668:    000003ff    ....    DCD    1023
        0x0000e66c:    000003ff    ....    DCD    1023
        0x0000e670:    000003ff    ....    DCD    1023
        0x0000e674:    00001fff    ....    DCD    8191
        0x0000e678:    00001fff    ....    DCD    8191
        0x0000e67c:    000003ff    ....    DCD    1023
        0x0000e680:    000007ff    ....    DCD    2047
        0x0000e684:    000007ff    ....    DCD    2047
        0x0000e688:    000007ff    ....    DCD    2047
        0x0000e68c:    00001fff    ....    DCD    8191
        0x0000e690:    00001fff    ....    DCD    8191
        0x0000e694:    000007ff    ....    DCD    2047
        0x0000e698:    00000fff    ....    DCD    4095
        0x0000e69c:    00000fff    ....    DCD    4095
        0x0000e6a0:    00000fff    ....    DCD    4095
        0x0000e6a4:    00001fff    ....    DCD    8191
        0x0000e6a8:    00001fff    ....    DCD    8191
        0x0000e6ac:    00000fff    ....    DCD    4095
        0x0000e6b0:    00001fff    ....    DCD    8191
        0x0000e6b4:    00001fff    ....    DCD    8191
        0x0000e6b8:    00001fff    ....    DCD    8191
        0x0000e6bc:    00001fff    ....    DCD    8191
        0x0000e6c0:    00001fff    ....    DCD    8191
        0x0000e6c4:    00001fff    ....    DCD    8191
        0x0000e6c8:    00002000    . ..    DCD    8192
        0x0000e6cc:    00002000    . ..    DCD    8192
        0x0000e6d0:    00002000    . ..    DCD    8192
        0x0000e6d4:    00006000    .`..    DCD    24576
        0x0000e6d8:    00006000    .`..    DCD    24576
        0x0000e6dc:    00002000    . ..    DCD    8192
        0x0000e6e0:    00006000    .`..    DCD    24576
        0x0000e6e4:    00006000    .`..    DCD    24576
        0x0000e6e8:    00006000    .`..    DCD    24576
        0x0000e6ec:    00006000    .`..    DCD    24576
        0x0000e6f0:    00006000    .`..    DCD    24576
        0x0000e6f4:    00006000    .`..    DCD    24576
        0x0000e6f8:    c0000000    ....    DCD    3221225472
        0x0000e6fc:    00000000    ....    DCD    0
        0x0000e700:    c0000000    ....    DCD    3221225472
        0x0000e704:    c0000000    ....    DCD    3221225472
        0x0000e708:    00000000    ....    DCD    0
        0x0000e70c:    80000000    ....    DCD    2147483648
        0x0000e710:    c0007fff    ....    DCD    3221258239
        0x0000e714:    00007fff    ....    DCD    32767
        0x0000e718:    c0007fff    ....    DCD    3221258239
        0x0000e71c:    c0007fff    ....    DCD    3221258239
        0x0000e720:    00007fff    ....    DCD    32767
        0x0000e724:    80007fff    ....    DCD    2147516415
    .conststring
        0x0000e728:    20656854    The     DCD    543516756
        0x0000e72c:    6d695453    STim    DCD    1835619411
        0x0000e730:    77207265    er w    DCD    1998615141
        0x0000e734:    206c6c69    ill     DCD    543976553
        0x0000e738:    656b6177    wake    DCD    1701536119
        0x0000e73c:    6f626120     abo    DCD    1868718368
        0x0000e740:    65207475    ut e    DCD    1696625781
        0x0000e744:    79726576    very    DCD    2037540214
        0x0000e748:    20733120     1s     DCD    544420128
        0x0000e74c:    77206f74    to w    DCD    1998614388
        0x0000e750:    206b6c61    alk     DCD    543911009
        0x0000e754:    20656874    the     DCD    543516788
        0x0000e758:    7344454c    LEDs    DCD    1933854028
        0x0000e75c:    206e6f20     on     DCD    544108320
        0x0000e760:    20656874    the     DCD    543516788
        0x0000e764:    2e425645    EVB.    DCD    776099397
        0x0000e768:    0000000a    ....    DCD    10
    Region$$Table$$Base
        0x0000e76c:    0000e79c    ....    DCD    59292
        0x0000e770:    10011000    ....    DCD    268505088
        0x0000e774:    00000074    t...    DCD    116
        0x0000e778:    0000c174    t...    DCD    49524
        0x0000e77c:    0000e810    ....    DCD    59408
        0x0000e780:    10011074    t...    DCD    268505204
        0x0000e784:    00000964    d...    DCD    2404
        0x0000e788:    0000c190    ....    DCD    49552
        0x0000e78c:    0000e810    ....    DCD    59408
        0x0000e790:    10010000    ....    DCD    268500992
        0x0000e794:    00001000    ....    DCD    4096
        0x0000e798:    0000c190    ....    DCD    49552
    Region$$Table$$Limit

** Section #2 'RWMEM' (SHT_PROGBITS) [SHF_ALLOC + SHF_WRITE]
    Size   : 116 bytes (alignment 4)
    Address: 0x10011000

    0x10011000:   00 00 00 00 00 00 00 00 00 00 00 00 00 00 00 00    ................
    0x10011010:   00 00 00 00 00 00 00 00 0a 00 00 00 03 00 00 00    ................
    0x10011020:   1e 00 00 00 03 00 00 00 0f 00 00 00 03 00 00 00    ................
    0x10011030:   0e 00 00 00 03 00 00 00 11 00 00 00 03 00 00 00    ................
    0x10011040:   00 c2 01 00 60 00 00 00 00 00 00 00 00 00 00 00    ....`...........
    0x10011050:   00 00 00 00 12 00 00 00 74 11 01 10 00 04 00 00    ........t.......
    0x10011060:   74 15 01 10 00 04 00 00 00 00 00 00 00 00 00 00    t...............
    0x10011070:   00 00 00 00                                        ....


** Section #3 'RWMEM' (SHT_NOBITS) [SHF_ALLOC + SHF_WRITE]
    Size   : 2404 bytes (alignment 8)
    Address: 0x10011074


** Section #4 'STACKMEM' (SHT_NOBITS) [SHF_ALLOC + SHF_WRITE]
    Size   : 4096 bytes (alignment 8)
    Address: 0x10010000


** Section #5 '.debug_abbrev' (SHT_PROGBITS)
    Size   : 1476 bytes


** Section #6 '.debug_frame' (SHT_PROGBITS)
    Size   : 3328 bytes


** Section #7 '.debug_info' (SHT_PROGBITS)
    Size   : 308924 bytes


** Section #8 '.debug_line' (SHT_PROGBITS)
    Size   : 6036 bytes


** Section #9 '.debug_loc' (SHT_PROGBITS)
    Size   : 2576 bytes


** Section #10 '.debug_macinfo' (SHT_PROGBITS)
    Size   : 248044 bytes


** Section #11 '.debug_pubnames' (SHT_PROGBITS)
    Size   : 671 bytes


** Section #12 '.symtab' (SHT_SYMTAB)
    Size   : 9184 bytes (alignment 4)
    String table #13 '.strtab'
    Last local symbol no. 381

    Symbol table .symtab (573 symbols, 381 local)

      #  Symbol Name                Value      Bind  Sec  Type  Vis  Size
    ========================================================================

      1  $d                         0x0000c000   Lc    1   --   De 
      2  $t                         0x0000c100   Lc    1   --   De 
      3  $d                         0x0000c132   Lc    1   --   De 
      4  $t                         0x0000c138   Lc    1   --   De 
      5  $d                         0x0000c16c   Lc    1   --   De 
      6  $t                         0x0000c174   Lc    1   --   De 
      7  $d                         0x0000c21e   Lc    1   --   De 
      8  $t                         0x0000c22c   Lc    1   --   De 
      9  $d                         0x0000c2e0   Lc    1   --   De 
     10  $t                         0x0000c2e4   Lc    1   --   De 
     11  $d                         0x0000c2ec   Lc    1   --   De 
     12  $t                         0x0000c2f0   Lc    1   --   De 
     13  $d                         0x0000c34c   Lc    1   --   De 
     14  $t                         0x0000c354   Lc    1   --   De 
     15  $d                         0x0000c380   Lc    1   --   De 
     16  $t                         0x0000c390   Lc    1   --   De 
     17  $d                         0x0000c3ca   Lc    1   --   De 
     18  $t                         0x0000c3d4   Lc    1   --   De 
     19  $d                         0x0000c484   Lc    1   --   De 
     20  $t                         0x0000c48c   Lc    1   --   De 
     21  $d                         0x0000c56c   Lc    1   --   De 
     22  $t                         0x0000c574   Lc    1   --   De 
     23  $d                         0x0000c5cc   Lc    1   --   De 
     24  $t                         0x0000c5d4   Lc    1   --   De 
     25  $d                         0x0000c61a   Lc    1   --   De 
     26  $t                         0x0000c620   Lc    1   --   De 
     27  $d                         0x0000c62c   Lc    1   --   De 
     28  $t                         0x0000c63e   Lc    1   --   De 
     29  $d                         0x0000c9c4   Lc    1   --   De 
     30  $t                         0x0000c9cc   Lc    1   --   De 
     31  $d                         0x0000c9da   Lc    1   --   De 
     32  $t                         0x0000c9e0   Lc    1   --   De 
     33  $d                         0x0000c9f8   Lc    1   --   De 
     34  $t                         0x0000ca02   Lc    1   --   De 
     35  $d                         0x0000cacc   Lc    1   --   De 
     36  $t                         0x0000cadc   Lc    1   --   De 
     37  $d                         0x0000cb08   Lc    1   --   De 
     38  $t                         0x0000cb10   Lc    1   --   De 
     39  $d                         0x0000cb2e   Lc    1   --   De 
     40  $t                         0x0000cb34   Lc    1   --   De 
     41  $d                         0x0000cb8a   Lc    1   --   De 
     42  $t                         0x0000cb90   Lc    1   --   De 
     43  $d                         0x0000cb94   Lc    1   --   De 
     44  $t                         0x0000cb98   Lc    1   --   De 
     45  $d                         0x0000cbbc   Lc    1   --   De 
     46  $t                         0x0000cbc0   Lc    1   --   De 
     47  $d                         0x0000ce0a   Lc    1   --   De 
     48  $t                         0x0000ce40   Lc    1   --   De 
     49  $d                         0x0000ce7e   Lc    1   --   De 
     50  $t                         0x0000ce84   Lc    1   --   De 
     51  $d                         0x0000cf48   Lc    1   --   De 
     52  $t                         0x0000cf6c   Lc    1   --   De 
     53  $d                         0x0000cf98   Lc    1   --   De 
     54  $t                         0x0000cfb4   Lc    1   --   De 
     55  $d                         0x0000d0fa   Lc    1   --   De 
     56  $t                         0x0000d11c   Lc    1   --   De 
     57  $d                         0x0000d264   Lc    1   --   De 
     58  $t                         0x0000d27c   Lc    1   --   De 
     59  $d                         0x0000d2c2   Lc    1   --   De 
     60  $t                         0x0000d2cc   Lc    1   --   De 
     61  $d                         0x0000d314   Lc    1   --   De 
     62  $t                         0x0000d31c   Lc    1   --   De 
     63  $d                         0x0000d3d6   Lc    1   --   De 
     64  $t                         0x0000d3dc   Lc    1   --   De 
     65  $d                         0x0000d3ea   Lc    1   --   De 
     66  $t                         0x0000d3f0   Lc    1   --   De 
     67  $d                         0x0000d3f8   Lc    1   --   De 
     68  $t                         0x0000d3fc   Lc    1   --   De 
     69  $d                         0x0000d40a   Lc    1   --   De 
     70  $t                         0x0000d410   Lc    1   --   De 
     71  $d                         0x0000d494   Lc    1   --   De 
     72  $t                         0x0000d4ac   Lc    1   --   De 
     73  $d                         0x0000d526   Lc    1   --   De 
     74  $t                         0x0000d53c   Lc    1   --   De 
     75  $d                         0x0000d566   Lc    1   --   De 
     76  $t                         0x0000d56c   Lc    1   --   De 
     77  $d                         0x0000d654   Lc    1   --   De 
     78  $t                         0x0000d658   Lc    1   --   De 
     79  $d                         0x0000d6b0   Lc    1   --   De 
     80  $t                         0x0000d6b4   Lc    1   --   De 
     81  $d                         0x0000d6f0   Lc    1   --   De 
     82  $t                         0x0000d6f8   Lc    1   --   De 
     83  $d                         0x0000d7cc   Lc    1   --   De 
     84  $t                         0x0000d7d0   Lc    1   --   De 
     85  $d                         0x0000d802   Lc    1   --   De 
     86  $t                         0x0000d80c   Lc    1   --   De 
     87  $d                         0x0000d812   Lc    1   --   De 
     88  $t                         0x0000d818   Lc    1   --   De 
     89  $d                         0x0000d822   Lc    1   --   De 
     90  $t                         0x0000d838   Lc    1   --   De 
     91  $d                         0x0000dbdc   Lc    1   --   De 
     92  $t                         0x0000dbec   Lc    1   --   De 
     93  $d                         0x0000de6e   Lc    1   --   De 
     94  $t                         0x0000de74   Lc    1   --   De 
     95  $d                         0x0000dec2   Lc    1   --   De 
     96  $t                         0x0000dee0   Lc    1   --   De 
     97  $d                         0x0000e140   Lc    1   --   De 
     98  $t                         0x0000e144   Lc    1   --   De 
     99  $d                         0x0000e1c2   Lc    1   --   De 
    100  $t                         0x0000e1c6   Lc    1   --   De 
    101  $d.realdata                0x0000e202   Lc    1   --   De 
    102  $d.realdata                0x10011000   Lc    2   --   De 
    103  $d.realdata                0x10010000   Lc    4   --   De 
    104  ..\src\stimer.c            0x00000000   Lc  Abs  File  De 
    105  ../src/stimer.c            0x00000000   Lc  Abs  File  De 
    106  i.am_stimer_cmpr0_isr      0x0000d6b4   Lc    1  Sect  De 
    107  i.main                     0x0000de74   Lc    1  Sect  De 
    108  i.stimer_init              0x0000dfac   Lc    1  Sect  De 
    109  .conststring               0x0000e728   Lc    1  Sect  De   0x42
    110  .data                      0x10011000   Lc    2  Sect  De   0x4
    111  g_ui32Count                0x10011000   Lc    2  Data  De   0x4
    112  ..\..\..\..\..\devices\am_devices_led.c
                                    0x00000000   Lc  Abs  File  De 
    113  ../../../../../devices/am_devices_led.c
                                    0x00000000   Lc  Abs  File  De 
    114  i.am_devices_led_array_init
                                    0x0000c3d4   Lc    1  Sect  De 
    115  i.am_devices_led_array_out 0x0000c3f8   Lc    1  Sect  De 
    116  i.am_devices_led_init      0x0000c42c   Lc    1  Sect  De 
    117  i.am_devices_led_off       0x0000c48c   Lc    1  Sect  De 
    118  i.am_devices_led_on        0x0000c4d4   Lc    1  Sect  De 
    119  ..\..\..\..\..\utils\am_util_delay.c
                                    0x00000000   Lc  Abs  File  De 
    120  ../../../../../utils/am_util_delay.c
                                    0x00000000   Lc  Abs  File  De 
    121  i.am_util_delay_ms         0x0000d6f8   Lc    1  Sect  De 
    122  ..\..\..\..\..\utils\am_util_faultisr.c
                                    0x00000000   Lc  Abs  File  De 
    123  .emb_text                  0x0000c1d8   Lc    1  Sect  De   0x22
    124  $v0                        0x0000c1d8   Lc    1   --   De 
    125  ../../../../../utils/am_util_faultisr.c
                                    0x00000000   Lc  Abs  File  De 
    126  i.am_util_faultisr_collect_data
                                    0x0000d718   Lc    1  Sect  De 
    127  ../../../../../utils/am_util_stdio.c
                                    0x00000000   Lc  Abs  File  De 
    128  i.am_util_stdio_printf     0x0000d7d0   Lc    1  Sect  De 
    129  i.am_util_stdio_printf_init
                                    0x0000d80c   Lc    1  Sect  De 
    130  i.am_util_stdio_terminal_clear
                                    0x0000d818   Lc    1  Sect  De 
    131  i.am_util_stdio_vsprintf   0x0000d838   Lc    1  Sect  De 
    132  i.decstr_to_int            0x0000dbec   Lc    1  Sect  De 
    133  decstr_to_int              0x0000dbed   Lc    1  Code  De   0x42
    134  i.divu64_10                0x0000dc2e   Lc    1  Sect  De 
    135  divu64_10                  0x0000dc2f   Lc    1  Code  De   0xcc
    136  i.ftoa                     0x0000dcfc   Lc    1  Sect  De 
    137  ftoa                       0x0000dcfd   Lc    1  Code  De   0x172
    138  i.ndigits_in_hex           0x0000dee0   Lc    1  Sect  De 
    139  ndigits_in_hex             0x0000dee1   Lc    1  Code  De   0x34
    140  i.ndigits_in_i64           0x0000df14   Lc    1  Sect  De 
    141  ndigits_in_i64             0x0000df15   Lc    1  Code  De   0x24
    142  i.ndigits_in_u64           0x0000df38   Lc    1  Sect  De 
    143  ndigits_in_u64             0x0000df39   Lc    1  Code  De   0x3a
    144  i.padbuffer                0x0000df72   Lc    1  Sect  De 
    145  padbuffer                  0x0000df73   Lc    1  Code  De   0x22
    146  i.simple_strlen            0x0000df94   Lc    1  Sect  De 
    147  simple_strlen              0x0000df95   Lc    1  Code  De   0x18
    148  i.uint64_to_hexstr         0x0000dff4   Lc    1  Sect  De 
    149  uint64_to_hexstr           0x0000dff5   Lc    1  Code  De   0x8a
    150  i.uint64_to_str            0x0000e07e   Lc    1  Sect  De 
    151  uint64_to_str              0x0000e07f   Lc    1  Code  De   0x70
    152  .bss                       0x10011074   Lc    3  Sect  De   0x100
    153  g_prfbuf                   0x10011074   Lc    3  Data  De   0x100
    154  .data                      0x10011004   Lc    2  Sect  De   0x5
    155  g_bTxtXlate                0x10011008   Lc    2  Data  De   0x1
    156  ../keil/startup_keil.s     0x00000000   Lc  Abs  File  De 
    157  STACK                      0x10010000   Lc    4  Sect  De   0x1000
    158  StackMem                   0x10010000   Lc    4  Data  De 
    159  HEAP                       0x100119d8   Lc    3  Sect  De 
    160  HeapMem                    0x100119d8   Lc    3  Data  De 
    161  RESET                      0x0000c000   Lc    1  Sect  De   0x138
    162  $v0                        0x0000c100   Lc    1   --   De 
    163  .text                      0x0000c214   Lc    1  Sect  De   0x18
    164  $v0                        0x0000c214   Lc    1   --   De 
    165  ..\am_hal_global.c         0x00000000   Lc  Abs  File  De 
    166  ../am_hal_global.c         0x00000000   Lc  Abs  File  De 
    167  .data                      0x1001100c   Lc    2  Sect  De   0x4
    168  ..\am_bsp.c                0x00000000   Lc  Abs  File  De 
    169  ../am_bsp.c                0x00000000   Lc  Abs  File  De 
    170  i.am_bsp_debug_printf_disable
                                    0x0000c2f4   Lc    1  Sect  De 
    171  i.am_bsp_itm_printf_enable 0x0000c354   Lc    1  Sect  De 
    172  i.am_bsp_low_power_init    0x0000c390   Lc    1  Sect  De 
    173  .bss                       0x10011174   Lc    3  Sect  De   0x400
    174  pui8UartTxBuffer           0x10011174   Lc    3  Data  De   0x400
    175  .bss                       0x10011574   Lc    3  Sect  De   0x400
    176  pui8UartRxBuffer           0x10011574   Lc    3  Data  De   0x400
    177  .data                      0x10011010   Lc    2  Sect  De   0x58
    178  g_ui32PrintInterface       0x10011010   Lc    2  Data  De   0x4
    179  g_sCOMUART                 0x10011014   Lc    2  Data  De   0x4
    180  g_sBspUartBufferedConfig   0x10011040   Lc    2  Data  De   0x28
    181  ..\am_hal_cachectrl.c      0x00000000   Lc  Abs  File  De 
    182  ../am_hal_cachectrl.c      0x00000000   Lc  Abs  File  De 
    183  i.am_hal_cachectrl_config  0x0000c5d4   Lc    1  Sect  De 
    184  i.am_hal_cachectrl_control 0x0000c620   Lc    1  Sect  De 
    185  i.am_hal_cachectrl_enable  0x0000c9cc   Lc    1  Sect  De 
    186  .constdata                 0x0000e202   Lc    1  Sect  De   0x3
    187  ..\am_hal_clkgen.c         0x00000000   Lc  Abs  File  De 
    188  ../am_hal_clkgen.c         0x00000000   Lc  Abs  File  De 
    189  i.am_hal_clkgen_control    0x0000c9e0   Lc    1  Sect  De 
    190  i.am_hal_clkgen_status_get 0x0000cadc   Lc    1  Sect  De 
    191  ..\am_hal_flash.c          0x00000000   Lc  Abs  File  De 
    192  ../am_hal_flash.c          0x00000000   Lc  Abs  File  De 
    193  i.am_hal_flash_delay       0x0000cb10   Lc    1  Sect  De 
    194  i.am_hal_flash_delay_status_check
                                    0x0000cb34   Lc    1  Sect  De 
    195  i.am_hal_flash_load_ui32   0x0000cb90   Lc    1  Sect  De 
    196  i.am_hal_flash_store_ui32  0x0000cb98   Lc    1  Sect  De 
    197  .constdata                 0x0000e208   Lc    1  Sect  De   0xc
    198  ..\am_hal_gpio.c           0x00000000   Lc  Abs  File  De 
    199  ../am_hal_gpio.c           0x00000000   Lc  Abs  File  De 
    200  i.am_hal_gpio_pinconfig    0x0000cbc0   Lc    1  Sect  De 
    201  i.am_hal_gpio_state_write  0x0000ce40   Lc    1  Sect  De 
    202  .constdata                 0x0000e214   Lc    1  Sect  De   0x20a
    203  g_ui8Inpen                 0x0000e218   Lc    1  Data  De   0x4a
    204  g_ui8Bit76Capabilities     0x0000e262   Lc    1  Data  De   0x4a
    205  g_ui8nCEpins               0x0000e2ac   Lc    1  Data  De   0x4a
    206  g_ui8NCEtable              0x0000e2f6   Lc    1  Data  De   0x128
    207  .constdata                 0x0000e420   Lc    1  Sect  De   0x4
    208  .constdata                 0x0000e424   Lc    1  Sect  De   0x4
    209  ..\am_hal_interrupt.c      0x00000000   Lc  Abs  File  De 
    210  .emb_text                  0x0000c1fc   Lc    1  Sect  De   0x16
    211  $v0                        0x0000c1fc   Lc    1   --   De 
    212  ../am_hal_interrupt.c      0x00000000   Lc  Abs  File  De 
    213  ..\am_hal_mcuctrl.c        0x00000000   Lc  Abs  File  De 
    214  ../am_hal_mcuctrl.c        0x00000000   Lc  Abs  File  De 
    215  i.am_hal_mcuctrl_info_get  0x0000cfe4   Lc    1  Sect  De 
    216  .constdata                 0x0000e428   Lc    1  Sect  De   0x80
    217  ..\am_hal_stimer.c         0x00000000   Lc  Abs  File  De 
    218  ../am_hal_stimer.c         0x00000000   Lc  Abs  File  De 
    219  i.am_hal_stimer_compare_delta_set
                                    0x0000d330   Lc    1  Sect  De 
    220  i.am_hal_stimer_config     0x0000d3dc   Lc    1  Sect  De 
    221  i.am_hal_stimer_int_clear  0x0000d3f0   Lc    1  Sect  De 
    222  i.am_hal_stimer_int_enable 0x0000d3fc   Lc    1  Sect  De 
    223  ..\am_hal_sysctrl.c        0x00000000   Lc  Abs  File  De 
    224  ../am_hal_sysctrl.c        0x00000000   Lc  Abs  File  De 
    225  i.am_hal_sysctrl_sleep     0x0000d410   Lc    1  Sect  De 
    226  .data                      0x10011068   Lc    2  Sect  De   0x4
    227  g_ui32BusWriteFlush        0x10011068   Lc    2  Data  De   0x4
    228  ..\am_bsp_pins.c           0x00000000   Lc  Abs  File  De 
    229  ../am_bsp_pins.c           0x00000000   Lc  Abs  File  De 
    230  .constdata                 0x0000e4a8   Lc    1  Sect  De   0x4
    231  ..\am_hal_burst.c          0x00000000   Lc  Abs  File  De 
    232  ../am_hal_burst.c          0x00000000   Lc  Abs  File  De 
    233  i.am_hal_burst_mode_disable
                                    0x0000c518   Lc    1  Sect  De 
    234  i.am_hal_burst_mode_enable 0x0000c574   Lc    1  Sect  De 
    235  .data                      0x1001106c   Lc    2  Sect  De   0x1
    236  ..\am_hal_itm.c            0x00000000   Lc  Abs  File  De 
    237  ../am_hal_itm.c            0x00000000   Lc  Abs  File  De 
    238  i.am_hal_itm_disable       0x0000cec0   Lc    1  Sect  De 
    239  i.am_hal_itm_enable        0x0000cf6c   Lc    1  Sect  De 
    240  i.am_hal_itm_print         0x0000cfb4   Lc    1  Sect  De 
    241  ..\am_hal_pwrctrl.c        0x00000000   Lc  Abs  File  De 
    242  ../am_hal_pwrctrl.c        0x00000000   Lc  Abs  File  De 
    243  i.am_hal_pwrctrl_low_power_init
                                    0x0000d11c   Lc    1  Sect  De 
    244  i.am_hal_pwrctrl_periph_disable
                                    0x0000d27c   Lc    1  Sect  De 
    245  i.am_hal_pwrctrl_periph_enable
                                    0x0000d2cc   Lc    1  Sect  De 
    246  .constdata                 0x0000e4ac   Lc    1  Sect  De   0x27c
    247  .data                      0x1001106d   Lc    2  Sect  De   0x1
    248  ..\am_hal_reset.c          0x00000000   Lc  Abs  File  De 
    249  ../am_hal_reset.c          0x00000000   Lc  Abs  File  De 
    250  .data                      0x10011070   Lc    2  Sect  De   0x4
    251  ..\am_hal_rtc.c            0x00000000   Lc  Abs  File  De 
    252  ../am_hal_rtc.c            0x00000000   Lc  Abs  File  De 
    253  i.am_hal_rtc_osc_disable   0x0000d31c   Lc    1  Sect  De 
    254  ..\am_hal_tpiu.c           0x00000000   Lc  Abs  File  De 
    255  ../am_hal_tpiu.c           0x00000000   Lc  Abs  File  De 
    256  i.am_hal_tpiu_enable       0x0000d4ac   Lc    1  Sect  De 
    257  ..\am_hal_uart.c           0x00000000   Lc  Abs  File  De 
    258  ../am_hal_uart.c           0x00000000   Lc  Abs  File  De 
    259  i.am_hal_uart_deinitialize 0x0000d53c   Lc    1  Sect  De 
    260  i.am_hal_uart_power_control
                                    0x0000d56c   Lc    1  Sect  De 
    261  i.am_hal_uart_tx_flush     0x0000d658   Lc    1  Sect  De 
    262  ..\am_hal_queue.c          0x00000000   Lc  Abs  File  De 
    263  ../am_hal_queue.c          0x00000000   Lc  Abs  File  De 
    264  dc.s                       0x00000000   Lc  Abs  File  De 
    265  ../clib/longlong.s         0x00000000   Lc  Abs  File  De 
    266  ../clib/memcpset.s         0x00000000   Lc  Abs  File  De 
    267  .text                      0x0000c22c   Lc    1  Sect  De   0x4e
    268  ../clib/heapaux.c          0x00000000   Lc  Abs  File  De 
    269  .text                      0x0000c27a   Lc    1  Sect  De 
    270  ../clib/angel/startup.s    0x00000000   Lc  Abs  File  De 
    271  !!!main                    0x0000c138   Lc    1  Sect  De   0x8
    272  ../fplib/d2f.s             0x00000000   Lc  Abs  File  De 
    273  x$fpl$d2f                  0x0000e0f0   Lc    1  Sect  De   0x62
    274  $v0                        0x0000e0f0   Lc    1   --   De 
    275  ../clib/angel/kernel.s     0x00000000   Lc  Abs  File  De 
    276  .ARM.Collect$$rtentry$$00000000
                                    0x0000c1b8   Lc    1  Sect  De 
    277  ../fplib/dnaninf.s         0x00000000   Lc  Abs  File  De 
    278  x$fpl$dnaninf              0x0000e152   Lc    1  Sect  De   0x9c
    279  $v0                        0x0000e152   Lc    1   --   De 
    280  ../fplib/fretinf.s         0x00000000   Lc  Abs  File  De 
    281  x$fpl$fretinf              0x0000e1f8   Lc    1  Sect  De   0xa
    282  $v0                        0x0000e1f8   Lc    1   --   De 
    283  ../fplib/usenofp.s         0x00000000   Lc  Abs  File  De 
    284  x$fpl$usenofp              0x0000e202   Lc    1  Sect  De 
    285  ../clib/angel/kernel.s     0x00000000   Lc  Abs  File  De 
    286  .ARM.Collect$$rtentry$$00000002
                                    0x0000c1b8   Lc    1  Sect  De 
    287  .ARM.Collect$$rtentry$$00000009
                                    0x0000c1be   Lc    1  Sect  De 
    288  .ARM.Collect$$rtentry$$0000000A
                                    0x0000c1be   Lc    1  Sect  De   0x4
    289  .ARM.Collect$$rtentry$$0000000C
                                    0x0000c1c2   Lc    1  Sect  De 
    290  .ARM.Collect$$rtentry$$0000000D
                                    0x0000c1c2   Lc    1  Sect  De   0x8
    291  ../clib/angel/kernel.s     0x00000000   Lc  Abs  File  De 
    292  .ARM.Collect$$rtentry$$00000004
                                    0x0000c1b8   Lc    1  Sect  De   0x6
    293  ../clib/angel/sys.s        0x00000000   Lc  Abs  File  De 
    294  .text                      0x0000c280   Lc    1  Sect  De   0x4a
    295  ../clib/stdlib.c           0x00000000   Lc  Abs  File  De 
    296  .text                      0x0000c2ca   Lc    1  Sect  De 
    297  ../clib/angel/boardlib.s   0x00000000   Lc  Abs  File  De 
    298  ../clib/angel/boardlib.s   0x00000000   Lc  Abs  File  De 
    299  ../clib/angel/boardlib.s   0x00000000   Lc  Abs  File  De 
    300  ../clib/libinit.s          0x00000000   Lc  Abs  File  De 
    301  .ARM.Collect$$libinit$$00000000
                                    0x0000c1ac   Lc    1  Sect  De   0x2
    302  ../clib/angel/sys.s        0x00000000   Lc  Abs  File  De 
    303  .text                      0x0000c2dc   Lc    1  Sect  De   0x8
    304  .bss                       0x10011974   Lc    3  Sect  De   0x60
    305  ../clib/angel/kernel.s     0x00000000   Lc  Abs  File  De 
    306  .ARM.Collect$$rtexit$$00000000
                                    0x0000c1ca   Lc    1  Sect  De   0x2
    307  ../clib/libinit.s          0x00000000   Lc  Abs  File  De 
    308  .ARM.Collect$$libinit$$00000001
                                    0x0000c1ae   Lc    1  Sect  De   0x4
    309  .ARM.Collect$$libinit$$00000004
                                    0x0000c1b2   Lc    1  Sect  De 
    310  .ARM.Collect$$libinit$$0000000A
                                    0x0000c1b2   Lc    1  Sect  De 
    311  .ARM.Collect$$libinit$$0000000C
                                    0x0000c1b2   Lc    1  Sect  De 
    312  .ARM.Collect$$libinit$$0000000E
                                    0x0000c1b2   Lc    1  Sect  De 
    313  .ARM.Collect$$libinit$$00000011
                                    0x0000c1b2   Lc    1  Sect  De 
    314  .ARM.Collect$$libinit$$00000013
                                    0x0000c1b2   Lc    1  Sect  De 
    315  .ARM.Collect$$libinit$$00000015
                                    0x0000c1b2   Lc    1  Sect  De 
    316  .ARM.Collect$$libinit$$00000017
                                    0x0000c1b2   Lc    1  Sect  De 
    317  .ARM.Collect$$libinit$$00000019
                                    0x0000c1b2   Lc    1  Sect  De 
    318  .ARM.Collect$$libinit$$0000001B
                                    0x0000c1b2   Lc    1  Sect  De 
    319  .ARM.Collect$$libinit$$0000001D
                                    0x0000c1b2   Lc    1  Sect  De 
    320  .ARM.Collect$$libinit$$0000001F
                                    0x0000c1b2   Lc    1  Sect  De 
    321  .ARM.Collect$$libinit$$00000021
                                    0x0000c1b2   Lc    1  Sect  De 
    322  .ARM.Collect$$libinit$$00000023
                                    0x0000c1b2   Lc    1  Sect  De 
    323  .ARM.Collect$$libinit$$00000025
                                    0x0000c1b2   Lc    1  Sect  De 
    324  .ARM.Collect$$libinit$$0000002C
                                    0x0000c1b2   Lc    1  Sect  De 
    325  .ARM.Collect$$libinit$$0000002E
                                    0x0000c1b2   Lc    1  Sect  De 
    326  .ARM.Collect$$libinit$$00000030
                                    0x0000c1b2   Lc    1  Sect  De 
    327  .ARM.Collect$$libinit$$00000032
                                    0x0000c1b2   Lc    1  Sect  De 
    328  .ARM.Collect$$libinit$$00000033
                                    0x0000c1b2   Lc    1  Sect  De   0x2
    329  ../clib/angel/kernel.s     0x00000000   Lc  Abs  File  De 
    330  .ARM.Collect$$rtexit$$00000002
                                    0x0000c1cc   Lc    1  Sect  De 
    331  .ARM.Collect$$rtexit$$00000003
                                    0x0000c1cc   Lc    1  Sect  De   0x4
    332  .ARM.Collect$$rtexit$$00000004
                                    0x0000c1d0   Lc    1  Sect  De   0x6
    333  ../clib/armsys.c           0x00000000   Lc  Abs  File  De 
    334  ../clib/armsys.c           0x00000000   Lc  Abs  File  De 
    335  ../fplib/fpinit.s          0x00000000   Lc  Abs  File  De 
    336  x$fpl$fpinit               0x0000e1ee   Lc    1  Sect  De   0xa
    337  $v0                        0x0000e1ee   Lc    1   --   De 
    338  ../clib/angel/sysapp.c     0x00000000   Lc  Abs  File  De 
    339  .text                      0x0000c2e4   Lc    1  Sect  De 
    340  ../clib/angel/boardlib.s   0x00000000   Lc  Abs  File  De 
    341  ../clib/armsys.c           0x00000000   Lc  Abs  File  De 
    342  ../clib/armsys.c           0x00000000   Lc  Abs  File  De 
    343  ../clib/libinit.s          0x00000000   Lc  Abs  File  De 
    344  .ARM.Collect$$libshutdown$$00000000
                                    0x0000c1b4   Lc    1  Sect  De   0x2
    345  ../clib/angel/sysapp.c     0x00000000   Lc  Abs  File  De 
    346  ../clib/angel/sys.s        0x00000000   Lc  Abs  File  De 
    347  .text                      0x0000c2f0   Lc    1  Sect  De   0x2
    348  ../clib/angel/sys.s        0x00000000   Lc  Abs  File  De 
    349  .text                      0x0000c2f2   Lc    1  Sect  De 
    350  ../clib/heapalloc.c        0x00000000   Lc  Abs  File  De 
    351  ../clib/signal.c           0x00000000   Lc  Abs  File  De 
    352  ../clib/signal.c           0x00000000   Lc  Abs  File  De 
    353  ../clib/libinit.s          0x00000000   Lc  Abs  File  De 
    354  .ARM.Collect$$libshutdown$$00000002
                                    0x0000c1b6   Lc    1  Sect  De 
    355  .ARM.Collect$$libshutdown$$00000004
                                    0x0000c1b6   Lc    1  Sect  De 
    356  .ARM.Collect$$libshutdown$$00000007
                                    0x0000c1b6   Lc    1  Sect  De 
    357  .ARM.Collect$$libshutdown$$0000000A
                                    0x0000c1b6   Lc    1  Sect  De 
    358  .ARM.Collect$$libshutdown$$0000000C
                                    0x0000c1b6   Lc    1  Sect  De 
    359  .ARM.Collect$$libshutdown$$0000000F
                                    0x0000c1b6   Lc    1  Sect  De 
    360  .ARM.Collect$$libshutdown$$00000010
                                    0x0000c1b6   Lc    1  Sect  De   0x2
    361  ../clib/angel/rt.s         0x00000000   Lc  Abs  File  De 
    362  ../clib/signal.c           0x00000000   Lc  Abs  File  De 
    363  ../clib/signal.c           0x00000000   Lc  Abs  File  De 
    364  ../clib/signal.c           0x00000000   Lc  Abs  File  De 
    365  ../clib/signal.c           0x00000000   Lc  Abs  File  De 
    366  ../clib/angel/sysapp.c     0x00000000   Lc  Abs  File  De 
    367  ../clib/signal.s           0x00000000   Lc  Abs  File  De 
    368  ../clib/signal.c           0x00000000   Lc  Abs  File  De 
    369  ../clib/signal.c           0x00000000   Lc  Abs  File  De 
    370  ../clib/signal.c           0x00000000   Lc  Abs  File  De 
    371  ../clib/signal.c           0x00000000   Lc  Abs  File  De 
    372  ../clib/signal.c           0x00000000   Lc  Abs  File  De 
    373  ../clib/signal.c           0x00000000   Lc  Abs  File  De 
    374  ../clib/signal.c           0x00000000   Lc  Abs  File  De 
    375  ../clib/signal.c           0x00000000   Lc  Abs  File  De 
    376  ../clib/angel/scatter.s    0x00000000   Lc  Abs  File  De 
    377  !!!scatter                 0x0000c140   Lc    1  Sect  De   0x34
    378  ../clib/angel/handlers.s   0x00000000   Lc  Abs  File  De 
    379  !!handler_copy             0x0000c174   Lc    1  Sect  De   0x1a
    380  ../clib/angel/handlers.s   0x00000000   Lc  Abs  File  De 
    381  !!handler_zi               0x0000c190   Lc    1  Sect  De   0x1c
    382  BuildAttributes$$THM_ISAv4$E$P$D$K$B$S$7EM$VFPi3$EXTD16$VFPS$VFMA$PE$A:L22UL41UL21$X:L11$S22US41US21$IEEE1$IW$USESV6$~STKCKD$USESV7$~SHL$OTIME$ROPI$EBA8$UX$STANDARDLIB$REQ8$PRES8$EABIv2
                                    0x00000000   Gb  Abs   --   Hi 
    383  __ARM_use_no_argv          0x00000000   Gb  Abs   --   Hi 
    384  __Vectors                  0x0000c000   Gb    1  Data  Hi 
    385  __Patchable                0x0000c0c8   Gb    1  Data  Hi 
    386  Reset_Handler              0x0000c101   Wk    1  Code  Hi   0x1c
    387  NMI_Handler                0x0000c11f   Wk    1  Code  Hi   0x2
    388  MemManage_Handler          0x0000c121   Wk    1  Code  Hi   0x2
    389  BusFault_Handler           0x0000c123   Wk    1  Code  Hi   0x2
    390  UsageFault_Handler         0x0000c125   Wk    1  Code  Hi   0x2
    391  SecureFault_Handler        0x0000c127   Wk    1  Code  Hi   0x2
    392  SVC_Handler                0x0000c129   Wk    1  Code  Hi   0x2
    393  DebugMon_Handler           0x0000c12b   Wk    1  Code  Hi   0x2
    394  PendSV_Handler             0x0000c12d   Wk    1  Code  Hi   0x2
    395  SysTick_Handler            0x0000c12f   Wk    1  Code  Hi   0x2
    396  am_adc_isr                 0x0000c131   Wk    1  Code  Hi 
    397  am_ble_isr                 0x0000c131   Wk    1  Code  Hi 
    398  am_brownout_isr            0x0000c131   Wk    1  Code  Hi 
    399  am_clkgen_isr              0x0000c131   Wk    1  Code  Hi 
    400  am_ctimer_isr              0x0000c131   Wk    1  Code  Hi 
    401  am_gpio_isr                0x0000c131   Wk    1  Code  Hi 
    402  am_iomaster0_isr           0x0000c131   Wk    1  Code  Hi 
    403  am_iomaster1_isr           0x0000c131   Wk    1  Code  Hi 
    404  am_iomaster2_isr           0x0000c131   Wk    1  Code  Hi 
    405  am_iomaster3_isr           0x0000c131   Wk    1  Code  Hi 
    406  am_iomaster4_isr           0x0000c131   Wk    1  Code  Hi 
    407  am_iomaster5_isr           0x0000c131   Wk    1  Code  Hi 
    408  am_ioslave_acc_isr         0x0000c131   Wk    1  Code  Hi 
    409  am_ioslave_ios_isr         0x0000c131   Wk    1  Code  Hi 
    410  am_mspi0_isr               0x0000c131   Wk    1  Code  Hi 
    411  am_mspi1_isr               0x0000c131   Wk    1  Code  Hi 
    412  am_mspi2_isr               0x0000c131   Wk    1  Code  Hi 
    413  am_pdm0_isr                0x0000c131   Wk    1  Code  Hi 
    414  am_rtc_isr                 0x0000c131   Wk    1  Code  Hi 
    415  am_scard_isr               0x0000c131   Wk    1  Code  Hi 
    416  am_software0_isr           0x0000c131   Wk    1  Code  Hi 
    417  am_stimer_cmpr1_isr        0x0000c131   Wk    1  Code  Hi 
    418  am_stimer_cmpr2_isr        0x0000c131   Wk    1  Code  Hi 
    419  am_stimer_cmpr3_isr        0x0000c131   Wk    1  Code  Hi 
    420  am_stimer_cmpr4_isr        0x0000c131   Wk    1  Code  Hi 
    421  am_stimer_cmpr5_isr        0x0000c131   Wk    1  Code  Hi 
    422  am_stimer_cmpr6_isr        0x0000c131   Wk    1  Code  Hi 
    423  am_stimer_cmpr7_isr        0x0000c131   Wk    1  Code  Hi 
    424  am_stimer_isr              0x0000c131   Wk    1  Code  Hi 
    425  am_uart0_isr               0x0000c131   Wk    1  Code  Hi 
    426  am_uart1_isr               0x0000c131   Wk    1  Code  Hi 
    427  am_uart_isr                0x0000c131   Wk    1  Code  Hi 
    428  am_vcomp_isr               0x0000c131   Wk    1  Code  Hi 
    429  am_watchdog_isr            0x0000c131   Wk    1  Code  Hi 
    430  __main                     0x0000c139   Gb    1  Code  Hi   0x8
    431  __scatterload              0x0000c141   Gb    1  Code  Hi 
    432  __scatterload_rt2          0x0000c141   Gb    1  Code  Hi   0x2c
    433  __scatterload_rt2_thumb_only
                                    0x0000c141   Gb    1  Code  Hi 
    434  __scatterload_null         0x0000c14f   Gb    1  Code  Hi 
    435  __scatterload_copy         0x0000c175   Gb    1  Code  Hi   0x1a
    436  __scatterload_zeroinit     0x0000c191   Gb    1  Code  Hi   0x1c
    437  __rt_lib_init              0x0000c1ad   Gb    1  Code  De 
    438  __rt_lib_init_fp_1         0x0000c1af   Gb    1  Code  Hi 
    439  __rt_lib_init_alloca_1     0x0000c1b3   Gb    1  Code  Hi 
    440  __rt_lib_init_argv_1       0x0000c1b3   Gb    1  Code  Hi 
    441  __rt_lib_init_atexit_1     0x0000c1b3   Gb    1  Code  Hi 
    442  __rt_lib_init_clock_1      0x0000c1b3   Gb    1  Code  Hi 
    443  __rt_lib_init_cpp_1        0x0000c1b3   Gb    1  Code  Hi 
    444  __rt_lib_init_exceptions_1 0x0000c1b3   Gb    1  Code  Hi 
    445  __rt_lib_init_fp_trap_1    0x0000c1b3   Gb    1  Code  Hi 
    446  __rt_lib_init_getenv_1     0x0000c1b3   Gb    1  Code  Hi 
    447  __rt_lib_init_heap_1       0x0000c1b3   Gb    1  Code  Hi 
    448  __rt_lib_init_lc_collate_1 0x0000c1b3   Gb    1  Code  Hi 
    449  __rt_lib_init_lc_ctype_1   0x0000c1b3   Gb    1  Code  Hi 
    450  __rt_lib_init_lc_monetary_1
                                    0x0000c1b3   Gb    1  Code  Hi 
    451  __rt_lib_init_lc_numeric_1 0x0000c1b3   Gb    1  Code  Hi 
    452  __rt_lib_init_lc_time_1    0x0000c1b3   Gb    1  Code  Hi 
    453  __rt_lib_init_preinit_1    0x0000c1b3   Gb    1  Code  Hi 
    454  __rt_lib_init_rand_1       0x0000c1b3   Gb    1  Code  Hi 
    455  __rt_lib_init_return       0x0000c1b3   Gb    1  Code  Hi 
    456  __rt_lib_init_signal_1     0x0000c1b3   Gb    1  Code  Hi 
    457  __rt_lib_init_stdio_1      0x0000c1b3   Gb    1  Code  Hi 
    458  __rt_lib_init_user_alloc_1 0x0000c1b3   Gb    1  Code  Hi 
    459  __rt_lib_shutdown          0x0000c1b5   Gb    1  Code  De 
    460  __rt_lib_shutdown_cpp_1    0x0000c1b7   Gb    1  Code  Hi 
    461  __rt_lib_shutdown_fp_trap_1
                                    0x0000c1b7   Gb    1  Code  Hi 
    462  __rt_lib_shutdown_heap_1   0x0000c1b7   Gb    1  Code  Hi 
    463  __rt_lib_shutdown_return   0x0000c1b7   Gb    1  Code  Hi 
    464  __rt_lib_shutdown_signal_1 0x0000c1b7   Gb    1  Code  Hi 
    465  __rt_lib_shutdown_stdio_1  0x0000c1b7   Gb    1  Code  Hi 
    466  __rt_lib_shutdown_user_alloc_1
                                    0x0000c1b7   Gb    1  Code  Hi 
    467  __rt_entry                 0x0000c1b9   Gb    1  Code  Hi 
    468  __rt_entry_presh_1         0x0000c1b9   Gb    1  Code  Hi 
    469  __rt_entry_sh              0x0000c1b9   Gb    1  Code  Hi 
    470  __rt_entry_li              0x0000c1bf   Gb    1  Code  Hi 
    471  __rt_entry_postsh_1        0x0000c1bf   Gb    1  Code  Hi 
    472  __rt_entry_main            0x0000c1c3   Gb    1  Code  Hi 
    473  __rt_entry_postli_1        0x0000c1c3   Gb    1  Code  Hi 
    474  __rt_exit                  0x0000c1cb   Gb    1  Code  De 
    475  __rt_exit_ls               0x0000c1cd   Gb    1  Code  Hi 
    476  __rt_exit_prels_1          0x0000c1cd   Gb    1  Code  Hi 
    477  __rt_exit_exit             0x0000c1d1   Gb    1  Code  Hi 
    478  HardFault_Handler          0x0000c1d9   Gb    1  Code  Hi   0x1a
    479  getStackedReg              0x0000c1f3   Gb    1  Code  Hi   0x8
    480  am_hal_interrupt_master_enable
                                    0x0000c1fd   Gb    1  Code  Hi   0x8
    481  am_hal_interrupt_master_disable
                                    0x0000c205   Gb    1  Code  Hi   0x8
    482  am_hal_interrupt_master_set
                                    0x0000c20d   Gb    1  Code  Hi   0x6
    483  __user_initial_stackheap   0x0000c215   Gb    1  Code  Hi   0xa
    484  __aeabi_memclr4            0x0000c22d   Gb    1  Code  Hi 
    485  __aeabi_memclr8            0x0000c22d   Gb    1  Code  De 
    486  __rt_memclr_w              0x0000c22d   Gb    1  Code  De   0x4e
    487  _memset_w                  0x0000c231   Gb    1  Code  De 
    488  __use_two_region_memory    0x0000c27b   Gb    1  Code  Hi   0x2
    489  __rt_heap_escrow$2region   0x0000c27d   Gb    1  Code  De   0x2
    490  __rt_heap_expand$2region   0x0000c27f   Gb    1  Code  De   0x2
    491  __user_setup_stackheap     0x0000c281   Gb    1  Code  De   0x4a
    492  exit                       0x0000c2cb   Gb    1  Code  De   0x12
    493  __user_libspace            0x0000c2dd   Wk    1  Code  De   0x8
    494  __user_perproc_libspace    0x0000c2dd   Wk    1  Code  De 
    495  __user_perthread_libspace  0x0000c2dd   Wk    1  Code  De 
    496  _sys_exit                  0x0000c2e5   Gb    1  Code  De   0x8
    497  __I$use$semihosting        0x0000c2f1   Gb    1  Code  Hi 
    498  __use_no_semihosting_swi   0x0000c2f1   Gb    1  Code  Hi   0x2
    499  __semihosting_library_function
                                    0x0000c2f3   Gb    1  Code  Hi 
    500  am_bsp_debug_printf_disable
                                    0x0000c2f5   Gb    1  Code  Hi   0x58
    501  am_bsp_itm_printf_enable   0x0000c355   Gb    1  Code  Hi   0x2c
    502  am_bsp_low_power_init      0x0000c391   Gb    1  Code  Hi   0x3a
    503  am_devices_led_array_init  0x0000c3d5   Gb    1  Code  Hi   0x24
    504  am_devices_led_array_out   0x0000c3f9   Gb    1  Code  Hi   0x32
    505  am_devices_led_init        0x0000c42d   Gb    1  Code  Hi   0x58
    506  am_devices_led_off         0x0000c48d   Gb    1  Code  Hi   0x48
    507  am_devices_led_on          0x0000c4d5   Gb    1  Code  Hi   0x44
    508  am_hal_burst_mode_disable  0x0000c519   Gb    1  Code  Hi   0x54
    509  am_hal_burst_mode_enable   0x0000c575   Gb    1  Code  Hi   0x58
    510  am_hal_cachectrl_config    0x0000c5d5   Gb    1  Code  Hi   0x46
    511  am_hal_cachectrl_control   0x0000c621   Gb    1  Code  Hi   0x3a4
    512  am_hal_cachectrl_enable    0x0000c9cd   Gb    1  Code  Hi   0xe
    513  am_hal_clkgen_control      0x0000c9e1   Gb    1  Code  Hi   0xec
    514  am_hal_clkgen_status_get   0x0000cadd   Gb    1  Code  Hi   0x2c
    515  am_hal_flash_delay         0x0000cb11   Gb    1  Code  Hi   0x1e
    516  am_hal_flash_delay_status_check
                                    0x0000cb35   Gb    1  Code  Hi   0x56
    517  am_hal_flash_load_ui32     0x0000cb91   Gb    1  Code  Hi   0x4
    518  am_hal_flash_store_ui32    0x0000cb99   Gb    1  Code  Hi   0x24
    519  am_hal_gpio_pinconfig      0x0000cbc1   Gb    1  Code  Hi   0x24a
    520  am_hal_gpio_state_write    0x0000ce41   Gb    1  Code  Hi   0x80
    521  am_hal_itm_disable         0x0000cec1   Gb    1  Code  Hi   0x88
    522  am_hal_itm_enable          0x0000cf6d   Gb    1  Code  Hi   0x2c
    523  am_hal_itm_print           0x0000cfb5   Gb    1  Code  Hi   0x30
    524  am_hal_mcuctrl_info_get    0x0000cfe5   Gb    1  Code  Hi   0x116
    525  am_hal_pwrctrl_low_power_init
                                    0x0000d11d   Gb    1  Code  Hi   0x148
    526  am_hal_pwrctrl_periph_disable
                                    0x0000d27d   Gb    1  Code  Hi   0x46
    527  am_hal_pwrctrl_periph_enable
                                    0x0000d2cd   Gb    1  Code  Hi   0x48
    528  am_hal_rtc_osc_disable     0x0000d31d   Gb    1  Code  Hi   0x12
    529  am_hal_stimer_compare_delta_set
                                    0x0000d331   Gb    1  Code  Hi   0xa6
    530  am_hal_stimer_config       0x0000d3dd   Gb    1  Code  Hi   0xe
    531  am_hal_stimer_int_clear    0x0000d3f1   Gb    1  Code  Hi   0x8
    532  am_hal_stimer_int_enable   0x0000d3fd   Gb    1  Code  Hi   0xe
    533  am_hal_sysctrl_sleep       0x0000d411   Gb    1  Code  Hi   0x84
    534  am_hal_tpiu_enable         0x0000d4ad   Gb    1  Code  Hi   0x7a
    535  am_hal_uart_deinitialize   0x0000d53d   Gb    1  Code  Hi   0x2a
    536  am_hal_uart_power_control  0x0000d56d   Gb    1  Code  Hi   0xe8
    537  am_hal_uart_tx_flush       0x0000d659   Gb    1  Code  Hi   0x58
    538  am_stimer_cmpr0_isr        0x0000d6b5   Gb    1  Code  Hi   0x3c
    539  am_util_delay_ms           0x0000d6f9   Gb    1  Code  Hi   0x20
    540  am_util_faultisr_collect_data
                                    0x0000d719   Gb    1  Code  Hi   0xb4
    541  am_util_stdio_printf       0x0000d7d1   Gb    1  Code  Hi   0x32
    542  am_util_stdio_printf_init  0x0000d80d   Gb    1  Code  Hi   0x6
    543  am_util_stdio_terminal_clear
                                    0x0000d819   Gb    1  Code  Hi   0xa
    544  am_util_stdio_vsprintf     0x0000d839   Gb    1  Code  Hi   0x3a4
    545  main                       0x0000de75   Gb    1  Code  Hi   0x4e
    546  stimer_init                0x0000dfad   Gb    1  Code  Hi   0x48
    547  __aeabi_d2f                0x0000e0f1   Gb    1  Code  Hi 
    548  _d2f                       0x0000e0f1   Gb    1  Code  De   0x62
    549  __fpl_dnaninf              0x0000e153   Gb    1  Code  De   0x9c
    550  _fp_init                   0x0000e1ef   Gb    1  Code  De   0xa
    551  __fplib_config_fpu_vfp     0x0000e1f7   Gb    1  Code  De 
    552  __fplib_config_pureend_doubles
                                    0x0000e1f7   Gb    1  Code  De 
    553  __fpl_fretinf              0x0000e1f9   Gb    1  Code  De   0xa
    554  __I$use$fp                 0x0000e202   Gb    1   --   De 
    555  am_hal_cachectrl_defaults  0x0000e202   Gb    1  Data  Hi   0x3
    556  g_AM_HAL_GPIO_DISABLE      0x0000e214   Gb    1  Data  Hi   0x4
    557  g_AM_HAL_GPIO_TRISTATE     0x0000e420   Gb    1  Data  Hi   0x4
    558  g_AM_HAL_GPIO_OUTPUT       0x0000e424   Gb    1  Data  Hi   0x4
    559  g_am_hal_mcuctrl_flash_size
                                    0x0000e428   Gb    1  Data  Hi   0x40
    560  g_am_hal_mcuctrl_sram_size 0x0000e468   Gb    1  Data  Hi   0x40
    561  g_AM_BSP_GPIO_ITM_SWO      0x0000e4a8   Gb    1  Data  Hi   0x4
    562  am_hal_pwrctrl_peripheral_control
                                    0x0000e4ac   Gb    1  Data  Hi   0xcc
    563  am_hal_pwrctrl_memory_control
                                    0x0000e578   Gb    1  Data  Hi   0x1b0
    564  Region$$Table$$Base        0x0000e76c   Gb    1   --   Hi 
    565  Region$$Table$$Limit       0x0000e79c   Gb    1   --   Hi 
    566  g_pfnCharPrint             0x10011004   Gb    2  Data  Hi   0x4
    567  g_ui32HALflags             0x1001100c   Gb    2  Data  Hi   0x4
    568  am_bsp_psLEDs              0x10011018   Gb    2  Data  Hi   0x28
    569  g_am_hal_burst_mode_available
                                    0x1001106c   Gb    2  Data  Hi   0x1
    570  g_bSimobuckTrimsDone       0x1001106d   Gb    2  Data  Hi   0x1
    571  gAmHalResetStatus          0x10011070   Gb    2  Data  Hi   0x4
    572  __libspace_start           0x10011974   Gb    3  Data  De   0x60
    573  __temporary_stack_top$libspace
                                    0x100119d4   Gb    3  Data  De 


** Section #13 '.strtab' (SHT_STRTAB)
    Size   : 8704 bytes

            #  Offset String
        ====================================

            1      1: $d
            2      4: $t
            3      7: $d.realdata
            4     19: ..\src\stimer.c
            5     35: ../src/stimer.c
            6     51: i.am_stimer_cmpr0_isr
            7     73: i.main
            8     80: i.stimer_init
            9     94: .conststring
           10    107: .data
           11    113: g_ui32Count
           12    125: ..\..\..\..\..\devices\am_devices_led.c
           13    165: ../../../../../devices/am_devices_led.c
           14    205: i.am_devices_led_array_init
           15    233: i.am_devices_led_array_out
           16    260: i.am_devices_led_init
           17    282: i.am_devices_led_off
           18    303: i.am_devices_led_on
           19    323: ..\..\..\..\..\utils\am_util_delay.c
           20    360: ../../../../../utils/am_util_delay.c
           21    397: i.am_util_delay_ms
           22    416: ..\..\..\..\..\utils\am_util_faultisr.c
           23    456: .emb_text
           24    466: $v0
           25    470: ../../../../../utils/am_util_faultisr.c
           26    510: i.am_util_faultisr_collect_data
           27    542: ../../../../../utils/am_util_stdio.c
           28    579: i.am_util_stdio_printf
           29    602: i.am_util_stdio_printf_init
           30    630: i.am_util_stdio_terminal_clear
           31    661: i.am_util_stdio_vsprintf
           32    686: i.decstr_to_int
           33    702: decstr_to_int
           34    716: i.divu64_10
           35    728: divu64_10
           36    738: i.ftoa
           37    745: ftoa
           38    750: i.ndigits_in_hex
           39    767: ndigits_in_hex
           40    782: i.ndigits_in_i64
           41    799: ndigits_in_i64
           42    814: i.ndigits_in_u64
           43    831: ndigits_in_u64
           44    846: i.padbuffer
           45    858: padbuffer
           46    868: i.simple_strlen
           47    884: simple_strlen
           48    898: i.uint64_to_hexstr
           49    917: uint64_to_hexstr
           50    934: i.uint64_to_str
           51    950: uint64_to_str
           52    964: .bss
           53    969: g_prfbuf
           54    978: g_bTxtXlate
           55    990: ../keil/startup_keil.s
           56   1013: STACK
           57   1019: StackMem
           58   1028: HEAP
           59   1033: HeapMem
           60   1041: RESET
           61   1047: .text
           62   1053: ..\am_hal_global.c
           63   1072: ../am_hal_global.c
           64   1091: ..\am_bsp.c
           65   1103: ../am_bsp.c
           66   1115: i.am_bsp_debug_printf_disable
           67   1145: i.am_bsp_itm_printf_enable
           68   1172: i.am_bsp_low_power_init
           69   1196: pui8UartTxBuffer
           70   1213: pui8UartRxBuffer
           71   1230: g_ui32PrintInterface
           72   1251: g_sCOMUART
           73   1262: g_sBspUartBufferedConfig
           74   1287: ..\am_hal_cachectrl.c
           75   1309: ../am_hal_cachectrl.c
           76   1331: i.am_hal_cachectrl_config
           77   1357: i.am_hal_cachectrl_control
           78   1384: i.am_hal_cachectrl_enable
           79   1410: .constdata
           80   1421: ..\am_hal_clkgen.c
           81   1440: ../am_hal_clkgen.c
           82   1459: i.am_hal_clkgen_control
           83   1483: i.am_hal_clkgen_status_get
           84   1510: ..\am_hal_flash.c
           85   1528: ../am_hal_flash.c
           86   1546: i.am_hal_flash_delay
           87   1567: i.am_hal_flash_delay_status_check
           88   1601: i.am_hal_flash_load_ui32
           89   1626: i.am_hal_flash_store_ui32
           90   1652: ..\am_hal_gpio.c
           91   1669: ../am_hal_gpio.c
           92   1686: i.am_hal_gpio_pinconfig
           93   1710: i.am_hal_gpio_state_write
           94   1736: g_ui8Inpen
           95   1747: g_ui8Bit76Capabilities
           96   1770: g_ui8nCEpins
           97   1783: g_ui8NCEtable
           98   1797: ..\am_hal_interrupt.c
           99   1819: ../am_hal_interrupt.c
          100   1841: ..\am_hal_mcuctrl.c
          101   1861: ../am_hal_mcuctrl.c
          102   1881: i.am_hal_mcuctrl_info_get
          103   1907: ..\am_hal_stimer.c
          104   1926: ../am_hal_stimer.c
          105   1945: i.am_hal_stimer_compare_delta_set
          106   1979: i.am_hal_stimer_config
          107   2002: i.am_hal_stimer_int_clear
          108   2028: i.am_hal_stimer_int_enable
          109   2055: ..\am_hal_sysctrl.c
          110   2075: ../am_hal_sysctrl.c
          111   2095: i.am_hal_sysctrl_sleep
          112   2118: g_ui32BusWriteFlush
          113   2138: ..\am_bsp_pins.c
          114   2155: ../am_bsp_pins.c
          115   2172: ..\am_hal_burst.c
          116   2190: ../am_hal_burst.c
          117   2208: i.am_hal_burst_mode_disable
          118   2236: i.am_hal_burst_mode_enable
          119   2263: ..\am_hal_itm.c
          120   2279: ../am_hal_itm.c
          121   2295: i.am_hal_itm_disable
          122   2316: i.am_hal_itm_enable
          123   2336: i.am_hal_itm_print
          124   2355: ..\am_hal_pwrctrl.c
          125   2375: ../am_hal_pwrctrl.c
          126   2395: i.am_hal_pwrctrl_low_power_init
          127   2427: i.am_hal_pwrctrl_periph_disable
          128   2459: i.am_hal_pwrctrl_periph_enable
          129   2490: ..\am_hal_reset.c
          130   2508: ../am_hal_reset.c
          131   2526: ..\am_hal_rtc.c
          132   2542: ../am_hal_rtc.c
          133   2558: i.am_hal_rtc_osc_disable
          134   2583: ..\am_hal_tpiu.c
          135   2600: ../am_hal_tpiu.c
          136   2617: i.am_hal_tpiu_enable
          137   2638: ..\am_hal_uart.c
          138   2655: ../am_hal_uart.c
          139   2672: i.am_hal_uart_deinitialize
          140   2699: i.am_hal_uart_power_control
          141   2727: i.am_hal_uart_tx_flush
          142   2750: ..\am_hal_queue.c
          143   2768: ../am_hal_queue.c
          144   2786: dc.s
          145   2791: ../clib/longlong.s
          146   2810: ../clib/memcpset.s
          147   2829: ../clib/heapaux.c
          148   2847: ../clib/angel/startup.s
          149   2871: !!!main
          150   2879: ../fplib/d2f.s
          151   2894: x$fpl$d2f
          152   2904: ../clib/angel/kernel.s
          153   2927: .ARM.Collect$$rtentry$$00000000
          154   2959: ../fplib/dnaninf.s
          155   2978: x$fpl$dnaninf
          156   2992: ../fplib/fretinf.s
          157   3011: x$fpl$fretinf
          158   3025: ../fplib/usenofp.s
          159   3044: x$fpl$usenofp
          160   3058: .ARM.Collect$$rtentry$$00000002
          161   3090: .ARM.Collect$$rtentry$$00000009
          162   3122: .ARM.Collect$$rtentry$$0000000A
          163   3154: .ARM.Collect$$rtentry$$0000000C
          164   3186: .ARM.Collect$$rtentry$$0000000D
          165   3218: .ARM.Collect$$rtentry$$00000004
          166   3250: ../clib/angel/sys.s
          167   3270: ../clib/stdlib.c
          168   3287: ../clib/angel/boardlib.s
          169   3312: ../clib/libinit.s
          170   3330: .ARM.Collect$$libinit$$00000000
          171   3362: .ARM.Collect$$rtexit$$00000000
          172   3393: .ARM.Collect$$libinit$$00000001
          173   3425: .ARM.Collect$$libinit$$00000004
          174   3457: .ARM.Collect$$libinit$$0000000A
          175   3489: .ARM.Collect$$libinit$$0000000C
          176   3521: .ARM.Collect$$libinit$$0000000E
          177   3553: .ARM.Collect$$libinit$$00000011
          178   3585: .ARM.Collect$$libinit$$00000013
          179   3617: .ARM.Collect$$libinit$$00000015
          180   3649: .ARM.Collect$$libinit$$00000017
          181   3681: .ARM.Collect$$libinit$$00000019
          182   3713: .ARM.Collect$$libinit$$0000001B
          183   3745: .ARM.Collect$$libinit$$0000001D
          184   3777: .ARM.Collect$$libinit$$0000001F
          185   3809: .ARM.Collect$$libinit$$00000021
          186   3841: .ARM.Collect$$libinit$$00000023
          187   3873: .ARM.Collect$$libinit$$00000025
          188   3905: .ARM.Collect$$libinit$$0000002C
          189   3937: .ARM.Collect$$libinit$$0000002E
          190   3969: .ARM.Collect$$libinit$$00000030
          191   4001: .ARM.Collect$$libinit$$00000032
          192   4033: .ARM.Collect$$libinit$$00000033
          193   4065: .ARM.Collect$$rtexit$$00000002
          194   4096: .ARM.Collect$$rtexit$$00000003
          195   4127: .ARM.Collect$$rtexit$$00000004
          196   4158: ../clib/armsys.c
          197   4175: ../fplib/fpinit.s
          198   4193: x$fpl$fpinit
          199   4206: ../clib/angel/sysapp.c
          200   4229: .ARM.Collect$$libshutdown$$00000000
          201   4265: ../clib/heapalloc.c
          202   4285: ../clib/signal.c
          203   4302: .ARM.Collect$$libshutdown$$00000002
          204   4338: .ARM.Collect$$libshutdown$$00000004
          205   4374: .ARM.Collect$$libshutdown$$00000007
          206   4410: .ARM.Collect$$libshutdown$$0000000A
          207   4446: .ARM.Collect$$libshutdown$$0000000C
          208   4482: .ARM.Collect$$libshutdown$$0000000F
          209   4518: .ARM.Collect$$libshutdown$$00000010
          210   4554: ../clib/angel/rt.s
          211   4573: ../clib/signal.s
          212   4590: ../clib/angel/scatter.s
          213   4614: !!!scatter
          214   4625: ../clib/angel/handlers.s
          215   4650: !!handler_copy
          216   4665: !!handler_zi
          217   4678: BuildAttributes$$THM_ISAv4$E$P$D$K$B$S$7EM$VFPi3$EXTD16$VFPS$VFMA$PE$A:L22UL41UL21$X:L11$S22US41US21$IEEE1$IW$USESV6$~STKCKD$USESV7$~SHL$OTIME$ROPI$EBA8$UX$STANDARDLIB$REQ8$PRES8$EABIv2
          218   4864: __ARM_use_no_argv
          219   4882: __Vectors
          220   4892: __Patchable
          221   4904: Reset_Handler
          222   4918: NMI_Handler
          223   4930: MemManage_Handler
          224   4948: BusFault_Handler
          225   4965: UsageFault_Handler
          226   4984: SecureFault_Handler
          227   5004: SVC_Handler
          228   5016: DebugMon_Handler
          229   5033: PendSV_Handler
          230   5048: SysTick_Handler
          231   5064: am_adc_isr
          232   5075: am_ble_isr
          233   5086: am_brownout_isr
          234   5102: am_clkgen_isr
          235   5116: am_ctimer_isr
          236   5130: am_gpio_isr
          237   5142: am_iomaster0_isr
          238   5159: am_iomaster1_isr
          239   5176: am_iomaster2_isr
          240   5193: am_iomaster3_isr
          241   5210: am_iomaster4_isr
          242   5227: am_iomaster5_isr
          243   5244: am_ioslave_acc_isr
          244   5263: am_ioslave_ios_isr
          245   5282: am_mspi0_isr
          246   5295: am_mspi1_isr
          247   5308: am_mspi2_isr
          248   5321: am_pdm0_isr
          249   5333: am_rtc_isr
          250   5344: am_scard_isr
          251   5357: am_software0_isr
          252   5374: am_stimer_cmpr1_isr
          253   5394: am_stimer_cmpr2_isr
          254   5414: am_stimer_cmpr3_isr
          255   5434: am_stimer_cmpr4_isr
          256   5454: am_stimer_cmpr5_isr
          257   5474: am_stimer_cmpr6_isr
          258   5494: am_stimer_cmpr7_isr
          259   5514: am_stimer_isr
          260   5528: am_uart0_isr
          261   5541: am_uart1_isr
          262   5554: am_uart_isr
          263   5566: am_vcomp_isr
          264   5579: am_watchdog_isr
          265   5595: __main
          266   5602: __scatterload
          267   5616: __scatterload_rt2
          268   5634: __scatterload_rt2_thumb_only
          269   5663: __scatterload_null
          270   5682: __scatterload_copy
          271   5701: __scatterload_zeroinit
          272   5724: __rt_lib_init
          273   5738: __rt_lib_init_fp_1
          274   5757: __rt_lib_init_alloca_1
          275   5780: __rt_lib_init_argv_1
          276   5801: __rt_lib_init_atexit_1
          277   5824: __rt_lib_init_clock_1
          278   5846: __rt_lib_init_cpp_1
          279   5866: __rt_lib_init_exceptions_1
          280   5893: __rt_lib_init_fp_trap_1
          281   5917: __rt_lib_init_getenv_1
          282   5940: __rt_lib_init_heap_1
          283   5961: __rt_lib_init_lc_collate_1
          284   5988: __rt_lib_init_lc_ctype_1
          285   6013: __rt_lib_init_lc_monetary_1
          286   6041: __rt_lib_init_lc_numeric_1
          287   6068: __rt_lib_init_lc_time_1
          288   6092: __rt_lib_init_preinit_1
          289   6116: __rt_lib_init_rand_1
          290   6137: __rt_lib_init_return
          291   6158: __rt_lib_init_signal_1
          292   6181: __rt_lib_init_stdio_1
          293   6203: __rt_lib_init_user_alloc_1
          294   6230: __rt_lib_shutdown
          295   6248: __rt_lib_shutdown_cpp_1
          296   6272: __rt_lib_shutdown_fp_trap_1
          297   6300: __rt_lib_shutdown_heap_1
          298   6325: __rt_lib_shutdown_return
          299   6350: __rt_lib_shutdown_signal_1
          300   6377: __rt_lib_shutdown_stdio_1
          301   6403: __rt_lib_shutdown_user_alloc_1
          302   6434: __rt_entry
          303   6445: __rt_entry_presh_1
          304   6464: __rt_entry_sh
          305   6478: __rt_entry_li
          306   6492: __rt_entry_postsh_1
          307   6512: __rt_entry_main
          308   6528: __rt_entry_postli_1
          309   6548: __rt_exit
          310   6558: __rt_exit_ls
          311   6571: __rt_exit_prels_1
          312   6589: __rt_exit_exit
          313   6604: HardFault_Handler
          314   6622: getStackedReg
          315   6636: am_hal_interrupt_master_enable
          316   6667: am_hal_interrupt_master_disable
          317   6699: am_hal_interrupt_master_set
          318   6727: __user_initial_stackheap
          319   6752: __aeabi_memclr4
          320   6768: __aeabi_memclr8
          321   6784: __rt_memclr_w
          322   6798: _memset_w
          323   6808: __use_two_region_memory
          324   6832: __rt_heap_escrow$2region
          325   6857: __rt_heap_expand$2region
          326   6882: __user_setup_stackheap
          327   6905: exit
          328   6910: __user_libspace
          329   6926: __user_perproc_libspace
          330   6950: __user_perthread_libspace
          331   6976: _sys_exit
          332   6986: __I$use$semihosting
          333   7006: __use_no_semihosting_swi
          334   7031: __semihosting_library_function
          335   7062: am_bsp_debug_printf_disable
          336   7090: am_bsp_itm_printf_enable
          337   7115: am_bsp_low_power_init
          338   7137: am_devices_led_array_init
          339   7163: am_devices_led_array_out
          340   7188: am_devices_led_init
          341   7208: am_devices_led_off
          342   7227: am_devices_led_on
          343   7245: am_hal_burst_mode_disable
          344   7271: am_hal_burst_mode_enable
          345   7296: am_hal_cachectrl_config
          346   7320: am_hal_cachectrl_control
          347   7345: am_hal_cachectrl_enable
          348   7369: am_hal_clkgen_control
          349   7391: am_hal_clkgen_status_get
          350   7416: am_hal_flash_delay
          351   7435: am_hal_flash_delay_status_check
          352   7467: am_hal_flash_load_ui32
          353   7490: am_hal_flash_store_ui32
          354   7514: am_hal_gpio_pinconfig
          355   7536: am_hal_gpio_state_write
          356   7560: am_hal_itm_disable
          357   7579: am_hal_itm_enable
          358   7597: am_hal_itm_print
          359   7614: am_hal_mcuctrl_info_get
          360   7638: am_hal_pwrctrl_low_power_init
          361   7668: am_hal_pwrctrl_periph_disable
          362   7698: am_hal_pwrctrl_periph_enable
          363   7727: am_hal_rtc_osc_disable
          364   7750: am_hal_stimer_compare_delta_set
          365   7782: am_hal_stimer_config
          366   7803: am_hal_stimer_int_clear
          367   7827: am_hal_stimer_int_enable
          368   7852: am_hal_sysctrl_sleep
          369   7873: am_hal_tpiu_enable
          370   7892: am_hal_uart_deinitialize
          371   7917: am_hal_uart_power_control
          372   7943: am_hal_uart_tx_flush
          373   7964: am_stimer_cmpr0_isr
          374   7984: am_util_delay_ms
          375   8001: am_util_faultisr_collect_data
          376   8031: am_util_stdio_printf
          377   8052: am_util_stdio_printf_init
          378   8078: am_util_stdio_terminal_clear
          379   8107: am_util_stdio_vsprintf
          380   8130: main
          381   8135: stimer_init
          382   8147: __aeabi_d2f
          383   8159: _d2f
          384   8164: __fpl_dnaninf
          385   8178: _fp_init
          386   8187: __fplib_config_fpu_vfp
          387   8210: __fplib_config_pureend_doubles
          388   8241: __fpl_fretinf
          389   8255: __I$use$fp
          390   8266: am_hal_cachectrl_defaults
          391   8292: g_AM_HAL_GPIO_DISABLE
          392   8314: g_AM_HAL_GPIO_TRISTATE
          393   8337: g_AM_HAL_GPIO_OUTPUT
          394   8358: g_am_hal_mcuctrl_flash_size
          395   8386: g_am_hal_mcuctrl_sram_size
          396   8413: g_AM_BSP_GPIO_ITM_SWO
          397   8435: am_hal_pwrctrl_peripheral_control
          398   8469: am_hal_pwrctrl_memory_control
          399   8499: Region$$Table$$Base
          400   8519: Region$$Table$$Limit
          401   8540: g_pfnCharPrint
          402   8555: g_ui32HALflags
          403   8570: am_bsp_psLEDs
          404   8584: g_am_hal_burst_mode_available
          405   8614: g_bSimobuckTrimsDone
          406   8635: gAmHalResetStatus
          407   8653: __libspace_start
          408   8670: __temporary_stack_top$libspace
          409   8701: 
          410   8702: 
          411   8703: 


** Section #14 '.note' (SHT_NOTE)
    Size   : 32 bytes (alignment 4)


** Section #15 '.comment' (SHT_PROGBITS)
    Size   : 28616 bytes


** Section #16 '.shstrtab' (SHT_STRTAB)
    Size   : 160 bytes

            #  Offset String
        ====================================

            1      1: ROMEM
            2      7: RWMEM
            3     13: TCM
            4     17: STACKMEM
            5     26: .debug_abbrev
            6     40: .debug_frame
            7     53: .debug_info
            8     65: .debug_line
            9     77: .debug_loc
           10     88: .debug_macinfo
           11    103: .debug_pubnames
           12    119: .symtab
           13    127: .strtab
           14    135: .note
           15    141: .comment
           16    150: .shstrtab


