
========================================================================

** ELF Header Information

    File Name: bin\fast_gpio.axf

    Machine class: ELFCLASS32 (32-bit)
    Data encoding: ELFDATA2LSB (Little endian)
    Header version: EV_CURRENT (Current version)
    Operating System ABI: none
    ABI Version: 0
    File Type: ET_EXEC (Executable) (2)
    Machine: EM_ARM (ARM)

    Image Entry point: 0x0000c139
    Flags: EF_ARM_HASENTRY + EF_ARM_ABI_FLOAT_HARD (0x05000402)

    ARM ELF revision: 5 (ABI version 2)

    Conforms to Hard float procedure-call standard

    Built with
    Component: ARM Compiler 5.06 update 6 (build 750) Tool: armasm [4d35ec]
    Component: ARM Compiler 5.06 update 6 (build 750) Tool: armlink [4d35ed]

    Header size: 52 bytes (0x34)
    Program header entry size: 32 bytes (0x20)
    Section header entry size: 40 bytes (0x28)

    Program header entries: 1
    Section header entries: 16

    Program header offset: 82160 (0x000140f0)
    Section header offset: 82192 (0x00014110)

    Section header string table index: 15

========================================================================

** Program header #0 (PT_LOAD) [PF_X + PF_W + PF_R + PF_ARM_ENTRY]
    Size : 17316 bytes (10820 bytes in file)
    Virtual address: 0x0000c000 (Alignment 8)


========================================================================

** Section #1 'FLASH' (SHT_PROGBITS) [SHF_ALLOC + SHF_EXECINSTR]
    Size   : 10700 bytes (alignment 4)
    Address: 0x0000c000

    $d
    RESET
    __Vectors
        0x0000c000:    10001078    x...    DCD    268439672
        0x0000c004:    0000c101    ....    DCD    49409
        0x0000c008:    0000c11f    ....    DCD    49439
        0x0000c00c:    0000c1d9    ....    DCD    49625
        0x0000c010:    0000c121    !...    DCD    49441
        0x0000c014:    0000c123    #...    DCD    49443
        0x0000c018:    0000c125    %...    DCD    49445
        0x0000c01c:    0000c127    '...    DCD    49447
        0x0000c020:    00000000    ....    DCD    0
        0x0000c024:    00000000    ....    DCD    0
        0x0000c028:    00000000    ....    DCD    0
        0x0000c02c:    0000c129    )...    DCD    49449
        0x0000c030:    0000c12b    +...    DCD    49451
        0x0000c034:    00000000    ....    DCD    0
        0x0000c038:    0000c12d    -...    DCD    49453
        0x0000c03c:    0000c12f    /...    DCD    49455
        0x0000c040:    0000c131    1...    DCD    49457
        0x0000c044:    0000c131    1...    DCD    49457
        0x0000c048:    0000c131    1...    DCD    49457
        0x0000c04c:    0000c131    1...    DCD    49457
        0x0000c050:    0000c131    1...    DCD    49457
        0x0000c054:    0000c131    1...    DCD    49457
        0x0000c058:    0000c131    1...    DCD    49457
        0x0000c05c:    0000c131    1...    DCD    49457
        0x0000c060:    0000c131    1...    DCD    49457
        0x0000c064:    0000c131    1...    DCD    49457
        0x0000c068:    0000c131    1...    DCD    49457
        0x0000c06c:    0000c131    1...    DCD    49457
        0x0000c070:    0000c131    1...    DCD    49457
        0x0000c074:    0000c131    1...    DCD    49457
        0x0000c078:    0000c131    1...    DCD    49457
        0x0000c07c:    0000c131    1...    DCD    49457
        0x0000c080:    0000c131    1...    DCD    49457
        0x0000c084:    0000c131    1...    DCD    49457
        0x0000c088:    0000c131    1...    DCD    49457
        0x0000c08c:    0000c131    1...    DCD    49457
        0x0000c090:    0000c131    1...    DCD    49457
        0x0000c094:    0000c131    1...    DCD    49457
        0x0000c098:    0000c131    1...    DCD    49457
        0x0000c09c:    0000c131    1...    DCD    49457
        0x0000c0a0:    0000c131    1...    DCD    49457
        0x0000c0a4:    0000c131    1...    DCD    49457
        0x0000c0a8:    0000c131    1...    DCD    49457
        0x0000c0ac:    0000c131    1...    DCD    49457
        0x0000c0b0:    0000c131    1...    DCD    49457
        0x0000c0b4:    0000c131    1...    DCD    49457
        0x0000c0b8:    0000c131    1...    DCD    49457
        0x0000c0bc:    0000c131    1...    DCD    49457
    __Patchable
        0x0000c0c0:    00000000    ....    DCD    0
        0x0000c0c4:    00000000    ....    DCD    0
        0x0000c0c8:    00000000    ....    DCD    0
        0x0000c0cc:    00000000    ....    DCD    0
        0x0000c0d0:    00000000    ....    DCD    0
        0x0000c0d4:    00000000    ....    DCD    0
        0x0000c0d8:    00000000    ....    DCD    0
        0x0000c0dc:    00000000    ....    DCD    0
        0x0000c0e0:    00000000    ....    DCD    0
        0x0000c0e4:    00000000    ....    DCD    0
        0x0000c0e8:    00000000    ....    DCD    0
        0x0000c0ec:    00000000    ....    DCD    0
        0x0000c0f0:    00000000    ....    DCD    0
        0x0000c0f4:    00000000    ....    DCD    0
        0x0000c0f8:    00000000    ....    DCD    0
        0x0000c0fc:    00000000    ....    DCD    0
    $t
    $v0
    Reset_Handler
        0x0000c100:    f64e5088    N..P    MOV      r0,#0xed88
        0x0000c104:    f2ce0000    ....    MOVT     r0,#0xe000
        0x0000c108:    6801        .h      LDR      r1,[r0,#0]
        0x0000c10a:    f4410170    A.p.    ORR      r1,r1,#0xf00000
        0x0000c10e:    6001        .`      STR      r1,[r0,#0]
        0x0000c110:    f3bf8f4f    ..O.    DSB      
        0x0000c114:    f3bf8f6f    ..o.    ISB      
        0x0000c118:    4806        .H      LDR      r0,[pc,#24] ; [0xc134] = 0xc139
        0x0000c11a:    4700        .G      BX       r0
        0x0000c11c:    e7fe        ..      B        0xc11c ; Reset_Handler + 28
    NMI_Handler
        0x0000c11e:    e7fe        ..      B        NMI_Handler ; 0xc11e
    MemManage_Handler
        0x0000c120:    e7fe        ..      B        MemManage_Handler ; 0xc120
    BusFault_Handler
        0x0000c122:    e7fe        ..      B        BusFault_Handler ; 0xc122
    UsageFault_Handler
        0x0000c124:    e7fe        ..      B        UsageFault_Handler ; 0xc124
    SecureFault_Handler
        0x0000c126:    e7fe        ..      B        SecureFault_Handler ; 0xc126
    SVC_Handler
        0x0000c128:    e7fe        ..      B        SVC_Handler ; 0xc128
    DebugMon_Handler
        0x0000c12a:    e7fe        ..      B        DebugMon_Handler ; 0xc12a
    PendSV_Handler
        0x0000c12c:    e7fe        ..      B        PendSV_Handler ; 0xc12c
    SysTick_Handler
        0x0000c12e:    e7fe        ..      B        SysTick_Handler ; 0xc12e
    am_adc_isr
    am_ble_isr
    am_brownout_isr
    am_clkgen_isr
    am_ctimer_isr
    am_gpio_isr
    am_iomaster0_isr
    am_iomaster1_isr
    am_iomaster2_isr
    am_iomaster3_isr
    am_iomaster4_isr
    am_iomaster5_isr
    am_ioslave_acc_isr
    am_ioslave_ios_isr
    am_mspi0_isr
    am_pdm0_isr
    am_rtc_isr
    am_scard_isr
    am_software0_isr
    am_stimer_cmpr0_isr
    am_stimer_cmpr1_isr
    am_stimer_cmpr2_isr
    am_stimer_cmpr3_isr
    am_stimer_cmpr4_isr
    am_stimer_cmpr5_isr
    am_stimer_cmpr6_isr
    am_stimer_cmpr7_isr
    am_stimer_isr
    am_uart0_isr
    am_uart1_isr
    am_uart_isr
    am_vcomp_isr
    am_watchdog_isr
        0x0000c130:    e7fe        ..      B        am_adc_isr ; 0xc130
    $d
        0x0000c132:    0000        ..      DCW    0
        0x0000c134:    0000c139    9...    DCD    49465
    $t
    !!!main
    __main
        0x0000c138:    f000f802    ....    BL       __scatterload ; 0xc140
        0x0000c13c:    f000f83c    ..<.    BL       __rt_entry ; 0xc1b8
    !!!scatter
    __scatterload
    __scatterload_rt2
    __scatterload_rt2_thumb_only
        0x0000c140:    a00a        ..      ADR      r0,{pc}+0x2c ; 0xc16c
        0x0000c142:    e8900c00    ....    LDM      r0,{r10,r11}
        0x0000c146:    4482        .D      ADD      r10,r10,r0
        0x0000c148:    4483        .D      ADD      r11,r11,r0
        0x0000c14a:    f1aa0701    ....    SUB      r7,r10,#1
    __scatterload_null
        0x0000c14e:    45da        .E      CMP      r10,r11
        0x0000c150:    d101        ..      BNE      0xc156 ; __scatterload_null + 8
        0x0000c152:    f000f831    ..1.    BL       __rt_entry ; 0xc1b8
        0x0000c156:    f2af0e09    ....    ADR      lr,{pc}-7 ; 0xc14f
        0x0000c15a:    e8ba000f    ....    LDM      r10!,{r0-r3}
        0x0000c15e:    f0130f01    ....    TST      r3,#1
        0x0000c162:    bf18        ..      IT       NE
        0x0000c164:    1afb        ..      SUBNE    r3,r7,r3
        0x0000c166:    f0430301    C...    ORR      r3,r3,#1
        0x0000c16a:    4718        .G      BX       r3
    $d
        0x0000c16c:    00002840    @(..    DCD    10304
        0x0000c170:    00002860    `(..    DCD    10336
    $t
    !!handler_copy
    __scatterload_copy
        0x0000c174:    3a10        .:      SUBS     r2,r2,#0x10
        0x0000c176:    bf24        $.      ITT      CS
        0x0000c178:    c878        x.      LDMCS    r0!,{r3-r6}
        0x0000c17a:    c178        x.      STMCS    r1!,{r3-r6}
        0x0000c17c:    d8fa        ..      BHI      __scatterload_copy ; 0xc174
        0x0000c17e:    0752        R.      LSLS     r2,r2,#29
        0x0000c180:    bf24        $.      ITT      CS
        0x0000c182:    c830        0.      LDMCS    r0!,{r4,r5}
        0x0000c184:    c130        0.      STMCS    r1!,{r4,r5}
        0x0000c186:    bf44        D.      ITT      MI
        0x0000c188:    6804        .h      LDRMI    r4,[r0,#0]
        0x0000c18a:    600c        .`      STRMI    r4,[r1,#0]
        0x0000c18c:    4770        pG      BX       lr
        0x0000c18e:    0000        ..      MOVS     r0,r0
    !!handler_zi
    __scatterload_zeroinit
        0x0000c190:    2300        .#      MOVS     r3,#0
        0x0000c192:    2400        .$      MOVS     r4,#0
        0x0000c194:    2500        .%      MOVS     r5,#0
        0x0000c196:    2600        .&      MOVS     r6,#0
        0x0000c198:    3a10        .:      SUBS     r2,r2,#0x10
        0x0000c19a:    bf28        (.      IT       CS
        0x0000c19c:    c178        x.      STMCS    r1!,{r3-r6}
        0x0000c19e:    d8fb        ..      BHI      0xc198 ; __scatterload_zeroinit + 8
        0x0000c1a0:    0752        R.      LSLS     r2,r2,#29
        0x0000c1a2:    bf28        (.      IT       CS
        0x0000c1a4:    c130        0.      STMCS    r1!,{r4,r5}
        0x0000c1a6:    bf48        H.      IT       MI
        0x0000c1a8:    600b        .`      STRMI    r3,[r1,#0]
        0x0000c1aa:    4770        pG      BX       lr
    .ARM.Collect$$libinit$$00000000
    __rt_lib_init
        0x0000c1ac:    b51f        ..      PUSH     {r0-r4,lr}
    .ARM.Collect$$libinit$$00000001
    __rt_lib_init_fp_1
        0x0000c1ae:    f002f87e    ..~.    BL       _fp_init ; 0xe2ae
    .ARM.Collect$$libinit$$00000004
    .ARM.Collect$$libinit$$0000000A
    .ARM.Collect$$libinit$$0000000C
    .ARM.Collect$$libinit$$0000000E
    .ARM.Collect$$libinit$$00000011
    .ARM.Collect$$libinit$$00000013
    .ARM.Collect$$libinit$$00000015
    .ARM.Collect$$libinit$$00000017
    .ARM.Collect$$libinit$$00000019
    .ARM.Collect$$libinit$$0000001B
    .ARM.Collect$$libinit$$0000001D
    .ARM.Collect$$libinit$$0000001F
    .ARM.Collect$$libinit$$00000021
    .ARM.Collect$$libinit$$00000023
    .ARM.Collect$$libinit$$00000025
    .ARM.Collect$$libinit$$0000002C
    .ARM.Collect$$libinit$$0000002E
    .ARM.Collect$$libinit$$00000030
    .ARM.Collect$$libinit$$00000032
    .ARM.Collect$$libinit$$00000033
    __rt_lib_init_alloca_1
    __rt_lib_init_argv_1
    __rt_lib_init_atexit_1
    __rt_lib_init_clock_1
    __rt_lib_init_cpp_1
    __rt_lib_init_exceptions_1
    __rt_lib_init_fp_trap_1
    __rt_lib_init_getenv_1
    __rt_lib_init_heap_1
    __rt_lib_init_lc_collate_1
    __rt_lib_init_lc_ctype_1
    __rt_lib_init_lc_monetary_1
    __rt_lib_init_lc_numeric_1
    __rt_lib_init_lc_time_1
    __rt_lib_init_preinit_1
    __rt_lib_init_rand_1
    __rt_lib_init_return
    __rt_lib_init_signal_1
    __rt_lib_init_stdio_1
    __rt_lib_init_user_alloc_1
        0x0000c1b2:    bd1f        ..      POP      {r0-r4,pc}
    .ARM.Collect$$libshutdown$$00000000
    __rt_lib_shutdown
        0x0000c1b4:    b510        ..      PUSH     {r4,lr}
    .ARM.Collect$$libshutdown$$00000002
    .ARM.Collect$$libshutdown$$00000004
    .ARM.Collect$$libshutdown$$00000007
    .ARM.Collect$$libshutdown$$0000000A
    .ARM.Collect$$libshutdown$$0000000C
    .ARM.Collect$$libshutdown$$0000000F
    .ARM.Collect$$libshutdown$$00000010
    __rt_lib_shutdown_cpp_1
    __rt_lib_shutdown_fp_trap_1
    __rt_lib_shutdown_heap_1
    __rt_lib_shutdown_return
    __rt_lib_shutdown_signal_1
    __rt_lib_shutdown_stdio_1
    __rt_lib_shutdown_user_alloc_1
        0x0000c1b6:    bd10        ..      POP      {r4,pc}
    .ARM.Collect$$rtentry$$00000000
    .ARM.Collect$$rtentry$$00000002
    .ARM.Collect$$rtentry$$00000004
    __rt_entry
    __rt_entry_presh_1
    __rt_entry_sh
        0x0000c1b8:    f000f86d    ..m.    BL       __user_setup_stackheap ; 0xc296
        0x0000c1bc:    4611        .F      MOV      r1,r2
    .ARM.Collect$$rtentry$$00000009
    .ARM.Collect$$rtentry$$0000000A
    __rt_entry_li
    __rt_entry_postsh_1
        0x0000c1be:    f7fffff5    ....    BL       __rt_lib_init ; 0xc1ac
    .ARM.Collect$$rtentry$$0000000C
    .ARM.Collect$$rtentry$$0000000D
    __rt_entry_main
    __rt_entry_postli_1
        0x0000c1c2:    f001fd25    ..%.    BL       main ; 0xdc10
        0x0000c1c6:    f000f88b    ....    BL       exit ; 0xc2e0
    .ARM.Collect$$rtexit$$00000000
    __rt_exit
        0x0000c1ca:    b403        ..      PUSH     {r0,r1}
    .ARM.Collect$$rtexit$$00000002
    .ARM.Collect$$rtexit$$00000003
    __rt_exit_ls
    __rt_exit_prels_1
        0x0000c1cc:    f7fffff2    ....    BL       __rt_lib_shutdown ; 0xc1b4
    .ARM.Collect$$rtexit$$00000004
    __rt_exit_exit
        0x0000c1d0:    bc03        ..      POP      {r0,r1}
        0x0000c1d2:    f000f893    ....    BL       _sys_exit ; 0xc2fc
        0x0000c1d6:    0000        ..      MOVS     r0,r0
    .emb_text
    $v0
    HardFault_Handler
        0x0000c1d8:    b501        ..      PUSH     {r0,lr}
        0x0000c1da:    f01e0f04    ....    TST      lr,#4
        0x0000c1de:    bf0a        ..      ITET     EQ
        0x0000c1e0:    f3ef8008    ....    MRSEQ    r0,MSP
        0x0000c1e4:    f3ef8009    ....    MRSNE    r0,PSP
        0x0000c1e8:    f1100008    ....    ADDSEQ   r0,r0,#8
        0x0000c1ec:    f001f8d8    ....    BL       am_util_faultisr_collect_data ; 0xd3a0
        0x0000c1f0:    bd01        ..      POP      {r0,pc}
    getStackedReg
        0x0000c1f2:    0080        ..      LSLS     r0,r0,#2
        0x0000c1f4:    1840        @.      ADDS     r0,r0,r1
        0x0000c1f6:    6800        .h      LDR      r0,[r0,#0]
        0x0000c1f8:    4770        pG      BX       lr
        0x0000c1fa:    0000        ..      MOVS     r0,r0
    .emb_text
    $v0
    am_hal_interrupt_master_enable
        0x0000c1fc:    f3ef8010    ....    MRS      r0,PRIMASK
        0x0000c200:    b662        b.      CPSIE    i
        0x0000c202:    4770        pG      BX       lr
    am_hal_interrupt_master_disable
        0x0000c204:    f3ef8010    ....    MRS      r0,PRIMASK
        0x0000c208:    b672        r.      CPSID    i
        0x0000c20a:    4770        pG      BX       lr
    am_hal_interrupt_master_set
        0x0000c20c:    f3808810    ....    MSR      PRIMASK,r0
        0x0000c210:    4770        pG      BX       lr
        0x0000c212:    0000        ..      MOVS     r0,r0
    .text
    $v0
    __user_initial_stackheap
        0x0000c214:    4802        .H      LDR      r0,[pc,#8] ; [0xc220] = 0x100019d8
        0x0000c216:    4903        .I      LDR      r1,[pc,#12] ; [0xc224] = 0x10001078
        0x0000c218:    4a01        .J      LDR      r2,[pc,#4] ; [0xc220] = 0x100019d8
        0x0000c21a:    4b03        .K      LDR      r3,[pc,#12] ; [0xc228] = 0x10000078
        0x0000c21c:    4770        pG      BX       lr
    $d
        0x0000c21e:    0000        ..      DCW    0
        0x0000c220:    100019d8    ....    DCD    268442072
        0x0000c224:    10001078    x...    DCD    268439672
        0x0000c228:    10000078    x...    DCD    268435576
    $t
    .text
    __aeabi_memcpy4
    __aeabi_memcpy8
    __rt_memcpy_w
        0x0000c22c:    b510        ..      PUSH     {r4,lr}
        0x0000c22e:    3a20         :      SUBS     r2,r2,#0x20
        0x0000c230:    f0c0800b    ....    BCC.W    0xc24a ; __aeabi_memcpy4 + 30
        0x0000c234:    e8b15018    ...P    LDM      r1!,{r3,r4,r12,lr}
        0x0000c238:    3a20         :      SUBS     r2,r2,#0x20
        0x0000c23a:    e8a05018    ...P    STM      r0!,{r3,r4,r12,lr}
        0x0000c23e:    e8b15018    ...P    LDM      r1!,{r3,r4,r12,lr}
        0x0000c242:    e8a05018    ...P    STM      r0!,{r3,r4,r12,lr}
        0x0000c246:    f4bfaff5    ....    BCS.W    0xc234 ; __aeabi_memcpy4 + 8
        0x0000c24a:    ea5f7c02    _..|    LSLS     r12,r2,#28
        0x0000c24e:    bf24        $.      ITT      CS
        0x0000c250:    e8b15018    ...P    LDMCS    r1!,{r3,r4,r12,lr}
        0x0000c254:    e8a05018    ...P    STMCS    r0!,{r3,r4,r12,lr}
        0x0000c258:    bf44        D.      ITT      MI
        0x0000c25a:    c918        ..      LDMMI    r1!,{r3,r4}
        0x0000c25c:    c018        ..      STMMI    r0!,{r3,r4}
        0x0000c25e:    e8bd4010    ...@    POP      {r4,lr}
        0x0000c262:    ea5f7c82    _..|    LSLS     r12,r2,#30
        0x0000c266:    bf24        $.      ITT      CS
        0x0000c268:    f8513b04    Q..;    LDRCS    r3,[r1],#4
        0x0000c26c:    f8403b04    @..;    STRCS    r3,[r0],#4
        0x0000c270:    bf08        ..      IT       EQ
        0x0000c272:    4770        pG      BXEQ     lr
    _memcpy_lastbytes_aligned
        0x0000c274:    07d2        ..      LSLS     r2,r2,#31
        0x0000c276:    bf28        (.      IT       CS
        0x0000c278:    f8313b02    1..;    LDRHCS   r3,[r1],#2
        0x0000c27c:    bf48        H.      IT       MI
        0x0000c27e:    f8112b01    ...+    LDRBMI   r2,[r1],#1
        0x0000c282:    bf28        (.      IT       CS
        0x0000c284:    f8203b02     ..;    STRHCS   r3,[r0],#2
        0x0000c288:    bf48        H.      IT       MI
        0x0000c28a:    f8002b01    ...+    STRBMI   r2,[r0],#1
        0x0000c28e:    4770        pG      BX       lr
    .text
    __use_two_region_memory
        0x0000c290:    4770        pG      BX       lr
    __rt_heap_escrow$2region
        0x0000c292:    4770        pG      BX       lr
    __rt_heap_expand$2region
        0x0000c294:    4770        pG      BX       lr
    .text
    __user_setup_stackheap
        0x0000c296:    4675        uF      MOV      r5,lr
        0x0000c298:    f000f82c    ..,.    BL       __user_libspace ; 0xc2f4
        0x0000c29c:    46ae        .F      MOV      lr,r5
        0x0000c29e:    0005        ..      MOVS     r5,r0
        0x0000c2a0:    4669        iF      MOV      r1,sp
        0x0000c2a2:    4653        SF      MOV      r3,r10
        0x0000c2a4:    f0200007     ...    BIC      r0,r0,#7
        0x0000c2a8:    4685        .F      MOV      sp,r0
        0x0000c2aa:    b018        ..      ADD      sp,sp,#0x60
        0x0000c2ac:    b520         .      PUSH     {r5,lr}
        0x0000c2ae:    f7ffffb1    ....    BL       __user_initial_stackheap ; 0xc214
        0x0000c2b2:    e8bd4020    .. @    POP      {r5,lr}
        0x0000c2b6:    f04f0600    O...    MOV      r6,#0
        0x0000c2ba:    f04f0700    O...    MOV      r7,#0
        0x0000c2be:    f04f0800    O...    MOV      r8,#0
        0x0000c2c2:    f04f0b00    O...    MOV      r11,#0
        0x0000c2c6:    f0210107    !...    BIC      r1,r1,#7
        0x0000c2ca:    46ac        .F      MOV      r12,r5
        0x0000c2cc:    e8ac09c0    ....    STM      r12!,{r6-r8,r11}
        0x0000c2d0:    e8ac09c0    ....    STM      r12!,{r6-r8,r11}
        0x0000c2d4:    e8ac09c0    ....    STM      r12!,{r6-r8,r11}
        0x0000c2d8:    e8ac09c0    ....    STM      r12!,{r6-r8,r11}
        0x0000c2dc:    468d        .F      MOV      sp,r1
        0x0000c2de:    4770        pG      BX       lr
    .text
    exit
        0x0000c2e0:    b510        ..      PUSH     {r4,lr}
        0x0000c2e2:    4604        .F      MOV      r4,r0
        0x0000c2e4:    f3af8000    ....    NOP.W    
        0x0000c2e8:    4620         F      MOV      r0,r4
        0x0000c2ea:    e8bd4010    ...@    POP      {r4,lr}
        0x0000c2ee:    f7ffbf6c    ..l.    B.W      __rt_exit ; 0xc1ca
        0x0000c2f2:    0000        ..      MOVS     r0,r0
    .text
    __user_libspace
    __user_perproc_libspace
    __user_perthread_libspace
        0x0000c2f4:    4800        .H      LDR      r0,[pc,#0] ; [0xc2f8] = 0x10001978
        0x0000c2f6:    4770        pG      BX       lr
    $d
        0x0000c2f8:    10001978    x...    DCD    268441976
    $t
    .text
    _sys_exit
        0x0000c2fc:    4901        .I      LDR      r1,[pc,#4] ; [0xc304] = 0x20026
        0x0000c2fe:    2018        .       MOVS     r0,#0x18
        0x0000c300:    beab        ..      BKPT     #0xab
        0x0000c302:    e7fe        ..      B        0xc302 ; _sys_exit + 6
    $d
        0x0000c304:    00020026    &...    DCD    131110
    $t
    .text
    __I$use$semihosting
    __use_no_semihosting_swi
        0x0000c308:    4770        pG      BX       lr
    .text
    __semihosting_library_function
        0x0000c30a:    0000        ..      MOVS     r0,r0
    i.am_bsp_debug_printf_disable
    am_bsp_debug_printf_disable
        0x0000c30c:    b570        p.      PUSH     {r4-r6,lr}
        0x0000c30e:    4c15        .L      LDR      r4,[pc,#84] ; [0xc364] = 0x1000001c
        0x0000c310:    4d15        .M      LDR      r5,[pc,#84] ; [0xc368] = 0xe3fc
        0x0000c312:    6820         h      LDR      r0,[r4,#0]
        0x0000c314:    2801        .(      CMP      r0,#1
        0x0000c316:    d01a        ..      BEQ      0xc34e ; am_bsp_debug_printf_disable + 66
        0x0000c318:    2802        .(      CMP      r0,#2
        0x0000c31a:    bf18        ..      IT       NE
        0x0000c31c:    bd70        p.      POPNE    {r4-r6,pc}
        0x0000c31e:    6860        `h      LDR      r0,[r4,#4]
        0x0000c320:    f001f800    ....    BL       am_hal_uart_tx_flush ; 0xd324
        0x0000c324:    2000        .       MOVS     r0,#0
        0x0000c326:    f001f8af    ....    BL       am_util_stdio_printf_init ; 0xd488
        0x0000c32a:    2200        ."      MOVS     r2,#0
        0x0000c32c:    2102        .!      MOVS     r1,#2
        0x0000c32e:    6860        `h      LDR      r0,[r4,#4]
        0x0000c330:    f000ff82    ....    BL       am_hal_uart_power_control ; 0xd238
        0x0000c334:    6860        `h      LDR      r0,[r4,#4]
        0x0000c336:    f000ff67    ..g.    BL       am_hal_uart_deinitialize ; 0xd208
        0x0000c33a:    2016        .       MOVS     r0,#0x16
        0x0000c33c:    6829        )h      LDR      r1,[r5,#0]
        0x0000c33e:    f000fb45    ..E.    BL       am_hal_gpio_pinconfig ; 0xc9cc
        0x0000c342:    6829        )h      LDR      r1,[r5,#0]
        0x0000c344:    e8bd4070    ..p@    POP      {r4-r6,lr}
        0x0000c348:    2017        .       MOVS     r0,#0x17
        0x0000c34a:    f000bb3f    ..?.    B.W      am_hal_gpio_pinconfig ; 0xc9cc
        0x0000c34e:    f000fcbd    ....    BL       am_hal_itm_disable ; 0xcccc
        0x0000c352:    2000        .       MOVS     r0,#0
        0x0000c354:    f001f898    ....    BL       am_util_stdio_printf_init ; 0xd488
        0x0000c358:    6829        )h      LDR      r1,[r5,#0]
        0x0000c35a:    e8bd4070    ..p@    POP      {r4-r6,lr}
        0x0000c35e:    2029        )       MOVS     r0,#0x29
        0x0000c360:    f000bb34    ..4.    B.W      am_hal_gpio_pinconfig ; 0xc9cc
    $d
        0x0000c364:    1000001c    ....    DCD    268435484
        0x0000c368:    0000e3fc    ....    DCD    58364
    $t
    i.am_bsp_itm_printf_enable
    am_bsp_itm_printf_enable
        0x0000c36c:    b500        ..      PUSH     {lr}
        0x0000c36e:    490a        .I      LDR      r1,[pc,#40] ; [0xc398] = 0x1000001c
        0x0000c370:    b085        ..      SUB      sp,sp,#0x14
        0x0000c372:    2001        .       MOVS     r0,#1
        0x0000c374:    6008        .`      STR      r0,[r1,#0]
        0x0000c376:    f000fcff    ....    BL       am_hal_itm_enable ; 0xcd78
        0x0000c37a:    4808        .H      LDR      r0,[pc,#32] ; [0xc39c] = 0xf4240
        0x0000c37c:    9000        ..      STR      r0,[sp,#0]
        0x0000c37e:    4668        hF      MOV      r0,sp
        0x0000c380:    f000fefa    ....    BL       am_hal_tpiu_enable ; 0xd178
        0x0000c384:    4806        .H      LDR      r0,[pc,#24] ; [0xc3a0] = 0xe5e8
        0x0000c386:    6801        .h      LDR      r1,[r0,#0]
        0x0000c388:    2029        )       MOVS     r0,#0x29
        0x0000c38a:    f000fb1f    ....    BL       am_hal_gpio_pinconfig ; 0xc9cc
        0x0000c38e:    4805        .H      LDR      r0,[pc,#20] ; [0xc3a4] = 0xcdc1
        0x0000c390:    f001f87a    ..z.    BL       am_util_stdio_printf_init ; 0xd488
        0x0000c394:    b005        ..      ADD      sp,sp,#0x14
        0x0000c396:    bd00        ..      POP      {pc}
    $d
        0x0000c398:    1000001c    ....    DCD    268435484
        0x0000c39c:    000f4240    @B..    DCD    1000000
        0x0000c3a0:    0000e5e8    ....    DCD    58856
        0x0000c3a4:    0000cdc1    ....    DCD    52673
    $t
    i.am_bsp_low_power_init
    am_bsp_low_power_init
        0x0000c3a8:    e92d41f0    -..A    PUSH     {r4-r8,lr}
        0x0000c3ac:    f000fdbc    ....    BL       am_hal_pwrctrl_low_power_init ; 0xcf28
        0x0000c3b0:    f000fed8    ....    BL       am_hal_rtc_osc_disable ; 0xd164
        0x0000c3b4:    4f0b        .O      LDR      r7,[pc,#44] ; [0xc3e4] = 0x10000024
        0x0000c3b6:    4e0c        .N      LDR      r6,[pc,#48] ; [0xc3e8] = 0xe560
        0x0000c3b8:    2400        .$      MOVS     r4,#0
        0x0000c3ba:    bf00        ..      NOP      
        0x0000c3bc:    f8575034    W.4P    LDR      r5,[r7,r4,LSL #3]
        0x0000c3c0:    6831        1h      LDR      r1,[r6,#0]
        0x0000c3c2:    4628        (F      MOV      r0,r5
        0x0000c3c4:    f000fb02    ....    BL       am_hal_gpio_pinconfig ; 0xc9cc
        0x0000c3c8:    2103        .!      MOVS     r1,#3
        0x0000c3ca:    4628        (F      MOV      r0,r5
        0x0000c3cc:    f000fc3e    ..>.    BL       am_hal_gpio_state_write ; 0xcc4c
        0x0000c3d0:    2100        .!      MOVS     r1,#0
        0x0000c3d2:    4628        (F      MOV      r0,r5
        0x0000c3d4:    f000fc3a    ..:.    BL       am_hal_gpio_state_write ; 0xcc4c
        0x0000c3d8:    1c64        d.      ADDS     r4,r4,#1
        0x0000c3da:    2c05        .,      CMP      r4,#5
        0x0000c3dc:    d3ee        ..      BCC      0xc3bc ; am_bsp_low_power_init + 20
        0x0000c3de:    e8bd81f0    ....    POP      {r4-r8,pc}
    $d
        0x0000c3e2:    0000        ..      DCW    0
        0x0000c3e4:    10000024    $...    DCD    268435492
        0x0000c3e8:    0000e560    `...    DCD    58720
    $t
    i.am_hal_cachectrl_config
    am_hal_cachectrl_config
        0x0000c3ec:    b538        8.      PUSH     {r3-r5,lr}
        0x0000c3ee:    4604        .F      MOV      r4,r0
        0x0000c3f0:    f7ffff08    ....    BL       am_hal_interrupt_master_disable ; 0xc204
        0x0000c3f4:    4d0f        .M      LDR      r5,[pc,#60] ; [0xc434] = 0x40018000
        0x0000c3f6:    9000        ..      STR      r0,[sp,#0]
        0x0000c3f8:    6828        (h      LDR      r0,[r5,#0]
        0x0000c3fa:    f4207040     .@p    BIC      r0,r0,#0x300
        0x0000c3fe:    6028        (`      STR      r0,[r5,#0]
        0x0000c400:    9800        ..      LDR      r0,[sp,#0]
        0x0000c402:    f7ffff03    ....    BL       am_hal_interrupt_master_set ; 0xc20c
        0x0000c406:    78a0        .x      LDRB     r0,[r4,#2]
        0x0000c408:    2102        .!      MOVS     r1,#2
        0x0000c40a:    ea010040    ..@.    AND      r0,r1,r0,LSL #1
        0x0000c40e:    7821        !x      LDRB     r1,[r4,#0]
        0x0000c410:    22f0        ."      MOVS     r2,#0xf0
        0x0000c412:    ea021101    ....    AND      r1,r2,r1,LSL #4
        0x0000c416:    4308        .C      ORRS     r0,r0,r1
        0x0000c418:    7861        ax      LDRB     r1,[r4,#1]
        0x0000c41a:    f44f7240    O.@r    MOV      r2,#0x300
        0x0000c41e:    ea022101    ...!    AND      r1,r2,r1,LSL #8
        0x0000c422:    4308        .C      ORRS     r0,r0,r1
        0x0000c424:    f4406080    @..`    ORR      r0,r0,#0x400
        0x0000c428:    f4401080    @...    ORR      r0,r0,#0x100000
        0x0000c42c:    6028        (`      STR      r0,[r5,#0]
        0x0000c42e:    2000        .       MOVS     r0,#0
        0x0000c430:    bd38        8.      POP      {r3-r5,pc}
    $d
        0x0000c432:    0000        ..      DCW    0
        0x0000c434:    40018000    ...@    DCD    1073840128
    $t
    i.am_hal_cachectrl_control
    am_hal_cachectrl_control
        0x0000c438:    b538        8.      PUSH     {r3-r5,lr}
        0x0000c43a:    2812        .(      CMP      r0,#0x12
        0x0000c43c:    f080814a    ..J.    BCS.W    0xc6d4 ; am_hal_cachectrl_control + 668
        0x0000c440:    e8dff000    ....    TBB      [pc,r0]
    $d
        0x0000c444:    140b09fd    ....    DCD    336267773
        0x0000c448:    1e1c1a17    ....    DCD    505158167
        0x0000c44c:    3f332721    !'3?    DCD    1060316961
        0x0000c450:    fce1ab75    u...    DCD    4242647925
        0x0000c454:    fafb        ..      DCW    64251
    $t
        0x0000c456:    2001        .       MOVS     r0,#1
        0x0000c458:    e017        ..      B        0xc48a ; am_hal_cachectrl_control + 82
        0x0000c45a:    48a9        .H      LDR      r0,[pc,#676] ; [0xc700] = 0x40018000
        0x0000c45c:    6800        .h      LDR      r0,[r0,#0]
        0x0000c45e:    f0107f80    ....    TST      r0,#0x1000000
        0x0000c462:    bf0a        ..      ITET     EQ
        0x0000c464:    2007        .       MOVEQ    r0,#7
        0x0000c466:    2002        .       MOVNE    r0,#2
        0x0000c468:    bd38        8.      POPEQ    {r3-r5,pc}
        0x0000c46a:    e00e        ..      B        0xc48a ; am_hal_cachectrl_control + 82
        0x0000c46c:    f44f6088    O..`    MOV      r0,#0x440
        0x0000c470:    e00b        ..      B        0xc48a ; am_hal_cachectrl_control + 82
        0x0000c472:    f44f7008    O..p    MOV      r0,#0x220
        0x0000c476:    e008        ..      B        0xc48a ; am_hal_cachectrl_control + 82
        0x0000c478:    2040        @       MOVS     r0,#0x40
        0x0000c47a:    e006        ..      B        0xc48a ; am_hal_cachectrl_control + 82
        0x0000c47c:    2020                MOVS     r0,#0x20
        0x0000c47e:    e004        ..      B        0xc48a ; am_hal_cachectrl_control + 82
        0x0000c480:    f44f6080    O..`    MOV      r0,#0x400
        0x0000c484:    e001        ..      B        0xc48a ; am_hal_cachectrl_control + 82
        0x0000c486:    f44f7000    O..p    MOV      r0,#0x200
        0x0000c48a:    499d        .I      LDR      r1,[pc,#628] ; [0xc700] = 0x40018000
        0x0000c48c:    6088        .`      STR      r0,[r1,#8]
        0x0000c48e:    2000        .       MOVS     r0,#0
        0x0000c490:    bd38        8.      POP      {r3-r5,pc}
        0x0000c492:    f7fffeb7    ....    BL       am_hal_interrupt_master_disable ; 0xc204
        0x0000c496:    9000        ..      STR      r0,[sp,#0]
        0x0000c498:    4899        .H      LDR      r0,[pc,#612] ; [0xc700] = 0x40018000
        0x0000c49a:    6801        .h      LDR      r1,[r0,#0]
        0x0000c49c:    f0417180    A..q    ORR      r1,r1,#0x1000000
        0x0000c4a0:    6001        .`      STR      r1,[r0,#0]
        0x0000c4a2:    9800        ..      LDR      r0,[sp,#0]
        0x0000c4a4:    f7fffeb2    ....    BL       am_hal_interrupt_master_set ; 0xc20c
        0x0000c4a8:    e7f1        ..      B        0xc48e ; am_hal_cachectrl_control + 86
        0x0000c4aa:    f7fffeab    ....    BL       am_hal_interrupt_master_disable ; 0xc204
        0x0000c4ae:    9000        ..      STR      r0,[sp,#0]
        0x0000c4b0:    4893        .H      LDR      r0,[pc,#588] ; [0xc700] = 0x40018000
        0x0000c4b2:    6801        .h      LDR      r1,[r0,#0]
        0x0000c4b4:    f0217180    !..q    BIC      r1,r1,#0x1000000
        0x0000c4b8:    6001        .`      STR      r1,[r0,#0]
        0x0000c4ba:    9800        ..      LDR      r0,[sp,#0]
        0x0000c4bc:    f7fffea6    ....    BL       am_hal_interrupt_master_set ; 0xc20c
        0x0000c4c0:    e7e5        ..      B        0xc48e ; am_hal_cachectrl_control + 86
        0x0000c4c2:    4c90        .L      LDR      r4,[pc,#576] ; [0xc704] = 0x40018004
        0x0000c4c4:    f7fffe9e    ....    BL       am_hal_interrupt_master_disable ; 0xc204
        0x0000c4c8:    9000        ..      STR      r0,[sp,#0]
        0x0000c4ca:    4620         F      MOV      r0,r4
        0x0000c4cc:    f000f9fe    ....    BL       am_hal_flash_load_ui32 ; 0xc8cc
        0x0000c4d0:    f420507c     .|P    BIC      r0,r0,#0x3f00
        0x0000c4d4:    f44061e0    @..a    ORR      r1,r0,#0x700
        0x0000c4d8:    4620         F      MOV      r0,r4
        0x0000c4da:    f000f9fb    ....    BL       am_hal_flash_store_ui32 ; 0xc8d4
        0x0000c4de:    9800        ..      LDR      r0,[sp,#0]
        0x0000c4e0:    f7fffe94    ....    BL       am_hal_interrupt_master_set ; 0xc20c
        0x0000c4e4:    f7fffe8e    ....    BL       am_hal_interrupt_master_disable ; 0xc204
        0x0000c4e8:    9000        ..      STR      r0,[sp,#0]
        0x0000c4ea:    4620         F      MOV      r0,r4
        0x0000c4ec:    f000f9ee    ....    BL       am_hal_flash_load_ui32 ; 0xc8cc
        0x0000c4f0:    f4206077     .w`    BIC      r0,r0,#0xf70
        0x0000c4f4:    f44061ee    @..a    ORR      r1,r0,#0x770
        0x0000c4f8:    4620         F      MOV      r0,r4
        0x0000c4fa:    f000f9eb    ....    BL       am_hal_flash_store_ui32 ; 0xc8d4
        0x0000c4fe:    9800        ..      LDR      r0,[sp,#0]
        0x0000c500:    f7fffe84    ....    BL       am_hal_interrupt_master_set ; 0xc20c
        0x0000c504:    f7fffe7e    ..~.    BL       am_hal_interrupt_master_disable ; 0xc204
        0x0000c508:    9000        ..      STR      r0,[sp,#0]
        0x0000c50a:    4620         F      MOV      r0,r4
        0x0000c50c:    f000f9de    ....    BL       am_hal_flash_load_ui32 ; 0xc8cc
        0x0000c510:    f020000f     ...    BIC      r0,r0,#0xf
        0x0000c514:    f4206070     .p`    BIC      r0,r0,#0xf00
        0x0000c518:    f0400003    @...    ORR      r0,r0,#3
        0x0000c51c:    f44061e0    @..a    ORR      r1,r0,#0x700
        0x0000c520:    4620         F      MOV      r0,r4
        0x0000c522:    f000f9d7    ....    BL       am_hal_flash_store_ui32 ; 0xc8d4
        0x0000c526:    9800        ..      LDR      r0,[sp,#0]
        0x0000c528:    f7fffe70    ..p.    BL       am_hal_interrupt_master_set ; 0xc20c
        0x0000c52c:    e7af        ..      B        0xc48e ; am_hal_cachectrl_control + 86
        0x0000c52e:    4c75        uL      LDR      r4,[pc,#468] ; [0xc704] = 0x40018004
        0x0000c530:    f7fffe68    ..h.    BL       am_hal_interrupt_master_disable ; 0xc204
        0x0000c534:    9000        ..      STR      r0,[sp,#0]
        0x0000c536:    4620         F      MOV      r0,r4
        0x0000c538:    f000f9c8    ....    BL       am_hal_flash_load_ui32 ; 0xc8cc
        0x0000c53c:    f420507c     .|P    BIC      r0,r0,#0x3f00
        0x0000c540:    f44051b8    @..Q    ORR      r1,r0,#0x1700
        0x0000c544:    4620         F      MOV      r0,r4
        0x0000c546:    f000f9c5    ....    BL       am_hal_flash_store_ui32 ; 0xc8d4
        0x0000c54a:    9800        ..      LDR      r0,[sp,#0]
        0x0000c54c:    f7fffe5e    ..^.    BL       am_hal_interrupt_master_set ; 0xc20c
        0x0000c550:    f7fffe58    ..X.    BL       am_hal_interrupt_master_disable ; 0xc204
        0x0000c554:    9000        ..      STR      r0,[sp,#0]
        0x0000c556:    4620         F      MOV      r0,r4
        0x0000c558:    f000f9b8    ....    BL       am_hal_flash_load_ui32 ; 0xc8cc
        0x0000c55c:    f4206077     .w`    BIC      r0,r0,#0xf70
        0x0000c560:    f44061ea    @..a    ORR      r1,r0,#0x750
        0x0000c564:    4620         F      MOV      r0,r4
        0x0000c566:    f000f9b5    ....    BL       am_hal_flash_store_ui32 ; 0xc8d4
        0x0000c56a:    9800        ..      LDR      r0,[sp,#0]
        0x0000c56c:    f7fffe4e    ..N.    BL       am_hal_interrupt_master_set ; 0xc20c
        0x0000c570:    f7fffe48    ..H.    BL       am_hal_interrupt_master_disable ; 0xc204
        0x0000c574:    9000        ..      STR      r0,[sp,#0]
        0x0000c576:    4620         F      MOV      r0,r4
        0x0000c578:    f000f9a8    ....    BL       am_hal_flash_load_ui32 ; 0xc8cc
        0x0000c57c:    f020000f     ...    BIC      r0,r0,#0xf
        0x0000c580:    f4206070     .p`    BIC      r0,r0,#0xf00
        0x0000c584:    f0400001    @...    ORR      r0,r0,#1
        0x0000c588:    f44061e0    @..a    ORR      r1,r0,#0x700
        0x0000c58c:    4620         F      MOV      r0,r4
        0x0000c58e:    f000f9a1    ....    BL       am_hal_flash_store_ui32 ; 0xc8d4
        0x0000c592:    9800        ..      LDR      r0,[sp,#0]
        0x0000c594:    f7fffe3a    ..:.    BL       am_hal_interrupt_master_set ; 0xc20c
        0x0000c598:    e779        y.      B        0xc48e ; am_hal_cachectrl_control + 86
        0x0000c59a:    4c5a        ZL      LDR      r4,[pc,#360] ; [0xc704] = 0x40018004
        0x0000c59c:    f7fffe32    ..2.    BL       am_hal_interrupt_master_disable ; 0xc204
        0x0000c5a0:    9000        ..      STR      r0,[sp,#0]
        0x0000c5a2:    4620         F      MOV      r0,r4
        0x0000c5a4:    f000f992    ....    BL       am_hal_flash_load_ui32 ; 0xc8cc
        0x0000c5a8:    f420507c     .|P    BIC      r0,r0,#0x3f00
        0x0000c5ac:    f44051b8    @..Q    ORR      r1,r0,#0x1700
        0x0000c5b0:    4620         F      MOV      r0,r4
        0x0000c5b2:    f000f98f    ....    BL       am_hal_flash_store_ui32 ; 0xc8d4
        0x0000c5b6:    9800        ..      LDR      r0,[sp,#0]
        0x0000c5b8:    f7fffe28    ..(.    BL       am_hal_interrupt_master_set ; 0xc20c
        0x0000c5bc:    f7fffe22    ..".    BL       am_hal_interrupt_master_disable ; 0xc204
        0x0000c5c0:    9000        ..      STR      r0,[sp,#0]
        0x0000c5c2:    4620         F      MOV      r0,r4
        0x0000c5c4:    f000f982    ....    BL       am_hal_flash_load_ui32 ; 0xc8cc
        0x0000c5c8:    f4206077     .w`    BIC      r0,r0,#0xf70
        0x0000c5cc:    f44061ec    @..a    ORR      r1,r0,#0x760
        0x0000c5d0:    4620         F      MOV      r0,r4
        0x0000c5d2:    f000f97f    ....    BL       am_hal_flash_store_ui32 ; 0xc8d4
        0x0000c5d6:    9800        ..      LDR      r0,[sp,#0]
        0x0000c5d8:    f7fffe18    ....    BL       am_hal_interrupt_master_set ; 0xc20c
        0x0000c5dc:    f7fffe12    ....    BL       am_hal_interrupt_master_disable ; 0xc204
        0x0000c5e0:    9000        ..      STR      r0,[sp,#0]
        0x0000c5e2:    4620         F      MOV      r0,r4
        0x0000c5e4:    f000f972    ..r.    BL       am_hal_flash_load_ui32 ; 0xc8cc
        0x0000c5e8:    f020000f     ...    BIC      r0,r0,#0xf
        0x0000c5ec:    f4206070     .p`    BIC      r0,r0,#0xf00
        0x0000c5f0:    f0400001    @...    ORR      r0,r0,#1
        0x0000c5f4:    f44061e0    @..a    ORR      r1,r0,#0x700
        0x0000c5f8:    4620         F      MOV      r0,r4
        0x0000c5fa:    f000f96b    ..k.    BL       am_hal_flash_store_ui32 ; 0xc8d4
        0x0000c5fe:    9800        ..      LDR      r0,[sp,#0]
        0x0000c600:    f7fffe04    ....    BL       am_hal_interrupt_master_set ; 0xc20c
        0x0000c604:    e743        C.      B        0xc48e ; am_hal_cachectrl_control + 86
        0x0000c606:    2900        .)      CMP      r1,#0
        0x0000c608:    d064        d.      BEQ      0xc6d4 ; am_hal_cachectrl_control + 668
        0x0000c60a:    680c        .h      LDR      r4,[r1,#0]
        0x0000c60c:    2c03        .,      CMP      r4,#3
        0x0000c60e:    d839        9.      BHI      0xc684 ; am_hal_cachectrl_control + 588
        0x0000c610:    4d3c        <M      LDR      r5,[pc,#240] ; [0xc704] = 0x40018004
        0x0000c612:    f7fffdf7    ....    BL       am_hal_interrupt_master_disable ; 0xc204
        0x0000c616:    9000        ..      STR      r0,[sp,#0]
        0x0000c618:    4628        (F      MOV      r0,r5
        0x0000c61a:    f000f957    ..W.    BL       am_hal_flash_load_ui32 ; 0xc8cc
        0x0000c61e:    f44f5140    O.@Q    MOV      r1,#0x3000
        0x0000c622:    f420507c     .|P    BIC      r0,r0,#0x3f00
        0x0000c626:    ea013104    ...1    AND      r1,r1,r4,LSL #12
        0x0000c62a:    4308        .C      ORRS     r0,r0,r1
        0x0000c62c:    f44061e0    @..a    ORR      r1,r0,#0x700
        0x0000c630:    4628        (F      MOV      r0,r5
        0x0000c632:    f000f94f    ..O.    BL       am_hal_flash_store_ui32 ; 0xc8d4
        0x0000c636:    e003        ..      B        0xc640 ; am_hal_cachectrl_control + 520
        0x0000c638:    e03e        >.      B        0xc6b8 ; am_hal_cachectrl_control + 640
        0x0000c63a:    e01f        ..      B        0xc67c ; am_hal_cachectrl_control + 580
        0x0000c63c:    e004        ..      B        0xc648 ; am_hal_cachectrl_control + 528
        0x0000c63e:    e03a        :.      B        0xc6b6 ; am_hal_cachectrl_control + 638
        0x0000c640:    9800        ..      LDR      r0,[sp,#0]
        0x0000c642:    f7fffde3    ....    BL       am_hal_interrupt_master_set ; 0xc20c
        0x0000c646:    e722        ".      B        0xc48e ; am_hal_cachectrl_control + 86
        0x0000c648:    b3a9        ..      CBZ      r1,0xc6b6 ; am_hal_cachectrl_control + 638
        0x0000c64a:    680c        .h      LDR      r4,[r1,#0]
        0x0000c64c:    2c07        .,      CMP      r4,#7
        0x0000c64e:    d819        ..      BHI      0xc684 ; am_hal_cachectrl_control + 588
        0x0000c650:    4d2c        ,M      LDR      r5,[pc,#176] ; [0xc704] = 0x40018004
        0x0000c652:    f7fffdd7    ....    BL       am_hal_interrupt_master_disable ; 0xc204
        0x0000c656:    9000        ..      STR      r0,[sp,#0]
        0x0000c658:    4628        (F      MOV      r0,r5
        0x0000c65a:    f000f937    ..7.    BL       am_hal_flash_load_ui32 ; 0xc8cc
        0x0000c65e:    2170        p!      MOVS     r1,#0x70
        0x0000c660:    f4206077     .w`    BIC      r0,r0,#0xf70
        0x0000c664:    ea011104    ....    AND      r1,r1,r4,LSL #4
        0x0000c668:    4308        .C      ORRS     r0,r0,r1
        0x0000c66a:    f44061e0    @..a    ORR      r1,r0,#0x700
        0x0000c66e:    4628        (F      MOV      r0,r5
        0x0000c670:    f000f930    ..0.    BL       am_hal_flash_store_ui32 ; 0xc8d4
        0x0000c674:    9800        ..      LDR      r0,[sp,#0]
        0x0000c676:    f7fffdc9    ....    BL       am_hal_interrupt_master_set ; 0xc20c
        0x0000c67a:    e708        ..      B        0xc48e ; am_hal_cachectrl_control + 86
        0x0000c67c:    b1d9        ..      CBZ      r1,0xc6b6 ; am_hal_cachectrl_control + 638
        0x0000c67e:    680c        .h      LDR      r4,[r1,#0]
        0x0000c680:    2c0f        .,      CMP      r4,#0xf
        0x0000c682:    d901        ..      BLS      0xc688 ; am_hal_cachectrl_control + 592
        0x0000c684:    2001        .       MOVS     r0,#1
        0x0000c686:    bd38        8.      POP      {r3-r5,pc}
        0x0000c688:    4d1e        .M      LDR      r5,[pc,#120] ; [0xc704] = 0x40018004
        0x0000c68a:    f7fffdbb    ....    BL       am_hal_interrupt_master_disable ; 0xc204
        0x0000c68e:    9000        ..      STR      r0,[sp,#0]
        0x0000c690:    4628        (F      MOV      r0,r5
        0x0000c692:    f000f91b    ....    BL       am_hal_flash_load_ui32 ; 0xc8cc
        0x0000c696:    f020000f     ...    BIC      r0,r0,#0xf
        0x0000c69a:    f4206070     .p`    BIC      r0,r0,#0xf00
        0x0000c69e:    f004010f    ....    AND      r1,r4,#0xf
        0x0000c6a2:    4308        .C      ORRS     r0,r0,r1
        0x0000c6a4:    f44061e0    @..a    ORR      r1,r0,#0x700
        0x0000c6a8:    4628        (F      MOV      r0,r5
        0x0000c6aa:    f000f913    ....    BL       am_hal_flash_store_ui32 ; 0xc8d4
        0x0000c6ae:    9800        ..      LDR      r0,[sp,#0]
        0x0000c6b0:    f7fffdac    ....    BL       am_hal_interrupt_master_set ; 0xc20c
        0x0000c6b4:    e6eb        ..      B        0xc48e ; am_hal_cachectrl_control + 86
        0x0000c6b6:    e00d        ..      B        0xc6d4 ; am_hal_cachectrl_control + 668
        0x0000c6b8:    b161        a.      CBZ      r1,0xc6d4 ; am_hal_cachectrl_control + 668
        0x0000c6ba:    6848        Hh      LDR      r0,[r1,#4]
        0x0000c6bc:    4602        .F      MOV      r2,r0
        0x0000c6be:    f36f121a    o...    BFC      r2,#4,#23
        0x0000c6c2:    b93a        :.      CBNZ     r2,0xc6d4 ; am_hal_cachectrl_control + 668
        0x0000c6c4:    688a        .h      LDR      r2,[r1,#8]
        0x0000c6c6:    f36f121a    o...    BFC      r2,#4,#23
        0x0000c6ca:    b91a        ..      CBNZ     r2,0xc6d4 ; am_hal_cachectrl_control + 668
        0x0000c6cc:    780a        .x      LDRB     r2,[r1,#0]
        0x0000c6ce:    b11a        ..      CBZ      r2,0xc6d8 ; am_hal_cachectrl_control + 672
        0x0000c6d0:    2a01        .*      CMP      r2,#1
        0x0000c6d2:    d00a        ..      BEQ      0xc6ea ; am_hal_cachectrl_control + 690
        0x0000c6d4:    2006        .       MOVS     r0,#6
        0x0000c6d6:    bd38        8.      POP      {r3-r5,pc}
        0x0000c6d8:    4a09        .J      LDR      r2,[pc,#36] ; [0xc700] = 0x40018000
        0x0000c6da:    6110        .a      STR      r0,[r2,#0x10]
        0x0000c6dc:    6888        .h      LDR      r0,[r1,#8]
        0x0000c6de:    6150        Pa      STR      r0,[r2,#0x14]
        0x0000c6e0:    7849        Ix      LDRB     r1,[r1,#1]
        0x0000c6e2:    6810        .h      LDR      r0,[r2,#0]
        0x0000c6e4:    f3610082    a...    BFI      r0,r1,#2,#1
        0x0000c6e8:    e007        ..      B        0xc6fa ; am_hal_cachectrl_control + 706
        0x0000c6ea:    4a05        .J      LDR      r2,[pc,#20] ; [0xc700] = 0x40018000
        0x0000c6ec:    6190        .a      STR      r0,[r2,#0x18]
        0x0000c6ee:    6888        .h      LDR      r0,[r1,#8]
        0x0000c6f0:    61d0        .a      STR      r0,[r2,#0x1c]
        0x0000c6f2:    7849        Ix      LDRB     r1,[r1,#1]
        0x0000c6f4:    6810        .h      LDR      r0,[r2,#0]
        0x0000c6f6:    f36100c3    a...    BFI      r0,r1,#3,#1
        0x0000c6fa:    6010        .`      STR      r0,[r2,#0]
        0x0000c6fc:    e6c7        ..      B        0xc48e ; am_hal_cachectrl_control + 86
    $d
        0x0000c6fe:    0000        ..      DCW    0
        0x0000c700:    40018000    ...@    DCD    1073840128
        0x0000c704:    40018004    ...@    DCD    1073840132
    $t
    i.am_hal_cachectrl_enable
    am_hal_cachectrl_enable
        0x0000c708:    4803        .H      LDR      r0,[pc,#12] ; [0xc718] = 0x40018000
        0x0000c70a:    6801        .h      LDR      r1,[r0,#0]
        0x0000c70c:    f0410101    A...    ORR      r1,r1,#1
        0x0000c710:    6001        .`      STR      r1,[r0,#0]
        0x0000c712:    2000        .       MOVS     r0,#0
        0x0000c714:    4770        pG      BX       lr
    $d
        0x0000c716:    0000        ..      DCW    0
        0x0000c718:    40018000    ...@    DCD    1073840128
    $t
    i.am_hal_clkgen_control
    am_hal_clkgen_control
        0x0000c71c:    b510        ..      PUSH     {r4,lr}
        0x0000c71e:    460c        .F      MOV      r4,r1
        0x0000c720:    4939        9I      LDR      r1,[pc,#228] ; [0xc808] = 0x10000074
        0x0000c722:    680a        .h      LDR      r2,[r1,#0]
        0x0000c724:    b912        ..      CBNZ     r2,0xc72c ; am_hal_clkgen_control + 16
        0x0000c726:    4a39        9J      LDR      r2,[pc,#228] ; [0xc80c] = 0x4ffff000
        0x0000c728:    6812        .h      LDR      r2,[r2,#0]
        0x0000c72a:    600a        .`      STR      r2,[r1,#0]
        0x0000c72c:    280a        .(      CMP      r0,#0xa
        0x0000c72e:    d269        i.      BCS      0xc804 ; am_hal_clkgen_control + 232
        0x0000c730:    e8dff000    ....    TBB      [pc,r0]
    $d
        0x0000c734:    27151b05    ...'    DCD    655694597
        0x0000c738:    3a400c21    !.@:    DCD    977275937
        0x0000c73c:    6047        G`      DCW    24647
    $t
        0x0000c73e:    f04f2040    O.@     MOV      r0,#0x40004000
        0x0000c742:    2147        G!      MOVS     r1,#0x47
        0x0000c744:    6141        Aa      STR      r1,[r0,#0x14]
        0x0000c746:    2100        .!      MOVS     r1,#0
        0x0000c748:    6181        .a      STR      r1,[r0,#0x18]
        0x0000c74a:    e006        ..      B        0xc75a ; am_hal_clkgen_control + 62
        0x0000c74c:    f04f2040    O.@     MOV      r0,#0x40004000
        0x0000c750:    2147        G!      MOVS     r1,#0x47
        0x0000c752:    6141        Aa      STR      r1,[r0,#0x14]
        0x0000c754:    2101        .!      MOVS     r1,#1
        0x0000c756:    6181        .a      STR      r1,[r0,#0x18]
        0x0000c758:    2100        .!      MOVS     r1,#0
        0x0000c75a:    6141        Aa      STR      r1,[r0,#0x14]
        0x0000c75c:    e050        P.      B        0xc800 ; am_hal_clkgen_control + 228
        0x0000c75e:    f04f2040    O.@     MOV      r0,#0x40004000
        0x0000c762:    68c1        .h      LDR      r1,[r0,#0xc]
        0x0000c764:    f0210102    !...    BIC      r1,r1,#2
        0x0000c768:    e029        ).      B        0xc7be ; am_hal_clkgen_control + 162
        0x0000c76a:    f04f2040    O.@     MOV      r0,#0x40004000
        0x0000c76e:    68c1        .h      LDR      r1,[r0,#0xc]
        0x0000c770:    f0210101    !...    BIC      r1,r1,#1
        0x0000c774:    e023        #.      B        0xc7be ; am_hal_clkgen_control + 162
        0x0000c776:    f04f2040    O.@     MOV      r0,#0x40004000
        0x0000c77a:    68c1        .h      LDR      r1,[r0,#0xc]
        0x0000c77c:    f0410102    A...    ORR      r1,r1,#2
        0x0000c780:    e01d        ..      B        0xc7be ; am_hal_clkgen_control + 162
        0x0000c782:    4823        #H      LDR      r0,[pc,#140] ; [0xc810] = 0x40020000
        0x0000c784:    68c1        .h      LDR      r1,[r0,#0xc]
        0x0000c786:    b2c9        ..      UXTB     r1,r1
        0x0000c788:    2921        !)      CMP      r1,#0x21
        0x0000c78a:    d107        ..      BNE      0xc79c ; am_hal_clkgen_control + 128
        0x0000c78c:    f8d01120    .. .    LDR      r1,[r0,#0x120]
        0x0000c790:    f4217140    !.@q    BIC      r1,r1,#0x300
        0x0000c794:    f5017180    ...q    ADD      r1,r1,#0x100
        0x0000c798:    f8c01120    .. .    STR      r1,[r0,#0x120]
        0x0000c79c:    f04f2040    O.@     MOV      r0,#0x40004000
        0x0000c7a0:    68c1        .h      LDR      r1,[r0,#0xc]
        0x0000c7a2:    f0410101    A...    ORR      r1,r1,#1
        0x0000c7a6:    e00a        ..      B        0xc7be ; am_hal_clkgen_control + 162
        0x0000c7a8:    f04f2040    O.@     MOV      r0,#0x40004000
        0x0000c7ac:    68c1        .h      LDR      r1,[r0,#0xc]
        0x0000c7ae:    f0410180    A...    ORR      r1,r1,#0x80
        0x0000c7b2:    e004        ..      B        0xc7be ; am_hal_clkgen_control + 162
        0x0000c7b4:    f04f2040    O.@     MOV      r0,#0x40004000
        0x0000c7b8:    68c1        .h      LDR      r1,[r0,#0xc]
        0x0000c7ba:    f0210180    !...    BIC      r1,r1,#0x80
        0x0000c7be:    60c1        .`      STR      r1,[r0,#0xc]
        0x0000c7c0:    e01e        ..      B        0xc800 ; am_hal_clkgen_control + 228
        0x0000c7c2:    4813        .H      LDR      r0,[pc,#76] ; [0xc810] = 0x40020000
        0x0000c7c4:    68c1        .h      LDR      r1,[r0,#0xc]
        0x0000c7c6:    b2c9        ..      UXTB     r1,r1
        0x0000c7c8:    2921        !)      CMP      r1,#0x21
        0x0000c7ca:    d109        ..      BNE      0xc7e0 ; am_hal_clkgen_control + 196
        0x0000c7cc:    f8d01120    .. .    LDR      r1,[r0,#0x120]
        0x0000c7d0:    f4417140    A.@q    ORR      r1,r1,#0x300
        0x0000c7d4:    f8c01120    .. .    STR      r1,[r0,#0x120]
        0x0000c7d8:    f44f507a    O.zP    MOV      r0,#0x3e80
        0x0000c7dc:    f000f836    ..6.    BL       am_hal_flash_delay ; 0xc84c
        0x0000c7e0:    2c00        .,      CMP      r4,#0
        0x0000c7e2:    bf0c        ..      ITE      EQ
        0x0000c7e4:    480b        .H      LDREQ    r0,[pc,#44] ; [0xc814] = 0x25b801
        0x0000c7e6:    6820         h      LDRNE    r0,[r4,#0]
        0x0000c7e8:    f0400001    @...    ORR      r0,r0,#1
        0x0000c7ec:    f04f2140    O.@!    MOV      r1,#0x40004000
        0x0000c7f0:    6208        .b      STR      r0,[r1,#0x20]
        0x0000c7f2:    e005        ..      B        0xc800 ; am_hal_clkgen_control + 228
        0x0000c7f4:    f04f2040    O.@     MOV      r0,#0x40004000
        0x0000c7f8:    6a01        .j      LDR      r1,[r0,#0x20]
        0x0000c7fa:    f0210101    !...    BIC      r1,r1,#1
        0x0000c7fe:    6201        .b      STR      r1,[r0,#0x20]
        0x0000c800:    2000        .       MOVS     r0,#0
        0x0000c802:    bd10        ..      POP      {r4,pc}
        0x0000c804:    2006        .       MOVS     r0,#6
        0x0000c806:    bd10        ..      POP      {r4,pc}
    $d
        0x0000c808:    10000074    t...    DCD    268435572
        0x0000c80c:    4ffff000    ...O    DCD    1342173184
        0x0000c810:    40020000    ...@    DCD    1073872896
        0x0000c814:    0025b801    ..%.    DCD    2471937
    $t
    i.am_hal_clkgen_status_get
    am_hal_clkgen_status_get
        0x0000c818:    2800        .(      CMP      r0,#0
        0x0000c81a:    bf04        ..      ITT      EQ
        0x0000c81c:    2006        .       MOVEQ    r0,#6
        0x0000c81e:    4770        pG      BXEQ     lr
        0x0000c820:    f04f2140    O.@!    MOV      r1,#0x40004000
        0x0000c824:    698a        .i      LDR      r2,[r1,#0x18]
        0x0000c826:    f0120f01    ....    TST      r2,#1
        0x0000c82a:    bf14        ..      ITE      NE
        0x0000c82c:    4a05        .J      LDRNE    r2,[pc,#20] ; [0xc844] = 0x16e3600
        0x0000c82e:    4a06        .J      LDREQ    r2,[pc,#24] ; [0xc848] = 0x2dc6c00
        0x0000c830:    6002        .`      STR      r2,[r0,#0]
        0x0000c832:    69c9        .i      LDR      r1,[r1,#0x1c]
        0x0000c834:    f0010201    ....    AND      r2,r1,#1
        0x0000c838:    f3c10140    ..@.    UBFX     r1,r1,#1,#1
        0x0000c83c:    6042        B`      STR      r2,[r0,#4]
        0x0000c83e:    7201        .r      STRB     r1,[r0,#8]
        0x0000c840:    2000        .       MOVS     r0,#0
        0x0000c842:    4770        pG      BX       lr
    $d
        0x0000c844:    016e3600    .6n.    DCD    24000000
        0x0000c848:    02dc6c00    .l..    DCD    48000000
    $t
    i.am_hal_flash_delay
    am_hal_flash_delay
        0x0000c84c:    f04f2140    O.@!    MOV      r1,#0x40004000
        0x0000c850:    6b49        Ik      LDR      r1,[r1,#0x34]
        0x0000c852:    f0110f04    ....    TST      r1,#4
        0x0000c856:    bf1a        ..      ITTE     NE
        0x0000c858:    0040        @.      LSLNE    r0,r0,#1
        0x0000c85a:    210e        .!      MOVNE    r1,#0xe
        0x0000c85c:    210b        .!      MOVEQ    r1,#0xb
        0x0000c85e:    4288        .B      CMP      r0,r1
        0x0000c860:    bf98        ..      IT       LS
        0x0000c862:    4770        pG      BXLS     lr
        0x0000c864:    1a40        @.      SUBS     r0,r0,r1
        0x0000c866:    4901        .I      LDR      r1,[pc,#4] ; [0xc86c] = 0x800009d
        0x0000c868:    4708        .G      BX       r1
    $d
        0x0000c86a:    0000        ..      DCW    0
        0x0000c86c:    0800009d    ....    DCD    134217885
    $t
    i.am_hal_flash_delay_status_check
    am_hal_flash_delay_status_check
        0x0000c870:    e92d47f0    -..G    PUSH     {r4-r10,lr}
        0x0000c874:    f8dfa050    ..P.    LDR      r10,[pc,#80] ; [0xc8c8] = 0x800009d
        0x0000c878:    f8dd8020    .. .    LDR      r8,[sp,#0x20]
        0x0000c87c:    461c        .F      MOV      r4,r3
        0x0000c87e:    4615        .F      MOV      r5,r2
        0x0000c880:    460e        .F      MOV      r6,r1
        0x0000c882:    4607        .F      MOV      r7,r0
        0x0000c884:    f04f2940    O.@)    MOV      r9,#0x40004000
        0x0000c888:    6830        0h      LDR      r0,[r6,#0]
        0x0000c88a:    f1b80f00    ....    CMP      r8,#0
        0x0000c88e:    ea000005    ....    AND      r0,r0,r5
        0x0000c892:    d002        ..      BEQ      0xc89a ; am_hal_flash_delay_status_check + 42
        0x0000c894:    42a0        .B      CMP      r0,r4
        0x0000c896:    d002        ..      BEQ      0xc89e ; am_hal_flash_delay_status_check + 46
        0x0000c898:    e004        ..      B        0xc8a4 ; am_hal_flash_delay_status_check + 52
        0x0000c89a:    42a0        .B      CMP      r0,r4
        0x0000c89c:    d002        ..      BEQ      0xc8a4 ; am_hal_flash_delay_status_check + 52
        0x0000c89e:    2000        .       MOVS     r0,#0
        0x0000c8a0:    e8bd87f0    ....    POP      {r4-r10,pc}
        0x0000c8a4:    1e7f        ..      SUBS     r7,r7,#1
        0x0000c8a6:    d30b        ..      BCC      0xc8c0 ; am_hal_flash_delay_status_check + 80
        0x0000c8a8:    f8d91034    ..4.    LDR      r1,[r9,#0x34]
        0x0000c8ac:    2010        .       MOVS     r0,#0x10
        0x0000c8ae:    f0110f04    ....    TST      r1,#4
        0x0000c8b2:    bf1a        ..      ITTE     NE
        0x0000c8b4:    2020                MOVNE    r0,#0x20
        0x0000c8b6:    210e        .!      MOVNE    r1,#0xe
        0x0000c8b8:    210b        .!      MOVEQ    r1,#0xb
        0x0000c8ba:    1a40        @.      SUBS     r0,r0,r1
        0x0000c8bc:    47d0        .G      BLX      r10
        0x0000c8be:    e7e3        ..      B        0xc888 ; am_hal_flash_delay_status_check + 24
        0x0000c8c0:    2004        .       MOVS     r0,#4
        0x0000c8c2:    e8bd87f0    ....    POP      {r4-r10,pc}
    $d
        0x0000c8c6:    0000        ..      DCW    0
        0x0000c8c8:    0800009d    ....    DCD    134217885
    $t
    i.am_hal_flash_load_ui32
    am_hal_flash_load_ui32
        0x0000c8cc:    4900        .I      LDR      r1,[pc,#0] ; [0xc8d0] = 0x8000075
        0x0000c8ce:    4708        .G      BX       r1
    $d
        0x0000c8d0:    08000075    u...    DCD    134217845
    $t
    i.am_hal_flash_store_ui32
    am_hal_flash_store_ui32
        0x0000c8d4:    b500        ..      PUSH     {lr}
        0x0000c8d6:    f8dfc020    .. .    LDR      r12,[pc,#32] ; [0xc8f8] = 0xe3f0
        0x0000c8da:    b083        ..      SUB      sp,sp,#0xc
        0x0000c8dc:    e9dc2300    ...#    LDRD     r2,r3,[r12,#0]
        0x0000c8e0:    f8dcc008    ....    LDR      r12,[r12,#8]
        0x0000c8e4:    e9cd2300    ...#    STRD     r2,r3,[sp,#0]
        0x0000c8e8:    466a        jF      MOV      r2,sp
        0x0000c8ea:    f8cdc008    ....    STR      r12,[sp,#8]
        0x0000c8ee:    f0420201    B...    ORR      r2,r2,#1
        0x0000c8f2:    4790        .G      BLX      r2
        0x0000c8f4:    b003        ..      ADD      sp,sp,#0xc
        0x0000c8f6:    bd00        ..      POP      {pc}
    $d
        0x0000c8f8:    0000e3f0    ....    DCD    58352
    $t
    i.am_hal_gpio_fast_pinconfig
    am_hal_gpio_fast_pinconfig
        0x0000c8fc:    e92d4ff8    -..O    PUSH     {r3-r11,lr}
        0x0000c900:    460c        .F      MOV      r4,r1
        0x0000c902:    4605        .F      MOV      r5,r0
        0x0000c904:    f36f0111    o...    BFC      r1,#0,#18
        0x0000c908:    4698        .F      MOV      r8,r3
        0x0000c90a:    0008        ..      MOVS     r0,r1
        0x0000c90c:    d15a        Z.      BNE      0xc9c4 ; am_hal_gpio_fast_pinconfig + 200
        0x0000c90e:    4621        !F      MOV      r1,r4
        0x0000c910:    4628        (F      MOV      r0,r5
        0x0000c912:    f04f0c00    O...    MOV      r12,#0
        0x0000c916:    ea550301    U...    ORRS     r3,r5,r1
        0x0000c91a:    d00c        ..      BEQ      0xc936 ; am_hal_gpio_fast_pinconfig + 58
        0x0000c91c:    f0000301    ....    AND      r3,r0,#1
        0x0000c920:    eb130c0c    ....    ADDS     r12,r3,r12
        0x0000c924:    0849        I.      LSRS     r1,r1,#1
        0x0000c926:    ea4f0030    O.0.    RRX      r0,r0
        0x0000c92a:    ea500301    P...    ORRS     r3,r0,r1
        0x0000c92e:    d1f5        ..      BNE      0xc91c ; am_hal_gpio_fast_pinconfig + 32
        0x0000c930:    f1bc0f08    ....    CMP      r12,#8
        0x0000c934:    d846        F.      BHI      0xc9c4 ; am_hal_gpio_fast_pinconfig + 200
        0x0000c936:    f3c22081    ...     UBFX     r0,r2,#10,#2
        0x0000c93a:    9200        ..      STR      r2,[sp,#0]
        0x0000c93c:    2803        .(      CMP      r0,#3
        0x0000c93e:    d041        A.      BEQ      0xc9c4 ; am_hal_gpio_fast_pinconfig + 200
        0x0000c940:    f04f0900    O...    MOV      r9,#0
        0x0000c944:    464e        NF      MOV      r6,r9
        0x0000c946:    464f        OF      MOV      r7,r9
        0x0000c948:    ea550004    U...    ORRS     r0,r5,r4
        0x0000c94c:    bf1c        ..      ITT      NE
        0x0000c94e:    f04f0a01    O...    MOVNE    r10,#1
        0x0000c952:    f04f0b04    O...    MOVNE    r11,#4
        0x0000c956:    d032        2.      BEQ      0xc9be ; am_hal_gpio_fast_pinconfig + 194
        0x0000c958:    f0150f01    ....    TST      r5,#1
        0x0000c95c:    d028        (.      BEQ      0xc9b0 ; am_hal_gpio_fast_pinconfig + 180
        0x0000c95e:    4630        0F      MOV      r0,r6
        0x0000c960:    9900        ..      LDR      r1,[sp,#0]
        0x0000c962:    f000f833    ..3.    BL       am_hal_gpio_pinconfig ; 0xc9cc
        0x0000c966:    2800        .(      CMP      r0,#0
        0x0000c968:    bf18        ..      IT       NE
        0x0000c96a:    e8bd8ff8    ....    POPNE    {r3-r11,pc}
        0x0000c96e:    f0060007    ....    AND      r0,r6,#7
        0x0000c972:    fa0af000    ....    LSL      r0,r10,r0
        0x0000c976:    ea0b01d6    ....    AND      r1,r11,r6,LSR #3
        0x0000c97a:    ea400909    @...    ORR      r9,r0,r9
        0x0000c97e:    f1014180    ...A    ADD      r1,r1,#0x40000000
        0x0000c982:    f006001f    ....    AND      r0,r6,#0x1f
        0x0000c986:    f5013180    ...1    ADD      r1,r1,#0x10000
        0x0000c98a:    fa0af000    ....    LSL      r0,r10,r0
        0x0000c98e:    f8c100a8    ....    STR      r0,[r1,#0xa8]
        0x0000c992:    f1b80f00    ....    CMP      r8,#0
        0x0000c996:    d00a        ..      BEQ      0xc9ae ; am_hal_gpio_fast_pinconfig + 178
        0x0000c998:    f00900ff    ....    AND      r0,r9,#0xff
        0x0000c99c:    f8480027    H.'.    STR      r0,[r8,r7,LSL #2]
        0x0000c9a0:    f44f007f    O...    MOV      r0,#0xff0000
        0x0000c9a4:    eb080187    ....    ADD      r1,r8,r7,LSL #2
        0x0000c9a8:    ea004009    ...@    AND      r0,r0,r9,LSL #16
        0x0000c9ac:    6048        H`      STR      r0,[r1,#4]
        0x0000c9ae:    1cbf        ..      ADDS     r7,r7,#2
        0x0000c9b0:    1c76        v.      ADDS     r6,r6,#1
        0x0000c9b2:    0864        d.      LSRS     r4,r4,#1
        0x0000c9b4:    ea4f0535    O.5.    RRX      r5,r5
        0x0000c9b8:    ea550004    U...    ORRS     r0,r5,r4
        0x0000c9bc:    d1cc        ..      BNE      0xc958 ; am_hal_gpio_fast_pinconfig + 92
        0x0000c9be:    2000        .       MOVS     r0,#0
        0x0000c9c0:    e8bd8ff8    ....    POP      {r3-r11,pc}
        0x0000c9c4:    2006        .       MOVS     r0,#6
        0x0000c9c6:    e8bd8ff8    ....    POP      {r3-r11,pc}
        0x0000c9ca:    0000        ..      MOVS     r0,r0
    i.am_hal_gpio_pinconfig
    am_hal_gpio_pinconfig
        0x0000c9cc:    e92d4ff0    -..O    PUSH     {r4-r11,lr}
        0x0000c9d0:    2500        .%      MOVS     r5,#0
        0x0000c9d2:    b08b        ..      SUB      sp,sp,#0x2c
        0x0000c9d4:    4604        .F      MOV      r4,r0
        0x0000c9d6:    2832        2(      CMP      r0,#0x32
        0x0000c9d8:    bf22        ".      ITTT     CS
        0x0000c9da:    2006        .       MOVCS    r0,#6
        0x0000c9dc:    b00b        ..      ADDCS    sp,sp,#0x2c
        0x0000c9de:    e8bd8ff0    ....    POPCS    {r4-r11,pc}
        0x0000c9e2:    2200        ."      MOVS     r2,#0
        0x0000c9e4:    f0010307    ....    AND      r3,r1,#7
        0x0000c9e8:    4f8b        .O      LDR      r7,[pc,#556] ; [0xcc18] = 0xe432
        0x0000c9ea:    f3c10cc1    ....    UBFX     r12,r1,#3,#2
        0x0000c9ee:    ea4200c3    B...    ORR      r0,r2,r3,LSL #3
        0x0000c9f2:    f0110fe0    ....    TST      r1,#0xe0
        0x0000c9f6:    d021        !.      BEQ      0xca3c ; am_hal_gpio_pinconfig + 112
        0x0000c9f8:    f3c11642    ..B.    UBFX     r6,r1,#5,#3
        0x0000c9fc:    f1a60902    ....    SUB      r9,r6,#2
        0x0000ca00:    f8df8218    ....    LDR      r8,[pc,#536] ; [0xcc1c] = 0x8000100
        0x0000ca04:    f0400001    @...    ORR      r0,r0,#1
        0x0000ca08:    f1b90f03    ....    CMP      r9,#3
        0x0000ca0c:    d809        ..      BHI      0xca22 ; am_hal_gpio_pinconfig + 86
        0x0000ca0e:    f06f097f    o...    MVN      r9,#0x7f
        0x0000ca12:    eb091686    ....    ADD      r6,r9,r6,LSL #6
        0x0000ca16:    4330        0C      ORRS     r0,r0,r6
        0x0000ca18:    5d3e        >]      LDRB     r6,[r7,r4]
        0x0000ca1a:    f0160f01    ....    TST      r6,#1
        0x0000ca1e:    d10d        ..      BNE      0xca3c ; am_hal_gpio_pinconfig + 112
        0x0000ca20:    e016        ..      B        0xca50 ; am_hal_gpio_pinconfig + 132
        0x0000ca22:    2e06        ..      CMP      r6,#6
        0x0000ca24:    d004        ..      BEQ      0xca30 ; am_hal_gpio_pinconfig + 100
        0x0000ca26:    2e01        ..      CMP      r6,#1
        0x0000ca28:    bf08        ..      IT       EQ
        0x0000ca2a:    2c14        .,      CMPEQ    r4,#0x14
        0x0000ca2c:    d010        ..      BEQ      0xca50 ; am_hal_gpio_pinconfig + 132
        0x0000ca2e:    e005        ..      B        0xca3c ; am_hal_gpio_pinconfig + 112
        0x0000ca30:    2c14        .,      CMP      r4,#0x14
        0x0000ca32:    bf1e        ..      ITTT     NE
        0x0000ca34:    487a        zH      LDRNE    r0,[pc,#488] ; [0xcc20] = 0x8000101
        0x0000ca36:    b00b        ..      ADDNE    sp,sp,#0x2c
        0x0000ca38:    e8bd8ff0    ....    POPNE    {r4-r11,pc}
        0x0000ca3c:    f1bc0f00    ....    CMP      r12,#0
        0x0000ca40:    d012        ..      BEQ      0xca68 ; am_hal_gpio_pinconfig + 156
        0x0000ca42:    f1bc0f01    ....    CMP      r12,#1
        0x0000ca46:    d007        ..      BEQ      0xca58 ; am_hal_gpio_pinconfig + 140
        0x0000ca48:    f1bc0f02    ....    CMP      r12,#2
        0x0000ca4c:    d03a        :.      BEQ      0xcac4 ; am_hal_gpio_pinconfig + 248
        0x0000ca4e:    e041        A.      B        0xcad4 ; am_hal_gpio_pinconfig + 264
        0x0000ca50:    b00b        ..      ADD      sp,sp,#0x2c
        0x0000ca52:    4640        @F      MOV      r0,r8
        0x0000ca54:    e8bd8ff0    ....    POP      {r4-r11,pc}
        0x0000ca58:    f817c004    ....    LDRB     r12,[r7,r4]
        0x0000ca5c:    f01c0f02    ....    TST      r12,#2
        0x0000ca60:    bf18        ..      IT       NE
        0x0000ca62:    f0400040    @.@.    ORRNE    r0,r0,#0x40
        0x0000ca66:    d035        5.      BEQ      0xcad4 ; am_hal_gpio_pinconfig + 264
        0x0000ca68:    f8dfc1b8    ....    LDR      r12,[pc,#440] ; [0xcc24] = 0xe400
        0x0000ca6c:    f81c6004    ...`    LDRB     r6,[r12,r4]
        0x0000ca70:    f04f0c01    O...    MOV      r12,#1
        0x0000ca74:    fa0cfc03    ....    LSL      r12,r12,r3
        0x0000ca78:    ea160c0c    ....    ANDS     r12,r6,r12
        0x0000ca7c:    bf18        ..      IT       NE
        0x0000ca7e:    f04f0c02    O...    MOVNE    r12,#2
        0x0000ca82:    ea4c0000    L...    ORR      r0,r12,r0
        0x0000ca86:    f8dfc1a0    ....    LDR      r12,[pc,#416] ; [0xcc28] = 0xe464
        0x0000ca8a:    f81cc004    ....    LDRB     r12,[r12,r4]
        0x0000ca8e:    459c        .E      CMP      r12,r3
        0x0000ca90:    d132        2.      BNE      0xcaf8 ; am_hal_gpio_pinconfig + 300
        0x0000ca92:    f3c14302    ...C    UBFX     r3,r1,#16,#3
        0x0000ca96:    2b06        .+      CMP      r3,#6
        0x0000ca98:    bf82        ..      ITTT     HI
        0x0000ca9a:    4864        dH      LDRHI    r0,[pc,#400] ; [0xcc2c] = 0x8000103
        0x0000ca9c:    b00b        ..      ADDHI    sp,sp,#0x2c
        0x0000ca9e:    e8bd8ff0    ....    POPHI    {r4-r11,pc}
        0x0000caa2:    f3c14cc1    ...L    UBFX     r12,r1,#19,#2
        0x0000caa6:    ea4c1603    L...    ORR      r6,r12,r3,LSL #4
        0x0000caaa:    f8dfc184    ....    LDR      r12,[pc,#388] ; [0xcc30] = 0xe496
        0x0000caae:    2300        .#      MOVS     r3,#0
        0x0000cab0:    eb0c0c84    ....    ADD      r12,r12,r4,LSL #2
        0x0000cab4:    f81c7003    ...p    LDRB     r7,[r12,r3]
        0x0000cab8:    42b7        .B      CMP      r7,r6
        0x0000caba:    d00f        ..      BEQ      0xcadc ; am_hal_gpio_pinconfig + 272
        0x0000cabc:    1c5b        [.      ADDS     r3,r3,#1
        0x0000cabe:    2b04        .+      CMP      r3,#4
        0x0000cac0:    d3f8        ..      BCC      0xcab4 ; am_hal_gpio_pinconfig + 232
        0x0000cac2:    e00d        ..      B        0xcae0 ; am_hal_gpio_pinconfig + 276
        0x0000cac4:    f817c004    ....    LDRB     r12,[r7,r4]
        0x0000cac8:    f01c0f04    ....    TST      r12,#4
        0x0000cacc:    bf18        ..      IT       NE
        0x0000cace:    f0400080    @...    ORRNE    r0,r0,#0x80
        0x0000cad2:    d1c9        ..      BNE      0xca68 ; am_hal_gpio_pinconfig + 156
        0x0000cad4:    b00b        ..      ADD      sp,sp,#0x2c
        0x0000cad6:    4857        WH      LDR      r0,[pc,#348] ; [0xcc34] = 0x8000102
        0x0000cad8:    e8bd8ff0    ....    POP      {r4-r11,pc}
        0x0000cadc:    2b04        .+      CMP      r3,#4
        0x0000cade:    d303        ..      BCC      0xcae8 ; am_hal_gpio_pinconfig + 284
        0x0000cae0:    b00b        ..      ADD      sp,sp,#0x2c
        0x0000cae2:    4855        UH      LDR      r0,[pc,#340] ; [0xcc38] = 0x8000104
        0x0000cae4:    e8bd8ff0    ....    POP      {r4-r11,pc}
        0x0000cae8:    005b        [.      LSLS     r3,r3,#1
        0x0000caea:    f3c15c40    ..@\    UBFX     r12,r1,#21,#1
        0x0000caee:    ea430ccc    C...    ORR      r12,r3,r12,LSL #3
        0x0000caf2:    ea4c0302    L...    ORR      r3,r12,r2
        0x0000caf6:    e022        ".      B        0xcb3e ; am_hal_gpio_pinconfig + 370
        0x0000caf8:    f3c13300    ...3    UBFX     r3,r1,#12,#1
        0x0000cafc:    f3c12c81    ...,    UBFX     r12,r1,#10,#2
        0x0000cb00:    ea400043    @.C.    ORR      r0,r0,r3,LSL #1
        0x0000cb04:    ea4f064c    O.L.    LSL      r6,r12,#1
        0x0000cb08:    f3c13340    ..@3    UBFX     r3,r1,#13,#1
        0x0000cb0c:    ea4603c3    F...    ORR      r3,r6,r3,LSL #3
        0x0000cb10:    f3c13641    ..A6    UBFX     r6,r1,#13,#2
        0x0000cb14:    ea430356    C.V.    ORR      r3,r3,r6,LSR #1
        0x0000cb18:    f1bc0f01    ....    CMP      r12,#1
        0x0000cb1c:    d005        ..      BEQ      0xcb2a ; am_hal_gpio_pinconfig + 350
        0x0000cb1e:    f8dfc11c    ....    LDR      r12,[pc,#284] ; [0xcc3c] = 0xe3fc
        0x0000cb22:    f8dcc000    ....    LDR      r12,[r12,#0]
        0x0000cb26:    4561        aE      CMP      r1,r12
        0x0000cb28:    d100        ..      BNE      0xcb2c ; am_hal_gpio_pinconfig + 352
        0x0000cb2a:    2501        .%      MOVS     r5,#1
        0x0000cb2c:    f4114fc0    ...O    TST      r1,#0x6000
        0x0000cb30:    d105        ..      BNE      0xcb3e ; am_hal_gpio_pinconfig + 370
        0x0000cb32:    f0230301    #...    BIC      r3,r3,#1
        0x0000cb36:    f3c13cc0    ...<    UBFX     r12,r1,#15,#1
        0x0000cb3a:    ea4c0303    L...    ORR      r3,r12,r3
        0x0000cb3e:    f3c12101    ...!    UBFX     r1,r1,#8,#2
        0x0000cb42:    b179        y.      CBZ      r1,0xcb64 ; am_hal_gpio_pinconfig + 408
        0x0000cb44:    2901        .)      CMP      r1,#1
        0x0000cb46:    bf08        ..      IT       EQ
        0x0000cb48:    f0400004    @...    ORREQ    r0,r0,#4
        0x0000cb4c:    d00a        ..      BEQ      0xcb64 ; am_hal_gpio_pinconfig + 408
        0x0000cb4e:    2902        .)      CMP      r1,#2
        0x0000cb50:    bf08        ..      IT       EQ
        0x0000cb52:    f0420201    B...    ORREQ    r2,r2,#1
        0x0000cb56:    d005        ..      BEQ      0xcb64 ; am_hal_gpio_pinconfig + 408
        0x0000cb58:    2903        .)      CMP      r1,#3
        0x0000cb5a:    bf04        ..      ITT      EQ
        0x0000cb5c:    f0400004    @...    ORREQ    r0,r0,#4
        0x0000cb60:    f0420201    B...    ORREQ    r2,r2,#1
        0x0000cb64:    f06f0103    o...    MVN      r1,#3
        0x0000cb68:    f8dfc0d4    ....    LDR      r12,[pc,#212] ; [0xcc40] = 0x40010040
        0x0000cb6c:    ea010154    ..T.    AND      r1,r1,r4,LSR #1
        0x0000cb70:    eb01090c    ....    ADD      r9,r1,r12
        0x0000cb74:    f0240103    $...    BIC      r1,r4,#3
        0x0000cb78:    f8dfc0c8    ....    LDR      r12,[pc,#200] ; [0xcc44] = 0x400100e0
        0x0000cb7c:    f1014880    ...H    ADD      r8,r1,#0x40000000
        0x0000cb80:    eb01070c    ....    ADD      r7,r1,r12
        0x0000cb84:    0761        a.      LSLS     r1,r4,#29
        0x0000cb86:    ea4f6cd1    O..l    LSR      r12,r1,#27
        0x0000cb8a:    07a1        ..      LSLS     r1,r4,#30
        0x0000cb8c:    0ec9        ..      LSRS     r1,r1,#27
        0x0000cb8e:    260f        .&      MOVS     r6,#0xf
        0x0000cb90:    fa06f60c    ....    LSL      r6,r6,r12
        0x0000cb94:    ea6f0a06    o...    MVN      r10,r6
        0x0000cb98:    26ff        .&      MOVS     r6,#0xff
        0x0000cb9a:    408e        .@      LSLS     r6,r6,r1
        0x0000cb9c:    4088        .@      LSLS     r0,r0,r1
        0x0000cb9e:    9000        ..      STR      r0,[sp,#0]
        0x0000cba0:    fa02f001    ....    LSL      r0,r2,r1
        0x0000cba4:    f5083880    ...8    ADD      r8,r8,#0x10000
        0x0000cba8:    43f6        .C      MVNS     r6,r6
        0x0000cbaa:    fa03fb0c    ....    LSL      r11,r3,r12
        0x0000cbae:    9002        ..      STR      r0,[sp,#8]
        0x0000cbb0:    f7fffb28    ..(.    BL       am_hal_interrupt_master_disable ; 0xc204
        0x0000cbb4:    9003        ..      STR      r0,[sp,#0xc]
        0x0000cbb6:    b165        e.      CBZ      r5,0xcbd2 ; am_hal_gpio_pinconfig + 518
        0x0000cbb8:    f004011f    ....    AND      r1,r4,#0x1f
        0x0000cbbc:    2001        .       MOVS     r0,#1
        0x0000cbbe:    4088        .@      LSLS     r0,r0,r1
        0x0000cbc0:    2104        .!      MOVS     r1,#4
        0x0000cbc2:    ea0101d4    ....    AND      r1,r1,r4,LSR #3
        0x0000cbc6:    f1014180    ...A    ADD      r1,r1,#0x40000000
        0x0000cbca:    f5013180    ...1    ADD      r1,r1,#0x10000
        0x0000cbce:    f8c100b4    ....    STR      r0,[r1,#0xb4]
        0x0000cbd2:    481d        .H      LDR      r0,[pc,#116] ; [0xcc48] = 0x40010000
        0x0000cbd4:    2173        s!      MOVS     r1,#0x73
        0x0000cbd6:    6601        .f      STR      r1,[r0,#0x60]
        0x0000cbd8:    f8d81000    ....    LDR      r1,[r8,#0]
        0x0000cbdc:    ea010206    ....    AND      r2,r1,r6
        0x0000cbe0:    9900        ..      LDR      r1,[sp,#0]
        0x0000cbe2:    4311        .C      ORRS     r1,r1,r2
        0x0000cbe4:    f8c81000    ....    STR      r1,[r8,#0]
        0x0000cbe8:    f8d91000    ....    LDR      r1,[r9,#0]
        0x0000cbec:    ea01010a    ....    AND      r1,r1,r10
        0x0000cbf0:    ea41010b    A...    ORR      r1,r1,r11
        0x0000cbf4:    f8c91000    ....    STR      r1,[r9,#0]
        0x0000cbf8:    6839        9h      LDR      r1,[r7,#0]
        0x0000cbfa:    ea010206    ....    AND      r2,r1,r6
        0x0000cbfe:    9902        ..      LDR      r1,[sp,#8]
        0x0000cc00:    4311        .C      ORRS     r1,r1,r2
        0x0000cc02:    6039        9`      STR      r1,[r7,#0]
        0x0000cc04:    2100        .!      MOVS     r1,#0
        0x0000cc06:    6601        .f      STR      r1,[r0,#0x60]
        0x0000cc08:    9803        ..      LDR      r0,[sp,#0xc]
        0x0000cc0a:    f7fffaff    ....    BL       am_hal_interrupt_master_set ; 0xc20c
        0x0000cc0e:    b00b        ..      ADD      sp,sp,#0x2c
        0x0000cc10:    2000        .       MOVS     r0,#0
        0x0000cc12:    e8bd8ff0    ....    POP      {r4-r11,pc}
    $d
        0x0000cc16:    0000        ..      DCW    0
        0x0000cc18:    0000e432    2...    DCD    58418
        0x0000cc1c:    08000100    ....    DCD    134217984
        0x0000cc20:    08000101    ....    DCD    134217985
        0x0000cc24:    0000e400    ....    DCD    58368
        0x0000cc28:    0000e464    d...    DCD    58468
        0x0000cc2c:    08000103    ....    DCD    134217987
        0x0000cc30:    0000e496    ....    DCD    58518
        0x0000cc34:    08000102    ....    DCD    134217986
        0x0000cc38:    08000104    ....    DCD    134217988
        0x0000cc3c:    0000e3fc    ....    DCD    58364
        0x0000cc40:    40010040    @..@    DCD    1073807424
        0x0000cc44:    400100e0    ...@    DCD    1073807584
        0x0000cc48:    40010000    ...@    DCD    1073807360
    $t
    i.am_hal_gpio_state_write
    am_hal_gpio_state_write
        0x0000cc4c:    b5f8        ..      PUSH     {r3-r7,lr}
        0x0000cc4e:    2700        .'      MOVS     r7,#0
        0x0000cc50:    460d        .F      MOV      r5,r1
        0x0000cc52:    4606        .F      MOV      r6,r0
        0x0000cc54:    2832        2(      CMP      r0,#0x32
        0x0000cc56:    bf24        $.      ITT      CS
        0x0000cc58:    2005        .       MOVCS    r0,#5
        0x0000cc5a:    bdf8        ..      POPCS    {r3-r7,pc}
        0x0000cc5c:    2d05        .-      CMP      r5,#5
        0x0000cc5e:    bf84        ..      ITT      HI
        0x0000cc60:    2006        .       MOVHI    r0,#6
        0x0000cc62:    bdf8        ..      POPHI    {r3-r7,pc}
        0x0000cc64:    f006001f    ....    AND      r0,r6,#0x1f
        0x0000cc68:    2101        .!      MOVS     r1,#1
        0x0000cc6a:    fa01f400    ....    LSL      r4,r1,r0
        0x0000cc6e:    f7fffac9    ....    BL       am_hal_interrupt_master_disable ; 0xc204
        0x0000cc72:    9000        ..      STR      r0,[sp,#0]
        0x0000cc74:    2004        .       MOVS     r0,#4
        0x0000cc76:    ea0000d6    ....    AND      r0,r0,r6,LSR #3
        0x0000cc7a:    f1004080    ...@    ADD      r0,r0,#0x40000000
        0x0000cc7e:    f5003080    ...0    ADD      r0,r0,#0x10000
        0x0000cc82:    2d06        .-      CMP      r5,#6
        0x0000cc84:    d21c        ..      BCS      0xccc0 ; am_hal_gpio_state_write + 116
        0x0000cc86:    e8dff005    ....    TBB      [pc,r5]
    $d
        0x0000cc8a:    0306        ..      DCW    774
        0x0000cc8c:    150f1209    ....    DCD    353309193
    $t
        0x0000cc90:    f8c04090    ...@    STR      r4,[r0,#0x90]
        0x0000cc94:    e015        ..      B        0xccc2 ; am_hal_gpio_state_write + 118
        0x0000cc96:    f8c04098    ...@    STR      r4,[r0,#0x98]
        0x0000cc9a:    e012        ..      B        0xccc2 ; am_hal_gpio_state_write + 118
        0x0000cc9c:    f8d01088    ....    LDR      r1,[r0,#0x88]
        0x0000cca0:    4061        a@      EORS     r1,r1,r4
        0x0000cca2:    f8c01088    ....    STR      r1,[r0,#0x88]
        0x0000cca6:    e00c        ..      B        0xccc2 ; am_hal_gpio_state_write + 118
        0x0000cca8:    f8c040a8    ...@    STR      r4,[r0,#0xa8]
        0x0000ccac:    e009        ..      B        0xccc2 ; am_hal_gpio_state_write + 118
        0x0000ccae:    f8c040b4    ...@    STR      r4,[r0,#0xb4]
        0x0000ccb2:    e006        ..      B        0xccc2 ; am_hal_gpio_state_write + 118
        0x0000ccb4:    f8d010b4    ....    LDR      r1,[r0,#0xb4]
        0x0000ccb8:    4061        a@      EORS     r1,r1,r4
        0x0000ccba:    f8c010b4    ....    STR      r1,[r0,#0xb4]
        0x0000ccbe:    e000        ..      B        0xccc2 ; am_hal_gpio_state_write + 118
        0x0000ccc0:    2706        .'      MOVS     r7,#6
        0x0000ccc2:    9800        ..      LDR      r0,[sp,#0]
        0x0000ccc4:    f7fffaa2    ....    BL       am_hal_interrupt_master_set ; 0xc20c
        0x0000ccc8:    4638        8F      MOV      r0,r7
        0x0000ccca:    bdf8        ..      POP      {r3-r7,pc}
    i.am_hal_itm_disable
    am_hal_itm_disable
        0x0000cccc:    e92d41f0    -..A    PUSH     {r4-r8,lr}
        0x0000ccd0:    4e20         N      LDR      r6,[pc,#128] ; [0xcd54] = 0x40020000
        0x0000ccd2:    f8d60250    ..P.    LDR      r0,[r6,#0x250]
        0x0000ccd6:    4f20         O      LDR      r7,[pc,#128] ; [0xcd58] = 0xc5acce55
        0x0000ccd8:    f8df8080    ....    LDR      r8,[pc,#128] ; [0xcd5c] = 0xe0000fb0
        0x0000ccdc:    4c20         L      LDR      r4,[pc,#128] ; [0xcd60] = 0xe0000e80
        0x0000ccde:    4d21        !M      LDR      r5,[pc,#132] ; [0xcd64] = 0xe000edfc
        0x0000cce0:    b988        ..      CBNZ     r0,0xcd06 ; am_hal_itm_disable + 58
        0x0000cce2:    6828        (h      LDR      r0,[r5,#0]
        0x0000cce4:    f0407080    @..p    ORR      r0,r0,#0x1000000
        0x0000cce8:    6028        (`      STR      r0,[r5,#0]
        0x0000ccea:    6828        (h      LDR      r0,[r5,#0]
        0x0000ccec:    f0107f80    ....    TST      r0,#0x1000000
        0x0000ccf0:    d0fb        ..      BEQ      0xccea ; am_hal_itm_disable + 30
        0x0000ccf2:    f8c87000    ...p    STR      r7,[r8,#0]
        0x0000ccf6:    491c        .I      LDR      r1,[pc,#112] ; [0xcd68] = 0xe0000e40
        0x0000ccf8:    200f        .       MOVS     r0,#0xf
        0x0000ccfa:    6008        .`      STR      r0,[r1,#0]
        0x0000ccfc:    1748        H.      ASRS     r0,r1,#29
        0x0000ccfe:    491b        .I      LDR      r1,[pc,#108] ; [0xcd6c] = 0xe0000e00
        0x0000cd00:    6008        .`      STR      r0,[r1,#0]
        0x0000cd02:    481b        .H      LDR      r0,[pc,#108] ; [0xcd70] = 0x150511
        0x0000cd04:    6020         `      STR      r0,[r4,#0]
        0x0000cd06:    6820         h      LDR      r0,[r4,#0]
        0x0000cd08:    f4100f00    ....    TST      r0,#0x800000
        0x0000cd0c:    d1fb        ..      BNE      0xcd06 ; am_hal_itm_disable + 58
        0x0000cd0e:    f44f7048    O.Hp    MOV      r0,#0x320
        0x0000cd12:    f7fffd9b    ....    BL       am_hal_flash_delay ; 0xc84c
        0x0000cd16:    f8c87000    ...p    STR      r7,[r8,#0]
        0x0000cd1a:    4816        .H      LDR      r0,[pc,#88] ; [0xcd74] = 0x800001
        0x0000cd1c:    2200        ."      MOVS     r2,#0
        0x0000cd1e:    6821        !h      LDR      r1,[r4,#0]
        0x0000cd20:    f0210101    !...    BIC      r1,r1,#1
        0x0000cd24:    6021        !`      STR      r1,[r4,#0]
        0x0000cd26:    6821        !h      LDR      r1,[r4,#0]
        0x0000cd28:    4201        .B      TST      r1,r0
        0x0000cd2a:    d1fc        ..      BNE      0xcd26 ; am_hal_itm_disable + 90
        0x0000cd2c:    1c52        R.      ADDS     r2,r2,#1
        0x0000cd2e:    2a64        d*      CMP      r2,#0x64
        0x0000cd30:    dbf5        ..      BLT      0xcd1e ; am_hal_itm_disable + 82
        0x0000cd32:    6828        (h      LDR      r0,[r5,#0]
        0x0000cd34:    f0207080     ..p    BIC      r0,r0,#0x1000000
        0x0000cd38:    6028        (`      STR      r0,[r5,#0]
        0x0000cd3a:    6828        (h      LDR      r0,[r5,#0]
        0x0000cd3c:    f0107f80    ....    TST      r0,#0x1000000
        0x0000cd40:    d1fb        ..      BNE      0xcd3a ; am_hal_itm_disable + 110
        0x0000cd42:    2000        .       MOVS     r0,#0
        0x0000cd44:    f8c60250    ..P.    STR      r0,[r6,#0x250]
        0x0000cd48:    f8d60250    ..P.    LDR      r0,[r6,#0x250]
        0x0000cd4c:    2800        .(      CMP      r0,#0
        0x0000cd4e:    d1fb        ..      BNE      0xcd48 ; am_hal_itm_disable + 124
        0x0000cd50:    e8bd81f0    ....    POP      {r4-r8,pc}
    $d
        0x0000cd54:    40020000    ...@    DCD    1073872896
        0x0000cd58:    c5acce55    U...    DCD    3316436565
        0x0000cd5c:    e0000fb0    ....    DCD    3758100400
        0x0000cd60:    e0000e80    ....    DCD    3758100096
        0x0000cd64:    e000edfc    ....    DCD    3758157308
        0x0000cd68:    e0000e40    @...    DCD    3758100032
        0x0000cd6c:    e0000e00    ....    DCD    3758099968
        0x0000cd70:    00150511    ....    DCD    1377553
        0x0000cd74:    00800001    ....    DCD    8388609
    $t
    i.am_hal_itm_enable
    am_hal_itm_enable
        0x0000cd78:    480a        .H      LDR      r0,[pc,#40] ; [0xcda4] = 0xe000edfc
        0x0000cd7a:    6801        .h      LDR      r1,[r0,#0]
        0x0000cd7c:    f0417180    A..q    ORR      r1,r1,#0x1000000
        0x0000cd80:    6001        .`      STR      r1,[r0,#0]
        0x0000cd82:    6801        .h      LDR      r1,[r0,#0]
        0x0000cd84:    f0117f80    ....    TST      r1,#0x1000000
        0x0000cd88:    d0fb        ..      BEQ      0xcd82 ; am_hal_itm_enable + 10
        0x0000cd8a:    4908        .I      LDR      r1,[pc,#32] ; [0xcdac] = 0xe0000fb0
        0x0000cd8c:    4806        .H      LDR      r0,[pc,#24] ; [0xcda8] = 0xc5acce55
        0x0000cd8e:    6008        .`      STR      r0,[r1,#0]
        0x0000cd90:    4907        .I      LDR      r1,[pc,#28] ; [0xcdb0] = 0xe0000e40
        0x0000cd92:    200f        .       MOVS     r0,#0xf
        0x0000cd94:    6008        .`      STR      r0,[r1,#0]
        0x0000cd96:    1748        H.      ASRS     r0,r1,#29
        0x0000cd98:    4906        .I      LDR      r1,[pc,#24] ; [0xcdb4] = 0xe0000e00
        0x0000cd9a:    6008        .`      STR      r0,[r1,#0]
        0x0000cd9c:    4907        .I      LDR      r1,[pc,#28] ; [0xcdbc] = 0xe0000e80
        0x0000cd9e:    4806        .H      LDR      r0,[pc,#24] ; [0xcdb8] = 0x150511
        0x0000cda0:    6008        .`      STR      r0,[r1,#0]
        0x0000cda2:    4770        pG      BX       lr
    $d
        0x0000cda4:    e000edfc    ....    DCD    3758157308
        0x0000cda8:    c5acce55    U...    DCD    3316436565
        0x0000cdac:    e0000fb0    ....    DCD    3758100400
        0x0000cdb0:    e0000e40    @...    DCD    3758100032
        0x0000cdb4:    e0000e00    ....    DCD    3758099968
        0x0000cdb8:    00150511    ....    DCD    1377553
        0x0000cdbc:    e0000e80    ....    DCD    3758100096
    $t
    i.am_hal_itm_print
    am_hal_itm_print
        0x0000cdc0:    7802        .x      LDRB     r2,[r0,#0]
        0x0000cdc2:    2100        .!      MOVS     r1,#0
        0x0000cdc4:    2a00        .*      CMP      r2,#0
        0x0000cdc6:    bf08        ..      IT       EQ
        0x0000cdc8:    4770        pG      BXEQ     lr
        0x0000cdca:    1c49        I.      ADDS     r1,r1,#1
        0x0000cdcc:    5c42        B\      LDRB     r2,[r0,r1]
        0x0000cdce:    2a00        .*      CMP      r2,#0
        0x0000cdd0:    d1fb        ..      BNE      0xcdca ; am_hal_itm_print + 10
        0x0000cdd2:    2900        .)      CMP      r1,#0
        0x0000cdd4:    bf08        ..      IT       EQ
        0x0000cdd6:    4770        pG      BXEQ     lr
        0x0000cdd8:    f810cb01    ....    LDRB     r12,[r0],#1
        0x0000cddc:    f04f4260    O.`B    MOV      r2,#0xe0000000
        0x0000cde0:    6813        .h      LDR      r3,[r2,#0]
        0x0000cde2:    2b00        .+      CMP      r3,#0
        0x0000cde4:    d0fc        ..      BEQ      0xcde0 ; am_hal_itm_print + 32
        0x0000cde6:    f882c000    ....    STRB     r12,[r2,#0]
        0x0000cdea:    1e49        I.      SUBS     r1,r1,#1
        0x0000cdec:    d1f4        ..      BNE      0xcdd8 ; am_hal_itm_print + 24
        0x0000cdee:    4770        pG      BX       lr
    i.am_hal_mcuctrl_info_get
    am_hal_mcuctrl_info_get
        0x0000cdf0:    b129        ).      CBZ      r1,0xcdfe ; am_hal_mcuctrl_info_get + 14
        0x0000cdf2:    4a45        EJ      LDR      r2,[pc,#276] ; [0xcf08] = 0x40020000
        0x0000cdf4:    b128        (.      CBZ      r0,0xce02 ; am_hal_mcuctrl_info_get + 18
        0x0000cdf6:    2801        .(      CMP      r0,#1
        0x0000cdf8:    d017        ..      BEQ      0xce2a ; am_hal_mcuctrl_info_get + 58
        0x0000cdfa:    2802        .(      CMP      r0,#2
        0x0000cdfc:    d069        i.      BEQ      0xced2 ; am_hal_mcuctrl_info_get + 226
        0x0000cdfe:    2006        .       MOVS     r0,#6
        0x0000ce00:    4770        pG      BX       lr
        0x0000ce02:    6990        .i      LDR      r0,[r2,#0x18]
        0x0000ce04:    f3c01380    ....    UBFX     r3,r0,#6,#1
        0x0000ce08:    700b        .p      STRB     r3,[r1,#0]
        0x0000ce0a:    f3c00080    ....    UBFX     r0,r0,#2,#1
        0x0000ce0e:    7048        Hp      STRB     r0,[r1,#1]
        0x0000ce10:    f8d201a0    ....    LDR      r0,[r2,#0x1a0]
        0x0000ce14:    f3c06081    ...`    UBFX     r0,r0,#26,#2
        0x0000ce18:    7108        .q      STRB     r0,[r1,#4]
        0x0000ce1a:    6950        Pi      LDR      r0,[r2,#0x14]
        0x0000ce1c:    f3c00240    ..@.    UBFX     r2,r0,#1,#1
        0x0000ce20:    708a        .p      STRB     r2,[r1,#2]
        0x0000ce22:    f0000001    ....    AND      r0,r0,#1
        0x0000ce26:    70c8        .p      STRB     r0,[r1,#3]
        0x0000ce28:    e06b        k.      B        0xcf02 ; am_hal_mcuctrl_info_get + 274
        0x0000ce2a:    6810        .h      LDR      r0,[r2,#0]
        0x0000ce2c:    6008        .`      STR      r0,[r1,#0]
        0x0000ce2e:    6853        Sh      LDR      r3,[r2,#4]
        0x0000ce30:    604b        K`      STR      r3,[r1,#4]
        0x0000ce32:    6893        .h      LDR      r3,[r2,#8]
        0x0000ce34:    608b        .`      STR      r3,[r1,#8]
        0x0000ce36:    68d3        .h      LDR      r3,[r2,#0xc]
        0x0000ce38:    60cb        .`      STR      r3,[r1,#0xc]
        0x0000ce3a:    6913        .i      LDR      r3,[r2,#0x10]
        0x0000ce3c:    610b        .a      STR      r3,[r1,#0x10]
        0x0000ce3e:    6952        Ri      LDR      r2,[r2,#0x14]
        0x0000ce40:    614a        Ja      STR      r2,[r1,#0x14]
        0x0000ce42:    f0000201    ....    AND      r2,r0,#1
        0x0000ce46:    618a        .a      STR      r2,[r1,#0x18]
        0x0000ce48:    223c        <"      MOVS     r2,#0x3c
        0x0000ce4a:    ea024390    ...C    AND      r3,r2,r0,LSR #18
        0x0000ce4e:    f8dfc0bc    ....    LDR      r12,[pc,#188] ; [0xcf0c] = 0xe568
        0x0000ce52:    ea023090    ...0    AND      r0,r2,r0,LSR #14
        0x0000ce56:    f10c0240    ..@.    ADD      r2,r12,#0x40
        0x0000ce5a:    f85c3003    \..0    LDR      r3,[r12,r3]
        0x0000ce5e:    61cb        .a      STR      r3,[r1,#0x1c]
        0x0000ce60:    5810        .X      LDR      r0,[r2,r0]
        0x0000ce62:    6208        .b      STR      r0,[r1,#0x20]
        0x0000ce64:    482a        *H      LDR      r0,[pc,#168] ; [0xcf10] = 0xf0000fe0
        0x0000ce66:    6800        .h      LDR      r0,[r0,#0]
        0x0000ce68:    4a2a        *J      LDR      r2,[pc,#168] ; [0xcf14] = 0xf0000fe4
        0x0000ce6a:    b2c0        ..      UXTB     r0,r0
        0x0000ce6c:    6248        Hb      STR      r0,[r1,#0x24]
        0x0000ce6e:    6813        .h      LDR      r3,[r2,#0]
        0x0000ce70:    f003030f    ....    AND      r3,r3,#0xf
        0x0000ce74:    ea402003    @..     ORR      r0,r0,r3,LSL #8
        0x0000ce78:    6248        Hb      STR      r0,[r1,#0x24]
        0x0000ce7a:    6810        .h      LDR      r0,[r2,#0]
        0x0000ce7c:    1d12        ..      ADDS     r2,r2,#4
        0x0000ce7e:    f3c01003    ....    UBFX     r0,r0,#4,#4
        0x0000ce82:    6288        .b      STR      r0,[r1,#0x28]
        0x0000ce84:    6813        .h      LDR      r3,[r2,#0]
        0x0000ce86:    f003030f    ....    AND      r3,r3,#0xf
        0x0000ce8a:    ea401003    @...    ORR      r0,r0,r3,LSL #4
        0x0000ce8e:    6288        .b      STR      r0,[r1,#0x28]
        0x0000ce90:    6810        .h      LDR      r0,[r2,#0]
        0x0000ce92:    f3c01003    ....    UBFX     r0,r0,#4,#4
        0x0000ce96:    0100        ..      LSLS     r0,r0,#4
        0x0000ce98:    1d12        ..      ADDS     r2,r2,#4
        0x0000ce9a:    62c8        .b      STR      r0,[r1,#0x2c]
        0x0000ce9c:    6812        .h      LDR      r2,[r2,#0]
        0x0000ce9e:    f3c21203    ....    UBFX     r2,r2,#4,#4
        0x0000cea2:    4310        .C      ORRS     r0,r0,r2
        0x0000cea4:    62c8        .b      STR      r0,[r1,#0x2c]
        0x0000cea6:    481c        .H      LDR      r0,[pc,#112] ; [0xcf18] = 0xf0000ffc
        0x0000cea8:    6800        .h      LDR      r0,[r0,#0]
        0x0000ceaa:    4a1c        .J      LDR      r2,[pc,#112] ; [0xcf1c] = 0xf0000ff8
        0x0000ceac:    0600        ..      LSLS     r0,r0,#24
        0x0000ceae:    6308        .c      STR      r0,[r1,#0x30]
        0x0000ceb0:    6812        .h      LDR      r2,[r2,#0]
        0x0000ceb2:    b2d2        ..      UXTB     r2,r2
        0x0000ceb4:    ea404002    @..@    ORR      r0,r0,r2,LSL #16
        0x0000ceb8:    4a19        .J      LDR      r2,[pc,#100] ; [0xcf20] = 0xf0000ff4
        0x0000ceba:    6308        .c      STR      r0,[r1,#0x30]
        0x0000cebc:    6812        .h      LDR      r2,[r2,#0]
        0x0000cebe:    b2d2        ..      UXTB     r2,r2
        0x0000cec0:    ea402002    @..     ORR      r0,r0,r2,LSL #8
        0x0000cec4:    4a17        .J      LDR      r2,[pc,#92] ; [0xcf24] = 0xf0000ff0
        0x0000cec6:    6308        .c      STR      r0,[r1,#0x30]
        0x0000cec8:    6812        .h      LDR      r2,[r2,#0]
        0x0000ceca:    b2d2        ..      UXTB     r2,r2
        0x0000cecc:    4310        .C      ORRS     r0,r0,r2
        0x0000cece:    6308        .c      STR      r0,[r1,#0x30]
        0x0000ced0:    e017        ..      B        0xcf02 ; am_hal_mcuctrl_info_get + 274
        0x0000ced2:    f8d201cc    ....    LDR      r0,[r2,#0x1cc]
        0x0000ced6:    f0000301    ....    AND      r3,r0,#1
        0x0000ceda:    700b        .p      STRB     r3,[r1,#0]
        0x0000cedc:    f3c00340    ..@.    UBFX     r3,r0,#1,#1
        0x0000cee0:    720b        .r      STRB     r3,[r1,#8]
        0x0000cee2:    f3c00080    ....    UBFX     r0,r0,#2,#1
        0x0000cee6:    7408        .t      STRB     r0,[r1,#0x10]
        0x0000cee8:    f8d201c4    ....    LDR      r0,[r2,#0x1c4]
        0x0000ceec:    60c8        .`      STR      r0,[r1,#0xc]
        0x0000ceee:    6848        Hh      LDR      r0,[r1,#4]
        0x0000cef0:    f8d231c0    ...1    LDR      r3,[r2,#0x1c0]
        0x0000cef4:    4318        .C      ORRS     r0,r0,r3
        0x0000cef6:    6048        H`      STR      r0,[r1,#4]
        0x0000cef8:    6948        Hi      LDR      r0,[r1,#0x14]
        0x0000cefa:    f8d221c8    ...!    LDR      r2,[r2,#0x1c8]
        0x0000cefe:    4310        .C      ORRS     r0,r0,r2
        0x0000cf00:    6148        Ha      STR      r0,[r1,#0x14]
        0x0000cf02:    2000        .       MOVS     r0,#0
        0x0000cf04:    4770        pG      BX       lr
    $d
        0x0000cf06:    0000        ..      DCW    0
        0x0000cf08:    40020000    ...@    DCD    1073872896
        0x0000cf0c:    0000e568    h...    DCD    58728
        0x0000cf10:    f0000fe0    ....    DCD    4026535904
        0x0000cf14:    f0000fe4    ....    DCD    4026535908
        0x0000cf18:    f0000ffc    ....    DCD    4026535932
        0x0000cf1c:    f0000ff8    ....    DCD    4026535928
        0x0000cf20:    f0000ff4    ....    DCD    4026535924
        0x0000cf24:    f0000ff0    ....    DCD    4026535920
    $t
    i.am_hal_pwrctrl_low_power_init
    am_hal_pwrctrl_low_power_init
        0x0000cf28:    e92d43f8    -..C    PUSH     {r3-r9,lr}
        0x0000cf2c:    485f        _H      LDR      r0,[pc,#380] ; [0xd0ac] = 0x10000074
        0x0000cf2e:    6801        .h      LDR      r1,[r0,#0]
        0x0000cf30:    b911        ..      CBNZ     r1,0xcf38 ; am_hal_pwrctrl_low_power_init + 16
        0x0000cf32:    495f        _I      LDR      r1,[pc,#380] ; [0xd0b0] = 0x4ffff000
        0x0000cf34:    6809        .h      LDR      r1,[r1,#0]
        0x0000cf36:    6001        .`      STR      r1,[r0,#0]
        0x0000cf38:    4c5e        ^L      LDR      r4,[pc,#376] ; [0xd0b4] = 0x40020000
        0x0000cf3a:    68e0        .h      LDR      r0,[r4,#0xc]
        0x0000cf3c:    4d5e        ^M      LDR      r5,[pc,#376] ; [0xd0b8] = 0x40021000
        0x0000cf3e:    b2c0        ..      UXTB     r0,r0
        0x0000cf40:    f04f0801    O...    MOV      r8,#1
        0x0000cf44:    2812        .(      CMP      r0,#0x12
        0x0000cf46:    d127        '.      BNE      0xcf98 ; am_hal_pwrctrl_low_power_init + 112
        0x0000cf48:    6868        hh      LDR      r0,[r5,#4]
        0x0000cf4a:    f0100f01    ....    TST      r0,#1
        0x0000cf4e:    d023        #.      BEQ      0xcf98 ; am_hal_pwrctrl_low_power_init + 112
        0x0000cf50:    270d        .'      MOVS     r7,#0xd
        0x0000cf52:    f7fff957    ..W.    BL       am_hal_interrupt_master_disable ; 0xc204
        0x0000cf56:    9000        ..      STR      r0,[sp,#0]
        0x0000cf58:    68a8        .h      LDR      r0,[r5,#8]
        0x0000cf5a:    f8df9160    ..`.    LDR      r9,[pc,#352] ; [0xd0bc] = 0xe5ec
        0x0000cf5e:    f8d9109c    ....    LDR      r1,[r9,#0x9c]
        0x0000cf62:    4308        .C      ORRS     r0,r0,r1
        0x0000cf64:    60a8        .`      STR      r0,[r5,#8]
        0x0000cf66:    9800        ..      LDR      r0,[sp,#0]
        0x0000cf68:    f7fff950    ..P.    BL       am_hal_interrupt_master_set ; 0xc20c
        0x0000cf6c:    eb070047    ..G.    ADD      r0,r7,r7,LSL #1
        0x0000cf70:    2600        .&      MOVS     r6,#0
        0x0000cf72:    eb090780    ....    ADD      r7,r9,r0,LSL #2
        0x0000cf76:    20a0        .       MOVS     r0,#0xa0
        0x0000cf78:    f7fffc68    ..h.    BL       am_hal_flash_delay ; 0xc84c
        0x0000cf7c:    69a9        .i      LDR      r1,[r5,#0x18]
        0x0000cf7e:    6878        xh      LDR      r0,[r7,#4]
        0x0000cf80:    4201        .B      TST      r1,r0
        0x0000cf82:    d102        ..      BNE      0xcf8a ; am_hal_pwrctrl_low_power_init + 98
        0x0000cf84:    360a        .6      ADDS     r6,r6,#0xa
        0x0000cf86:    2e14        ..      CMP      r6,#0x14
        0x0000cf88:    d3f5        ..      BCC      0xcf76 ; am_hal_pwrctrl_low_power_init + 78
        0x0000cf8a:    69a8        .i      LDR      r0,[r5,#0x18]
        0x0000cf8c:    6879        yh      LDR      r1,[r7,#4]
        0x0000cf8e:    4208        .B      TST      r0,r1
        0x0000cf90:    bf04        ..      ITT      EQ
        0x0000cf92:    4640        @F      MOVEQ    r0,r8
        0x0000cf94:    e8bd83f8    ....    POPEQ    {r3-r9,pc}
        0x0000cf98:    68e0        .h      LDR      r0,[r4,#0xc]
        0x0000cf9a:    b2c0        ..      UXTB     r0,r0
        0x0000cf9c:    2821        !(      CMP      r0,#0x21
        0x0000cf9e:    d33c        <.      BCC      0xd01a ; am_hal_pwrctrl_low_power_init + 242
        0x0000cfa0:    f8d40354    ..T.    LDR      r0,[r4,#0x354]
        0x0000cfa4:    f4202070     .p     BIC      r0,r0,#0xf0000
        0x0000cfa8:    f5003000    ...0    ADD      r0,r0,#0x20000
        0x0000cfac:    f8c40354    ..T.    STR      r0,[r4,#0x354]
        0x0000cfb0:    f8d40354    ..T.    LDR      r0,[r4,#0x354]
        0x0000cfb4:    f4200070     .p.    BIC      r0,r0,#0xf00000
        0x0000cfb8:    f5001040    ..@.    ADD      r0,r0,#0x300000
        0x0000cfbc:    f8c40354    ..T.    STR      r0,[r4,#0x354]
        0x0000cfc0:    f8d40358    ..X.    LDR      r0,[r4,#0x358]
        0x0000cfc4:    f020000f     ...    BIC      r0,r0,#0xf
        0x0000cfc8:    1d40        @.      ADDS     r0,r0,#5
        0x0000cfca:    f8c40358    ..X.    STR      r0,[r4,#0x358]
        0x0000cfce:    f8d40358    ..X.    LDR      r0,[r4,#0x358]
        0x0000cfd2:    f02000f0     ...    BIC      r0,r0,#0xf0
        0x0000cfd6:    3020         0      ADDS     r0,r0,#0x20
        0x0000cfd8:    f8c40358    ..X.    STR      r0,[r4,#0x358]
        0x0000cfdc:    f8d40358    ..X.    LDR      r0,[r4,#0x358]
        0x0000cfe0:    f4206070     .p`    BIC      r0,r0,#0xf00
        0x0000cfe4:    f50060c0    ...`    ADD      r0,r0,#0x600
        0x0000cfe8:    f8c40358    ..X.    STR      r0,[r4,#0x358]
        0x0000cfec:    f8d40358    ..X.    LDR      r0,[r4,#0x358]
        0x0000cff0:    f4204070     .p@    BIC      r0,r0,#0xf000
        0x0000cff4:    f5005080    ...P    ADD      r0,r0,#0x1000
        0x0000cff8:    f8c40358    ..X.    STR      r0,[r4,#0x358]
        0x0000cffc:    f8d40358    ..X.    LDR      r0,[r4,#0x358]
        0x0000d000:    f02040f0     ..@    BIC      r0,r0,#0x78000000
        0x0000d004:    f10050c0    ...P    ADD      r0,r0,#0x18000000
        0x0000d008:    f8c40358    ..X.    STR      r0,[r4,#0x358]
        0x0000d00c:    f8d4035c    ..\.    LDR      r0,[r4,#0x35c]
        0x0000d010:    f020000f     ...    BIC      r0,r0,#0xf
        0x0000d014:    1cc0        ..      ADDS     r0,r0,#3
        0x0000d016:    f8c4035c    ..\.    STR      r0,[r4,#0x35c]
        0x0000d01a:    68e0        .h      LDR      r0,[r4,#0xc]
        0x0000d01c:    b2c0        ..      UXTB     r0,r0
        0x0000d01e:    2812        .(      CMP      r0,#0x12
        0x0000d020:    d305        ..      BCC      0xd02e ; am_hal_pwrctrl_low_power_init + 262
        0x0000d022:    f8d4035c    ..\.    LDR      r0,[r4,#0x35c]
        0x0000d026:    f0207080     ..p    BIC      r0,r0,#0x1000000
        0x0000d02a:    f8c4035c    ..\.    STR      r0,[r4,#0x35c]
        0x0000d02e:    2100        .!      MOVS     r1,#0
        0x0000d030:    200c        .       MOVS     r0,#0xc
        0x0000d032:    f7fffa01    ....    BL       am_hal_cachectrl_control ; 0xc438
        0x0000d036:    69a8        .i      LDR      r0,[r5,#0x18]
        0x0000d038:    f4107f80    ....    TST      r0,#0x100
        0x0000d03c:    d132        2.      BNE      0xd0a4 ; am_hal_pwrctrl_low_power_init + 380
        0x0000d03e:    69a0        .i      LDR      r0,[r4,#0x18]
        0x0000d040:    f0400001    @...    ORR      r0,r0,#1
        0x0000d044:    61a0        .a      STR      r0,[r4,#0x18]
        0x0000d046:    2307        .#      MOVS     r3,#7
        0x0000d048:    461a        .F      MOV      r2,r3
        0x0000d04a:    491d        .I      LDR      r1,[pc,#116] ; [0xd0c0] = 0x40020018
        0x0000d04c:    f2427010    B..p    MOV      r0,#0x2710
        0x0000d050:    f8cd8000    ....    STR      r8,[sp,#0]
        0x0000d054:    f7fffc0c    ....    BL       am_hal_flash_delay_status_check ; 0xc870
        0x0000d058:    2800        .(      CMP      r0,#0
        0x0000d05a:    bf1c        ..      ITT      NE
        0x0000d05c:    2004        .       MOVNE    r0,#4
        0x0000d05e:    e8bd83f8    ....    POPNE    {r3-r9,pc}
        0x0000d062:    6828        (h      LDR      r0,[r5,#0]
        0x0000d064:    f0400001    @...    ORR      r0,r0,#1
        0x0000d068:    6028        (`      STR      r0,[r5,#0]
        0x0000d06a:    6a68        hj      LDR      r0,[r5,#0x24]
        0x0000d06c:    f0400040    @.@.    ORR      r0,r0,#0x40
        0x0000d070:    6268        hb      STR      r0,[r5,#0x24]
        0x0000d072:    68e0        .h      LDR      r0,[r4,#0xc]
        0x0000d074:    b2c0        ..      UXTB     r0,r0
        0x0000d076:    2811        .(      CMP      r0,#0x11
        0x0000d078:    d114        ..      BNE      0xd0a4 ; am_hal_pwrctrl_low_power_init + 380
        0x0000d07a:    f8d4035c    ..\.    LDR      r0,[r4,#0x35c]
        0x0000d07e:    f42000c0     ...    BIC      r0,r0,#0x600000
        0x0000d082:    f8c4035c    ..\.    STR      r0,[r4,#0x35c]
        0x0000d086:    f8d40368    ..h.    LDR      r0,[r4,#0x368]
        0x0000d08a:    f420607c     .|`    BIC      r0,r0,#0xfc0
        0x0000d08e:    f5007070    ..pp    ADD      r0,r0,#0x3c0
        0x0000d092:    f8c40368    ..h.    STR      r0,[r4,#0x368]
        0x0000d096:    f8d40368    ..h.    LDR      r0,[r4,#0x368]
        0x0000d09a:    f020003f     .?.    BIC      r0,r0,#0x3f
        0x0000d09e:    300f        .0      ADDS     r0,r0,#0xf
        0x0000d0a0:    f8c40368    ..h.    STR      r0,[r4,#0x368]
        0x0000d0a4:    2000        .       MOVS     r0,#0
        0x0000d0a6:    e8bd83f8    ....    POP      {r3-r9,pc}
    $d
        0x0000d0aa:    0000        ..      DCW    0
        0x0000d0ac:    10000074    t...    DCD    268435572
        0x0000d0b0:    4ffff000    ...O    DCD    1342173184
        0x0000d0b4:    40020000    ...@    DCD    1073872896
        0x0000d0b8:    40021000    ...@    DCD    1073876992
        0x0000d0bc:    0000e5ec    ....    DCD    58860
        0x0000d0c0:    40020018    ...@    DCD    1073872920
    $t
    i.am_hal_pwrctrl_periph_disable
    am_hal_pwrctrl_periph_disable
        0x0000d0c4:    b5f8        ..      PUSH     {r3-r7,lr}
        0x0000d0c6:    4605        .F      MOV      r5,r0
        0x0000d0c8:    f7fff89c    ....    BL       am_hal_interrupt_master_disable ; 0xc204
        0x0000d0cc:    4c0f        .L      LDR      r4,[pc,#60] ; [0xd10c] = 0x40021000
        0x0000d0ce:    9000        ..      STR      r0,[sp,#0]
        0x0000d0d0:    68a0        .h      LDR      r0,[r4,#8]
        0x0000d0d2:    4e0f        .N      LDR      r6,[pc,#60] ; [0xd110] = 0xe5ec
        0x0000d0d4:    eb050745    ..E.    ADD      r7,r5,r5,LSL #1
        0x0000d0d8:    f8561027    V.'.    LDR      r1,[r6,r7,LSL #2]
        0x0000d0dc:    4388        .C      BICS     r0,r0,r1
        0x0000d0de:    60a0        .`      STR      r0,[r4,#8]
        0x0000d0e0:    9800        ..      LDR      r0,[sp,#0]
        0x0000d0e2:    f7fff893    ....    BL       am_hal_interrupt_master_set ; 0xc20c
        0x0000d0e6:    2500        .%      MOVS     r5,#0
        0x0000d0e8:    eb060687    ....    ADD      r6,r6,r7,LSL #2
        0x0000d0ec:    20a0        .       MOVS     r0,#0xa0
        0x0000d0ee:    f7fffbad    ....    BL       am_hal_flash_delay ; 0xc84c
        0x0000d0f2:    69a0        .i      LDR      r0,[r4,#0x18]
        0x0000d0f4:    6871        qh      LDR      r1,[r6,#4]
        0x0000d0f6:    4208        .B      TST      r0,r1
        0x0000d0f8:    d002        ..      BEQ      0xd100 ; am_hal_pwrctrl_periph_disable + 60
        0x0000d0fa:    350a        .5      ADDS     r5,r5,#0xa
        0x0000d0fc:    2d14        .-      CMP      r5,#0x14
        0x0000d0fe:    d3f5        ..      BCC      0xd0ec ; am_hal_pwrctrl_periph_disable + 40
        0x0000d100:    69a0        .i      LDR      r0,[r4,#0x18]
        0x0000d102:    4008        .@      ANDS     r0,r0,r1
        0x0000d104:    bf18        ..      IT       NE
        0x0000d106:    2001        .       MOVNE    r0,#1
        0x0000d108:    bdf8        ..      POP      {r3-r7,pc}
    $d
        0x0000d10a:    0000        ..      DCW    0
        0x0000d10c:    40021000    ...@    DCD    1073876992
        0x0000d110:    0000e5ec    ....    DCD    58860
    $t
    i.am_hal_pwrctrl_periph_enable
    am_hal_pwrctrl_periph_enable
        0x0000d114:    b5f8        ..      PUSH     {r3-r7,lr}
        0x0000d116:    4605        .F      MOV      r5,r0
        0x0000d118:    f7fff874    ..t.    BL       am_hal_interrupt_master_disable ; 0xc204
        0x0000d11c:    4c0f        .L      LDR      r4,[pc,#60] ; [0xd15c] = 0x40021000
        0x0000d11e:    9000        ..      STR      r0,[sp,#0]
        0x0000d120:    68a0        .h      LDR      r0,[r4,#8]
        0x0000d122:    4e0f        .N      LDR      r6,[pc,#60] ; [0xd160] = 0xe5ec
        0x0000d124:    eb050745    ..E.    ADD      r7,r5,r5,LSL #1
        0x0000d128:    f8561027    V.'.    LDR      r1,[r6,r7,LSL #2]
        0x0000d12c:    4308        .C      ORRS     r0,r0,r1
        0x0000d12e:    60a0        .`      STR      r0,[r4,#8]
        0x0000d130:    9800        ..      LDR      r0,[sp,#0]
        0x0000d132:    f7fff86b    ..k.    BL       am_hal_interrupt_master_set ; 0xc20c
        0x0000d136:    2500        .%      MOVS     r5,#0
        0x0000d138:    eb060687    ....    ADD      r6,r6,r7,LSL #2
        0x0000d13c:    20a0        .       MOVS     r0,#0xa0
        0x0000d13e:    f7fffb85    ....    BL       am_hal_flash_delay ; 0xc84c
        0x0000d142:    69a0        .i      LDR      r0,[r4,#0x18]
        0x0000d144:    6871        qh      LDR      r1,[r6,#4]
        0x0000d146:    4208        .B      TST      r0,r1
        0x0000d148:    d102        ..      BNE      0xd150 ; am_hal_pwrctrl_periph_enable + 60
        0x0000d14a:    350a        .5      ADDS     r5,r5,#0xa
        0x0000d14c:    2d14        .-      CMP      r5,#0x14
        0x0000d14e:    d3f5        ..      BCC      0xd13c ; am_hal_pwrctrl_periph_enable + 40
        0x0000d150:    69a0        .i      LDR      r0,[r4,#0x18]
        0x0000d152:    4208        .B      TST      r0,r1
        0x0000d154:    bf14        ..      ITE      NE
        0x0000d156:    2000        .       MOVNE    r0,#0
        0x0000d158:    2001        .       MOVEQ    r0,#1
        0x0000d15a:    bdf8        ..      POP      {r3-r7,pc}
    $d
        0x0000d15c:    40021000    ...@    DCD    1073876992
        0x0000d160:    0000e5ec    ....    DCD    58860
    $t
    i.am_hal_rtc_osc_disable
    am_hal_rtc_osc_disable
        0x0000d164:    f04f2040    O.@     MOV      r0,#0x40004000
        0x0000d168:    f8d01250    ..P.    LDR      r1,[r0,#0x250]
        0x0000d16c:    f0410110    A...    ORR      r1,r1,#0x10
        0x0000d170:    f8c01250    ..P.    STR      r1,[r0,#0x250]
        0x0000d174:    4770        pG      BX       lr
        0x0000d176:    0000        ..      MOVS     r0,r0
    i.am_hal_tpiu_enable
    am_hal_tpiu_enable
        0x0000d178:    e92d41f0    -..A    PUSH     {r4-r8,lr}
        0x0000d17c:    4c1d        .L      LDR      r4,[pc,#116] ; [0xd1f4] = 0xe0040000
        0x0000d17e:    b084        ..      SUB      sp,sp,#0x10
        0x0000d180:    2600        .&      MOVS     r6,#0
        0x0000d182:    6805        .h      LDR      r5,[r0,#0]
        0x0000d184:    f8c46304    ...c    STR      r6,[r4,#0x304]
        0x0000d188:    4f1b        .O      LDR      r7,[pc,#108] ; [0xd1f8] = 0xe0040f00
        0x0000d18a:    f8df8070    ..p.    LDR      r8,[pc,#112] ; [0xd1fc] = 0x40020000
        0x0000d18e:    2101        .!      MOVS     r1,#1
        0x0000d190:    b31d        ..      CBZ      r5,0xd1da ; am_hal_tpiu_enable + 98
        0x0000d192:    6061        a`      STR      r1,[r4,#4]
        0x0000d194:    491a        .I      LDR      r1,[pc,#104] ; [0xd200] = 0x1da381
        0x0000d196:    f5a54061    ..a@    SUB      r0,r5,#0xe100
        0x0000d19a:    4288        .B      CMP      r0,r1
        0x0000d19c:    bf28        (.      IT       CS
        0x0000d19e:    4d19        .M      LDRCS    r5,[pc,#100] ; [0xd204] = 0xf4240
        0x0000d1a0:    4668        hF      MOV      r0,sp
        0x0000d1a2:    f7fffb39    ..9.    BL       am_hal_clkgen_status_get ; 0xc818
        0x0000d1a6:    9800        ..      LDR      r0,[sp,#0]
        0x0000d1a8:    f1b03fff    ...?    CMP      r0,#0xffffffff
        0x0000d1ac:    bf1d        ..      ITTTE    NE
        0x0000d1ae:    08c0        ..      LSRNE    r0,r0,#3
        0x0000d1b0:    fbb0f0f5    ....    UDIVNE   r0,r0,r5
        0x0000d1b4:    1e40        @.      SUBNE    r0,r0,#1
        0x0000d1b6:    2005        .       MOVEQ    r0,#5
        0x0000d1b8:    b280        ..      UXTH     r0,r0
        0x0000d1ba:    6120         a      STR      r0,[r4,#0x10]
        0x0000d1bc:    2002        .       MOVS     r0,#2
        0x0000d1be:    f8c400f0    ....    STR      r0,[r4,#0xf0]
        0x0000d1c2:    603e        >`      STR      r6,[r7,#0]
        0x0000d1c4:    f2402001    @..     MOV      r0,#0x201
        0x0000d1c8:    f8c80250    ..P.    STR      r0,[r8,#0x250]
        0x0000d1cc:    f44f7048    O.Hp    MOV      r0,#0x320
        0x0000d1d0:    f7fffb3c    ..<.    BL       am_hal_flash_delay ; 0xc84c
        0x0000d1d4:    b004        ..      ADD      sp,sp,#0x10
        0x0000d1d6:    e8bd81f0    ....    POP      {r4-r8,pc}
        0x0000d1da:    6902        .i      LDR      r2,[r0,#0x10]
        0x0000d1dc:    6122        "a      STR      r2,[r4,#0x10]
        0x0000d1de:    6882        .h      LDR      r2,[r0,#8]
        0x0000d1e0:    f8c420f0    ...     STR      r2,[r4,#0xf0]
        0x0000d1e4:    7b02        .{      LDRB     r2,[r0,#0xc]
        0x0000d1e6:    1e52        R.      SUBS     r2,r2,#1
        0x0000d1e8:    4091        .@      LSLS     r1,r1,r2
        0x0000d1ea:    6061        a`      STR      r1,[r4,#4]
        0x0000d1ec:    603e        >`      STR      r6,[r7,#0]
        0x0000d1ee:    6840        @h      LDR      r0,[r0,#4]
        0x0000d1f0:    e7ea        ..      B        0xd1c8 ; am_hal_tpiu_enable + 80
    $d
        0x0000d1f2:    0000        ..      DCW    0
        0x0000d1f4:    e0040000    ....    DCD    3758358528
        0x0000d1f8:    e0040f00    ....    DCD    3758362368
        0x0000d1fc:    40020000    ...@    DCD    1073872896
        0x0000d200:    001da381    ....    DCD    1942401
        0x0000d204:    000f4240    @B..    DCD    1000000
    $t
    i.am_hal_uart_deinitialize
    am_hal_uart_deinitialize
        0x0000d208:    2800        .(      CMP      r0,#0
        0x0000d20a:    bf1c        ..      ITT      NE
        0x0000d20c:    6801        .h      LDRNE    r1,[r0,#0]
        0x0000d20e:    f0117f80    ....    TSTNE    r1,#0x1000000
        0x0000d212:    d004        ..      BEQ      0xd21e ; am_hal_uart_deinitialize + 22
        0x0000d214:    4b07        .K      LDR      r3,[pc,#28] ; [0xd234] = 0xea9e06
        0x0000d216:    f021427f    !..B    BIC      r2,r1,#0xff000000
        0x0000d21a:    429a        .B      CMP      r2,r3
        0x0000d21c:    d001        ..      BEQ      0xd222 ; am_hal_uart_deinitialize + 26
        0x0000d21e:    2002        .       MOVS     r0,#2
        0x0000d220:    4770        pG      BX       lr
        0x0000d222:    f0217180    !..q    BIC      r1,r1,#0x1000000
        0x0000d226:    6001        .`      STR      r1,[r0,#0]
        0x0000d228:    2100        .!      MOVS     r1,#0
        0x0000d22a:    6241        Ab      STR      r1,[r0,#0x24]
        0x0000d22c:    7101        .q      STRB     r1,[r0,#4]
        0x0000d22e:    4608        .F      MOV      r0,r1
        0x0000d230:    4770        pG      BX       lr
    $d
        0x0000d232:    0000        ..      DCW    0
        0x0000d234:    00ea9e06    ....    DCD    15375878
    $t
    i.am_hal_uart_power_control
    am_hal_uart_power_control
        0x0000d238:    b5f8        ..      PUSH     {r3-r7,lr}
        0x0000d23a:    6a47        Gj      LDR      r7,[r0,#0x24]
        0x0000d23c:    1e04        ..      SUBS     r4,r0,#0
        0x0000d23e:    f1070308    ....    ADD      r3,r7,#8
        0x0000d242:    b2dd        ..      UXTB     r5,r3
        0x0000d244:    bf1c        ..      ITT      NE
        0x0000d246:    6820         h      LDRNE    r0,[r4,#0]
        0x0000d248:    f0107f80    ....    TSTNE    r0,#0x1000000
        0x0000d24c:    d004        ..      BEQ      0xd258 ; am_hal_uart_power_control + 32
        0x0000d24e:    4e34        4N      LDR      r6,[pc,#208] ; [0xd320] = 0xea9e06
        0x0000d250:    f020407f     ..@    BIC      r0,r0,#0xff000000
        0x0000d254:    42b0        .B      CMP      r0,r6
        0x0000d256:    d001        ..      BEQ      0xd25c ; am_hal_uart_power_control + 36
        0x0000d258:    2002        .       MOVS     r0,#2
        0x0000d25a:    bdf8        ..      POP      {r3-r7,pc}
        0x0000d25c:    2900        .)      CMP      r1,#0
        0x0000d25e:    d036        6.      BEQ      0xd2ce ; am_hal_uart_power_control + 150
        0x0000d260:    2901        .)      CMP      r1,#1
        0x0000d262:    bf1e        ..      ITTT     NE
        0x0000d264:    2902        .)      CMPNE    r1,#2
        0x0000d266:    2006        .       MOVNE    r0,#6
        0x0000d268:    bdf8        ..      POPNE    {r3-r7,pc}
        0x0000d26a:    b1d2        ..      CBZ      r2,0xd2a2 ; am_hal_uart_power_control + 106
        0x0000d26c:    f7feffca    ....    BL       am_hal_interrupt_master_disable ; 0xc204
        0x0000d270:    9000        ..      STR      r0,[sp,#0]
        0x0000d272:    0338        8.      LSLS     r0,r7,#12
        0x0000d274:    f1004080    ...@    ADD      r0,r0,#0x40000000
        0x0000d278:    f50030e0    ...0    ADD      r0,r0,#0x1c000
        0x0000d27c:    6a01        .j      LDR      r1,[r0,#0x20]
        0x0000d27e:    60a1        .`      STR      r1,[r4,#8]
        0x0000d280:    6a41        Aj      LDR      r1,[r0,#0x24]
        0x0000d282:    60e1        .`      STR      r1,[r4,#0xc]
        0x0000d284:    6a81        .j      LDR      r1,[r0,#0x28]
        0x0000d286:    6121        !a      STR      r1,[r4,#0x10]
        0x0000d288:    6ac1        .j      LDR      r1,[r0,#0x2c]
        0x0000d28a:    6161        aa      STR      r1,[r4,#0x14]
        0x0000d28c:    6b01        .k      LDR      r1,[r0,#0x30]
        0x0000d28e:    61a1        .a      STR      r1,[r4,#0x18]
        0x0000d290:    6b41        Ak      LDR      r1,[r0,#0x34]
        0x0000d292:    61e1        .a      STR      r1,[r4,#0x1c]
        0x0000d294:    6b80        .k      LDR      r0,[r0,#0x38]
        0x0000d296:    6220         b      STR      r0,[r4,#0x20]
        0x0000d298:    2001        .       MOVS     r0,#1
        0x0000d29a:    7120         q      STRB     r0,[r4,#4]
        0x0000d29c:    9800        ..      LDR      r0,[sp,#0]
        0x0000d29e:    f7feffb5    ....    BL       am_hal_interrupt_master_set ; 0xc20c
        0x0000d2a2:    6822        "h      LDR      r2,[r4,#0]
        0x0000d2a4:    6a61        aj      LDR      r1,[r4,#0x24]
        0x0000d2a6:    f04f30ff    O..0    MOV      r0,#0xffffffff
        0x0000d2aa:    f0127f80    ....    TST      r2,#0x1000000
        0x0000d2ae:    d009        ..      BEQ      0xd2c4 ; am_hal_uart_power_control + 140
        0x0000d2b0:    f022427f    "..B    BIC      r2,r2,#0xff000000
        0x0000d2b4:    42b2        .B      CMP      r2,r6
        0x0000d2b6:    d105        ..      BNE      0xd2c4 ; am_hal_uart_power_control + 140
        0x0000d2b8:    0309        ..      LSLS     r1,r1,#12
        0x0000d2ba:    f1014180    ...A    ADD      r1,r1,#0x40000000
        0x0000d2be:    f50131e0    ...1    ADD      r1,r1,#0x1c000
        0x0000d2c2:    6448        Hd      STR      r0,[r1,#0x44]
        0x0000d2c4:    4628        (F      MOV      r0,r5
        0x0000d2c6:    f7fffefd    ....    BL       am_hal_pwrctrl_periph_disable ; 0xd0c4
        0x0000d2ca:    2000        .       MOVS     r0,#0
        0x0000d2cc:    bdf8        ..      POP      {r3-r7,pc}
        0x0000d2ce:    b31a        ..      CBZ      r2,0xd318 ; am_hal_uart_power_control + 224
        0x0000d2d0:    7920         y      LDRB     r0,[r4,#4]
        0x0000d2d2:    2800        .(      CMP      r0,#0
        0x0000d2d4:    bf04        ..      ITT      EQ
        0x0000d2d6:    2007        .       MOVEQ    r0,#7
        0x0000d2d8:    bdf8        ..      POPEQ    {r3-r7,pc}
        0x0000d2da:    4628        (F      MOV      r0,r5
        0x0000d2dc:    f7ffff1a    ....    BL       am_hal_pwrctrl_periph_enable ; 0xd114
        0x0000d2e0:    f7feff90    ....    BL       am_hal_interrupt_master_disable ; 0xc204
        0x0000d2e4:    9000        ..      STR      r0,[sp,#0]
        0x0000d2e6:    0338        8.      LSLS     r0,r7,#12
        0x0000d2e8:    f1004080    ...@    ADD      r0,r0,#0x40000000
        0x0000d2ec:    f50030e0    ...0    ADD      r0,r0,#0x1c000
        0x0000d2f0:    68a1        .h      LDR      r1,[r4,#8]
        0x0000d2f2:    6201        .b      STR      r1,[r0,#0x20]
        0x0000d2f4:    68e1        .h      LDR      r1,[r4,#0xc]
        0x0000d2f6:    6241        Ab      STR      r1,[r0,#0x24]
        0x0000d2f8:    6921        !i      LDR      r1,[r4,#0x10]
        0x0000d2fa:    6281        .b      STR      r1,[r0,#0x28]
        0x0000d2fc:    6961        ai      LDR      r1,[r4,#0x14]
        0x0000d2fe:    62c1        .b      STR      r1,[r0,#0x2c]
        0x0000d300:    69a1        .i      LDR      r1,[r4,#0x18]
        0x0000d302:    6301        .c      STR      r1,[r0,#0x30]
        0x0000d304:    69e1        .i      LDR      r1,[r4,#0x1c]
        0x0000d306:    6341        Ac      STR      r1,[r0,#0x34]
        0x0000d308:    6a21        !j      LDR      r1,[r4,#0x20]
        0x0000d30a:    6381        .c      STR      r1,[r0,#0x38]
        0x0000d30c:    2000        .       MOVS     r0,#0
        0x0000d30e:    7120         q      STRB     r0,[r4,#4]
        0x0000d310:    9800        ..      LDR      r0,[sp,#0]
        0x0000d312:    f7feff7b    ..{.    BL       am_hal_interrupt_master_set ; 0xc20c
        0x0000d316:    e7d8        ..      B        0xd2ca ; am_hal_uart_power_control + 146
        0x0000d318:    4628        (F      MOV      r0,r5
        0x0000d31a:    f7fffefb    ....    BL       am_hal_pwrctrl_periph_enable ; 0xd114
        0x0000d31e:    e7d4        ..      B        0xd2ca ; am_hal_uart_power_control + 146
    $d
        0x0000d320:    00ea9e06    ....    DCD    15375878
    $t
    i.am_hal_uart_tx_flush
    am_hal_uart_tx_flush
        0x0000d324:    b570        p.      PUSH     {r4-r6,lr}
        0x0000d326:    4604        .F      MOV      r4,r0
        0x0000d328:    6a46        Fj      LDR      r6,[r0,#0x24]
        0x0000d32a:    f8900028    ..(.    LDRB     r0,[r0,#0x28]
        0x0000d32e:    4d13        .M      LDR      r5,[pc,#76] ; [0xd37c] = 0xb71b00
        0x0000d330:    2800        .(      CMP      r0,#0
        0x0000d332:    bf1c        ..      ITT      NE
        0x0000d334:    6b60        `k      LDRNE    r0,[r4,#0x34]
        0x0000d336:    2800        .(      CMPNE    r0,#0
        0x0000d338:    d009        ..      BEQ      0xd34e ; am_hal_uart_tx_flush + 42
        0x0000d33a:    6e20         n      LDR      r0,[r4,#0x60]
        0x0000d33c:    fbb5f0f0    ....    UDIV     r0,r5,r0
        0x0000d340:    ea4f1000    O...    LSL      r0,r0,#4
        0x0000d344:    f7fffa82    ....    BL       am_hal_flash_delay ; 0xc84c
        0x0000d348:    6b60        `k      LDR      r0,[r4,#0x34]
        0x0000d34a:    2800        .(      CMP      r0,#0
        0x0000d34c:    d1f5        ..      BNE      0xd33a ; am_hal_uart_tx_flush + 22
        0x0000d34e:    0330        0.      LSLS     r0,r6,#12
        0x0000d350:    f1004680    ...F    ADD      r6,r0,#0x40000000
        0x0000d354:    f50636e0    ...6    ADD      r6,r6,#0x1c000
        0x0000d358:    69b0        .i      LDR      r0,[r6,#0x18]
        0x0000d35a:    f0100f08    ....    TST      r0,#8
        0x0000d35e:    d00a        ..      BEQ      0xd376 ; am_hal_uart_tx_flush + 82
        0x0000d360:    6e20         n      LDR      r0,[r4,#0x60]
        0x0000d362:    fbb5f0f0    ....    UDIV     r0,r5,r0
        0x0000d366:    ea4f1000    O...    LSL      r0,r0,#4
        0x0000d36a:    f7fffa6f    ..o.    BL       am_hal_flash_delay ; 0xc84c
        0x0000d36e:    69b0        .i      LDR      r0,[r6,#0x18]
        0x0000d370:    f0100f08    ....    TST      r0,#8
        0x0000d374:    d1f4        ..      BNE      0xd360 ; am_hal_uart_tx_flush + 60
        0x0000d376:    f04f0000    O...    MOV      r0,#0
        0x0000d37a:    bd70        p.      POP      {r4-r6,pc}
    $d
        0x0000d37c:    00b71b00    ....    DCD    12000000
    $t
    i.am_util_delay_ms
    am_util_delay_ms
        0x0000d380:    b510        ..      PUSH     {r4,lr}
        0x0000d382:    b084        ..      SUB      sp,sp,#0x10
        0x0000d384:    4604        .F      MOV      r4,r0
        0x0000d386:    4668        hF      MOV      r0,sp
        0x0000d388:    f7fffa46    ..F.    BL       am_hal_clkgen_status_get ; 0xc818
        0x0000d38c:    9800        ..      LDR      r0,[sp,#0]
        0x0000d38e:    f64031b8    @..1    MOV      r1,#0xbb8
        0x0000d392:    fbb0f0f1    ....    UDIV     r0,r0,r1
        0x0000d396:    4360        `C      MULS     r0,r4,r0
        0x0000d398:    f7fffa58    ..X.    BL       am_hal_flash_delay ; 0xc84c
        0x0000d39c:    b004        ..      ADD      sp,sp,#0x10
        0x0000d39e:    bd10        ..      POP      {r4,pc}
    i.am_util_faultisr_collect_data
    am_util_faultisr_collect_data
        0x0000d3a0:    b092        ..      SUB      sp,sp,#0x48
        0x0000d3a2:    4604        .F      MOV      r4,r0
        0x0000d3a4:    2000        .       MOVS     r0,#0
        0x0000d3a6:    900c        ..      STR      r0,[sp,#0x30]
        0x0000d3a8:    900f        ..      STR      r0,[sp,#0x3c]
        0x0000d3aa:    900d        ..      STR      r0,[sp,#0x34]
        0x0000d3ac:    900e        ..      STR      r0,[sp,#0x38]
        0x0000d3ae:    9010        ..      STR      r0,[sp,#0x40]
        0x0000d3b0:    9011        ..      STR      r0,[sp,#0x44]
        0x0000d3b2:    900a        ..      STR      r0,[sp,#0x28]
        0x0000d3b4:    4825        %H      LDR      r0,[pc,#148] ; [0xd44c] = 0xe000ed28
        0x0000d3b6:    6800        .h      LDR      r0,[r0,#0]
        0x0000d3b8:    900a        ..      STR      r0,[sp,#0x28]
        0x0000d3ba:    980a        ..      LDR      r0,[sp,#0x28]
        0x0000d3bc:    f88d002c    ..,.    STRB     r0,[sp,#0x2c]
        0x0000d3c0:    980a        ..      LDR      r0,[sp,#0x28]
        0x0000d3c2:    0a00        ..      LSRS     r0,r0,#8
        0x0000d3c4:    f88d002d    ..-.    STRB     r0,[sp,#0x2d]
        0x0000d3c8:    980a        ..      LDR      r0,[sp,#0x28]
        0x0000d3ca:    0c00        ..      LSRS     r0,r0,#16
        0x0000d3cc:    f8ad002e    ....    STRH     r0,[sp,#0x2e]
        0x0000d3d0:    481f        .H      LDR      r0,[pc,#124] ; [0xd450] = 0xe000ed38
        0x0000d3d2:    6800        .h      LDR      r0,[r0,#0]
        0x0000d3d4:    9009        ..      STR      r0,[sp,#0x24]
        0x0000d3d6:    f89d002d    ..-.    LDRB     r0,[sp,#0x2d]
        0x0000d3da:    f0100f02    ....    TST      r0,#2
        0x0000d3de:    bf08        ..      IT       EQ
        0x0000d3e0:    f04f30ff    O..0    MOVEQ    r0,#0xffffffff
        0x0000d3e4:    d003        ..      BEQ      0xd3ee ; am_util_faultisr_collect_data + 78
        0x0000d3e6:    4621        !F      MOV      r1,r4
        0x0000d3e8:    2006        .       MOVS     r0,#6
        0x0000d3ea:    f7feff02    ....    BL       getStackedReg ; 0xc1f2
        0x0000d3ee:    9008        ..      STR      r0,[sp,#0x20]
        0x0000d3f0:    4621        !F      MOV      r1,r4
        0x0000d3f2:    2000        .       MOVS     r0,#0
        0x0000d3f4:    f7fefefd    ....    BL       getStackedReg ; 0xc1f2
        0x0000d3f8:    9000        ..      STR      r0,[sp,#0]
        0x0000d3fa:    4621        !F      MOV      r1,r4
        0x0000d3fc:    2001        .       MOVS     r0,#1
        0x0000d3fe:    f7fefef8    ....    BL       getStackedReg ; 0xc1f2
        0x0000d402:    9001        ..      STR      r0,[sp,#4]
        0x0000d404:    4621        !F      MOV      r1,r4
        0x0000d406:    2002        .       MOVS     r0,#2
        0x0000d408:    f7fefef3    ....    BL       getStackedReg ; 0xc1f2
        0x0000d40c:    9002        ..      STR      r0,[sp,#8]
        0x0000d40e:    4621        !F      MOV      r1,r4
        0x0000d410:    2003        .       MOVS     r0,#3
        0x0000d412:    f7fefeee    ....    BL       getStackedReg ; 0xc1f2
        0x0000d416:    9003        ..      STR      r0,[sp,#0xc]
        0x0000d418:    4621        !F      MOV      r1,r4
        0x0000d41a:    2004        .       MOVS     r0,#4
        0x0000d41c:    f7fefee9    ....    BL       getStackedReg ; 0xc1f2
        0x0000d420:    9004        ..      STR      r0,[sp,#0x10]
        0x0000d422:    4621        !F      MOV      r1,r4
        0x0000d424:    2005        .       MOVS     r0,#5
        0x0000d426:    f7fefee4    ....    BL       getStackedReg ; 0xc1f2
        0x0000d42a:    9005        ..      STR      r0,[sp,#0x14]
        0x0000d42c:    4621        !F      MOV      r1,r4
        0x0000d42e:    2006        .       MOVS     r0,#6
        0x0000d430:    f7fefedf    ....    BL       getStackedReg ; 0xc1f2
        0x0000d434:    9006        ..      STR      r0,[sp,#0x18]
        0x0000d436:    4621        !F      MOV      r1,r4
        0x0000d438:    2007        .       MOVS     r0,#7
        0x0000d43a:    f7fefeda    ....    BL       getStackedReg ; 0xc1f2
        0x0000d43e:    9007        ..      STR      r0,[sp,#0x1c]
        0x0000d440:    a90c        ..      ADD      r1,sp,#0x30
        0x0000d442:    2002        .       MOVS     r0,#2
        0x0000d444:    f7fffcd4    ....    BL       am_hal_mcuctrl_info_get ; 0xcdf0
        0x0000d448:    e7fe        ..      B        0xd448 ; am_util_faultisr_collect_data + 168
    $d
        0x0000d44a:    0000        ..      DCW    0
        0x0000d44c:    e000ed28    (...    DCD    3758157096
        0x0000d450:    e000ed38    8...    DCD    3758157112
    $t
    i.am_util_stdio_printf
    am_util_stdio_printf
        0x0000d454:    b40f        ..      PUSH     {r0-r3}
        0x0000d456:    b570        p.      PUSH     {r4-r6,lr}
        0x0000d458:    4c09        .L      LDR      r4,[pc,#36] ; [0xd480] = 0x10000010
        0x0000d45a:    6860        `h      LDR      r0,[r4,#4]
        0x0000d45c:    2800        .(      CMP      r0,#0
        0x0000d45e:    bf04        ..      ITT      EQ
        0x0000d460:    bc70        p.      POPEQ    {r4-r6}
        0x0000d462:    f85dfb14    ]...    LDREQ    pc,[sp],#0x14
        0x0000d466:    aa05        ..      ADD      r2,sp,#0x14
        0x0000d468:    4806        .H      LDR      r0,[pc,#24] ; [0xd484] = 0x10001078
        0x0000d46a:    9904        ..      LDR      r1,[sp,#0x10]
        0x0000d46c:    f000f830    ..0.    BL       am_util_stdio_vsprintf ; 0xd4d0
        0x0000d470:    4605        .F      MOV      r5,r0
        0x0000d472:    6861        ah      LDR      r1,[r4,#4]
        0x0000d474:    4803        .H      LDR      r0,[pc,#12] ; [0xd484] = 0x10001078
        0x0000d476:    4788        .G      BLX      r1
        0x0000d478:    4628        (F      MOV      r0,r5
        0x0000d47a:    bc70        p.      POP      {r4-r6}
        0x0000d47c:    f85dfb14    ]...    LDR      pc,[sp],#0x14
    $d
        0x0000d480:    10000010    ....    DCD    268435472
        0x0000d484:    10001078    x...    DCD    268439672
    $t
    i.am_util_stdio_printf_init
    am_util_stdio_printf_init
        0x0000d488:    4901        .I      LDR      r1,[pc,#4] ; [0xd490] = 0x10000010
        0x0000d48a:    6048        H`      STR      r0,[r1,#4]
        0x0000d48c:    4770        pG      BX       lr
    $d
        0x0000d48e:    0000        ..      DCW    0
        0x0000d490:    10000010    ....    DCD    268435472
    $t
    i.am_util_stdio_terminal_clear
    am_util_stdio_terminal_clear
        0x0000d494:    b538        8.      PUSH     {r3-r5,lr}
        0x0000d496:    4c0c        .L      LDR      r4,[pc,#48] ; [0xd4c8] = 0x10000010
        0x0000d498:    a106        ..      ADR      r1,{pc}+0x1c ; 0xd4b4
        0x0000d49a:    9100        ..      STR      r1,[sp,#0]
        0x0000d49c:    6860        `h      LDR      r0,[r4,#4]
        0x0000d49e:    2800        .(      CMP      r0,#0
        0x0000d4a0:    bf08        ..      IT       EQ
        0x0000d4a2:    bd38        8.      POPEQ    {r3-r5,pc}
        0x0000d4a4:    aa01        ..      ADD      r2,sp,#4
        0x0000d4a6:    4809        .H      LDR      r0,[pc,#36] ; [0xd4cc] = 0x10001078
        0x0000d4a8:    f000f812    ....    BL       am_util_stdio_vsprintf ; 0xd4d0
        0x0000d4ac:    6861        ah      LDR      r1,[r4,#4]
        0x0000d4ae:    4807        .H      LDR      r0,[pc,#28] ; [0xd4cc] = 0x10001078
        0x0000d4b0:    4788        .G      BLX      r1
        0x0000d4b2:    bd38        8.      POP      {r3-r5,pc}
    $d
        0x0000d4b4:    0a0a0a0a    ....    DCD    168430090
        0x0000d4b8:    0a0a0a0a    ....    DCD    168430090
        0x0000d4bc:    0a0a0a0a    ....    DCD    168430090
        0x0000d4c0:    0a0a0a0a    ....    DCD    168430090
        0x0000d4c4:    00000a0a    ....    DCD    2570
        0x0000d4c8:    10000010    ....    DCD    268435472
        0x0000d4cc:    10001078    x...    DCD    268439672
    $t
    i.am_util_stdio_vsprintf
    am_util_stdio_vsprintf
        0x0000d4d0:    e92d4ff7    -..O    PUSH     {r0-r2,r4-r11,lr}
        0x0000d4d4:    4604        .F      MOV      r4,r0
        0x0000d4d6:    7808        .x      LDRB     r0,[r1,#0]
        0x0000d4d8:    2500        .%      MOVS     r5,#0
        0x0000d4da:    b088        ..      SUB      sp,sp,#0x20
        0x0000d4dc:    2800        .(      CMP      r0,#0
        0x0000d4de:    f0008385    ....    BEQ.W    0xdbec ; am_util_stdio_vsprintf + 1820
        0x0000d4e2:    bf00        ..      NOP      
        0x0000d4e4:    b2c0        ..      UXTB     r0,r0
        0x0000d4e6:    f04f0906    O...    MOV      r9,#6
        0x0000d4ea:    2825        %(      CMP      r0,#0x25
        0x0000d4ec:    d010        ..      BEQ      0xd510 ; am_util_stdio_vsprintf + 64
        0x0000d4ee:    b15c        \.      CBZ      r4,0xd508 ; am_util_stdio_vsprintf + 56
        0x0000d4f0:    280a        .(      CMP      r0,#0xa
        0x0000d4f2:    d106        ..      BNE      0xd502 ; am_util_stdio_vsprintf + 50
        0x0000d4f4:    48fe        .H      LDR      r0,[pc,#1016] ; [0xd8f0] = 0x10000010
        0x0000d4f6:    7800        .x      LDRB     r0,[r0,#0]
        0x0000d4f8:    b118        ..      CBZ      r0,0xd502 ; am_util_stdio_vsprintf + 50
        0x0000d4fa:    200d        .       MOVS     r0,#0xd
        0x0000d4fc:    f8040b01    ....    STRB     r0,[r4],#1
        0x0000d500:    1c6d        m.      ADDS     r5,r5,#1
        0x0000d502:    7808        .x      LDRB     r0,[r1,#0]
        0x0000d504:    f8040b01    ....    STRB     r0,[r4],#1
        0x0000d508:    1c49        I.      ADDS     r1,r1,#1
        0x0000d50a:    1c6d        m.      ADDS     r5,r5,#1
        0x0000d50c:    f000bb6a    ..j.    B.W      0xdbe4 ; am_util_stdio_vsprintf + 1812
        0x0000d510:    2020                MOVS     r0,#0x20
        0x0000d512:    9001        ..      STR      r0,[sp,#4]
        0x0000d514:    2700        .'      MOVS     r7,#0
        0x0000d516:    f8110f01    ....    LDRB     r0,[r1,#1]!
        0x0000d51a:    46bc        .F      MOV      r12,r7
        0x0000d51c:    2830        0(      CMP      r0,#0x30
        0x0000d51e:    d101        ..      BNE      0xd524 ; am_util_stdio_vsprintf + 84
        0x0000d520:    1c49        I.      ADDS     r1,r1,#1
        0x0000d522:    9001        ..      STR      r0,[sp,#4]
        0x0000d524:    2600        .&      MOVS     r6,#0
        0x0000d526:    f891a000    ....    LDRB     r10,[r1,#0]
        0x0000d52a:    460a        .F      MOV      r2,r1
        0x0000d52c:    f10d0808    ....    ADD      r8,sp,#8
        0x0000d530:    4630        0F      MOV      r0,r6
        0x0000d532:    4633        3F      MOV      r3,r6
        0x0000d534:    f1ba0f2d    ..-.    CMP      r10,#0x2d
        0x0000d538:    d102        ..      BNE      0xd540 ; am_util_stdio_vsprintf + 112
        0x0000d53a:    2601        .&      MOVS     r6,#1
        0x0000d53c:    1c4a        J.      ADDS     r2,r1,#1
        0x0000d53e:    4633        3F      MOV      r3,r6
        0x0000d540:    f892a000    ....    LDRB     r10,[r2,#0]
        0x0000d544:    f1aa0a30    ..0.    SUB      r10,r10,#0x30
        0x0000d548:    f1ba0f09    ....    CMP      r10,#9
        0x0000d54c:    d80f        ..      BHI      0xd56e ; am_util_stdio_vsprintf + 158
        0x0000d54e:    bf00        ..      NOP      
        0x0000d550:    eb000080    ....    ADD      r0,r0,r0,LSL #2
        0x0000d554:    0040        @.      LSLS     r0,r0,#1
        0x0000d556:    f812ab01    ....    LDRB     r10,[r2],#1
        0x0000d55a:    3830        08      SUBS     r0,r0,#0x30
        0x0000d55c:    4450        PD      ADD      r0,r0,r10
        0x0000d55e:    f892a000    ....    LDRB     r10,[r2,#0]
        0x0000d562:    1c5b        [.      ADDS     r3,r3,#1
        0x0000d564:    f1aa0a30    ..0.    SUB      r10,r10,#0x30
        0x0000d568:    f1ba0f09    ....    CMP      r10,#9
        0x0000d56c:    d9f0        ..      BLS      0xd550 ; am_util_stdio_vsprintf + 128
        0x0000d56e:    f1b80f00    ....    CMP      r8,#0
        0x0000d572:    bf18        ..      IT       NE
        0x0000d574:    9302        ..      STRNE    r3,[sp,#8]
        0x0000d576:    2e00        ..      CMP      r6,#0
        0x0000d578:    bf18        ..      IT       NE
        0x0000d57a:    4240        @B      RSBNE    r0,r0,#0
        0x0000d57c:    9000        ..      STR      r0,[sp,#0]
        0x0000d57e:    9802        ..      LDR      r0,[sp,#8]
        0x0000d580:    180e        ..      ADDS     r6,r1,r0
        0x0000d582:    7830        0x      LDRB     r0,[r6,#0]
        0x0000d584:    2873        s(      CMP      r0,#0x73
        0x0000d586:    d037        7.      BEQ      0xd5f8 ; am_util_stdio_vsprintf + 296
        0x0000d588:    9900        ..      LDR      r1,[sp,#0]
        0x0000d58a:    2900        .)      CMP      r1,#0
        0x0000d58c:    bfbc        ..      ITT      LT
        0x0000d58e:    4249        IB      RSBLT    r1,r1,#0
        0x0000d590:    9100        ..      STRLT    r1,[sp,#0]
        0x0000d592:    282e        .(      CMP      r0,#0x2e
        0x0000d594:    d003        ..      BEQ      0xd59e ; am_util_stdio_vsprintf + 206
        0x0000d596:    7830        0x      LDRB     r0,[r6,#0]
        0x0000d598:    286c        l(      CMP      r0,#0x6c
        0x0000d59a:    d12d        -.      BNE      0xd5f8 ; am_util_stdio_vsprintf + 296
        0x0000d59c:    e025        %.      B        0xd5ea ; am_util_stdio_vsprintf + 282
        0x0000d59e:    1c72        r.      ADDS     r2,r6,#1
        0x0000d5a0:    2300        .#      MOVS     r3,#0
        0x0000d5a2:    7811        .x      LDRB     r1,[r2,#0]
        0x0000d5a4:    4616        .F      MOV      r6,r2
        0x0000d5a6:    4699        .F      MOV      r9,r3
        0x0000d5a8:    4618        .F      MOV      r0,r3
        0x0000d5aa:    292d        -)      CMP      r1,#0x2d
        0x0000d5ac:    d102        ..      BNE      0xd5b4 ; am_util_stdio_vsprintf + 228
        0x0000d5ae:    2301        .#      MOVS     r3,#1
        0x0000d5b0:    1c56        V.      ADDS     r6,r2,#1
        0x0000d5b2:    4618        .F      MOV      r0,r3
        0x0000d5b4:    7831        1x      LDRB     r1,[r6,#0]
        0x0000d5b6:    3930        09      SUBS     r1,r1,#0x30
        0x0000d5b8:    2909        .)      CMP      r1,#9
        0x0000d5ba:    d80b        ..      BHI      0xd5d4 ; am_util_stdio_vsprintf + 260
        0x0000d5bc:    eb090189    ....    ADD      r1,r9,r9,LSL #2
        0x0000d5c0:    0049        I.      LSLS     r1,r1,#1
        0x0000d5c2:    f8169b01    ....    LDRB     r9,[r6],#1
        0x0000d5c6:    3930        09      SUBS     r1,r1,#0x30
        0x0000d5c8:    4489        .D      ADD      r9,r9,r1
        0x0000d5ca:    7831        1x      LDRB     r1,[r6,#0]
        0x0000d5cc:    1c40        @.      ADDS     r0,r0,#1
        0x0000d5ce:    3930        09      SUBS     r1,r1,#0x30
        0x0000d5d0:    2909        .)      CMP      r1,#9
        0x0000d5d2:    d9f3        ..      BLS      0xd5bc ; am_util_stdio_vsprintf + 236
        0x0000d5d4:    f1b80f00    ....    CMP      r8,#0
        0x0000d5d8:    bf18        ..      IT       NE
        0x0000d5da:    9002        ..      STRNE    r0,[sp,#8]
        0x0000d5dc:    2b00        .+      CMP      r3,#0
        0x0000d5de:    bf18        ..      IT       NE
        0x0000d5e0:    f1c90900    ....    RSBNE    r9,r9,#0
        0x0000d5e4:    9802        ..      LDR      r0,[sp,#8]
        0x0000d5e6:    1816        ..      ADDS     r6,r2,r0
        0x0000d5e8:    e7d5        ..      B        0xd596 ; am_util_stdio_vsprintf + 198
        0x0000d5ea:    f8160f01    ....    LDRB     r0,[r6,#1]!
        0x0000d5ee:    286c        l(      CMP      r0,#0x6c
        0x0000d5f0:    bf04        ..      ITT      EQ
        0x0000d5f2:    f04f0c01    O...    MOVEQ    r12,#1
        0x0000d5f6:    1c76        v.      ADDEQ    r6,r6,#1
        0x0000d5f8:    7830        0x      LDRB     r0,[r6,#0]
        0x0000d5fa:    2866        f(      CMP      r0,#0x66
        0x0000d5fc:    f000822a    ..*.    BEQ.W    0xda54 ; am_util_stdio_vsprintf + 1412
        0x0000d600:    dc0a        ..      BGT      0xd618 ; am_util_stdio_vsprintf + 328
        0x0000d602:    2846        F(      CMP      r0,#0x46
        0x0000d604:    f0008226    ..&.    BEQ.W    0xda54 ; am_util_stdio_vsprintf + 1412
        0x0000d608:    2858        X(      CMP      r0,#0x58
        0x0000d60a:    d07d        }.      BEQ      0xd708 ; am_util_stdio_vsprintf + 568
        0x0000d60c:    2863        c(      CMP      r0,#0x63
        0x0000d60e:    d014        ..      BEQ      0xd63a ; am_util_stdio_vsprintf + 362
        0x0000d610:    2864        d(      CMP      r0,#0x64
        0x0000d612:    f00081b5    ....    BEQ.W    0xd980 ; am_util_stdio_vsprintf + 1200
        0x0000d616:    e00b        ..      B        0xd630 ; am_util_stdio_vsprintf + 352
        0x0000d618:    2869        i(      CMP      r0,#0x69
        0x0000d61a:    f00081b1    ....    BEQ.W    0xd980 ; am_util_stdio_vsprintf + 1200
        0x0000d61e:    2873        s(      CMP      r0,#0x73
        0x0000d620:    d016        ..      BEQ      0xd650 ; am_util_stdio_vsprintf + 384
        0x0000d622:    2875        u(      CMP      r0,#0x75
        0x0000d624:    f000810c    ....    BEQ.W    0xd840 ; am_util_stdio_vsprintf + 880
        0x0000d628:    2878        x(      CMP      r0,#0x78
        0x0000d62a:    bf08        ..      IT       EQ
        0x0000d62c:    2701        .'      MOVEQ    r7,#1
        0x0000d62e:    d06e        n.      BEQ      0xd70e ; am_util_stdio_vsprintf + 574
        0x0000d630:    2c00        .,      CMP      r4,#0
        0x0000d632:    bf18        ..      IT       NE
        0x0000d634:    f8040b01    ....    STRBNE   r0,[r4],#1
        0x0000d638:    e007        ..      B        0xd64a ; am_util_stdio_vsprintf + 378
        0x0000d63a:    980a        ..      LDR      r0,[sp,#0x28]
        0x0000d63c:    2c00        .,      CMP      r4,#0
        0x0000d63e:    f8101b04    ....    LDRB     r1,[r0],#4
        0x0000d642:    900a        ..      STR      r0,[sp,#0x28]
        0x0000d644:    bf18        ..      IT       NE
        0x0000d646:    f8041b01    ....    STRBNE   r1,[r4],#1
        0x0000d64a:    1c6d        m.      ADDS     r5,r5,#1
        0x0000d64c:    f000bac9    ....    B.W      0xdbe2 ; am_util_stdio_vsprintf + 1810
        0x0000d650:    990a        ..      LDR      r1,[sp,#0x28]
        0x0000d652:    2200        ."      MOVS     r2,#0
        0x0000d654:    f8510b04    Q...    LDR      r0,[r1],#4
        0x0000d658:    910a        ..      STR      r1,[sp,#0x28]
        0x0000d65a:    b140        @.      CBZ      r0,0xd66e ; am_util_stdio_vsprintf + 414
        0x0000d65c:    7803        .x      LDRB     r3,[r0,#0]
        0x0000d65e:    1c41        A.      ADDS     r1,r0,#1
        0x0000d660:    b12b        +.      CBZ      r3,0xd66e ; am_util_stdio_vsprintf + 414
        0x0000d662:    bf00        ..      NOP      
        0x0000d664:    f8113b01    ...;    LDRB     r3,[r1],#1
        0x0000d668:    1c52        R.      ADDS     r2,r2,#1
        0x0000d66a:    2b00        .+      CMP      r3,#0
        0x0000d66c:    d1fa        ..      BNE      0xd664 ; am_util_stdio_vsprintf + 404
        0x0000d66e:    9900        ..      LDR      r1,[sp,#0]
        0x0000d670:    2900        .)      CMP      r1,#0
        0x0000d672:    dd1e        ..      BLE      0xd6b2 ; am_util_stdio_vsprintf + 482
        0x0000d674:    428a        .B      CMP      r2,r1
        0x0000d676:    d21c        ..      BCS      0xd6b2 ; am_util_stdio_vsprintf + 482
        0x0000d678:    1a8b        ..      SUBS     r3,r1,r2
        0x0000d67a:    9f01        ..      LDR      r7,[sp,#4]
        0x0000d67c:    4621        !F      MOV      r1,r4
        0x0000d67e:    f04f0c00    O...    MOV      r12,#0
        0x0000d682:    2b00        .+      CMP      r3,#0
        0x0000d684:    bfc4        ..      ITT      GT
        0x0000d686:    1e5b        [.      SUBGT    r3,r3,#1
        0x0000d688:    f1b33fff    ...?    CMPGT    r3,#0xffffffff
        0x0000d68c:    dd09        ..      BLE      0xd6a2 ; am_util_stdio_vsprintf + 466
        0x0000d68e:    2900        .)      CMP      r1,#0
        0x0000d690:    bf18        ..      IT       NE
        0x0000d692:    f8017b01    ...{    STRBNE   r7,[r1],#1
        0x0000d696:    1e5b        [.      SUBS     r3,r3,#1
        0x0000d698:    f10c0c01    ....    ADD      r12,r12,#1
        0x0000d69c:    f1b33fff    ...?    CMP      r3,#0xffffffff
        0x0000d6a0:    dcf5        ..      BGT      0xd68e ; am_util_stdio_vsprintf + 446
        0x0000d6a2:    2c00        .,      CMP      r4,#0
        0x0000d6a4:    bf14        ..      ITE      NE
        0x0000d6a6:    4661        aF      MOVNE    r1,r12
        0x0000d6a8:    2100        .!      MOVEQ    r1,#0
        0x0000d6aa:    440c        .D      ADD      r4,r4,r1
        0x0000d6ac:    2100        .!      MOVS     r1,#0
        0x0000d6ae:    4465        eD      ADD      r5,r5,r12
        0x0000d6b0:    9100        ..      STR      r1,[sp,#0]
        0x0000d6b2:    7801        .x      LDRB     r1,[r0,#0]
        0x0000d6b4:    b139        9.      CBZ      r1,0xd6c6 ; am_util_stdio_vsprintf + 502
        0x0000d6b6:    b10c        ..      CBZ      r4,0xd6bc ; am_util_stdio_vsprintf + 492
        0x0000d6b8:    f8041b01    ....    STRB     r1,[r4],#1
        0x0000d6bc:    f8101f01    ....    LDRB     r1,[r0,#1]!
        0x0000d6c0:    1c6d        m.      ADDS     r5,r5,#1
        0x0000d6c2:    2900        .)      CMP      r1,#0
        0x0000d6c4:    d1f7        ..      BNE      0xd6b6 ; am_util_stdio_vsprintf + 486
        0x0000d6c6:    9800        ..      LDR      r0,[sp,#0]
        0x0000d6c8:    2800        .(      CMP      r0,#0
        0x0000d6ca:    bf1c        ..      ITT      NE
        0x0000d6cc:    4240        @B      RSBNE    r0,r0,#0
        0x0000d6ce:    4282        .B      CMPNE    r2,r0
        0x0000d6d0:    f0808287    ....    BCS.W    0xdbe2 ; am_util_stdio_vsprintf + 1810
        0x0000d6d4:    1a82        ..      SUBS     r2,r0,r2
        0x0000d6d6:    2000        .       MOVS     r0,#0
        0x0000d6d8:    9b01        ..      LDR      r3,[sp,#4]
        0x0000d6da:    4621        !F      MOV      r1,r4
        0x0000d6dc:    2a00        .*      CMP      r2,#0
        0x0000d6de:    bfc4        ..      ITT      GT
        0x0000d6e0:    1e52        R.      SUBGT    r2,r2,#1
        0x0000d6e2:    f1b23fff    ...?    CMPGT    r2,#0xffffffff
        0x0000d6e6:    dd08        ..      BLE      0xd6fa ; am_util_stdio_vsprintf + 554
        0x0000d6e8:    2900        .)      CMP      r1,#0
        0x0000d6ea:    bf18        ..      IT       NE
        0x0000d6ec:    f8013b01    ...;    STRBNE   r3,[r1],#1
        0x0000d6f0:    1c40        @.      ADDS     r0,r0,#1
        0x0000d6f2:    1e52        R.      SUBS     r2,r2,#1
        0x0000d6f4:    f1b23fff    ...?    CMP      r2,#0xffffffff
        0x0000d6f8:    dcf6        ..      BGT      0xd6e8 ; am_util_stdio_vsprintf + 536
        0x0000d6fa:    2c00        .,      CMP      r4,#0
        0x0000d6fc:    bf14        ..      ITE      NE
        0x0000d6fe:    4601        .F      MOVNE    r1,r0
        0x0000d700:    2100        .!      MOVEQ    r1,#0
        0x0000d702:    440c        .D      ADD      r4,r4,r1
        0x0000d704:    4405        .D      ADD      r5,r5,r0
        0x0000d706:    e000        ..      B        0xd70a ; am_util_stdio_vsprintf + 570
        0x0000d708:    e001        ..      B        0xd70e ; am_util_stdio_vsprintf + 574
        0x0000d70a:    f000ba6a    ..j.    B.W      0xdbe2 ; am_util_stdio_vsprintf + 1810
        0x0000d70e:    f1bc0f00    ....    CMP      r12,#0
        0x0000d712:    d007        ..      BEQ      0xd724 ; am_util_stdio_vsprintf + 596
        0x0000d714:    980a        ..      LDR      r0,[sp,#0x28]
        0x0000d716:    1dc0        ..      ADDS     r0,r0,#7
        0x0000d718:    f0200207     ...    BIC      r2,r0,#7
        0x0000d71c:    e8f20102    ....    LDRD     r0,r1,[r2],#8
        0x0000d720:    920a        ..      STR      r2,[sp,#0x28]
        0x0000d722:    e004        ..      B        0xd72e ; am_util_stdio_vsprintf + 606
        0x0000d724:    990a        ..      LDR      r1,[sp,#0x28]
        0x0000d726:    f8510b04    Q...    LDR      r0,[r1],#4
        0x0000d72a:    910a        ..      STR      r1,[sp,#0x28]
        0x0000d72c:    2100        .!      MOVS     r1,#0
        0x0000d72e:    9a00        ..      LDR      r2,[sp,#0]
        0x0000d730:    b38a        ..      CBZ      r2,0xd796 ; am_util_stdio_vsprintf + 710
        0x0000d732:    460b        .F      MOV      r3,r1
        0x0000d734:    4602        .F      MOV      r2,r0
        0x0000d736:    ea500c03    P...    ORRS     r12,r0,r3
        0x0000d73a:    bf0c        ..      ITE      EQ
        0x0000d73c:    f04f0c01    O...    MOVEQ    r12,#1
        0x0000d740:    f04f0c00    O...    MOVNE    r12,#0
        0x0000d744:    d008        ..      BEQ      0xd758 ; am_util_stdio_vsprintf + 648
        0x0000d746:    0912        ..      LSRS     r2,r2,#4
        0x0000d748:    ea427203    B..r    ORR      r2,r2,r3,LSL #28
        0x0000d74c:    091b        ..      LSRS     r3,r3,#4
        0x0000d74e:    f10c0c01    ....    ADD      r12,r12,#1
        0x0000d752:    ea520803    R...    ORRS     r8,r2,r3
        0x0000d756:    d1f6        ..      BNE      0xd746 ; am_util_stdio_vsprintf + 630
        0x0000d758:    9a00        ..      LDR      r2,[sp,#0]
        0x0000d75a:    9b01        ..      LDR      r3,[sp,#4]
        0x0000d75c:    eba2020c    ....    SUB      r2,r2,r12
        0x0000d760:    46a4        .F      MOV      r12,r4
        0x0000d762:    f04f0800    O...    MOV      r8,#0
        0x0000d766:    2a00        .*      CMP      r2,#0
        0x0000d768:    bfc4        ..      ITT      GT
        0x0000d76a:    1e52        R.      SUBGT    r2,r2,#1
        0x0000d76c:    f1b23fff    ...?    CMPGT    r2,#0xffffffff
        0x0000d770:    dd0b        ..      BLE      0xd78a ; am_util_stdio_vsprintf + 698
        0x0000d772:    bf00        ..      NOP      
        0x0000d774:    f1bc0f00    ....    CMP      r12,#0
        0x0000d778:    bf18        ..      IT       NE
        0x0000d77a:    f80c3b01    ...;    STRBNE   r3,[r12],#1
        0x0000d77e:    1e52        R.      SUBS     r2,r2,#1
        0x0000d780:    f1080801    ....    ADD      r8,r8,#1
        0x0000d784:    f1b23fff    ...?    CMP      r2,#0xffffffff
        0x0000d788:    dcf4        ..      BGT      0xd774 ; am_util_stdio_vsprintf + 676
        0x0000d78a:    2c00        .,      CMP      r4,#0
        0x0000d78c:    bf14        ..      ITE      NE
        0x0000d78e:    4642        BF      MOVNE    r2,r8
        0x0000d790:    2200        ."      MOVEQ    r2,#0
        0x0000d792:    4414        .D      ADD      r4,r4,r2
        0x0000d794:    4445        ED      ADD      r5,r5,r8
        0x0000d796:    46a0        .F      MOV      r8,r4
        0x0000d798:    f04f0c00    O...    MOV      r12,#0
        0x0000d79c:    ea500201    P...    ORRS     r2,r0,r1
        0x0000d7a0:    d106        ..      BNE      0xd7b0 ; am_util_stdio_vsprintf + 736
        0x0000d7a2:    bf00        ..      NOP      
        0x0000d7a4:    f04f0230    O.0.    MOV      r2,#0x30
        0x0000d7a8:    f88d200c    ...     STRB     r2,[sp,#0xc]
        0x0000d7ac:    f04f0c01    O...    MOV      r12,#1
        0x0000d7b0:    bf18        ..      IT       NE
        0x0000d7b2:    ab03        ..      ADDNE    r3,sp,#0xc
        0x0000d7b4:    d017        ..      BEQ      0xd7e6 ; am_util_stdio_vsprintf + 790
        0x0000d7b6:    bf00        ..      NOP      
        0x0000d7b8:    f000020f    ....    AND      r2,r0,#0xf
        0x0000d7bc:    2a09        .*      CMP      r2,#9
        0x0000d7be:    d906        ..      BLS      0xd7ce ; am_util_stdio_vsprintf + 766
        0x0000d7c0:    2f00        ./      CMP      r7,#0
        0x0000d7c2:    bf14        ..      ITE      NE
        0x0000d7c4:    f04f0927    O.'.    MOVNE    r9,#0x27
        0x0000d7c8:    f04f0907    O...    MOVEQ    r9,#7
        0x0000d7cc:    444a        JD      ADD      r2,r2,r9
        0x0000d7ce:    3230        02      ADDS     r2,r2,#0x30
        0x0000d7d0:    0900        ..      LSRS     r0,r0,#4
        0x0000d7d2:    f803200c    ...     STRB     r2,[r3,r12]
        0x0000d7d6:    ea407001    @..p    ORR      r0,r0,r1,LSL #28
        0x0000d7da:    0909        ..      LSRS     r1,r1,#4
        0x0000d7dc:    f10c0c01    ....    ADD      r12,r12,#1
        0x0000d7e0:    ea500201    P...    ORRS     r2,r0,r1
        0x0000d7e4:    d1e8        ..      BNE      0xd7b8 ; am_util_stdio_vsprintf + 744
        0x0000d7e6:    f1b80f00    ....    CMP      r8,#0
        0x0000d7ea:    d022        ".      BEQ      0xd832 ; am_util_stdio_vsprintf + 866
        0x0000d7ec:    f1ac0301    ....    SUB      r3,r12,#1
        0x0000d7f0:    f1bc0200    ....    SUBS     r2,r12,#0
        0x0000d7f4:    dd1a        ..      BLE      0xd82c ; am_util_stdio_vsprintf + 860
        0x0000d7f6:    a803        ..      ADD      r0,sp,#0xc
        0x0000d7f8:    4418        .D      ADD      r0,r0,r3
        0x0000d7fa:    1c41        A.      ADDS     r1,r0,#1
        0x0000d7fc:    f1a80001    ....    SUB      r0,r8,#1
        0x0000d800:    f0130f01    ....    TST      r3,#1
        0x0000d804:    d103        ..      BNE      0xd80e ; am_util_stdio_vsprintf + 830
        0x0000d806:    f8117d01    ...}    LDRB     r7,[r1,#-1]!
        0x0000d80a:    f8007f01    ....    STRB     r7,[r0,#1]!
        0x0000d80e:    1052        R.      ASRS     r2,r2,#1
        0x0000d810:    d009        ..      BEQ      0xd826 ; am_util_stdio_vsprintf + 854
        0x0000d812:    bf00        ..      NOP      
        0x0000d814:    f8117c01    ...|    LDRB     r7,[r1,#-1]
        0x0000d818:    7047        Gp      STRB     r7,[r0,#1]
        0x0000d81a:    f8117d02    ...}    LDRB     r7,[r1,#-2]!
        0x0000d81e:    f8007f02    ....    STRB     r7,[r0,#2]!
        0x0000d822:    1e52        R.      SUBS     r2,r2,#1
        0x0000d824:    d1f6        ..      BNE      0xd814 ; am_util_stdio_vsprintf + 836
        0x0000d826:    18e0        ..      ADDS     r0,r4,r3
        0x0000d828:    f1000801    ....    ADD      r8,r0,#1
        0x0000d82c:    2000        .       MOVS     r0,#0
        0x0000d82e:    f8880000    ....    STRB     r0,[r8,#0]
        0x0000d832:    2c00        .,      CMP      r4,#0
        0x0000d834:    bf18        ..      IT       NE
        0x0000d836:    4464        dD      ADDNE    r4,r4,r12
        0x0000d838:    4465        eD      ADD      r5,r5,r12
        0x0000d83a:    f000b9d2    ....    B.W      0xdbe2 ; am_util_stdio_vsprintf + 1810
        0x0000d83e:    bf00        ..      NOP      
        0x0000d840:    980a        ..      LDR      r0,[sp,#0x28]
        0x0000d842:    f1bc0f00    ....    CMP      r12,#0
        0x0000d846:    d006        ..      BEQ      0xd856 ; am_util_stdio_vsprintf + 902
        0x0000d848:    1dc0        ..      ADDS     r0,r0,#7
        0x0000d84a:    f0200107     ...    BIC      r1,r0,#7
        0x0000d84e:    e8f1e002    ....    LDRD     lr,r0,[r1],#8
        0x0000d852:    910a        ..      STR      r1,[sp,#0x28]
        0x0000d854:    e003        ..      B        0xd85e ; am_util_stdio_vsprintf + 910
        0x0000d856:    f850eb04    P...    LDR      lr,[r0],#4
        0x0000d85a:    900a        ..      STR      r0,[sp,#0x28]
        0x0000d85c:    2000        .       MOVS     r0,#0
        0x0000d85e:    9003        ..      STR      r0,[sp,#0xc]
        0x0000d860:    9800        ..      LDR      r0,[sp,#0]
        0x0000d862:    2800        .(      CMP      r0,#0
        0x0000d864:    d07e        ~.      BEQ      0xd964 ; am_util_stdio_vsprintf + 1172
        0x0000d866:    9903        ..      LDR      r1,[sp,#0xc]
        0x0000d868:    4670        pF      MOV      r0,lr
        0x0000d86a:    ea5e0201    ^...    ORRS     r2,lr,r1
        0x0000d86e:    bf0e        ..      ITEE     EQ
        0x0000d870:    2301        .#      MOVEQ    r3,#1
        0x0000d872:    2300        .#      MOVNE    r3,#0
        0x0000d874:    f04f0c00    O...    MOVNE    r12,#0
        0x0000d878:    d05e        ^.      BEQ      0xd938 ; am_util_stdio_vsprintf + 1128
        0x0000d87a:    b3c1        ..      CBZ      r1,0xd8ee ; am_util_stdio_vsprintf + 1054
        0x0000d87c:    084a        J.      LSRS     r2,r1,#1
        0x0000d87e:    ea4f0990    O...    LSR      r9,r0,#2
        0x0000d882:    ea4f0730    O.0.    RRX      r7,r0
        0x0000d886:    ea497881    I..x    ORR      r8,r9,r1,LSL #30
        0x0000d88a:    eb170708    ....    ADDS     r7,r7,r8
        0x0000d88e:    eb420291    B...    ADC      r2,r2,r1,LSR #2
        0x0000d892:    ea4f1917    O...    LSR      r9,r7,#4
        0x0000d896:    ea497802    I..x    ORR      r8,r9,r2,LSL #28
        0x0000d89a:    eb180707    ....    ADDS     r7,r8,r7
        0x0000d89e:    eb421812    B...    ADC      r8,r2,r2,LSR #4
        0x0000d8a2:    ea4f2917    O..)    LSR      r9,r7,#8
        0x0000d8a6:    ea496208    I..b    ORR      r2,r9,r8,LSL #24
        0x0000d8aa:    19d2        ..      ADDS     r2,r2,r7
        0x0000d8ac:    eb482718    H..'    ADC      r7,r8,r8,LSR #8
        0x0000d8b0:    ea4f4912    O..I    LSR      r9,r2,#16
        0x0000d8b4:    ea494807    I..H    ORR      r8,r9,r7,LSL #16
        0x0000d8b8:    eb180802    ....    ADDS     r8,r8,r2
        0x0000d8bc:    eb474217    G..B    ADC      r2,r7,r7,LSR #16
        0x0000d8c0:    eb180702    ....    ADDS     r7,r8,r2
        0x0000d8c4:    eb42020c    B...    ADC      r2,r2,r12
        0x0000d8c8:    08ff        ..      LSRS     r7,r7,#3
        0x0000d8ca:    ea477742    G.Bw    ORR      r7,r7,r2,LSL #29
        0x0000d8ce:    f04f080a    O...    MOV      r8,#0xa
        0x0000d8d2:    fba7ab08    ....    UMULL    r10,r11,r7,r8
        0x0000d8d6:    08d2        ..      LSRS     r2,r2,#3
        0x0000d8d8:    fb02b808    ....    MLA      r8,r2,r8,r11
        0x0000d8dc:    f04f0900    O...    MOV      r9,#0
        0x0000d8e0:    fb078909    ....    MLA      r9,r7,r9,r8
        0x0000d8e4:    ebb0080a    ....    SUBS     r8,r0,r10
        0x0000d8e8:    eb610009    a...    SBC      r0,r1,r9
        0x0000d8ec:    e002        ..      B        0xd8f4 ; am_util_stdio_vsprintf + 1060
        0x0000d8ee:    e00c        ..      B        0xd90a ; am_util_stdio_vsprintf + 1082
    $d
        0x0000d8f0:    10000010    ....    DCD    268435472
    $t
        0x0000d8f4:    f1180106    ....    ADDS     r1,r8,#6
        0x0000d8f8:    f1400800    @...    ADC      r8,r0,#0
        0x0000d8fc:    0909        ..      LSRS     r1,r1,#4
        0x0000d8fe:    ea417008    A..p    ORR      r0,r1,r8,LSL #28
        0x0000d902:    19c0        ..      ADDS     r0,r0,r7
        0x0000d904:    eb421118    B...    ADC      r1,r2,r8,LSR #4
        0x0000d908:    e012        ..      B        0xd930 ; am_util_stdio_vsprintf + 1120
        0x0000d90a:    0841        A.      LSRS     r1,r0,#1
        0x0000d90c:    eb010190    ....    ADD      r1,r1,r0,LSR #2
        0x0000d910:    eb011111    ....    ADD      r1,r1,r1,LSR #4
        0x0000d914:    eb012111    ...!    ADD      r1,r1,r1,LSR #8
        0x0000d918:    eb014111    ...A    ADD      r1,r1,r1,LSR #16
        0x0000d91c:    08c9        ..      LSRS     r1,r1,#3
        0x0000d91e:    424a        JB      RSBS     r2,r1,#0
        0x0000d920:    eb020282    ....    ADD      r2,r2,r2,LSL #2
        0x0000d924:    eb000042    ..B.    ADD      r0,r0,r2,LSL #1
        0x0000d928:    1d80        ..      ADDS     r0,r0,#6
        0x0000d92a:    eb011010    ....    ADD      r0,r1,r0,LSR #4
        0x0000d92e:    4661        aF      MOV      r1,r12
        0x0000d930:    1c5b        [.      ADDS     r3,r3,#1
        0x0000d932:    ea500201    P...    ORRS     r2,r0,r1
        0x0000d936:    d1a0        ..      BNE      0xd87a ; am_util_stdio_vsprintf + 938
        0x0000d938:    9800        ..      LDR      r0,[sp,#0]
        0x0000d93a:    2100        .!      MOVS     r1,#0
        0x0000d93c:    1ac2        ..      SUBS     r2,r0,r3
        0x0000d93e:    9b01        ..      LDR      r3,[sp,#4]
        0x0000d940:    4620         F      MOV      r0,r4
        0x0000d942:    2a00        .*      CMP      r2,#0
        0x0000d944:    bfc4        ..      ITT      GT
        0x0000d946:    1e52        R.      SUBGT    r2,r2,#1
        0x0000d948:    f1b23fff    ...?    CMPGT    r2,#0xffffffff
        0x0000d94c:    dd08        ..      BLE      0xd960 ; am_util_stdio_vsprintf + 1168
        0x0000d94e:    2800        .(      CMP      r0,#0
        0x0000d950:    bf18        ..      IT       NE
        0x0000d952:    f8003b01    ...;    STRBNE   r3,[r0],#1
        0x0000d956:    1c49        I.      ADDS     r1,r1,#1
        0x0000d958:    1e52        R.      SUBS     r2,r2,#1
        0x0000d95a:    f1b23fff    ...?    CMP      r2,#0xffffffff
        0x0000d95e:    dcf6        ..      BGT      0xd94e ; am_util_stdio_vsprintf + 1150
        0x0000d960:    2c00        .,      CMP      r4,#0
        0x0000d962:    e000        ..      B        0xd966 ; am_util_stdio_vsprintf + 1174
        0x0000d964:    e004        ..      B        0xd970 ; am_util_stdio_vsprintf + 1184
        0x0000d966:    bf14        ..      ITE      NE
        0x0000d968:    4608        .F      MOVNE    r0,r1
        0x0000d96a:    2000        .       MOVEQ    r0,#0
        0x0000d96c:    4404        .D      ADD      r4,r4,r0
        0x0000d96e:    440d        .D      ADD      r5,r5,r1
        0x0000d970:    4622        "F      MOV      r2,r4
        0x0000d972:    4670        pF      MOV      r0,lr
        0x0000d974:    9903        ..      LDR      r1,[sp,#0xc]
        0x0000d976:    f000fb88    ....    BL       uint64_to_str ; 0xe08a
        0x0000d97a:    bbdc        ..      CBNZ     r4,0xd9f4 ; am_util_stdio_vsprintf + 1316
        0x0000d97c:    4405        .D      ADD      r5,r5,r0
        0x0000d97e:    e130        0.      B        0xdbe2 ; am_util_stdio_vsprintf + 1810
        0x0000d980:    980a        ..      LDR      r0,[sp,#0x28]
        0x0000d982:    f1bc0f00    ....    CMP      r12,#0
        0x0000d986:    d006        ..      BEQ      0xd996 ; am_util_stdio_vsprintf + 1222
        0x0000d988:    1dc0        ..      ADDS     r0,r0,#7
        0x0000d98a:    f0200007     ...    BIC      r0,r0,#7
        0x0000d98e:    e8f08702    ....    LDRD     r8,r7,[r0],#8
        0x0000d992:    900a        ..      STR      r0,[sp,#0x28]
        0x0000d994:    e004        ..      B        0xd9a0 ; am_util_stdio_vsprintf + 1232
        0x0000d996:    f8508b04    P...    LDR      r8,[r0],#4
        0x0000d99a:    900a        ..      STR      r0,[sp,#0x28]
        0x0000d99c:    ea4f77e8    O..w    ASR      r7,r8,#31
        0x0000d9a0:    2f00        ./      CMP      r7,#0
        0x0000d9a2:    bfa8        ..      IT       GE
        0x0000d9a4:    f04f0900    O...    MOVGE    r9,#0
        0x0000d9a8:    da06        ..      BGE      0xd9b8 ; am_util_stdio_vsprintf + 1256
        0x0000d9aa:    2000        .       MOVS     r0,#0
        0x0000d9ac:    f1d80800    ....    RSBS     r8,r8,#0
        0x0000d9b0:    eb600707    `...    SBC      r7,r0,r7
        0x0000d9b4:    f04f0901    O...    MOV      r9,#1
        0x0000d9b8:    9800        ..      LDR      r0,[sp,#0]
        0x0000d9ba:    b3d8        ..      CBZ      r0,0xda34 ; am_util_stdio_vsprintf + 1380
        0x0000d9bc:    4640        @F      MOV      r0,r8
        0x0000d9be:    0039        9.      MOVS     r1,r7
        0x0000d9c0:    d503        ..      BPL      0xd9ca ; am_util_stdio_vsprintf + 1274
        0x0000d9c2:    2200        ."      MOVS     r2,#0
        0x0000d9c4:    4240        @B      RSBS     r0,r0,#0
        0x0000d9c6:    eb620107    b...    SBC      r1,r2,r7
        0x0000d9ca:    f000fafb    ....    BL       ndigits_in_u64 ; 0xdfc4
        0x0000d9ce:    9900        ..      LDR      r1,[sp,#0]
        0x0000d9d0:    1a0a        ..      SUBS     r2,r1,r0
        0x0000d9d2:    f1b90f00    ....    CMP      r9,#0
        0x0000d9d6:    d008        ..      BEQ      0xd9ea ; am_util_stdio_vsprintf + 1306
        0x0000d9d8:    9801        ..      LDR      r0,[sp,#4]
        0x0000d9da:    1e52        R.      SUBS     r2,r2,#1
        0x0000d9dc:    2830        0(      CMP      r0,#0x30
        0x0000d9de:    d104        ..      BNE      0xd9ea ; am_util_stdio_vsprintf + 1306
        0x0000d9e0:    b114        ..      CBZ      r4,0xd9e8 ; am_util_stdio_vsprintf + 1304
        0x0000d9e2:    202d        -       MOVS     r0,#0x2d
        0x0000d9e4:    f8040b01    ....    STRB     r0,[r4],#1
        0x0000d9e8:    1c6d        m.      ADDS     r5,r5,#1
        0x0000d9ea:    2100        .!      MOVS     r1,#0
        0x0000d9ec:    4620         F      MOV      r0,r4
        0x0000d9ee:    9b01        ..      LDR      r3,[sp,#4]
        0x0000d9f0:    2a00        .*      CMP      r2,#0
        0x0000d9f2:    e000        ..      B        0xd9f6 ; am_util_stdio_vsprintf + 1318
        0x0000d9f4:    e02c        ,.      B        0xda50 ; am_util_stdio_vsprintf + 1408
        0x0000d9f6:    bfc4        ..      ITT      GT
        0x0000d9f8:    1e52        R.      SUBGT    r2,r2,#1
        0x0000d9fa:    f1b23fff    ...?    CMPGT    r2,#0xffffffff
        0x0000d9fe:    dd08        ..      BLE      0xda12 ; am_util_stdio_vsprintf + 1346
        0x0000da00:    2800        .(      CMP      r0,#0
        0x0000da02:    bf18        ..      IT       NE
        0x0000da04:    f8003b01    ...;    STRBNE   r3,[r0],#1
        0x0000da08:    1c49        I.      ADDS     r1,r1,#1
        0x0000da0a:    1e52        R.      SUBS     r2,r2,#1
        0x0000da0c:    f1b23fff    ...?    CMP      r2,#0xffffffff
        0x0000da10:    dcf6        ..      BGT      0xda00 ; am_util_stdio_vsprintf + 1328
        0x0000da12:    2c00        .,      CMP      r4,#0
        0x0000da14:    bf14        ..      ITE      NE
        0x0000da16:    4608        .F      MOVNE    r0,r1
        0x0000da18:    2000        .       MOVEQ    r0,#0
        0x0000da1a:    4404        .D      ADD      r4,r4,r0
        0x0000da1c:    440d        .D      ADD      r5,r5,r1
        0x0000da1e:    f1b90f00    ....    CMP      r9,#0
        0x0000da22:    d00e        ..      BEQ      0xda42 ; am_util_stdio_vsprintf + 1394
        0x0000da24:    9801        ..      LDR      r0,[sp,#4]
        0x0000da26:    2820         (      CMP      r0,#0x20
        0x0000da28:    d10b        ..      BNE      0xda42 ; am_util_stdio_vsprintf + 1394
        0x0000da2a:    b14c        L.      CBZ      r4,0xda40 ; am_util_stdio_vsprintf + 1392
        0x0000da2c:    202d        -       MOVS     r0,#0x2d
        0x0000da2e:    f8040b01    ....    STRB     r0,[r4],#1
        0x0000da32:    e005        ..      B        0xda40 ; am_util_stdio_vsprintf + 1392
        0x0000da34:    e7ff        ..      B        0xda36 ; am_util_stdio_vsprintf + 1382
        0x0000da36:    f1b90f00    ....    CMP      r9,#0
        0x0000da3a:    d002        ..      BEQ      0xda42 ; am_util_stdio_vsprintf + 1394
        0x0000da3c:    2c00        .,      CMP      r4,#0
        0x0000da3e:    d1f5        ..      BNE      0xda2c ; am_util_stdio_vsprintf + 1372
        0x0000da40:    1c6d        m.      ADDS     r5,r5,#1
        0x0000da42:    4622        "F      MOV      r2,r4
        0x0000da44:    4640        @F      MOV      r0,r8
        0x0000da46:    4639        9F      MOV      r1,r7
        0x0000da48:    f000fb1f    ....    BL       uint64_to_str ; 0xe08a
        0x0000da4c:    2c00        .,      CMP      r4,#0
        0x0000da4e:    d095        ..      BEQ      0xd97c ; am_util_stdio_vsprintf + 1196
        0x0000da50:    4404        .D      ADD      r4,r4,r0
        0x0000da52:    e793        ..      B        0xd97c ; am_util_stdio_vsprintf + 1196
        0x0000da54:    2c00        .,      CMP      r4,#0
        0x0000da56:    d07d        }.      BEQ      0xdb54 ; am_util_stdio_vsprintf + 1668
        0x0000da58:    980a        ..      LDR      r0,[sp,#0x28]
        0x0000da5a:    1dc0        ..      ADDS     r0,r0,#7
        0x0000da5c:    f0200007     ...    BIC      r0,r0,#7
        0x0000da60:    ecb00b02    ....    VLDM     r0!,{d0}
        0x0000da64:    900a        ..      STR      r0,[sp,#0x28]
        0x0000da66:    ec510b10    Q...    VMOV     r0,r1,d0
        0x0000da6a:    f000fba1    ....    BL       __aeabi_d2f ; 0xe1b0
        0x0000da6e:    ee000a10    ....    VMOV     s0,r0
        0x0000da72:    f04f0a14    O...    MOV      r10,#0x14
        0x0000da76:    4627        'F      MOV      r7,r4
        0x0000da78:    eeb50ac0    ....    VCMPE.F32 s0,#0.0
        0x0000da7c:    f8c4a000    ....    STR      r10,[r4,#0]
        0x0000da80:    eef1fa10    ....    VMRS     APSR_nzcv,FPSCR
        0x0000da84:    d103        ..      BNE      0xda8e ; am_util_stdio_vsprintf + 1470
        0x0000da86:    485f        _H      LDR      r0,[pc,#380] ; [0xdc04] = 0x302e30
        0x0000da88:    6020         `      STR      r0,[r4,#0]
        0x0000da8a:    2003        .       MOVS     r0,#3
        0x0000da8c:    e0a7        ..      B        0xdbde ; am_util_stdio_vsprintf + 1806
        0x0000da8e:    ee100a10    ....    VMOV     r0,s0
        0x0000da92:    f04f0800    O...    MOV      r8,#0
        0x0000da96:    46a3        .F      MOV      r11,r4
        0x0000da98:    f3c051c7    ...Q    UBFX     r1,r0,#23,#8
        0x0000da9c:    f020427f     ..B    BIC      r2,r0,#0xff000000
        0x0000daa0:    397f        .9      SUBS     r1,r1,#0x7f
        0x0000daa2:    f4420200    B...    ORR      r2,r2,#0x800000
        0x0000daa6:    4643        CF      MOV      r3,r8
        0x0000daa8:    291f        .)      CMP      r1,#0x1f
        0x0000daaa:    da7d        }.      BGE      0xdba8 ; am_util_stdio_vsprintf + 1752
        0x0000daac:    f1110f17    ....    CMN      r1,#0x17
        0x0000dab0:    db7b        {.      BLT      0xdbaa ; am_util_stdio_vsprintf + 1754
        0x0000dab2:    2917        .)      CMP      r1,#0x17
        0x0000dab4:    bfa4        ..      ITT      GE
        0x0000dab6:    3917        .9      SUBGE    r1,r1,#0x17
        0x0000dab8:    fa02f301    ....    LSLGE    r3,r2,r1
        0x0000dabc:    da0e        ..      BGE      0xdadc ; am_util_stdio_vsprintf + 1548
        0x0000dabe:    2900        .)      CMP      r1,#0
        0x0000dac0:    bfbc        ..      ITT      LT
        0x0000dac2:    43c9        .C      MVNLT    r1,r1
        0x0000dac4:    fa22f801    "...    LSRLT    r8,r2,r1
        0x0000dac8:    db08        ..      BLT      0xdadc ; am_util_stdio_vsprintf + 1548
        0x0000daca:    f1c10317    ....    RSB      r3,r1,#0x17
        0x0000dace:    fa42f303    B...    ASR      r3,r2,r3
        0x0000dad2:    1c49        I.      ADDS     r1,r1,#1
        0x0000dad4:    fa02f101    ....    LSL      r1,r2,r1
        0x0000dad8:    f021487f    !..H    BIC      r8,r1,#0xff000000
        0x0000dadc:    2800        .(      CMP      r0,#0
        0x0000dade:    da03        ..      BGE      0xdae8 ; am_util_stdio_vsprintf + 1560
        0x0000dae0:    202d        -       MOVS     r0,#0x2d
        0x0000dae2:    7038        8p      STRB     r0,[r7,#0]
        0x0000dae4:    f10b0701    ....    ADD      r7,r11,#1
        0x0000dae8:    2b00        .+      CMP      r3,#0
        0x0000daea:    bf04        ..      ITT      EQ
        0x0000daec:    2030        0       MOVEQ    r0,#0x30
        0x0000daee:    f8070b01    ....    STRBEQ   r0,[r7],#1
        0x0000daf2:    d015        ..      BEQ      0xdb20 ; am_util_stdio_vsprintf + 1616
        0x0000daf4:    dd06        ..      BLE      0xdb04 ; am_util_stdio_vsprintf + 1588
        0x0000daf6:    463a        :F      MOV      r2,r7
        0x0000daf8:    4618        .F      MOV      r0,r3
        0x0000dafa:    ea4f71e3    O..q    ASR      r1,r3,#31
        0x0000dafe:    f000fac4    ....    BL       uint64_to_str ; 0xe08a
        0x0000db02:    e007        ..      B        0xdb14 ; am_util_stdio_vsprintf + 1604
        0x0000db04:    202d        -       MOVS     r0,#0x2d
        0x0000db06:    f8070b01    ....    STRB     r0,[r7],#1
        0x0000db0a:    4258        XB      RSBS     r0,r3,#0
        0x0000db0c:    463a        :F      MOV      r2,r7
        0x0000db0e:    17c1        ..      ASRS     r1,r0,#31
        0x0000db10:    f000fabb    ....    BL       uint64_to_str ; 0xe08a
        0x0000db14:    7838        8x      LDRB     r0,[r7,#0]
        0x0000db16:    b118        ..      CBZ      r0,0xdb20 ; am_util_stdio_vsprintf + 1616
        0x0000db18:    f8170f01    ....    LDRB     r0,[r7,#1]!
        0x0000db1c:    2800        .(      CMP      r0,#0
        0x0000db1e:    d1fb        ..      BNE      0xdb18 ; am_util_stdio_vsprintf + 1608
        0x0000db20:    202e        .       MOVS     r0,#0x2e
        0x0000db22:    1c7a        z.      ADDS     r2,r7,#1
        0x0000db24:    7038        8p      STRB     r0,[r7,#0]
        0x0000db26:    f1b80f00    ....    CMP      r8,#0
        0x0000db2a:    d041        A.      BEQ      0xdbb0 ; am_util_stdio_vsprintf + 1760
        0x0000db2c:    eba2000b    ....    SUB      r0,r2,r11
        0x0000db30:    ebaa0000    ....    SUB      r0,r10,r0
        0x0000db34:    f1a00c01    ....    SUB      r12,r0,#1
        0x0000db38:    45cc        .E      CMP      r12,r9
        0x0000db3a:    bfc8        ..      IT       GT
        0x0000db3c:    46cc        .F      MOVGT    r12,r9
        0x0000db3e:    f1bc0f00    ....    CMP      r12,#0
        0x0000db42:    dd11        ..      BLE      0xdb68 ; am_util_stdio_vsprintf + 1688
        0x0000db44:    4617        .F      MOV      r7,r2
        0x0000db46:    4660        `F      MOV      r0,r12
        0x0000db48:    f05f0330    _.0.    MOVS.W   r3,#0x30
        0x0000db4c:    eb080188    ....    ADD      r1,r8,r8,LSL #2
        0x0000db50:    0049        I.      LSLS     r1,r1,#1
        0x0000db52:    e000        ..      B        0xdb56 ; am_util_stdio_vsprintf + 1670
        0x0000db54:    e045        E.      B        0xdbe2 ; am_util_stdio_vsprintf + 1810
        0x0000db56:    eb036821    ..!h    ADD      r8,r3,r1,ASR #24
        0x0000db5a:    f8078b01    ....    STRB     r8,[r7],#1
        0x0000db5e:    f021487f    !..H    BIC      r8,r1,#0xff000000
        0x0000db62:    1e40        @.      SUBS     r0,r0,#1
        0x0000db64:    d1f2        ..      BNE      0xdb4c ; am_util_stdio_vsprintf + 1660
        0x0000db66:    4462        bD      ADD      r2,r2,r12
        0x0000db68:    eb080088    ....    ADD      r0,r8,r8,LSL #2
        0x0000db6c:    0041        A.      LSLS     r1,r0,#1
        0x0000db6e:    2005        .       MOVS     r0,#5
        0x0000db70:    ebb06f21    ..!o    CMP      r0,r1,ASR #24
        0x0000db74:    dc24        $.      BGT      0xdbc0 ; am_util_stdio_vsprintf + 1776
        0x0000db76:    1e50        P.      SUBS     r0,r2,#1
        0x0000db78:    ebab0300    ....    SUB      r3,r11,r0
        0x0000db7c:    2101        .!      MOVS     r1,#1
        0x0000db7e:    f1c30301    ....    RSB      r3,r3,#1
        0x0000db82:    2b01        .+      CMP      r3,#1
        0x0000db84:    bfa8        ..      IT       GE
        0x0000db86:    2730        0'      MOVGE    r7,#0x30
        0x0000db88:    db1a        ..      BLT      0xdbc0 ; am_util_stdio_vsprintf + 1776
        0x0000db8a:    bf00        ..      NOP      
        0x0000db8c:    f890c000    ....    LDRB     r12,[r0,#0]
        0x0000db90:    f1bc0f2e    ....    CMP      r12,#0x2e
        0x0000db94:    d010        ..      BEQ      0xdbb8 ; am_util_stdio_vsprintf + 1768
        0x0000db96:    f1bc0f39    ..9.    CMP      r12,#0x39
        0x0000db9a:    bf08        ..      IT       EQ
        0x0000db9c:    7007        .p      STRBEQ   r7,[r0,#0]
        0x0000db9e:    d00b        ..      BEQ      0xdbb8 ; am_util_stdio_vsprintf + 1768
        0x0000dba0:    f00c01ff    ....    AND      r1,r12,#0xff
        0x0000dba4:    1c49        I.      ADDS     r1,r1,#1
        0x0000dba6:    e001        ..      B        0xdbac ; am_util_stdio_vsprintf + 1756
        0x0000dba8:    e02a        *.      B        0xdc00 ; am_util_stdio_vsprintf + 1840
        0x0000dbaa:    e027        '.      B        0xdbfc ; am_util_stdio_vsprintf + 1836
        0x0000dbac:    7001        .p      STRB     r1,[r0,#0]
        0x0000dbae:    e007        ..      B        0xdbc0 ; am_util_stdio_vsprintf + 1776
        0x0000dbb0:    2030        0       MOVS     r0,#0x30
        0x0000dbb2:    f8020b01    ....    STRB     r0,[r2],#1
        0x0000dbb6:    e003        ..      B        0xdbc0 ; am_util_stdio_vsprintf + 1776
        0x0000dbb8:    1e40        @.      SUBS     r0,r0,#1
        0x0000dbba:    1c49        I.      ADDS     r1,r1,#1
        0x0000dbbc:    428b        .B      CMP      r3,r1
        0x0000dbbe:    dae5        ..      BGE      0xdb8c ; am_util_stdio_vsprintf + 1724
        0x0000dbc0:    2000        .       MOVS     r0,#0
        0x0000dbc2:    7010        .p      STRB     r0,[r2,#0]
        0x0000dbc4:    ebb2000b    ....    SUBS     r0,r2,r11
        0x0000dbc8:    d509        ..      BPL      0xdbde ; am_util_stdio_vsprintf + 1806
        0x0000dbca:    f1b03fff    ...?    CMP      r0,#0xffffffff
        0x0000dbce:    d015        ..      BEQ      0xdbfc ; am_util_stdio_vsprintf + 1836
        0x0000dbd0:    f1100f02    ....    CMN      r0,#2
        0x0000dbd4:    bf18        ..      IT       NE
        0x0000dbd6:    480c        .H      LDRNE    r0,[pc,#48] ; [0xdc08] = 0x3f2e3f
        0x0000dbd8:    d012        ..      BEQ      0xdc00 ; am_util_stdio_vsprintf + 1840
        0x0000dbda:    6020         `      STR      r0,[r4,#0]
        0x0000dbdc:    2003        .       MOVS     r0,#3
        0x0000dbde:    4405        .D      ADD      r5,r5,r0
        0x0000dbe0:    4404        .D      ADD      r4,r4,r0
        0x0000dbe2:    1c71        q.      ADDS     r1,r6,#1
        0x0000dbe4:    7808        .x      LDRB     r0,[r1,#0]
        0x0000dbe6:    2800        .(      CMP      r0,#0
        0x0000dbe8:    f47fac7c    ..|.    BNE      0xd4e4 ; am_util_stdio_vsprintf + 20
        0x0000dbec:    2c00        .,      CMP      r4,#0
        0x0000dbee:    bf1c        ..      ITT      NE
        0x0000dbf0:    2000        .       MOVNE    r0,#0
        0x0000dbf2:    7020         p      STRBNE   r0,[r4,#0]
        0x0000dbf4:    4628        (F      MOV      r0,r5
        0x0000dbf6:    b00b        ..      ADD      sp,sp,#0x2c
        0x0000dbf8:    e8bd8ff0    ....    POP      {r4-r11,pc}
        0x0000dbfc:    4801        .H      LDR      r0,[pc,#4] ; [0xdc04] = 0x302e30
        0x0000dbfe:    e7ec        ..      B        0xdbda ; am_util_stdio_vsprintf + 1802
        0x0000dc00:    4802        .H      LDR      r0,[pc,#8] ; [0xdc0c] = 0x232e23
        0x0000dc02:    e7ea        ..      B        0xdbda ; am_util_stdio_vsprintf + 1802
    $d
        0x0000dc04:    00302e30    0.0.    DCD    3157552
        0x0000dc08:    003f2e3f    ?.?.    DCD    4140607
        0x0000dc0c:    00232e23    #.#.    DCD    2305571
    $t
    i.main
    main
        0x0000dc10:    e92d4ff0    -..O    PUSH     {r4-r11,lr}
        0x0000dc14:    2100        .!      MOVS     r1,#0
        0x0000dc16:    b0cd        ..      SUB      sp,sp,#0x134
        0x0000dc18:    4608        .F      MOV      r0,r1
        0x0000dc1a:    f7fefd7f    ....    BL       am_hal_clkgen_control ; 0xc71c
        0x0000dc1e:    4896        .H      LDR      r0,[pc,#600] ; [0xde78] = 0xe3ec
        0x0000dc20:    f7fefbe4    ....    BL       am_hal_cachectrl_config ; 0xc3ec
        0x0000dc24:    f7fefd70    ..p.    BL       am_hal_cachectrl_enable ; 0xc708
        0x0000dc28:    f7fefbbe    ....    BL       am_bsp_low_power_init ; 0xc3a8
        0x0000dc2c:    f7fefb9e    ....    BL       am_bsp_itm_printf_enable ; 0xc36c
        0x0000dc30:    f7fffc30    ..0.    BL       am_util_stdio_terminal_clear ; 0xd494
        0x0000dc34:    a091        ..      ADR      r0,{pc}+0x248 ; 0xde7c
        0x0000dc36:    f7fffc0d    ....    BL       am_util_stdio_printf ; 0xd454
        0x0000dc3a:    a095        ..      ADR      r0,{pc}+0x256 ; 0xde90
        0x0000dc3c:    f7fffc0a    ....    BL       am_util_stdio_printf ; 0xd454
        0x0000dc40:    2101        .!      MOVS     r1,#1
        0x0000dc42:    489b        .H      LDR      r0,[pc,#620] ; [0xdeb0] = 0xe900
        0x0000dc44:    f7fffc06    ....    BL       am_util_stdio_printf ; 0xd454
        0x0000dc48:    a09a        ..      ADR      r0,{pc}+0x26c ; 0xdeb4
        0x0000dc4a:    f7fffc03    ....    BL       am_util_stdio_printf ; 0xd454
        0x0000dc4e:    2111        .!      MOVS     r1,#0x11
        0x0000dc50:    200e        .       MOVS     r0,#0xe
        0x0000dc52:    e9cd0100    ....    STRD     r0,r1,[sp,#0]
        0x0000dc56:    230f        .#      MOVS     r3,#0xf
        0x0000dc58:    221e        ."      MOVS     r2,#0x1e
        0x0000dc5a:    210a        .!      MOVS     r1,#0xa
        0x0000dc5c:    a0a3        ..      ADR      r0,{pc}+0x290 ; 0xdeec
        0x0000dc5e:    f7fffbf9    ....    BL       am_util_stdio_printf ; 0xd454
        0x0000dc62:    2206        ."      MOVS     r2,#6
        0x0000dc64:    4611        .F      MOV      r1,r2
        0x0000dc66:    48af        .H      LDR      r0,[pc,#700] ; [0xdf24] = 0xe850
        0x0000dc68:    f7fffbf4    ....    BL       am_util_stdio_printf ; 0xd454
        0x0000dc6c:    48ae        .H      LDR      r0,[pc,#696] ; [0xdf28] = 0xe950
        0x0000dc6e:    f7fffbf1    ....    BL       am_util_stdio_printf ; 0xd454
        0x0000dc72:    48ae        .H      LDR      r0,[pc,#696] ; [0xdf2c] = 0xe8ac
        0x0000dc74:    f7fffbee    ....    BL       am_util_stdio_printf ; 0xd454
        0x0000dc78:    a0ad        ..      ADR      r0,{pc}+0x2b8 ; 0xdf30
        0x0000dc7a:    f7fffbeb    ....    BL       am_util_stdio_printf ; 0xd454
        0x0000dc7e:    2064        d       MOVS     r0,#0x64
        0x0000dc80:    f7fffb7e    ..~.    BL       am_util_delay_ms ; 0xd380
        0x0000dc84:    4dab        .M      LDR      r5,[pc,#684] ; [0xdf34] = 0x40010000
        0x0000dc86:    f04f0a02    O...    MOV      r10,#2
        0x0000dc8a:    f8c5a0b4    ....    STR      r10,[r5,#0xb4]
        0x0000dc8e:    4eaa        .N      LDR      r6,[pc,#680] ; [0xdf38] = 0x40011000
        0x0000dc90:    f44f3700    O..7    MOV      r7,#0x20000
        0x0000dc94:    6077        w`      STR      r7,[r6,#4]
        0x0000dc96:    f8dfb2a4    ....    LDR      r11,[pc,#676] ; [0xdf3c] = 0xe564
        0x0000dc9a:    2400        .$      MOVS     r4,#0
        0x0000dc9c:    46d0        .F      MOV      r8,r10
        0x0000dc9e:    4623        #F      MOV      r3,r4
        0x0000dca0:    4650        PF      MOV      r0,r10
        0x0000dca2:    4621        !F      MOV      r1,r4
        0x0000dca4:    f8db2000    ...     LDR      r2,[r11,#0]
        0x0000dca8:    f7fefe28    ..(.    BL       am_hal_gpio_fast_pinconfig ; 0xc8fc
        0x0000dcac:    0001        ..      MOVS     r1,r0
        0x0000dcae:    bf1c        ..      ITT      NE
        0x0000dcb0:    a0a3        ..      ADRNE    r0,{pc}+0x290 ; 0xdf40
        0x0000dcb2:    f7fffbcf    ....    BLNE     am_util_stdio_printf ; 0xd454
        0x0000dcb6:    f7fefb29    ..).    BL       am_bsp_debug_printf_disable ; 0xc30c
        0x0000dcba:    200a        .       MOVS     r0,#0xa
        0x0000dcbc:    f8c6a004    ....    STR      r10,[r6,#4]
        0x0000dcc0:    6077        w`      STR      r7,[r6,#4]
        0x0000dcc2:    f8c6a004    ....    STR      r10,[r6,#4]
        0x0000dcc6:    6077        w`      STR      r7,[r6,#4]
        0x0000dcc8:    f8c6a004    ....    STR      r10,[r6,#4]
        0x0000dccc:    6077        w`      STR      r7,[r6,#4]
        0x0000dcce:    f8c6a004    ....    STR      r10,[r6,#4]
        0x0000dcd2:    6077        w`      STR      r7,[r6,#4]
        0x0000dcd4:    f8c6a004    ....    STR      r10,[r6,#4]
        0x0000dcd8:    6077        w`      STR      r7,[r6,#4]
        0x0000dcda:    f8c6a004    ....    STR      r10,[r6,#4]
        0x0000dcde:    6077        w`      STR      r7,[r6,#4]
        0x0000dce0:    f8c6a004    ....    STR      r10,[r6,#4]
        0x0000dce4:    6077        w`      STR      r7,[r6,#4]
        0x0000dce6:    f8c6a004    ....    STR      r10,[r6,#4]
        0x0000dcea:    6077        w`      STR      r7,[r6,#4]
        0x0000dcec:    f8c6a004    ....    STR      r10,[r6,#4]
        0x0000dcf0:    6077        w`      STR      r7,[r6,#4]
        0x0000dcf2:    f8c6a004    ....    STR      r10,[r6,#4]
        0x0000dcf6:    6077        w`      STR      r7,[r6,#4]
        0x0000dcf8:    f8c6a004    ....    STR      r10,[r6,#4]
        0x0000dcfc:    6077        w`      STR      r7,[r6,#4]
        0x0000dcfe:    f8c6a004    ....    STR      r10,[r6,#4]
        0x0000dd02:    6077        w`      STR      r7,[r6,#4]
        0x0000dd04:    f8c6a004    ....    STR      r10,[r6,#4]
        0x0000dd08:    6077        w`      STR      r7,[r6,#4]
        0x0000dd0a:    f8c6a004    ....    STR      r10,[r6,#4]
        0x0000dd0e:    6077        w`      STR      r7,[r6,#4]
        0x0000dd10:    f8c6a004    ....    STR      r10,[r6,#4]
        0x0000dd14:    6077        w`      STR      r7,[r6,#4]
        0x0000dd16:    f8c6a004    ....    STR      r10,[r6,#4]
        0x0000dd1a:    6077        w`      STR      r7,[r6,#4]
        0x0000dd1c:    f8c6a004    ....    STR      r10,[r6,#4]
        0x0000dd20:    6077        w`      STR      r7,[r6,#4]
        0x0000dd22:    f8c6a004    ....    STR      r10,[r6,#4]
        0x0000dd26:    6077        w`      STR      r7,[r6,#4]
        0x0000dd28:    f8c6a004    ....    STR      r10,[r6,#4]
        0x0000dd2c:    6077        w`      STR      r7,[r6,#4]
        0x0000dd2e:    f8c6a004    ....    STR      r10,[r6,#4]
        0x0000dd32:    6077        w`      STR      r7,[r6,#4]
        0x0000dd34:    1e40        @.      SUBS     r0,r0,#1
        0x0000dd36:    2800        .(      CMP      r0,#0
        0x0000dd38:    dcc0        ..      BGT      0xdcbc ; main + 172
        0x0000dd3a:    f44f097f    O...    MOV      r9,#0xff0000
        0x0000dd3e:    f8c69004    ....    STR      r9,[r6,#4]
        0x0000dd42:    f8c5a0b4    ....    STR      r10,[r5,#0xb4]
        0x0000dd46:    497b        {I      LDR      r1,[pc,#492] ; [0xdf34] = 0x40010000
        0x0000dd48:    f44f6080    O..`    MOV      r0,#0x400
        0x0000dd4c:    f8c100b4    ....    STR      r0,[r1,#0xb4]
        0x0000dd50:    0500        ..      LSLS     r0,r0,#20
        0x0000dd52:    f8c100b4    ....    STR      r0,[r1,#0xb4]
        0x0000dd56:    13c0        ..      ASRS     r0,r0,#15
        0x0000dd58:    f8c100b4    ....    STR      r0,[r1,#0xb4]
        0x0000dd5c:    f44f4a80    O..J    MOV      r10,#0x4000
        0x0000dd60:    f8c1a0b4    ....    STR      r10,[r1,#0xb4]
        0x0000dd64:    0080        ..      LSLS     r0,r0,#2
        0x0000dd66:    f8c100b4    ....    STR      r0,[r1,#0xb4]
        0x0000dd6a:    0041        A.      LSLS     r1,r0,#1
        0x0000dd6c:    6071        q`      STR      r1,[r6,#4]
        0x0000dd6e:    0141        A.      LSLS     r1,r0,#5
        0x0000dd70:    6071        q`      STR      r1,[r6,#4]
        0x0000dd72:    0182        ..      LSLS     r2,r0,#6
        0x0000dd74:    6072        r`      STR      r2,[r6,#4]
        0x0000dd76:    6071        q`      STR      r1,[r6,#4]
        0x0000dd78:    6070        p`      STR      r0,[r6,#4]
        0x0000dd7a:    f4483031    H.10    ORR      r0,r8,#0x2c400
        0x0000dd7e:    4621        !F      MOV      r1,r4
        0x0000dd80:    f0404080    @..@    ORR      r0,r0,#0x40000000
        0x0000dd84:    2300        .#      MOVS     r3,#0
        0x0000dd86:    f8db2000    ...     LDR      r2,[r11,#0]
        0x0000dd8a:    f7fefdb7    ....    BL       am_hal_gpio_fast_pinconfig ; 0xc8fc
        0x0000dd8e:    0001        ..      MOVS     r1,r0
        0x0000dd90:    bf1c        ..      ITT      NE
        0x0000dd92:    a079        y.      ADRNE    r0,{pc}+0x1e6 ; 0xdf78
        0x0000dd94:    f7fffb5e    ..^.    BLNE     am_util_stdio_printf ; 0xd454
        0x0000dd98:    f8c5a0b4    ....    STR      r10,[r5,#0xb4]
        0x0000dd9c:    f44f7294    O..r    MOV      r2,#0x128
        0x0000dda0:    4985        .I      LDR      r1,[pc,#532] ; [0xdfb8] = 0xe2c4
        0x0000dda2:    a802        ..      ADD      r0,sp,#8
        0x0000dda4:    f7fefa42    ..B.    BL       __aeabi_memcpy4 ; 0xc22c
        0x0000dda8:    9802        ..      LDR      r0,[sp,#8]
        0x0000ddaa:    2400        .$      MOVS     r4,#0
        0x0000ddac:    f10d0808    ....    ADD      r8,sp,#8
        0x0000ddb0:    f1b03fff    ...?    CMP      r0,#0xffffffff
        0x0000ddb4:    bf1c        ..      ITT      NE
        0x0000ddb6:    f8dfb204    ....    LDRNE    r11,[pc,#516] ; [0xdfbc] = 0xa5000001
        0x0000ddba:    2701        .'      MOVNE    r7,#1
        0x0000ddbc:    d046        F.      BEQ      0xde4c ; main + 572
        0x0000ddbe:    bf00        ..      NOP      
        0x0000ddc0:    f8582034    X.4     LDR      r2,[r8,r4,LSL #3]
        0x0000ddc4:    455a        ZE      CMP      r2,r11
        0x0000ddc6:    bf08        ..      IT       EQ
        0x0000ddc8:    f8c5a0a8    ....    STREQ    r10,[r5,#0xa8]
        0x0000ddcc:    d038        8.      BEQ      0xde40 ; main + 560
        0x0000ddce:    497c        |I      LDR      r1,[pc,#496] ; [0xdfc0] = 0x10000000
        0x0000ddd0:    eb0800c4    ....    ADD      r0,r8,r4,LSL #3
        0x0000ddd4:    f0120f01    ....    TST      r2,#1
        0x0000ddd8:    680b        .h      LDR      r3,[r1,#0]
        0x0000ddda:    6840        @h      LDR      r0,[r0,#4]
        0x0000dddc:    f0030307    ....    AND      r3,r3,#7
        0x0000dde0:    fa07f303    ....    LSL      r3,r7,r3
        0x0000dde4:    bf14        ..      ITE      NE
        0x0000dde6:    b2db        ..      UXTBNE   r3,r3
        0x0000dde8:    ea094303    ...C    ANDEQ    r3,r9,r3,LSL #16
        0x0000ddec:    6073        s`      STR      r3,[r6,#4]
        0x0000ddee:    684b        Kh      LDR      r3,[r1,#4]
        0x0000ddf0:    0852        R.      LSRS     r2,r2,#1
        0x0000ddf2:    f0030307    ....    AND      r3,r3,#7
        0x0000ddf6:    f0120f01    ....    TST      r2,#1
        0x0000ddfa:    fa07f303    ....    LSL      r3,r7,r3
        0x0000ddfe:    bf14        ..      ITE      NE
        0x0000de00:    b2db        ..      UXTBNE   r3,r3
        0x0000de02:    ea094303    ...C    ANDEQ    r3,r9,r3,LSL #16
        0x0000de06:    6073        s`      STR      r3,[r6,#4]
        0x0000de08:    688b        .h      LDR      r3,[r1,#8]
        0x0000de0a:    0852        R.      LSRS     r2,r2,#1
        0x0000de0c:    f0030307    ....    AND      r3,r3,#7
        0x0000de10:    f0120f01    ....    TST      r2,#1
        0x0000de14:    fa07f303    ....    LSL      r3,r7,r3
        0x0000de18:    bf14        ..      ITE      NE
        0x0000de1a:    b2db        ..      UXTBNE   r3,r3
        0x0000de1c:    ea094303    ...C    ANDEQ    r3,r9,r3,LSL #16
        0x0000de20:    6073        s`      STR      r3,[r6,#4]
        0x0000de22:    68c9        .h      LDR      r1,[r1,#0xc]
        0x0000de24:    0852        R.      LSRS     r2,r2,#1
        0x0000de26:    f0010107    ....    AND      r1,r1,#7
        0x0000de2a:    f0120f01    ....    TST      r2,#1
        0x0000de2e:    fa07f101    ....    LSL      r1,r7,r1
        0x0000de32:    bf14        ..      ITE      NE
        0x0000de34:    b2c9        ..      UXTBNE   r1,r1
        0x0000de36:    ea094101    ...A    ANDEQ    r1,r9,r1,LSL #16
        0x0000de3a:    6071        q`      STR      r1,[r6,#4]
        0x0000de3c:    f7fffaa0    ....    BL       am_util_delay_ms ; 0xd380
        0x0000de40:    1c64        d.      ADDS     r4,r4,#1
        0x0000de42:    f8580034    X.4.    LDR      r0,[r8,r4,LSL #3]
        0x0000de46:    f1b03fff    ...?    CMP      r0,#0xffffffff
        0x0000de4a:    d1b9        ..      BNE      0xddc0 ; main + 432
        0x0000de4c:    f8c69004    ....    STR      r9,[r6,#4]
        0x0000de50:    f44f6080    O..`    MOV      r0,#0x400
        0x0000de54:    f8c500b4    ....    STR      r0,[r5,#0xb4]
        0x0000de58:    0500        ..      LSLS     r0,r0,#20
        0x0000de5a:    f8c500b4    ....    STR      r0,[r5,#0xb4]
        0x0000de5e:    13c0        ..      ASRS     r0,r0,#15
        0x0000de60:    f8c500b4    ....    STR      r0,[r5,#0xb4]
        0x0000de64:    f8c5a0b4    ....    STR      r10,[r5,#0xb4]
        0x0000de68:    0080        ..      LSLS     r0,r0,#2
        0x0000de6a:    f8c500b4    ....    STR      r0,[r5,#0xb4]
        0x0000de6e:    b04d        M.      ADD      sp,sp,#0x134
        0x0000de70:    2000        .       MOVS     r0,#0
        0x0000de72:    e8bd8ff0    ....    POP      {r4-r11,pc}
    $d
        0x0000de76:    0000        ..      DCW    0
        0x0000de78:    0000e3ec    ....    DCD    58348
        0x0000de7c:    74736146    Fast    DCD    1953718598
        0x0000de80:    49504720     GPI    DCD    1229997856
        0x0000de84:    7845204f    O Ex    DCD    2017796175
        0x0000de88:    6c706d61    ampl    DCD    1819307361
        0x0000de8c:    00000a65    e...    DCD    2661
        0x0000de90:    6e656857    When    DCD    1852139607
        0x0000de94:    6e757220     run    DCD    1853190688
        0x0000de98:    206e6f20     on     DCD    544108320
        0x0000de9c:    41206e61    an A    DCD    1092644449
        0x0000dea0:    6c6c6f70    poll    DCD    1819045744
        0x0000dea4:    4520336f    o3 E    DCD    1159738223
        0x0000dea8:    0a3a4256    VB:.    DCD    171590230
        0x0000deac:    00000000    ....    DCD    0
        0x0000deb0:    0000e900    ....    DCD    59648
        0x0000deb4:    54202d20     - T    DCD    1411394848
        0x0000deb8:    206e6568    hen     DCD    544105832
        0x0000debc:    20656874    the     DCD    543516788
        0x0000dec0:    6c6f7041    Apol    DCD    1819242561
        0x0000dec4:    20336f6c    lo3     DCD    540241772
        0x0000dec8:    20425645    EVB     DCD    541218373
        0x0000decc:    7344454c    LEDs    DCD    1933854028
        0x0000ded0:    73696420     dis    DCD    1936286752
        0x0000ded4:    79616c70    play    DCD    2036427888
        0x0000ded8:    73206120     a s    DCD    1931501856
        0x0000dedc:    74726f68    hort    DCD    1953656680
        0x0000dee0:    74617020     pat    DCD    1952542752
        0x0000dee4:    6e726574    tern    DCD    1852990836
        0x0000dee8:    00000a2e    ....    DCD    2606
        0x0000deec:    4c202d20     - L    DCD    1277177120
        0x0000def0:    3d304445    ED0=    DCD    1026573381
        0x0000def4:    206e6970    pin     DCD    544106864
        0x0000def8:    202c6425    %d,     DCD    539780133
        0x0000defc:    3144454c    LED1    DCD    826557772
        0x0000df00:    2c64253d    =%d,    DCD    744760637
        0x0000df04:    44454c20     LED    DCD    1145392160
        0x0000df08:    64253d32    2=%d    DCD    1680162098
        0x0000df0c:    454c202c    , LE    DCD    1162616876
        0x0000df10:    253d3344    D3=%    DCD    624767812
        0x0000df14:    4c202c64    d, L    DCD    1277176932
        0x0000df18:    3d344445    ED4=    DCD    1026835525
        0x0000df1c:    0a2e6425    %d..    DCD    170812453
        0x0000df20:    00000000    ....    DCD    0
        0x0000df24:    0000e850    P...    DCD    59472
        0x0000df28:    0000e950    P...    DCD    59728
        0x0000df2c:    0000e8ac    ....    DCD    59564
        0x0000df30:    0000000a    ....    DCD    10
        0x0000df34:    40010000    ...@    DCD    1073807360
        0x0000df38:    40011000    ...@    DCD    1073811456
        0x0000df3c:    0000e564    d...    DCD    58724
        0x0000df40:    6f727245    Erro    DCD    1869771333
        0x0000df44:    65722072    r re    DCD    1701978226
        0x0000df48:    6e727574    turn    DCD    1852994932
        0x0000df4c:    66206465    ed f    DCD    1713398885
        0x0000df50:    206d6f72    rom     DCD    544042866
        0x0000df54:    685f6d61    am_h    DCD    1751084385
        0x0000df58:    675f6c61    al_g    DCD    1734306913
        0x0000df5c:    5f6f6970    pio_    DCD    1601137008
        0x0000df60:    74736166    fast    DCD    1953718630
        0x0000df64:    6e69705f    _pin    DCD    1852403807
        0x0000df68:    666e6f63    conf    DCD    1718513507
        0x0000df6c:    29286769    ig()    DCD    690513769
        0x0000df70:    2e203d20     = .    DCD    773864736
        0x0000df74:    0000000a    ....    DCD    10
        0x0000df78:    6f727245    Erro    DCD    1869771333
        0x0000df7c:    65722072    r re    DCD    1701978226
        0x0000df80:    6e727574    turn    DCD    1852994932
        0x0000df84:    66206465    ed f    DCD    1713398885
        0x0000df88:    206d6f72    rom     DCD    544042866
        0x0000df8c:    2044454c    LED     DCD    541345100
        0x0000df90:    685f6d61    am_h    DCD    1751084385
        0x0000df94:    675f6c61    al_g    DCD    1734306913
        0x0000df98:    5f6f6970    pio_    DCD    1601137008
        0x0000df9c:    74736166    fast    DCD    1953718630
        0x0000dfa0:    6e69705f    _pin    DCD    1852403807
        0x0000dfa4:    666e6f63    conf    DCD    1718513507
        0x0000dfa8:    29286769    ig()    DCD    690513769
        0x0000dfac:    30203d20     = 0    DCD    807419168
        0x0000dfb0:    2e582578    x%X.    DCD    777528696
        0x0000dfb4:    0000000a    ....    DCD    10
        0x0000dfb8:    0000e2c4    ....    DCD    58052
        0x0000dfbc:    a5000001    ....    DCD    2768240641
        0x0000dfc0:    10000000    ....    DCD    268435456
    $t
    i.ndigits_in_u64
    ndigits_in_u64
        0x0000dfc4:    e92d01f0    -...    PUSH     {r4-r8}
        0x0000dfc8:    ea500201    P...    ORRS     r2,r0,r1
        0x0000dfcc:    bf0e        ..      ITEE     EQ
        0x0000dfce:    2301        .#      MOVEQ    r3,#1
        0x0000dfd0:    2300        .#      MOVNE    r3,#0
        0x0000dfd2:    f04f0c00    O...    MOVNE    r12,#0
        0x0000dfd6:    d054        T.      BEQ      0xe082 ; ndigits_in_u64 + 190
        0x0000dfd8:    2900        .)      CMP      r1,#0
        0x0000dfda:    d03b        ;.      BEQ      0xe054 ; ndigits_in_u64 + 144
        0x0000dfdc:    084c        L.      LSRS     r4,r1,#1
        0x0000dfde:    ea4f0690    O...    LSR      r6,r0,#2
        0x0000dfe2:    ea4f0230    O.0.    RRX      r2,r0
        0x0000dfe6:    ea467681    F..v    ORR      r6,r6,r1,LSL #30
        0x0000dfea:    1992        ..      ADDS     r2,r2,r6
        0x0000dfec:    eb440491    D...    ADC      r4,r4,r1,LSR #2
        0x0000dff0:    ea4f1612    O...    LSR      r6,r2,#4
        0x0000dff4:    ea467504    F..u    ORR      r5,r6,r4,LSL #28
        0x0000dff8:    18aa        ..      ADDS     r2,r5,r2
        0x0000dffa:    eb441414    D...    ADC      r4,r4,r4,LSR #4
        0x0000dffe:    ea4f2612    O..&    LSR      r6,r2,#8
        0x0000e002:    ea466504    F..e    ORR      r5,r6,r4,LSL #24
        0x0000e006:    18aa        ..      ADDS     r2,r5,r2
        0x0000e008:    eb442514    D..%    ADC      r5,r4,r4,LSR #8
        0x0000e00c:    ea4f4612    O..F    LSR      r6,r2,#16
        0x0000e010:    ea464405    F..D    ORR      r4,r6,r5,LSL #16
        0x0000e014:    18a4        ..      ADDS     r4,r4,r2
        0x0000e016:    eb454215    E..B    ADC      r2,r5,r5,LSR #16
        0x0000e01a:    18a4        ..      ADDS     r4,r4,r2
        0x0000e01c:    eb42020c    B...    ADC      r2,r2,r12
        0x0000e020:    08e4        ..      LSRS     r4,r4,#3
        0x0000e022:    ea447442    D.Bt    ORR      r4,r4,r2,LSL #29
        0x0000e026:    270a        .'      MOVS     r7,#0xa
        0x0000e028:    fba45807    ...X    UMULL    r5,r8,r4,r7
        0x0000e02c:    08d2        ..      LSRS     r2,r2,#3
        0x0000e02e:    fb028707    ....    MLA      r7,r2,r7,r8
        0x0000e032:    2600        .&      MOVS     r6,#0
        0x0000e034:    fb047606    ...v    MLA      r6,r4,r6,r7
        0x0000e038:    1b40        @.      SUBS     r0,r0,r5
        0x0000e03a:    eb610106    a...    SBC      r1,r1,r6
        0x0000e03e:    1d85        ..      ADDS     r5,r0,#6
        0x0000e040:    f1410000    A...    ADC      r0,r1,#0
        0x0000e044:    092d        -.      LSRS     r5,r5,#4
        0x0000e046:    ea457100    E..q    ORR      r1,r5,r0,LSL #28
        0x0000e04a:    0905        ..      LSRS     r5,r0,#4
        0x0000e04c:    1908        ..      ADDS     r0,r1,r4
        0x0000e04e:    eb450102    E...    ADC      r1,r5,r2
        0x0000e052:    e012        ..      B        0xe07a ; ndigits_in_u64 + 182
        0x0000e054:    0841        A.      LSRS     r1,r0,#1
        0x0000e056:    eb010190    ....    ADD      r1,r1,r0,LSR #2
        0x0000e05a:    eb011111    ....    ADD      r1,r1,r1,LSR #4
        0x0000e05e:    eb012111    ...!    ADD      r1,r1,r1,LSR #8
        0x0000e062:    eb014111    ...A    ADD      r1,r1,r1,LSR #16
        0x0000e066:    08c9        ..      LSRS     r1,r1,#3
        0x0000e068:    424a        JB      RSBS     r2,r1,#0
        0x0000e06a:    eb020282    ....    ADD      r2,r2,r2,LSL #2
        0x0000e06e:    eb000042    ..B.    ADD      r0,r0,r2,LSL #1
        0x0000e072:    1d80        ..      ADDS     r0,r0,#6
        0x0000e074:    eb011010    ....    ADD      r0,r1,r0,LSR #4
        0x0000e078:    4661        aF      MOV      r1,r12
        0x0000e07a:    1c5b        [.      ADDS     r3,r3,#1
        0x0000e07c:    ea500201    P...    ORRS     r2,r0,r1
        0x0000e080:    d1aa        ..      BNE      0xdfd8 ; ndigits_in_u64 + 20
        0x0000e082:    e8bd01f0    ....    POP      {r4-r8}
        0x0000e086:    4618        .F      MOV      r0,r3
        0x0000e088:    4770        pG      BX       lr
    i.uint64_to_str
    uint64_to_str
        0x0000e08a:    e92d07f0    -...    PUSH     {r4-r10}
        0x0000e08e:    b087        ..      SUB      sp,sp,#0x1c
        0x0000e090:    f04f0c00    O...    MOV      r12,#0
        0x0000e094:    4666        fF      MOV      r6,r12
        0x0000e096:    466d        mF      MOV      r5,sp
        0x0000e098:    2900        .)      CMP      r1,#0
        0x0000e09a:    d03f        ?.      BEQ      0xe11c ; uint64_to_str + 146
        0x0000e09c:    084f        O.      LSRS     r7,r1,#1
        0x0000e09e:    ea4f0390    O...    LSR      r3,r0,#2
        0x0000e0a2:    ea4f0430    O.0.    RRX      r4,r0
        0x0000e0a6:    ea437381    C..s    ORR      r3,r3,r1,LSL #30
        0x0000e0aa:    18e4        ..      ADDS     r4,r4,r3
        0x0000e0ac:    eb470391    G...    ADC      r3,r7,r1,LSR #2
        0x0000e0b0:    ea4f1814    O...    LSR      r8,r4,#4
        0x0000e0b4:    ea487803    H..x    ORR      r8,r8,r3,LSL #28
        0x0000e0b8:    eb180404    ....    ADDS     r4,r8,r4
        0x0000e0bc:    eb431313    C...    ADC      r3,r3,r3,LSR #4
        0x0000e0c0:    ea4f2814    O..(    LSR      r8,r4,#8
        0x0000e0c4:    ea486803    H..h    ORR      r8,r8,r3,LSL #24
        0x0000e0c8:    eb180404    ....    ADDS     r4,r8,r4
        0x0000e0cc:    eb432313    C..#    ADC      r3,r3,r3,LSR #8
        0x0000e0d0:    ea4f4814    O..H    LSR      r8,r4,#16
        0x0000e0d4:    ea484803    H..H    ORR      r8,r8,r3,LSL #16
        0x0000e0d8:    eb180404    ....    ADDS     r4,r8,r4
        0x0000e0dc:    eb434313    C..C    ADC      r3,r3,r3,LSR #16
        0x0000e0e0:    18e7        ..      ADDS     r7,r4,r3
        0x0000e0e2:    eb430406    C...    ADC      r4,r3,r6
        0x0000e0e6:    08ff        ..      LSRS     r7,r7,#3
        0x0000e0e8:    ea477344    G.Ds    ORR      r3,r7,r4,LSL #29
        0x0000e0ec:    270a        .'      MOVS     r7,#0xa
        0x0000e0ee:    fba39a07    ....    UMULL    r9,r10,r3,r7
        0x0000e0f2:    08e4        ..      LSRS     r4,r4,#3
        0x0000e0f4:    fb04a707    ....    MLA      r7,r4,r7,r10
        0x0000e0f8:    f04f0800    O...    MOV      r8,#0
        0x0000e0fc:    fb037808    ...x    MLA      r8,r3,r8,r7
        0x0000e100:    ebb00709    ....    SUBS     r7,r0,r9
        0x0000e104:    eb610108    a...    SBC      r1,r1,r8
        0x0000e108:    1dbf        ..      ADDS     r7,r7,#6
        0x0000e10a:    f1410100    A...    ADC      r1,r1,#0
        0x0000e10e:    093f        ?.      LSRS     r7,r7,#4
        0x0000e110:    ea477701    G..w    ORR      r7,r7,r1,LSL #28
        0x0000e114:    18fb        ..      ADDS     r3,r7,r3
        0x0000e116:    eb441411    D...    ADC      r4,r4,r1,LSR #4
        0x0000e11a:    e012        ..      B        0xe142 ; uint64_to_str + 184
        0x0000e11c:    0843        C.      LSRS     r3,r0,#1
        0x0000e11e:    eb030390    ....    ADD      r3,r3,r0,LSR #2
        0x0000e122:    eb031313    ....    ADD      r3,r3,r3,LSR #4
        0x0000e126:    eb032313    ...#    ADD      r3,r3,r3,LSR #8
        0x0000e12a:    eb034313    ...C    ADD      r3,r3,r3,LSR #16
        0x0000e12e:    08db        ..      LSRS     r3,r3,#3
        0x0000e130:    425c        \B      RSBS     r4,r3,#0
        0x0000e132:    eb040484    ....    ADD      r4,r4,r4,LSL #2
        0x0000e136:    eb000144    ..D.    ADD      r1,r0,r4,LSL #1
        0x0000e13a:    1d89        ..      ADDS     r1,r1,#6
        0x0000e13c:    eb031311    ....    ADD      r3,r3,r1,LSR #4
        0x0000e140:    4634        4F      MOV      r4,r6
        0x0000e142:    4621        !F      MOV      r1,r4
        0x0000e144:    240a        .$      MOVS     r4,#0xa
        0x0000e146:    fba34704    ...G    UMULL    r4,r7,r3,r4
        0x0000e14a:    1b00        ..      SUBS     r0,r0,r4
        0x0000e14c:    f1000030    ..0.    ADD      r0,r0,#0x30
        0x0000e150:    f805000c    ....    STRB     r0,[r5,r12]
        0x0000e154:    4618        .F      MOV      r0,r3
        0x0000e156:    f10c0c01    ....    ADD      r12,r12,#1
        0x0000e15a:    430b        .C      ORRS     r3,r3,r1
        0x0000e15c:    d19c        ..      BNE      0xe098 ; uint64_to_str + 14
        0x0000e15e:    4660        `F      MOV      r0,r12
        0x0000e160:    2a00        .*      CMP      r2,#0
        0x0000e162:    bf02        ..      ITTT     EQ
        0x0000e164:    b007        ..      ADDEQ    sp,sp,#0x1c
        0x0000e166:    e8bd07f0    ....    POPEQ    {r4-r10}
        0x0000e16a:    4770        pG      BXEQ     lr
        0x0000e16c:    1e47        G.      SUBS     r7,r0,#1
        0x0000e16e:    f1b00c00    ....    SUBS     r12,r0,#0
        0x0000e172:    dd18        ..      BLE      0xe1a6 ; uint64_to_str + 284
        0x0000e174:    19e9        ..      ADDS     r1,r5,r7
        0x0000e176:    1c4b        K.      ADDS     r3,r1,#1
        0x0000e178:    1e51        Q.      SUBS     r1,r2,#1
        0x0000e17a:    f0170f01    ....    TST      r7,#1
        0x0000e17e:    d103        ..      BNE      0xe188 ; uint64_to_str + 254
        0x0000e180:    f8134d01    ...M    LDRB     r4,[r3,#-1]!
        0x0000e184:    f8014f01    ...O    STRB     r4,[r1,#1]!
        0x0000e188:    ea5f046c    _.l.    ASRS     r4,r12,#1
        0x0000e18c:    d009        ..      BEQ      0xe1a2 ; uint64_to_str + 280
        0x0000e18e:    f813cc01    ....    LDRB     r12,[r3,#-1]
        0x0000e192:    f881c001    ....    STRB     r12,[r1,#1]
        0x0000e196:    f813cd02    ....    LDRB     r12,[r3,#-2]!
        0x0000e19a:    f801cf02    ....    STRB     r12,[r1,#2]!
        0x0000e19e:    1e64        d.      SUBS     r4,r4,#1
        0x0000e1a0:    d1f5        ..      BNE      0xe18e ; uint64_to_str + 260
        0x0000e1a2:    19d1        ..      ADDS     r1,r2,r7
        0x0000e1a4:    1c4a        J.      ADDS     r2,r1,#1
        0x0000e1a6:    7016        .p      STRB     r6,[r2,#0]
        0x0000e1a8:    b007        ..      ADD      sp,sp,#0x1c
        0x0000e1aa:    e8bd07f0    ....    POP      {r4-r10}
        0x0000e1ae:    4770        pG      BX       lr
    x$fpl$d2f
    $v0
    __aeabi_d2f
    _d2f
        0x0000e1b0:    f0214200    !..B    BIC      r2,r1,#0x80000000
        0x0000e1b4:    f1a25260    ..`R    SUB      r2,r2,#0x38000000
        0x0000e1b8:    f5b21f80    ....    CMP      r2,#0x100000
        0x0000e1bc:    f0014300    ...C    AND      r3,r1,#0x80000000
        0x0000e1c0:    bf28        (.      IT       CS
        0x0000e1c2:    f1d26c7f    ...l    RSBSCS   r12,r2,#0xff00000
        0x0000e1c6:    d90b        ..      BLS      0xe1e0 ; __aeabi_d2f + 48
        0x0000e1c8:    ea5f1c00    _...    LSLS     r12,r0,#4
        0x0000e1cc:    ea4302c2    C...    ORR      r2,r3,r2,LSL #3
        0x0000e1d0:    eb427050    B.Pp    ADC      r0,r2,r0,LSR #29
        0x0000e1d4:    bf18        ..      IT       NE
        0x0000e1d6:    4770        pG      BXNE     lr
        0x0000e1d8:    bf28        (.      IT       CS
        0x0000e1da:    f0200001     ...    BICCS    r0,r0,#1
        0x0000e1de:    4770        pG      BX       lr
        0x0000e1e0:    f5b21f80    ....    CMP      r2,#0x100000
        0x0000e1e4:    bfbc        ..      ITT      LT
        0x0000e1e6:    4618        .F      MOVLT    r0,r3
        0x0000e1e8:    4770        pG      BXLT     lr
        0x0000e1ea:    ea4f0c41    O.A.    LSL      r12,r1,#1
        0x0000e1ee:    f51c1f00    ....    CMN      r12,#0x200000
        0x0000e1f2:    d202        ..      BCS      0xe1fa ; __aeabi_d2f + 74
        0x0000e1f4:    4608        .F      MOV      r0,r1
        0x0000e1f6:    f000b85f    .._.    B.W      __fpl_fretinf ; 0xe2b8
        0x0000e1fa:    b570        p.      PUSH     {r4-r6,lr}
        0x0000e1fc:    f000f809    ....    BL       __fpl_dnaninf ; 0xe212
    $d
        0x0000e200:    89000000    ....    DCD    2298478592
    $t
        0x0000e204:    f7ffbff6    ....    B.W      0xe1f4 ; __aeabi_d2f + 68
        0x0000e208:    f04f4000    O..@    MOV      r0,#0x80000000
        0x0000e20c:    f5a00080    ....    SUB      r0,r0,#0x400000
        0x0000e210:    4770        pG      BX       lr
    x$fpl$dnaninf
    $v0
    __fpl_dnaninf
        0x0000e212:    f10e0e02    ....    ADD      lr,lr,#2
        0x0000e216:    f02e0e03    ....    BIC      lr,lr,#3
        0x0000e21a:    f85e6b04    ^..k    LDR      r6,[lr],#4
        0x0000e21e:    4236        6B      TST      r6,r6
        0x0000e220:    d405        ..      BMI      0xe22e ; __fpl_dnaninf + 28
        0x0000e222:    2a01        .*      CMP      r2,#1
        0x0000e224:    eb430503    C...    ADC      r5,r3,r3
        0x0000e228:    f5151f00    ....    CMN      r5,#0x200000
        0x0000e22c:    d812        ..      BHI      0xe254 ; __fpl_dnaninf + 66
        0x0000e22e:    2801        .(      CMP      r0,#1
        0x0000e230:    eb410c01    A...    ADC      r12,r1,r1
        0x0000e234:    f51c1f00    ....    CMN      r12,#0x200000
        0x0000e238:    d80c        ..      BHI      0xe254 ; __fpl_dnaninf + 66
        0x0000e23a:    d10e        ..      BNE      0xe25a ; __fpl_dnaninf + 72
        0x0000e23c:    ea4f7cd1    O..|    LSR      r12,r1,#31
        0x0000e240:    f5151f00    ....    CMN      r5,#0x200000
        0x0000e244:    eb0c0c4c    ..L.    ADD      r12,r12,r12,LSL #1
        0x0000e248:    f10c0c02    ....    ADD      r12,r12,#2
        0x0000e24c:    bf08        ..      IT       EQ
        0x0000e24e:    eb4c7cd3    L..|    ADCEQ    r12,r12,r3,LSR #31
        0x0000e252:    e004        ..      B        0xe25e ; __fpl_dnaninf + 76
        0x0000e254:    f04f0c08    O...    MOV      r12,#8
        0x0000e258:    e001        ..      B        0xe25e ; __fpl_dnaninf + 76
        0x0000e25a:    ea4f7cd3    O..|    LSR      r12,r3,#31
        0x0000e25e:    eb0c054c    ..L.    ADD      r5,r12,r12,LSL #1
        0x0000e262:    fa26f605    &...    LSR      r6,r6,r5
        0x0000e266:    f0060607    ....    AND      r6,r6,#7
        0x0000e26a:    f1b60c04    ....    SUBS     r12,r6,#4
        0x0000e26e:    d206        ..      BCS      0xe27e ; __fpl_dnaninf + 108
        0x0000e270:    eb0e0c86    ....    ADD      r12,lr,r6,LSL #2
        0x0000e274:    e8bd4070    ..p@    POP      {r4-r6,lr}
        0x0000e278:    f04c0c01    L...    ORR      r12,r12,#1
        0x0000e27c:    4760        `G      BX       r12
        0x0000e27e:    e8dff00c    ....    TBB      [pc,r12]
    $d
        0x0000e282:    0b09        ..      DCW    2825
        0x0000e284:    0202        ..      DCW    514
    $t
        0x0000e286:    f04f4100    O..A    MOV      r1,#0x80000000
        0x0000e28a:    f04f0000    O...    MOV      r0,#0
        0x0000e28e:    f5a12100    ...!    SUB      r1,r1,#0x80000
        0x0000e292:    bd70        p.      POP      {r4-r6,pc}
        0x0000e294:    4619        .F      MOV      r1,r3
        0x0000e296:    4610        .F      MOV      r0,r2
        0x0000e298:    2801        .(      CMP      r0,#1
        0x0000e29a:    eb510401    Q...    ADCS     r4,r1,r1
        0x0000e29e:    bf18        ..      IT       NE
        0x0000e2a0:    f5d41400    ....    RSBSNE   r4,r4,#0x200000
        0x0000e2a4:    bf84        ..      ITT      HI
        0x0000e2a6:    2000        .       MOVHI    r0,#0
        0x0000e2a8:    f0014100    ...A    ANDHI    r1,r1,#0x80000000
        0x0000e2ac:    bd70        p.      POP      {r4-r6,pc}
    x$fpl$fpinit
    $v0
    _fp_init
        0x0000e2ae:    f04f7040    O.@p    MOV      r0,#0x3000000
        0x0000e2b2:    eee10a10    ....    VMSR     FPSCR,r0
    __fplib_config_fpu_vfp
    __fplib_config_pureend_doubles
        0x0000e2b6:    4770        pG      BX       lr
    x$fpl$fretinf
    $v0
    __fpl_fretinf
        0x0000e2b8:    21ff        .!      MOVS     r1,#0xff
        0x0000e2ba:    ea4150d0    A..P    ORR      r0,r1,r0,LSR #23
        0x0000e2be:    05c0        ..      LSLS     r0,r0,#23
        0x0000e2c0:    4770        pG      BX       lr
    x$fpl$usenofp
    __I$use$fp
        0x0000e2c2:    0000        ..      MOVS     r0,r0
    $d.realdata
    .constdata
        0x0000e2c4:    00000000    ....    DCD    0
        0x0000e2c8:    00000064    d...    DCD    100
        0x0000e2cc:    00000001    ....    DCD    1
        0x0000e2d0:    00000064    d...    DCD    100
        0x0000e2d4:    00000000    ....    DCD    0
        0x0000e2d8:    00000064    d...    DCD    100
        0x0000e2dc:    00000001    ....    DCD    1
        0x0000e2e0:    00000064    d...    DCD    100
        0x0000e2e4:    00000000    ....    DCD    0
        0x0000e2e8:    00000064    d...    DCD    100
        0x0000e2ec:    00000001    ....    DCD    1
        0x0000e2f0:    00000064    d...    DCD    100
        0x0000e2f4:    00000000    ....    DCD    0
        0x0000e2f8:    00000064    d...    DCD    100
        0x0000e2fc:    00000001    ....    DCD    1
        0x0000e300:    00000064    d...    DCD    100
        0x0000e304:    00000000    ....    DCD    0
        0x0000e308:    00000064    d...    DCD    100
        0x0000e30c:    00000001    ....    DCD    1
        0x0000e310:    00000064    d...    DCD    100
        0x0000e314:    00000000    ....    DCD    0
        0x0000e318:    00000064    d...    DCD    100
        0x0000e31c:    00000001    ....    DCD    1
        0x0000e320:    00000064    d...    DCD    100
        0x0000e324:    00000000    ....    DCD    0
        0x0000e328:    00000064    d...    DCD    100
        0x0000e32c:    00000001    ....    DCD    1
        0x0000e330:    00000064    d...    DCD    100
        0x0000e334:    00000000    ....    DCD    0
        0x0000e338:    00000064    d...    DCD    100
        0x0000e33c:    00000001    ....    DCD    1
        0x0000e340:    00000064    d...    DCD    100
        0x0000e344:    00000000    ....    DCD    0
        0x0000e348:    00000064    d...    DCD    100
        0x0000e34c:    00000001    ....    DCD    1
        0x0000e350:    00000064    d...    DCD    100
        0x0000e354:    00000000    ....    DCD    0
        0x0000e358:    00000064    d...    DCD    100
        0x0000e35c:    00000001    ....    DCD    1
        0x0000e360:    00000064    d...    DCD    100
        0x0000e364:    00000000    ....    DCD    0
        0x0000e368:    000000c8    ....    DCD    200
        0x0000e36c:    00000001    ....    DCD    1
        0x0000e370:    000000c8    ....    DCD    200
        0x0000e374:    00000002    ....    DCD    2
        0x0000e378:    000000c8    ....    DCD    200
        0x0000e37c:    00000004    ....    DCD    4
        0x0000e380:    000000c8    ....    DCD    200
        0x0000e384:    00000008    ....    DCD    8
        0x0000e388:    000000c8    ....    DCD    200
        0x0000e38c:    00000008    ....    DCD    8
        0x0000e390:    000000c8    ....    DCD    200
        0x0000e394:    00000004    ....    DCD    4
        0x0000e398:    000000c8    ....    DCD    200
        0x0000e39c:    00000002    ....    DCD    2
        0x0000e3a0:    000000c8    ....    DCD    200
        0x0000e3a4:    00000001    ....    DCD    1
        0x0000e3a8:    000000c8    ....    DCD    200
        0x0000e3ac:    a5000001    ....    DCD    2768240641
        0x0000e3b0:    a5a5a5a5    ....    DCD    2779096485
        0x0000e3b4:    0000000f    ....    DCD    15
        0x0000e3b8:    0000012c    ,...    DCD    300
        0x0000e3bc:    00000000    ....    DCD    0
        0x0000e3c0:    0000012c    ,...    DCD    300
        0x0000e3c4:    0000000f    ....    DCD    15
        0x0000e3c8:    0000012c    ,...    DCD    300
        0x0000e3cc:    00000000    ....    DCD    0
        0x0000e3d0:    0000012c    ,...    DCD    300
        0x0000e3d4:    0000000f    ....    DCD    15
        0x0000e3d8:    0000012c    ,...    DCD    300
        0x0000e3dc:    00000000    ....    DCD    0
        0x0000e3e0:    0000012c    ,...    DCD    300
        0x0000e3e4:    ffffffff    ....    DCD    4294967295
        0x0000e3e8:    ffffffff    ....    DCD    4294967295
    .constdata
    am_hal_cachectrl_defaults
        0x0000e3ec:    00000308    ....    DCD    776
    .constdata
        0x0000e3f0:    bf006001    .`..    DCD    3204472833
        0x0000e3f4:    bf006800    .h..    DCD    3204474880
        0x0000e3f8:    bf004770    pG..    DCD    3204466544
    .constdata
    g_AM_HAL_GPIO_DISABLE
        0x0000e3fc:    00000003    ....    DCD    3
    g_ui8Inpen
        0x0000e400:    62272323    ##'b    DCD    1646732067
        0x0000e404:    108703a1    ....    DCD    277283745
        0x0000e408:    e1005303    .S..    DCD    3774894851
        0x0000e40c:    55418151    Q.AU    DCD    1430356305
        0x0000e410:    4080c405    ...@    DCD    1082180613
        0x0000e414:    4140b101    ..@A    DCD    1094758657
        0x0000e418:    31a03114    .1.1    DCD    832581908
        0x0000e41c:    1180f100    ....    DCD    293662976
        0x0000e420:    11c12191    .!..    DCD    297869713
        0x0000e424:    304511e5    ..E0    DCD    809832933
        0x0000e428:    31300037    7.01    DCD    825229367
        0x0000e42c:    40007100    .q.@    DCD    1073770752
        0x0000e430:    3130        01      DCW    12592
    g_ui8Bit76Capabilities
        0x0000e432:    0101        ..      DCW    257
        0x0000e434:    01800280    ....    DCD    25166464
        0x0000e438:    01018001    ....    DCD    16875521
        0x0000e43c:    80808080    ....    DCD    2155905152
        0x0000e440:    80808080    ....    DCD    2155905152
        0x0000e444:    80088080    ....    DCD    2148040832
        0x0000e448:    01808080    ....    DCD    25198720
        0x0000e44c:    80800180    ....    DCD    2155872640
        0x0000e450:    80808080    ....    DCD    2155905152
        0x0000e454:    04028080    ....    DCD    67272832
        0x0000e458:    04010180    ....    DCD    67174784
        0x0000e45c:    80800101    ....    DCD    2155872513
        0x0000e460:    01018080    ....    DCD    16875648
    g_ui8nCEpins
        0x0000e464:    02070707    ....    DCD    34014983
        0x0000e468:    00080802    ....    DCD    526338
        0x0000e46c:    01020202    ....    DCD    16908802
        0x0000e470:    01010101    ....    DCD    16843009
        0x0000e474:    01010101    ....    DCD    16843009
        0x0000e478:    01010101    ....    DCD    16843009
        0x0000e47c:    01010101    ....    DCD    16843009
        0x0000e480:    01010101    ....    DCD    16843009
        0x0000e484:    01010101    ....    DCD    16843009
        0x0000e488:    08010101    ....    DCD    134283521
        0x0000e48c:    01010008    ....    DCD    16842760
        0x0000e490:    01010101    ....    DCD    16843009
        0x0000e494:    0101        ..      DCW    257
    g_ui8NCEtable
        0x0000e496:    4232        2B      DCW    16946
        0x0000e498:    12021352    R...    DCD    302125906
        0x0000e49c:    43336022    "`3C    DCD    1127440418
        0x0000e4a0:    40302153    S!0@    DCD    1076896083
        0x0000e4a4:    41312050    P 1A    DCD    1093738576
        0x0000e4a8:    ffff1151    Q...    DCD    4294906193
        0x0000e4ac:    ffffffff    ....    DCD    4294967295
        0x0000e4b0:    4131ffff    ..1A    DCD    1093795839
        0x0000e4b4:    40306051    Q`0@    DCD    1076912209
        0x0000e4b8:    43330050    P.3C    DCD    1127415888
        0x0000e4bc:    42322353    S#2B    DCD    1110582099
        0x0000e4c0:    10006052    R`..    DCD    268460114
        0x0000e4c4:    40303020     00@    DCD    1076899872
        0x0000e4c8:    41316150    Pa1A    DCD    1093755216
        0x0000e4cc:    12020151    Q...    DCD    302121297
        0x0000e4d0:    13034222    "B..    DCD    318980642
        0x0000e4d4:    10006023    #`..    DCD    268460067
        0x0000e4d8:    11015020     P..    DCD    285298720
        0x0000e4dc:    12024121    !A..    DCD    302137633
        0x0000e4e0:    13033222    "2..    DCD    318976546
        0x0000e4e4:    41316033    3`1A    DCD    1093754931
        0x0000e4e8:    42322151    Q!2B    DCD    1110581585
        0x0000e4ec:    43332252    R"3C    DCD    1127424594
        0x0000e4f0:    10000353    S...    DCD    268436307
        0x0000e4f4:    11014020     @..    DCD    285294624
        0x0000e4f8:    42325121    !Q2B    DCD    1110593825
        0x0000e4fc:    43330252    R.3C    DCD    1127416402
        0x0000e500:    40301353    S.0@    DCD    1076892499
        0x0000e504:    41311050    P.1A    DCD    1093734480
        0x0000e508:    42326051    Q`2B    DCD    1110597713
        0x0000e50c:    43331252    R.3C    DCD    1127420498
        0x0000e510:    10000353    S...    DCD    268436307
        0x0000e514:    11014020     @..    DCD    285294624
        0x0000e518:    12026121    !a..    DCD    302145825
        0x0000e51c:    13035222    "R..    DCD    318984738
        0x0000e520:    10003323    #3..    DCD    268448547
        0x0000e524:    41313020     01A    DCD    1093742624
        0x0000e528:    42326151    Qa2B    DCD    1110597969
        0x0000e52c:    13030252    R...    DCD    318964306
        0x0000e530:    ffff5333    3S..    DCD    4294923059
        0x0000e534:    ffffffff    ....    DCD    4294967295
        0x0000e538:    1101ffff    ....    DCD    285343743
        0x0000e53c:    10006121    !a..    DCD    268460321
        0x0000e540:    11015020     P..    DCD    285298720
        0x0000e544:    12026121    !a..    DCD    302145825
        0x0000e548:    43335222    "R3C    DCD    1127436834
        0x0000e54c:    40301353    S.0@    DCD    1076892499
        0x0000e550:    11016150    Pa..    DCD    285303120
        0x0000e554:    12023121    !1..    DCD    302133537
        0x0000e558:    13033222    "2..    DCD    318976546
        0x0000e55c:    00004323    #C..    DCD    17187
    .constdata
    g_AM_HAL_GPIO_OUTPUT
        0x0000e560:    00000403    ....    DCD    1027
    .constdata
    g_AM_HAL_GPIO_OUTPUT_12
        0x0000e564:    00000703    ....    DCD    1795
    .constdata
    g_am_hal_mcuctrl_flash_size
        0x0000e568:    00004000    .@..    DCD    16384
        0x0000e56c:    00008000    ....    DCD    32768
        0x0000e570:    00010000    ....    DCD    65536
        0x0000e574:    00020000    ....    DCD    131072
        0x0000e578:    00040000    ....    DCD    262144
        0x0000e57c:    00080000    ....    DCD    524288
        0x0000e580:    00100000    ....    DCD    1048576
        0x0000e584:    00200000    .. .    DCD    2097152
        0x0000e588:    00180000    ....    DCD    1572864
        0x0000e58c:    00000000    ....    DCD    0
        0x0000e590:    00000000    ....    DCD    0
        0x0000e594:    00000000    ....    DCD    0
        0x0000e598:    00000000    ....    DCD    0
        0x0000e59c:    00000000    ....    DCD    0
        0x0000e5a0:    00000000    ....    DCD    0
        0x0000e5a4:    00000000    ....    DCD    0
    g_am_hal_mcuctrl_sram_size
        0x0000e5a8:    00004000    .@..    DCD    16384
        0x0000e5ac:    00008000    ....    DCD    32768
        0x0000e5b0:    00010000    ....    DCD    65536
        0x0000e5b4:    00020000    ....    DCD    131072
        0x0000e5b8:    00040000    ....    DCD    262144
        0x0000e5bc:    00080000    ....    DCD    524288
        0x0000e5c0:    00100000    ....    DCD    1048576
        0x0000e5c4:    00060000    ....    DCD    393216
        0x0000e5c8:    000c0000    ....    DCD    786432
        0x0000e5cc:    00000000    ....    DCD    0
        0x0000e5d0:    00000000    ....    DCD    0
        0x0000e5d4:    00000000    ....    DCD    0
        0x0000e5d8:    00000000    ....    DCD    0
        0x0000e5dc:    00000000    ....    DCD    0
        0x0000e5e0:    00000000    ....    DCD    0
        0x0000e5e4:    00000000    ....    DCD    0
    .constdata
    g_AM_BSP_GPIO_ITM_SWO
        0x0000e5e8:    00000002    ....    DCD    2
    .constdata
    am_hal_pwrctrl_peripheral_control
        0x0000e5ec:    00000000    ....    DCD    0
        0x0000e5f0:    00000000    ....    DCD    0
        0x0000e5f4:    00000000    ....    DCD    0
        0x0000e5f8:    00000001    ....    DCD    1
        0x0000e5fc:    00000004    ....    DCD    4
        0x0000e600:    00000004    ....    DCD    4
        0x0000e604:    00000002    ....    DCD    2
        0x0000e608:    00000008    ....    DCD    8
        0x0000e60c:    00000008    ....    DCD    8
        0x0000e610:    00000004    ....    DCD    4
        0x0000e614:    00000008    ....    DCD    8
        0x0000e618:    00000008    ....    DCD    8
        0x0000e61c:    00000008    ....    DCD    8
        0x0000e620:    00000008    ....    DCD    8
        0x0000e624:    00000008    ....    DCD    8
        0x0000e628:    00000010    ....    DCD    16
        0x0000e62c:    00000010    ....    DCD    16
        0x0000e630:    00000010    ....    DCD    16
        0x0000e634:    00000020     ...    DCD    32
        0x0000e638:    00000010    ....    DCD    16
        0x0000e63c:    00000010    ....    DCD    16
        0x0000e640:    00000040    @...    DCD    64
        0x0000e644:    00000010    ....    DCD    16
        0x0000e648:    00000010    ....    DCD    16
        0x0000e64c:    00000080    ....    DCD    128
        0x0000e650:    00000004    ....    DCD    4
        0x0000e654:    00000004    ....    DCD    4
        0x0000e658:    00000100    ....    DCD    256
        0x0000e65c:    00000004    ....    DCD    4
        0x0000e660:    00000004    ....    DCD    4
        0x0000e664:    00000200    ....    DCD    512
        0x0000e668:    00000020     ...    DCD    32
        0x0000e66c:    00000020     ...    DCD    32
        0x0000e670:    00000400    ....    DCD    1024
        0x0000e674:    00000004    ....    DCD    4
        0x0000e678:    00000004    ....    DCD    4
        0x0000e67c:    00000800    ....    DCD    2048
        0x0000e680:    00000040    @...    DCD    64
        0x0000e684:    00000040    @...    DCD    64
        0x0000e688:    00001000    ....    DCD    4096
        0x0000e68c:    00000080    ....    DCD    128
        0x0000e690:    00000080    ....    DCD    128
        0x0000e694:    00002000    . ..    DCD    8192
        0x0000e698:    00000100    ....    DCD    256
        0x0000e69c:    00000100    ....    DCD    256
    am_hal_pwrctrl_memory_control
        0x0000e6a0:    00000000    ....    DCD    0
        0x0000e6a4:    00000000    ....    DCD    0
        0x0000e6a8:    00000000    ....    DCD    0
        0x0000e6ac:    00000000    ....    DCD    0
        0x0000e6b0:    00000000    ....    DCD    0
        0x0000e6b4:    00000000    ....    DCD    0
        0x0000e6b8:    00000001    ....    DCD    1
        0x0000e6bc:    00000001    ....    DCD    1
        0x0000e6c0:    00000001    ....    DCD    1
        0x0000e6c4:    00001fff    ....    DCD    8191
        0x0000e6c8:    00001fff    ....    DCD    8191
        0x0000e6cc:    00000001    ....    DCD    1
        0x0000e6d0:    00000003    ....    DCD    3
        0x0000e6d4:    00000003    ....    DCD    3
        0x0000e6d8:    00000003    ....    DCD    3
        0x0000e6dc:    00001fff    ....    DCD    8191
        0x0000e6e0:    00001fff    ....    DCD    8191
        0x0000e6e4:    00000003    ....    DCD    3
        0x0000e6e8:    00000007    ....    DCD    7
        0x0000e6ec:    00000007    ....    DCD    7
        0x0000e6f0:    00000007    ....    DCD    7
        0x0000e6f4:    00001fff    ....    DCD    8191
        0x0000e6f8:    00001fff    ....    DCD    8191
        0x0000e6fc:    00000007    ....    DCD    7
        0x0000e700:    0000000f    ....    DCD    15
        0x0000e704:    0000000f    ....    DCD    15
        0x0000e708:    0000000f    ....    DCD    15
        0x0000e70c:    00001fff    ....    DCD    8191
        0x0000e710:    00001fff    ....    DCD    8191
        0x0000e714:    0000000f    ....    DCD    15
        0x0000e718:    0000001f    ....    DCD    31
        0x0000e71c:    0000001f    ....    DCD    31
        0x0000e720:    0000001f    ....    DCD    31
        0x0000e724:    00001fff    ....    DCD    8191
        0x0000e728:    00001fff    ....    DCD    8191
        0x0000e72c:    0000001f    ....    DCD    31
        0x0000e730:    0000003f    ?...    DCD    63
        0x0000e734:    0000003f    ?...    DCD    63
        0x0000e738:    0000003f    ?...    DCD    63
        0x0000e73c:    00001fff    ....    DCD    8191
        0x0000e740:    00001fff    ....    DCD    8191
        0x0000e744:    0000003f    ?...    DCD    63
        0x0000e748:    0000007f    ....    DCD    127
        0x0000e74c:    0000007f    ....    DCD    127
        0x0000e750:    0000007f    ....    DCD    127
        0x0000e754:    00001fff    ....    DCD    8191
        0x0000e758:    00001fff    ....    DCD    8191
        0x0000e75c:    0000007f    ....    DCD    127
        0x0000e760:    000000ff    ....    DCD    255
        0x0000e764:    000000ff    ....    DCD    255
        0x0000e768:    000000ff    ....    DCD    255
        0x0000e76c:    00001fff    ....    DCD    8191
        0x0000e770:    00001fff    ....    DCD    8191
        0x0000e774:    000000ff    ....    DCD    255
        0x0000e778:    000001ff    ....    DCD    511
        0x0000e77c:    000001ff    ....    DCD    511
        0x0000e780:    000001ff    ....    DCD    511
        0x0000e784:    00001fff    ....    DCD    8191
        0x0000e788:    00001fff    ....    DCD    8191
        0x0000e78c:    000001ff    ....    DCD    511
        0x0000e790:    000003ff    ....    DCD    1023
        0x0000e794:    000003ff    ....    DCD    1023
        0x0000e798:    000003ff    ....    DCD    1023
        0x0000e79c:    00001fff    ....    DCD    8191
        0x0000e7a0:    00001fff    ....    DCD    8191
        0x0000e7a4:    000003ff    ....    DCD    1023
        0x0000e7a8:    000007ff    ....    DCD    2047
        0x0000e7ac:    000007ff    ....    DCD    2047
        0x0000e7b0:    000007ff    ....    DCD    2047
        0x0000e7b4:    00001fff    ....    DCD    8191
        0x0000e7b8:    00001fff    ....    DCD    8191
        0x0000e7bc:    000007ff    ....    DCD    2047
        0x0000e7c0:    00000fff    ....    DCD    4095
        0x0000e7c4:    00000fff    ....    DCD    4095
        0x0000e7c8:    00000fff    ....    DCD    4095
        0x0000e7cc:    00001fff    ....    DCD    8191
        0x0000e7d0:    00001fff    ....    DCD    8191
        0x0000e7d4:    00000fff    ....    DCD    4095
        0x0000e7d8:    00001fff    ....    DCD    8191
        0x0000e7dc:    00001fff    ....    DCD    8191
        0x0000e7e0:    00001fff    ....    DCD    8191
        0x0000e7e4:    00001fff    ....    DCD    8191
        0x0000e7e8:    00001fff    ....    DCD    8191
        0x0000e7ec:    00001fff    ....    DCD    8191
        0x0000e7f0:    00002000    . ..    DCD    8192
        0x0000e7f4:    00002000    . ..    DCD    8192
        0x0000e7f8:    00002000    . ..    DCD    8192
        0x0000e7fc:    00006000    .`..    DCD    24576
        0x0000e800:    00006000    .`..    DCD    24576
        0x0000e804:    00002000    . ..    DCD    8192
        0x0000e808:    00006000    .`..    DCD    24576
        0x0000e80c:    00006000    .`..    DCD    24576
        0x0000e810:    00006000    .`..    DCD    24576
        0x0000e814:    00006000    .`..    DCD    24576
        0x0000e818:    00006000    .`..    DCD    24576
        0x0000e81c:    00006000    .`..    DCD    24576
        0x0000e820:    c0000000    ....    DCD    3221225472
        0x0000e824:    00000000    ....    DCD    0
        0x0000e828:    c0000000    ....    DCD    3221225472
        0x0000e82c:    c0000000    ....    DCD    3221225472
        0x0000e830:    00000000    ....    DCD    0
        0x0000e834:    80000000    ....    DCD    2147483648
        0x0000e838:    c0007fff    ....    DCD    3221258239
        0x0000e83c:    00007fff    ....    DCD    32767
        0x0000e840:    c0007fff    ....    DCD    3221258239
        0x0000e844:    c0007fff    ....    DCD    3221258239
        0x0000e848:    00007fff    ....    DCD    32767
        0x0000e84c:    80007fff    ....    DCD    2147516415
    .conststring
        0x0000e850:    4e202d20     - N    DCD    1310731552
        0x0000e854:    2065746f    ote     DCD    543519855
        0x0000e858:    74616874    that    DCD    1952540788
        0x0000e85c:    44454c20     LED    DCD    1145392160
        0x0000e860:    6e612031    1 an    DCD    1851858993
        0x0000e864:    454c2064    d LE    DCD    1162616932
        0x0000e868:    6f203344    D3 o    DCD    1864381252
        0x0000e86c:    68742066    f th    DCD    1752440934
        0x0000e870:    56452065    e EV    DCD    1447370853
        0x0000e874:    72612042    B ar    DCD    1918967874
        0x0000e878:    6f6c2065    e lo    DCD    1869357157
        0x0000e87c:    65746163    cate    DCD    1702125923
        0x0000e880:    6e6f2064    d on    DCD    1852776548
        0x0000e884:    65687420     the    DCD    1701344288
        0x0000e888:    6d617320     sam    DCD    1835103008
        0x0000e88c:    61462065    e Fa    DCD    1631985765
        0x0000e890:    47207473    st G    DCD    1193309299
        0x0000e894:    204f4950    PIO     DCD    542067024
        0x0000e898:    20776f72    row     DCD    544698226
        0x0000e89c:    20642528    (%d     DCD    543434024
        0x0000e8a0:    20646e61    and     DCD    543452769
        0x0000e8a4:    2e296425    %d).    DCD    774464549
        0x0000e8a8:    0000000a    ....    DCD    10
        0x0000e8ac:    73202020       s    DCD    1931485216
        0x0000e8b0:    65757165    eque    DCD    1702195557
        0x0000e8b4:    2e65636e    nce.    DCD    778396526
        0x0000e8b8:    65685420     The    DCD    1701336096
        0x0000e8bc:    7469206e    n it    DCD    1953046638
        0x0000e8c0:    20736920     is     DCD    544434464
        0x0000e8c4:    62616e65    enab    DCD    1650552421
        0x0000e8c8:    2064656c    led     DCD    543450476
        0x0000e8cc:    69727564    duri    DCD    1769108836
        0x0000e8d0:    7420676e    ng t    DCD    1948280686
        0x0000e8d4:    61206568    he a    DCD    1629513064
        0x0000e8d8:    622d6c6c    ll-b    DCD    1647144044
        0x0000e8dc:    6b6e696c    link    DCD    1802398060
        0x0000e8e0:    646e6120     and    DCD    1684955424
        0x0000e8e4:    696c6220     bli    DCD    1768710688
        0x0000e8e8:    20736b6e    nks     DCD    544435054
        0x0000e8ec:    6e6f6c61    alon    DCD    1852796001
        0x0000e8f0:    69772067    g wi    DCD    1769414759
        0x0000e8f4:    4c206874    th L    DCD    1277192308
        0x0000e8f8:    2e314445    ED1.    DCD    774980677
        0x0000e8fc:    0000000a    ....    DCD    10
        0x0000e900:    41202d20     - A    DCD    1092627744
        0x0000e904:    327e206e    n ~2    DCD    847126638
        0x0000e908:    7a484d34    4MHz    DCD    2051558708
        0x0000e90c:    76617720     wav    DCD    1986098976
        0x0000e910:    726f6665    efor    DCD    1919903333
        0x0000e914:    6128206d    m (a    DCD    1630019693
        0x0000e918:    72657466    fter    DCD    1919251558
        0x0000e91c:    736e6920     ins    DCD    1936615712
        0x0000e920:    63757274    truc    DCD    1668641396
        0x0000e924:    6e6f6974    tion    DCD    1852795252
        0x0000e928:    61682073    s ha    DCD    1634214003
        0x0000e92c:    63206576    ve c    DCD    1663067510
        0x0000e930:    65686361    ache    DCD    1701340001
        0x0000e934:    69202964    d) i    DCD    1763715428
        0x0000e938:    756f2073    s ou    DCD    1970217075
        0x0000e93c:    74757074    tput    DCD    1953853556
        0x0000e940:    206e6f20     on     DCD    544108320
        0x0000e944:    206e6950    Pin     DCD    544106832
        0x0000e948:    0a2e6425    %d..    DCD    170812453
        0x0000e94c:    00000000    ....    DCD    0
        0x0000e950:    42202020       B    DCD    1109401632
        0x0000e954:    75616365    ecau    DCD    1969316709
        0x0000e958:    6f206573    se o    DCD    1864394099
        0x0000e95c:    68742066    f th    DCD    1752440934
        0x0000e960:    202c7461    at,     DCD    539784289
        0x0000e964:    3344454c    LED3    DCD    860112204
        0x0000e968:    20736920     is     DCD    544434464
        0x0000e96c:    61736964    disa    DCD    1634953572
        0x0000e970:    64656c62    bled    DCD    1684368482
        0x0000e974:    72756420     dur    DCD    1920295968
        0x0000e978:    20676e69    ing     DCD    543649385
        0x0000e97c:    20656874    the     DCD    543516788
        0x0000e980:    6b6c6177    walk    DCD    1802264951
        0x0000e984:    71657320     seq    DCD    1902474016
        0x0000e988:    636e6575    uenc    DCD    1668179317
        0x0000e98c:    6e612065    e an    DCD    1851859045
        0x0000e990:    73692064    d is    DCD    1936269412
        0x0000e994:    75687420     thu    DCD    1969779744
        0x0000e998:    6b732073    s sk    DCD    1802707059
        0x0000e99c:    65707069    ippe    DCD    1701867625
        0x0000e9a0:    6e692064    d in    DCD    1852383332
        0x0000e9a4:    65687420     the    DCD    1701344288
        0x0000e9a8:    0000000a    ....    DCD    10
    Region$$Table$$Base
        0x0000e9ac:    0000e9cc    ....    DCD    59852
        0x0000e9b0:    10000000    ....    DCD    268435456
        0x0000e9b4:    00000078    x...    DCD    120
        0x0000e9b8:    0000c174    t...    DCD    49524
        0x0000e9bc:    0000ea44    D...    DCD    59972
        0x0000e9c0:    10000078    x...    DCD    268435576
        0x0000e9c4:    00001960    `...    DCD    6496
        0x0000e9c8:    0000c190    ....    DCD    49552
    Region$$Table$$Limit

** Section #2 'SRAM' (SHT_PROGBITS) [SHF_ALLOC + SHF_WRITE]
    Size   : 120 bytes (alignment 4)
    Address: 0x10000000

    0x10000000:   0a 00 00 00 1e 00 00 00 0f 00 00 00 11 00 00 00    ................
    0x10000010:   00 00 00 00 00 00 00 00 00 00 00 00 00 00 00 00    ................
    0x10000020:   00 00 00 00 0a 00 00 00 03 00 00 00 1e 00 00 00    ................
    0x10000030:   03 00 00 00 0f 00 00 00 03 00 00 00 0e 00 00 00    ................
    0x10000040:   03 00 00 00 11 00 00 00 03 00 00 00 00 c2 01 00    ................
    0x10000050:   60 00 00 00 00 00 00 00 00 00 00 00 00 00 00 00    `...............
    0x10000060:   12 00 00 00 78 11 00 10 00 04 00 00 78 15 00 10    ....x.......x...
    0x10000070:   00 04 00 00 00 00 00 00                            ........


** Section #3 'SRAM' (SHT_NOBITS) [SHF_ALLOC + SHF_WRITE]
    Size   : 6496 bytes (alignment 8)
    Address: 0x10000078


** Section #4 '.debug_abbrev' (SHT_PROGBITS)
    Size   : 1476 bytes


** Section #5 '.debug_frame' (SHT_PROGBITS)
    Size   : 2684 bytes


** Section #6 '.debug_info' (SHT_PROGBITS)
    Size   : 13336 bytes


** Section #7 '.debug_line' (SHT_PROGBITS)
    Size   : 4892 bytes


** Section #8 '.debug_loc' (SHT_PROGBITS)
    Size   : 2876 bytes


** Section #9 '.debug_macinfo' (SHT_PROGBITS)
    Size   : 5360 bytes


** Section #10 '.debug_pubnames' (SHT_PROGBITS)
    Size   : 342 bytes


** Section #11 '.symtab' (SHT_SYMTAB)
    Size   : 8032 bytes (alignment 4)
    String table #12 '.strtab'
    Last local symbol no. 325

    Symbol table .symtab (501 symbols, 325 local)

      #  Symbol Name                Value      Bind  Sec  Type  Vis  Size
    ========================================================================

      1  $d                         0x0000c000   Lc    1   --   De 
      2  $t                         0x0000c100   Lc    1   --   De 
      3  $d                         0x0000c132   Lc    1   --   De 
      4  $t                         0x0000c138   Lc    1   --   De 
      5  $d                         0x0000c16c   Lc    1   --   De 
      6  $t                         0x0000c174   Lc    1   --   De 
      7  $d                         0x0000c21e   Lc    1   --   De 
      8  $t                         0x0000c22c   Lc    1   --   De 
      9  $d                         0x0000c2f8   Lc    1   --   De 
     10  $t                         0x0000c2fc   Lc    1   --   De 
     11  $d                         0x0000c304   Lc    1   --   De 
     12  $t                         0x0000c308   Lc    1   --   De 
     13  $d                         0x0000c364   Lc    1   --   De 
     14  $t                         0x0000c36c   Lc    1   --   De 
     15  $d                         0x0000c398   Lc    1   --   De 
     16  $t                         0x0000c3a8   Lc    1   --   De 
     17  $d                         0x0000c3e2   Lc    1   --   De 
     18  $t                         0x0000c3ec   Lc    1   --   De 
     19  $d                         0x0000c432   Lc    1   --   De 
     20  $t                         0x0000c438   Lc    1   --   De 
     21  $d                         0x0000c444   Lc    1   --   De 
     22  $t                         0x0000c456   Lc    1   --   De 
     23  $d                         0x0000c6fe   Lc    1   --   De 
     24  $t                         0x0000c708   Lc    1   --   De 
     25  $d                         0x0000c716   Lc    1   --   De 
     26  $t                         0x0000c71c   Lc    1   --   De 
     27  $d                         0x0000c734   Lc    1   --   De 
     28  $t                         0x0000c73e   Lc    1   --   De 
     29  $d                         0x0000c808   Lc    1   --   De 
     30  $t                         0x0000c818   Lc    1   --   De 
     31  $d                         0x0000c844   Lc    1   --   De 
     32  $t                         0x0000c84c   Lc    1   --   De 
     33  $d                         0x0000c86a   Lc    1   --   De 
     34  $t                         0x0000c870   Lc    1   --   De 
     35  $d                         0x0000c8c6   Lc    1   --   De 
     36  $t                         0x0000c8cc   Lc    1   --   De 
     37  $d                         0x0000c8d0   Lc    1   --   De 
     38  $t                         0x0000c8d4   Lc    1   --   De 
     39  $d                         0x0000c8f8   Lc    1   --   De 
     40  $t                         0x0000c8fc   Lc    1   --   De 
     41  $d                         0x0000cc16   Lc    1   --   De 
     42  $t                         0x0000cc4c   Lc    1   --   De 
     43  $d                         0x0000cc8a   Lc    1   --   De 
     44  $t                         0x0000cc90   Lc    1   --   De 
     45  $d                         0x0000cd54   Lc    1   --   De 
     46  $t                         0x0000cd78   Lc    1   --   De 
     47  $d                         0x0000cda4   Lc    1   --   De 
     48  $t                         0x0000cdc0   Lc    1   --   De 
     49  $d                         0x0000cf06   Lc    1   --   De 
     50  $t                         0x0000cf28   Lc    1   --   De 
     51  $d                         0x0000d0aa   Lc    1   --   De 
     52  $t                         0x0000d0c4   Lc    1   --   De 
     53  $d                         0x0000d10a   Lc    1   --   De 
     54  $t                         0x0000d114   Lc    1   --   De 
     55  $d                         0x0000d15c   Lc    1   --   De 
     56  $t                         0x0000d164   Lc    1   --   De 
     57  $d                         0x0000d1f2   Lc    1   --   De 
     58  $t                         0x0000d208   Lc    1   --   De 
     59  $d                         0x0000d232   Lc    1   --   De 
     60  $t                         0x0000d238   Lc    1   --   De 
     61  $d                         0x0000d320   Lc    1   --   De 
     62  $t                         0x0000d324   Lc    1   --   De 
     63  $d                         0x0000d37c   Lc    1   --   De 
     64  $t                         0x0000d380   Lc    1   --   De 
     65  $d                         0x0000d44a   Lc    1   --   De 
     66  $t                         0x0000d454   Lc    1   --   De 
     67  $d                         0x0000d480   Lc    1   --   De 
     68  $t                         0x0000d488   Lc    1   --   De 
     69  $d                         0x0000d48e   Lc    1   --   De 
     70  $t                         0x0000d494   Lc    1   --   De 
     71  $d                         0x0000d4b4   Lc    1   --   De 
     72  $t                         0x0000d4d0   Lc    1   --   De 
     73  $d                         0x0000d8f0   Lc    1   --   De 
     74  $t                         0x0000d8f4   Lc    1   --   De 
     75  $d                         0x0000dc04   Lc    1   --   De 
     76  $t                         0x0000dc10   Lc    1   --   De 
     77  $d                         0x0000de76   Lc    1   --   De 
     78  $t                         0x0000dfc4   Lc    1   --   De 
     79  $d                         0x0000e200   Lc    1   --   De 
     80  $t                         0x0000e204   Lc    1   --   De 
     81  $d                         0x0000e282   Lc    1   --   De 
     82  $t                         0x0000e286   Lc    1   --   De 
     83  $d.realdata                0x0000e2c4   Lc    1   --   De 
     84  $d.realdata                0x10000000   Lc    2   --   De 
     85  ..\src\fast_gpio.c         0x00000000   Lc  Abs  File  De 
     86  ../src/fast_gpio.c         0x00000000   Lc  Abs  File  De 
     87  i.main                     0x0000dc10   Lc    1  Sect  De 
     88  .constdata                 0x0000e2c4   Lc    1  Sect  De   0x128
     89  .conststring               0x0000e850   Lc    1  Sect  De   0x15a
     90  .data                      0x10000000   Lc    2  Sect  De   0x10
     91  g_ui32LEDs                 0x10000000   Lc    2  Data  De   0x10
     92  ..\..\..\..\..\devices\am_devices_led.c
                                    0x00000000   Lc  Abs  File  De 
     93  ../../../../../devices/am_devices_led.c
                                    0x00000000   Lc  Abs  File  De 
     94  ..\..\..\..\..\utils\am_util_delay.c
                                    0x00000000   Lc  Abs  File  De 
     95  ../../../../../utils/am_util_delay.c
                                    0x00000000   Lc  Abs  File  De 
     96  i.am_util_delay_ms         0x0000d380   Lc    1  Sect  De 
     97  ..\..\..\..\..\utils\am_util_faultisr.c
                                    0x00000000   Lc  Abs  File  De 
     98  .emb_text                  0x0000c1d8   Lc    1  Sect  De   0x22
     99  $v0                        0x0000c1d8   Lc    1   --   De 
    100  ../../../../../utils/am_util_faultisr.c
                                    0x00000000   Lc  Abs  File  De 
    101  i.am_util_faultisr_collect_data
                                    0x0000d3a0   Lc    1  Sect  De 
    102  ../../../../../utils/am_util_stdio.c
                                    0x00000000   Lc  Abs  File  De 
    103  i.am_util_stdio_printf     0x0000d454   Lc    1  Sect  De 
    104  i.am_util_stdio_printf_init
                                    0x0000d488   Lc    1  Sect  De 
    105  i.am_util_stdio_terminal_clear
                                    0x0000d494   Lc    1  Sect  De 
    106  i.am_util_stdio_vsprintf   0x0000d4d0   Lc    1  Sect  De 
    107  i.ndigits_in_u64           0x0000dfc4   Lc    1  Sect  De 
    108  ndigits_in_u64             0x0000dfc5   Lc    1  Code  De   0xc6
    109  i.uint64_to_str            0x0000e08a   Lc    1  Sect  De 
    110  uint64_to_str              0x0000e08b   Lc    1  Code  De   0x126
    111  .bss                       0x10001078   Lc    3  Sect  De   0x100
    112  g_prfbuf                   0x10001078   Lc    3  Data  De   0x100
    113  .data                      0x10000010   Lc    2  Sect  De   0x8
    114  g_bTxtXlate                0x10000010   Lc    2  Data  De   0x1
    115  ../keil/startup_keil.s     0x00000000   Lc  Abs  File  De 
    116  STACK                      0x10000078   Lc    3  Sect  De   0x1000
    117  StackMem                   0x10000078   Lc    3  Data  De 
    118  HEAP                       0x100019d8   Lc    3  Sect  De 
    119  HeapMem                    0x100019d8   Lc    3  Data  De 
    120  RESET                      0x0000c000   Lc    1  Sect  De   0x138
    121  $v0                        0x0000c100   Lc    1   --   De 
    122  .text                      0x0000c214   Lc    1  Sect  De   0x18
    123  $v0                        0x0000c214   Lc    1   --   De 
    124  ..\am_hal_global.c         0x00000000   Lc  Abs  File  De 
    125  ../am_hal_global.c         0x00000000   Lc  Abs  File  De 
    126  .data                      0x10000018   Lc    2  Sect  De   0x4
    127  ..\am_bsp.c                0x00000000   Lc  Abs  File  De 
    128  ../am_bsp.c                0x00000000   Lc  Abs  File  De 
    129  i.am_bsp_debug_printf_disable
                                    0x0000c30c   Lc    1  Sect  De 
    130  i.am_bsp_itm_printf_enable 0x0000c36c   Lc    1  Sect  De 
    131  i.am_bsp_low_power_init    0x0000c3a8   Lc    1  Sect  De 
    132  .bss                       0x10001178   Lc    3  Sect  De   0x400
    133  pui8UartTxBuffer           0x10001178   Lc    3  Data  De   0x400
    134  .bss                       0x10001578   Lc    3  Sect  De   0x400
    135  pui8UartRxBuffer           0x10001578   Lc    3  Data  De   0x400
    136  .data                      0x1000001c   Lc    2  Sect  De   0x58
    137  g_ui32PrintInterface       0x1000001c   Lc    2  Data  De   0x4
    138  g_sCOMUART                 0x10000020   Lc    2  Data  De   0x4
    139  g_sBspUartBufferedConfig   0x1000004c   Lc    2  Data  De   0x28
    140  ..\am_hal_cachectrl.c      0x00000000   Lc  Abs  File  De 
    141  ../am_hal_cachectrl.c      0x00000000   Lc  Abs  File  De 
    142  i.am_hal_cachectrl_config  0x0000c3ec   Lc    1  Sect  De 
    143  i.am_hal_cachectrl_control 0x0000c438   Lc    1  Sect  De 
    144  i.am_hal_cachectrl_enable  0x0000c708   Lc    1  Sect  De 
    145  .constdata                 0x0000e3ec   Lc    1  Sect  De   0x3
    146  ..\am_hal_clkgen.c         0x00000000   Lc  Abs  File  De 
    147  ../am_hal_clkgen.c         0x00000000   Lc  Abs  File  De 
    148  i.am_hal_clkgen_control    0x0000c71c   Lc    1  Sect  De 
    149  i.am_hal_clkgen_status_get 0x0000c818   Lc    1  Sect  De 
    150  ..\am_hal_flash.c          0x00000000   Lc  Abs  File  De 
    151  ../am_hal_flash.c          0x00000000   Lc  Abs  File  De 
    152  i.am_hal_flash_delay       0x0000c84c   Lc    1  Sect  De 
    153  i.am_hal_flash_delay_status_check
                                    0x0000c870   Lc    1  Sect  De 
    154  i.am_hal_flash_load_ui32   0x0000c8cc   Lc    1  Sect  De 
    155  i.am_hal_flash_store_ui32  0x0000c8d4   Lc    1  Sect  De 
    156  .constdata                 0x0000e3f0   Lc    1  Sect  De   0xc
    157  ..\am_hal_gpio.c           0x00000000   Lc  Abs  File  De 
    158  ../am_hal_gpio.c           0x00000000   Lc  Abs  File  De 
    159  i.am_hal_gpio_fast_pinconfig
                                    0x0000c8fc   Lc    1  Sect  De 
    160  i.am_hal_gpio_pinconfig    0x0000c9cc   Lc    1  Sect  De 
    161  i.am_hal_gpio_state_write  0x0000cc4c   Lc    1  Sect  De 
    162  .constdata                 0x0000e3fc   Lc    1  Sect  De   0x162
    163  g_ui8Inpen                 0x0000e400   Lc    1  Data  De   0x32
    164  g_ui8Bit76Capabilities     0x0000e432   Lc    1  Data  De   0x32
    165  g_ui8nCEpins               0x0000e464   Lc    1  Data  De   0x32
    166  g_ui8NCEtable              0x0000e496   Lc    1  Data  De   0xc8
    167  .constdata                 0x0000e560   Lc    1  Sect  De   0x4
    168  .constdata                 0x0000e564   Lc    1  Sect  De   0x4
    169  ..\am_hal_mcuctrl.c        0x00000000   Lc  Abs  File  De 
    170  ../am_hal_mcuctrl.c        0x00000000   Lc  Abs  File  De 
    171  i.am_hal_mcuctrl_info_get  0x0000cdf0   Lc    1  Sect  De 
    172  .constdata                 0x0000e568   Lc    1  Sect  De   0x80
    173  ..\am_bsp_pins.c           0x00000000   Lc  Abs  File  De 
    174  ../am_bsp_pins.c           0x00000000   Lc  Abs  File  De 
    175  .constdata                 0x0000e5e8   Lc    1  Sect  De   0x4
    176  ..\am_hal_interrupt.c      0x00000000   Lc  Abs  File  De 
    177  .emb_text                  0x0000c1fc   Lc    1  Sect  De   0x16
    178  $v0                        0x0000c1fc   Lc    1   --   De 
    179  ../am_hal_interrupt.c      0x00000000   Lc  Abs  File  De 
    180  ..\am_hal_itm.c            0x00000000   Lc  Abs  File  De 
    181  ../am_hal_itm.c            0x00000000   Lc  Abs  File  De 
    182  i.am_hal_itm_disable       0x0000cccc   Lc    1  Sect  De 
    183  i.am_hal_itm_enable        0x0000cd78   Lc    1  Sect  De 
    184  i.am_hal_itm_print         0x0000cdc0   Lc    1  Sect  De 
    185  ..\am_hal_pwrctrl.c        0x00000000   Lc  Abs  File  De 
    186  ../am_hal_pwrctrl.c        0x00000000   Lc  Abs  File  De 
    187  i.am_hal_pwrctrl_low_power_init
                                    0x0000cf28   Lc    1  Sect  De 
    188  i.am_hal_pwrctrl_periph_disable
                                    0x0000d0c4   Lc    1  Sect  De 
    189  i.am_hal_pwrctrl_periph_enable
                                    0x0000d114   Lc    1  Sect  De 
    190  .constdata                 0x0000e5ec   Lc    1  Sect  De   0x264
    191  ..\am_hal_reset.c          0x00000000   Lc  Abs  File  De 
    192  ../am_hal_reset.c          0x00000000   Lc  Abs  File  De 
    193  .data                      0x10000074   Lc    2  Sect  De   0x4
    194  ..\am_hal_rtc.c            0x00000000   Lc  Abs  File  De 
    195  ../am_hal_rtc.c            0x00000000   Lc  Abs  File  De 
    196  i.am_hal_rtc_osc_disable   0x0000d164   Lc    1  Sect  De 
    197  ..\am_hal_tpiu.c           0x00000000   Lc  Abs  File  De 
    198  ../am_hal_tpiu.c           0x00000000   Lc  Abs  File  De 
    199  i.am_hal_tpiu_enable       0x0000d178   Lc    1  Sect  De 
    200  ..\am_hal_uart.c           0x00000000   Lc  Abs  File  De 
    201  ../am_hal_uart.c           0x00000000   Lc  Abs  File  De 
    202  i.am_hal_uart_deinitialize 0x0000d208   Lc    1  Sect  De 
    203  i.am_hal_uart_power_control
                                    0x0000d238   Lc    1  Sect  De 
    204  i.am_hal_uart_tx_flush     0x0000d324   Lc    1  Sect  De 
    205  ..\am_hal_queue.c          0x00000000   Lc  Abs  File  De 
    206  ../am_hal_queue.c          0x00000000   Lc  Abs  File  De 
    207  dc.s                       0x00000000   Lc  Abs  File  De 
    208  ../clib/longlong.s         0x00000000   Lc  Abs  File  De 
    209  ../clib/longlong.s         0x00000000   Lc  Abs  File  De 
    210  ../clib/memcpset.s         0x00000000   Lc  Abs  File  De 
    211  .text                      0x0000c22c   Lc    1  Sect  De   0x64
    212  ../clib/heapaux.c          0x00000000   Lc  Abs  File  De 
    213  .text                      0x0000c290   Lc    1  Sect  De 
    214  ../clib/angel/startup.s    0x00000000   Lc  Abs  File  De 
    215  !!!main                    0x0000c138   Lc    1  Sect  De   0x8
    216  ../fplib/d2f.s             0x00000000   Lc  Abs  File  De 
    217  x$fpl$d2f                  0x0000e1b0   Lc    1  Sect  De   0x62
    218  $v0                        0x0000e1b0   Lc    1   --   De 
    219  ../clib/angel/kernel.s     0x00000000   Lc  Abs  File  De 
    220  .ARM.Collect$$rtentry$$00000000
                                    0x0000c1b8   Lc    1  Sect  De 
    221  ../fplib/dnaninf.s         0x00000000   Lc  Abs  File  De 
    222  x$fpl$dnaninf              0x0000e212   Lc    1  Sect  De   0x9c
    223  $v0                        0x0000e212   Lc    1   --   De 
    224  ../fplib/fretinf.s         0x00000000   Lc  Abs  File  De 
    225  x$fpl$fretinf              0x0000e2b8   Lc    1  Sect  De   0xa
    226  $v0                        0x0000e2b8   Lc    1   --   De 
    227  ../fplib/usenofp.s         0x00000000   Lc  Abs  File  De 
    228  x$fpl$usenofp              0x0000e2c2   Lc    1  Sect  De 
    229  ../clib/angel/kernel.s     0x00000000   Lc  Abs  File  De 
    230  .ARM.Collect$$rtentry$$00000002
                                    0x0000c1b8   Lc    1  Sect  De 
    231  .ARM.Collect$$rtentry$$00000009
                                    0x0000c1be   Lc    1  Sect  De 
    232  .ARM.Collect$$rtentry$$0000000A
                                    0x0000c1be   Lc    1  Sect  De   0x4
    233  .ARM.Collect$$rtentry$$0000000C
                                    0x0000c1c2   Lc    1  Sect  De 
    234  .ARM.Collect$$rtentry$$0000000D
                                    0x0000c1c2   Lc    1  Sect  De   0x8
    235  ../clib/angel/kernel.s     0x00000000   Lc  Abs  File  De 
    236  .ARM.Collect$$rtentry$$00000004
                                    0x0000c1b8   Lc    1  Sect  De   0x6
    237  ../clib/angel/sys.s        0x00000000   Lc  Abs  File  De 
    238  .text                      0x0000c296   Lc    1  Sect  De   0x4a
    239  ../clib/stdlib.c           0x00000000   Lc  Abs  File  De 
    240  .text                      0x0000c2e0   Lc    1  Sect  De 
    241  ../clib/angel/boardlib.s   0x00000000   Lc  Abs  File  De 
    242  ../clib/angel/boardlib.s   0x00000000   Lc  Abs  File  De 
    243  ../clib/angel/boardlib.s   0x00000000   Lc  Abs  File  De 
    244  ../clib/libinit.s          0x00000000   Lc  Abs  File  De 
    245  .ARM.Collect$$libinit$$00000000
                                    0x0000c1ac   Lc    1  Sect  De   0x2
    246  ../clib/angel/sys.s        0x00000000   Lc  Abs  File  De 
    247  .text                      0x0000c2f4   Lc    1  Sect  De   0x8
    248  .bss                       0x10001978   Lc    3  Sect  De   0x60
    249  ../clib/angel/kernel.s     0x00000000   Lc  Abs  File  De 
    250  .ARM.Collect$$rtexit$$00000000
                                    0x0000c1ca   Lc    1  Sect  De   0x2
    251  ../clib/libinit.s          0x00000000   Lc  Abs  File  De 
    252  .ARM.Collect$$libinit$$00000001
                                    0x0000c1ae   Lc    1  Sect  De   0x4
    253  .ARM.Collect$$libinit$$00000004
                                    0x0000c1b2   Lc    1  Sect  De 
    254  .ARM.Collect$$libinit$$0000000A
                                    0x0000c1b2   Lc    1  Sect  De 
    255  .ARM.Collect$$libinit$$0000000C
                                    0x0000c1b2   Lc    1  Sect  De 
    256  .ARM.Collect$$libinit$$0000000E
                                    0x0000c1b2   Lc    1  Sect  De 
    257  .ARM.Collect$$libinit$$00000011
                                    0x0000c1b2   Lc    1  Sect  De 
    258  .ARM.Collect$$libinit$$00000013
                                    0x0000c1b2   Lc    1  Sect  De 
    259  .ARM.Collect$$libinit$$00000015
                                    0x0000c1b2   Lc    1  Sect  De 
    260  .ARM.Collect$$libinit$$00000017
                                    0x0000c1b2   Lc    1  Sect  De 
    261  .ARM.Collect$$libinit$$00000019
                                    0x0000c1b2   Lc    1  Sect  De 
    262  .ARM.Collect$$libinit$$0000001B
                                    0x0000c1b2   Lc    1  Sect  De 
    263  .ARM.Collect$$libinit$$0000001D
                                    0x0000c1b2   Lc    1  Sect  De 
    264  .ARM.Collect$$libinit$$0000001F
                                    0x0000c1b2   Lc    1  Sect  De 
    265  .ARM.Collect$$libinit$$00000021
                                    0x0000c1b2   Lc    1  Sect  De 
    266  .ARM.Collect$$libinit$$00000023
                                    0x0000c1b2   Lc    1  Sect  De 
    267  .ARM.Collect$$libinit$$00000025
                                    0x0000c1b2   Lc    1  Sect  De 
    268  .ARM.Collect$$libinit$$0000002C
                                    0x0000c1b2   Lc    1  Sect  De 
    269  .ARM.Collect$$libinit$$0000002E
                                    0x0000c1b2   Lc    1  Sect  De 
    270  .ARM.Collect$$libinit$$00000030
                                    0x0000c1b2   Lc    1  Sect  De 
    271  .ARM.Collect$$libinit$$00000032
                                    0x0000c1b2   Lc    1  Sect  De 
    272  .ARM.Collect$$libinit$$00000033
                                    0x0000c1b2   Lc    1  Sect  De   0x2
    273  ../clib/angel/kernel.s     0x00000000   Lc  Abs  File  De 
    274  .ARM.Collect$$rtexit$$00000002
                                    0x0000c1cc   Lc    1  Sect  De 
    275  .ARM.Collect$$rtexit$$00000003
                                    0x0000c1cc   Lc    1  Sect  De   0x4
    276  .ARM.Collect$$rtexit$$00000004
                                    0x0000c1d0   Lc    1  Sect  De   0x6
    277  ../clib/armsys.c           0x00000000   Lc  Abs  File  De 
    278  ../clib/armsys.c           0x00000000   Lc  Abs  File  De 
    279  ../fplib/fpinit.s          0x00000000   Lc  Abs  File  De 
    280  x$fpl$fpinit               0x0000e2ae   Lc    1  Sect  De   0xa
    281  $v0                        0x0000e2ae   Lc    1   --   De 
    282  ../clib/angel/sysapp.c     0x00000000   Lc  Abs  File  De 
    283  .text                      0x0000c2fc   Lc    1  Sect  De 
    284  ../clib/angel/boardlib.s   0x00000000   Lc  Abs  File  De 
    285  ../clib/armsys.c           0x00000000   Lc  Abs  File  De 
    286  ../clib/armsys.c           0x00000000   Lc  Abs  File  De 
    287  ../clib/libinit.s          0x00000000   Lc  Abs  File  De 
    288  .ARM.Collect$$libshutdown$$00000000
                                    0x0000c1b4   Lc    1  Sect  De   0x2
    289  ../clib/angel/sysapp.c     0x00000000   Lc  Abs  File  De 
    290  ../clib/angel/sys.s        0x00000000   Lc  Abs  File  De 
    291  .text                      0x0000c308   Lc    1  Sect  De   0x2
    292  ../clib/angel/sys.s        0x00000000   Lc  Abs  File  De 
    293  .text                      0x0000c30a   Lc    1  Sect  De 
    294  ../clib/heapalloc.c        0x00000000   Lc  Abs  File  De 
    295  ../clib/signal.c           0x00000000   Lc  Abs  File  De 
    296  ../clib/signal.c           0x00000000   Lc  Abs  File  De 
    297  ../clib/libinit.s          0x00000000   Lc  Abs  File  De 
    298  .ARM.Collect$$libshutdown$$00000002
                                    0x0000c1b6   Lc    1  Sect  De 
    299  .ARM.Collect$$libshutdown$$00000004
                                    0x0000c1b6   Lc    1  Sect  De 
    300  .ARM.Collect$$libshutdown$$00000007
                                    0x0000c1b6   Lc    1  Sect  De 
    301  .ARM.Collect$$libshutdown$$0000000A
                                    0x0000c1b6   Lc    1  Sect  De 
    302  .ARM.Collect$$libshutdown$$0000000C
                                    0x0000c1b6   Lc    1  Sect  De 
    303  .ARM.Collect$$libshutdown$$0000000F
                                    0x0000c1b6   Lc    1  Sect  De 
    304  .ARM.Collect$$libshutdown$$00000010
                                    0x0000c1b6   Lc    1  Sect  De   0x2
    305  ../clib/angel/rt.s         0x00000000   Lc  Abs  File  De 
    306  ../clib/signal.c           0x00000000   Lc  Abs  File  De 
    307  ../clib/signal.c           0x00000000   Lc  Abs  File  De 
    308  ../clib/signal.c           0x00000000   Lc  Abs  File  De 
    309  ../clib/signal.c           0x00000000   Lc  Abs  File  De 
    310  ../clib/angel/sysapp.c     0x00000000   Lc  Abs  File  De 
    311  ../clib/signal.s           0x00000000   Lc  Abs  File  De 
    312  ../clib/signal.c           0x00000000   Lc  Abs  File  De 
    313  ../clib/signal.c           0x00000000   Lc  Abs  File  De 
    314  ../clib/signal.c           0x00000000   Lc  Abs  File  De 
    315  ../clib/signal.c           0x00000000   Lc  Abs  File  De 
    316  ../clib/signal.c           0x00000000   Lc  Abs  File  De 
    317  ../clib/signal.c           0x00000000   Lc  Abs  File  De 
    318  ../clib/signal.c           0x00000000   Lc  Abs  File  De 
    319  ../clib/signal.c           0x00000000   Lc  Abs  File  De 
    320  ../clib/angel/scatter.s    0x00000000   Lc  Abs  File  De 
    321  !!!scatter                 0x0000c140   Lc    1  Sect  De   0x34
    322  ../clib/angel/handlers.s   0x00000000   Lc  Abs  File  De 
    323  !!handler_copy             0x0000c174   Lc    1  Sect  De   0x1a
    324  ../clib/angel/handlers.s   0x00000000   Lc  Abs  File  De 
    325  !!handler_zi               0x0000c190   Lc    1  Sect  De   0x1c
    326  BuildAttributes$$THM_ISAv4$E$P$D$K$B$S$7EM$VFPi3$EXTD16$VFPS$VFMA$PE$A:L22UL41UL21$X:L11$S22US41US21$IEEE1$IW$USESV6$~STKCKD$USESV7$~SHL$OTIME$ROPI$EBA8$UX$STANDARDLIB$REQ8$PRES8$EABIv2
                                    0x00000000   Gb  Abs   --   Hi 
    327  __ARM_use_no_argv          0x00000000   Gb  Abs   --   Hi 
    328  __Vectors                  0x0000c000   Gb    1  Data  Hi 
    329  __Patchable                0x0000c0c0   Gb    1  Data  Hi 
    330  Reset_Handler              0x0000c101   Wk    1  Code  Hi   0x1c
    331  NMI_Handler                0x0000c11f   Wk    1  Code  Hi   0x2
    332  MemManage_Handler          0x0000c121   Wk    1  Code  Hi   0x2
    333  BusFault_Handler           0x0000c123   Wk    1  Code  Hi   0x2
    334  UsageFault_Handler         0x0000c125   Wk    1  Code  Hi   0x2
    335  SecureFault_Handler        0x0000c127   Wk    1  Code  Hi   0x2
    336  SVC_Handler                0x0000c129   Wk    1  Code  Hi   0x2
    337  DebugMon_Handler           0x0000c12b   Wk    1  Code  Hi   0x2
    338  PendSV_Handler             0x0000c12d   Wk    1  Code  Hi   0x2
    339  SysTick_Handler            0x0000c12f   Wk    1  Code  Hi   0x2
    340  am_adc_isr                 0x0000c131   Wk    1  Code  Hi 
    341  am_ble_isr                 0x0000c131   Wk    1  Code  Hi 
    342  am_brownout_isr            0x0000c131   Wk    1  Code  Hi 
    343  am_clkgen_isr              0x0000c131   Wk    1  Code  Hi 
    344  am_ctimer_isr              0x0000c131   Wk    1  Code  Hi 
    345  am_gpio_isr                0x0000c131   Wk    1  Code  Hi 
    346  am_iomaster0_isr           0x0000c131   Wk    1  Code  Hi 
    347  am_iomaster1_isr           0x0000c131   Wk    1  Code  Hi 
    348  am_iomaster2_isr           0x0000c131   Wk    1  Code  Hi 
    349  am_iomaster3_isr           0x0000c131   Wk    1  Code  Hi 
    350  am_iomaster4_isr           0x0000c131   Wk    1  Code  Hi 
    351  am_iomaster5_isr           0x0000c131   Wk    1  Code  Hi 
    352  am_ioslave_acc_isr         0x0000c131   Wk    1  Code  Hi 
    353  am_ioslave_ios_isr         0x0000c131   Wk    1  Code  Hi 
    354  am_mspi0_isr               0x0000c131   Wk    1  Code  Hi 
    355  am_pdm0_isr                0x0000c131   Wk    1  Code  Hi 
    356  am_rtc_isr                 0x0000c131   Wk    1  Code  Hi 
    357  am_scard_isr               0x0000c131   Wk    1  Code  Hi 
    358  am_software0_isr           0x0000c131   Wk    1  Code  Hi 
    359  am_stimer_cmpr0_isr        0x0000c131   Wk    1  Code  Hi 
    360  am_stimer_cmpr1_isr        0x0000c131   Wk    1  Code  Hi 
    361  am_stimer_cmpr2_isr        0x0000c131   Wk    1  Code  Hi 
    362  am_stimer_cmpr3_isr        0x0000c131   Wk    1  Code  Hi 
    363  am_stimer_cmpr4_isr        0x0000c131   Wk    1  Code  Hi 
    364  am_stimer_cmpr5_isr        0x0000c131   Wk    1  Code  Hi 
    365  am_stimer_cmpr6_isr        0x0000c131   Wk    1  Code  Hi 
    366  am_stimer_cmpr7_isr        0x0000c131   Wk    1  Code  Hi 
    367  am_stimer_isr              0x0000c131   Wk    1  Code  Hi 
    368  am_uart0_isr               0x0000c131   Wk    1  Code  Hi 
    369  am_uart1_isr               0x0000c131   Wk    1  Code  Hi 
    370  am_uart_isr                0x0000c131   Wk    1  Code  Hi 
    371  am_vcomp_isr               0x0000c131   Wk    1  Code  Hi 
    372  am_watchdog_isr            0x0000c131   Wk    1  Code  Hi 
    373  __main                     0x0000c139   Gb    1  Code  Hi   0x8
    374  __scatterload              0x0000c141   Gb    1  Code  Hi 
    375  __scatterload_rt2          0x0000c141   Gb    1  Code  Hi   0x2c
    376  __scatterload_rt2_thumb_only
                                    0x0000c141   Gb    1  Code  Hi 
    377  __scatterload_null         0x0000c14f   Gb    1  Code  Hi 
    378  __scatterload_copy         0x0000c175   Gb    1  Code  Hi   0x1a
    379  __scatterload_zeroinit     0x0000c191   Gb    1  Code  Hi   0x1c
    380  __rt_lib_init              0x0000c1ad   Gb    1  Code  De 
    381  __rt_lib_init_fp_1         0x0000c1af   Gb    1  Code  Hi 
    382  __rt_lib_init_alloca_1     0x0000c1b3   Gb    1  Code  Hi 
    383  __rt_lib_init_argv_1       0x0000c1b3   Gb    1  Code  Hi 
    384  __rt_lib_init_atexit_1     0x0000c1b3   Gb    1  Code  Hi 
    385  __rt_lib_init_clock_1      0x0000c1b3   Gb    1  Code  Hi 
    386  __rt_lib_init_cpp_1        0x0000c1b3   Gb    1  Code  Hi 
    387  __rt_lib_init_exceptions_1 0x0000c1b3   Gb    1  Code  Hi 
    388  __rt_lib_init_fp_trap_1    0x0000c1b3   Gb    1  Code  Hi 
    389  __rt_lib_init_getenv_1     0x0000c1b3   Gb    1  Code  Hi 
    390  __rt_lib_init_heap_1       0x0000c1b3   Gb    1  Code  Hi 
    391  __rt_lib_init_lc_collate_1 0x0000c1b3   Gb    1  Code  Hi 
    392  __rt_lib_init_lc_ctype_1   0x0000c1b3   Gb    1  Code  Hi 
    393  __rt_lib_init_lc_monetary_1
                                    0x0000c1b3   Gb    1  Code  Hi 
    394  __rt_lib_init_lc_numeric_1 0x0000c1b3   Gb    1  Code  Hi 
    395  __rt_lib_init_lc_time_1    0x0000c1b3   Gb    1  Code  Hi 
    396  __rt_lib_init_preinit_1    0x0000c1b3   Gb    1  Code  Hi 
    397  __rt_lib_init_rand_1       0x0000c1b3   Gb    1  Code  Hi 
    398  __rt_lib_init_return       0x0000c1b3   Gb    1  Code  Hi 
    399  __rt_lib_init_signal_1     0x0000c1b3   Gb    1  Code  Hi 
    400  __rt_lib_init_stdio_1      0x0000c1b3   Gb    1  Code  Hi 
    401  __rt_lib_init_user_alloc_1 0x0000c1b3   Gb    1  Code  Hi 
    402  __rt_lib_shutdown          0x0000c1b5   Gb    1  Code  De 
    403  __rt_lib_shutdown_cpp_1    0x0000c1b7   Gb    1  Code  Hi 
    404  __rt_lib_shutdown_fp_trap_1
                                    0x0000c1b7   Gb    1  Code  Hi 
    405  __rt_lib_shutdown_heap_1   0x0000c1b7   Gb    1  Code  Hi 
    406  __rt_lib_shutdown_return   0x0000c1b7   Gb    1  Code  Hi 
    407  __rt_lib_shutdown_signal_1 0x0000c1b7   Gb    1  Code  Hi 
    408  __rt_lib_shutdown_stdio_1  0x0000c1b7   Gb    1  Code  Hi 
    409  __rt_lib_shutdown_user_alloc_1
                                    0x0000c1b7   Gb    1  Code  Hi 
    410  __rt_entry                 0x0000c1b9   Gb    1  Code  Hi 
    411  __rt_entry_presh_1         0x0000c1b9   Gb    1  Code  Hi 
    412  __rt_entry_sh              0x0000c1b9   Gb    1  Code  Hi 
    413  __rt_entry_li              0x0000c1bf   Gb    1  Code  Hi 
    414  __rt_entry_postsh_1        0x0000c1bf   Gb    1  Code  Hi 
    415  __rt_entry_main            0x0000c1c3   Gb    1  Code  Hi 
    416  __rt_entry_postli_1        0x0000c1c3   Gb    1  Code  Hi 
    417  __rt_exit                  0x0000c1cb   Gb    1  Code  De 
    418  __rt_exit_ls               0x0000c1cd   Gb    1  Code  Hi 
    419  __rt_exit_prels_1          0x0000c1cd   Gb    1  Code  Hi 
    420  __rt_exit_exit             0x0000c1d1   Gb    1  Code  Hi 
    421  HardFault_Handler          0x0000c1d9   Gb    1  Code  Hi   0x1a
    422  getStackedReg              0x0000c1f3   Gb    1  Code  Hi   0x8
    423  am_hal_interrupt_master_enable
                                    0x0000c1fd   Gb    1  Code  Hi   0x8
    424  am_hal_interrupt_master_disable
                                    0x0000c205   Gb    1  Code  Hi   0x8
    425  am_hal_interrupt_master_set
                                    0x0000c20d   Gb    1  Code  Hi   0x6
    426  __user_initial_stackheap   0x0000c215   Gb    1  Code  Hi   0xa
    427  __aeabi_memcpy4            0x0000c22d   Gb    1  Code  Hi 
    428  __aeabi_memcpy8            0x0000c22d   Gb    1  Code  De 
    429  __rt_memcpy_w              0x0000c22d   Gb    1  Code  De   0x64
    430  _memcpy_lastbytes_aligned  0x0000c275   Gb    1  Code  De 
    431  __use_two_region_memory    0x0000c291   Gb    1  Code  Hi   0x2
    432  __rt_heap_escrow$2region   0x0000c293   Gb    1  Code  De   0x2
    433  __rt_heap_expand$2region   0x0000c295   Gb    1  Code  De   0x2
    434  __user_setup_stackheap     0x0000c297   Gb    1  Code  De   0x4a
    435  exit                       0x0000c2e1   Gb    1  Code  De   0x12
    436  __user_libspace            0x0000c2f5   Wk    1  Code  De   0x8
    437  __user_perproc_libspace    0x0000c2f5   Wk    1  Code  De 
    438  __user_perthread_libspace  0x0000c2f5   Wk    1  Code  De 
    439  _sys_exit                  0x0000c2fd   Gb    1  Code  De   0x8
    440  __I$use$semihosting        0x0000c309   Gb    1  Code  Hi 
    441  __use_no_semihosting_swi   0x0000c309   Gb    1  Code  Hi   0x2
    442  __semihosting_library_function
                                    0x0000c30b   Gb    1  Code  Hi 
    443  am_bsp_debug_printf_disable
                                    0x0000c30d   Gb    1  Code  Hi   0x58
    444  am_bsp_itm_printf_enable   0x0000c36d   Gb    1  Code  Hi   0x2c
    445  am_bsp_low_power_init      0x0000c3a9   Gb    1  Code  Hi   0x3a
    446  am_hal_cachectrl_config    0x0000c3ed   Gb    1  Code  Hi   0x46
    447  am_hal_cachectrl_control   0x0000c439   Gb    1  Code  Hi   0x2c6
    448  am_hal_cachectrl_enable    0x0000c709   Gb    1  Code  Hi   0xe
    449  am_hal_clkgen_control      0x0000c71d   Gb    1  Code  Hi   0xec
    450  am_hal_clkgen_status_get   0x0000c819   Gb    1  Code  Hi   0x2c
    451  am_hal_flash_delay         0x0000c84d   Gb    1  Code  Hi   0x1e
    452  am_hal_flash_delay_status_check
                                    0x0000c871   Gb    1  Code  Hi   0x56
    453  am_hal_flash_load_ui32     0x0000c8cd   Gb    1  Code  Hi   0x4
    454  am_hal_flash_store_ui32    0x0000c8d5   Gb    1  Code  Hi   0x24
    455  am_hal_gpio_fast_pinconfig 0x0000c8fd   Gb    1  Code  Hi   0xce
    456  am_hal_gpio_pinconfig      0x0000c9cd   Gb    1  Code  Hi   0x24a
    457  am_hal_gpio_state_write    0x0000cc4d   Gb    1  Code  Hi   0x80
    458  am_hal_itm_disable         0x0000cccd   Gb    1  Code  Hi   0x88
    459  am_hal_itm_enable          0x0000cd79   Gb    1  Code  Hi   0x2c
    460  am_hal_itm_print           0x0000cdc1   Gb    1  Code  Hi   0x30
    461  am_hal_mcuctrl_info_get    0x0000cdf1   Gb    1  Code  Hi   0x116
    462  am_hal_pwrctrl_low_power_init
                                    0x0000cf29   Gb    1  Code  Hi   0x182
    463  am_hal_pwrctrl_periph_disable
                                    0x0000d0c5   Gb    1  Code  Hi   0x46
    464  am_hal_pwrctrl_periph_enable
                                    0x0000d115   Gb    1  Code  Hi   0x48
    465  am_hal_rtc_osc_disable     0x0000d165   Gb    1  Code  Hi   0x12
    466  am_hal_tpiu_enable         0x0000d179   Gb    1  Code  Hi   0x7a
    467  am_hal_uart_deinitialize   0x0000d209   Gb    1  Code  Hi   0x2a
    468  am_hal_uart_power_control  0x0000d239   Gb    1  Code  Hi   0xe8
    469  am_hal_uart_tx_flush       0x0000d325   Gb    1  Code  Hi   0x58
    470  am_util_delay_ms           0x0000d381   Gb    1  Code  Hi   0x20
    471  am_util_faultisr_collect_data
                                    0x0000d3a1   Gb    1  Code  Hi   0xaa
    472  am_util_stdio_printf       0x0000d455   Gb    1  Code  Hi   0x2c
    473  am_util_stdio_printf_init  0x0000d489   Gb    1  Code  Hi   0x6
    474  am_util_stdio_terminal_clear
                                    0x0000d495   Gb    1  Code  Hi   0x20
    475  am_util_stdio_vsprintf     0x0000d4d1   Gb    1  Code  Hi   0x734
    476  main                       0x0000dc11   Gb    1  Code  Hi   0x266
    477  __aeabi_d2f                0x0000e1b1   Gb    1  Code  Hi 
    478  _d2f                       0x0000e1b1   Gb    1  Code  De   0x62
    479  __fpl_dnaninf              0x0000e213   Gb    1  Code  De   0x9c
    480  _fp_init                   0x0000e2af   Gb    1  Code  De   0xa
    481  __fplib_config_fpu_vfp     0x0000e2b7   Gb    1  Code  De 
    482  __fplib_config_pureend_doubles
                                    0x0000e2b7   Gb    1  Code  De 
    483  __fpl_fretinf              0x0000e2b9   Gb    1  Code  De   0xa
    484  __I$use$fp                 0x0000e2c2   Gb    1   --   De 
    485  am_hal_cachectrl_defaults  0x0000e3ec   Gb    1  Data  Hi   0x3
    486  g_AM_HAL_GPIO_DISABLE      0x0000e3fc   Gb    1  Data  Hi   0x4
    487  g_AM_HAL_GPIO_OUTPUT       0x0000e560   Gb    1  Data  Hi   0x4
    488  g_AM_HAL_GPIO_OUTPUT_12    0x0000e564   Gb    1  Data  Hi   0x4
    489  g_am_hal_mcuctrl_flash_size
                                    0x0000e568   Gb    1  Data  Hi   0x40
    490  g_am_hal_mcuctrl_sram_size 0x0000e5a8   Gb    1  Data  Hi   0x40
    491  g_AM_BSP_GPIO_ITM_SWO      0x0000e5e8   Gb    1  Data  Hi   0x4
    492  am_hal_pwrctrl_peripheral_control
                                    0x0000e5ec   Gb    1  Data  Hi   0xb4
    493  am_hal_pwrctrl_memory_control
                                    0x0000e6a0   Gb    1  Data  Hi   0x1b0
    494  Region$$Table$$Base        0x0000e9ac   Gb    1   --   Hi 
    495  Region$$Table$$Limit       0x0000e9cc   Gb    1   --   Hi 
    496  g_pfnCharPrint             0x10000014   Gb    2  Data  Hi   0x4
    497  g_ui32HALflags             0x10000018   Gb    2  Data  Hi   0x4
    498  am_bsp_psLEDs              0x10000024   Gb    2  Data  Hi   0x28
    499  gAmHalResetStatus          0x10000074   Gb    2  Data  Hi   0x4
    500  __libspace_start           0x10001978   Gb    3  Data  De   0x60
    501  __temporary_stack_top$libspace
                                    0x100019d8   Gb    3  Data  De 


** Section #12 '.strtab' (SHT_STRTAB)
    Size   : 7716 bytes

            #  Offset String
        ====================================

            1      1: $d
            2      4: $t
            3      7: $d.realdata
            4     19: ..\src\fast_gpio.c
            5     38: ../src/fast_gpio.c
            6     57: i.main
            7     64: .constdata
            8     75: .conststring
            9     88: .data
           10     94: g_ui32LEDs
           11    105: ..\..\..\..\..\devices\am_devices_led.c
           12    145: ../../../../../devices/am_devices_led.c
           13    185: ..\..\..\..\..\utils\am_util_delay.c
           14    222: ../../../../../utils/am_util_delay.c
           15    259: i.am_util_delay_ms
           16    278: ..\..\..\..\..\utils\am_util_faultisr.c
           17    318: .emb_text
           18    328: $v0
           19    332: ../../../../../utils/am_util_faultisr.c
           20    372: i.am_util_faultisr_collect_data
           21    404: ../../../../../utils/am_util_stdio.c
           22    441: i.am_util_stdio_printf
           23    464: i.am_util_stdio_printf_init
           24    492: i.am_util_stdio_terminal_clear
           25    523: i.am_util_stdio_vsprintf
           26    548: i.ndigits_in_u64
           27    565: ndigits_in_u64
           28    580: i.uint64_to_str
           29    596: uint64_to_str
           30    610: .bss
           31    615: g_prfbuf
           32    624: g_bTxtXlate
           33    636: ../keil/startup_keil.s
           34    659: STACK
           35    665: StackMem
           36    674: HEAP
           37    679: HeapMem
           38    687: RESET
           39    693: .text
           40    699: ..\am_hal_global.c
           41    718: ../am_hal_global.c
           42    737: ..\am_bsp.c
           43    749: ../am_bsp.c
           44    761: i.am_bsp_debug_printf_disable
           45    791: i.am_bsp_itm_printf_enable
           46    818: i.am_bsp_low_power_init
           47    842: pui8UartTxBuffer
           48    859: pui8UartRxBuffer
           49    876: g_ui32PrintInterface
           50    897: g_sCOMUART
           51    908: g_sBspUartBufferedConfig
           52    933: ..\am_hal_cachectrl.c
           53    955: ../am_hal_cachectrl.c
           54    977: i.am_hal_cachectrl_config
           55   1003: i.am_hal_cachectrl_control
           56   1030: i.am_hal_cachectrl_enable
           57   1056: ..\am_hal_clkgen.c
           58   1075: ../am_hal_clkgen.c
           59   1094: i.am_hal_clkgen_control
           60   1118: i.am_hal_clkgen_status_get
           61   1145: ..\am_hal_flash.c
           62   1163: ../am_hal_flash.c
           63   1181: i.am_hal_flash_delay
           64   1202: i.am_hal_flash_delay_status_check
           65   1236: i.am_hal_flash_load_ui32
           66   1261: i.am_hal_flash_store_ui32
           67   1287: ..\am_hal_gpio.c
           68   1304: ../am_hal_gpio.c
           69   1321: i.am_hal_gpio_fast_pinconfig
           70   1350: i.am_hal_gpio_pinconfig
           71   1374: i.am_hal_gpio_state_write
           72   1400: g_ui8Inpen
           73   1411: g_ui8Bit76Capabilities
           74   1434: g_ui8nCEpins
           75   1447: g_ui8NCEtable
           76   1461: ..\am_hal_mcuctrl.c
           77   1481: ../am_hal_mcuctrl.c
           78   1501: i.am_hal_mcuctrl_info_get
           79   1527: ..\am_bsp_pins.c
           80   1544: ../am_bsp_pins.c
           81   1561: ..\am_hal_interrupt.c
           82   1583: ../am_hal_interrupt.c
           83   1605: ..\am_hal_itm.c
           84   1621: ../am_hal_itm.c
           85   1637: i.am_hal_itm_disable
           86   1658: i.am_hal_itm_enable
           87   1678: i.am_hal_itm_print
           88   1697: ..\am_hal_pwrctrl.c
           89   1717: ../am_hal_pwrctrl.c
           90   1737: i.am_hal_pwrctrl_low_power_init
           91   1769: i.am_hal_pwrctrl_periph_disable
           92   1801: i.am_hal_pwrctrl_periph_enable
           93   1832: ..\am_hal_reset.c
           94   1850: ../am_hal_reset.c
           95   1868: ..\am_hal_rtc.c
           96   1884: ../am_hal_rtc.c
           97   1900: i.am_hal_rtc_osc_disable
           98   1925: ..\am_hal_tpiu.c
           99   1942: ../am_hal_tpiu.c
          100   1959: i.am_hal_tpiu_enable
          101   1980: ..\am_hal_uart.c
          102   1997: ../am_hal_uart.c
          103   2014: i.am_hal_uart_deinitialize
          104   2041: i.am_hal_uart_power_control
          105   2069: i.am_hal_uart_tx_flush
          106   2092: ..\am_hal_queue.c
          107   2110: ../am_hal_queue.c
          108   2128: dc.s
          109   2133: ../clib/longlong.s
          110   2152: ../clib/memcpset.s
          111   2171: ../clib/heapaux.c
          112   2189: ../clib/angel/startup.s
          113   2213: !!!main
          114   2221: ../fplib/d2f.s
          115   2236: x$fpl$d2f
          116   2246: ../clib/angel/kernel.s
          117   2269: .ARM.Collect$$rtentry$$00000000
          118   2301: ../fplib/dnaninf.s
          119   2320: x$fpl$dnaninf
          120   2334: ../fplib/fretinf.s
          121   2353: x$fpl$fretinf
          122   2367: ../fplib/usenofp.s
          123   2386: x$fpl$usenofp
          124   2400: .ARM.Collect$$rtentry$$00000002
          125   2432: .ARM.Collect$$rtentry$$00000009
          126   2464: .ARM.Collect$$rtentry$$0000000A
          127   2496: .ARM.Collect$$rtentry$$0000000C
          128   2528: .ARM.Collect$$rtentry$$0000000D
          129   2560: .ARM.Collect$$rtentry$$00000004
          130   2592: ../clib/angel/sys.s
          131   2612: ../clib/stdlib.c
          132   2629: ../clib/angel/boardlib.s
          133   2654: ../clib/libinit.s
          134   2672: .ARM.Collect$$libinit$$00000000
          135   2704: .ARM.Collect$$rtexit$$00000000
          136   2735: .ARM.Collect$$libinit$$00000001
          137   2767: .ARM.Collect$$libinit$$00000004
          138   2799: .ARM.Collect$$libinit$$0000000A
          139   2831: .ARM.Collect$$libinit$$0000000C
          140   2863: .ARM.Collect$$libinit$$0000000E
          141   2895: .ARM.Collect$$libinit$$00000011
          142   2927: .ARM.Collect$$libinit$$00000013
          143   2959: .ARM.Collect$$libinit$$00000015
          144   2991: .ARM.Collect$$libinit$$00000017
          145   3023: .ARM.Collect$$libinit$$00000019
          146   3055: .ARM.Collect$$libinit$$0000001B
          147   3087: .ARM.Collect$$libinit$$0000001D
          148   3119: .ARM.Collect$$libinit$$0000001F
          149   3151: .ARM.Collect$$libinit$$00000021
          150   3183: .ARM.Collect$$libinit$$00000023
          151   3215: .ARM.Collect$$libinit$$00000025
          152   3247: .ARM.Collect$$libinit$$0000002C
          153   3279: .ARM.Collect$$libinit$$0000002E
          154   3311: .ARM.Collect$$libinit$$00000030
          155   3343: .ARM.Collect$$libinit$$00000032
          156   3375: .ARM.Collect$$libinit$$00000033
          157   3407: .ARM.Collect$$rtexit$$00000002
          158   3438: .ARM.Collect$$rtexit$$00000003
          159   3469: .ARM.Collect$$rtexit$$00000004
          160   3500: ../clib/armsys.c
          161   3517: ../fplib/fpinit.s
          162   3535: x$fpl$fpinit
          163   3548: ../clib/angel/sysapp.c
          164   3571: .ARM.Collect$$libshutdown$$00000000
          165   3607: ../clib/heapalloc.c
          166   3627: ../clib/signal.c
          167   3644: .ARM.Collect$$libshutdown$$00000002
          168   3680: .ARM.Collect$$libshutdown$$00000004
          169   3716: .ARM.Collect$$libshutdown$$00000007
          170   3752: .ARM.Collect$$libshutdown$$0000000A
          171   3788: .ARM.Collect$$libshutdown$$0000000C
          172   3824: .ARM.Collect$$libshutdown$$0000000F
          173   3860: .ARM.Collect$$libshutdown$$00000010
          174   3896: ../clib/angel/rt.s
          175   3915: ../clib/signal.s
          176   3932: ../clib/angel/scatter.s
          177   3956: !!!scatter
          178   3967: ../clib/angel/handlers.s
          179   3992: !!handler_copy
          180   4007: !!handler_zi
          181   4020: BuildAttributes$$THM_ISAv4$E$P$D$K$B$S$7EM$VFPi3$EXTD16$VFPS$VFMA$PE$A:L22UL41UL21$X:L11$S22US41US21$IEEE1$IW$USESV6$~STKCKD$USESV7$~SHL$OTIME$ROPI$EBA8$UX$STANDARDLIB$REQ8$PRES8$EABIv2
          182   4206: __ARM_use_no_argv
          183   4224: __Vectors
          184   4234: __Patchable
          185   4246: Reset_Handler
          186   4260: NMI_Handler
          187   4272: MemManage_Handler
          188   4290: BusFault_Handler
          189   4307: UsageFault_Handler
          190   4326: SecureFault_Handler
          191   4346: SVC_Handler
          192   4358: DebugMon_Handler
          193   4375: PendSV_Handler
          194   4390: SysTick_Handler
          195   4406: am_adc_isr
          196   4417: am_ble_isr
          197   4428: am_brownout_isr
          198   4444: am_clkgen_isr
          199   4458: am_ctimer_isr
          200   4472: am_gpio_isr
          201   4484: am_iomaster0_isr
          202   4501: am_iomaster1_isr
          203   4518: am_iomaster2_isr
          204   4535: am_iomaster3_isr
          205   4552: am_iomaster4_isr
          206   4569: am_iomaster5_isr
          207   4586: am_ioslave_acc_isr
          208   4605: am_ioslave_ios_isr
          209   4624: am_mspi0_isr
          210   4637: am_pdm0_isr
          211   4649: am_rtc_isr
          212   4660: am_scard_isr
          213   4673: am_software0_isr
          214   4690: am_stimer_cmpr0_isr
          215   4710: am_stimer_cmpr1_isr
          216   4730: am_stimer_cmpr2_isr
          217   4750: am_stimer_cmpr3_isr
          218   4770: am_stimer_cmpr4_isr
          219   4790: am_stimer_cmpr5_isr
          220   4810: am_stimer_cmpr6_isr
          221   4830: am_stimer_cmpr7_isr
          222   4850: am_stimer_isr
          223   4864: am_uart0_isr
          224   4877: am_uart1_isr
          225   4890: am_uart_isr
          226   4902: am_vcomp_isr
          227   4915: am_watchdog_isr
          228   4931: __main
          229   4938: __scatterload
          230   4952: __scatterload_rt2
          231   4970: __scatterload_rt2_thumb_only
          232   4999: __scatterload_null
          233   5018: __scatterload_copy
          234   5037: __scatterload_zeroinit
          235   5060: __rt_lib_init
          236   5074: __rt_lib_init_fp_1
          237   5093: __rt_lib_init_alloca_1
          238   5116: __rt_lib_init_argv_1
          239   5137: __rt_lib_init_atexit_1
          240   5160: __rt_lib_init_clock_1
          241   5182: __rt_lib_init_cpp_1
          242   5202: __rt_lib_init_exceptions_1
          243   5229: __rt_lib_init_fp_trap_1
          244   5253: __rt_lib_init_getenv_1
          245   5276: __rt_lib_init_heap_1
          246   5297: __rt_lib_init_lc_collate_1
          247   5324: __rt_lib_init_lc_ctype_1
          248   5349: __rt_lib_init_lc_monetary_1
          249   5377: __rt_lib_init_lc_numeric_1
          250   5404: __rt_lib_init_lc_time_1
          251   5428: __rt_lib_init_preinit_1
          252   5452: __rt_lib_init_rand_1
          253   5473: __rt_lib_init_return
          254   5494: __rt_lib_init_signal_1
          255   5517: __rt_lib_init_stdio_1
          256   5539: __rt_lib_init_user_alloc_1
          257   5566: __rt_lib_shutdown
          258   5584: __rt_lib_shutdown_cpp_1
          259   5608: __rt_lib_shutdown_fp_trap_1
          260   5636: __rt_lib_shutdown_heap_1
          261   5661: __rt_lib_shutdown_return
          262   5686: __rt_lib_shutdown_signal_1
          263   5713: __rt_lib_shutdown_stdio_1
          264   5739: __rt_lib_shutdown_user_alloc_1
          265   5770: __rt_entry
          266   5781: __rt_entry_presh_1
          267   5800: __rt_entry_sh
          268   5814: __rt_entry_li
          269   5828: __rt_entry_postsh_1
          270   5848: __rt_entry_main
          271   5864: __rt_entry_postli_1
          272   5884: __rt_exit
          273   5894: __rt_exit_ls
          274   5907: __rt_exit_prels_1
          275   5925: __rt_exit_exit
          276   5940: HardFault_Handler
          277   5958: getStackedReg
          278   5972: am_hal_interrupt_master_enable
          279   6003: am_hal_interrupt_master_disable
          280   6035: am_hal_interrupt_master_set
          281   6063: __user_initial_stackheap
          282   6088: __aeabi_memcpy4
          283   6104: __aeabi_memcpy8
          284   6120: __rt_memcpy_w
          285   6134: _memcpy_lastbytes_aligned
          286   6160: __use_two_region_memory
          287   6184: __rt_heap_escrow$2region
          288   6209: __rt_heap_expand$2region
          289   6234: __user_setup_stackheap
          290   6257: exit
          291   6262: __user_libspace
          292   6278: __user_perproc_libspace
          293   6302: __user_perthread_libspace
          294   6328: _sys_exit
          295   6338: __I$use$semihosting
          296   6358: __use_no_semihosting_swi
          297   6383: __semihosting_library_function
          298   6414: am_bsp_debug_printf_disable
          299   6442: am_bsp_itm_printf_enable
          300   6467: am_bsp_low_power_init
          301   6489: am_hal_cachectrl_config
          302   6513: am_hal_cachectrl_control
          303   6538: am_hal_cachectrl_enable
          304   6562: am_hal_clkgen_control
          305   6584: am_hal_clkgen_status_get
          306   6609: am_hal_flash_delay
          307   6628: am_hal_flash_delay_status_check
          308   6660: am_hal_flash_load_ui32
          309   6683: am_hal_flash_store_ui32
          310   6707: am_hal_gpio_fast_pinconfig
          311   6734: am_hal_gpio_pinconfig
          312   6756: am_hal_gpio_state_write
          313   6780: am_hal_itm_disable
          314   6799: am_hal_itm_enable
          315   6817: am_hal_itm_print
          316   6834: am_hal_mcuctrl_info_get
          317   6858: am_hal_pwrctrl_low_power_init
          318   6888: am_hal_pwrctrl_periph_disable
          319   6918: am_hal_pwrctrl_periph_enable
          320   6947: am_hal_rtc_osc_disable
          321   6970: am_hal_tpiu_enable
          322   6989: am_hal_uart_deinitialize
          323   7014: am_hal_uart_power_control
          324   7040: am_hal_uart_tx_flush
          325   7061: am_util_delay_ms
          326   7078: am_util_faultisr_collect_data
          327   7108: am_util_stdio_printf
          328   7129: am_util_stdio_printf_init
          329   7155: am_util_stdio_terminal_clear
          330   7184: am_util_stdio_vsprintf
          331   7207: main
          332   7212: __aeabi_d2f
          333   7224: _d2f
          334   7229: __fpl_dnaninf
          335   7243: _fp_init
          336   7252: __fplib_config_fpu_vfp
          337   7275: __fplib_config_pureend_doubles
          338   7306: __fpl_fretinf
          339   7320: __I$use$fp
          340   7331: am_hal_cachectrl_defaults
          341   7357: g_AM_HAL_GPIO_DISABLE
          342   7379: g_AM_HAL_GPIO_OUTPUT
          343   7400: g_AM_HAL_GPIO_OUTPUT_12
          344   7424: g_am_hal_mcuctrl_flash_size
          345   7452: g_am_hal_mcuctrl_sram_size
          346   7479: g_AM_BSP_GPIO_ITM_SWO
          347   7501: am_hal_pwrctrl_peripheral_control
          348   7535: am_hal_pwrctrl_memory_control
          349   7565: Region$$Table$$Base
          350   7585: Region$$Table$$Limit
          351   7606: g_pfnCharPrint
          352   7621: g_ui32HALflags
          353   7636: am_bsp_psLEDs
          354   7650: gAmHalResetStatus
          355   7668: __libspace_start
          356   7685: __temporary_stack_top$libspace


** Section #13 '.note' (SHT_NOTE)
    Size   : 28 bytes (alignment 4)


** Section #14 '.comment' (SHT_PROGBITS)
    Size   : 24396 bytes


** Section #15 '.shstrtab' (SHT_STRTAB)
    Size   : 148 bytes

            #  Offset String
        ====================================

            1      1: FLASH
            2      7: SRAM
            3     12: .debug_abbrev
            4     26: .debug_frame
            5     39: .debug_info
            6     51: .debug_line
            7     63: .debug_loc
            8     74: .debug_macinfo
            9     89: .debug_pubnames
           10    105: .symtab
           11    113: .strtab
           12    121: .note
           13    127: .comment
           14    136: .shstrtab
           15    146: 
           16    147: 


