
========================================================================

** ELF Header Information

    File Name: bin\mspi_octal_example.axf

    Machine class: ELFCLASS32 (32-bit)
    Data encoding: ELFDATA2LSB (Little endian)
    Header version: EV_CURRENT (Current version)
    Operating System ABI: none
    ABI Version: 0
    File Type: ET_EXEC (Executable) (2)
    Machine: EM_ARM (ARM)

    Image Entry point: 0x0000c139
    Flags: EF_ARM_HASENTRY + EF_ARM_ABI_FLOAT_HARD (0x05000402)

    ARM ELF revision: 5 (ABI version 2)

    Conforms to Hard float procedure-call standard

    Built with
    Component: ARM Compiler 5.06 update 6 (build 750) Tool: armasm [4d35ec]
    Component: ARM Compiler 5.06 update 6 (build 750) Tool: armlink [4d35ed]

    Header size: 52 bytes (0x34)
    Program header entry size: 32 bytes (0x20)
    Section header entry size: 40 bytes (0x28)

    Program header entries: 1
    Section header entries: 16

    Program header offset: 603436 (0x0009352c)
    Section header offset: 603468 (0x0009354c)

    Section header string table index: 15

========================================================================

** Program header #0 (PT_LOAD) [PF_X + PF_W + PF_R + PF_ARM_ENTRY]
    Size : 52036 bytes (21204 bytes in file)
    Virtual address: 0x0000c000 (Alignment 8)


========================================================================

** Section #1 'FLASH' (SHT_PROGBITS) [SHF_ALLOC + SHF_EXECINSTR]
    Size   : 21100 bytes (alignment 4)
    Address: 0x0000c000

    $d
    RESET
    __Vectors
        0x0000c000:    10001150    P...    DCD    268439888
        0x0000c004:    0000c101    ....    DCD    49409
        0x0000c008:    0000c11f    ....    DCD    49439
        0x0000c00c:    0000c25d    ]...    DCD    49757
        0x0000c010:    0000c121    !...    DCD    49441
        0x0000c014:    0000c123    #...    DCD    49443
        0x0000c018:    0000c125    %...    DCD    49445
        0x0000c01c:    0000c127    '...    DCD    49447
        0x0000c020:    00000000    ....    DCD    0
        0x0000c024:    00000000    ....    DCD    0
        0x0000c028:    00000000    ....    DCD    0
        0x0000c02c:    0000c129    )...    DCD    49449
        0x0000c030:    0000c12b    +...    DCD    49451
        0x0000c034:    00000000    ....    DCD    0
        0x0000c038:    0000c12d    -...    DCD    49453
        0x0000c03c:    0000c12f    /...    DCD    49455
        0x0000c040:    0000c131    1...    DCD    49457
        0x0000c044:    0000c131    1...    DCD    49457
        0x0000c048:    0000c131    1...    DCD    49457
        0x0000c04c:    0000c131    1...    DCD    49457
        0x0000c050:    0000c131    1...    DCD    49457
        0x0000c054:    0000c131    1...    DCD    49457
        0x0000c058:    0000c131    1...    DCD    49457
        0x0000c05c:    0000c131    1...    DCD    49457
        0x0000c060:    0000c131    1...    DCD    49457
        0x0000c064:    0000c131    1...    DCD    49457
        0x0000c068:    0000c131    1...    DCD    49457
        0x0000c06c:    0000c131    1...    DCD    49457
        0x0000c070:    0000c131    1...    DCD    49457
        0x0000c074:    0000c131    1...    DCD    49457
        0x0000c078:    0000c131    1...    DCD    49457
        0x0000c07c:    0000c131    1...    DCD    49457
        0x0000c080:    0000c131    1...    DCD    49457
        0x0000c084:    0000c131    1...    DCD    49457
        0x0000c088:    0000c131    1...    DCD    49457
        0x0000c08c:    0000c131    1...    DCD    49457
        0x0000c090:    0000c131    1...    DCD    49457
        0x0000c094:    0000c131    1...    DCD    49457
        0x0000c098:    0000c131    1...    DCD    49457
        0x0000c09c:    0000c131    1...    DCD    49457
        0x0000c0a0:    0000c131    1...    DCD    49457
        0x0000c0a4:    0000c131    1...    DCD    49457
        0x0000c0a8:    0000c131    1...    DCD    49457
        0x0000c0ac:    0000c131    1...    DCD    49457
        0x0000c0b0:    0000c131    1...    DCD    49457
        0x0000c0b4:    0000c131    1...    DCD    49457
        0x0000c0b8:    0000c131    1...    DCD    49457
        0x0000c0bc:    0000c131    1...    DCD    49457
    __Patchable
        0x0000c0c0:    00000000    ....    DCD    0
        0x0000c0c4:    00000000    ....    DCD    0
        0x0000c0c8:    00000000    ....    DCD    0
        0x0000c0cc:    00000000    ....    DCD    0
        0x0000c0d0:    00000000    ....    DCD    0
        0x0000c0d4:    00000000    ....    DCD    0
        0x0000c0d8:    00000000    ....    DCD    0
        0x0000c0dc:    00000000    ....    DCD    0
        0x0000c0e0:    00000000    ....    DCD    0
        0x0000c0e4:    00000000    ....    DCD    0
        0x0000c0e8:    00000000    ....    DCD    0
        0x0000c0ec:    00000000    ....    DCD    0
        0x0000c0f0:    00000000    ....    DCD    0
        0x0000c0f4:    00000000    ....    DCD    0
        0x0000c0f8:    00000000    ....    DCD    0
        0x0000c0fc:    00000000    ....    DCD    0
    $t
    $v0
    Reset_Handler
        0x0000c100:    f64e5088    N..P    MOV      r0,#0xed88
        0x0000c104:    f2ce0000    ....    MOVT     r0,#0xe000
        0x0000c108:    6801        .h      LDR      r1,[r0,#0]
        0x0000c10a:    f4410170    A.p.    ORR      r1,r1,#0xf00000
        0x0000c10e:    6001        .`      STR      r1,[r0,#0]
        0x0000c110:    f3bf8f4f    ..O.    DSB      
        0x0000c114:    f3bf8f6f    ..o.    ISB      
        0x0000c118:    4806        .H      LDR      r0,[pc,#24] ; [0xc134] = 0xc139
        0x0000c11a:    4700        .G      BX       r0
        0x0000c11c:    e7fe        ..      B        0xc11c ; Reset_Handler + 28
    NMI_Handler
        0x0000c11e:    e7fe        ..      B        NMI_Handler ; 0xc11e
    MemManage_Handler
        0x0000c120:    e7fe        ..      B        MemManage_Handler ; 0xc120
    BusFault_Handler
        0x0000c122:    e7fe        ..      B        BusFault_Handler ; 0xc122
    UsageFault_Handler
        0x0000c124:    e7fe        ..      B        UsageFault_Handler ; 0xc124
    SecureFault_Handler
        0x0000c126:    e7fe        ..      B        SecureFault_Handler ; 0xc126
    SVC_Handler
        0x0000c128:    e7fe        ..      B        SVC_Handler ; 0xc128
    DebugMon_Handler
        0x0000c12a:    e7fe        ..      B        DebugMon_Handler ; 0xc12a
    PendSV_Handler
        0x0000c12c:    e7fe        ..      B        PendSV_Handler ; 0xc12c
    SysTick_Handler
        0x0000c12e:    e7fe        ..      B        SysTick_Handler ; 0xc12e
    am_adc_isr
    am_ble_isr
    am_brownout_isr
    am_clkgen_isr
    am_ctimer_isr
    am_gpio_isr
    am_iomaster0_isr
    am_iomaster1_isr
    am_iomaster2_isr
    am_iomaster3_isr
    am_iomaster4_isr
    am_iomaster5_isr
    am_ioslave_acc_isr
    am_ioslave_ios_isr
    am_mspi0_isr
    am_pdm0_isr
    am_rtc_isr
    am_scard_isr
    am_software0_isr
    am_stimer_cmpr0_isr
    am_stimer_cmpr1_isr
    am_stimer_cmpr2_isr
    am_stimer_cmpr3_isr
    am_stimer_cmpr4_isr
    am_stimer_cmpr5_isr
    am_stimer_cmpr6_isr
    am_stimer_cmpr7_isr
    am_stimer_isr
    am_uart0_isr
    am_uart1_isr
    am_uart_isr
    am_vcomp_isr
    am_watchdog_isr
        0x0000c130:    e7fe        ..      B        am_adc_isr ; 0xc130
    $d
        0x0000c132:    0000        ..      DCW    0
        0x0000c134:    0000c139    9...    DCD    49465
    $t
    !!!main
    __main
        0x0000c138:    f000f802    ....    BL       __scatterload ; 0xc140
        0x0000c13c:    f000f85c    ..\.    BL       __rt_entry ; 0xc1f8
    !!!scatter
    __scatterload
    __scatterload_rt2
    __scatterload_rt2_thumb_only
        0x0000c140:    a00a        ..      ADR      r0,{pc}+0x2c ; 0xc16c
        0x0000c142:    e8900c00    ....    LDM      r0,{r10,r11}
        0x0000c146:    4482        .D      ADD      r10,r10,r0
        0x0000c148:    4483        .D      ADD      r11,r11,r0
        0x0000c14a:    f1aa0701    ....    SUB      r7,r10,#1
    __scatterload_null
        0x0000c14e:    45da        .E      CMP      r10,r11
        0x0000c150:    d101        ..      BNE      0xc156 ; __scatterload_null + 8
        0x0000c152:    f000f851    ..Q.    BL       __rt_entry ; 0xc1f8
        0x0000c156:    f2af0e09    ....    ADR      lr,{pc}-7 ; 0xc14f
        0x0000c15a:    e8ba000f    ....    LDM      r10!,{r0-r3}
        0x0000c15e:    f0130f01    ....    TST      r3,#1
        0x0000c162:    bf18        ..      IT       NE
        0x0000c164:    1afb        ..      SUBNE    r3,r7,r3
        0x0000c166:    f0430301    C...    ORR      r3,r3,#1
        0x0000c16a:    4718        .G      BX       r3
    $d
        0x0000c16c:    000050e0    .P..    DCD    20704
        0x0000c170:    00005100    .Q..    DCD    20736
    $t
    !!dczerorl2
    __decompress
    __decompress1
        0x0000c174:    440a        .D      ADD      r2,r2,r1
        0x0000c176:    f04f0c00    O...    MOV      r12,#0
        0x0000c17a:    f8103b01    ...;    LDRB     r3,[r0],#1
        0x0000c17e:    f0130407    ....    ANDS     r4,r3,#7
        0x0000c182:    bf08        ..      IT       EQ
        0x0000c184:    f8104b01    ...K    LDRBEQ   r4,[r0],#1
        0x0000c188:    111d        ..      ASRS     r5,r3,#4
        0x0000c18a:    bf08        ..      IT       EQ
        0x0000c18c:    f8105b01    ...[    LDRBEQ   r5,[r0],#1
        0x0000c190:    1e64        d.      SUBS     r4,r4,#1
        0x0000c192:    d005        ..      BEQ      0xc1a0 ; __decompress + 44
        0x0000c194:    f8106b01    ...k    LDRB     r6,[r0],#1
        0x0000c198:    1e64        d.      SUBS     r4,r4,#1
        0x0000c19a:    f8016b01    ...k    STRB     r6,[r1],#1
        0x0000c19e:    d1f9        ..      BNE      0xc194 ; __decompress + 32
        0x0000c1a0:    f0130f08    ....    TST      r3,#8
        0x0000c1a4:    bf1e        ..      ITTT     NE
        0x0000c1a6:    f8104b01    ...K    LDRBNE   r4,[r0],#1
        0x0000c1aa:    1cad        ..      ADDNE    r5,r5,#2
        0x0000c1ac:    1b0c        ..      SUBNE    r4,r1,r4
        0x0000c1ae:    d109        ..      BNE      0xc1c4 ; __decompress + 80
        0x0000c1b0:    1e6d        m.      SUBS     r5,r5,#1
        0x0000c1b2:    bf58        X.      IT       PL
        0x0000c1b4:    f801cb01    ....    STRBPL   r12,[r1],#1
        0x0000c1b8:    d5fa        ..      BPL      0xc1b0 ; __decompress + 60
        0x0000c1ba:    e005        ..      B        0xc1c8 ; __decompress + 84
        0x0000c1bc:    f8146b01    ...k    LDRB     r6,[r4],#1
        0x0000c1c0:    f8016b01    ...k    STRB     r6,[r1],#1
        0x0000c1c4:    1e6d        m.      SUBS     r5,r5,#1
        0x0000c1c6:    d5f9        ..      BPL      0xc1bc ; __decompress + 72
        0x0000c1c8:    4291        .B      CMP      r1,r2
        0x0000c1ca:    d3d6        ..      BCC      0xc17a ; __decompress + 6
        0x0000c1cc:    4770        pG      BX       lr
        0x0000c1ce:    0000        ..      MOVS     r0,r0
    !!handler_zi
    __scatterload_zeroinit
        0x0000c1d0:    2300        .#      MOVS     r3,#0
        0x0000c1d2:    2400        .$      MOVS     r4,#0
        0x0000c1d4:    2500        .%      MOVS     r5,#0
        0x0000c1d6:    2600        .&      MOVS     r6,#0
        0x0000c1d8:    3a10        .:      SUBS     r2,r2,#0x10
        0x0000c1da:    bf28        (.      IT       CS
        0x0000c1dc:    c178        x.      STMCS    r1!,{r3-r6}
        0x0000c1de:    d8fb        ..      BHI      0xc1d8 ; __scatterload_zeroinit + 8
        0x0000c1e0:    0752        R.      LSLS     r2,r2,#29
        0x0000c1e2:    bf28        (.      IT       CS
        0x0000c1e4:    c130        0.      STMCS    r1!,{r4,r5}
        0x0000c1e6:    bf48        H.      IT       MI
        0x0000c1e8:    600b        .`      STRMI    r3,[r1,#0]
        0x0000c1ea:    4770        pG      BX       lr
    .ARM.Collect$$libinit$$00000000
    __rt_lib_init
        0x0000c1ec:    b51f        ..      PUSH     {r0-r4,lr}
    .ARM.Collect$$libinit$$00000001
    __rt_lib_init_fp_1
        0x0000c1ee:    f004fd32    ..2.    BL       _fp_init ; 0x10c56
    .ARM.Collect$$libinit$$00000004
    .ARM.Collect$$libinit$$0000000A
    .ARM.Collect$$libinit$$0000000C
    .ARM.Collect$$libinit$$0000000E
    .ARM.Collect$$libinit$$00000011
    .ARM.Collect$$libinit$$00000013
    .ARM.Collect$$libinit$$00000015
    .ARM.Collect$$libinit$$00000017
    .ARM.Collect$$libinit$$00000019
    .ARM.Collect$$libinit$$0000001B
    .ARM.Collect$$libinit$$0000001D
    .ARM.Collect$$libinit$$0000001F
    .ARM.Collect$$libinit$$00000021
    .ARM.Collect$$libinit$$00000023
    .ARM.Collect$$libinit$$00000025
    .ARM.Collect$$libinit$$0000002C
    .ARM.Collect$$libinit$$0000002E
    .ARM.Collect$$libinit$$00000030
    .ARM.Collect$$libinit$$00000032
    .ARM.Collect$$libinit$$00000033
    __rt_lib_init_alloca_1
    __rt_lib_init_argv_1
    __rt_lib_init_atexit_1
    __rt_lib_init_clock_1
    __rt_lib_init_cpp_1
    __rt_lib_init_exceptions_1
    __rt_lib_init_fp_trap_1
    __rt_lib_init_getenv_1
    __rt_lib_init_heap_1
    __rt_lib_init_lc_collate_1
    __rt_lib_init_lc_ctype_1
    __rt_lib_init_lc_monetary_1
    __rt_lib_init_lc_numeric_1
    __rt_lib_init_lc_time_1
    __rt_lib_init_preinit_1
    __rt_lib_init_rand_1
    __rt_lib_init_return
    __rt_lib_init_signal_1
    __rt_lib_init_stdio_1
    __rt_lib_init_user_alloc_1
        0x0000c1f2:    bd1f        ..      POP      {r0-r4,pc}
    .ARM.Collect$$libshutdown$$00000000
    __rt_lib_shutdown
        0x0000c1f4:    b510        ..      PUSH     {r4,lr}
    .ARM.Collect$$libshutdown$$00000002
    .ARM.Collect$$libshutdown$$00000004
    .ARM.Collect$$libshutdown$$00000007
    .ARM.Collect$$libshutdown$$0000000A
    .ARM.Collect$$libshutdown$$0000000C
    .ARM.Collect$$libshutdown$$0000000F
    .ARM.Collect$$libshutdown$$00000010
    __rt_lib_shutdown_cpp_1
    __rt_lib_shutdown_fp_trap_1
    __rt_lib_shutdown_heap_1
    __rt_lib_shutdown_return
    __rt_lib_shutdown_signal_1
    __rt_lib_shutdown_stdio_1
    __rt_lib_shutdown_user_alloc_1
        0x0000c1f6:    bd10        ..      POP      {r4,pc}
    .ARM.Collect$$rtentry$$00000000
    .ARM.Collect$$rtentry$$00000002
    .ARM.Collect$$rtentry$$00000004
    __rt_entry
    __rt_entry_presh_1
    __rt_entry_sh
        0x0000c1f8:    f000f8b6    ....    BL       __user_setup_stackheap ; 0xc368
        0x0000c1fc:    4611        .F      MOV      r1,r2
    .ARM.Collect$$rtentry$$00000009
    .ARM.Collect$$rtentry$$0000000A
    __rt_entry_li
    __rt_entry_postsh_1
        0x0000c1fe:    f7fffff5    ....    BL       __rt_lib_init ; 0xc1ec
    .ARM.Collect$$rtentry$$0000000C
    .ARM.Collect$$rtentry$$0000000D
    __rt_entry_main
    __rt_entry_postli_1
        0x0000c202:    f003fea9    ....    BL       main ; 0xff58
        0x0000c206:    f000f8d4    ....    BL       exit ; 0xc3b2
    .ARM.Collect$$rtexit$$00000000
    __rt_exit
        0x0000c20a:    b403        ..      PUSH     {r0,r1}
    .ARM.Collect$$rtexit$$00000002
    .ARM.Collect$$rtexit$$00000003
    __rt_exit_ls
    __rt_exit_prels_1
        0x0000c20c:    f7fffff2    ....    BL       __rt_lib_shutdown ; 0xc1f4
    .ARM.Collect$$rtexit$$00000004
    __rt_exit_exit
        0x0000c210:    bc03        ..      POP      {r0,r1}
        0x0000c212:    f000f8db    ....    BL       _sys_exit ; 0xc3cc
        0x0000c216:    0000        ..      MOVS     r0,r0
    .emb_text
    $v0
    __asm___20_mspi_octal_example_c_eee66a02__xip_test_function
        0x0000c218:    bf00        ..      NOP      
        0x0000c21a:    bf00        ..      NOP      
        0x0000c21c:    bf00        ..      NOP      
        0x0000c21e:    bf00        ..      NOP      
        0x0000c220:    bf00        ..      NOP      
        0x0000c222:    bf00        ..      NOP      
        0x0000c224:    bf00        ..      NOP      
        0x0000c226:    bf00        ..      NOP      
        0x0000c228:    bf00        ..      NOP      
        0x0000c22a:    bf00        ..      NOP      
        0x0000c22c:    bf00        ..      NOP      
        0x0000c22e:    bf00        ..      NOP      
        0x0000c230:    bf00        ..      NOP      
        0x0000c232:    bf00        ..      NOP      
        0x0000c234:    bf00        ..      NOP      
        0x0000c236:    bf00        ..      NOP      
        0x0000c238:    bf00        ..      NOP      
        0x0000c23a:    bf00        ..      NOP      
        0x0000c23c:    bf00        ..      NOP      
        0x0000c23e:    bf00        ..      NOP      
        0x0000c240:    bf00        ..      NOP      
        0x0000c242:    bf00        ..      NOP      
        0x0000c244:    bf00        ..      NOP      
        0x0000c246:    bf00        ..      NOP      
        0x0000c248:    bf00        ..      NOP      
        0x0000c24a:    bf00        ..      NOP      
        0x0000c24c:    bf00        ..      NOP      
        0x0000c24e:    bf00        ..      NOP      
        0x0000c250:    bf00        ..      NOP      
        0x0000c252:    bf00        ..      NOP      
        0x0000c254:    bf00        ..      NOP      
        0x0000c256:    bf00        ..      NOP      
        0x0000c258:    4770        pG      BX       lr
        0x0000c25a:    0000        ..      MOVS     r0,r0
    .emb_text
    $v0
    HardFault_Handler
        0x0000c25c:    b501        ..      PUSH     {r0,lr}
        0x0000c25e:    f01e0f04    ....    TST      lr,#4
        0x0000c262:    bf0a        ..      ITET     EQ
        0x0000c264:    f3ef8008    ....    MRSEQ    r0,MSP
        0x0000c268:    f3ef8009    ....    MRSNE    r0,PSP
        0x0000c26c:    f1100008    ....    ADDSEQ   r0,r0,#8
        0x0000c270:    f002fff2    ....    BL       am_util_faultisr_collect_data ; 0xf258
        0x0000c274:    bd01        ..      POP      {r0,pc}
    getStackedReg
        0x0000c276:    0080        ..      LSLS     r0,r0,#2
        0x0000c278:    1840        @.      ADDS     r0,r0,r1
        0x0000c27a:    6800        .h      LDR      r0,[r0,#0]
        0x0000c27c:    4770        pG      BX       lr
        0x0000c27e:    0000        ..      MOVS     r0,r0
    .emb_text
    $v0
    am_hal_interrupt_master_enable
        0x0000c280:    f3ef8010    ....    MRS      r0,PRIMASK
        0x0000c284:    b662        b.      CPSIE    i
        0x0000c286:    4770        pG      BX       lr
    am_hal_interrupt_master_disable
        0x0000c288:    f3ef8010    ....    MRS      r0,PRIMASK
        0x0000c28c:    b672        r.      CPSID    i
        0x0000c28e:    4770        pG      BX       lr
    am_hal_interrupt_master_set
        0x0000c290:    f3808810    ....    MSR      PRIMASK,r0
        0x0000c294:    4770        pG      BX       lr
        0x0000c296:    0000        ..      MOVS     r0,r0
    .text
    $v0
    __user_initial_stackheap
        0x0000c298:    4802        .H      LDR      r0,[pc,#8] ; [0xc2a4] = 0x100078d8
        0x0000c29a:    4903        .I      LDR      r1,[pc,#12] ; [0xc2a8] = 0x10001150
        0x0000c29c:    4a01        .J      LDR      r2,[pc,#4] ; [0xc2a4] = 0x100078d8
        0x0000c29e:    4b03        .K      LDR      r3,[pc,#12] ; [0xc2ac] = 0x10000150
        0x0000c2a0:    4770        pG      BX       lr
    $d
        0x0000c2a2:    0000        ..      DCW    0
        0x0000c2a4:    100078d8    .x..    DCD    268466392
        0x0000c2a8:    10001150    P...    DCD    268439888
        0x0000c2ac:    10000150    P...    DCD    268435792
    $t
    .text
    __aeabi_memcpy4
    __aeabi_memcpy8
    __rt_memcpy_w
        0x0000c2b0:    b510        ..      PUSH     {r4,lr}
        0x0000c2b2:    3a20         :      SUBS     r2,r2,#0x20
        0x0000c2b4:    f0c0800b    ....    BCC.W    0xc2ce ; __aeabi_memcpy4 + 30
        0x0000c2b8:    e8b15018    ...P    LDM      r1!,{r3,r4,r12,lr}
        0x0000c2bc:    3a20         :      SUBS     r2,r2,#0x20
        0x0000c2be:    e8a05018    ...P    STM      r0!,{r3,r4,r12,lr}
        0x0000c2c2:    e8b15018    ...P    LDM      r1!,{r3,r4,r12,lr}
        0x0000c2c6:    e8a05018    ...P    STM      r0!,{r3,r4,r12,lr}
        0x0000c2ca:    f4bfaff5    ....    BCS.W    0xc2b8 ; __aeabi_memcpy4 + 8
        0x0000c2ce:    ea5f7c02    _..|    LSLS     r12,r2,#28
        0x0000c2d2:    bf24        $.      ITT      CS
        0x0000c2d4:    e8b15018    ...P    LDMCS    r1!,{r3,r4,r12,lr}
        0x0000c2d8:    e8a05018    ...P    STMCS    r0!,{r3,r4,r12,lr}
        0x0000c2dc:    bf44        D.      ITT      MI
        0x0000c2de:    c918        ..      LDMMI    r1!,{r3,r4}
        0x0000c2e0:    c018        ..      STMMI    r0!,{r3,r4}
        0x0000c2e2:    e8bd4010    ...@    POP      {r4,lr}
        0x0000c2e6:    ea5f7c82    _..|    LSLS     r12,r2,#30
        0x0000c2ea:    bf24        $.      ITT      CS
        0x0000c2ec:    f8513b04    Q..;    LDRCS    r3,[r1],#4
        0x0000c2f0:    f8403b04    @..;    STRCS    r3,[r0],#4
        0x0000c2f4:    bf08        ..      IT       EQ
        0x0000c2f6:    4770        pG      BXEQ     lr
    _memcpy_lastbytes_aligned
        0x0000c2f8:    07d2        ..      LSLS     r2,r2,#31
        0x0000c2fa:    bf28        (.      IT       CS
        0x0000c2fc:    f8313b02    1..;    LDRHCS   r3,[r1],#2
        0x0000c300:    bf48        H.      IT       MI
        0x0000c302:    f8112b01    ...+    LDRBMI   r2,[r1],#1
        0x0000c306:    bf28        (.      IT       CS
        0x0000c308:    f8203b02     ..;    STRHCS   r3,[r0],#2
        0x0000c30c:    bf48        H.      IT       MI
        0x0000c30e:    f8002b01    ...+    STRBMI   r2,[r0],#1
        0x0000c312:    4770        pG      BX       lr
    .text
    __aeabi_memclr4
    __aeabi_memclr8
    __rt_memclr_w
        0x0000c314:    f04f0200    O...    MOV      r2,#0
    _memset_w
        0x0000c318:    b500        ..      PUSH     {lr}
        0x0000c31a:    4613        .F      MOV      r3,r2
        0x0000c31c:    4694        .F      MOV      r12,r2
        0x0000c31e:    4696        .F      MOV      lr,r2
        0x0000c320:    3920         9      SUBS     r1,r1,#0x20
        0x0000c322:    bf22        ".      ITTT     CS
        0x0000c324:    e8a0500c    ...P    STMCS    r0!,{r2,r3,r12,lr}
        0x0000c328:    e8a0500c    ...P    STMCS    r0!,{r2,r3,r12,lr}
        0x0000c32c:    f1b10120    .. .    SUBSCS   r1,r1,#0x20
        0x0000c330:    f4bfaff7    ....    BCS.W    0xc322 ; _memset_w + 10
        0x0000c334:    0709        ..      LSLS     r1,r1,#28
        0x0000c336:    bf28        (.      IT       CS
        0x0000c338:    e8a0500c    ...P    STMCS    r0!,{r2,r3,r12,lr}
        0x0000c33c:    bf48        H.      IT       MI
        0x0000c33e:    c00c        ..      STMMI    r0!,{r2,r3}
        0x0000c340:    f85deb04    ]...    POP      {lr}
        0x0000c344:    0089        ..      LSLS     r1,r1,#2
        0x0000c346:    bf28        (.      IT       CS
        0x0000c348:    f8402b04    @..+    STRCS    r2,[r0],#4
        0x0000c34c:    bf08        ..      IT       EQ
        0x0000c34e:    4770        pG      BXEQ     lr
        0x0000c350:    bf48        H.      IT       MI
        0x0000c352:    f8202b02     ..+    STRHMI   r2,[r0],#2
        0x0000c356:    f0114f80    ...O    TST      r1,#0x40000000
        0x0000c35a:    bf18        ..      IT       NE
        0x0000c35c:    f8002b01    ...+    STRBNE   r2,[r0],#1
        0x0000c360:    4770        pG      BX       lr
    .text
    __use_two_region_memory
        0x0000c362:    4770        pG      BX       lr
    __rt_heap_escrow$2region
        0x0000c364:    4770        pG      BX       lr
    __rt_heap_expand$2region
        0x0000c366:    4770        pG      BX       lr
    .text
    __user_setup_stackheap
        0x0000c368:    4675        uF      MOV      r5,lr
        0x0000c36a:    f000f82b    ..+.    BL       __user_libspace ; 0xc3c4
        0x0000c36e:    46ae        .F      MOV      lr,r5
        0x0000c370:    0005        ..      MOVS     r5,r0
        0x0000c372:    4669        iF      MOV      r1,sp
        0x0000c374:    4653        SF      MOV      r3,r10
        0x0000c376:    f0200007     ...    BIC      r0,r0,#7
        0x0000c37a:    4685        .F      MOV      sp,r0
        0x0000c37c:    b018        ..      ADD      sp,sp,#0x60
        0x0000c37e:    b520         .      PUSH     {r5,lr}
        0x0000c380:    f7ffff8a    ....    BL       __user_initial_stackheap ; 0xc298
        0x0000c384:    e8bd4020    .. @    POP      {r5,lr}
        0x0000c388:    f04f0600    O...    MOV      r6,#0
        0x0000c38c:    f04f0700    O...    MOV      r7,#0
        0x0000c390:    f04f0800    O...    MOV      r8,#0
        0x0000c394:    f04f0b00    O...    MOV      r11,#0
        0x0000c398:    f0210107    !...    BIC      r1,r1,#7
        0x0000c39c:    46ac        .F      MOV      r12,r5
        0x0000c39e:    e8ac09c0    ....    STM      r12!,{r6-r8,r11}
        0x0000c3a2:    e8ac09c0    ....    STM      r12!,{r6-r8,r11}
        0x0000c3a6:    e8ac09c0    ....    STM      r12!,{r6-r8,r11}
        0x0000c3aa:    e8ac09c0    ....    STM      r12!,{r6-r8,r11}
        0x0000c3ae:    468d        .F      MOV      sp,r1
        0x0000c3b0:    4770        pG      BX       lr
    .text
    exit
        0x0000c3b2:    b510        ..      PUSH     {r4,lr}
        0x0000c3b4:    4604        .F      MOV      r4,r0
        0x0000c3b6:    f3af8000    ....    NOP.W    
        0x0000c3ba:    4620         F      MOV      r0,r4
        0x0000c3bc:    e8bd4010    ...@    POP      {r4,lr}
        0x0000c3c0:    f7ffbf23    ..#.    B.W      __rt_exit ; 0xc20a
    .text
    __user_libspace
    __user_perproc_libspace
    __user_perthread_libspace
        0x0000c3c4:    4800        .H      LDR      r0,[pc,#0] ; [0xc3c8] = 0x10007878
        0x0000c3c6:    4770        pG      BX       lr
    $d
        0x0000c3c8:    10007878    xx..    DCD    268466296
    $t
    .text
    _sys_exit
        0x0000c3cc:    4901        .I      LDR      r1,[pc,#4] ; [0xc3d4] = 0x20026
        0x0000c3ce:    2018        .       MOVS     r0,#0x18
        0x0000c3d0:    beab        ..      BKPT     #0xab
        0x0000c3d2:    e7fe        ..      B        0xc3d2 ; _sys_exit + 6
    $d
        0x0000c3d4:    00020026    &...    DCD    131110
    $t
    .text
    __I$use$semihosting
    __use_no_semihosting_swi
        0x0000c3d8:    4770        pG      BX       lr
    .text
    __semihosting_library_function
        0x0000c3da:    0000        ..      MOVS     r0,r0
    i.am_bsp_itm_printf_enable
    am_bsp_itm_printf_enable
        0x0000c3dc:    b500        ..      PUSH     {lr}
        0x0000c3de:    490a        .I      LDR      r1,[pc,#40] ; [0xc408] = 0x100000f0
        0x0000c3e0:    b085        ..      SUB      sp,sp,#0x14
        0x0000c3e2:    2001        .       MOVS     r0,#1
        0x0000c3e4:    6008        .`      STR      r0,[r1,#0]
        0x0000c3e6:    f001fbed    ....    BL       am_hal_itm_enable ; 0xdbc4
        0x0000c3ea:    4808        .H      LDR      r0,[pc,#32] ; [0xc40c] = 0xf4240
        0x0000c3ec:    9000        ..      STR      r0,[sp,#0]
        0x0000c3ee:    4668        hF      MOV      r0,sp
        0x0000c3f0:    f002fec8    ....    BL       am_hal_tpiu_enable ; 0xf184
        0x0000c3f4:    4806        .H      LDR      r0,[pc,#24] ; [0xc410] = 0x11248
        0x0000c3f6:    6801        .h      LDR      r1,[r0,#0]
        0x0000c3f8:    2029        )       MOVS     r0,#0x29
        0x0000c3fa:    f001fa63    ..c.    BL       am_hal_gpio_pinconfig ; 0xd8c4
        0x0000c3fe:    4805        .H      LDR      r0,[pc,#20] ; [0xc414] = 0xdc0d
        0x0000c400:    f003f9ba    ....    BL       am_util_stdio_printf_init ; 0xf778
        0x0000c404:    b005        ..      ADD      sp,sp,#0x14
        0x0000c406:    bd00        ..      POP      {pc}
    $d
        0x0000c408:    100000f0    ....    DCD    268435696
        0x0000c40c:    000f4240    @B..    DCD    1000000
        0x0000c410:    00011248    H...    DCD    70216
        0x0000c414:    0000dc0d    ....    DCD    56333
    $t
    i.am_bsp_low_power_init
    am_bsp_low_power_init
        0x0000c418:    e92d41f0    -..A    PUSH     {r4-r8,lr}
        0x0000c41c:    f002fd36    ..6.    BL       am_hal_pwrctrl_low_power_init ; 0xee8c
        0x0000c420:    f002fe70    ..p.    BL       am_hal_rtc_osc_disable ; 0xf104
        0x0000c424:    4f0b        .O      LDR      r7,[pc,#44] ; [0xc454] = 0x100000f8
        0x0000c426:    4e0c        .N      LDR      r6,[pc,#48] ; [0xc458] = 0x10fb4
        0x0000c428:    2400        .$      MOVS     r4,#0
        0x0000c42a:    bf00        ..      NOP      
        0x0000c42c:    f8575034    W.4P    LDR      r5,[r7,r4,LSL #3]
        0x0000c430:    6831        1h      LDR      r1,[r6,#0]
        0x0000c432:    4628        (F      MOV      r0,r5
        0x0000c434:    f001fa46    ..F.    BL       am_hal_gpio_pinconfig ; 0xd8c4
        0x0000c438:    2103        .!      MOVS     r1,#3
        0x0000c43a:    4628        (F      MOV      r0,r5
        0x0000c43c:    f001fb82    ....    BL       am_hal_gpio_state_write ; 0xdb44
        0x0000c440:    2100        .!      MOVS     r1,#0
        0x0000c442:    4628        (F      MOV      r0,r5
        0x0000c444:    f001fb7e    ..~.    BL       am_hal_gpio_state_write ; 0xdb44
        0x0000c448:    1c64        d.      ADDS     r4,r4,#1
        0x0000c44a:    2c05        .,      CMP      r4,#5
        0x0000c44c:    d3ee        ..      BCC      0xc42c ; am_bsp_low_power_init + 20
        0x0000c44e:    e8bd81f0    ....    POP      {r4-r8,pc}
    $d
        0x0000c452:    0000        ..      DCW    0
        0x0000c454:    100000f8    ....    DCD    268435704
        0x0000c458:    00010fb4    ....    DCD    69556
    $t
    i.am_bsp_mspi_pins_enable
    am_bsp_mspi_pins_enable
        0x0000c45c:    2800        .(      CMP      r0,#0
        0x0000c45e:    bf18        ..      IT       NE
        0x0000c460:    4770        pG      BXNE     lr
        0x0000c462:    b510        ..      PUSH     {r4,lr}
        0x0000c464:    2914        .)      CMP      r1,#0x14
        0x0000c466:    bf28        (.      IT       CS
        0x0000c468:    bd10        ..      POPCS    {r4,pc}
        0x0000c46a:    e8dff001    ....    TBB      [pc,r1]
    $d
        0x0000c46e:    200a        .       DCW    8202
        0x0000c470:    5636200a    . 6V    DCD    1446387722
        0x0000c474:    dedeaa76    v...    DCD    3739134582
        0x0000c478:    200a200a    . .     DCD    537534474
        0x0000c47c:    56365636    6V6V    DCD    1446401590
        0x0000c480:    200a        .       DCW    8202
    $t
        0x0000c482:    486d        mH      LDR      r0,[pc,#436] ; [0xc638] = 0x1121c
        0x0000c484:    6801        .h      LDR      r1,[r0,#0]
        0x0000c486:    2013        .       MOVS     r0,#0x13
        0x0000c488:    f001fa1c    ....    BL       am_hal_gpio_pinconfig ; 0xd8c4
        0x0000c48c:    486b        kH      LDR      r0,[pc,#428] ; [0xc63c] = 0x11224
        0x0000c48e:    6801        .h      LDR      r1,[r0,#0]
        0x0000c490:    2016        .       MOVS     r0,#0x16
        0x0000c492:    f001fa17    ....    BL       am_hal_gpio_pinconfig ; 0xd8c4
        0x0000c496:    486a        jH      LDR      r0,[pc,#424] ; [0xc640] = 0x11228
        0x0000c498:    6801        .h      LDR      r1,[r0,#0]
        0x0000c49a:    201a        .       MOVS     r0,#0x1a
        0x0000c49c:    f001fa12    ....    BL       am_hal_gpio_pinconfig ; 0xd8c4
        0x0000c4a0:    4868        hH      LDR      r0,[pc,#416] ; [0xc644] = 0x11244
        0x0000c4a2:    6801        .h      LDR      r1,[r0,#0]
        0x0000c4a4:    e8bd4010    ...@    POP      {r4,lr}
        0x0000c4a8:    2018        .       MOVS     r0,#0x18
        0x0000c4aa:    f001ba0b    ....    B.W      am_hal_gpio_pinconfig ; 0xd8c4
        0x0000c4ae:    4866        fH      LDR      r0,[pc,#408] ; [0xc648] = 0x11220
        0x0000c4b0:    6801        .h      LDR      r1,[r0,#0]
        0x0000c4b2:    2029        )       MOVS     r0,#0x29
        0x0000c4b4:    f001fa06    ....    BL       am_hal_gpio_pinconfig ; 0xd8c4
        0x0000c4b8:    4864        dH      LDR      r0,[pc,#400] ; [0xc64c] = 0x11234
        0x0000c4ba:    6801        .h      LDR      r1,[r0,#0]
        0x0000c4bc:    2000        .       MOVS     r0,#0
        0x0000c4be:    f001fa01    ....    BL       am_hal_gpio_pinconfig ; 0xd8c4
        0x0000c4c2:    4863        cH      LDR      r0,[pc,#396] ; [0xc650] = 0x11238
        0x0000c4c4:    6801        .h      LDR      r1,[r0,#0]
        0x0000c4c6:    2001        .       MOVS     r0,#1
        0x0000c4c8:    f001f9fc    ....    BL       am_hal_gpio_pinconfig ; 0xd8c4
        0x0000c4cc:    485d        ]H      LDR      r0,[pc,#372] ; [0xc644] = 0x11244
        0x0000c4ce:    6801        .h      LDR      r1,[r0,#0]
        0x0000c4d0:    e8bd4010    ...@    POP      {r4,lr}
        0x0000c4d4:    2018        .       MOVS     r0,#0x18
        0x0000c4d6:    f001b9f5    ....    B.W      am_hal_gpio_pinconfig ; 0xd8c4
        0x0000c4da:    4857        WH      LDR      r0,[pc,#348] ; [0xc638] = 0x1121c
        0x0000c4dc:    6801        .h      LDR      r1,[r0,#0]
        0x0000c4de:    2013        .       MOVS     r0,#0x13
        0x0000c4e0:    f001f9f0    ....    BL       am_hal_gpio_pinconfig ; 0xd8c4
        0x0000c4e4:    4855        UH      LDR      r0,[pc,#340] ; [0xc63c] = 0x11224
        0x0000c4e6:    6801        .h      LDR      r1,[r0,#0]
        0x0000c4e8:    2016        .       MOVS     r0,#0x16
        0x0000c4ea:    f001f9eb    ....    BL       am_hal_gpio_pinconfig ; 0xd8c4
        0x0000c4ee:    4854        TH      LDR      r0,[pc,#336] ; [0xc640] = 0x11228
        0x0000c4f0:    6801        .h      LDR      r1,[r0,#0]
        0x0000c4f2:    201a        .       MOVS     r0,#0x1a
        0x0000c4f4:    f001f9e6    ....    BL       am_hal_gpio_pinconfig ; 0xd8c4
        0x0000c4f8:    4856        VH      LDR      r0,[pc,#344] ; [0xc654] = 0x1122c
        0x0000c4fa:    6801        .h      LDR      r1,[r0,#0]
        0x0000c4fc:    2004        .       MOVS     r0,#4
        0x0000c4fe:    f001f9e1    ....    BL       am_hal_gpio_pinconfig ; 0xd8c4
        0x0000c502:    4855        UH      LDR      r0,[pc,#340] ; [0xc658] = 0x11230
        0x0000c504:    6801        .h      LDR      r1,[r0,#0]
        0x0000c506:    2017        .       MOVS     r0,#0x17
        0x0000c508:    f001f9dc    ....    BL       am_hal_gpio_pinconfig ; 0xd8c4
        0x0000c50c:    484d        MH      LDR      r0,[pc,#308] ; [0xc644] = 0x11244
        0x0000c50e:    6801        .h      LDR      r1,[r0,#0]
        0x0000c510:    e8bd4010    ...@    POP      {r4,lr}
        0x0000c514:    2018        .       MOVS     r0,#0x18
        0x0000c516:    f001b9d5    ....    B.W      am_hal_gpio_pinconfig ; 0xd8c4
        0x0000c51a:    484b        KH      LDR      r0,[pc,#300] ; [0xc648] = 0x11220
        0x0000c51c:    6801        .h      LDR      r1,[r0,#0]
        0x0000c51e:    2029        )       MOVS     r0,#0x29
        0x0000c520:    f001f9d0    ....    BL       am_hal_gpio_pinconfig ; 0xd8c4
        0x0000c524:    4849        IH      LDR      r0,[pc,#292] ; [0xc64c] = 0x11234
        0x0000c526:    6801        .h      LDR      r1,[r0,#0]
        0x0000c528:    2000        .       MOVS     r0,#0
        0x0000c52a:    f001f9cb    ....    BL       am_hal_gpio_pinconfig ; 0xd8c4
        0x0000c52e:    4848        HH      LDR      r0,[pc,#288] ; [0xc650] = 0x11238
        0x0000c530:    6801        .h      LDR      r1,[r0,#0]
        0x0000c532:    2001        .       MOVS     r0,#1
        0x0000c534:    f001f9c6    ....    BL       am_hal_gpio_pinconfig ; 0xd8c4
        0x0000c538:    4848        HH      LDR      r0,[pc,#288] ; [0xc65c] = 0x1123c
        0x0000c53a:    6801        .h      LDR      r1,[r0,#0]
        0x0000c53c:    2002        .       MOVS     r0,#2
        0x0000c53e:    f001f9c1    ....    BL       am_hal_gpio_pinconfig ; 0xd8c4
        0x0000c542:    4847        GH      LDR      r0,[pc,#284] ; [0xc660] = 0x11240
        0x0000c544:    6801        .h      LDR      r1,[r0,#0]
        0x0000c546:    2003        .       MOVS     r0,#3
        0x0000c548:    f001f9bc    ....    BL       am_hal_gpio_pinconfig ; 0xd8c4
        0x0000c54c:    483d        =H      LDR      r0,[pc,#244] ; [0xc644] = 0x11244
        0x0000c54e:    6801        .h      LDR      r1,[r0,#0]
        0x0000c550:    e8bd4010    ...@    POP      {r4,lr}
        0x0000c554:    2018        .       MOVS     r0,#0x18
        0x0000c556:    f001b9b5    ....    B.W      am_hal_gpio_pinconfig ; 0xd8c4
        0x0000c55a:    4837        7H      LDR      r0,[pc,#220] ; [0xc638] = 0x1121c
        0x0000c55c:    6801        .h      LDR      r1,[r0,#0]
        0x0000c55e:    2013        .       MOVS     r0,#0x13
        0x0000c560:    f001f9b0    ....    BL       am_hal_gpio_pinconfig ; 0xd8c4
        0x0000c564:    4835        5H      LDR      r0,[pc,#212] ; [0xc63c] = 0x11224
        0x0000c566:    6801        .h      LDR      r1,[r0,#0]
        0x0000c568:    2016        .       MOVS     r0,#0x16
        0x0000c56a:    f001f9ab    ....    BL       am_hal_gpio_pinconfig ; 0xd8c4
        0x0000c56e:    4834        4H      LDR      r0,[pc,#208] ; [0xc640] = 0x11228
        0x0000c570:    6801        .h      LDR      r1,[r0,#0]
        0x0000c572:    201a        .       MOVS     r0,#0x1a
        0x0000c574:    f001f9a6    ....    BL       am_hal_gpio_pinconfig ; 0xd8c4
        0x0000c578:    4836        6H      LDR      r0,[pc,#216] ; [0xc654] = 0x1122c
        0x0000c57a:    6801        .h      LDR      r1,[r0,#0]
        0x0000c57c:    2004        .       MOVS     r0,#4
        0x0000c57e:    f001f9a1    ....    BL       am_hal_gpio_pinconfig ; 0xd8c4
        0x0000c582:    4835        5H      LDR      r0,[pc,#212] ; [0xc658] = 0x11230
        0x0000c584:    6801        .h      LDR      r1,[r0,#0]
        0x0000c586:    2017        .       MOVS     r0,#0x17
        0x0000c588:    f001f99c    ....    BL       am_hal_gpio_pinconfig ; 0xd8c4
        0x0000c58c:    482f        /H      LDR      r0,[pc,#188] ; [0xc64c] = 0x11234
        0x0000c58e:    6801        .h      LDR      r1,[r0,#0]
        0x0000c590:    2000        .       MOVS     r0,#0
        0x0000c592:    f001f997    ....    BL       am_hal_gpio_pinconfig ; 0xd8c4
        0x0000c596:    482e        .H      LDR      r0,[pc,#184] ; [0xc650] = 0x11238
        0x0000c598:    6801        .h      LDR      r1,[r0,#0]
        0x0000c59a:    2001        .       MOVS     r0,#1
        0x0000c59c:    f001f992    ....    BL       am_hal_gpio_pinconfig ; 0xd8c4
        0x0000c5a0:    482e        .H      LDR      r0,[pc,#184] ; [0xc65c] = 0x1123c
        0x0000c5a2:    6801        .h      LDR      r1,[r0,#0]
        0x0000c5a4:    2002        .       MOVS     r0,#2
        0x0000c5a6:    f001f98d    ....    BL       am_hal_gpio_pinconfig ; 0xd8c4
        0x0000c5aa:    482d        -H      LDR      r0,[pc,#180] ; [0xc660] = 0x11240
        0x0000c5ac:    6801        .h      LDR      r1,[r0,#0]
        0x0000c5ae:    2003        .       MOVS     r0,#3
        0x0000c5b0:    f001f988    ....    BL       am_hal_gpio_pinconfig ; 0xd8c4
        0x0000c5b4:    4823        #H      LDR      r0,[pc,#140] ; [0xc644] = 0x11244
        0x0000c5b6:    6801        .h      LDR      r1,[r0,#0]
        0x0000c5b8:    e8bd4010    ...@    POP      {r4,lr}
        0x0000c5bc:    2018        .       MOVS     r0,#0x18
        0x0000c5be:    f001b981    ....    B.W      am_hal_gpio_pinconfig ; 0xd8c4
        0x0000c5c2:    4821        !H      LDR      r0,[pc,#132] ; [0xc648] = 0x11220
        0x0000c5c4:    6801        .h      LDR      r1,[r0,#0]
        0x0000c5c6:    2029        )       MOVS     r0,#0x29
        0x0000c5c8:    f001f97c    ..|.    BL       am_hal_gpio_pinconfig ; 0xd8c4
        0x0000c5cc:    481b        .H      LDR      r0,[pc,#108] ; [0xc63c] = 0x11224
        0x0000c5ce:    6801        .h      LDR      r1,[r0,#0]
        0x0000c5d0:    2016        .       MOVS     r0,#0x16
        0x0000c5d2:    f001f977    ..w.    BL       am_hal_gpio_pinconfig ; 0xd8c4
        0x0000c5d6:    481a        .H      LDR      r0,[pc,#104] ; [0xc640] = 0x11228
        0x0000c5d8:    6801        .h      LDR      r1,[r0,#0]
        0x0000c5da:    201a        .       MOVS     r0,#0x1a
        0x0000c5dc:    f001f972    ..r.    BL       am_hal_gpio_pinconfig ; 0xd8c4
        0x0000c5e0:    481c        .H      LDR      r0,[pc,#112] ; [0xc654] = 0x1122c
        0x0000c5e2:    6801        .h      LDR      r1,[r0,#0]
        0x0000c5e4:    2004        .       MOVS     r0,#4
        0x0000c5e6:    f001f96d    ..m.    BL       am_hal_gpio_pinconfig ; 0xd8c4
        0x0000c5ea:    481b        .H      LDR      r0,[pc,#108] ; [0xc658] = 0x11230
        0x0000c5ec:    6801        .h      LDR      r1,[r0,#0]
        0x0000c5ee:    2017        .       MOVS     r0,#0x17
        0x0000c5f0:    f001f968    ..h.    BL       am_hal_gpio_pinconfig ; 0xd8c4
        0x0000c5f4:    4815        .H      LDR      r0,[pc,#84] ; [0xc64c] = 0x11234
        0x0000c5f6:    6801        .h      LDR      r1,[r0,#0]
        0x0000c5f8:    2000        .       MOVS     r0,#0
        0x0000c5fa:    f001f963    ..c.    BL       am_hal_gpio_pinconfig ; 0xd8c4
        0x0000c5fe:    4814        .H      LDR      r0,[pc,#80] ; [0xc650] = 0x11238
        0x0000c600:    6801        .h      LDR      r1,[r0,#0]
        0x0000c602:    2001        .       MOVS     r0,#1
        0x0000c604:    f001f95e    ..^.    BL       am_hal_gpio_pinconfig ; 0xd8c4
        0x0000c608:    4814        .H      LDR      r0,[pc,#80] ; [0xc65c] = 0x1123c
        0x0000c60a:    6801        .h      LDR      r1,[r0,#0]
        0x0000c60c:    2002        .       MOVS     r0,#2
        0x0000c60e:    f001f959    ..Y.    BL       am_hal_gpio_pinconfig ; 0xd8c4
        0x0000c612:    4813        .H      LDR      r0,[pc,#76] ; [0xc660] = 0x11240
        0x0000c614:    6801        .h      LDR      r1,[r0,#0]
        0x0000c616:    2003        .       MOVS     r0,#3
        0x0000c618:    f001f954    ..T.    BL       am_hal_gpio_pinconfig ; 0xd8c4
        0x0000c61c:    4809        .H      LDR      r0,[pc,#36] ; [0xc644] = 0x11244
        0x0000c61e:    6801        .h      LDR      r1,[r0,#0]
        0x0000c620:    e8bd4010    ...@    POP      {r4,lr}
        0x0000c624:    2018        .       MOVS     r0,#0x18
        0x0000c626:    f001b94d    ..M.    B.W      am_hal_gpio_pinconfig ; 0xd8c4
        0x0000c62a:    4803        .H      LDR      r0,[pc,#12] ; [0xc638] = 0x1121c
        0x0000c62c:    6801        .h      LDR      r1,[r0,#0]
        0x0000c62e:    2013        .       MOVS     r0,#0x13
        0x0000c630:    f001f948    ..H.    BL       am_hal_gpio_pinconfig ; 0xd8c4
        0x0000c634:    e7c5        ..      B        0xc5c2 ; am_bsp_mspi_pins_enable + 358
    $d
        0x0000c636:    0000        ..      DCW    0
        0x0000c638:    0001121c    ....    DCD    70172
        0x0000c63c:    00011224    $...    DCD    70180
        0x0000c640:    00011228    (...    DCD    70184
        0x0000c644:    00011244    D...    DCD    70212
        0x0000c648:    00011220     ...    DCD    70176
        0x0000c64c:    00011234    4...    DCD    70196
        0x0000c650:    00011238    8...    DCD    70200
        0x0000c654:    0001122c    ,...    DCD    70188
        0x0000c658:    00011230    0...    DCD    70192
        0x0000c65c:    0001123c    <...    DCD    70204
        0x0000c660:    00011240    @...    DCD    70208
    $t
    i.am_device_deinit_flash
    am_device_deinit_flash
        0x0000c664:    b570        p.      PUSH     {r4-r6,lr}
        0x0000c666:    b0a2        ..      SUB      sp,sp,#0x88
        0x0000c668:    4604        .F      MOV      r4,r0
        0x0000c66a:    4626        &F      MOV      r6,r4
        0x0000c66c:    2180        .!      MOVS     r1,#0x80
        0x0000c66e:    a802        ..      ADD      r0,sp,#8
        0x0000c670:    f7fffe50    ..P.    BL       __aeabi_memclr4 ; 0xc314
        0x0000c674:    7b70        p{      LDRB     r0,[r6,#0xd]
        0x0000c676:    2808        .(      CMP      r0,#8
        0x0000c678:    d21a        ..      BCS      0xc6b0 ; am_device_deinit_flash + 76
        0x0000c67a:    e8dff000    ....    TBB      [pc,r0]
    $d
        0x0000c67e:    0504        ..      DCW    1284
        0x0000c680:    07061919    ....    DCD    117840153
        0x0000c684:    0908        ..      DCW    2312
    $t
        0x0000c686:    bf00        ..      NOP      
        0x0000c688:    e014        ..      B        0xc6b4 ; am_device_deinit_flash + 80
        0x0000c68a:    bf00        ..      NOP      
        0x0000c68c:    bf00        ..      NOP      
        0x0000c68e:    bf00        ..      NOP      
        0x0000c690:    2000        .       MOVS     r0,#0
        0x0000c692:    a902        ..      ADD      r1,sp,#8
        0x0000c694:    4603        .F      MOV      r3,r0
        0x0000c696:    4602        .F      MOV      r2,r0
        0x0000c698:    e9cd1000    ....    STRD     r1,r0,[sp,#0]
        0x0000c69c:    21ff        .!      MOVS     r1,#0xff
        0x0000c69e:    4620         F      MOV      r0,r4
        0x0000c6a0:    f000f894    ....    BL       am_devices_mspi_atxp032_command_write ; 0xc7cc
        0x0000c6a4:    4605        .F      MOV      r5,r0
        0x0000c6a6:    b115        ..      CBZ      r5,0xc6ae ; am_device_deinit_flash + 74
        0x0000c6a8:    2001        .       MOVS     r0,#1
        0x0000c6aa:    b022        ".      ADD      sp,sp,#0x88
        0x0000c6ac:    bd70        p.      POP      {r4-r6,pc}
        0x0000c6ae:    e001        ..      B        0xc6b4 ; am_device_deinit_flash + 80
        0x0000c6b0:    2001        .       MOVS     r0,#1
        0x0000c6b2:    e7fa        ..      B        0xc6aa ; am_device_deinit_flash + 70
        0x0000c6b4:    bf00        ..      NOP      
        0x0000c6b6:    2000        .       MOVS     r0,#0
        0x0000c6b8:    e7f7        ..      B        0xc6aa ; am_device_deinit_flash + 70
    i.am_device_init_flash
    am_device_init_flash
        0x0000c6ba:    b530        0.      PUSH     {r4,r5,lr}
        0x0000c6bc:    b0a3        ..      SUB      sp,sp,#0x8c
        0x0000c6be:    4604        .F      MOV      r4,r0
        0x0000c6c0:    2180        .!      MOVS     r1,#0x80
        0x0000c6c2:    a803        ..      ADD      r0,sp,#0xc
        0x0000c6c4:    f7fffe26    ..&.    BL       __aeabi_memclr4 ; 0xc314
        0x0000c6c8:    4625        %F      MOV      r5,r4
        0x0000c6ca:    2000        .       MOVS     r0,#0
        0x0000c6cc:    a903        ..      ADD      r1,sp,#0xc
        0x0000c6ce:    4603        .F      MOV      r3,r0
        0x0000c6d0:    4602        .F      MOV      r2,r0
        0x0000c6d2:    e9cd1000    ....    STRD     r1,r0,[sp,#0]
        0x0000c6d6:    2106        .!      MOVS     r1,#6
        0x0000c6d8:    4620         F      MOV      r0,r4
        0x0000c6da:    f000f877    ..w.    BL       am_devices_mspi_atxp032_command_write ; 0xc7cc
        0x0000c6de:    2003        .       MOVS     r0,#3
        0x0000c6e0:    9003        ..      STR      r0,[sp,#0xc]
        0x0000c6e2:    2002        .       MOVS     r0,#2
        0x0000c6e4:    a903        ..      ADD      r1,sp,#0xc
        0x0000c6e6:    2300        .#      MOVS     r3,#0
        0x0000c6e8:    461a        .F      MOV      r2,r3
        0x0000c6ea:    e9cd1000    ....    STRD     r1,r0,[sp,#0]
        0x0000c6ee:    2171        q!      MOVS     r1,#0x71
        0x0000c6f0:    4620         F      MOV      r0,r4
        0x0000c6f2:    f000f86b    ..k.    BL       am_devices_mspi_atxp032_command_write ; 0xc7cc
        0x0000c6f6:    2000        .       MOVS     r0,#0
        0x0000c6f8:    a903        ..      ADD      r1,sp,#0xc
        0x0000c6fa:    4603        .F      MOV      r3,r0
        0x0000c6fc:    4602        .F      MOV      r2,r0
        0x0000c6fe:    e9cd1000    ....    STRD     r1,r0,[sp,#0]
        0x0000c702:    2106        .!      MOVS     r1,#6
        0x0000c704:    4620         F      MOV      r0,r4
        0x0000c706:    f000f861    ..a.    BL       am_devices_mspi_atxp032_command_write ; 0xc7cc
        0x0000c70a:    7b68        h{      LDRB     r0,[r5,#0xd]
        0x0000c70c:    2808        .(      CMP      r0,#8
        0x0000c70e:    d229        ).      BCS      0xc764 ; am_device_init_flash + 170
        0x0000c710:    e8dff000    ....    TBB      [pc,r0]
    $d
        0x0000c714:    28280504    ..((    DCD    673711364
        0x0000c718:    1d1c1110    ....    DCD    488378640
    $t
        0x0000c71c:    bf00        ..      NOP      
        0x0000c71e:    2000        .       MOVS     r0,#0
        0x0000c720:    a903        ..      ADD      r1,sp,#0xc
        0x0000c722:    4603        .F      MOV      r3,r0
        0x0000c724:    4602        .F      MOV      r2,r0
        0x0000c726:    e9cd1000    ....    STRD     r1,r0,[sp,#0]
        0x0000c72a:    21ff        .!      MOVS     r1,#0xff
        0x0000c72c:    4620         F      MOV      r0,r4
        0x0000c72e:    f000f84d    ..M.    BL       am_devices_mspi_atxp032_command_write ; 0xc7cc
        0x0000c732:    e01a        ..      B        0xc76a ; am_device_init_flash + 176
        0x0000c734:    bf00        ..      NOP      
        0x0000c736:    2000        .       MOVS     r0,#0
        0x0000c738:    a903        ..      ADD      r1,sp,#0xc
        0x0000c73a:    4603        .F      MOV      r3,r0
        0x0000c73c:    4602        .F      MOV      r2,r0
        0x0000c73e:    e9cd1000    ....    STRD     r1,r0,[sp,#0]
        0x0000c742:    2138        8!      MOVS     r1,#0x38
        0x0000c744:    4620         F      MOV      r0,r4
        0x0000c746:    f000f841    ..A.    BL       am_devices_mspi_atxp032_command_write ; 0xc7cc
        0x0000c74a:    e00e        ..      B        0xc76a ; am_device_init_flash + 176
        0x0000c74c:    bf00        ..      NOP      
        0x0000c74e:    2000        .       MOVS     r0,#0
        0x0000c750:    a903        ..      ADD      r1,sp,#0xc
        0x0000c752:    4603        .F      MOV      r3,r0
        0x0000c754:    4602        .F      MOV      r2,r0
        0x0000c756:    e9cd1000    ....    STRD     r1,r0,[sp,#0]
        0x0000c75a:    21e8        .!      MOVS     r1,#0xe8
        0x0000c75c:    4620         F      MOV      r0,r4
        0x0000c75e:    f000f835    ..5.    BL       am_devices_mspi_atxp032_command_write ; 0xc7cc
        0x0000c762:    e002        ..      B        0xc76a ; am_device_init_flash + 176
        0x0000c764:    2001        .       MOVS     r0,#1
        0x0000c766:    b023        #.      ADD      sp,sp,#0x8c
        0x0000c768:    bd30        0.      POP      {r4,r5,pc}
        0x0000c76a:    bf00        ..      NOP      
        0x0000c76c:    2000        .       MOVS     r0,#0
        0x0000c76e:    e7fa        ..      B        0xc766 ; am_device_init_flash + 172
    i.am_devices_mspi_atxp032_command_read
    am_devices_mspi_atxp032_command_read
        0x0000c770:    e92d4ff0    -..O    PUSH     {r4-r11,lr}
        0x0000c774:    b087        ..      SUB      sp,sp,#0x1c
        0x0000c776:    4604        .F      MOV      r4,r0
        0x0000c778:    460d        .F      MOV      r5,r1
        0x0000c77a:    4616        .F      MOV      r6,r2
        0x0000c77c:    461f        .F      MOV      r7,r3
        0x0000c77e:    e9dd8910    ....    LDRD     r8,r9,[sp,#0x40]
        0x0000c782:    46a3        .F      MOV      r11,r4
        0x0000c784:    2118        .!      MOVS     r1,#0x18
        0x0000c786:    a801        ..      ADD      r0,sp,#4
        0x0000c788:    f7fffdc4    ....    BL       __aeabi_memclr4 ; 0xc314
        0x0000c78c:    2000        .       MOVS     r0,#0
        0x0000c78e:    f88d0009    ....    STRB     r0,[sp,#9]
        0x0000c792:    f88d600a    ...`    STRB     r6,[sp,#0xa]
        0x0000c796:    9703        ..      STR      r7,[sp,#0xc]
        0x0000c798:    2001        .       MOVS     r0,#1
        0x0000c79a:    f88d0010    ....    STRB     r0,[sp,#0x10]
        0x0000c79e:    f8ad5012    ...P    STRH     r5,[sp,#0x12]
        0x0000c7a2:    2000        .       MOVS     r0,#0
        0x0000c7a4:    f88d0014    ....    STRB     r0,[sp,#0x14]
        0x0000c7a8:    f8cd9004    ....    STR      r9,[sp,#4]
        0x0000c7ac:    f8cd8018    ....    STR      r8,[sp,#0x18]
        0x0000c7b0:    4a05        .J      LDR      r2,[pc,#20] ; [0xc7c8] = 0xf4240
        0x0000c7b2:    a901        ..      ADD      r1,sp,#4
        0x0000c7b4:    f8db0004    ....    LDR      r0,[r11,#4]
        0x0000c7b8:    f001fb86    ....    BL       am_hal_mspi_blocking_transfer ; 0xdec8
        0x0000c7bc:    4682        .F      MOV      r10,r0
        0x0000c7be:    4650        PF      MOV      r0,r10
        0x0000c7c0:    b007        ..      ADD      sp,sp,#0x1c
        0x0000c7c2:    e8bd8ff0    ....    POP      {r4-r11,pc}
    $d
        0x0000c7c6:    0000        ..      DCW    0
        0x0000c7c8:    000f4240    @B..    DCD    1000000
    $t
    i.am_devices_mspi_atxp032_command_write
    am_devices_mspi_atxp032_command_write
        0x0000c7cc:    e92d4ff0    -..O    PUSH     {r4-r11,lr}
        0x0000c7d0:    b087        ..      SUB      sp,sp,#0x1c
        0x0000c7d2:    4604        .F      MOV      r4,r0
        0x0000c7d4:    460d        .F      MOV      r5,r1
        0x0000c7d6:    4616        .F      MOV      r6,r2
        0x0000c7d8:    461f        .F      MOV      r7,r3
        0x0000c7da:    e9dd8910    ....    LDRD     r8,r9,[sp,#0x40]
        0x0000c7de:    46a3        .F      MOV      r11,r4
        0x0000c7e0:    2118        .!      MOVS     r1,#0x18
        0x0000c7e2:    a801        ..      ADD      r0,sp,#4
        0x0000c7e4:    f7fffd96    ....    BL       __aeabi_memclr4 ; 0xc314
        0x0000c7e8:    f8cd9004    ....    STR      r9,[sp,#4]
        0x0000c7ec:    2001        .       MOVS     r0,#1
        0x0000c7ee:    f88d0009    ....    STRB     r0,[sp,#9]
        0x0000c7f2:    f88d600a    ...`    STRB     r6,[sp,#0xa]
        0x0000c7f6:    9703        ..      STR      r7,[sp,#0xc]
        0x0000c7f8:    f88d0010    ....    STRB     r0,[sp,#0x10]
        0x0000c7fc:    f8ad5012    ...P    STRH     r5,[sp,#0x12]
        0x0000c800:    2000        .       MOVS     r0,#0
        0x0000c802:    f88d0014    ....    STRB     r0,[sp,#0x14]
        0x0000c806:    f8cd8018    ....    STR      r8,[sp,#0x18]
        0x0000c80a:    4a05        .J      LDR      r2,[pc,#20] ; [0xc820] = 0xf4240
        0x0000c80c:    a901        ..      ADD      r1,sp,#4
        0x0000c80e:    f8db0004    ....    LDR      r0,[r11,#4]
        0x0000c812:    f001fb59    ..Y.    BL       am_hal_mspi_blocking_transfer ; 0xdec8
        0x0000c816:    4682        .F      MOV      r10,r0
        0x0000c818:    4650        PF      MOV      r0,r10
        0x0000c81a:    b007        ..      ADD      sp,sp,#0x1c
        0x0000c81c:    e8bd8ff0    ....    POP      {r4-r11,pc}
    $d
        0x0000c820:    000f4240    @B..    DCD    1000000
    $t
    i.am_devices_mspi_atxp032_deinit
    am_devices_mspi_atxp032_deinit
        0x0000c824:    b570        p.      PUSH     {r4-r6,lr}
        0x0000c826:    4606        .F      MOV      r6,r0
        0x0000c828:    4634        4F      MOV      r4,r6
        0x0000c82a:    4630        0F      MOV      r0,r6
        0x0000c82c:    f7ffff1a    ....    BL       am_device_deinit_flash ; 0xc664
        0x0000c830:    4605        .F      MOV      r5,r0
        0x0000c832:    b10d        ..      CBZ      r5,0xc838 ; am_devices_mspi_atxp032_deinit + 20
        0x0000c834:    2001        .       MOVS     r0,#1
        0x0000c836:    bd70        p.      POP      {r4-r6,pc}
        0x0000c838:    4630        0F      MOV      r0,r6
        0x0000c83a:    f000fa5f    .._.    BL       am_devices_mspi_atxp032_reset ; 0xccfc
        0x0000c83e:    b108        ..      CBZ      r0,0xc844 ; am_devices_mspi_atxp032_deinit + 32
        0x0000c840:    2001        .       MOVS     r0,#1
        0x0000c842:    e7f8        ..      B        0xc836 ; am_devices_mspi_atxp032_deinit + 18
        0x0000c844:    f04f31ff    O..1    MOV      r1,#0xffffffff
        0x0000c848:    6860        `h      LDR      r0,[r4,#4]
        0x0000c84a:    f002f969    ..i.    BL       am_hal_mspi_interrupt_disable ; 0xeb20
        0x0000c84e:    4605        .F      MOV      r5,r0
        0x0000c850:    b10d        ..      CBZ      r5,0xc856 ; am_devices_mspi_atxp032_deinit + 50
        0x0000c852:    2001        .       MOVS     r0,#1
        0x0000c854:    e7ef        ..      B        0xc836 ; am_devices_mspi_atxp032_deinit + 18
        0x0000c856:    f04f31ff    O..1    MOV      r1,#0xffffffff
        0x0000c85a:    6860        `h      LDR      r0,[r4,#4]
        0x0000c85c:    f002f94a    ..J.    BL       am_hal_mspi_interrupt_clear ; 0xeaf4
        0x0000c860:    4605        .F      MOV      r5,r0
        0x0000c862:    b10d        ..      CBZ      r5,0xc868 ; am_devices_mspi_atxp032_deinit + 68
        0x0000c864:    2001        .       MOVS     r0,#1
        0x0000c866:    e7e6        ..      B        0xc836 ; am_devices_mspi_atxp032_deinit + 18
        0x0000c868:    6860        `h      LDR      r0,[r4,#4]
        0x0000c86a:    f002f89b    ....    BL       am_hal_mspi_disable ; 0xe9a4
        0x0000c86e:    4605        .F      MOV      r5,r0
        0x0000c870:    b10d        ..      CBZ      r5,0xc876 ; am_devices_mspi_atxp032_deinit + 82
        0x0000c872:    2001        .       MOVS     r0,#1
        0x0000c874:    e7df        ..      B        0xc836 ; am_devices_mspi_atxp032_deinit + 18
        0x0000c876:    2200        ."      MOVS     r2,#0
        0x0000c878:    2102        .!      MOVS     r1,#2
        0x0000c87a:    6860        `h      LDR      r0,[r4,#4]
        0x0000c87c:    f002fa3a    ..:.    BL       am_hal_mspi_power_control ; 0xecf4
        0x0000c880:    b120         .      CBZ      r0,0xc88c ; am_devices_mspi_atxp032_deinit + 104
        0x0000c882:    a009        ..      ADR      r0,{pc}+0x26 ; 0xc8a8
        0x0000c884:    f002ff5a    ..Z.    BL       am_util_stdio_printf ; 0xf73c
        0x0000c888:    2001        .       MOVS     r0,#1
        0x0000c88a:    e7d4        ..      B        0xc836 ; am_devices_mspi_atxp032_deinit + 18
        0x0000c88c:    6860        `h      LDR      r0,[r4,#4]
        0x0000c88e:    f001ff61    ..a.    BL       am_hal_mspi_deinitialize ; 0xe754
        0x0000c892:    4605        .F      MOV      r5,r0
        0x0000c894:    b10d        ..      CBZ      r5,0xc89a ; am_devices_mspi_atxp032_deinit + 118
        0x0000c896:    2001        .       MOVS     r0,#1
        0x0000c898:    e7cd        ..      B        0xc836 ; am_devices_mspi_atxp032_deinit + 18
        0x0000c89a:    2000        .       MOVS     r0,#0
        0x0000c89c:    f8840024    ..$.    STRB     r0,[r4,#0x24]
        0x0000c8a0:    490a        .I      LDR      r1,[pc,#40] ; [0xc8cc] = 0x40018000
        0x0000c8a2:    6008        .`      STR      r0,[r1,#0]
        0x0000c8a4:    bf00        ..      NOP      
        0x0000c8a6:    e7c6        ..      B        0xc836 ; am_devices_mspi_atxp032_deinit + 18
    $d
        0x0000c8a8:    6f727245    Erro    DCD    1869771333
        0x0000c8ac:    202d2072    r -     DCD    539828338
        0x0000c8b0:    6c696146    Fail    DCD    1818845510
        0x0000c8b4:    74206465    ed t    DCD    1948279909
        0x0000c8b8:    6f70206f    o po    DCD    1869619311
        0x0000c8bc:    20726577    wer     DCD    544367991
        0x0000c8c0:    4d206e6f    on M    DCD    1293971055
        0x0000c8c4:    2e495053    SPI.    DCD    776556627
        0x0000c8c8:    0000000a    ....    DCD    10
        0x0000c8cc:    40018000    ...@    DCD    1073840128
    $t
    i.am_devices_mspi_atxp032_disable_xip
    am_devices_mspi_atxp032_disable_xip
        0x0000c8d0:    b570        p.      PUSH     {r4-r6,lr}
        0x0000c8d2:    b0a2        ..      SUB      sp,sp,#0x88
        0x0000c8d4:    4604        .F      MOV      r4,r0
        0x0000c8d6:    4626        &F      MOV      r6,r4
        0x0000c8d8:    2180        .!      MOVS     r1,#0x80
        0x0000c8da:    a802        ..      ADD      r0,sp,#8
        0x0000c8dc:    f7fffd1a    ....    BL       __aeabi_memclr4 ; 0xc314
        0x0000c8e0:    2000        .       MOVS     r0,#0
        0x0000c8e2:    a902        ..      ADD      r1,sp,#8
        0x0000c8e4:    4603        .F      MOV      r3,r0
        0x0000c8e6:    4602        .F      MOV      r2,r0
        0x0000c8e8:    e9cd1000    ....    STRD     r1,r0,[sp,#0]
        0x0000c8ec:    2106        .!      MOVS     r1,#6
        0x0000c8ee:    4620         F      MOV      r0,r4
        0x0000c8f0:    f7ffff6c    ..l.    BL       am_devices_mspi_atxp032_command_write ; 0xc7cc
        0x0000c8f4:    4605        .F      MOV      r5,r0
        0x0000c8f6:    b115        ..      CBZ      r5,0xc8fe ; am_devices_mspi_atxp032_disable_xip + 46
        0x0000c8f8:    2001        .       MOVS     r0,#1
        0x0000c8fa:    b022        ".      ADD      sp,sp,#0x88
        0x0000c8fc:    bd70        p.      POP      {r4-r6,pc}
        0x0000c8fe:    2200        ."      MOVS     r2,#0
        0x0000c900:    2106        .!      MOVS     r1,#6
        0x0000c902:    6870        ph      LDR      r0,[r6,#4]
        0x0000c904:    f001fbd6    ....    BL       am_hal_mspi_control ; 0xe0b4
        0x0000c908:    4605        .F      MOV      r5,r0
        0x0000c90a:    b10d        ..      CBZ      r5,0xc910 ; am_devices_mspi_atxp032_disable_xip + 64
        0x0000c90c:    2001        .       MOVS     r0,#1
        0x0000c90e:    e7f4        ..      B        0xc8fa ; am_devices_mspi_atxp032_disable_xip + 42
        0x0000c910:    2000        .       MOVS     r0,#0
        0x0000c912:    e7f2        ..      B        0xc8fa ; am_devices_mspi_atxp032_disable_xip + 42
    i.am_devices_mspi_atxp032_enable_scrambling
    am_devices_mspi_atxp032_enable_scrambling
        0x0000c914:    b570        p.      PUSH     {r4-r6,lr}
        0x0000c916:    4604        .F      MOV      r4,r0
        0x0000c918:    4626        &F      MOV      r6,r4
        0x0000c91a:    2200        ."      MOVS     r2,#0
        0x0000c91c:    2104        .!      MOVS     r1,#4
        0x0000c91e:    6870        ph      LDR      r0,[r6,#4]
        0x0000c920:    f001fbc8    ....    BL       am_hal_mspi_control ; 0xe0b4
        0x0000c924:    4605        .F      MOV      r5,r0
        0x0000c926:    b10d        ..      CBZ      r5,0xc92c ; am_devices_mspi_atxp032_enable_scrambling + 24
        0x0000c928:    2001        .       MOVS     r0,#1
        0x0000c92a:    bd70        p.      POP      {r4-r6,pc}
        0x0000c92c:    2000        .       MOVS     r0,#0
        0x0000c92e:    e7fc        ..      B        0xc92a ; am_devices_mspi_atxp032_enable_scrambling + 22
    i.am_devices_mspi_atxp032_enable_xip
    am_devices_mspi_atxp032_enable_xip
        0x0000c930:    b570        p.      PUSH     {r4-r6,lr}
        0x0000c932:    4604        .F      MOV      r4,r0
        0x0000c934:    4626        &F      MOV      r6,r4
        0x0000c936:    2200        ."      MOVS     r2,#0
        0x0000c938:    2107        .!      MOVS     r1,#7
        0x0000c93a:    6870        ph      LDR      r0,[r6,#4]
        0x0000c93c:    f001fbba    ....    BL       am_hal_mspi_control ; 0xe0b4
        0x0000c940:    4605        .F      MOV      r5,r0
        0x0000c942:    b10d        ..      CBZ      r5,0xc948 ; am_devices_mspi_atxp032_enable_xip + 24
        0x0000c944:    2001        .       MOVS     r0,#1
        0x0000c946:    bd70        p.      POP      {r4-r6,pc}
        0x0000c948:    2000        .       MOVS     r0,#0
        0x0000c94a:    e7fc        ..      B        0xc946 ; am_devices_mspi_atxp032_enable_xip + 22
    i.am_devices_mspi_atxp032_init
    am_devices_mspi_atxp032_init
        0x0000c94c:    e92d4ff8    -..O    PUSH     {r3-r11,lr}
        0x0000c950:    4680        .F      MOV      r8,r0
        0x0000c952:    460d        .F      MOV      r5,r1
        0x0000c954:    4691        .F      MOV      r9,r2
        0x0000c956:    469a        .F      MOV      r10,r3
        0x0000c958:    4898        .H      LDR      r0,[pc,#608] ; [0xcbbc] = 0x100000b8
        0x0000c95a:    6847        Gh      LDR      r7,[r0,#4]
        0x0000c95c:    2400        .$      MOVS     r4,#0
        0x0000c95e:    f1b80f01    ....    CMP      r8,#1
        0x0000c962:    d800        ..      BHI      0xc966 ; am_devices_mspi_atxp032_init + 26
        0x0000c964:    b915        ..      CBNZ     r5,0xc96c ; am_devices_mspi_atxp032_init + 32
        0x0000c966:    2001        .       MOVS     r0,#1
        0x0000c968:    e8bd8ff8    ....    POP      {r3-r11,pc}
        0x0000c96c:    2400        .$      MOVS     r4,#0
        0x0000c96e:    e009        ..      B        0xc984 ; am_devices_mspi_atxp032_init + 56
        0x0000c970:    eb040084    ....    ADD      r0,r4,r4,LSL #2
        0x0000c974:    4992        .I      LDR      r1,[pc,#584] ; [0xcbc0] = 0x10006650
        0x0000c976:    eb0100c0    ....    ADD      r0,r1,r0,LSL #3
        0x0000c97a:    f8900024    ..$.    LDRB     r0,[r0,#0x24]
        0x0000c97e:    b900        ..      CBNZ     r0,0xc982 ; am_devices_mspi_atxp032_init + 54
        0x0000c980:    e002        ..      B        0xc988 ; am_devices_mspi_atxp032_init + 60
        0x0000c982:    1c64        d.      ADDS     r4,r4,#1
        0x0000c984:    2c00        .,      CMP      r4,#0
        0x0000c986:    d0f3        ..      BEQ      0xc970 ; am_devices_mspi_atxp032_init + 36
        0x0000c988:    bf00        ..      NOP      
        0x0000c98a:    2c01        .,      CMP      r4,#1
        0x0000c98c:    d101        ..      BNE      0xc992 ; am_devices_mspi_atxp032_init + 70
        0x0000c98e:    2001        .       MOVS     r0,#1
        0x0000c990:    e7ea        ..      B        0xc968 ; am_devices_mspi_atxp032_init + 28
        0x0000c992:    2000        .       MOVS     r0,#0
        0x0000c994:    e015        ..      B        0xc9c2 ; am_devices_mspi_atxp032_init + 118
        0x0000c996:    7829        )x      LDRB     r1,[r5,#0]
        0x0000c998:    4a88        .J      LDR      r2,[pc,#544] ; [0xcbbc] = 0x100000b8
        0x0000c99a:    f8122030    ..0     LDRB     r2,[r2,r0,LSL #3]
        0x0000c99e:    4291        .B      CMP      r1,r2
        0x0000c9a0:    d10e        ..      BNE      0xc9c0 ; am_devices_mspi_atxp032_init + 116
        0x0000c9a2:    4986        .I      LDR      r1,[pc,#536] ; [0xcbbc] = 0x100000b8
        0x0000c9a4:    eb0101c0    ....    ADD      r1,r1,r0,LSL #3
        0x0000c9a8:    684f        Oh      LDR      r7,[r1,#4]
        0x0000c9aa:    7869        ix      LDRB     r1,[r5,#1]
        0x0000c9ac:    71f9        .q      STRB     r1,[r7,#7]
        0x0000c9ae:    6869        ih      LDR      r1,[r5,#4]
        0x0000c9b0:    6139        9a      STR      r1,[r7,#0x10]
        0x0000c9b2:    68a9        .h      LDR      r1,[r5,#8]
        0x0000c9b4:    60f9        .`      STR      r1,[r7,#0xc]
        0x0000c9b6:    68e9        .h      LDR      r1,[r5,#0xc]
        0x0000c9b8:    6179        ya      STR      r1,[r7,#0x14]
        0x0000c9ba:    6929        )i      LDR      r1,[r5,#0x10]
        0x0000c9bc:    61b9        .a      STR      r1,[r7,#0x18]
        0x0000c9be:    e002        ..      B        0xc9c6 ; am_devices_mspi_atxp032_init + 122
        0x0000c9c0:    1c40        @.      ADDS     r0,r0,#1
        0x0000c9c2:    2806        .(      CMP      r0,#6
        0x0000c9c4:    d3e7        ..      BCC      0xc996 ; am_devices_mspi_atxp032_init + 74
        0x0000c9c6:    bf00        ..      NOP      
        0x0000c9c8:    2100        .!      MOVS     r1,#0
        0x0000c9ca:    4608        .F      MOV      r0,r1
        0x0000c9cc:    f001f936    ..6.    BL       am_hal_mcuctrl_control ; 0xdc3c
        0x0000c9d0:    7978        xy      LDRB     r0,[r7,#5]
        0x0000c9d2:    2808        .(      CMP      r0,#8
        0x0000c9d4:    d27c        |.      BCS      0xcad0 ; am_devices_mspi_atxp032_init + 388
        0x0000c9d6:    e8dff000    ....    TBB      [pc,r0]
    $d
        0x0000c9da:    3f04        .?      DCW    16132
        0x0000c9dc:    40057b7b    {{.@    DCD    1074101115
        0x0000c9e0:    4106        .A      DCW    16646
    $t
        0x0000c9e2:    bf00        ..      NOP      
        0x0000c9e4:    bf00        ..      NOP      
        0x0000c9e6:    eb040184    ....    ADD      r1,r4,r4,LSL #2
        0x0000c9ea:    4a75        uJ      LDR      r2,[pc,#468] ; [0xcbc0] = 0x10006650
        0x0000c9ec:    eb0201c1    ....    ADD      r1,r2,r1,LSL #3
        0x0000c9f0:    f1010008    ....    ADD      r0,r1,#8
        0x0000c9f4:    221c        ."      MOVS     r2,#0x1c
        0x0000c9f6:    4973        sI      LDR      r1,[pc,#460] ; [0xcbc4] = 0x10000010
        0x0000c9f8:    f7fffc5a    ..Z.    BL       __aeabi_memcpy4 ; 0xc2b0
        0x0000c9fc:    4669        iF      MOV      r1,sp
        0x0000c9fe:    4640        @F      MOV      r0,r8
        0x0000ca00:    f002f858    ..X.    BL       am_hal_mspi_initialize ; 0xeab4
        0x0000ca04:    b120         .      CBZ      r0,0xca10 ; am_devices_mspi_atxp032_init + 196
        0x0000ca06:    a070        p.      ADR      r0,{pc}+0x1c2 ; 0xcbc8
        0x0000ca08:    f002fe98    ....    BL       am_util_stdio_printf ; 0xf73c
        0x0000ca0c:    2001        .       MOVS     r0,#1
        0x0000ca0e:    e7ab        ..      B        0xc968 ; am_devices_mspi_atxp032_init + 28
        0x0000ca10:    2200        ."      MOVS     r2,#0
        0x0000ca12:    4611        .F      MOV      r1,r2
        0x0000ca14:    9800        ..      LDR      r0,[sp,#0]
        0x0000ca16:    f002f96d    ..m.    BL       am_hal_mspi_power_control ; 0xecf4
        0x0000ca1a:    b120         .      CBZ      r0,0xca26 ; am_devices_mspi_atxp032_init + 218
        0x0000ca1c:    a073        s.      ADR      r0,{pc}+0x1d0 ; 0xcbec
        0x0000ca1e:    f002fe8d    ....    BL       am_util_stdio_printf ; 0xf73c
        0x0000ca22:    2001        .       MOVS     r0,#1
        0x0000ca24:    e7a0        ..      B        0xc968 ; am_devices_mspi_atxp032_init + 28
        0x0000ca26:    4967        gI      LDR      r1,[pc,#412] ; [0xcbc4] = 0x10000010
        0x0000ca28:    9800        ..      LDR      r0,[sp,#0]
        0x0000ca2a:    f001fed3    ....    BL       am_hal_mspi_device_configure ; 0xe7d4
        0x0000ca2e:    b120         .      CBZ      r0,0xca3a ; am_devices_mspi_atxp032_init + 238
        0x0000ca30:    a077        w.      ADR      r0,{pc}+0x1e0 ; 0xcc10
        0x0000ca32:    f002fe83    ....    BL       am_util_stdio_printf ; 0xf73c
        0x0000ca36:    2001        .       MOVS     r0,#1
        0x0000ca38:    e796        ..      B        0xc968 ; am_devices_mspi_atxp032_init + 28
        0x0000ca3a:    9800        ..      LDR      r0,[sp,#0]
        0x0000ca3c:    f001ffe8    ....    BL       am_hal_mspi_enable ; 0xea10
        0x0000ca40:    b120         .      CBZ      r0,0xca4c ; am_devices_mspi_atxp032_init + 256
        0x0000ca42:    a07c        |.      ADR      r0,{pc}+0x1f2 ; 0xcc34
        0x0000ca44:    f002fe7a    ..z.    BL       am_util_stdio_printf ; 0xf73c
        0x0000ca48:    2001        .       MOVS     r0,#1
        0x0000ca4a:    e78d        ..      B        0xc968 ; am_devices_mspi_atxp032_init + 28
        0x0000ca4c:    485d        ]H      LDR      r0,[pc,#372] ; [0xcbc4] = 0x10000010
        0x0000ca4e:    7941        Ay      LDRB     r1,[r0,#5]
        0x0000ca50:    4640        @F      MOV      r0,r8
        0x0000ca52:    f7fffd03    ....    BL       am_bsp_mspi_pins_enable ; 0xc45c
        0x0000ca56:    e03d        =.      B        0xcad4 ; am_devices_mspi_atxp032_init + 392
        0x0000ca58:    bf00        ..      NOP      
        0x0000ca5a:    bf00        ..      NOP      
        0x0000ca5c:    eb040184    ....    ADD      r1,r4,r4,LSL #2
        0x0000ca60:    4a57        WJ      LDR      r2,[pc,#348] ; [0xcbc0] = 0x10006650
        0x0000ca62:    eb0201c1    ....    ADD      r1,r2,r1,LSL #3
        0x0000ca66:    f1010008    ....    ADD      r0,r1,#8
        0x0000ca6a:    221c        ."      MOVS     r2,#0x1c
        0x0000ca6c:    4979        yI      LDR      r1,[pc,#484] ; [0xcc54] = 0x1000002c
        0x0000ca6e:    f7fffc1f    ....    BL       __aeabi_memcpy4 ; 0xc2b0
        0x0000ca72:    4669        iF      MOV      r1,sp
        0x0000ca74:    4640        @F      MOV      r0,r8
        0x0000ca76:    f002f81d    ....    BL       am_hal_mspi_initialize ; 0xeab4
        0x0000ca7a:    b120         .      CBZ      r0,0xca86 ; am_devices_mspi_atxp032_init + 314
        0x0000ca7c:    a052        R.      ADR      r0,{pc}+0x14c ; 0xcbc8
        0x0000ca7e:    f002fe5d    ..].    BL       am_util_stdio_printf ; 0xf73c
        0x0000ca82:    2001        .       MOVS     r0,#1
        0x0000ca84:    e770        p.      B        0xc968 ; am_devices_mspi_atxp032_init + 28
        0x0000ca86:    2200        ."      MOVS     r2,#0
        0x0000ca88:    4611        .F      MOV      r1,r2
        0x0000ca8a:    9800        ..      LDR      r0,[sp,#0]
        0x0000ca8c:    f002f932    ..2.    BL       am_hal_mspi_power_control ; 0xecf4
        0x0000ca90:    b120         .      CBZ      r0,0xca9c ; am_devices_mspi_atxp032_init + 336
        0x0000ca92:    a056        V.      ADR      r0,{pc}+0x15a ; 0xcbec
        0x0000ca94:    f002fe52    ..R.    BL       am_util_stdio_printf ; 0xf73c
        0x0000ca98:    2001        .       MOVS     r0,#1
        0x0000ca9a:    e765        e.      B        0xc968 ; am_devices_mspi_atxp032_init + 28
        0x0000ca9c:    496d        mI      LDR      r1,[pc,#436] ; [0xcc54] = 0x1000002c
        0x0000ca9e:    9800        ..      LDR      r0,[sp,#0]
        0x0000caa0:    f001fe98    ....    BL       am_hal_mspi_device_configure ; 0xe7d4
        0x0000caa4:    b120         .      CBZ      r0,0xcab0 ; am_devices_mspi_atxp032_init + 356
        0x0000caa6:    a05a        Z.      ADR      r0,{pc}+0x16a ; 0xcc10
        0x0000caa8:    f002fe48    ..H.    BL       am_util_stdio_printf ; 0xf73c
        0x0000caac:    2001        .       MOVS     r0,#1
        0x0000caae:    e75b        [.      B        0xc968 ; am_devices_mspi_atxp032_init + 28
        0x0000cab0:    9800        ..      LDR      r0,[sp,#0]
        0x0000cab2:    f001ffad    ....    BL       am_hal_mspi_enable ; 0xea10
        0x0000cab6:    b128        (.      CBZ      r0,0xcac4 ; am_devices_mspi_atxp032_init + 376
        0x0000cab8:    a05e        ^.      ADR      r0,{pc}+0x17c ; 0xcc34
        0x0000caba:    f002fe3f    ..?.    BL       am_util_stdio_printf ; 0xf73c
        0x0000cabe:    2001        .       MOVS     r0,#1
        0x0000cac0:    e752        R.      B        0xc968 ; am_devices_mspi_atxp032_init + 28
        0x0000cac2:    e005        ..      B        0xcad0 ; am_devices_mspi_atxp032_init + 388
        0x0000cac4:    4863        cH      LDR      r0,[pc,#396] ; [0xcc54] = 0x1000002c
        0x0000cac6:    7941        Ay      LDRB     r1,[r0,#5]
        0x0000cac8:    4640        @F      MOV      r0,r8
        0x0000caca:    f7fffcc7    ....    BL       am_bsp_mspi_pins_enable ; 0xc45c
        0x0000cace:    e001        ..      B        0xcad4 ; am_devices_mspi_atxp032_init + 392
        0x0000cad0:    2001        .       MOVS     r0,#1
        0x0000cad2:    e749        I.      B        0xc968 ; am_devices_mspi_atxp032_init + 28
        0x0000cad4:    bf00        ..      NOP      
        0x0000cad6:    eb040184    ....    ADD      r1,r4,r4,LSL #2
        0x0000cada:    4a39        9J      LDR      r2,[pc,#228] ; [0xcbc0] = 0x10006650
        0x0000cadc:    eb0201c1    ....    ADD      r1,r2,r1,LSL #3
        0x0000cae0:    9800        ..      LDR      r0,[sp,#0]
        0x0000cae2:    6048        H`      STR      r0,[r1,#4]
        0x0000cae4:    eb040084    ....    ADD      r0,r4,r4,LSL #2
        0x0000cae8:    4611        .F      MOV      r1,r2
        0x0000caea:    f8418030    A.0.    STR      r8,[r1,r0,LSL #3]
        0x0000caee:    eb040184    ....    ADD      r1,r4,r4,LSL #2
        0x0000caf2:    eb0200c1    ....    ADD      r0,r2,r1,LSL #3
        0x0000caf6:    f000f901    ....    BL       am_devices_mspi_atxp032_reset ; 0xccfc
        0x0000cafa:    b108        ..      CBZ      r0,0xcb00 ; am_devices_mspi_atxp032_init + 436
        0x0000cafc:    2001        .       MOVS     r0,#1
        0x0000cafe:    e733        3.      B        0xc968 ; am_devices_mspi_atxp032_init + 28
        0x0000cb00:    eb040184    ....    ADD      r1,r4,r4,LSL #2
        0x0000cb04:    4a2e        .J      LDR      r2,[pc,#184] ; [0xcbc0] = 0x10006650
        0x0000cb06:    eb0201c1    ....    ADD      r1,r2,r1,LSL #3
        0x0000cb0a:    f1010008    ....    ADD      r0,r1,#8
        0x0000cb0e:    221c        ."      MOVS     r2,#0x1c
        0x0000cb10:    4639        9F      MOV      r1,r7
        0x0000cb12:    f7fffbcd    ....    BL       __aeabi_memcpy4 ; 0xc2b0
        0x0000cb16:    eb040184    ....    ADD      r1,r4,r4,LSL #2
        0x0000cb1a:    4a29        )J      LDR      r2,[pc,#164] ; [0xcbc0] = 0x10006650
        0x0000cb1c:    eb0200c1    ....    ADD      r0,r2,r1,LSL #3
        0x0000cb20:    f7fffdcb    ....    BL       am_device_init_flash ; 0xc6ba
        0x0000cb24:    4606        .F      MOV      r6,r0
        0x0000cb26:    b10e        ..      CBZ      r6,0xcb2c ; am_devices_mspi_atxp032_init + 480
        0x0000cb28:    2001        .       MOVS     r0,#1
        0x0000cb2a:    e71d        ..      B        0xc968 ; am_devices_mspi_atxp032_init + 28
        0x0000cb2c:    eb040184    ....    ADD      r1,r4,r4,LSL #2
        0x0000cb30:    4a23        #J      LDR      r2,[pc,#140] ; [0xcbc0] = 0x10006650
        0x0000cb32:    eb0200c1    ....    ADD      r0,r2,r1,LSL #3
        0x0000cb36:    f7fffefb    ....    BL       am_devices_mspi_atxp032_enable_xip ; 0xc930
        0x0000cb3a:    9800        ..      LDR      r0,[sp,#0]
        0x0000cb3c:    f001ff32    ..2.    BL       am_hal_mspi_disable ; 0xe9a4
        0x0000cb40:    4606        .F      MOV      r6,r0
        0x0000cb42:    b10e        ..      CBZ      r6,0xcb48 ; am_devices_mspi_atxp032_init + 508
        0x0000cb44:    2001        .       MOVS     r0,#1
        0x0000cb46:    e70f        ..      B        0xc968 ; am_devices_mspi_atxp032_init + 28
        0x0000cb48:    4639        9F      MOV      r1,r7
        0x0000cb4a:    9800        ..      LDR      r0,[sp,#0]
        0x0000cb4c:    f001fe42    ..B.    BL       am_hal_mspi_device_configure ; 0xe7d4
        0x0000cb50:    4606        .F      MOV      r6,r0
        0x0000cb52:    b10e        ..      CBZ      r6,0xcb58 ; am_devices_mspi_atxp032_init + 524
        0x0000cb54:    2001        .       MOVS     r0,#1
        0x0000cb56:    e707        ..      B        0xc968 ; am_devices_mspi_atxp032_init + 28
        0x0000cb58:    9800        ..      LDR      r0,[sp,#0]
        0x0000cb5a:    f001ff59    ..Y.    BL       am_hal_mspi_enable ; 0xea10
        0x0000cb5e:    4606        .F      MOV      r6,r0
        0x0000cb60:    b10e        ..      CBZ      r6,0xcb66 ; am_devices_mspi_atxp032_init + 538
        0x0000cb62:    2001        .       MOVS     r0,#1
        0x0000cb64:    e700        ..      B        0xc968 ; am_devices_mspi_atxp032_init + 28
        0x0000cb66:    7979        yy      LDRB     r1,[r7,#5]
        0x0000cb68:    4640        @F      MOV      r0,r8
        0x0000cb6a:    f7fffc77    ..w.    BL       am_bsp_mspi_pins_enable ; 0xc45c
        0x0000cb6e:    f44f51d4    O..Q    MOV      r1,#0x1a80
        0x0000cb72:    9800        ..      LDR      r0,[sp,#0]
        0x0000cb74:    f001ffbe    ....    BL       am_hal_mspi_interrupt_clear ; 0xeaf4
        0x0000cb78:    4606        .F      MOV      r6,r0
        0x0000cb7a:    b10e        ..      CBZ      r6,0xcb80 ; am_devices_mspi_atxp032_init + 564
        0x0000cb7c:    2001        .       MOVS     r0,#1
        0x0000cb7e:    e6f3        ..      B        0xc968 ; am_devices_mspi_atxp032_init + 28
        0x0000cb80:    f44f51d4    O..Q    MOV      r1,#0x1a80
        0x0000cb84:    9800        ..      LDR      r0,[sp,#0]
        0x0000cb86:    f001ffe5    ....    BL       am_hal_mspi_interrupt_enable ; 0xeb54
        0x0000cb8a:    4606        .F      MOV      r6,r0
        0x0000cb8c:    b10e        ..      CBZ      r6,0xcb92 ; am_devices_mspi_atxp032_init + 582
        0x0000cb8e:    2001        .       MOVS     r0,#1
        0x0000cb90:    e6ea        ..      B        0xc968 ; am_devices_mspi_atxp032_init + 28
        0x0000cb92:    2001        .       MOVS     r0,#1
        0x0000cb94:    eb040184    ....    ADD      r1,r4,r4,LSL #2
        0x0000cb98:    4a09        .J      LDR      r2,[pc,#36] ; [0xcbc0] = 0x10006650
        0x0000cb9a:    eb0201c1    ....    ADD      r1,r2,r1,LSL #3
        0x0000cb9e:    f8810024    ..$.    STRB     r0,[r1,#0x24]
        0x0000cba2:    9800        ..      LDR      r0,[sp,#0]
        0x0000cba4:    f8ca0000    ....    STR      r0,[r10,#0]
        0x0000cba8:    eb040084    ....    ADD      r0,r4,r4,LSL #2
        0x0000cbac:    4611        .F      MOV      r1,r2
        0x0000cbae:    eb0100c0    ....    ADD      r0,r1,r0,LSL #3
        0x0000cbb2:    f8c90000    ....    STR      r0,[r9,#0]
        0x0000cbb6:    2000        .       MOVS     r0,#0
        0x0000cbb8:    e6d6        ..      B        0xc968 ; am_devices_mspi_atxp032_init + 28
    $d
        0x0000cbba:    0000        ..      DCW    0
        0x0000cbbc:    100000b8    ....    DCD    268435640
        0x0000cbc0:    10006650    Pf..    DCD    268461648
        0x0000cbc4:    10000010    ....    DCD    268435472
        0x0000cbc8:    6f727245    Erro    DCD    1869771333
        0x0000cbcc:    202d2072    r -     DCD    539828338
        0x0000cbd0:    6c696146    Fail    DCD    1818845510
        0x0000cbd4:    74206465    ed t    DCD    1948279909
        0x0000cbd8:    6e69206f    o in    DCD    1852383343
        0x0000cbdc:    61697469    itia    DCD    1634301033
        0x0000cbe0:    657a696c    lize    DCD    1702521196
        0x0000cbe4:    50534d20     MSP    DCD    1347636512
        0x0000cbe8:    000a2e49    I...    DCD    667209
        0x0000cbec:    6f727245    Erro    DCD    1869771333
        0x0000cbf0:    202d2072    r -     DCD    539828338
        0x0000cbf4:    6c696146    Fail    DCD    1818845510
        0x0000cbf8:    74206465    ed t    DCD    1948279909
        0x0000cbfc:    6f70206f    o po    DCD    1869619311
        0x0000cc00:    20726577    wer     DCD    544367991
        0x0000cc04:    4d206e6f    on M    DCD    1293971055
        0x0000cc08:    2e495053    SPI.    DCD    776556627
        0x0000cc0c:    0000000a    ....    DCD    10
        0x0000cc10:    6f727245    Erro    DCD    1869771333
        0x0000cc14:    202d2072    r -     DCD    539828338
        0x0000cc18:    6c696146    Fail    DCD    1818845510
        0x0000cc1c:    74206465    ed t    DCD    1948279909
        0x0000cc20:    6f63206f    o co    DCD    1868767343
        0x0000cc24:    6769666e    nfig    DCD    1734960750
        0x0000cc28:    20657275    ure     DCD    543519349
        0x0000cc2c:    4950534d    MSPI    DCD    1230000973
        0x0000cc30:    00000a2e    ....    DCD    2606
        0x0000cc34:    6f727245    Erro    DCD    1869771333
        0x0000cc38:    202d2072    r -     DCD    539828338
        0x0000cc3c:    6c696146    Fail    DCD    1818845510
        0x0000cc40:    74206465    ed t    DCD    1948279909
        0x0000cc44:    6e65206f    o en    DCD    1852121199
        0x0000cc48:    656c6261    able    DCD    1701601889
        0x0000cc4c:    50534d20     MSP    DCD    1347636512
        0x0000cc50:    000a2e49    I...    DCD    667209
        0x0000cc54:    1000002c    ,...    DCD    268435500
    $t
    i.am_devices_mspi_atxp032_read
    am_devices_mspi_atxp032_read
        0x0000cc58:    e92d4ff0    -..O    PUSH     {r4-r11,lr}
        0x0000cc5c:    b089        ..      SUB      sp,sp,#0x24
        0x0000cc5e:    4605        .F      MOV      r5,r0
        0x0000cc60:    460e        .F      MOV      r6,r1
        0x0000cc62:    4617        .F      MOV      r7,r2
        0x0000cc64:    4698        .F      MOV      r8,r3
        0x0000cc66:    f8ddb048    ..H.    LDR      r11,[sp,#0x48]
        0x0000cc6a:    46a9        .F      MOV      r9,r5
        0x0000cc6c:    2001        .       MOVS     r0,#1
        0x0000cc6e:    f88d000d    ....    STRB     r0,[sp,#0xd]
        0x0000cc72:    2000        .       MOVS     r0,#0
        0x0000cc74:    f88d000e    ....    STRB     r0,[sp,#0xe]
        0x0000cc78:    f8cd8010    ....    STR      r8,[sp,#0x10]
        0x0000cc7c:    9705        ..      STR      r7,[sp,#0x14]
        0x0000cc7e:    9606        ..      STR      r6,[sp,#0x18]
        0x0000cc80:    9007        ..      STR      r0,[sp,#0x1c]
        0x0000cc82:    9008        ..      STR      r0,[sp,#0x20]
        0x0000cc84:    f1bb0f00    ....    CMP      r11,#0
        0x0000cc88:    d025        %.      BEQ      0xccd6 ; am_devices_mspi_atxp032_read + 126
        0x0000cc8a:    9002        ..      STR      r0,[sp,#8]
        0x0000cc8c:    a802        ..      ADD      r0,sp,#8
        0x0000cc8e:    9000        ..      STR      r0,[sp,#0]
        0x0000cc90:    4b18        .K      LDR      r3,[pc,#96] ; [0xccf4] = 0x10955
        0x0000cc92:    2201        ."      MOVS     r2,#1
        0x0000cc94:    a903        ..      ADD      r1,sp,#0xc
        0x0000cc96:    f8d90004    ....    LDR      r0,[r9,#4]
        0x0000cc9a:    f001ff75    ..u.    BL       am_hal_mspi_nonblocking_transfer ; 0xeb88
        0x0000cc9e:    4604        .F      MOV      r4,r0
        0x0000cca0:    b11c        ..      CBZ      r4,0xccaa ; am_devices_mspi_atxp032_read + 82
        0x0000cca2:    2001        .       MOVS     r0,#1
        0x0000cca4:    b009        ..      ADD      sp,sp,#0x24
        0x0000cca6:    e8bd8ff0    ....    POP      {r4-r11,pc}
        0x0000ccaa:    f04f0a00    O...    MOV      r10,#0
        0x0000ccae:    e008        ..      B        0xccc2 ; am_devices_mspi_atxp032_read + 106
        0x0000ccb0:    f89d0008    ....    LDRB     r0,[sp,#8]
        0x0000ccb4:    b100        ..      CBZ      r0,0xccb8 ; am_devices_mspi_atxp032_read + 96
        0x0000ccb6:    e007        ..      B        0xccc8 ; am_devices_mspi_atxp032_read + 112
        0x0000ccb8:    2001        .       MOVS     r0,#1
        0x0000ccba:    f002fabb    ....    BL       am_util_delay_us ; 0xf234
        0x0000ccbe:    f10a0a01    ....    ADD      r10,r10,#1
        0x0000ccc2:    480d        .H      LDR      r0,[pc,#52] ; [0xccf8] = 0xf4240
        0x0000ccc4:    4582        .E      CMP      r10,r0
        0x0000ccc6:    d3f3        ..      BCC      0xccb0 ; am_devices_mspi_atxp032_read + 88
        0x0000ccc8:    bf00        ..      NOP      
        0x0000ccca:    f89d0008    ....    LDRB     r0,[sp,#8]
        0x0000ccce:    b908        ..      CBNZ     r0,0xccd4 ; am_devices_mspi_atxp032_read + 124
        0x0000ccd0:    2001        .       MOVS     r0,#1
        0x0000ccd2:    e7e7        ..      B        0xcca4 ; am_devices_mspi_atxp032_read + 76
        0x0000ccd4:    e00c        ..      B        0xccf0 ; am_devices_mspi_atxp032_read + 152
        0x0000ccd6:    2000        .       MOVS     r0,#0
        0x0000ccd8:    9000        ..      STR      r0,[sp,#0]
        0x0000ccda:    2300        .#      MOVS     r3,#0
        0x0000ccdc:    2201        ."      MOVS     r2,#1
        0x0000ccde:    a903        ..      ADD      r1,sp,#0xc
        0x0000cce0:    f8d90004    ....    LDR      r0,[r9,#4]
        0x0000cce4:    f001ff50    ..P.    BL       am_hal_mspi_nonblocking_transfer ; 0xeb88
        0x0000cce8:    4604        .F      MOV      r4,r0
        0x0000ccea:    b10c        ..      CBZ      r4,0xccf0 ; am_devices_mspi_atxp032_read + 152
        0x0000ccec:    2001        .       MOVS     r0,#1
        0x0000ccee:    e7d9        ..      B        0xcca4 ; am_devices_mspi_atxp032_read + 76
        0x0000ccf0:    2000        .       MOVS     r0,#0
        0x0000ccf2:    e7d7        ..      B        0xcca4 ; am_devices_mspi_atxp032_read + 76
    $d
        0x0000ccf4:    00010955    U...    DCD    67925
        0x0000ccf8:    000f4240    @B..    DCD    1000000
    $t
    i.am_devices_mspi_atxp032_reset
    am_devices_mspi_atxp032_reset
        0x0000ccfc:    b510        ..      PUSH     {r4,lr}
        0x0000ccfe:    b0a2        ..      SUB      sp,sp,#0x88
        0x0000cd00:    4604        .F      MOV      r4,r0
        0x0000cd02:    2180        .!      MOVS     r1,#0x80
        0x0000cd04:    a802        ..      ADD      r0,sp,#8
        0x0000cd06:    f7fffb05    ....    BL       __aeabi_memclr4 ; 0xc314
        0x0000cd0a:    2000        .       MOVS     r0,#0
        0x0000cd0c:    a902        ..      ADD      r1,sp,#8
        0x0000cd0e:    4603        .F      MOV      r3,r0
        0x0000cd10:    4602        .F      MOV      r2,r0
        0x0000cd12:    e9cd1000    ....    STRD     r1,r0,[sp,#0]
        0x0000cd16:    21ff        .!      MOVS     r1,#0xff
        0x0000cd18:    4620         F      MOV      r0,r4
        0x0000cd1a:    f7fffd57    ..W.    BL       am_devices_mspi_atxp032_command_write ; 0xc7cc
        0x0000cd1e:    b110        ..      CBZ      r0,0xcd26 ; am_devices_mspi_atxp032_reset + 42
        0x0000cd20:    2001        .       MOVS     r0,#1
        0x0000cd22:    b022        ".      ADD      sp,sp,#0x88
        0x0000cd24:    bd10        ..      POP      {r4,pc}
        0x0000cd26:    2000        .       MOVS     r0,#0
        0x0000cd28:    e7fb        ..      B        0xcd22 ; am_devices_mspi_atxp032_reset + 38
        0x0000cd2a:    0000        ..      MOVS     r0,r0
    i.am_devices_mspi_atxp032_sector_erase
    am_devices_mspi_atxp032_sector_erase
        0x0000cd2c:    e92d43f0    -..C    PUSH     {r4-r9,lr}
        0x0000cd30:    b0a3        ..      SUB      sp,sp,#0x8c
        0x0000cd32:    4605        .F      MOV      r5,r0
        0x0000cd34:    460e        .F      MOV      r6,r1
        0x0000cd36:    2700        .'      MOVS     r7,#0
        0x0000cd38:    46a9        .F      MOV      r9,r5
        0x0000cd3a:    2180        .!      MOVS     r1,#0x80
        0x0000cd3c:    a803        ..      ADD      r0,sp,#0xc
        0x0000cd3e:    f7fffae9    ....    BL       __aeabi_memclr4 ; 0xc314
        0x0000cd42:    2000        .       MOVS     r0,#0
        0x0000cd44:    a903        ..      ADD      r1,sp,#0xc
        0x0000cd46:    4603        .F      MOV      r3,r0
        0x0000cd48:    4602        .F      MOV      r2,r0
        0x0000cd4a:    e9cd1000    ....    STRD     r1,r0,[sp,#0]
        0x0000cd4e:    2106        .!      MOVS     r1,#6
        0x0000cd50:    4628        (F      MOV      r0,r5
        0x0000cd52:    f7fffd3b    ..;.    BL       am_devices_mspi_atxp032_command_write ; 0xc7cc
        0x0000cd56:    4604        .F      MOV      r4,r0
        0x0000cd58:    b11c        ..      CBZ      r4,0xcd62 ; am_devices_mspi_atxp032_sector_erase + 54
        0x0000cd5a:    2001        .       MOVS     r0,#1
        0x0000cd5c:    b023        #.      ADD      sp,sp,#0x8c
        0x0000cd5e:    e8bd83f0    ....    POP      {r4-r9,pc}
        0x0000cd62:    2000        .       MOVS     r0,#0
        0x0000cd64:    a903        ..      ADD      r1,sp,#0xc
        0x0000cd66:    4633        3F      MOV      r3,r6
        0x0000cd68:    2201        ."      MOVS     r2,#1
        0x0000cd6a:    e9cd1000    ....    STRD     r1,r0,[sp,#0]
        0x0000cd6e:    2139        9!      MOVS     r1,#0x39
        0x0000cd70:    4628        (F      MOV      r0,r5
        0x0000cd72:    f7fffd2b    ..+.    BL       am_devices_mspi_atxp032_command_write ; 0xc7cc
        0x0000cd76:    4604        .F      MOV      r4,r0
        0x0000cd78:    b10c        ..      CBZ      r4,0xcd7e ; am_devices_mspi_atxp032_sector_erase + 82
        0x0000cd7a:    2001        .       MOVS     r0,#1
        0x0000cd7c:    e7ee        ..      B        0xcd5c ; am_devices_mspi_atxp032_sector_erase + 48
        0x0000cd7e:    2000        .       MOVS     r0,#0
        0x0000cd80:    a903        ..      ADD      r1,sp,#0xc
        0x0000cd82:    4603        .F      MOV      r3,r0
        0x0000cd84:    4602        .F      MOV      r2,r0
        0x0000cd86:    e9cd1000    ....    STRD     r1,r0,[sp,#0]
        0x0000cd8a:    2106        .!      MOVS     r1,#6
        0x0000cd8c:    4628        (F      MOV      r0,r5
        0x0000cd8e:    f7fffd1d    ....    BL       am_devices_mspi_atxp032_command_write ; 0xc7cc
        0x0000cd92:    4604        .F      MOV      r4,r0
        0x0000cd94:    b10c        ..      CBZ      r4,0xcd9a ; am_devices_mspi_atxp032_sector_erase + 110
        0x0000cd96:    2001        .       MOVS     r0,#1
        0x0000cd98:    e7e0        ..      B        0xcd5c ; am_devices_mspi_atxp032_sector_erase + 48
        0x0000cd9a:    2000        .       MOVS     r0,#0
        0x0000cd9c:    a903        ..      ADD      r1,sp,#0xc
        0x0000cd9e:    4633        3F      MOV      r3,r6
        0x0000cda0:    2201        ."      MOVS     r2,#1
        0x0000cda2:    e9cd1000    ....    STRD     r1,r0,[sp,#0]
        0x0000cda6:    21d8        .!      MOVS     r1,#0xd8
        0x0000cda8:    4628        (F      MOV      r0,r5
        0x0000cdaa:    f7fffd0f    ....    BL       am_devices_mspi_atxp032_command_write ; 0xc7cc
        0x0000cdae:    4604        .F      MOV      r4,r0
        0x0000cdb0:    b10c        ..      CBZ      r4,0xcdb6 ; am_devices_mspi_atxp032_sector_erase + 138
        0x0000cdb2:    2001        .       MOVS     r0,#1
        0x0000cdb4:    e7d2        ..      B        0xcd5c ; am_devices_mspi_atxp032_sector_erase + 48
        0x0000cdb6:    f04f0800    O...    MOV      r8,#0
        0x0000cdba:    e046        F.      B        0xce4a ; am_devices_mspi_atxp032_sector_erase + 286
        0x0000cdbc:    f899000d    ....    LDRB     r0,[r9,#0xd]
        0x0000cdc0:    2808        .(      CMP      r0,#8
        0x0000cdc2:    d238        8.      BCS      0xce36 ; am_devices_mspi_atxp032_sector_erase + 266
        0x0000cdc4:    e8dff000    ....    TBB      [pc,r0]
    $d
        0x0000cdc8:    37370504    ..77    DCD    926352644
        0x0000cdcc:    27261615    ..&'    DCD    656807445
    $t
        0x0000cdd0:    bf00        ..      NOP      
        0x0000cdd2:    2002        .       MOVS     r0,#2
        0x0000cdd4:    a903        ..      ADD      r1,sp,#0xc
        0x0000cdd6:    2300        .#      MOVS     r3,#0
        0x0000cdd8:    461a        .F      MOV      r2,r3
        0x0000cdda:    e9cd1000    ....    STRD     r1,r0,[sp,#0]
        0x0000cdde:    2105        .!      MOVS     r1,#5
        0x0000cde0:    4628        (F      MOV      r0,r5
        0x0000cde2:    f7fffcc5    ....    BL       am_devices_mspi_atxp032_command_read ; 0xc770
        0x0000cde6:    9803        ..      LDR      r0,[sp,#0xc]
        0x0000cde8:    f0000001    ....    AND      r0,r0,#1
        0x0000cdec:    f0800701    ....    EOR      r7,r0,#1
        0x0000cdf0:    e023        #.      B        0xce3a ; am_devices_mspi_atxp032_sector_erase + 270
        0x0000cdf2:    bf00        ..      NOP      
        0x0000cdf4:    2004        .       MOVS     r0,#4
        0x0000cdf6:    a903        ..      ADD      r1,sp,#0xc
        0x0000cdf8:    2300        .#      MOVS     r3,#0
        0x0000cdfa:    461a        .F      MOV      r2,r3
        0x0000cdfc:    e9cd1000    ....    STRD     r1,r0,[sp,#0]
        0x0000ce00:    2105        .!      MOVS     r1,#5
        0x0000ce02:    4628        (F      MOV      r0,r5
        0x0000ce04:    f7fffcb4    ....    BL       am_devices_mspi_atxp032_command_read ; 0xc770
        0x0000ce08:    9803        ..      LDR      r0,[sp,#0xc]
        0x0000ce0a:    f3c04000    ...@    UBFX     r0,r0,#16,#1
        0x0000ce0e:    f0800701    ....    EOR      r7,r0,#1
        0x0000ce12:    e012        ..      B        0xce3a ; am_devices_mspi_atxp032_sector_erase + 270
        0x0000ce14:    bf00        ..      NOP      
        0x0000ce16:    2006        .       MOVS     r0,#6
        0x0000ce18:    a903        ..      ADD      r1,sp,#0xc
        0x0000ce1a:    2300        .#      MOVS     r3,#0
        0x0000ce1c:    461a        .F      MOV      r2,r3
        0x0000ce1e:    e9cd1000    ....    STRD     r1,r0,[sp,#0]
        0x0000ce22:    2105        .!      MOVS     r1,#5
        0x0000ce24:    4628        (F      MOV      r0,r5
        0x0000ce26:    f7fffca3    ....    BL       am_devices_mspi_atxp032_command_read ; 0xc770
        0x0000ce2a:    9804        ..      LDR      r0,[sp,#0x10]
        0x0000ce2c:    f0000001    ....    AND      r0,r0,#1
        0x0000ce30:    f0800701    ....    EOR      r7,r0,#1
        0x0000ce34:    e001        ..      B        0xce3a ; am_devices_mspi_atxp032_sector_erase + 270
        0x0000ce36:    2001        .       MOVS     r0,#1
        0x0000ce38:    e790        ..      B        0xcd5c ; am_devices_mspi_atxp032_sector_erase + 48
        0x0000ce3a:    bf00        ..      NOP      
        0x0000ce3c:    b107        ..      CBZ      r7,0xce40 ; am_devices_mspi_atxp032_sector_erase + 276
        0x0000ce3e:    e007        ..      B        0xce50 ; am_devices_mspi_atxp032_sector_erase + 292
        0x0000ce40:    200a        .       MOVS     r0,#0xa
        0x0000ce42:    f002f9e7    ....    BL       am_util_delay_ms ; 0xf214
        0x0000ce46:    f1080801    ....    ADD      r8,r8,#1
        0x0000ce4a:    480b        .H      LDR      r0,[pc,#44] ; [0xce78] = 0xf4240
        0x0000ce4c:    4580        .E      CMP      r8,r0
        0x0000ce4e:    d3b5        ..      BCC      0xcdbc ; am_devices_mspi_atxp032_sector_erase + 144
        0x0000ce50:    bf00        ..      NOP      
        0x0000ce52:    b90f        ..      CBNZ     r7,0xce58 ; am_devices_mspi_atxp032_sector_erase + 300
        0x0000ce54:    2001        .       MOVS     r0,#1
        0x0000ce56:    e781        ..      B        0xcd5c ; am_devices_mspi_atxp032_sector_erase + 48
        0x0000ce58:    2000        .       MOVS     r0,#0
        0x0000ce5a:    a903        ..      ADD      r1,sp,#0xc
        0x0000ce5c:    4603        .F      MOV      r3,r0
        0x0000ce5e:    4602        .F      MOV      r2,r0
        0x0000ce60:    e9cd1000    ....    STRD     r1,r0,[sp,#0]
        0x0000ce64:    2104        .!      MOVS     r1,#4
        0x0000ce66:    4628        (F      MOV      r0,r5
        0x0000ce68:    f7fffcb0    ....    BL       am_devices_mspi_atxp032_command_write ; 0xc7cc
        0x0000ce6c:    4604        .F      MOV      r4,r0
        0x0000ce6e:    b10c        ..      CBZ      r4,0xce74 ; am_devices_mspi_atxp032_sector_erase + 328
        0x0000ce70:    2001        .       MOVS     r0,#1
        0x0000ce72:    e773        s.      B        0xcd5c ; am_devices_mspi_atxp032_sector_erase + 48
        0x0000ce74:    2000        .       MOVS     r0,#0
        0x0000ce76:    e771        q.      B        0xcd5c ; am_devices_mspi_atxp032_sector_erase + 48
    $d
        0x0000ce78:    000f4240    @B..    DCD    1000000
    $t
    i.am_devices_mspi_atxp032_write
    am_devices_mspi_atxp032_write
        0x0000ce7c:    e92d4fff    -..O    PUSH     {r0-r11,lr}
        0x0000ce80:    b0ab        ..      SUB      sp,sp,#0xac
        0x0000ce82:    4606        .F      MOV      r6,r0
        0x0000ce84:    460f        .F      MOV      r7,r1
        0x0000ce86:    2000        .       MOVS     r0,#0
        0x0000ce88:    9024        $.      STR      r0,[sp,#0x90]
        0x0000ce8a:    9c2e        ..      LDR      r4,[sp,#0xb8]
        0x0000ce8c:    f8dd80b4    ....    LDR      r8,[sp,#0xb4]
        0x0000ce90:    46b9        .F      MOV      r9,r7
        0x0000ce92:    46b2        .F      MOV      r10,r6
        0x0000ce94:    2180        .!      MOVS     r1,#0x80
        0x0000ce96:    a804        ..      ADD      r0,sp,#0x10
        0x0000ce98:    f7fffa3c    ..<.    BL       __aeabi_memclr4 ; 0xc314
        0x0000ce9c:    e0ad        ..      B        0xcffa ; am_devices_mspi_atxp032_write + 382
        0x0000ce9e:    2000        .       MOVS     r0,#0
        0x0000cea0:    a904        ..      ADD      r1,sp,#0x10
        0x0000cea2:    4603        .F      MOV      r3,r0
        0x0000cea4:    4602        .F      MOV      r2,r0
        0x0000cea6:    e9cd1000    ....    STRD     r1,r0,[sp,#0]
        0x0000ceaa:    2106        .!      MOVS     r1,#6
        0x0000ceac:    4630        0F      MOV      r0,r6
        0x0000ceae:    f7fffc8d    ....    BL       am_devices_mspi_atxp032_command_write ; 0xc7cc
        0x0000ceb2:    4605        .F      MOV      r5,r0
        0x0000ceb4:    b11d        ..      CBZ      r5,0xcebe ; am_devices_mspi_atxp032_write + 66
        0x0000ceb6:    2001        .       MOVS     r0,#1
        0x0000ceb8:    b02f        /.      ADD      sp,sp,#0xbc
        0x0000ceba:    e8bd8ff0    ....    POP      {r4-r11,pc}
        0x0000cebe:    2001        .       MOVS     r0,#1
        0x0000cec0:    f88d0095    ....    STRB     r0,[sp,#0x95]
        0x0000cec4:    f88d0096    ....    STRB     r0,[sp,#0x96]
        0x0000cec8:    f5b47f80    ....    CMP      r4,#0x100
        0x0000cecc:    d904        ..      BLS      0xced8 ; am_devices_mspi_atxp032_write + 92
        0x0000cece:    0200        ..      LSLS     r0,r0,#8
        0x0000ced0:    9026        &.      STR      r0,[sp,#0x98]
        0x0000ced2:    f5a47480    ...t    SUB      r4,r4,#0x100
        0x0000ced6:    e001        ..      B        0xcedc ; am_devices_mspi_atxp032_write + 96
        0x0000ced8:    9426        &.      STR      r4,[sp,#0x98]
        0x0000ceda:    2400        .$      MOVS     r4,#0
        0x0000cedc:    f8cd809c    ....    STR      r8,[sp,#0x9c]
        0x0000cee0:    f5087880    ...x    ADD      r8,r8,#0x100
        0x0000cee4:    f8cd90a0    ....    STR      r9,[sp,#0xa0]
        0x0000cee8:    f5097980    ...y    ADD      r9,r9,#0x100
        0x0000ceec:    2000        .       MOVS     r0,#0
        0x0000ceee:    9029        ).      STR      r0,[sp,#0xa4]
        0x0000cef0:    902a        *.      STR      r0,[sp,#0xa8]
        0x0000cef2:    9003        ..      STR      r0,[sp,#0xc]
        0x0000cef4:    a803        ..      ADD      r0,sp,#0xc
        0x0000cef6:    9000        ..      STR      r0,[sp,#0]
        0x0000cef8:    4b42        BK      LDR      r3,[pc,#264] ; [0xd004] = 0x10955
        0x0000cefa:    2201        ."      MOVS     r2,#1
        0x0000cefc:    a925        %.      ADD      r1,sp,#0x94
        0x0000cefe:    f8da0004    ....    LDR      r0,[r10,#4]
        0x0000cf02:    f001fe41    ..A.    BL       am_hal_mspi_nonblocking_transfer ; 0xeb88
        0x0000cf06:    4605        .F      MOV      r5,r0
        0x0000cf08:    b10d        ..      CBZ      r5,0xcf0e ; am_devices_mspi_atxp032_write + 146
        0x0000cf0a:    2001        .       MOVS     r0,#1
        0x0000cf0c:    e7d4        ..      B        0xceb8 ; am_devices_mspi_atxp032_write + 60
        0x0000cf0e:    f04f0b00    O...    MOV      r11,#0
        0x0000cf12:    e008        ..      B        0xcf26 ; am_devices_mspi_atxp032_write + 170
        0x0000cf14:    f89d000c    ....    LDRB     r0,[sp,#0xc]
        0x0000cf18:    b100        ..      CBZ      r0,0xcf1c ; am_devices_mspi_atxp032_write + 160
        0x0000cf1a:    e007        ..      B        0xcf2c ; am_devices_mspi_atxp032_write + 176
        0x0000cf1c:    2001        .       MOVS     r0,#1
        0x0000cf1e:    f002f989    ....    BL       am_util_delay_us ; 0xf234
        0x0000cf22:    f10b0b01    ....    ADD      r11,r11,#1
        0x0000cf26:    4838        8H      LDR      r0,[pc,#224] ; [0xd008] = 0xf4240
        0x0000cf28:    4583        .E      CMP      r11,r0
        0x0000cf2a:    d3f3        ..      BCC      0xcf14 ; am_devices_mspi_atxp032_write + 152
        0x0000cf2c:    bf00        ..      NOP      
        0x0000cf2e:    f89d000c    ....    LDRB     r0,[sp,#0xc]
        0x0000cf32:    b908        ..      CBNZ     r0,0xcf38 ; am_devices_mspi_atxp032_write + 188
        0x0000cf34:    2001        .       MOVS     r0,#1
        0x0000cf36:    e7bf        ..      B        0xceb8 ; am_devices_mspi_atxp032_write + 60
        0x0000cf38:    f04f0b00    O...    MOV      r11,#0
        0x0000cf3c:    e04a        J.      B        0xcfd4 ; am_devices_mspi_atxp032_write + 344
        0x0000cf3e:    f89a000d    ....    LDRB     r0,[r10,#0xd]
        0x0000cf42:    2808        .(      CMP      r0,#8
        0x0000cf44:    d23b        ;.      BCS      0xcfbe ; am_devices_mspi_atxp032_write + 322
        0x0000cf46:    e8dff000    ....    TBB      [pc,r0]
    $d
        0x0000cf4a:    0504        ..      DCW    1284
        0x0000cf4c:    17163a3a    ::..    DCD    387332666
        0x0000cf50:    2928        ()      DCW    10536
    $t
        0x0000cf52:    bf00        ..      NOP      
        0x0000cf54:    2002        .       MOVS     r0,#2
        0x0000cf56:    a904        ..      ADD      r1,sp,#0x10
        0x0000cf58:    2300        .#      MOVS     r3,#0
        0x0000cf5a:    461a        .F      MOV      r2,r3
        0x0000cf5c:    e9cd1000    ....    STRD     r1,r0,[sp,#0]
        0x0000cf60:    2105        .!      MOVS     r1,#5
        0x0000cf62:    4630        0F      MOV      r0,r6
        0x0000cf64:    f7fffc04    ....    BL       am_devices_mspi_atxp032_command_read ; 0xc770
        0x0000cf68:    9804        ..      LDR      r0,[sp,#0x10]
        0x0000cf6a:    f0000001    ....    AND      r0,r0,#1
        0x0000cf6e:    f0800001    ....    EOR      r0,r0,#1
        0x0000cf72:    9024        $.      STR      r0,[sp,#0x90]
        0x0000cf74:    e025        %.      B        0xcfc2 ; am_devices_mspi_atxp032_write + 326
        0x0000cf76:    bf00        ..      NOP      
        0x0000cf78:    2004        .       MOVS     r0,#4
        0x0000cf7a:    a904        ..      ADD      r1,sp,#0x10
        0x0000cf7c:    2300        .#      MOVS     r3,#0
        0x0000cf7e:    461a        .F      MOV      r2,r3
        0x0000cf80:    e9cd1000    ....    STRD     r1,r0,[sp,#0]
        0x0000cf84:    2105        .!      MOVS     r1,#5
        0x0000cf86:    4630        0F      MOV      r0,r6
        0x0000cf88:    f7fffbf2    ....    BL       am_devices_mspi_atxp032_command_read ; 0xc770
        0x0000cf8c:    9804        ..      LDR      r0,[sp,#0x10]
        0x0000cf8e:    f3c04000    ...@    UBFX     r0,r0,#16,#1
        0x0000cf92:    f0800001    ....    EOR      r0,r0,#1
        0x0000cf96:    9024        $.      STR      r0,[sp,#0x90]
        0x0000cf98:    e013        ..      B        0xcfc2 ; am_devices_mspi_atxp032_write + 326
        0x0000cf9a:    bf00        ..      NOP      
        0x0000cf9c:    2006        .       MOVS     r0,#6
        0x0000cf9e:    a904        ..      ADD      r1,sp,#0x10
        0x0000cfa0:    2300        .#      MOVS     r3,#0
        0x0000cfa2:    461a        .F      MOV      r2,r3
        0x0000cfa4:    e9cd1000    ....    STRD     r1,r0,[sp,#0]
        0x0000cfa8:    2105        .!      MOVS     r1,#5
        0x0000cfaa:    4630        0F      MOV      r0,r6
        0x0000cfac:    f7fffbe0    ....    BL       am_devices_mspi_atxp032_command_read ; 0xc770
        0x0000cfb0:    9805        ..      LDR      r0,[sp,#0x14]
        0x0000cfb2:    f0000001    ....    AND      r0,r0,#1
        0x0000cfb6:    f0800001    ....    EOR      r0,r0,#1
        0x0000cfba:    9024        $.      STR      r0,[sp,#0x90]
        0x0000cfbc:    e001        ..      B        0xcfc2 ; am_devices_mspi_atxp032_write + 326
        0x0000cfbe:    2001        .       MOVS     r0,#1
        0x0000cfc0:    e77a        z.      B        0xceb8 ; am_devices_mspi_atxp032_write + 60
        0x0000cfc2:    bf00        ..      NOP      
        0x0000cfc4:    2064        d       MOVS     r0,#0x64
        0x0000cfc6:    f002f935    ..5.    BL       am_util_delay_us ; 0xf234
        0x0000cfca:    9824        $.      LDR      r0,[sp,#0x90]
        0x0000cfcc:    b100        ..      CBZ      r0,0xcfd0 ; am_devices_mspi_atxp032_write + 340
        0x0000cfce:    e004        ..      B        0xcfda ; am_devices_mspi_atxp032_write + 350
        0x0000cfd0:    f10b0b01    ....    ADD      r11,r11,#1
        0x0000cfd4:    480c        .H      LDR      r0,[pc,#48] ; [0xd008] = 0xf4240
        0x0000cfd6:    4583        .E      CMP      r11,r0
        0x0000cfd8:    d3b1        ..      BCC      0xcf3e ; am_devices_mspi_atxp032_write + 194
        0x0000cfda:    bf00        ..      NOP      
        0x0000cfdc:    2000        .       MOVS     r0,#0
        0x0000cfde:    a904        ..      ADD      r1,sp,#0x10
        0x0000cfe0:    4603        .F      MOV      r3,r0
        0x0000cfe2:    4602        .F      MOV      r2,r0
        0x0000cfe4:    e9cd1000    ....    STRD     r1,r0,[sp,#0]
        0x0000cfe8:    2104        .!      MOVS     r1,#4
        0x0000cfea:    4630        0F      MOV      r0,r6
        0x0000cfec:    f7fffbee    ....    BL       am_devices_mspi_atxp032_command_write ; 0xc7cc
        0x0000cff0:    4605        .F      MOV      r5,r0
        0x0000cff2:    b10d        ..      CBZ      r5,0xcff8 ; am_devices_mspi_atxp032_write + 380
        0x0000cff4:    2001        .       MOVS     r0,#1
        0x0000cff6:    e75f        _.      B        0xceb8 ; am_devices_mspi_atxp032_write + 60
        0x0000cff8:    bf00        ..      NOP      
        0x0000cffa:    2c00        .,      CMP      r4,#0
        0x0000cffc:    f47faf4f    ..O.    BNE      0xce9e ; am_devices_mspi_atxp032_write + 34
        0x0000d000:    2000        .       MOVS     r0,#0
        0x0000d002:    e759        Y.      B        0xceb8 ; am_devices_mspi_atxp032_write + 60
    $d
        0x0000d004:    00010955    U...    DCD    67925
        0x0000d008:    000f4240    @B..    DCD    1000000
    $t
    i.am_hal_cachectrl_control
    am_hal_cachectrl_control
        0x0000d00c:    b538        8.      PUSH     {r3-r5,lr}
        0x0000d00e:    2812        .(      CMP      r0,#0x12
        0x0000d010:    f080814a    ..J.    BCS.W    0xd2a8 ; am_hal_cachectrl_control + 668
        0x0000d014:    e8dff000    ....    TBB      [pc,r0]
    $d
        0x0000d018:    140b09fd    ....    DCD    336267773
        0x0000d01c:    1e1c1a17    ....    DCD    505158167
        0x0000d020:    3f332721    !'3?    DCD    1060316961
        0x0000d024:    fce1ab75    u...    DCD    4242647925
        0x0000d028:    fafb        ..      DCW    64251
    $t
        0x0000d02a:    2001        .       MOVS     r0,#1
        0x0000d02c:    e017        ..      B        0xd05e ; am_hal_cachectrl_control + 82
        0x0000d02e:    48a9        .H      LDR      r0,[pc,#676] ; [0xd2d4] = 0x40018000
        0x0000d030:    6800        .h      LDR      r0,[r0,#0]
        0x0000d032:    f0107f80    ....    TST      r0,#0x1000000
        0x0000d036:    bf0a        ..      ITET     EQ
        0x0000d038:    2007        .       MOVEQ    r0,#7
        0x0000d03a:    2002        .       MOVNE    r0,#2
        0x0000d03c:    bd38        8.      POPEQ    {r3-r5,pc}
        0x0000d03e:    e00e        ..      B        0xd05e ; am_hal_cachectrl_control + 82
        0x0000d040:    f44f6088    O..`    MOV      r0,#0x440
        0x0000d044:    e00b        ..      B        0xd05e ; am_hal_cachectrl_control + 82
        0x0000d046:    f44f7008    O..p    MOV      r0,#0x220
        0x0000d04a:    e008        ..      B        0xd05e ; am_hal_cachectrl_control + 82
        0x0000d04c:    2040        @       MOVS     r0,#0x40
        0x0000d04e:    e006        ..      B        0xd05e ; am_hal_cachectrl_control + 82
        0x0000d050:    2020                MOVS     r0,#0x20
        0x0000d052:    e004        ..      B        0xd05e ; am_hal_cachectrl_control + 82
        0x0000d054:    f44f6080    O..`    MOV      r0,#0x400
        0x0000d058:    e001        ..      B        0xd05e ; am_hal_cachectrl_control + 82
        0x0000d05a:    f44f7000    O..p    MOV      r0,#0x200
        0x0000d05e:    499d        .I      LDR      r1,[pc,#628] ; [0xd2d4] = 0x40018000
        0x0000d060:    6088        .`      STR      r0,[r1,#8]
        0x0000d062:    2000        .       MOVS     r0,#0
        0x0000d064:    bd38        8.      POP      {r3-r5,pc}
        0x0000d066:    f7fff90f    ....    BL       am_hal_interrupt_master_disable ; 0xc288
        0x0000d06a:    9000        ..      STR      r0,[sp,#0]
        0x0000d06c:    4899        .H      LDR      r0,[pc,#612] ; [0xd2d4] = 0x40018000
        0x0000d06e:    6801        .h      LDR      r1,[r0,#0]
        0x0000d070:    f0417180    A..q    ORR      r1,r1,#0x1000000
        0x0000d074:    6001        .`      STR      r1,[r0,#0]
        0x0000d076:    9800        ..      LDR      r0,[sp,#0]
        0x0000d078:    f7fff90a    ....    BL       am_hal_interrupt_master_set ; 0xc290
        0x0000d07c:    e7f1        ..      B        0xd062 ; am_hal_cachectrl_control + 86
        0x0000d07e:    f7fff903    ....    BL       am_hal_interrupt_master_disable ; 0xc288
        0x0000d082:    9000        ..      STR      r0,[sp,#0]
        0x0000d084:    4893        .H      LDR      r0,[pc,#588] ; [0xd2d4] = 0x40018000
        0x0000d086:    6801        .h      LDR      r1,[r0,#0]
        0x0000d088:    f0217180    !..q    BIC      r1,r1,#0x1000000
        0x0000d08c:    6001        .`      STR      r1,[r0,#0]
        0x0000d08e:    9800        ..      LDR      r0,[sp,#0]
        0x0000d090:    f7fff8fe    ....    BL       am_hal_interrupt_master_set ; 0xc290
        0x0000d094:    e7e5        ..      B        0xd062 ; am_hal_cachectrl_control + 86
        0x0000d096:    4c90        .L      LDR      r4,[pc,#576] ; [0xd2d8] = 0x40018004
        0x0000d098:    f7fff8f6    ....    BL       am_hal_interrupt_master_disable ; 0xc288
        0x0000d09c:    9000        ..      STR      r0,[sp,#0]
        0x0000d09e:    4620         F      MOV      r0,r4
        0x0000d0a0:    f000fbf8    ....    BL       am_hal_flash_load_ui32 ; 0xd894
        0x0000d0a4:    f420507c     .|P    BIC      r0,r0,#0x3f00
        0x0000d0a8:    f44061e0    @..a    ORR      r1,r0,#0x700
        0x0000d0ac:    4620         F      MOV      r0,r4
        0x0000d0ae:    f000fbf5    ....    BL       am_hal_flash_store_ui32 ; 0xd89c
        0x0000d0b2:    9800        ..      LDR      r0,[sp,#0]
        0x0000d0b4:    f7fff8ec    ....    BL       am_hal_interrupt_master_set ; 0xc290
        0x0000d0b8:    f7fff8e6    ....    BL       am_hal_interrupt_master_disable ; 0xc288
        0x0000d0bc:    9000        ..      STR      r0,[sp,#0]
        0x0000d0be:    4620         F      MOV      r0,r4
        0x0000d0c0:    f000fbe8    ....    BL       am_hal_flash_load_ui32 ; 0xd894
        0x0000d0c4:    f4206077     .w`    BIC      r0,r0,#0xf70
        0x0000d0c8:    f44061ee    @..a    ORR      r1,r0,#0x770
        0x0000d0cc:    4620         F      MOV      r0,r4
        0x0000d0ce:    f000fbe5    ....    BL       am_hal_flash_store_ui32 ; 0xd89c
        0x0000d0d2:    9800        ..      LDR      r0,[sp,#0]
        0x0000d0d4:    f7fff8dc    ....    BL       am_hal_interrupt_master_set ; 0xc290
        0x0000d0d8:    f7fff8d6    ....    BL       am_hal_interrupt_master_disable ; 0xc288
        0x0000d0dc:    9000        ..      STR      r0,[sp,#0]
        0x0000d0de:    4620         F      MOV      r0,r4
        0x0000d0e0:    f000fbd8    ....    BL       am_hal_flash_load_ui32 ; 0xd894
        0x0000d0e4:    f020000f     ...    BIC      r0,r0,#0xf
        0x0000d0e8:    f4206070     .p`    BIC      r0,r0,#0xf00
        0x0000d0ec:    f0400003    @...    ORR      r0,r0,#3
        0x0000d0f0:    f44061e0    @..a    ORR      r1,r0,#0x700
        0x0000d0f4:    4620         F      MOV      r0,r4
        0x0000d0f6:    f000fbd1    ....    BL       am_hal_flash_store_ui32 ; 0xd89c
        0x0000d0fa:    9800        ..      LDR      r0,[sp,#0]
        0x0000d0fc:    f7fff8c8    ....    BL       am_hal_interrupt_master_set ; 0xc290
        0x0000d100:    e7af        ..      B        0xd062 ; am_hal_cachectrl_control + 86
        0x0000d102:    4c75        uL      LDR      r4,[pc,#468] ; [0xd2d8] = 0x40018004
        0x0000d104:    f7fff8c0    ....    BL       am_hal_interrupt_master_disable ; 0xc288
        0x0000d108:    9000        ..      STR      r0,[sp,#0]
        0x0000d10a:    4620         F      MOV      r0,r4
        0x0000d10c:    f000fbc2    ....    BL       am_hal_flash_load_ui32 ; 0xd894
        0x0000d110:    f420507c     .|P    BIC      r0,r0,#0x3f00
        0x0000d114:    f44051b8    @..Q    ORR      r1,r0,#0x1700
        0x0000d118:    4620         F      MOV      r0,r4
        0x0000d11a:    f000fbbf    ....    BL       am_hal_flash_store_ui32 ; 0xd89c
        0x0000d11e:    9800        ..      LDR      r0,[sp,#0]
        0x0000d120:    f7fff8b6    ....    BL       am_hal_interrupt_master_set ; 0xc290
        0x0000d124:    f7fff8b0    ....    BL       am_hal_interrupt_master_disable ; 0xc288
        0x0000d128:    9000        ..      STR      r0,[sp,#0]
        0x0000d12a:    4620         F      MOV      r0,r4
        0x0000d12c:    f000fbb2    ....    BL       am_hal_flash_load_ui32 ; 0xd894
        0x0000d130:    f4206077     .w`    BIC      r0,r0,#0xf70
        0x0000d134:    f44061ea    @..a    ORR      r1,r0,#0x750
        0x0000d138:    4620         F      MOV      r0,r4
        0x0000d13a:    f000fbaf    ....    BL       am_hal_flash_store_ui32 ; 0xd89c
        0x0000d13e:    9800        ..      LDR      r0,[sp,#0]
        0x0000d140:    f7fff8a6    ....    BL       am_hal_interrupt_master_set ; 0xc290
        0x0000d144:    f7fff8a0    ....    BL       am_hal_interrupt_master_disable ; 0xc288
        0x0000d148:    9000        ..      STR      r0,[sp,#0]
        0x0000d14a:    4620         F      MOV      r0,r4
        0x0000d14c:    f000fba2    ....    BL       am_hal_flash_load_ui32 ; 0xd894
        0x0000d150:    f020000f     ...    BIC      r0,r0,#0xf
        0x0000d154:    f4206070     .p`    BIC      r0,r0,#0xf00
        0x0000d158:    f0400001    @...    ORR      r0,r0,#1
        0x0000d15c:    f44061e0    @..a    ORR      r1,r0,#0x700
        0x0000d160:    4620         F      MOV      r0,r4
        0x0000d162:    f000fb9b    ....    BL       am_hal_flash_store_ui32 ; 0xd89c
        0x0000d166:    9800        ..      LDR      r0,[sp,#0]
        0x0000d168:    f7fff892    ....    BL       am_hal_interrupt_master_set ; 0xc290
        0x0000d16c:    e779        y.      B        0xd062 ; am_hal_cachectrl_control + 86
        0x0000d16e:    4c5a        ZL      LDR      r4,[pc,#360] ; [0xd2d8] = 0x40018004
        0x0000d170:    f7fff88a    ....    BL       am_hal_interrupt_master_disable ; 0xc288
        0x0000d174:    9000        ..      STR      r0,[sp,#0]
        0x0000d176:    4620         F      MOV      r0,r4
        0x0000d178:    f000fb8c    ....    BL       am_hal_flash_load_ui32 ; 0xd894
        0x0000d17c:    f420507c     .|P    BIC      r0,r0,#0x3f00
        0x0000d180:    f44051b8    @..Q    ORR      r1,r0,#0x1700
        0x0000d184:    4620         F      MOV      r0,r4
        0x0000d186:    f000fb89    ....    BL       am_hal_flash_store_ui32 ; 0xd89c
        0x0000d18a:    9800        ..      LDR      r0,[sp,#0]
        0x0000d18c:    f7fff880    ....    BL       am_hal_interrupt_master_set ; 0xc290
        0x0000d190:    f7fff87a    ..z.    BL       am_hal_interrupt_master_disable ; 0xc288
        0x0000d194:    9000        ..      STR      r0,[sp,#0]
        0x0000d196:    4620         F      MOV      r0,r4
        0x0000d198:    f000fb7c    ..|.    BL       am_hal_flash_load_ui32 ; 0xd894
        0x0000d19c:    f4206077     .w`    BIC      r0,r0,#0xf70
        0x0000d1a0:    f44061ec    @..a    ORR      r1,r0,#0x760
        0x0000d1a4:    4620         F      MOV      r0,r4
        0x0000d1a6:    f000fb79    ..y.    BL       am_hal_flash_store_ui32 ; 0xd89c
        0x0000d1aa:    9800        ..      LDR      r0,[sp,#0]
        0x0000d1ac:    f7fff870    ..p.    BL       am_hal_interrupt_master_set ; 0xc290
        0x0000d1b0:    f7fff86a    ..j.    BL       am_hal_interrupt_master_disable ; 0xc288
        0x0000d1b4:    9000        ..      STR      r0,[sp,#0]
        0x0000d1b6:    4620         F      MOV      r0,r4
        0x0000d1b8:    f000fb6c    ..l.    BL       am_hal_flash_load_ui32 ; 0xd894
        0x0000d1bc:    f020000f     ...    BIC      r0,r0,#0xf
        0x0000d1c0:    f4206070     .p`    BIC      r0,r0,#0xf00
        0x0000d1c4:    f0400001    @...    ORR      r0,r0,#1
        0x0000d1c8:    f44061e0    @..a    ORR      r1,r0,#0x700
        0x0000d1cc:    4620         F      MOV      r0,r4
        0x0000d1ce:    f000fb65    ..e.    BL       am_hal_flash_store_ui32 ; 0xd89c
        0x0000d1d2:    9800        ..      LDR      r0,[sp,#0]
        0x0000d1d4:    f7fff85c    ..\.    BL       am_hal_interrupt_master_set ; 0xc290
        0x0000d1d8:    e743        C.      B        0xd062 ; am_hal_cachectrl_control + 86
        0x0000d1da:    2900        .)      CMP      r1,#0
        0x0000d1dc:    d064        d.      BEQ      0xd2a8 ; am_hal_cachectrl_control + 668
        0x0000d1de:    680c        .h      LDR      r4,[r1,#0]
        0x0000d1e0:    2c03        .,      CMP      r4,#3
        0x0000d1e2:    d839        9.      BHI      0xd258 ; am_hal_cachectrl_control + 588
        0x0000d1e4:    4d3c        <M      LDR      r5,[pc,#240] ; [0xd2d8] = 0x40018004
        0x0000d1e6:    f7fff84f    ..O.    BL       am_hal_interrupt_master_disable ; 0xc288
        0x0000d1ea:    9000        ..      STR      r0,[sp,#0]
        0x0000d1ec:    4628        (F      MOV      r0,r5
        0x0000d1ee:    f000fb51    ..Q.    BL       am_hal_flash_load_ui32 ; 0xd894
        0x0000d1f2:    f44f5140    O.@Q    MOV      r1,#0x3000
        0x0000d1f6:    f420507c     .|P    BIC      r0,r0,#0x3f00
        0x0000d1fa:    ea013104    ...1    AND      r1,r1,r4,LSL #12
        0x0000d1fe:    4308        .C      ORRS     r0,r0,r1
        0x0000d200:    f44061e0    @..a    ORR      r1,r0,#0x700
        0x0000d204:    4628        (F      MOV      r0,r5
        0x0000d206:    f000fb49    ..I.    BL       am_hal_flash_store_ui32 ; 0xd89c
        0x0000d20a:    e003        ..      B        0xd214 ; am_hal_cachectrl_control + 520
        0x0000d20c:    e03e        >.      B        0xd28c ; am_hal_cachectrl_control + 640
        0x0000d20e:    e01f        ..      B        0xd250 ; am_hal_cachectrl_control + 580
        0x0000d210:    e004        ..      B        0xd21c ; am_hal_cachectrl_control + 528
        0x0000d212:    e03a        :.      B        0xd28a ; am_hal_cachectrl_control + 638
        0x0000d214:    9800        ..      LDR      r0,[sp,#0]
        0x0000d216:    f7fff83b    ..;.    BL       am_hal_interrupt_master_set ; 0xc290
        0x0000d21a:    e722        ".      B        0xd062 ; am_hal_cachectrl_control + 86
        0x0000d21c:    b3a9        ..      CBZ      r1,0xd28a ; am_hal_cachectrl_control + 638
        0x0000d21e:    680c        .h      LDR      r4,[r1,#0]
        0x0000d220:    2c07        .,      CMP      r4,#7
        0x0000d222:    d819        ..      BHI      0xd258 ; am_hal_cachectrl_control + 588
        0x0000d224:    4d2c        ,M      LDR      r5,[pc,#176] ; [0xd2d8] = 0x40018004
        0x0000d226:    f7fff82f    ../.    BL       am_hal_interrupt_master_disable ; 0xc288
        0x0000d22a:    9000        ..      STR      r0,[sp,#0]
        0x0000d22c:    4628        (F      MOV      r0,r5
        0x0000d22e:    f000fb31    ..1.    BL       am_hal_flash_load_ui32 ; 0xd894
        0x0000d232:    2170        p!      MOVS     r1,#0x70
        0x0000d234:    f4206077     .w`    BIC      r0,r0,#0xf70
        0x0000d238:    ea011104    ....    AND      r1,r1,r4,LSL #4
        0x0000d23c:    4308        .C      ORRS     r0,r0,r1
        0x0000d23e:    f44061e0    @..a    ORR      r1,r0,#0x700
        0x0000d242:    4628        (F      MOV      r0,r5
        0x0000d244:    f000fb2a    ..*.    BL       am_hal_flash_store_ui32 ; 0xd89c
        0x0000d248:    9800        ..      LDR      r0,[sp,#0]
        0x0000d24a:    f7fff821    ..!.    BL       am_hal_interrupt_master_set ; 0xc290
        0x0000d24e:    e708        ..      B        0xd062 ; am_hal_cachectrl_control + 86
        0x0000d250:    b1d9        ..      CBZ      r1,0xd28a ; am_hal_cachectrl_control + 638
        0x0000d252:    680c        .h      LDR      r4,[r1,#0]
        0x0000d254:    2c0f        .,      CMP      r4,#0xf
        0x0000d256:    d901        ..      BLS      0xd25c ; am_hal_cachectrl_control + 592
        0x0000d258:    2001        .       MOVS     r0,#1
        0x0000d25a:    bd38        8.      POP      {r3-r5,pc}
        0x0000d25c:    4d1e        .M      LDR      r5,[pc,#120] ; [0xd2d8] = 0x40018004
        0x0000d25e:    f7fff813    ....    BL       am_hal_interrupt_master_disable ; 0xc288
        0x0000d262:    9000        ..      STR      r0,[sp,#0]
        0x0000d264:    4628        (F      MOV      r0,r5
        0x0000d266:    f000fb15    ....    BL       am_hal_flash_load_ui32 ; 0xd894
        0x0000d26a:    f020000f     ...    BIC      r0,r0,#0xf
        0x0000d26e:    f4206070     .p`    BIC      r0,r0,#0xf00
        0x0000d272:    f004010f    ....    AND      r1,r4,#0xf
        0x0000d276:    4308        .C      ORRS     r0,r0,r1
        0x0000d278:    f44061e0    @..a    ORR      r1,r0,#0x700
        0x0000d27c:    4628        (F      MOV      r0,r5
        0x0000d27e:    f000fb0d    ....    BL       am_hal_flash_store_ui32 ; 0xd89c
        0x0000d282:    9800        ..      LDR      r0,[sp,#0]
        0x0000d284:    f7fff804    ....    BL       am_hal_interrupt_master_set ; 0xc290
        0x0000d288:    e6eb        ..      B        0xd062 ; am_hal_cachectrl_control + 86
        0x0000d28a:    e00d        ..      B        0xd2a8 ; am_hal_cachectrl_control + 668
        0x0000d28c:    b161        a.      CBZ      r1,0xd2a8 ; am_hal_cachectrl_control + 668
        0x0000d28e:    6848        Hh      LDR      r0,[r1,#4]
        0x0000d290:    4602        .F      MOV      r2,r0
        0x0000d292:    f36f121a    o...    BFC      r2,#4,#23
        0x0000d296:    b93a        :.      CBNZ     r2,0xd2a8 ; am_hal_cachectrl_control + 668
        0x0000d298:    688a        .h      LDR      r2,[r1,#8]
        0x0000d29a:    f36f121a    o...    BFC      r2,#4,#23
        0x0000d29e:    b91a        ..      CBNZ     r2,0xd2a8 ; am_hal_cachectrl_control + 668
        0x0000d2a0:    780a        .x      LDRB     r2,[r1,#0]
        0x0000d2a2:    b11a        ..      CBZ      r2,0xd2ac ; am_hal_cachectrl_control + 672
        0x0000d2a4:    2a01        .*      CMP      r2,#1
        0x0000d2a6:    d00a        ..      BEQ      0xd2be ; am_hal_cachectrl_control + 690
        0x0000d2a8:    2006        .       MOVS     r0,#6
        0x0000d2aa:    bd38        8.      POP      {r3-r5,pc}
        0x0000d2ac:    4a09        .J      LDR      r2,[pc,#36] ; [0xd2d4] = 0x40018000
        0x0000d2ae:    6110        .a      STR      r0,[r2,#0x10]
        0x0000d2b0:    6888        .h      LDR      r0,[r1,#8]
        0x0000d2b2:    6150        Pa      STR      r0,[r2,#0x14]
        0x0000d2b4:    7849        Ix      LDRB     r1,[r1,#1]
        0x0000d2b6:    6810        .h      LDR      r0,[r2,#0]
        0x0000d2b8:    f3610082    a...    BFI      r0,r1,#2,#1
        0x0000d2bc:    e007        ..      B        0xd2ce ; am_hal_cachectrl_control + 706
        0x0000d2be:    4a05        .J      LDR      r2,[pc,#20] ; [0xd2d4] = 0x40018000
        0x0000d2c0:    6190        .a      STR      r0,[r2,#0x18]
        0x0000d2c2:    6888        .h      LDR      r0,[r1,#8]
        0x0000d2c4:    61d0        .a      STR      r0,[r2,#0x1c]
        0x0000d2c6:    7849        Ix      LDRB     r1,[r1,#1]
        0x0000d2c8:    6810        .h      LDR      r0,[r2,#0]
        0x0000d2ca:    f36100c3    a...    BFI      r0,r1,#3,#1
        0x0000d2ce:    6010        .`      STR      r0,[r2,#0]
        0x0000d2d0:    e6c7        ..      B        0xd062 ; am_hal_cachectrl_control + 86
    $d
        0x0000d2d2:    0000        ..      DCW    0
        0x0000d2d4:    40018000    ...@    DCD    1073840128
        0x0000d2d8:    40018004    ...@    DCD    1073840132
    $t
    i.am_hal_clkgen_control
    am_hal_clkgen_control
        0x0000d2dc:    b510        ..      PUSH     {r4,lr}
        0x0000d2de:    460c        .F      MOV      r4,r1
        0x0000d2e0:    4939        9I      LDR      r1,[pc,#228] ; [0xd3c8] = 0x10000148
        0x0000d2e2:    680a        .h      LDR      r2,[r1,#0]
        0x0000d2e4:    b912        ..      CBNZ     r2,0xd2ec ; am_hal_clkgen_control + 16
        0x0000d2e6:    4a39        9J      LDR      r2,[pc,#228] ; [0xd3cc] = 0x4ffff000
        0x0000d2e8:    6812        .h      LDR      r2,[r2,#0]
        0x0000d2ea:    600a        .`      STR      r2,[r1,#0]
        0x0000d2ec:    280a        .(      CMP      r0,#0xa
        0x0000d2ee:    d269        i.      BCS      0xd3c4 ; am_hal_clkgen_control + 232
        0x0000d2f0:    e8dff000    ....    TBB      [pc,r0]
    $d
        0x0000d2f4:    27151b05    ...'    DCD    655694597
        0x0000d2f8:    3a400c21    !.@:    DCD    977275937
        0x0000d2fc:    6047        G`      DCW    24647
    $t
        0x0000d2fe:    f04f2040    O.@     MOV      r0,#0x40004000
        0x0000d302:    2147        G!      MOVS     r1,#0x47
        0x0000d304:    6141        Aa      STR      r1,[r0,#0x14]
        0x0000d306:    2100        .!      MOVS     r1,#0
        0x0000d308:    6181        .a      STR      r1,[r0,#0x18]
        0x0000d30a:    e006        ..      B        0xd31a ; am_hal_clkgen_control + 62
        0x0000d30c:    f04f2040    O.@     MOV      r0,#0x40004000
        0x0000d310:    2147        G!      MOVS     r1,#0x47
        0x0000d312:    6141        Aa      STR      r1,[r0,#0x14]
        0x0000d314:    2101        .!      MOVS     r1,#1
        0x0000d316:    6181        .a      STR      r1,[r0,#0x18]
        0x0000d318:    2100        .!      MOVS     r1,#0
        0x0000d31a:    6141        Aa      STR      r1,[r0,#0x14]
        0x0000d31c:    e050        P.      B        0xd3c0 ; am_hal_clkgen_control + 228
        0x0000d31e:    f04f2040    O.@     MOV      r0,#0x40004000
        0x0000d322:    68c1        .h      LDR      r1,[r0,#0xc]
        0x0000d324:    f0210102    !...    BIC      r1,r1,#2
        0x0000d328:    e029        ).      B        0xd37e ; am_hal_clkgen_control + 162
        0x0000d32a:    f04f2040    O.@     MOV      r0,#0x40004000
        0x0000d32e:    68c1        .h      LDR      r1,[r0,#0xc]
        0x0000d330:    f0210101    !...    BIC      r1,r1,#1
        0x0000d334:    e023        #.      B        0xd37e ; am_hal_clkgen_control + 162
        0x0000d336:    f04f2040    O.@     MOV      r0,#0x40004000
        0x0000d33a:    68c1        .h      LDR      r1,[r0,#0xc]
        0x0000d33c:    f0410102    A...    ORR      r1,r1,#2
        0x0000d340:    e01d        ..      B        0xd37e ; am_hal_clkgen_control + 162
        0x0000d342:    4823        #H      LDR      r0,[pc,#140] ; [0xd3d0] = 0x40020000
        0x0000d344:    68c1        .h      LDR      r1,[r0,#0xc]
        0x0000d346:    b2c9        ..      UXTB     r1,r1
        0x0000d348:    2921        !)      CMP      r1,#0x21
        0x0000d34a:    d107        ..      BNE      0xd35c ; am_hal_clkgen_control + 128
        0x0000d34c:    f8d01120    .. .    LDR      r1,[r0,#0x120]
        0x0000d350:    f4217140    !.@q    BIC      r1,r1,#0x300
        0x0000d354:    f5017180    ...q    ADD      r1,r1,#0x100
        0x0000d358:    f8c01120    .. .    STR      r1,[r0,#0x120]
        0x0000d35c:    f04f2040    O.@     MOV      r0,#0x40004000
        0x0000d360:    68c1        .h      LDR      r1,[r0,#0xc]
        0x0000d362:    f0410101    A...    ORR      r1,r1,#1
        0x0000d366:    e00a        ..      B        0xd37e ; am_hal_clkgen_control + 162
        0x0000d368:    f04f2040    O.@     MOV      r0,#0x40004000
        0x0000d36c:    68c1        .h      LDR      r1,[r0,#0xc]
        0x0000d36e:    f0410180    A...    ORR      r1,r1,#0x80
        0x0000d372:    e004        ..      B        0xd37e ; am_hal_clkgen_control + 162
        0x0000d374:    f04f2040    O.@     MOV      r0,#0x40004000
        0x0000d378:    68c1        .h      LDR      r1,[r0,#0xc]
        0x0000d37a:    f0210180    !...    BIC      r1,r1,#0x80
        0x0000d37e:    60c1        .`      STR      r1,[r0,#0xc]
        0x0000d380:    e01e        ..      B        0xd3c0 ; am_hal_clkgen_control + 228
        0x0000d382:    4813        .H      LDR      r0,[pc,#76] ; [0xd3d0] = 0x40020000
        0x0000d384:    68c1        .h      LDR      r1,[r0,#0xc]
        0x0000d386:    b2c9        ..      UXTB     r1,r1
        0x0000d388:    2921        !)      CMP      r1,#0x21
        0x0000d38a:    d109        ..      BNE      0xd3a0 ; am_hal_clkgen_control + 196
        0x0000d38c:    f8d01120    .. .    LDR      r1,[r0,#0x120]
        0x0000d390:    f4417140    A.@q    ORR      r1,r1,#0x300
        0x0000d394:    f8c01120    .. .    STR      r1,[r0,#0x120]
        0x0000d398:    f44f507a    O.zP    MOV      r0,#0x3e80
        0x0000d39c:    f000fa3a    ..:.    BL       am_hal_flash_delay ; 0xd814
        0x0000d3a0:    2c00        .,      CMP      r4,#0
        0x0000d3a2:    bf0c        ..      ITE      EQ
        0x0000d3a4:    480b        .H      LDREQ    r0,[pc,#44] ; [0xd3d4] = 0x25b801
        0x0000d3a6:    6820         h      LDRNE    r0,[r4,#0]
        0x0000d3a8:    f0400001    @...    ORR      r0,r0,#1
        0x0000d3ac:    f04f2140    O.@!    MOV      r1,#0x40004000
        0x0000d3b0:    6208        .b      STR      r0,[r1,#0x20]
        0x0000d3b2:    e005        ..      B        0xd3c0 ; am_hal_clkgen_control + 228
        0x0000d3b4:    f04f2040    O.@     MOV      r0,#0x40004000
        0x0000d3b8:    6a01        .j      LDR      r1,[r0,#0x20]
        0x0000d3ba:    f0210101    !...    BIC      r1,r1,#1
        0x0000d3be:    6201        .b      STR      r1,[r0,#0x20]
        0x0000d3c0:    2000        .       MOVS     r0,#0
        0x0000d3c2:    bd10        ..      POP      {r4,pc}
        0x0000d3c4:    2006        .       MOVS     r0,#6
        0x0000d3c6:    bd10        ..      POP      {r4,pc}
    $d
        0x0000d3c8:    10000148    H...    DCD    268435784
        0x0000d3cc:    4ffff000    ...O    DCD    1342173184
        0x0000d3d0:    40020000    ...@    DCD    1073872896
        0x0000d3d4:    0025b801    ..%.    DCD    2471937
    $t
    i.am_hal_clkgen_status_get
    am_hal_clkgen_status_get
        0x0000d3d8:    2800        .(      CMP      r0,#0
        0x0000d3da:    bf04        ..      ITT      EQ
        0x0000d3dc:    2006        .       MOVEQ    r0,#6
        0x0000d3de:    4770        pG      BXEQ     lr
        0x0000d3e0:    f04f2140    O.@!    MOV      r1,#0x40004000
        0x0000d3e4:    698a        .i      LDR      r2,[r1,#0x18]
        0x0000d3e6:    f0120f01    ....    TST      r2,#1
        0x0000d3ea:    bf14        ..      ITE      NE
        0x0000d3ec:    4a05        .J      LDRNE    r2,[pc,#20] ; [0xd404] = 0x16e3600
        0x0000d3ee:    4a06        .J      LDREQ    r2,[pc,#24] ; [0xd408] = 0x2dc6c00
        0x0000d3f0:    6002        .`      STR      r2,[r0,#0]
        0x0000d3f2:    69c9        .i      LDR      r1,[r1,#0x1c]
        0x0000d3f4:    f0010201    ....    AND      r2,r1,#1
        0x0000d3f8:    f3c10140    ..@.    UBFX     r1,r1,#1,#1
        0x0000d3fc:    6042        B`      STR      r2,[r0,#4]
        0x0000d3fe:    7201        .r      STRB     r1,[r0,#8]
        0x0000d400:    2000        .       MOVS     r0,#0
        0x0000d402:    4770        pG      BX       lr
    $d
        0x0000d404:    016e3600    .6n.    DCD    24000000
        0x0000d408:    02dc6c00    .l..    DCD    48000000
    $t
    i.am_hal_cmdq_alloc_block
    am_hal_cmdq_alloc_block
        0x0000d40c:    b5f8        ..      PUSH     {r3-r7,lr}
        0x0000d40e:    461e        .F      MOV      r6,r3
        0x0000d410:    4617        .F      MOV      r7,r2
        0x0000d412:    460d        .F      MOV      r5,r1
        0x0000d414:    1e04        ..      SUBS     r4,r0,#0
        0x0000d416:    bf1c        ..      ITT      NE
        0x0000d418:    6820         h      LDRNE    r0,[r4,#0]
        0x0000d41a:    f0107f80    ....    TSTNE    r0,#0x1000000
        0x0000d41e:    d004        ..      BEQ      0xd42a ; am_hal_cmdq_alloc_block + 30
        0x0000d420:    492c        ,I      LDR      r1,[pc,#176] ; [0xd4d4] = 0xcdcdcd
        0x0000d422:    f020407f     ..@    BIC      r0,r0,#0xff000000
        0x0000d426:    4288        .B      CMP      r0,r1
        0x0000d428:    d001        ..      BEQ      0xd42e ; am_hal_cmdq_alloc_block + 34
        0x0000d42a:    2002        .       MOVS     r0,#2
        0x0000d42c:    bdf8        ..      POP      {r3-r7,pc}
        0x0000d42e:    2f00        ./      CMP      r7,#0
        0x0000d430:    bf12        ..      ITEE     NE
        0x0000d432:    2e00        ..      CMPNE    r6,#0
        0x0000d434:    2006        .       MOVEQ    r0,#6
        0x0000d436:    bdf8        ..      POPEQ    {r3-r7,pc}
        0x0000d438:    e9d40104    ....    LDRD     r0,r1,[r4,#0x10]
        0x0000d43c:    4288        .B      CMP      r0,r1
        0x0000d43e:    bf1c        ..      ITT      NE
        0x0000d440:    2007        .       MOVNE    r0,#7
        0x0000d442:    bdf8        ..      POPNE    {r3-r7,pc}
        0x0000d444:    f7feff20    .. .    BL       am_hal_interrupt_master_disable ; 0xc288
        0x0000d448:    9000        ..      STR      r0,[sp,#0]
        0x0000d44a:    6a60        `j      LDR      r0,[r4,#0x24]
        0x0000d44c:    6880        .h      LDR      r0,[r0,#8]
        0x0000d44e:    6800        .h      LDR      r0,[r0,#0]
        0x0000d450:    6a21        !j      LDR      r1,[r4,#0x20]
        0x0000d452:    b2c0        ..      UXTB     r0,r0
        0x0000d454:    f02101ff    !...    BIC      r1,r1,#0xff
        0x0000d458:    4308        .C      ORRS     r0,r0,r1
        0x0000d45a:    61e0        .a      STR      r0,[r4,#0x1c]
        0x0000d45c:    6a21        !j      LDR      r1,[r4,#0x20]
        0x0000d45e:    1a09        ..      SUBS     r1,r1,r0
        0x0000d460:    bf44        D.      ITT      MI
        0x0000d462:    f5a07080    ...p    SUBMI    r0,r0,#0x100
        0x0000d466:    61e0        .a      STRMI    r0,[r4,#0x1c]
        0x0000d468:    6a60        `j      LDR      r0,[r4,#0x24]
        0x0000d46a:    6840        @h      LDR      r0,[r0,#4]
        0x0000d46c:    6800        .h      LDR      r0,[r0,#0]
        0x0000d46e:    60e0        .`      STR      r0,[r4,#0xc]
        0x0000d470:    9800        ..      LDR      r0,[sp,#0]
        0x0000d472:    f7feff0d    ....    BL       am_hal_interrupt_master_set ; 0xc290
        0x0000d476:    e9d40107    ....    LDRD     r0,r1,[r4,#0x1c]
        0x0000d47a:    1a40        @.      SUBS     r0,r0,r1
        0x0000d47c:    f1100ffe    ....    CMN      r0,#0xfe
        0x0000d480:    d41c        ..      BMI      0xd4bc ; am_hal_cmdq_alloc_block + 176
        0x0000d482:    e9d42003    ...     LDRD     r2,r0,[r4,#0xc]
        0x0000d486:    2108        .!      MOVS     r1,#8
        0x0000d488:    eb0101c5    ....    ADD      r1,r1,r5,LSL #3
        0x0000d48c:    4290        .B      CMP      r0,r2
        0x0000d48e:    d312        ..      BCC      0xd4b6 ; am_hal_cmdq_alloc_block + 170
        0x0000d490:    2310        .#      MOVS     r3,#0x10
        0x0000d492:    eb0303c5    ....    ADD      r3,r3,r5,LSL #3
        0x0000d496:    f8d4c008    ....    LDR      r12,[r4,#8]
        0x0000d49a:    4403        .D      ADD      r3,r3,r0
        0x0000d49c:    4563        cE      CMP      r3,r12
        0x0000d49e:    d90f        ..      BLS      0xd4c0 ; am_hal_cmdq_alloc_block + 180
        0x0000d4a0:    6863        ch      LDR      r3,[r4,#4]
        0x0000d4a2:    4419        .D      ADD      r1,r1,r3
        0x0000d4a4:    428a        .B      CMP      r2,r1
        0x0000d4a6:    d909        ..      BLS      0xd4bc ; am_hal_cmdq_alloc_block + 176
        0x0000d4a8:    6a61        aj      LDR      r1,[r4,#0x24]
        0x0000d4aa:    6849        Ih      LDR      r1,[r1,#4]
        0x0000d4ac:    6001        .`      STR      r1,[r0,#0]
        0x0000d4ae:    6861        ah      LDR      r1,[r4,#4]
        0x0000d4b0:    6041        A`      STR      r1,[r0,#4]
        0x0000d4b2:    6860        `h      LDR      r0,[r4,#4]
        0x0000d4b4:    e004        ..      B        0xd4c0 ; am_hal_cmdq_alloc_block + 180
        0x0000d4b6:    4401        .D      ADD      r1,r1,r0
        0x0000d4b8:    4291        .B      CMP      r1,r2
        0x0000d4ba:    d301        ..      BCC      0xd4c0 ; am_hal_cmdq_alloc_block + 180
        0x0000d4bc:    2005        .       MOVS     r0,#5
        0x0000d4be:    bdf8        ..      POP      {r3-r7,pc}
        0x0000d4c0:    6038        8`      STR      r0,[r7,#0]
        0x0000d4c2:    6a21        !j      LDR      r1,[r4,#0x20]
        0x0000d4c4:    eb0000c5    ....    ADD      r0,r0,r5,LSL #3
        0x0000d4c8:    1c49        I.      ADDS     r1,r1,#1
        0x0000d4ca:    6221        !b      STR      r1,[r4,#0x20]
        0x0000d4cc:    6031        1`      STR      r1,[r6,#0]
        0x0000d4ce:    6160        `a      STR      r0,[r4,#0x14]
        0x0000d4d0:    2000        .       MOVS     r0,#0
        0x0000d4d2:    bdf8        ..      POP      {r3-r7,pc}
    $d
        0x0000d4d4:    00cdcdcd    ....    DCD    13487565
    $t
    i.am_hal_cmdq_disable
    am_hal_cmdq_disable
        0x0000d4d8:    2800        .(      CMP      r0,#0
        0x0000d4da:    bf1c        ..      ITT      NE
        0x0000d4dc:    6801        .h      LDRNE    r1,[r0,#0]
        0x0000d4de:    f0117f80    ....    TSTNE    r1,#0x1000000
        0x0000d4e2:    d004        ..      BEQ      0xd4ee ; am_hal_cmdq_disable + 22
        0x0000d4e4:    4b0b        .K      LDR      r3,[pc,#44] ; [0xd514] = 0xcdcdcd
        0x0000d4e6:    f021427f    !..B    BIC      r2,r1,#0xff000000
        0x0000d4ea:    429a        .B      CMP      r2,r3
        0x0000d4ec:    d001        ..      BEQ      0xd4f2 ; am_hal_cmdq_disable + 26
        0x0000d4ee:    2002        .       MOVS     r0,#2
        0x0000d4f0:    4770        pG      BX       lr
        0x0000d4f2:    f0117f00    ....    TST      r1,#0x2000000
        0x0000d4f6:    bf04        ..      ITT      EQ
        0x0000d4f8:    2000        .       MOVEQ    r0,#0
        0x0000d4fa:    4770        pG      BXEQ     lr
        0x0000d4fc:    6a41        Aj      LDR      r1,[r0,#0x24]
        0x0000d4fe:    6809        .h      LDR      r1,[r1,#0]
        0x0000d500:    680a        .h      LDR      r2,[r1,#0]
        0x0000d502:    f0220201    "...    BIC      r2,r2,#1
        0x0000d506:    600a        .`      STR      r2,[r1,#0]
        0x0000d508:    6801        .h      LDR      r1,[r0,#0]
        0x0000d50a:    f0217100    !..q    BIC      r1,r1,#0x2000000
        0x0000d50e:    6001        .`      STR      r1,[r0,#0]
        0x0000d510:    2000        .       MOVS     r0,#0
        0x0000d512:    4770        pG      BX       lr
    $d
        0x0000d514:    00cdcdcd    ....    DCD    13487565
    $t
    i.am_hal_cmdq_enable
    am_hal_cmdq_enable
        0x0000d518:    2800        .(      CMP      r0,#0
        0x0000d51a:    bf1c        ..      ITT      NE
        0x0000d51c:    6801        .h      LDRNE    r1,[r0,#0]
        0x0000d51e:    f0117f80    ....    TSTNE    r1,#0x1000000
        0x0000d522:    d004        ..      BEQ      0xd52e ; am_hal_cmdq_enable + 22
        0x0000d524:    4b0b        .K      LDR      r3,[pc,#44] ; [0xd554] = 0xcdcdcd
        0x0000d526:    f021427f    !..B    BIC      r2,r1,#0xff000000
        0x0000d52a:    429a        .B      CMP      r2,r3
        0x0000d52c:    d001        ..      BEQ      0xd532 ; am_hal_cmdq_enable + 26
        0x0000d52e:    2002        .       MOVS     r0,#2
        0x0000d530:    4770        pG      BX       lr
        0x0000d532:    f0117f00    ....    TST      r1,#0x2000000
        0x0000d536:    bf1c        ..      ITT      NE
        0x0000d538:    2000        .       MOVNE    r0,#0
        0x0000d53a:    4770        pG      BXNE     lr
        0x0000d53c:    6a41        Aj      LDR      r1,[r0,#0x24]
        0x0000d53e:    6809        .h      LDR      r1,[r1,#0]
        0x0000d540:    680a        .h      LDR      r2,[r1,#0]
        0x0000d542:    f0420201    B...    ORR      r2,r2,#1
        0x0000d546:    600a        .`      STR      r2,[r1,#0]
        0x0000d548:    6801        .h      LDR      r1,[r0,#0]
        0x0000d54a:    f0417100    A..q    ORR      r1,r1,#0x2000000
        0x0000d54e:    6001        .`      STR      r1,[r0,#0]
        0x0000d550:    2000        .       MOVS     r0,#0
        0x0000d552:    4770        pG      BX       lr
    $d
        0x0000d554:    00cdcdcd    ....    DCD    13487565
    $t
    i.am_hal_cmdq_init
    am_hal_cmdq_init
        0x0000d558:    2808        .(      CMP      r0,#8
        0x0000d55a:    bf24        $.      ITT      CS
        0x0000d55c:    2005        .       MOVCS    r0,#5
        0x0000d55e:    4770        pG      BXCS     lr
        0x0000d560:    2900        .)      CMP      r1,#0
        0x0000d562:    bf1e        ..      ITTT     NE
        0x0000d564:    684b        Kh      LDRNE    r3,[r1,#4]
        0x0000d566:    2b00        .+      CMPNE    r3,#0
        0x0000d568:    2a00        .*      CMPNE    r2,#0
        0x0000d56a:    d004        ..      BEQ      0xd576 ; am_hal_cmdq_init + 30
        0x0000d56c:    f8d1c000    ....    LDR      r12,[r1,#0]
        0x0000d570:    f1bc0f02    ....    CMP      r12,#2
        0x0000d574:    d201        ..      BCS      0xd57a ; am_hal_cmdq_init + 34
        0x0000d576:    2006        .       MOVS     r0,#6
        0x0000d578:    4770        pG      BX       lr
        0x0000d57a:    b430        0.      PUSH     {r4,r5}
        0x0000d57c:    eb000340    ..@.    ADD      r3,r0,r0,LSL #1
        0x0000d580:    4c2e        .L      LDR      r4,[pc,#184] ; [0xd63c] = 0x10007718
        0x0000d582:    eb0303c0    ....    ADD      r3,r3,r0,LSL #3
        0x0000d586:    f8545023    T.#P    LDR      r5,[r4,r3,LSL #2]
        0x0000d58a:    f0157f80    ....    TST      r5,#0x1000000
        0x0000d58e:    bf1e        ..      ITTT     NE
        0x0000d590:    2007        .       MOVNE    r0,#7
        0x0000d592:    bc30        0.      POPNE    {r4,r5}
        0x0000d594:    4770        pG      BXNE     lr
        0x0000d596:    eb040383    ....    ADD      r3,r4,r3,LSL #2
        0x0000d59a:    ea4f0ccc    O...    LSL      r12,r12,#3
        0x0000d59e:    f8c3c018    ....    STR      r12,[r3,#0x18]
        0x0000d5a2:    f8d1c004    ....    LDR      r12,[r1,#4]
        0x0000d5a6:    f8c3c004    ....    STR      r12,[r3,#4]
        0x0000d5aa:    f8c3c00c    ....    STR      r12,[r3,#0xc]
        0x0000d5ae:    f8c3c014    ....    STR      r12,[r3,#0x14]
        0x0000d5b2:    f8c3c010    ....    STR      r12,[r3,#0x10]
        0x0000d5b6:    e9d14c00    ...L    LDRD     r4,r12,[r1,#0]
        0x0000d5ba:    eb0c0cc4    ....    ADD      r12,r12,r4,LSL #3
        0x0000d5be:    f8c3c008    ....    STR      r12,[r3,#8]
        0x0000d5c2:    f8d3c000    ....    LDR      r12,[r3,#0]
        0x0000d5c6:    4c1e        .L      LDR      r4,[pc,#120] ; [0xd640] = 0xcdcdcd
        0x0000d5c8:    f02c7c00    ,..|    BIC      r12,r12,#0x2000000
        0x0000d5cc:    f04c7c80    L..|    ORR      r12,r12,#0x1000000
        0x0000d5d0:    f3640c17    d...    BFI      r12,r4,#0,#24
        0x0000d5d4:    f8c3c000    ....    STR      r12,[r3,#0]
        0x0000d5d8:    f8dfc068    ..h.    LDR      r12,[pc,#104] ; [0xd644] = 0x10d10
        0x0000d5dc:    eb000080    ....    ADD      r0,r0,r0,LSL #2
        0x0000d5e0:    eb0c00c0    ....    ADD      r0,r12,r0,LSL #3
        0x0000d5e4:    6258        Xb      STR      r0,[r3,#0x24]
        0x0000d5e6:    2000        .       MOVS     r0,#0
        0x0000d5e8:    61d8        .a      STR      r0,[r3,#0x1c]
        0x0000d5ea:    6218        .b      STR      r0,[r3,#0x20]
        0x0000d5ec:    f8d3c024    ..$.    LDR      r12,[r3,#0x24]
        0x0000d5f0:    f8dcc008    ....    LDR      r12,[r12,#8]
        0x0000d5f4:    f8cc0000    ....    STR      r0,[r12,#0]
        0x0000d5f8:    f8d3c024    ..$.    LDR      r12,[r3,#0x24]
        0x0000d5fc:    f8dcc00c    ....    LDR      r12,[r12,#0xc]
        0x0000d600:    f8cc0000    ....    STR      r0,[r12,#0]
        0x0000d604:    6a58        Xj      LDR      r0,[r3,#0x24]
        0x0000d606:    f8d0c010    ....    LDR      r12,[r0,#0x10]
        0x0000d60a:    f8dc4000    ...@    LDR      r4,[r12,#0]
        0x0000d60e:    6940        @i      LDR      r0,[r0,#0x14]
        0x0000d610:    4320         C      ORRS     r0,r0,r4
        0x0000d612:    f8cc0000    ....    STR      r0,[r12,#0]
        0x0000d616:    f8d3c024    ..$.    LDR      r12,[r3,#0x24]
        0x0000d61a:    6848        Hh      LDR      r0,[r1,#4]
        0x0000d61c:    f8dcc004    ....    LDR      r12,[r12,#4]
        0x0000d620:    f8cc0000    ....    STR      r0,[r12,#0]
        0x0000d624:    7a08        .z      LDRB     r0,[r1,#8]
        0x0000d626:    2102        .!      MOVS     r1,#2
        0x0000d628:    ea010040    ..@.    AND      r0,r1,r0,LSL #1
        0x0000d62c:    6a59        Yj      LDR      r1,[r3,#0x24]
        0x0000d62e:    6809        .h      LDR      r1,[r1,#0]
        0x0000d630:    6008        .`      STR      r0,[r1,#0]
        0x0000d632:    6013        .`      STR      r3,[r2,#0]
        0x0000d634:    bc30        0.      POP      {r4,r5}
        0x0000d636:    2000        .       MOVS     r0,#0
        0x0000d638:    4770        pG      BX       lr
    $d
        0x0000d63a:    0000        ..      DCW    0
        0x0000d63c:    10007718    .w..    DCD    268465944
        0x0000d640:    00cdcdcd    ....    DCD    13487565
        0x0000d644:    00010d10    ....    DCD    68880
    $t
    i.am_hal_cmdq_post_block
    am_hal_cmdq_post_block
        0x0000d648:    2800        .(      CMP      r0,#0
        0x0000d64a:    bf1c        ..      ITT      NE
        0x0000d64c:    6802        .h      LDRNE    r2,[r0,#0]
        0x0000d64e:    f0127f80    ....    TSTNE    r2,#0x1000000
        0x0000d652:    d004        ..      BEQ      0xd65e ; am_hal_cmdq_post_block + 22
        0x0000d654:    4b0e        .K      LDR      r3,[pc,#56] ; [0xd690] = 0xcdcdcd
        0x0000d656:    f022427f    "..B    BIC      r2,r2,#0xff000000
        0x0000d65a:    429a        .B      CMP      r2,r3
        0x0000d65c:    d001        ..      BEQ      0xd662 ; am_hal_cmdq_post_block + 26
        0x0000d65e:    2002        .       MOVS     r0,#2
        0x0000d660:    4770        pG      BX       lr
        0x0000d662:    e9d03204    ...2    LDRD     r3,r2,[r0,#0x10]
        0x0000d666:    4293        .B      CMP      r3,r2
        0x0000d668:    bf04        ..      ITT      EQ
        0x0000d66a:    2007        .       MOVEQ    r0,#7
        0x0000d66c:    4770        pG      BXEQ     lr
        0x0000d66e:    6a43        Cj      LDR      r3,[r0,#0x24]
        0x0000d670:    689b        .h      LDR      r3,[r3,#8]
        0x0000d672:    4319        .C      ORRS     r1,r1,r3
        0x0000d674:    6011        .`      STR      r1,[r2,#0]
        0x0000d676:    6a01        .j      LDR      r1,[r0,#0x20]
        0x0000d678:    6051        Q`      STR      r1,[r2,#4]
        0x0000d67a:    f1020108    ....    ADD      r1,r2,#8
        0x0000d67e:    6141        Aa      STR      r1,[r0,#0x14]
        0x0000d680:    6101        .a      STR      r1,[r0,#0x10]
        0x0000d682:    f8901020    .. .    LDRB     r1,[r0,#0x20]
        0x0000d686:    6a40        @j      LDR      r0,[r0,#0x24]
        0x0000d688:    68c0        .h      LDR      r0,[r0,#0xc]
        0x0000d68a:    6001        .`      STR      r1,[r0,#0]
        0x0000d68c:    2000        .       MOVS     r0,#0
        0x0000d68e:    4770        pG      BX       lr
    $d
        0x0000d690:    00cdcdcd    ....    DCD    13487565
    $t
    i.am_hal_cmdq_post_loop_block
    am_hal_cmdq_post_loop_block
        0x0000d694:    2800        .(      CMP      r0,#0
        0x0000d696:    bf1c        ..      ITT      NE
        0x0000d698:    6802        .h      LDRNE    r2,[r0,#0]
        0x0000d69a:    f0127f80    ....    TSTNE    r2,#0x1000000
        0x0000d69e:    d004        ..      BEQ      0xd6aa ; am_hal_cmdq_post_loop_block + 22
        0x0000d6a0:    4b12        .K      LDR      r3,[pc,#72] ; [0xd6ec] = 0xcdcdcd
        0x0000d6a2:    f022427f    "..B    BIC      r2,r2,#0xff000000
        0x0000d6a6:    429a        .B      CMP      r2,r3
        0x0000d6a8:    d001        ..      BEQ      0xd6ae ; am_hal_cmdq_post_loop_block + 26
        0x0000d6aa:    2002        .       MOVS     r0,#2
        0x0000d6ac:    4770        pG      BX       lr
        0x0000d6ae:    e9d03204    ...2    LDRD     r3,r2,[r0,#0x10]
        0x0000d6b2:    4293        .B      CMP      r3,r2
        0x0000d6b4:    bf04        ..      ITT      EQ
        0x0000d6b6:    2007        .       MOVEQ    r0,#7
        0x0000d6b8:    4770        pG      BXEQ     lr
        0x0000d6ba:    6a43        Cj      LDR      r3,[r0,#0x24]
        0x0000d6bc:    689b        .h      LDR      r3,[r3,#8]
        0x0000d6be:    f8423b04    B..;    STR      r3,[r2],#4
        0x0000d6c2:    2300        .#      MOVS     r3,#0
        0x0000d6c4:    f8423b04    B..;    STR      r3,[r2],#4
        0x0000d6c8:    6a43        Cj      LDR      r3,[r0,#0x24]
        0x0000d6ca:    685b        [h      LDR      r3,[r3,#4]
        0x0000d6cc:    4319        .C      ORRS     r1,r1,r3
        0x0000d6ce:    6011        .`      STR      r1,[r2,#0]
        0x0000d6d0:    6841        Ah      LDR      r1,[r0,#4]
        0x0000d6d2:    6051        Q`      STR      r1,[r2,#4]
        0x0000d6d4:    f1020108    ....    ADD      r1,r2,#8
        0x0000d6d8:    6141        Aa      STR      r1,[r0,#0x14]
        0x0000d6da:    6101        .a      STR      r1,[r0,#0x10]
        0x0000d6dc:    f8901020    .. .    LDRB     r1,[r0,#0x20]
        0x0000d6e0:    6a40        @j      LDR      r0,[r0,#0x24]
        0x0000d6e2:    68c0        .h      LDR      r0,[r0,#0xc]
        0x0000d6e4:    6001        .`      STR      r1,[r0,#0]
        0x0000d6e6:    2000        .       MOVS     r0,#0
        0x0000d6e8:    4770        pG      BX       lr
    $d
        0x0000d6ea:    0000        ..      DCW    0
        0x0000d6ec:    00cdcdcd    ....    DCD    13487565
    $t
    i.am_hal_cmdq_release_block
    am_hal_cmdq_release_block
        0x0000d6f0:    2800        .(      CMP      r0,#0
        0x0000d6f2:    bf1c        ..      ITT      NE
        0x0000d6f4:    6801        .h      LDRNE    r1,[r0,#0]
        0x0000d6f6:    f0117f80    ....    TSTNE    r1,#0x1000000
        0x0000d6fa:    d004        ..      BEQ      0xd706 ; am_hal_cmdq_release_block + 22
        0x0000d6fc:    4a09        .J      LDR      r2,[pc,#36] ; [0xd724] = 0xcdcdcd
        0x0000d6fe:    f021417f    !..A    BIC      r1,r1,#0xff000000
        0x0000d702:    4291        .B      CMP      r1,r2
        0x0000d704:    d001        ..      BEQ      0xd70a ; am_hal_cmdq_release_block + 26
        0x0000d706:    2002        .       MOVS     r0,#2
        0x0000d708:    4770        pG      BX       lr
        0x0000d70a:    e9d01204    ....    LDRD     r1,r2,[r0,#0x10]
        0x0000d70e:    4291        .B      CMP      r1,r2
        0x0000d710:    bf04        ..      ITT      EQ
        0x0000d712:    2007        .       MOVEQ    r0,#7
        0x0000d714:    4770        pG      BXEQ     lr
        0x0000d716:    6141        Aa      STR      r1,[r0,#0x14]
        0x0000d718:    6a01        .j      LDR      r1,[r0,#0x20]
        0x0000d71a:    1e49        I.      SUBS     r1,r1,#1
        0x0000d71c:    6201        .b      STR      r1,[r0,#0x20]
        0x0000d71e:    2000        .       MOVS     r0,#0
        0x0000d720:    4770        pG      BX       lr
    $d
        0x0000d722:    0000        ..      DCW    0
        0x0000d724:    00cdcdcd    ....    DCD    13487565
    $t
    i.am_hal_cmdq_reset
    am_hal_cmdq_reset
        0x0000d728:    2800        .(      CMP      r0,#0
        0x0000d72a:    bf1c        ..      ITT      NE
        0x0000d72c:    6801        .h      LDRNE    r1,[r0,#0]
        0x0000d72e:    f0117f80    ....    TSTNE    r1,#0x1000000
        0x0000d732:    d004        ..      BEQ      0xd73e ; am_hal_cmdq_reset + 22
        0x0000d734:    4b14        .K      LDR      r3,[pc,#80] ; [0xd788] = 0xcdcdcd
        0x0000d736:    f021427f    !..B    BIC      r2,r1,#0xff000000
        0x0000d73a:    429a        .B      CMP      r2,r3
        0x0000d73c:    d001        ..      BEQ      0xd742 ; am_hal_cmdq_reset + 26
        0x0000d73e:    2002        .       MOVS     r0,#2
        0x0000d740:    4770        pG      BX       lr
        0x0000d742:    f0117f00    ....    TST      r1,#0x2000000
        0x0000d746:    bf1c        ..      ITT      NE
        0x0000d748:    2007        .       MOVNE    r0,#7
        0x0000d74a:    4770        pG      BXNE     lr
        0x0000d74c:    6a41        Aj      LDR      r1,[r0,#0x24]
        0x0000d74e:    6809        .h      LDR      r1,[r1,#0]
        0x0000d750:    680a        .h      LDR      r2,[r1,#0]
        0x0000d752:    f0220201    "...    BIC      r2,r2,#1
        0x0000d756:    600a        .`      STR      r2,[r1,#0]
        0x0000d758:    6841        Ah      LDR      r1,[r0,#4]
        0x0000d75a:    60c1        .`      STR      r1,[r0,#0xc]
        0x0000d75c:    6141        Aa      STR      r1,[r0,#0x14]
        0x0000d75e:    6101        .a      STR      r1,[r0,#0x10]
        0x0000d760:    2100        .!      MOVS     r1,#0
        0x0000d762:    61c1        .a      STR      r1,[r0,#0x1c]
        0x0000d764:    6201        .b      STR      r1,[r0,#0x20]
        0x0000d766:    6a42        Bj      LDR      r2,[r0,#0x24]
        0x0000d768:    6892        .h      LDR      r2,[r2,#8]
        0x0000d76a:    6011        .`      STR      r1,[r2,#0]
        0x0000d76c:    6a42        Bj      LDR      r2,[r0,#0x24]
        0x0000d76e:    68d2        .h      LDR      r2,[r2,#0xc]
        0x0000d770:    6011        .`      STR      r1,[r2,#0]
        0x0000d772:    6a42        Bj      LDR      r2,[r0,#0x24]
        0x0000d774:    6841        Ah      LDR      r1,[r0,#4]
        0x0000d776:    6852        Rh      LDR      r2,[r2,#4]
        0x0000d778:    6011        .`      STR      r1,[r2,#0]
        0x0000d77a:    6801        .h      LDR      r1,[r0,#0]
        0x0000d77c:    f0217100    !..q    BIC      r1,r1,#0x2000000
        0x0000d780:    6001        .`      STR      r1,[r0,#0]
        0x0000d782:    2000        .       MOVS     r0,#0
        0x0000d784:    4770        pG      BX       lr
    $d
        0x0000d786:    0000        ..      DCW    0
        0x0000d788:    00cdcdcd    ....    DCD    13487565
    $t
    i.am_hal_cmdq_term
    am_hal_cmdq_term
        0x0000d78c:    b538        8.      PUSH     {r3-r5,lr}
        0x0000d78e:    460d        .F      MOV      r5,r1
        0x0000d790:    1e04        ..      SUBS     r4,r0,#0
        0x0000d792:    bf1c        ..      ITT      NE
        0x0000d794:    6820         h      LDRNE    r0,[r4,#0]
        0x0000d796:    f0107f80    ....    TSTNE    r0,#0x1000000
        0x0000d79a:    d004        ..      BEQ      0xd7a6 ; am_hal_cmdq_term + 26
        0x0000d79c:    491c        .I      LDR      r1,[pc,#112] ; [0xd810] = 0xcdcdcd
        0x0000d79e:    f020407f     ..@    BIC      r0,r0,#0xff000000
        0x0000d7a2:    4288        .B      CMP      r0,r1
        0x0000d7a4:    d001        ..      BEQ      0xd7aa ; am_hal_cmdq_term + 30
        0x0000d7a6:    2002        .       MOVS     r0,#2
        0x0000d7a8:    bd38        8.      POP      {r3-r5,pc}
        0x0000d7aa:    f7fefd6d    ..m.    BL       am_hal_interrupt_master_disable ; 0xc288
        0x0000d7ae:    9000        ..      STR      r0,[sp,#0]
        0x0000d7b0:    6a60        `j      LDR      r0,[r4,#0x24]
        0x0000d7b2:    6880        .h      LDR      r0,[r0,#8]
        0x0000d7b4:    6800        .h      LDR      r0,[r0,#0]
        0x0000d7b6:    6a21        !j      LDR      r1,[r4,#0x20]
        0x0000d7b8:    b2c0        ..      UXTB     r0,r0
        0x0000d7ba:    f02101ff    !...    BIC      r1,r1,#0xff
        0x0000d7be:    4308        .C      ORRS     r0,r0,r1
        0x0000d7c0:    61e0        .a      STR      r0,[r4,#0x1c]
        0x0000d7c2:    6a21        !j      LDR      r1,[r4,#0x20]
        0x0000d7c4:    1a09        ..      SUBS     r1,r1,r0
        0x0000d7c6:    bf44        D.      ITT      MI
        0x0000d7c8:    f5a07080    ...p    SUBMI    r0,r0,#0x100
        0x0000d7cc:    61e0        .a      STRMI    r0,[r4,#0x1c]
        0x0000d7ce:    6a60        `j      LDR      r0,[r4,#0x24]
        0x0000d7d0:    6840        @h      LDR      r0,[r0,#4]
        0x0000d7d2:    6800        .h      LDR      r0,[r0,#0]
        0x0000d7d4:    60e0        .`      STR      r0,[r4,#0xc]
        0x0000d7d6:    9800        ..      LDR      r0,[sp,#0]
        0x0000d7d8:    f7fefd5a    ..Z.    BL       am_hal_interrupt_master_set ; 0xc290
        0x0000d7dc:    b92d        -.      CBNZ     r5,0xd7ea ; am_hal_cmdq_term + 94
        0x0000d7de:    e9d40107    ....    LDRD     r0,r1,[r4,#0x1c]
        0x0000d7e2:    4288        .B      CMP      r0,r1
        0x0000d7e4:    bf1c        ..      ITT      NE
        0x0000d7e6:    2003        .       MOVNE    r0,#3
        0x0000d7e8:    bd38        8.      POPNE    {r3-r5,pc}
        0x0000d7ea:    6820         h      LDR      r0,[r4,#0]
        0x0000d7ec:    f0207080     ..p    BIC      r0,r0,#0x1000000
        0x0000d7f0:    6020         `      STR      r0,[r4,#0]
        0x0000d7f2:    6a60        `j      LDR      r0,[r4,#0x24]
        0x0000d7f4:    6800        .h      LDR      r0,[r0,#0]
        0x0000d7f6:    6801        .h      LDR      r1,[r0,#0]
        0x0000d7f8:    f0210101    !...    BIC      r1,r1,#1
        0x0000d7fc:    6001        .`      STR      r1,[r0,#0]
        0x0000d7fe:    6a60        `j      LDR      r0,[r4,#0x24]
        0x0000d800:    6901        .i      LDR      r1,[r0,#0x10]
        0x0000d802:    680a        .h      LDR      r2,[r1,#0]
        0x0000d804:    6940        @i      LDR      r0,[r0,#0x14]
        0x0000d806:    ea220000    "...    BIC      r0,r2,r0
        0x0000d80a:    6008        .`      STR      r0,[r1,#0]
        0x0000d80c:    2000        .       MOVS     r0,#0
        0x0000d80e:    bd38        8.      POP      {r3-r5,pc}
    $d
        0x0000d810:    00cdcdcd    ....    DCD    13487565
    $t
    i.am_hal_flash_delay
    am_hal_flash_delay
        0x0000d814:    f04f2140    O.@!    MOV      r1,#0x40004000
        0x0000d818:    6b49        Ik      LDR      r1,[r1,#0x34]
        0x0000d81a:    f0110f04    ....    TST      r1,#4
        0x0000d81e:    bf1a        ..      ITTE     NE
        0x0000d820:    0040        @.      LSLNE    r0,r0,#1
        0x0000d822:    210e        .!      MOVNE    r1,#0xe
        0x0000d824:    210b        .!      MOVEQ    r1,#0xb
        0x0000d826:    4288        .B      CMP      r0,r1
        0x0000d828:    bf98        ..      IT       LS
        0x0000d82a:    4770        pG      BXLS     lr
        0x0000d82c:    1a40        @.      SUBS     r0,r0,r1
        0x0000d82e:    4901        .I      LDR      r1,[pc,#4] ; [0xd834] = 0x800009d
        0x0000d830:    4708        .G      BX       r1
    $d
        0x0000d832:    0000        ..      DCW    0
        0x0000d834:    0800009d    ....    DCD    134217885
    $t
    i.am_hal_flash_delay_status_check
    am_hal_flash_delay_status_check
        0x0000d838:    e92d47f0    -..G    PUSH     {r4-r10,lr}
        0x0000d83c:    f8dfa050    ..P.    LDR      r10,[pc,#80] ; [0xd890] = 0x800009d
        0x0000d840:    f8dd8020    .. .    LDR      r8,[sp,#0x20]
        0x0000d844:    461c        .F      MOV      r4,r3
        0x0000d846:    4615        .F      MOV      r5,r2
        0x0000d848:    460e        .F      MOV      r6,r1
        0x0000d84a:    4607        .F      MOV      r7,r0
        0x0000d84c:    f04f2940    O.@)    MOV      r9,#0x40004000
        0x0000d850:    6830        0h      LDR      r0,[r6,#0]
        0x0000d852:    f1b80f00    ....    CMP      r8,#0
        0x0000d856:    ea000005    ....    AND      r0,r0,r5
        0x0000d85a:    d002        ..      BEQ      0xd862 ; am_hal_flash_delay_status_check + 42
        0x0000d85c:    42a0        .B      CMP      r0,r4
        0x0000d85e:    d002        ..      BEQ      0xd866 ; am_hal_flash_delay_status_check + 46
        0x0000d860:    e004        ..      B        0xd86c ; am_hal_flash_delay_status_check + 52
        0x0000d862:    42a0        .B      CMP      r0,r4
        0x0000d864:    d002        ..      BEQ      0xd86c ; am_hal_flash_delay_status_check + 52
        0x0000d866:    2000        .       MOVS     r0,#0
        0x0000d868:    e8bd87f0    ....    POP      {r4-r10,pc}
        0x0000d86c:    1e7f        ..      SUBS     r7,r7,#1
        0x0000d86e:    d30b        ..      BCC      0xd888 ; am_hal_flash_delay_status_check + 80
        0x0000d870:    f8d91034    ..4.    LDR      r1,[r9,#0x34]
        0x0000d874:    2010        .       MOVS     r0,#0x10
        0x0000d876:    f0110f04    ....    TST      r1,#4
        0x0000d87a:    bf1a        ..      ITTE     NE
        0x0000d87c:    2020                MOVNE    r0,#0x20
        0x0000d87e:    210e        .!      MOVNE    r1,#0xe
        0x0000d880:    210b        .!      MOVEQ    r1,#0xb
        0x0000d882:    1a40        @.      SUBS     r0,r0,r1
        0x0000d884:    47d0        .G      BLX      r10
        0x0000d886:    e7e3        ..      B        0xd850 ; am_hal_flash_delay_status_check + 24
        0x0000d888:    2004        .       MOVS     r0,#4
        0x0000d88a:    e8bd87f0    ....    POP      {r4-r10,pc}
    $d
        0x0000d88e:    0000        ..      DCW    0
        0x0000d890:    0800009d    ....    DCD    134217885
    $t
    i.am_hal_flash_load_ui32
    am_hal_flash_load_ui32
        0x0000d894:    4900        .I      LDR      r1,[pc,#0] ; [0xd898] = 0x8000075
        0x0000d896:    4708        .G      BX       r1
    $d
        0x0000d898:    08000075    u...    DCD    134217845
    $t
    i.am_hal_flash_store_ui32
    am_hal_flash_store_ui32
        0x0000d89c:    b500        ..      PUSH     {lr}
        0x0000d89e:    f8dfc020    .. .    LDR      r12,[pc,#32] ; [0xd8c0] = 0x10c84
        0x0000d8a2:    b083        ..      SUB      sp,sp,#0xc
        0x0000d8a4:    e9dc2300    ...#    LDRD     r2,r3,[r12,#0]
        0x0000d8a8:    f8dcc008    ....    LDR      r12,[r12,#8]
        0x0000d8ac:    e9cd2300    ...#    STRD     r2,r3,[sp,#0]
        0x0000d8b0:    466a        jF      MOV      r2,sp
        0x0000d8b2:    f8cdc008    ....    STR      r12,[sp,#8]
        0x0000d8b6:    f0420201    B...    ORR      r2,r2,#1
        0x0000d8ba:    4790        .G      BLX      r2
        0x0000d8bc:    b003        ..      ADD      sp,sp,#0xc
        0x0000d8be:    bd00        ..      POP      {pc}
    $d
        0x0000d8c0:    00010c84    ....    DCD    68740
    $t
    i.am_hal_gpio_pinconfig
    am_hal_gpio_pinconfig
        0x0000d8c4:    e92d4ff0    -..O    PUSH     {r4-r11,lr}
        0x0000d8c8:    2500        .%      MOVS     r5,#0
        0x0000d8ca:    b08b        ..      SUB      sp,sp,#0x2c
        0x0000d8cc:    4604        .F      MOV      r4,r0
        0x0000d8ce:    2832        2(      CMP      r0,#0x32
        0x0000d8d0:    bf22        ".      ITTT     CS
        0x0000d8d2:    2006        .       MOVCS    r0,#6
        0x0000d8d4:    b00b        ..      ADDCS    sp,sp,#0x2c
        0x0000d8d6:    e8bd8ff0    ....    POPCS    {r4-r11,pc}
        0x0000d8da:    2200        ."      MOVS     r2,#0
        0x0000d8dc:    f0010307    ....    AND      r3,r1,#7
        0x0000d8e0:    4f8b        .O      LDR      r7,[pc,#556] ; [0xdb10] = 0x10e86
        0x0000d8e2:    f3c10cc1    ....    UBFX     r12,r1,#3,#2
        0x0000d8e6:    ea4200c3    B...    ORR      r0,r2,r3,LSL #3
        0x0000d8ea:    f0110fe0    ....    TST      r1,#0xe0
        0x0000d8ee:    d021        !.      BEQ      0xd934 ; am_hal_gpio_pinconfig + 112
        0x0000d8f0:    f3c11642    ..B.    UBFX     r6,r1,#5,#3
        0x0000d8f4:    f1a60902    ....    SUB      r9,r6,#2
        0x0000d8f8:    f8df8218    ....    LDR      r8,[pc,#536] ; [0xdb14] = 0x8000100
        0x0000d8fc:    f0400001    @...    ORR      r0,r0,#1
        0x0000d900:    f1b90f03    ....    CMP      r9,#3
        0x0000d904:    d809        ..      BHI      0xd91a ; am_hal_gpio_pinconfig + 86
        0x0000d906:    f06f097f    o...    MVN      r9,#0x7f
        0x0000d90a:    eb091686    ....    ADD      r6,r9,r6,LSL #6
        0x0000d90e:    4330        0C      ORRS     r0,r0,r6
        0x0000d910:    5d3e        >]      LDRB     r6,[r7,r4]
        0x0000d912:    f0160f01    ....    TST      r6,#1
        0x0000d916:    d10d        ..      BNE      0xd934 ; am_hal_gpio_pinconfig + 112
        0x0000d918:    e016        ..      B        0xd948 ; am_hal_gpio_pinconfig + 132
        0x0000d91a:    2e06        ..      CMP      r6,#6
        0x0000d91c:    d004        ..      BEQ      0xd928 ; am_hal_gpio_pinconfig + 100
        0x0000d91e:    2e01        ..      CMP      r6,#1
        0x0000d920:    bf08        ..      IT       EQ
        0x0000d922:    2c14        .,      CMPEQ    r4,#0x14
        0x0000d924:    d010        ..      BEQ      0xd948 ; am_hal_gpio_pinconfig + 132
        0x0000d926:    e005        ..      B        0xd934 ; am_hal_gpio_pinconfig + 112
        0x0000d928:    2c14        .,      CMP      r4,#0x14
        0x0000d92a:    bf1e        ..      ITTT     NE
        0x0000d92c:    487a        zH      LDRNE    r0,[pc,#488] ; [0xdb18] = 0x8000101
        0x0000d92e:    b00b        ..      ADDNE    sp,sp,#0x2c
        0x0000d930:    e8bd8ff0    ....    POPNE    {r4-r11,pc}
        0x0000d934:    f1bc0f00    ....    CMP      r12,#0
        0x0000d938:    d012        ..      BEQ      0xd960 ; am_hal_gpio_pinconfig + 156
        0x0000d93a:    f1bc0f01    ....    CMP      r12,#1
        0x0000d93e:    d007        ..      BEQ      0xd950 ; am_hal_gpio_pinconfig + 140
        0x0000d940:    f1bc0f02    ....    CMP      r12,#2
        0x0000d944:    d03a        :.      BEQ      0xd9bc ; am_hal_gpio_pinconfig + 248
        0x0000d946:    e041        A.      B        0xd9cc ; am_hal_gpio_pinconfig + 264
        0x0000d948:    b00b        ..      ADD      sp,sp,#0x2c
        0x0000d94a:    4640        @F      MOV      r0,r8
        0x0000d94c:    e8bd8ff0    ....    POP      {r4-r11,pc}
        0x0000d950:    f817c004    ....    LDRB     r12,[r7,r4]
        0x0000d954:    f01c0f02    ....    TST      r12,#2
        0x0000d958:    bf18        ..      IT       NE
        0x0000d95a:    f0400040    @.@.    ORRNE    r0,r0,#0x40
        0x0000d95e:    d035        5.      BEQ      0xd9cc ; am_hal_gpio_pinconfig + 264
        0x0000d960:    f8dfc1b8    ....    LDR      r12,[pc,#440] ; [0xdb1c] = 0x10e54
        0x0000d964:    f81c6004    ...`    LDRB     r6,[r12,r4]
        0x0000d968:    f04f0c01    O...    MOV      r12,#1
        0x0000d96c:    fa0cfc03    ....    LSL      r12,r12,r3
        0x0000d970:    ea160c0c    ....    ANDS     r12,r6,r12
        0x0000d974:    bf18        ..      IT       NE
        0x0000d976:    f04f0c02    O...    MOVNE    r12,#2
        0x0000d97a:    ea4c0000    L...    ORR      r0,r12,r0
        0x0000d97e:    f8dfc1a0    ....    LDR      r12,[pc,#416] ; [0xdb20] = 0x10eb8
        0x0000d982:    f81cc004    ....    LDRB     r12,[r12,r4]
        0x0000d986:    459c        .E      CMP      r12,r3
        0x0000d988:    d132        2.      BNE      0xd9f0 ; am_hal_gpio_pinconfig + 300
        0x0000d98a:    f3c14302    ...C    UBFX     r3,r1,#16,#3
        0x0000d98e:    2b06        .+      CMP      r3,#6
        0x0000d990:    bf82        ..      ITTT     HI
        0x0000d992:    4864        dH      LDRHI    r0,[pc,#400] ; [0xdb24] = 0x8000103
        0x0000d994:    b00b        ..      ADDHI    sp,sp,#0x2c
        0x0000d996:    e8bd8ff0    ....    POPHI    {r4-r11,pc}
        0x0000d99a:    f3c14cc1    ...L    UBFX     r12,r1,#19,#2
        0x0000d99e:    ea4c1603    L...    ORR      r6,r12,r3,LSL #4
        0x0000d9a2:    f8dfc184    ....    LDR      r12,[pc,#388] ; [0xdb28] = 0x10eea
        0x0000d9a6:    2300        .#      MOVS     r3,#0
        0x0000d9a8:    eb0c0c84    ....    ADD      r12,r12,r4,LSL #2
        0x0000d9ac:    f81c7003    ...p    LDRB     r7,[r12,r3]
        0x0000d9b0:    42b7        .B      CMP      r7,r6
        0x0000d9b2:    d00f        ..      BEQ      0xd9d4 ; am_hal_gpio_pinconfig + 272
        0x0000d9b4:    1c5b        [.      ADDS     r3,r3,#1
        0x0000d9b6:    2b04        .+      CMP      r3,#4
        0x0000d9b8:    d3f8        ..      BCC      0xd9ac ; am_hal_gpio_pinconfig + 232
        0x0000d9ba:    e00d        ..      B        0xd9d8 ; am_hal_gpio_pinconfig + 276
        0x0000d9bc:    f817c004    ....    LDRB     r12,[r7,r4]
        0x0000d9c0:    f01c0f04    ....    TST      r12,#4
        0x0000d9c4:    bf18        ..      IT       NE
        0x0000d9c6:    f0400080    @...    ORRNE    r0,r0,#0x80
        0x0000d9ca:    d1c9        ..      BNE      0xd960 ; am_hal_gpio_pinconfig + 156
        0x0000d9cc:    b00b        ..      ADD      sp,sp,#0x2c
        0x0000d9ce:    4857        WH      LDR      r0,[pc,#348] ; [0xdb2c] = 0x8000102
        0x0000d9d0:    e8bd8ff0    ....    POP      {r4-r11,pc}
        0x0000d9d4:    2b04        .+      CMP      r3,#4
        0x0000d9d6:    d303        ..      BCC      0xd9e0 ; am_hal_gpio_pinconfig + 284
        0x0000d9d8:    b00b        ..      ADD      sp,sp,#0x2c
        0x0000d9da:    4855        UH      LDR      r0,[pc,#340] ; [0xdb30] = 0x8000104
        0x0000d9dc:    e8bd8ff0    ....    POP      {r4-r11,pc}
        0x0000d9e0:    005b        [.      LSLS     r3,r3,#1
        0x0000d9e2:    f3c15c40    ..@\    UBFX     r12,r1,#21,#1
        0x0000d9e6:    ea430ccc    C...    ORR      r12,r3,r12,LSL #3
        0x0000d9ea:    ea4c0302    L...    ORR      r3,r12,r2
        0x0000d9ee:    e022        ".      B        0xda36 ; am_hal_gpio_pinconfig + 370
        0x0000d9f0:    f3c13300    ...3    UBFX     r3,r1,#12,#1
        0x0000d9f4:    f3c12c81    ...,    UBFX     r12,r1,#10,#2
        0x0000d9f8:    ea400043    @.C.    ORR      r0,r0,r3,LSL #1
        0x0000d9fc:    ea4f064c    O.L.    LSL      r6,r12,#1
        0x0000da00:    f3c13340    ..@3    UBFX     r3,r1,#13,#1
        0x0000da04:    ea4603c3    F...    ORR      r3,r6,r3,LSL #3
        0x0000da08:    f3c13641    ..A6    UBFX     r6,r1,#13,#2
        0x0000da0c:    ea430356    C.V.    ORR      r3,r3,r6,LSR #1
        0x0000da10:    f1bc0f01    ....    CMP      r12,#1
        0x0000da14:    d005        ..      BEQ      0xda22 ; am_hal_gpio_pinconfig + 350
        0x0000da16:    f8dfc11c    ....    LDR      r12,[pc,#284] ; [0xdb34] = 0x10e50
        0x0000da1a:    f8dcc000    ....    LDR      r12,[r12,#0]
        0x0000da1e:    4561        aE      CMP      r1,r12
        0x0000da20:    d100        ..      BNE      0xda24 ; am_hal_gpio_pinconfig + 352
        0x0000da22:    2501        .%      MOVS     r5,#1
        0x0000da24:    f4114fc0    ...O    TST      r1,#0x6000
        0x0000da28:    d105        ..      BNE      0xda36 ; am_hal_gpio_pinconfig + 370
        0x0000da2a:    f0230301    #...    BIC      r3,r3,#1
        0x0000da2e:    f3c13cc0    ...<    UBFX     r12,r1,#15,#1
        0x0000da32:    ea4c0303    L...    ORR      r3,r12,r3
        0x0000da36:    f3c12101    ...!    UBFX     r1,r1,#8,#2
        0x0000da3a:    b179        y.      CBZ      r1,0xda5c ; am_hal_gpio_pinconfig + 408
        0x0000da3c:    2901        .)      CMP      r1,#1
        0x0000da3e:    bf08        ..      IT       EQ
        0x0000da40:    f0400004    @...    ORREQ    r0,r0,#4
        0x0000da44:    d00a        ..      BEQ      0xda5c ; am_hal_gpio_pinconfig + 408
        0x0000da46:    2902        .)      CMP      r1,#2
        0x0000da48:    bf08        ..      IT       EQ
        0x0000da4a:    f0420201    B...    ORREQ    r2,r2,#1
        0x0000da4e:    d005        ..      BEQ      0xda5c ; am_hal_gpio_pinconfig + 408
        0x0000da50:    2903        .)      CMP      r1,#3
        0x0000da52:    bf04        ..      ITT      EQ
        0x0000da54:    f0400004    @...    ORREQ    r0,r0,#4
        0x0000da58:    f0420201    B...    ORREQ    r2,r2,#1
        0x0000da5c:    f06f0103    o...    MVN      r1,#3
        0x0000da60:    f8dfc0d4    ....    LDR      r12,[pc,#212] ; [0xdb38] = 0x40010040
        0x0000da64:    ea010154    ..T.    AND      r1,r1,r4,LSR #1
        0x0000da68:    eb01090c    ....    ADD      r9,r1,r12
        0x0000da6c:    f0240103    $...    BIC      r1,r4,#3
        0x0000da70:    f8dfc0c8    ....    LDR      r12,[pc,#200] ; [0xdb3c] = 0x400100e0
        0x0000da74:    f1014880    ...H    ADD      r8,r1,#0x40000000
        0x0000da78:    eb01070c    ....    ADD      r7,r1,r12
        0x0000da7c:    0761        a.      LSLS     r1,r4,#29
        0x0000da7e:    ea4f6cd1    O..l    LSR      r12,r1,#27
        0x0000da82:    07a1        ..      LSLS     r1,r4,#30
        0x0000da84:    0ec9        ..      LSRS     r1,r1,#27
        0x0000da86:    260f        .&      MOVS     r6,#0xf
        0x0000da88:    fa06f60c    ....    LSL      r6,r6,r12
        0x0000da8c:    ea6f0a06    o...    MVN      r10,r6
        0x0000da90:    26ff        .&      MOVS     r6,#0xff
        0x0000da92:    408e        .@      LSLS     r6,r6,r1
        0x0000da94:    4088        .@      LSLS     r0,r0,r1
        0x0000da96:    9000        ..      STR      r0,[sp,#0]
        0x0000da98:    fa02f001    ....    LSL      r0,r2,r1
        0x0000da9c:    f5083880    ...8    ADD      r8,r8,#0x10000
        0x0000daa0:    43f6        .C      MVNS     r6,r6
        0x0000daa2:    fa03fb0c    ....    LSL      r11,r3,r12
        0x0000daa6:    9002        ..      STR      r0,[sp,#8]
        0x0000daa8:    f7fefbee    ....    BL       am_hal_interrupt_master_disable ; 0xc288
        0x0000daac:    9003        ..      STR      r0,[sp,#0xc]
        0x0000daae:    b165        e.      CBZ      r5,0xdaca ; am_hal_gpio_pinconfig + 518
        0x0000dab0:    f004011f    ....    AND      r1,r4,#0x1f
        0x0000dab4:    2001        .       MOVS     r0,#1
        0x0000dab6:    4088        .@      LSLS     r0,r0,r1
        0x0000dab8:    2104        .!      MOVS     r1,#4
        0x0000daba:    ea0101d4    ....    AND      r1,r1,r4,LSR #3
        0x0000dabe:    f1014180    ...A    ADD      r1,r1,#0x40000000
        0x0000dac2:    f5013180    ...1    ADD      r1,r1,#0x10000
        0x0000dac6:    f8c100b4    ....    STR      r0,[r1,#0xb4]
        0x0000daca:    481d        .H      LDR      r0,[pc,#116] ; [0xdb40] = 0x40010000
        0x0000dacc:    2173        s!      MOVS     r1,#0x73
        0x0000dace:    6601        .f      STR      r1,[r0,#0x60]
        0x0000dad0:    f8d81000    ....    LDR      r1,[r8,#0]
        0x0000dad4:    ea010206    ....    AND      r2,r1,r6
        0x0000dad8:    9900        ..      LDR      r1,[sp,#0]
        0x0000dada:    4311        .C      ORRS     r1,r1,r2
        0x0000dadc:    f8c81000    ....    STR      r1,[r8,#0]
        0x0000dae0:    f8d91000    ....    LDR      r1,[r9,#0]
        0x0000dae4:    ea01010a    ....    AND      r1,r1,r10
        0x0000dae8:    ea41010b    A...    ORR      r1,r1,r11
        0x0000daec:    f8c91000    ....    STR      r1,[r9,#0]
        0x0000daf0:    6839        9h      LDR      r1,[r7,#0]
        0x0000daf2:    ea010206    ....    AND      r2,r1,r6
        0x0000daf6:    9902        ..      LDR      r1,[sp,#8]
        0x0000daf8:    4311        .C      ORRS     r1,r1,r2
        0x0000dafa:    6039        9`      STR      r1,[r7,#0]
        0x0000dafc:    2100        .!      MOVS     r1,#0
        0x0000dafe:    6601        .f      STR      r1,[r0,#0x60]
        0x0000db00:    9803        ..      LDR      r0,[sp,#0xc]
        0x0000db02:    f7fefbc5    ....    BL       am_hal_interrupt_master_set ; 0xc290
        0x0000db06:    b00b        ..      ADD      sp,sp,#0x2c
        0x0000db08:    2000        .       MOVS     r0,#0
        0x0000db0a:    e8bd8ff0    ....    POP      {r4-r11,pc}
    $d
        0x0000db0e:    0000        ..      DCW    0
        0x0000db10:    00010e86    ....    DCD    69254
        0x0000db14:    08000100    ....    DCD    134217984
        0x0000db18:    08000101    ....    DCD    134217985
        0x0000db1c:    00010e54    T...    DCD    69204
        0x0000db20:    00010eb8    ....    DCD    69304
        0x0000db24:    08000103    ....    DCD    134217987
        0x0000db28:    00010eea    ....    DCD    69354
        0x0000db2c:    08000102    ....    DCD    134217986
        0x0000db30:    08000104    ....    DCD    134217988
        0x0000db34:    00010e50    P...    DCD    69200
        0x0000db38:    40010040    @..@    DCD    1073807424
        0x0000db3c:    400100e0    ...@    DCD    1073807584
        0x0000db40:    40010000    ...@    DCD    1073807360
    $t
    i.am_hal_gpio_state_write
    am_hal_gpio_state_write
        0x0000db44:    b5f8        ..      PUSH     {r3-r7,lr}
        0x0000db46:    2700        .'      MOVS     r7,#0
        0x0000db48:    460d        .F      MOV      r5,r1
        0x0000db4a:    4606        .F      MOV      r6,r0
        0x0000db4c:    2832        2(      CMP      r0,#0x32
        0x0000db4e:    bf24        $.      ITT      CS
        0x0000db50:    2005        .       MOVCS    r0,#5
        0x0000db52:    bdf8        ..      POPCS    {r3-r7,pc}
        0x0000db54:    2d05        .-      CMP      r5,#5
        0x0000db56:    bf84        ..      ITT      HI
        0x0000db58:    2006        .       MOVHI    r0,#6
        0x0000db5a:    bdf8        ..      POPHI    {r3-r7,pc}
        0x0000db5c:    f006001f    ....    AND      r0,r6,#0x1f
        0x0000db60:    2101        .!      MOVS     r1,#1
        0x0000db62:    fa01f400    ....    LSL      r4,r1,r0
        0x0000db66:    f7fefb8f    ....    BL       am_hal_interrupt_master_disable ; 0xc288
        0x0000db6a:    9000        ..      STR      r0,[sp,#0]
        0x0000db6c:    2004        .       MOVS     r0,#4
        0x0000db6e:    ea0000d6    ....    AND      r0,r0,r6,LSR #3
        0x0000db72:    f1004080    ...@    ADD      r0,r0,#0x40000000
        0x0000db76:    f5003080    ...0    ADD      r0,r0,#0x10000
        0x0000db7a:    2d06        .-      CMP      r5,#6
        0x0000db7c:    d21c        ..      BCS      0xdbb8 ; am_hal_gpio_state_write + 116
        0x0000db7e:    e8dff005    ....    TBB      [pc,r5]
    $d
        0x0000db82:    0306        ..      DCW    774
        0x0000db84:    150f1209    ....    DCD    353309193
    $t
        0x0000db88:    f8c04090    ...@    STR      r4,[r0,#0x90]
        0x0000db8c:    e015        ..      B        0xdbba ; am_hal_gpio_state_write + 118
        0x0000db8e:    f8c04098    ...@    STR      r4,[r0,#0x98]
        0x0000db92:    e012        ..      B        0xdbba ; am_hal_gpio_state_write + 118
        0x0000db94:    f8d01088    ....    LDR      r1,[r0,#0x88]
        0x0000db98:    4061        a@      EORS     r1,r1,r4
        0x0000db9a:    f8c01088    ....    STR      r1,[r0,#0x88]
        0x0000db9e:    e00c        ..      B        0xdbba ; am_hal_gpio_state_write + 118
        0x0000dba0:    f8c040a8    ...@    STR      r4,[r0,#0xa8]
        0x0000dba4:    e009        ..      B        0xdbba ; am_hal_gpio_state_write + 118
        0x0000dba6:    f8c040b4    ...@    STR      r4,[r0,#0xb4]
        0x0000dbaa:    e006        ..      B        0xdbba ; am_hal_gpio_state_write + 118
        0x0000dbac:    f8d010b4    ....    LDR      r1,[r0,#0xb4]
        0x0000dbb0:    4061        a@      EORS     r1,r1,r4
        0x0000dbb2:    f8c010b4    ....    STR      r1,[r0,#0xb4]
        0x0000dbb6:    e000        ..      B        0xdbba ; am_hal_gpio_state_write + 118
        0x0000dbb8:    2706        .'      MOVS     r7,#6
        0x0000dbba:    9800        ..      LDR      r0,[sp,#0]
        0x0000dbbc:    f7fefb68    ..h.    BL       am_hal_interrupt_master_set ; 0xc290
        0x0000dbc0:    4638        8F      MOV      r0,r7
        0x0000dbc2:    bdf8        ..      POP      {r3-r7,pc}
    i.am_hal_itm_enable
    am_hal_itm_enable
        0x0000dbc4:    480a        .H      LDR      r0,[pc,#40] ; [0xdbf0] = 0xe000edfc
        0x0000dbc6:    6801        .h      LDR      r1,[r0,#0]
        0x0000dbc8:    f0417180    A..q    ORR      r1,r1,#0x1000000
        0x0000dbcc:    6001        .`      STR      r1,[r0,#0]
        0x0000dbce:    6801        .h      LDR      r1,[r0,#0]
        0x0000dbd0:    f0117f80    ....    TST      r1,#0x1000000
        0x0000dbd4:    d0fb        ..      BEQ      0xdbce ; am_hal_itm_enable + 10
        0x0000dbd6:    4908        .I      LDR      r1,[pc,#32] ; [0xdbf8] = 0xe0000fb0
        0x0000dbd8:    4806        .H      LDR      r0,[pc,#24] ; [0xdbf4] = 0xc5acce55
        0x0000dbda:    6008        .`      STR      r0,[r1,#0]
        0x0000dbdc:    4907        .I      LDR      r1,[pc,#28] ; [0xdbfc] = 0xe0000e40
        0x0000dbde:    200f        .       MOVS     r0,#0xf
        0x0000dbe0:    6008        .`      STR      r0,[r1,#0]
        0x0000dbe2:    1748        H.      ASRS     r0,r1,#29
        0x0000dbe4:    4906        .I      LDR      r1,[pc,#24] ; [0xdc00] = 0xe0000e00
        0x0000dbe6:    6008        .`      STR      r0,[r1,#0]
        0x0000dbe8:    4907        .I      LDR      r1,[pc,#28] ; [0xdc08] = 0xe0000e80
        0x0000dbea:    4806        .H      LDR      r0,[pc,#24] ; [0xdc04] = 0x150511
        0x0000dbec:    6008        .`      STR      r0,[r1,#0]
        0x0000dbee:    4770        pG      BX       lr
    $d
        0x0000dbf0:    e000edfc    ....    DCD    3758157308
        0x0000dbf4:    c5acce55    U...    DCD    3316436565
        0x0000dbf8:    e0000fb0    ....    DCD    3758100400
        0x0000dbfc:    e0000e40    @...    DCD    3758100032
        0x0000dc00:    e0000e00    ....    DCD    3758099968
        0x0000dc04:    00150511    ....    DCD    1377553
        0x0000dc08:    e0000e80    ....    DCD    3758100096
    $t
    i.am_hal_itm_print
    am_hal_itm_print
        0x0000dc0c:    7802        .x      LDRB     r2,[r0,#0]
        0x0000dc0e:    2100        .!      MOVS     r1,#0
        0x0000dc10:    2a00        .*      CMP      r2,#0
        0x0000dc12:    bf08        ..      IT       EQ
        0x0000dc14:    4770        pG      BXEQ     lr
        0x0000dc16:    1c49        I.      ADDS     r1,r1,#1
        0x0000dc18:    5c42        B\      LDRB     r2,[r0,r1]
        0x0000dc1a:    2a00        .*      CMP      r2,#0
        0x0000dc1c:    d1fb        ..      BNE      0xdc16 ; am_hal_itm_print + 10
        0x0000dc1e:    2900        .)      CMP      r1,#0
        0x0000dc20:    bf08        ..      IT       EQ
        0x0000dc22:    4770        pG      BXEQ     lr
        0x0000dc24:    f810cb01    ....    LDRB     r12,[r0],#1
        0x0000dc28:    f04f4260    O.`B    MOV      r2,#0xe0000000
        0x0000dc2c:    6813        .h      LDR      r3,[r2,#0]
        0x0000dc2e:    2b00        .+      CMP      r3,#0
        0x0000dc30:    d0fc        ..      BEQ      0xdc2c ; am_hal_itm_print + 32
        0x0000dc32:    f882c000    ....    STRB     r12,[r2,#0]
        0x0000dc36:    1e49        I.      SUBS     r1,r1,#1
        0x0000dc38:    d1f4        ..      BNE      0xdc24 ; am_hal_itm_print + 24
        0x0000dc3a:    4770        pG      BX       lr
    i.am_hal_mcuctrl_control
    am_hal_mcuctrl_control
        0x0000dc3c:    b5f8        ..      PUSH     {r3-r7,lr}
        0x0000dc3e:    4c53        SL      LDR      r4,[pc,#332] ; [0xdd8c] = 0x40020000
        0x0000dc40:    2805        .(      CMP      r0,#5
        0x0000dc42:    d27d        }.      BCS      0xdd40 ; am_hal_mcuctrl_control + 260
        0x0000dc44:    e8dff000    ....    TBB      [pc,r0]
    $d
        0x0000dc48:    1a0f0803    ....    DCD    437192707
        0x0000dc4c:    0027        '.      DCW    39
    $t
        0x0000dc4e:    f8d401d0    ....    LDR      r0,[r4,#0x1d0]
        0x0000dc52:    f0400001    @...    ORR      r0,r0,#1
        0x0000dc56:    e003        ..      B        0xdc60 ; am_hal_mcuctrl_control + 36
        0x0000dc58:    f8d401d0    ....    LDR      r0,[r4,#0x1d0]
        0x0000dc5c:    f0200001     ...    BIC      r0,r0,#1
        0x0000dc60:    f8c401d0    ....    STR      r0,[r4,#0x1d0]
        0x0000dc64:    e08d        ..      B        0xdd82 ; am_hal_mcuctrl_control + 326
        0x0000dc66:    f8d40120    .. .    LDR      r0,[r4,#0x120]
        0x0000dc6a:    f020001f     ...    BIC      r0,r0,#0x1f
        0x0000dc6e:    f8c40120    .. .    STR      r0,[r4,#0x120]
        0x0000dc72:    f8d40120    .. .    LDR      r0,[r4,#0x120]
        0x0000dc76:    f0400007    @...    ORR      r0,r0,#7
        0x0000dc7a:    e009        ..      B        0xdc90 ; am_hal_mcuctrl_control + 84
        0x0000dc7c:    f8d40120    .. .    LDR      r0,[r4,#0x120]
        0x0000dc80:    f020001f     ...    BIC      r0,r0,#0x1f
        0x0000dc84:    f8c40120    .. .    STR      r0,[r4,#0x120]
        0x0000dc88:    f8d40120    .. .    LDR      r0,[r4,#0x120]
        0x0000dc8c:    f0400018    @...    ORR      r0,r0,#0x18
        0x0000dc90:    f8c40120    .. .    STR      r0,[r4,#0x120]
        0x0000dc94:    e075        u.      B        0xdd82 ; am_hal_mcuctrl_control + 326
        0x0000dc96:    6808        .h      LDR      r0,[r1,#0]
        0x0000dc98:    f0301133    0.3.    BICS     r1,r0,#0x330033
        0x0000dc9c:    d173        s.      BNE      0xdd86 ; am_hal_mcuctrl_control + 330
        0x0000dc9e:    f0100101    ....    ANDS     r1,r0,#1
        0x0000dca2:    bf18        ..      IT       NE
        0x0000dca4:    2108        .!      MOVNE    r1,#8
        0x0000dca6:    f0100202    ....    ANDS     r2,r0,#2
        0x0000dcaa:    bf18        ..      IT       NE
        0x0000dcac:    2204        ."      MOVNE    r2,#4
        0x0000dcae:    4311        .C      ORRS     r1,r1,r2
        0x0000dcb0:    f4103280    ...2    ANDS     r2,r0,#0x10000
        0x0000dcb4:    bf18        ..      IT       NE
        0x0000dcb6:    2202        ."      MOVNE    r2,#2
        0x0000dcb8:    4311        .C      ORRS     r1,r1,r2
        0x0000dcba:    f3c04240    ..@B    UBFX     r2,r0,#17,#1
        0x0000dcbe:    430a        .C      ORRS     r2,r2,r1
        0x0000dcc0:    f8d41284    ....    LDR      r1,[r4,#0x284]
        0x0000dcc4:    f0110301    ....    ANDS     r3,r1,#1
        0x0000dcc8:    bf18        ..      IT       NE
        0x0000dcca:    2308        .#      MOVNE    r3,#8
        0x0000dccc:    431a        .C      ORRS     r2,r2,r3
        0x0000dcce:    f0110302    ....    ANDS     r3,r1,#2
        0x0000dcd2:    bf18        ..      IT       NE
        0x0000dcd4:    2304        .#      MOVNE    r3,#4
        0x0000dcd6:    431a        .C      ORRS     r2,r2,r3
        0x0000dcd8:    2500        .%      MOVS     r5,#0
        0x0000dcda:    462e        .F      MOV      r6,r5
        0x0000dcdc:    2a10        .*      CMP      r2,#0x10
        0x0000dcde:    d252        R.      BCS      0xdd86 ; am_hal_mcuctrl_control + 330
        0x0000dce0:    e8dff002    ....    TBB      [pc,r2]
    $d
        0x0000dce4:    0a0a0810    ....    DCD    168429584
        0x0000dce8:    0a3d103d    =.=.    DCD    171774013
        0x0000dcec:    0a0a0c0c    ....    DCD    168430604
        0x0000dcf0:    0a3d0c0f    ..=.    DCD    171772943
    $t
        0x0000dcf4:    2502        .%      MOVS     r5,#2
        0x0000dcf6:    e005        ..      B        0xdd04 ; am_hal_mcuctrl_control + 200
        0x0000dcf8:    2503        .%      MOVS     r5,#3
        0x0000dcfa:    e003        ..      B        0xdd04 ; am_hal_mcuctrl_control + 200
        0x0000dcfc:    2601        .&      MOVS     r6,#1
        0x0000dcfe:    2502        .%      MOVS     r5,#2
        0x0000dd00:    e000        ..      B        0xdd04 ; am_hal_mcuctrl_control + 200
        0x0000dd02:    2603        .&      MOVS     r6,#3
        0x0000dd04:    f0100210    ....    ANDS     r2,r0,#0x10
        0x0000dd08:    bf18        ..      IT       NE
        0x0000dd0a:    2208        ."      MOVNE    r2,#8
        0x0000dd0c:    f0100320    .. .    ANDS     r3,r0,#0x20
        0x0000dd10:    bf18        ..      IT       NE
        0x0000dd12:    2304        .#      MOVNE    r3,#4
        0x0000dd14:    431a        .C      ORRS     r2,r2,r3
        0x0000dd16:    f4101380    ....    ANDS     r3,r0,#0x100000
        0x0000dd1a:    bf18        ..      IT       NE
        0x0000dd1c:    2302        .#      MOVNE    r3,#2
        0x0000dd1e:    431a        .C      ORRS     r2,r2,r3
        0x0000dd20:    f3c05040    ..@P    UBFX     r0,r0,#21,#1
        0x0000dd24:    4310        .C      ORRS     r0,r0,r2
        0x0000dd26:    f0110210    ....    ANDS     r2,r1,#0x10
        0x0000dd2a:    bf18        ..      IT       NE
        0x0000dd2c:    2208        ."      MOVNE    r2,#8
        0x0000dd2e:    4310        .C      ORRS     r0,r0,r2
        0x0000dd30:    f0110120    .. .    ANDS     r1,r1,#0x20
        0x0000dd34:    bf18        ..      IT       NE
        0x0000dd36:    2104        .!      MOVNE    r1,#4
        0x0000dd38:    4308        .C      ORRS     r0,r0,r1
        0x0000dd3a:    2810        .(      CMP      r0,#0x10
        0x0000dd3c:    d223        #.      BCS      0xdd86 ; am_hal_mcuctrl_control + 330
        0x0000dd3e:    e000        ..      B        0xdd42 ; am_hal_mcuctrl_control + 262
        0x0000dd40:    e021        !.      B        0xdd86 ; am_hal_mcuctrl_control + 330
        0x0000dd42:    e8dff000    ....    TBB      [pc,r0]
    $d
        0x0000dd46:    0812        ..      DCW    2066
        0x0000dd48:    120c0a0a    ....    DCD    302778890
        0x0000dd4c:    0e0e0a0c    ....    DCD    235801100
        0x0000dd50:    0e110a0a    ....    DCD    235997706
        0x0000dd54:    0a0c        ..      DCW    2572
    $t
        0x0000dd56:    2520         %      MOVS     r5,#0x20
        0x0000dd58:    e007        ..      B        0xdd6a ; am_hal_mcuctrl_control + 302
        0x0000dd5a:    2530        0%      MOVS     r5,#0x30
        0x0000dd5c:    e005        ..      B        0xdd6a ; am_hal_mcuctrl_control + 302
        0x0000dd5e:    2007        .       MOVS     r0,#7
        0x0000dd60:    bdf8        ..      POP      {r3-r7,pc}
        0x0000dd62:    2610        .&      MOVS     r6,#0x10
        0x0000dd64:    2520         %      MOVS     r5,#0x20
        0x0000dd66:    e000        ..      B        0xdd6a ; am_hal_mcuctrl_control + 302
        0x0000dd68:    2630        0&      MOVS     r6,#0x30
        0x0000dd6a:    f7fefa8d    ....    BL       am_hal_interrupt_master_disable ; 0xc288
        0x0000dd6e:    9000        ..      STR      r0,[sp,#0]
        0x0000dd70:    f8d40284    ....    LDR      r0,[r4,#0x284]
        0x0000dd74:    4330        0C      ORRS     r0,r0,r6
        0x0000dd76:    43a8        .C      BICS     r0,r0,r5
        0x0000dd78:    f8c40284    ....    STR      r0,[r4,#0x284]
        0x0000dd7c:    9800        ..      LDR      r0,[sp,#0]
        0x0000dd7e:    f7fefa87    ....    BL       am_hal_interrupt_master_set ; 0xc290
        0x0000dd82:    2000        .       MOVS     r0,#0
        0x0000dd84:    bdf8        ..      POP      {r3-r7,pc}
        0x0000dd86:    2006        .       MOVS     r0,#6
        0x0000dd88:    bdf8        ..      POP      {r3-r7,pc}
    $d
        0x0000dd8a:    0000        ..      DCW    0
        0x0000dd8c:    40020000    ...@    DCD    1073872896
    $t
    i.am_hal_mcuctrl_info_get
    am_hal_mcuctrl_info_get
        0x0000dd90:    b129        ).      CBZ      r1,0xdd9e ; am_hal_mcuctrl_info_get + 14
        0x0000dd92:    4a45        EJ      LDR      r2,[pc,#276] ; [0xdea8] = 0x40020000
        0x0000dd94:    b128        (.      CBZ      r0,0xdda2 ; am_hal_mcuctrl_info_get + 18
        0x0000dd96:    2801        .(      CMP      r0,#1
        0x0000dd98:    d017        ..      BEQ      0xddca ; am_hal_mcuctrl_info_get + 58
        0x0000dd9a:    2802        .(      CMP      r0,#2
        0x0000dd9c:    d069        i.      BEQ      0xde72 ; am_hal_mcuctrl_info_get + 226
        0x0000dd9e:    2006        .       MOVS     r0,#6
        0x0000dda0:    4770        pG      BX       lr
        0x0000dda2:    6990        .i      LDR      r0,[r2,#0x18]
        0x0000dda4:    f3c01380    ....    UBFX     r3,r0,#6,#1
        0x0000dda8:    700b        .p      STRB     r3,[r1,#0]
        0x0000ddaa:    f3c00080    ....    UBFX     r0,r0,#2,#1
        0x0000ddae:    7048        Hp      STRB     r0,[r1,#1]
        0x0000ddb0:    f8d201a0    ....    LDR      r0,[r2,#0x1a0]
        0x0000ddb4:    f3c06081    ...`    UBFX     r0,r0,#26,#2
        0x0000ddb8:    7108        .q      STRB     r0,[r1,#4]
        0x0000ddba:    6950        Pi      LDR      r0,[r2,#0x14]
        0x0000ddbc:    f3c00240    ..@.    UBFX     r2,r0,#1,#1
        0x0000ddc0:    708a        .p      STRB     r2,[r1,#2]
        0x0000ddc2:    f0000001    ....    AND      r0,r0,#1
        0x0000ddc6:    70c8        .p      STRB     r0,[r1,#3]
        0x0000ddc8:    e06b        k.      B        0xdea2 ; am_hal_mcuctrl_info_get + 274
        0x0000ddca:    6810        .h      LDR      r0,[r2,#0]
        0x0000ddcc:    6008        .`      STR      r0,[r1,#0]
        0x0000ddce:    6853        Sh      LDR      r3,[r2,#4]
        0x0000ddd0:    604b        K`      STR      r3,[r1,#4]
        0x0000ddd2:    6893        .h      LDR      r3,[r2,#8]
        0x0000ddd4:    608b        .`      STR      r3,[r1,#8]
        0x0000ddd6:    68d3        .h      LDR      r3,[r2,#0xc]
        0x0000ddd8:    60cb        .`      STR      r3,[r1,#0xc]
        0x0000ddda:    6913        .i      LDR      r3,[r2,#0x10]
        0x0000dddc:    610b        .a      STR      r3,[r1,#0x10]
        0x0000ddde:    6952        Ri      LDR      r2,[r2,#0x14]
        0x0000dde0:    614a        Ja      STR      r2,[r1,#0x14]
        0x0000dde2:    f0000201    ....    AND      r2,r0,#1
        0x0000dde6:    618a        .a      STR      r2,[r1,#0x18]
        0x0000dde8:    223c        <"      MOVS     r2,#0x3c
        0x0000ddea:    ea024390    ...C    AND      r3,r2,r0,LSR #18
        0x0000ddee:    f8dfc0bc    ....    LDR      r12,[pc,#188] ; [0xdeac] = 0x10c90
        0x0000ddf2:    ea023090    ...0    AND      r0,r2,r0,LSR #14
        0x0000ddf6:    f10c0240    ..@.    ADD      r2,r12,#0x40
        0x0000ddfa:    f85c3003    \..0    LDR      r3,[r12,r3]
        0x0000ddfe:    61cb        .a      STR      r3,[r1,#0x1c]
        0x0000de00:    5810        .X      LDR      r0,[r2,r0]
        0x0000de02:    6208        .b      STR      r0,[r1,#0x20]
        0x0000de04:    482a        *H      LDR      r0,[pc,#168] ; [0xdeb0] = 0xf0000fe0
        0x0000de06:    6800        .h      LDR      r0,[r0,#0]
        0x0000de08:    4a2a        *J      LDR      r2,[pc,#168] ; [0xdeb4] = 0xf0000fe4
        0x0000de0a:    b2c0        ..      UXTB     r0,r0
        0x0000de0c:    6248        Hb      STR      r0,[r1,#0x24]
        0x0000de0e:    6813        .h      LDR      r3,[r2,#0]
        0x0000de10:    f003030f    ....    AND      r3,r3,#0xf
        0x0000de14:    ea402003    @..     ORR      r0,r0,r3,LSL #8
        0x0000de18:    6248        Hb      STR      r0,[r1,#0x24]
        0x0000de1a:    6810        .h      LDR      r0,[r2,#0]
        0x0000de1c:    1d12        ..      ADDS     r2,r2,#4
        0x0000de1e:    f3c01003    ....    UBFX     r0,r0,#4,#4
        0x0000de22:    6288        .b      STR      r0,[r1,#0x28]
        0x0000de24:    6813        .h      LDR      r3,[r2,#0]
        0x0000de26:    f003030f    ....    AND      r3,r3,#0xf
        0x0000de2a:    ea401003    @...    ORR      r0,r0,r3,LSL #4
        0x0000de2e:    6288        .b      STR      r0,[r1,#0x28]
        0x0000de30:    6810        .h      LDR      r0,[r2,#0]
        0x0000de32:    f3c01003    ....    UBFX     r0,r0,#4,#4
        0x0000de36:    0100        ..      LSLS     r0,r0,#4
        0x0000de38:    1d12        ..      ADDS     r2,r2,#4
        0x0000de3a:    62c8        .b      STR      r0,[r1,#0x2c]
        0x0000de3c:    6812        .h      LDR      r2,[r2,#0]
        0x0000de3e:    f3c21203    ....    UBFX     r2,r2,#4,#4
        0x0000de42:    4310        .C      ORRS     r0,r0,r2
        0x0000de44:    62c8        .b      STR      r0,[r1,#0x2c]
        0x0000de46:    481c        .H      LDR      r0,[pc,#112] ; [0xdeb8] = 0xf0000ffc
        0x0000de48:    6800        .h      LDR      r0,[r0,#0]
        0x0000de4a:    4a1c        .J      LDR      r2,[pc,#112] ; [0xdebc] = 0xf0000ff8
        0x0000de4c:    0600        ..      LSLS     r0,r0,#24
        0x0000de4e:    6308        .c      STR      r0,[r1,#0x30]
        0x0000de50:    6812        .h      LDR      r2,[r2,#0]
        0x0000de52:    b2d2        ..      UXTB     r2,r2
        0x0000de54:    ea404002    @..@    ORR      r0,r0,r2,LSL #16
        0x0000de58:    4a19        .J      LDR      r2,[pc,#100] ; [0xdec0] = 0xf0000ff4
        0x0000de5a:    6308        .c      STR      r0,[r1,#0x30]
        0x0000de5c:    6812        .h      LDR      r2,[r2,#0]
        0x0000de5e:    b2d2        ..      UXTB     r2,r2
        0x0000de60:    ea402002    @..     ORR      r0,r0,r2,LSL #8
        0x0000de64:    4a17        .J      LDR      r2,[pc,#92] ; [0xdec4] = 0xf0000ff0
        0x0000de66:    6308        .c      STR      r0,[r1,#0x30]
        0x0000de68:    6812        .h      LDR      r2,[r2,#0]
        0x0000de6a:    b2d2        ..      UXTB     r2,r2
        0x0000de6c:    4310        .C      ORRS     r0,r0,r2
        0x0000de6e:    6308        .c      STR      r0,[r1,#0x30]
        0x0000de70:    e017        ..      B        0xdea2 ; am_hal_mcuctrl_info_get + 274
        0x0000de72:    f8d201cc    ....    LDR      r0,[r2,#0x1cc]
        0x0000de76:    f0000301    ....    AND      r3,r0,#1
        0x0000de7a:    700b        .p      STRB     r3,[r1,#0]
        0x0000de7c:    f3c00340    ..@.    UBFX     r3,r0,#1,#1
        0x0000de80:    720b        .r      STRB     r3,[r1,#8]
        0x0000de82:    f3c00080    ....    UBFX     r0,r0,#2,#1
        0x0000de86:    7408        .t      STRB     r0,[r1,#0x10]
        0x0000de88:    f8d201c4    ....    LDR      r0,[r2,#0x1c4]
        0x0000de8c:    60c8        .`      STR      r0,[r1,#0xc]
        0x0000de8e:    6848        Hh      LDR      r0,[r1,#4]
        0x0000de90:    f8d231c0    ...1    LDR      r3,[r2,#0x1c0]
        0x0000de94:    4318        .C      ORRS     r0,r0,r3
        0x0000de96:    6048        H`      STR      r0,[r1,#4]
        0x0000de98:    6948        Hi      LDR      r0,[r1,#0x14]
        0x0000de9a:    f8d221c8    ...!    LDR      r2,[r2,#0x1c8]
        0x0000de9e:    4310        .C      ORRS     r0,r0,r2
        0x0000dea0:    6148        Ha      STR      r0,[r1,#0x14]
        0x0000dea2:    2000        .       MOVS     r0,#0
        0x0000dea4:    4770        pG      BX       lr
    $d
        0x0000dea6:    0000        ..      DCW    0
        0x0000dea8:    40020000    ...@    DCD    1073872896
        0x0000deac:    00010c90    ....    DCD    68752
        0x0000deb0:    f0000fe0    ....    DCD    4026535904
        0x0000deb4:    f0000fe4    ....    DCD    4026535908
        0x0000deb8:    f0000ffc    ....    DCD    4026535932
        0x0000debc:    f0000ff8    ....    DCD    4026535928
        0x0000dec0:    f0000ff4    ....    DCD    4026535924
        0x0000dec4:    f0000ff0    ....    DCD    4026535920
    $t
    i.am_hal_mspi_blocking_transfer
    am_hal_mspi_blocking_transfer
        0x0000dec8:    e92d4ff7    -..O    PUSH     {r0-r2,r4-r11,lr}
        0x0000decc:    b084        ..      SUB      sp,sp,#0x10
        0x0000dece:    1e02        ..      SUBS     r2,r0,#0
        0x0000ded0:    f04f0c00    O...    MOV      r12,#0
        0x0000ded4:    bf1c        ..      ITT      NE
        0x0000ded6:    6810        .h      LDRNE    r0,[r2,#0]
        0x0000ded8:    f0107f80    ....    TSTNE    r0,#0x1000000
        0x0000dedc:    d004        ..      BEQ      0xdee8 ; am_hal_mspi_blocking_transfer + 32
        0x0000dede:    4c71        qL      LDR      r4,[pc,#452] ; [0xe0a4] = 0xbebebe
        0x0000dee0:    f020437f     ..C    BIC      r3,r0,#0xff000000
        0x0000dee4:    42a3        .B      CMP      r3,r4
        0x0000dee6:    d003        ..      BEQ      0xdef0 ; am_hal_mspi_blocking_transfer + 40
        0x0000dee8:    b007        ..      ADD      sp,sp,#0x1c
        0x0000deea:    2002        .       MOVS     r0,#2
        0x0000deec:    e8bd8ff0    ....    POP      {r4-r11,pc}
        0x0000def0:    f0107f00    ....    TST      r0,#0x2000000
        0x0000def4:    d05f        _.      BEQ      0xdfb6 ; am_hal_mspi_blocking_transfer + 238
        0x0000def6:    69d0        .i      LDR      r0,[r2,#0x1c]
        0x0000def8:    6853        Sh      LDR      r3,[r2,#4]
        0x0000defa:    2800        .(      CMP      r0,#0
        0x0000defc:    bf04        ..      ITT      EQ
        0x0000defe:    f8d2083c    ..<.    LDREQ    r0,[r2,#0x83c]
        0x0000df02:    2800        .(      CMPEQ    r0,#0
        0x0000df04:    d157        W.      BNE      0xdfb6 ; am_hal_mspi_blocking_transfer + 238
        0x0000df06:    f8920828    ..(.    LDRB     r0,[r2,#0x828]
        0x0000df0a:    2802        .(      CMP      r0,#2
        0x0000df0c:    d053        S.      BEQ      0xdfb6 ; am_hal_mspi_blocking_transfer + 238
        0x0000df0e:    8808        ..      LDRH     r0,[r1,#0]
        0x0000df10:    f44f6400    O..d    MOV      r4,#0x800
        0x0000df14:    ea4c4000    L..@    ORR      r0,r12,r0,LSL #16
        0x0000df18:    f891c004    ....    LDRB     r12,[r1,#4]
        0x0000df1c:    4d62        bM      LDR      r5,[pc,#392] ; [0xe0a8] = 0x50014000
        0x0000df1e:    ea042ccc    ...,    AND      r12,r4,r12,LSL #11
        0x0000df22:    ea4c0000    L...    ORR      r0,r12,r0
        0x0000df26:    f891c005    ....    LDRB     r12,[r1,#5]
        0x0000df2a:    1064        d.      ASRS     r4,r4,#1
        0x0000df2c:    ea042c8c    ...,    AND      r12,r4,r12,LSL #10
        0x0000df30:    ea4c0000    L...    ORR      r0,r12,r0
        0x0000df34:    f891c00c    ....    LDRB     r12,[r1,#0xc]
        0x0000df38:    f1bc0f00    ....    CMP      r12,#0
        0x0000df3c:    d005        ..      BEQ      0xdf4a ; am_hal_mspi_blocking_transfer + 130
        0x0000df3e:    f8b1c00e    ....    LDRH     r12,[r1,#0xe]
        0x0000df42:    f4407000    @..p    ORR      r0,r0,#0x200
        0x0000df46:    f8c5c00c    ....    STR      r12,[r5,#0xc]
        0x0000df4a:    f891c006    ....    LDRB     r12,[r1,#6]
        0x0000df4e:    f1bc0f00    ....    CMP      r12,#0
        0x0000df52:    d005        ..      BEQ      0xdf60 ; am_hal_mspi_blocking_transfer + 152
        0x0000df54:    f8d1c008    ....    LDR      r12,[r1,#8]
        0x0000df58:    f4407080    @..p    ORR      r0,r0,#0x100
        0x0000df5c:    f8c5c008    ....    STR      r12,[r5,#8]
        0x0000df60:    f891c010    ....    LDRB     r12,[r1,#0x10]
        0x0000df64:    f1bc0f00    ....    CMP      r12,#0
        0x0000df68:    bf18        ..      IT       NE
        0x0000df6a:    f0400080    @...    ORRNE    r0,r0,#0x80
        0x0000df6e:    f892c00a    ....    LDRB     r12,[r2,#0xa]
        0x0000df72:    2440        @$      MOVS     r4,#0x40
        0x0000df74:    ea041c8c    ....    AND      r12,r4,r12,LSL #6
        0x0000df78:    ea4c0000    L...    ORR      r0,r12,r0
        0x0000df7c:    f891c011    ....    LDRB     r12,[r1,#0x11]
        0x0000df80:    f1bc0f00    ....    CMP      r12,#0
        0x0000df84:    bf18        ..      IT       NE
        0x0000df86:    f0400008    @...    ORRNE    r0,r0,#8
        0x0000df8a:    f0400001    @...    ORR      r0,r0,#1
        0x0000df8e:    f8d5a200    ....    LDR      r10,[r5,#0x200]
        0x0000df92:    2600        .&      MOVS     r6,#0
        0x0000df94:    f8c56200    ...b    STR      r6,[r5,#0x200]
        0x0000df98:    f04f3bff    O..;    MOV      r11,#0xffffffff
        0x0000df9c:    f8c5b208    ....    STR      r11,[r5,#0x208]
        0x0000dfa0:    6028        (`      STR      r0,[r5,#0]
        0x0000dfa2:    f891c005    ....    LDRB     r12,[r1,#5]
        0x0000dfa6:    2005        .       MOVS     r0,#5
        0x0000dfa8:    f1bc0f00    ....    CMP      r12,#0
        0x0000dfac:    d007        ..      BEQ      0xdfbe ; am_hal_mspi_blocking_transfer + 246
        0x0000dfae:    f1bc0f01    ....    CMP      r12,#1
        0x0000dfb2:    d045        E.      BEQ      0xe040 ; am_hal_mspi_blocking_transfer + 376
        0x0000dfb4:    e066        f.      B        0xe084 ; am_hal_mspi_blocking_transfer + 444
        0x0000dfb6:    b007        ..      ADD      sp,sp,#0x1c
        0x0000dfb8:    2007        .       MOVS     r0,#7
        0x0000dfba:    e8bd8ff0    ....    POP      {r4-r11,pc}
        0x0000dfbe:    f8d19014    ....    LDR      r9,[r1,#0x14]
        0x0000dfc2:    6809        .h      LDR      r1,[r1,#0]
        0x0000dfc4:    68d2        .h      LDR      r2,[r2,#0xc]
        0x0000dfc6:    9201        ..      STR      r2,[sp,#4]
        0x0000dfc8:    2b00        .+      CMP      r3,#0
        0x0000dfca:    d154        T.      BNE      0xe076 ; am_hal_mspi_blocking_transfer + 430
        0x0000dfcc:    088f        ..      LSRS     r7,r1,#2
        0x0000dfce:    f1c70000    ....    RSB      r0,r7,#0
        0x0000dfd2:    eb010880    ....    ADD      r8,r1,r0,LSL #2
        0x0000dfd6:    461c        .F      MOV      r4,r3
        0x0000dfd8:    d00d        ..      BEQ      0xdff6 ; am_hal_mspi_blocking_transfer + 302
        0x0000dfda:    2300        .#      MOVS     r3,#0
        0x0000dfdc:    221f        ."      MOVS     r2,#0x1f
        0x0000dfde:    4933        3I      LDR      r1,[pc,#204] ; [0xe0ac] = 0x5001401c
        0x0000dfe0:    9600        ..      STR      r6,[sp,#0]
        0x0000dfe2:    9801        ..      LDR      r0,[sp,#4]
        0x0000dfe4:    f7fffc28    ..(.    BL       am_hal_flash_delay_status_check ; 0xd838
        0x0000dfe8:    bbe8        ..      CBNZ     r0,0xe066 ; am_hal_mspi_blocking_transfer + 414
        0x0000dfea:    6968        hi      LDR      r0,[r5,#0x14]
        0x0000dfec:    f8490024    I.$.    STR      r0,[r9,r4,LSL #2]
        0x0000dff0:    1c64        d.      ADDS     r4,r4,#1
        0x0000dff2:    42bc        .B      CMP      r4,r7
        0x0000dff4:    d3f1        ..      BCC      0xdfda ; am_hal_mspi_blocking_transfer + 274
        0x0000dff6:    f1b80f00    ....    CMP      r8,#0
        0x0000dffa:    d043        C.      BEQ      0xe084 ; am_hal_mspi_blocking_transfer + 444
        0x0000dffc:    2300        .#      MOVS     r3,#0
        0x0000dffe:    221f        ."      MOVS     r2,#0x1f
        0x0000e000:    492a        *I      LDR      r1,[pc,#168] ; [0xe0ac] = 0x5001401c
        0x0000e002:    9600        ..      STR      r6,[sp,#0]
        0x0000e004:    9801        ..      LDR      r0,[sp,#4]
        0x0000e006:    f7fffc17    ....    BL       am_hal_flash_delay_status_check ; 0xd838
        0x0000e00a:    bb60        `.      CBNZ     r0,0xe066 ; am_hal_mspi_blocking_transfer + 414
        0x0000e00c:    6968        hi      LDR      r0,[r5,#0x14]
        0x0000e00e:    9002        ..      STR      r0,[sp,#8]
        0x0000e010:    eb090084    ....    ADD      r0,r9,r4,LSL #2
        0x0000e014:    1e41        A.      SUBS     r1,r0,#1
        0x0000e016:    f10d0007    ....    ADD      r0,sp,#7
        0x0000e01a:    f0180f01    ....    TST      r8,#1
        0x0000e01e:    d003        ..      BEQ      0xe028 ; am_hal_mspi_blocking_transfer + 352
        0x0000e020:    f8102f01    .../    LDRB     r2,[r0,#1]!
        0x0000e024:    f8012f01    .../    STRB     r2,[r1,#1]!
        0x0000e028:    ea5f0258    _.X.    LSRS     r2,r8,#1
        0x0000e02c:    d02a        *.      BEQ      0xe084 ; am_hal_mspi_blocking_transfer + 444
        0x0000e02e:    7843        Cx      LDRB     r3,[r0,#1]
        0x0000e030:    704b        Kp      STRB     r3,[r1,#1]
        0x0000e032:    f8103f02    ...?    LDRB     r3,[r0,#2]!
        0x0000e036:    f8013f02    ...?    STRB     r3,[r1,#2]!
        0x0000e03a:    1e52        R.      SUBS     r2,r2,#1
        0x0000e03c:    d1f7        ..      BNE      0xe02e ; am_hal_mspi_blocking_transfer + 358
        0x0000e03e:    e021        !.      B        0xe084 ; am_hal_mspi_blocking_transfer + 444
        0x0000e040:    f8d18014    ....    LDR      r8,[r1,#0x14]
        0x0000e044:    680f        .h      LDR      r7,[r1,#0]
        0x0000e046:    f8d2900c    ....    LDR      r9,[r2,#0xc]
        0x0000e04a:    b963        c.      CBNZ     r3,0xe066 ; am_hal_mspi_blocking_transfer + 414
        0x0000e04c:    2400        .$      MOVS     r4,#0
        0x0000e04e:    2f00        ./      CMP      r7,#0
        0x0000e050:    d918        ..      BLS      0xe084 ; am_hal_mspi_blocking_transfer + 444
        0x0000e052:    bf00        ..      NOP      
        0x0000e054:    f8580024    X.$.    LDR      r0,[r8,r4,LSL #2]
        0x0000e058:    6128        (a      STR      r0,[r5,#0x10]
        0x0000e05a:    2310        .#      MOVS     r3,#0x10
        0x0000e05c:    221f        ."      MOVS     r2,#0x1f
        0x0000e05e:    4914        .I      LDR      r1,[pc,#80] ; [0xe0b0] = 0x50014018
        0x0000e060:    4648        HF      MOV      r0,r9
        0x0000e062:    9600        ..      STR      r6,[sp,#0]
        0x0000e064:    e000        ..      B        0xe068 ; am_hal_mspi_blocking_transfer + 416
        0x0000e066:    e006        ..      B        0xe076 ; am_hal_mspi_blocking_transfer + 430
        0x0000e068:    f7fffbe6    ....    BL       am_hal_flash_delay_status_check ; 0xd838
        0x0000e06c:    1c64        d.      ADDS     r4,r4,#1
        0x0000e06e:    ebb70f84    ....    CMP      r7,r4,LSL #2
        0x0000e072:    d8ef        ..      BHI      0xe054 ; am_hal_mspi_blocking_transfer + 396
        0x0000e074:    b130        0.      CBZ      r0,0xe084 ; am_hal_mspi_blocking_transfer + 444
        0x0000e076:    f8c5b208    ....    STR      r11,[r5,#0x208]
        0x0000e07a:    f8c5a200    ....    STR      r10,[r5,#0x200]
        0x0000e07e:    b007        ..      ADD      sp,sp,#0x1c
        0x0000e080:    e8bd8ff0    ....    POP      {r4-r11,pc}
        0x0000e084:    2001        .       MOVS     r0,#1
        0x0000e086:    2302        .#      MOVS     r3,#2
        0x0000e088:    9000        ..      STR      r0,[sp,#0]
        0x0000e08a:    461a        .F      MOV      r2,r3
        0x0000e08c:    4629        )F      MOV      r1,r5
        0x0000e08e:    9806        ..      LDR      r0,[sp,#0x18]
        0x0000e090:    f7fffbd2    ....    BL       am_hal_flash_delay_status_check ; 0xd838
        0x0000e094:    f8c5b208    ....    STR      r11,[r5,#0x208]
        0x0000e098:    f8c5a200    ....    STR      r10,[r5,#0x200]
        0x0000e09c:    b007        ..      ADD      sp,sp,#0x1c
        0x0000e09e:    e8bd8ff0    ....    POP      {r4-r11,pc}
    $d
        0x0000e0a2:    0000        ..      DCW    0
        0x0000e0a4:    00bebebe    ....    DCD    12500670
        0x0000e0a8:    50014000    .@.P    DCD    1342259200
        0x0000e0ac:    5001401c    .@.P    DCD    1342259228
        0x0000e0b0:    50014018    .@.P    DCD    1342259224
    $t
    i.am_hal_mspi_control
    am_hal_mspi_control
        0x0000e0b4:    e92d43f0    -..C    PUSH     {r4-r9,lr}
        0x0000e0b8:    b083        ..      SUB      sp,sp,#0xc
        0x0000e0ba:    0004        ..      MOVS     r4,r0
        0x0000e0bc:    f04f0500    O...    MOV      r5,#0
        0x0000e0c0:    bf1c        ..      ITT      NE
        0x0000e0c2:    6820         h      LDRNE    r0,[r4,#0]
        0x0000e0c4:    f0107f80    ....    TSTNE    r0,#0x1000000
        0x0000e0c8:    d004        ..      BEQ      0xe0d4 ; am_hal_mspi_control + 32
        0x0000e0ca:    4bfa        .K      LDR      r3,[pc,#1000] ; [0xe4b4] = 0xbebebe
        0x0000e0cc:    f020407f     ..@    BIC      r0,r0,#0xff000000
        0x0000e0d0:    4298        .B      CMP      r0,r3
        0x0000e0d2:    d003        ..      BEQ      0xe0dc ; am_hal_mspi_control + 40
        0x0000e0d4:    b003        ..      ADD      sp,sp,#0xc
        0x0000e0d6:    2002        .       MOVS     r0,#2
        0x0000e0d8:    e8bd83f0    ....    POP      {r4-r9,pc}
        0x0000e0dc:    2912        .)      CMP      r1,#0x12
        0x0000e0de:    f200832b    ..+.    BHI.W    0xe738 ; am_hal_mspi_control + 1668
        0x0000e0e2:    f0808329    ..).    BCS.W    0xe738 ; am_hal_mspi_control + 1668
        0x0000e0e6:    e8dff001    ....    TBB      [pc,r1]
    $d
        0x0000e0ea:    1609        ..      DCW    5641
        0x0000e0ec:    453c3624    $6<E    DCD    1161573924
        0x0000e0f0:    6f625953    SYbo    DCD    1868716371
        0x0000e0f4:    fcd2cc9f    ....    DCD    4241673375
        0x0000e0f8:    f8f9fafb    ....    DCD    4177132283
    $t
        0x0000e0fc:    2a00        .*      CMP      r2,#0
        0x0000e0fe:    f000831b    ....    BEQ.W    0xe738 ; am_hal_mspi_control + 1668
        0x0000e102:    48ed        .H      LDR      r0,[pc,#948] ; [0xe4b8] = 0x50014000
        0x0000e104:    7812        .x      LDRB     r2,[r2,#0]
        0x0000e106:    f8d01100    ....    LDR      r1,[r0,#0x100]
        0x0000e10a:    f3620100    b...    BFI      r1,r2,#0,#1
        0x0000e10e:    f8c01100    ....    STR      r1,[r0,#0x100]
        0x0000e112:    f000bb0d    ....    B.W      0xe730 ; am_hal_mspi_control + 1660
        0x0000e116:    2a00        .*      CMP      r2,#0
        0x0000e118:    f000830e    ....    BEQ.W    0xe738 ; am_hal_mspi_control + 1668
        0x0000e11c:    49e7        .I      LDR      r1,[pc,#924] ; [0xe4bc] = 0xe0e0e0
        0x0000e11e:    6810        .h      LDR      r0,[r2,#0]
        0x0000e120:    4208        .B      TST      r0,r1
        0x0000e122:    bf04        ..      ITT      EQ
        0x0000e124:    49e4        .I      LDREQ    r1,[pc,#912] ; [0xe4b8] = 0x50014000
        0x0000e126:    f8c102b4    ....    STREQ    r0,[r1,#0x2b4]
        0x0000e12a:    f0008301    ....    BEQ.W    0xe730 ; am_hal_mspi_control + 1660
        0x0000e12e:    f000bb03    ....    B.W      0xe738 ; am_hal_mspi_control + 1668
        0x0000e132:    2a00        .*      CMP      r2,#0
        0x0000e134:    f0008300    ....    BEQ.W    0xe738 ; am_hal_mspi_control + 1668
        0x0000e138:    6810        .h      LDR      r0,[r2,#0]
        0x0000e13a:    2806        .(      CMP      r0,#6
        0x0000e13c:    d302        ..      BCC      0xe144 ; am_hal_mspi_control + 144
        0x0000e13e:    2807        .(      CMP      r0,#7
        0x0000e140:    f04082fa    @...    BNE.W    0xe738 ; am_hal_mspi_control + 1668
        0x0000e144:    49dc        .I      LDR      r1,[pc,#880] ; [0xe4b8] = 0x50014000
        0x0000e146:    f8d12100    ...!    LDR      r2,[r1,#0x100]
        0x0000e14a:    f3601206    `...    BFI      r2,r0,#4,#3
        0x0000e14e:    f8c12100    ...!    STR      r2,[r1,#0x100]
        0x0000e152:    f000baed    ....    B.W      0xe730 ; am_hal_mspi_control + 1660
        0x0000e156:    48d8        .H      LDR      r0,[pc,#864] ; [0xe4b8] = 0x50014000
        0x0000e158:    f8d01120    .. .    LDR      r1,[r0,#0x120]
        0x0000e15c:    f0214100    !..A    BIC      r1,r1,#0x80000000
        0x0000e160:    e004        ..      B        0xe16c ; am_hal_mspi_control + 184
        0x0000e162:    48d5        .H      LDR      r0,[pc,#852] ; [0xe4b8] = 0x50014000
        0x0000e164:    f8d01120    .. .    LDR      r1,[r0,#0x120]
        0x0000e168:    f0414100    A..A    ORR      r1,r1,#0x80000000
        0x0000e16c:    f8c01120    .. .    STR      r1,[r0,#0x120]
        0x0000e170:    f000bade    ....    B.W      0xe730 ; am_hal_mspi_control + 1660
        0x0000e174:    2a00        .*      CMP      r2,#0
        0x0000e176:    f00082df    ....    BEQ.W    0xe738 ; am_hal_mspi_control + 1668
        0x0000e17a:    48cf        .H      LDR      r0,[pc,#828] ; [0xe4b8] = 0x50014000
        0x0000e17c:    7812        .x      LDRB     r2,[r2,#0]
        0x0000e17e:    f8d0110c    ....    LDR      r1,[r0,#0x10c]
        0x0000e182:    f3620183    b...    BFI      r1,r2,#2,#2
        0x0000e186:    bf00        ..      NOP      
        0x0000e188:    f8c0110c    ....    STR      r1,[r0,#0x10c]
        0x0000e18c:    f000bad0    ....    B.W      0xe730 ; am_hal_mspi_control + 1660
        0x0000e190:    48c9        .H      LDR      r0,[pc,#804] ; [0xe4b8] = 0x50014000
        0x0000e192:    f8d0110c    ....    LDR      r1,[r0,#0x10c]
        0x0000e196:    f0210101    !...    BIC      r1,r1,#1
        0x0000e19a:    e7f5        ..      B        0xe188 ; am_hal_mspi_control + 212
        0x0000e19c:    48c6        .H      LDR      r0,[pc,#792] ; [0xe4b8] = 0x50014000
        0x0000e19e:    f8d0110c    ....    LDR      r1,[r0,#0x10c]
        0x0000e1a2:    f0410101    A...    ORR      r1,r1,#1
        0x0000e1a6:    f8c0110c    ....    STR      r1,[r0,#0x10c]
        0x0000e1aa:    f000bac1    ....    B.W      0xe730 ; am_hal_mspi_control + 1660
        0x0000e1ae:    2a00        .*      CMP      r2,#0
        0x0000e1b0:    f00082c2    ....    BEQ.W    0xe738 ; am_hal_mspi_control + 1668
        0x0000e1b4:    7811        .x      LDRB     r1,[r2,#0]
        0x0000e1b6:    4620         F      MOV      r0,r4
        0x0000e1b8:    f002f9a2    ....    BL       mspi_device_configure ; 0x10500
        0x0000e1bc:    0005        ..      MOVS     r5,r0
        0x0000e1be:    f00082b7    ....    BEQ.W    0xe730 ; am_hal_mspi_control + 1660
        0x0000e1c2:    b003        ..      ADD      sp,sp,#0xc
        0x0000e1c4:    e8bd83f0    ....    POP      {r4-r9,pc}
        0x0000e1c8:    49bb        .I      LDR      r1,[pc,#748] ; [0xe4b8] = 0x50014000
        0x0000e1ca:    7810        .x      LDRB     r0,[r2,#0]
        0x0000e1cc:    f8d12100    ...!    LDR      r2,[r1,#0x100]
        0x0000e1d0:    f360220d    `.."    BFI      r2,r0,#8,#6
        0x0000e1d4:    f8c12100    ...!    STR      r2,[r1,#0x100]
        0x0000e1d8:    f8d12100    ...!    LDR      r2,[r1,#0x100]
        0x0000e1dc:    2801        .(      CMP      r0,#1
        0x0000e1de:    d012        ..      BEQ      0xe206 ; am_hal_mspi_control + 338
        0x0000e1e0:    f0220208    "...    BIC      r2,r2,#8
        0x0000e1e4:    f8c12100    ...!    STR      r2,[r1,#0x100]
        0x0000e1e8:    f8d12100    ...!    LDR      r2,[r1,#0x100]
        0x0000e1ec:    f0220204    "...    BIC      r2,r2,#4
        0x0000e1f0:    f8c12100    ...!    STR      r2,[r1,#0x100]
        0x0000e1f4:    f8d12100    ...!    LDR      r2,[r1,#0x100]
        0x0000e1f8:    f0420202    B...    ORR      r2,r2,#2
        0x0000e1fc:    f8c12100    ...!    STR      r2,[r1,#0x100]
        0x0000e200:    7260        `r      STRB     r0,[r4,#9]
        0x0000e202:    f000ba95    ....    B.W      0xe730 ; am_hal_mspi_control + 1660
        0x0000e206:    f0420208    B...    ORR      r2,r2,#8
        0x0000e20a:    f8c12100    ...!    STR      r2,[r1,#0x100]
        0x0000e20e:    f8d12100    ...!    LDR      r2,[r1,#0x100]
        0x0000e212:    f0220204    "...    BIC      r2,r2,#4
        0x0000e216:    f8c12100    ...!    STR      r2,[r1,#0x100]
        0x0000e21a:    f8d12100    ...!    LDR      r2,[r1,#0x100]
        0x0000e21e:    f0420202    B...    ORR      r2,r2,#2
        0x0000e222:    f8c12100    ...!    STR      r2,[r1,#0x100]
        0x0000e226:    e7eb        ..      B        0xe200 ; am_hal_mspi_control + 332
        0x0000e228:    4ca3        .L      LDR      r4,[pc,#652] ; [0xe4b8] = 0x50014000
        0x0000e22a:    4ea5        .N      LDR      r6,[pc,#660] ; [0xe4c0] = 0x186a0
        0x0000e22c:    f44f0000    O...    MOV      r0,#0x800000
        0x0000e230:    4635        5F      MOV      r5,r6
        0x0000e232:    f8c402b4    ....    STR      r0,[r4,#0x2b4]
        0x0000e236:    f8d402a0    ....    LDR      r0,[r4,#0x2a0]
        0x0000e23a:    f0100f01    ....    TST      r0,#1
        0x0000e23e:    d013        ..      BEQ      0xe268 ; am_hal_mspi_control + 436
        0x0000e240:    f8d412ac    ....    LDR      r1,[r4,#0x2ac]
        0x0000e244:    f0110f08    ....    TST      r1,#8
        0x0000e248:    bf1c        ..      ITT      NE
        0x0000e24a:    f8d402b8    ....    LDRNE    r0,[r4,#0x2b8]
        0x0000e24e:    f0100f80    ....    TSTNE    r0,#0x80
        0x0000e252:    d109        ..      BNE      0xe268 ; am_hal_mspi_control + 436
        0x0000e254:    1e6d        m.      SUBS     r5,r5,#1
        0x0000e256:    d312        ..      BCC      0xe27e ; am_hal_mspi_control + 458
        0x0000e258:    2010        .       MOVS     r0,#0x10
        0x0000e25a:    f7fffadb    ....    BL       am_hal_flash_delay ; 0xd814
        0x0000e25e:    f8d402a0    ....    LDR      r0,[r4,#0x2a0]
        0x0000e262:    f0100f01    ....    TST      r0,#1
        0x0000e266:    d1eb        ..      BNE      0xe240 ; am_hal_mspi_control + 396
        0x0000e268:    2001        .       MOVS     r0,#1
        0x0000e26a:    4602        .F      MOV      r2,r0
        0x0000e26c:    9000        ..      STR      r0,[sp,#0]
        0x0000e26e:    2300        .#      MOVS     r3,#0
        0x0000e270:    4994        .I      LDR      r1,[pc,#592] ; [0xe4c4] = 0x50014254
        0x0000e272:    4630        0F      MOV      r0,r6
        0x0000e274:    f7fffae0    ....    BL       am_hal_flash_delay_status_check ; 0xd838
        0x0000e278:    4605        .F      MOV      r5,r0
        0x0000e27a:    f000ba59    ..Y.    B.W      0xe730 ; am_hal_mspi_control + 1660
        0x0000e27e:    2004        .       MOVS     r0,#4
        0x0000e280:    e7fa        ..      B        0xe278 ; am_hal_mspi_control + 452
        0x0000e282:    498d        .I      LDR      r1,[pc,#564] ; [0xe4b8] = 0x50014000
        0x0000e284:    2080        .       MOVS     r0,#0x80
        0x0000e286:    f8c102b4    ....    STR      r0,[r1,#0x2b4]
        0x0000e28a:    f000ba51    ..Q.    B.W      0xe730 ; am_hal_mspi_control + 1660
        0x0000e28e:    2a00        .*      CMP      r2,#0
        0x0000e290:    f0008252    ..R.    BEQ.W    0xe738 ; am_hal_mspi_control + 1668
        0x0000e294:    6960        `i      LDR      r0,[r4,#0x14]
        0x0000e296:    2800        .(      CMP      r0,#0
        0x0000e298:    f0008183    ....    BEQ.W    0xe5a2 ; am_hal_mspi_control + 1262
        0x0000e29c:    7810        .x      LDRB     r0,[r2,#0]
        0x0000e29e:    1c07        ..      ADDS     r7,r0,#0
        0x0000e2a0:    bf18        ..      IT       NE
        0x0000e2a2:    2701        .'      MOVNE    r7,#1
        0x0000e2a4:    f8940828    ..(.    LDRB     r0,[r4,#0x828]
        0x0000e2a8:    42b8        .B      CMP      r0,r7
        0x0000e2aa:    bf02        ..      ITTT     EQ
        0x0000e2ac:    2000        .       MOVEQ    r0,#0
        0x0000e2ae:    b003        ..      ADDEQ    sp,sp,#0xc
        0x0000e2b0:    e8bd83f0    ....    POPEQ    {r4-r9,pc}
        0x0000e2b4:    b3a0        ..      CBZ      r0,0xe320 ; am_hal_mspi_control + 620
        0x0000e2b6:    2802        .(      CMP      r0,#2
        0x0000e2b8:    d13a        :.      BNE      0xe330 ; am_hal_mspi_control + 636
        0x0000e2ba:    4d7f        .M      LDR      r5,[pc,#508] ; [0xe4b8] = 0x50014000
        0x0000e2bc:    f8df8200    ....    LDR      r8,[pc,#512] ; [0xe4c0] = 0x186a0
        0x0000e2c0:    f44f0000    O...    MOV      r0,#0x800000
        0x0000e2c4:    4646        FF      MOV      r6,r8
        0x0000e2c6:    f8c502b4    ....    STR      r0,[r5,#0x2b4]
        0x0000e2ca:    f8d502a0    ....    LDR      r0,[r5,#0x2a0]
        0x0000e2ce:    f0100f01    ....    TST      r0,#1
        0x0000e2d2:    d019        ..      BEQ      0xe308 ; am_hal_mspi_control + 596
        0x0000e2d4:    f8d502ac    ....    LDR      r0,[r5,#0x2ac]
        0x0000e2d8:    e004        ..      B        0xe2e4 ; am_hal_mspi_control + 560
        0x0000e2da:    e14e        N.      B        0xe57a ; am_hal_mspi_control + 1222
        0x0000e2dc:    e139        9.      B        0xe552 ; am_hal_mspi_control + 1182
        0x0000e2de:    e12c        ,.      B        0xe53a ; am_hal_mspi_control + 1158
        0x0000e2e0:    e113        ..      B        0xe50a ; am_hal_mspi_control + 1110
        0x0000e2e2:    e037        7.      B        0xe354 ; am_hal_mspi_control + 672
        0x0000e2e4:    f0100f08    ....    TST      r0,#8
        0x0000e2e8:    bf1c        ..      ITT      NE
        0x0000e2ea:    f8d502b8    ....    LDRNE    r0,[r5,#0x2b8]
        0x0000e2ee:    f0100f80    ....    TSTNE    r0,#0x80
        0x0000e2f2:    d109        ..      BNE      0xe308 ; am_hal_mspi_control + 596
        0x0000e2f4:    1e76        v.      SUBS     r6,r6,#1
        0x0000e2f6:    d314        ..      BCC      0xe322 ; am_hal_mspi_control + 622
        0x0000e2f8:    2010        .       MOVS     r0,#0x10
        0x0000e2fa:    f7fffa8b    ....    BL       am_hal_flash_delay ; 0xd814
        0x0000e2fe:    f8d502a0    ....    LDR      r0,[r5,#0x2a0]
        0x0000e302:    f0100f01    ....    TST      r0,#1
        0x0000e306:    d1e5        ..      BNE      0xe2d4 ; am_hal_mspi_control + 544
        0x0000e308:    2001        .       MOVS     r0,#1
        0x0000e30a:    4602        .F      MOV      r2,r0
        0x0000e30c:    9000        ..      STR      r0,[sp,#0]
        0x0000e30e:    2300        .#      MOVS     r3,#0
        0x0000e310:    496c        lI      LDR      r1,[pc,#432] ; [0xe4c4] = 0x50014254
        0x0000e312:    4640        @F      MOV      r0,r8
        0x0000e314:    f7fffa90    ....    BL       am_hal_flash_delay_status_check ; 0xd838
        0x0000e318:    0005        ..      MOVS     r5,r0
        0x0000e31a:    f0408209    @...    BNE.W    0xe730 ; am_hal_mspi_control + 1660
        0x0000e31e:    e007        ..      B        0xe330 ; am_hal_mspi_control + 636
        0x0000e320:    e002        ..      B        0xe328 ; am_hal_mspi_control + 628
        0x0000e322:    2504        .%      MOVS     r5,#4
        0x0000e324:    f000ba04    ....    B.W      0xe730 ; am_hal_mspi_control + 1660
        0x0000e328:    69e0        .i      LDR      r0,[r4,#0x1c]
        0x0000e32a:    2800        .(      CMP      r0,#0
        0x0000e32c:    f0408139    @.9.    BNE.W    0xe5a2 ; am_hal_mspi_control + 1262
        0x0000e330:    f8d40824    ..$.    LDR      r0,[r4,#0x824]
        0x0000e334:    f7fff9f8    ....    BL       am_hal_cmdq_reset ; 0xd728
        0x0000e338:    2000        .       MOVS     r0,#0
        0x0000e33a:    61a0        .a      STR      r0,[r4,#0x18]
        0x0000e33c:    f8c4082c    ..,.    STR      r0,[r4,#0x82c]
        0x0000e340:    61e0        .a      STR      r0,[r4,#0x1c]
        0x0000e342:    f8847828    ..(x    STRB     r7,[r4,#0x828]
        0x0000e346:    2101        .!      MOVS     r1,#1
        0x0000e348:    f8841829    ..).    STRB     r1,[r4,#0x829]
        0x0000e34c:    f8c40858    ..X.    STR      r0,[r4,#0x858]
        0x0000e350:    f000b9ee    ....    B.W      0xe730 ; am_hal_mspi_control + 1660
        0x0000e354:    f04f0700    O...    MOV      r7,#0
        0x0000e358:    0015        ..      MOVS     r5,r2
        0x0000e35a:    463e        >F      MOV      r6,r7
        0x0000e35c:    f00081ec    ....    BEQ.W    0xe738 ; am_hal_mspi_control + 1668
        0x0000e360:    7928        (y      LDRB     r0,[r5,#4]
        0x0000e362:    f0100fe0    ....    TST      r0,#0xe0
        0x0000e366:    f04081e7    @...    BNE.W    0xe738 ; am_hal_mspi_control + 1668
        0x0000e36a:    4954        TI      LDR      r1,[pc,#336] ; [0xe4bc] = 0xe0e0e0
        0x0000e36c:    68a8        .h      LDR      r0,[r5,#8]
        0x0000e36e:    4208        .B      TST      r0,r1
        0x0000e370:    f04081e2    @...    BNE.W    0xe738 ; am_hal_mspi_control + 1668
        0x0000e374:    f8940828    ..(.    LDRB     r0,[r4,#0x828]
        0x0000e378:    2801        .(      CMP      r0,#1
        0x0000e37a:    d17d        }.      BNE      0xe478 ; am_hal_mspi_control + 964
        0x0000e37c:    f8d40834    ..4.    LDR      r0,[r4,#0x834]
        0x0000e380:    b130        0.      CBZ      r0,0xe390 ; am_hal_mspi_control + 732
        0x0000e382:    2100        .!      MOVS     r1,#0
        0x0000e384:    f8c41834    ..4.    STR      r1,[r4,#0x834]
        0x0000e388:    494b        KI      LDR      r1,[pc,#300] ; [0xe4b8] = 0x50014000
        0x0000e38a:    2020                MOVS     r0,#0x20
        0x0000e38c:    f8c102b4    ....    STR      r0,[r1,#0x2b4]
        0x0000e390:    7828        (x      LDRB     r0,[r5,#0]
        0x0000e392:    b3a0        ..      CBZ      r0,0xe3fe ; am_hal_mspi_control + 842
        0x0000e394:    f8940829    ..).    LDRB     r0,[r4,#0x829]
        0x0000e398:    bb88        ..      CBNZ     r0,0xe3fe ; am_hal_mspi_control + 842
        0x0000e39a:    ab01        ..      ADD      r3,sp,#4
        0x0000e39c:    466a        jF      MOV      r2,sp
        0x0000e39e:    2101        .!      MOVS     r1,#1
        0x0000e3a0:    f8d40824    ..$.    LDR      r0,[r4,#0x824]
        0x0000e3a4:    f7fff832    ..2.    BL       am_hal_cmdq_alloc_block ; 0xd40c
        0x0000e3a8:    2800        .(      CMP      r0,#0
        0x0000e3aa:    bf1c        ..      ITT      NE
        0x0000e3ac:    b003        ..      ADDNE    sp,sp,#0xc
        0x0000e3ae:    e8bd83f0    ....    POPNE    {r4-r9,pc}
        0x0000e3b2:    4945        EI      LDR      r1,[pc,#276] ; [0xe4c8] = 0x10881
        0x0000e3b4:    9801        ..      LDR      r0,[sp,#4]
        0x0000e3b6:    b2c2        ..      UXTB     r2,r0
        0x0000e3b8:    eb040082    ....    ADD      r0,r4,r2,LSL #2
        0x0000e3bc:    6241        Ab      STR      r1,[r0,#0x24]
        0x0000e3be:    9901        ..      LDR      r1,[sp,#4]
        0x0000e3c0:    b2c9        ..      UXTB     r1,r1
        0x0000e3c2:    eb040181    ....    ADD      r1,r4,r1,LSL #2
        0x0000e3c6:    f8c14424    ..$D    STR      r4,[r1,#0x424]
        0x0000e3ca:    9800        ..      LDR      r0,[sp,#0]
        0x0000e3cc:    493f        ?I      LDR      r1,[pc,#252] ; [0xe4cc] = 0x500142b4
        0x0000e3ce:    6001        .`      STR      r1,[r0,#0]
        0x0000e3d0:    2100        .!      MOVS     r1,#0
        0x0000e3d2:    6041        A`      STR      r1,[r0,#4]
        0x0000e3d4:    f7fdff58    ..X.    BL       am_hal_interrupt_master_disable ; 0xc288
        0x0000e3d8:    4607        .F      MOV      r7,r0
        0x0000e3da:    2101        .!      MOVS     r1,#1
        0x0000e3dc:    f8d40824    ..$.    LDR      r0,[r4,#0x824]
        0x0000e3e0:    f7fff932    ..2.    BL       am_hal_cmdq_post_block ; 0xd648
        0x0000e3e4:    0006        ..      MOVS     r6,r0
        0x0000e3e6:    d00b        ..      BEQ      0xe400 ; am_hal_mspi_control + 844
        0x0000e3e8:    4638        8F      MOV      r0,r7
        0x0000e3ea:    f7fdff51    ..Q.    BL       am_hal_interrupt_master_set ; 0xc290
        0x0000e3ee:    f8d40824    ..$.    LDR      r0,[r4,#0x824]
        0x0000e3f2:    f7fff97d    ..}.    BL       am_hal_cmdq_release_block ; 0xd6f0
        0x0000e3f6:    b003        ..      ADD      sp,sp,#0xc
        0x0000e3f8:    4630        0F      MOV      r0,r6
        0x0000e3fa:    e8bd83f0    ....    POP      {r4-r9,pc}
        0x0000e3fe:    e011        ..      B        0xe424 ; am_hal_mspi_control + 880
        0x0000e400:    69e6        .i      LDR      r6,[r4,#0x1c]
        0x0000e402:    1c70        p.      ADDS     r0,r6,#1
        0x0000e404:    61e0        .a      STR      r0,[r4,#0x1c]
        0x0000e406:    4638        8F      MOV      r0,r7
        0x0000e408:    f7fdff42    ..B.    BL       am_hal_interrupt_master_set ; 0xc290
        0x0000e40c:    b946        F.      CBNZ     r6,0xe420 ; am_hal_mspi_control + 876
        0x0000e40e:    f8d40824    ..$.    LDR      r0,[r4,#0x824]
        0x0000e412:    f7fff881    ....    BL       am_hal_cmdq_enable ; 0xd518
        0x0000e416:    2800        .(      CMP      r0,#0
        0x0000e418:    bf1c        ..      ITT      NE
        0x0000e41a:    b003        ..      ADDNE    sp,sp,#0xc
        0x0000e41c:    e8bd83f0    ....    POPNE    {r4-r9,pc}
        0x0000e420:    2740        @'      MOVS     r7,#0x40
        0x0000e422:    043e        >.      LSLS     r6,r7,#16
        0x0000e424:    ab01        ..      ADD      r3,sp,#4
        0x0000e426:    466a        jF      MOV      r2,sp
        0x0000e428:    2103        .!      MOVS     r1,#3
        0x0000e42a:    f8d40824    ..$.    LDR      r0,[r4,#0x824]
        0x0000e42e:    f7feffed    ....    BL       am_hal_cmdq_alloc_block ; 0xd40c
        0x0000e432:    2800        .(      CMP      r0,#0
        0x0000e434:    bf1c        ..      ITT      NE
        0x0000e436:    b003        ..      ADDNE    sp,sp,#0xc
        0x0000e438:    e8bd83f0    ....    POPNE    {r4-r9,pc}
        0x0000e43c:    4924        $I      LDR      r1,[pc,#144] ; [0xe4d0] = 0x500142b8
        0x0000e43e:    9800        ..      LDR      r0,[sp,#0]
        0x0000e440:    6081        .`      STR      r1,[r0,#8]
        0x0000e442:    6001        .`      STR      r1,[r0,#0]
        0x0000e444:    1f09        ..      SUBS     r1,r1,#4
        0x0000e446:    6101        .a      STR      r1,[r0,#0x10]
        0x0000e448:    6869        ih      LDR      r1,[r5,#4]
        0x0000e44a:    f8d42834    ..4(    LDR      r2,[r4,#0x834]
        0x0000e44e:    4339        9C      ORRS     r1,r1,r7
        0x0000e450:    2a01        .*      CMP      r2,#1
        0x0000e452:    d01b        ..      BEQ      0xe48c ; am_hal_mspi_control + 984
        0x0000e454:    2a02        .*      CMP      r2,#2
        0x0000e456:    bf0c        ..      ITE      EQ
        0x0000e458:    f44f4180    O..A    MOVEQ    r1,#0x4000
        0x0000e45c:    f4414181    A..A    ORRNE    r1,r1,#0x4080
        0x0000e460:    6041        A`      STR      r1,[r0,#4]
        0x0000e462:    f44f4180    O..A    MOV      r1,#0x4000
        0x0000e466:    60c1        .`      STR      r1,[r0,#0xc]
        0x0000e468:    68a9        .h      LDR      r1,[r5,#8]
        0x0000e46a:    4331        1C      ORRS     r1,r1,r6
        0x0000e46c:    6141        Aa      STR      r1,[r0,#0x14]
        0x0000e46e:    f7fdff0b    ....    BL       am_hal_interrupt_master_disable ; 0xc288
        0x0000e472:    4680        .F      MOV      r8,r0
        0x0000e474:    7828        (x      LDRB     r0,[r5,#0]
        0x0000e476:    e000        ..      B        0xe47a ; am_hal_mspi_control + 966
        0x0000e478:    e07e        ~.      B        0xe578 ; am_hal_mspi_control + 1220
        0x0000e47a:    2800        .(      CMP      r0,#0
        0x0000e47c:    f8d40824    ..$.    LDR      r0,[r4,#0x824]
        0x0000e480:    f04f0100    O...    MOV      r1,#0
        0x0000e484:    d009        ..      BEQ      0xe49a ; am_hal_mspi_control + 998
        0x0000e486:    f7fff905    ....    BL       am_hal_cmdq_post_loop_block ; 0xd694
        0x0000e48a:    e008        ..      B        0xe49e ; am_hal_mspi_control + 1002
        0x0000e48c:    f24402a0    D...    MOV      r2,#0x40a0
        0x0000e490:    4311        .C      ORRS     r1,r1,r2
        0x0000e492:    2302        .#      MOVS     r3,#2
        0x0000e494:    f8c43834    ..48    STR      r3,[r4,#0x834]
        0x0000e498:    e7e2        ..      B        0xe460 ; am_hal_mspi_control + 940
        0x0000e49a:    f7fff8d5    ....    BL       am_hal_cmdq_post_block ; 0xd648
        0x0000e49e:    0006        ..      MOVS     r6,r0
        0x0000e4a0:    d018        ..      BEQ      0xe4d4 ; am_hal_mspi_control + 1056
        0x0000e4a2:    4640        @F      MOV      r0,r8
        0x0000e4a4:    f7fdfef4    ....    BL       am_hal_interrupt_master_set ; 0xc290
        0x0000e4a8:    f8d40824    ..$.    LDR      r0,[r4,#0x824]
        0x0000e4ac:    f7fff920    .. .    BL       am_hal_cmdq_release_block ; 0xd6f0
        0x0000e4b0:    e027        '.      B        0xe502 ; am_hal_mspi_control + 1102
    $d
        0x0000e4b2:    0000        ..      DCW    0
        0x0000e4b4:    00bebebe    ....    DCD    12500670
        0x0000e4b8:    50014000    .@.P    DCD    1342259200
        0x0000e4bc:    00e0e0e0    ....    DCD    14737632
        0x0000e4c0:    000186a0    ....    DCD    100000
        0x0000e4c4:    50014254    TB.P    DCD    1342259796
        0x0000e4c8:    00010881    ....    DCD    67713
        0x0000e4cc:    500142b4    .B.P    DCD    1342259892
        0x0000e4d0:    500142b8    .B.P    DCD    1342259896
    $t
        0x0000e4d4:    69e7        .i      LDR      r7,[r4,#0x1c]
        0x0000e4d6:    1c79        y.      ADDS     r1,r7,#1
        0x0000e4d8:    61e1        .a      STR      r1,[r4,#0x1c]
        0x0000e4da:    7828        (x      LDRB     r0,[r5,#0]
        0x0000e4dc:    2800        .(      CMP      r0,#0
        0x0000e4de:    bf14        ..      ITE      NE
        0x0000e4e0:    2102        .!      MOVNE    r1,#2
        0x0000e4e2:    2100        .!      MOVEQ    r1,#0
        0x0000e4e4:    f8841828    ..(.    STRB     r1,[r4,#0x828]
        0x0000e4e8:    4640        @F      MOV      r0,r8
        0x0000e4ea:    f7fdfed1    ....    BL       am_hal_interrupt_master_set ; 0xc290
        0x0000e4ee:    b947        G.      CBNZ     r7,0xe502 ; am_hal_mspi_control + 1102
        0x0000e4f0:    f8d40824    ..$.    LDR      r0,[r4,#0x824]
        0x0000e4f4:    f7fff810    ....    BL       am_hal_cmdq_enable ; 0xd518
        0x0000e4f8:    0006        ..      MOVS     r6,r0
        0x0000e4fa:    bf1c        ..      ITT      NE
        0x0000e4fc:    b003        ..      ADDNE    sp,sp,#0xc
        0x0000e4fe:    e8bd83f0    ....    POPNE    {r4-r9,pc}
        0x0000e502:    4630        0F      MOV      r0,r6
        0x0000e504:    b003        ..      ADD      sp,sp,#0xc
        0x0000e506:    e8bd83f0    ....    POP      {r4-r9,pc}
        0x0000e50a:    2a00        .*      CMP      r2,#0
        0x0000e50c:    d07c        |.      BEQ      0xe608 ; am_hal_mspi_control + 1364
        0x0000e50e:    f8d40850    ..P.    LDR      r0,[r4,#0x850]
        0x0000e512:    bb88        ..      CBNZ     r0,0xe578 ; am_hal_mspi_control + 1220
        0x0000e514:    2000        .       MOVS     r0,#0
        0x0000e516:    f8c4084c    ..L.    STR      r0,[r4,#0x84c]
        0x0000e51a:    f8c4083c    ..<.    STR      r0,[r4,#0x83c]
        0x0000e51e:    2001        .       MOVS     r0,#1
        0x0000e520:    f8c40848    ..H.    STR      r0,[r4,#0x848]
        0x0000e524:    6810        .h      LDR      r0,[r2,#0]
        0x0000e526:    f8c40850    ..P.    STR      r0,[r4,#0x850]
        0x0000e52a:    4985        .I      LDR      r1,[pc,#532] ; [0xe740] = 0xaaaaaaab
        0x0000e52c:    6850        Ph      LDR      r0,[r2,#4]
        0x0000e52e:    fba11000    ....    UMULL    r1,r0,r1,r0
        0x0000e532:    0900        ..      LSRS     r0,r0,#4
        0x0000e534:    f8c40844    ..D.    STR      r0,[r4,#0x844]
        0x0000e538:    e0fa        ..      B        0xe730 ; am_hal_mspi_control + 1660
        0x0000e53a:    4982        .I      LDR      r1,[pc,#520] ; [0xe744] = 0x50014000
        0x0000e53c:    f44f1000    O...    MOV      r0,#0x200000
        0x0000e540:    f8c102b4    ....    STR      r0,[r1,#0x2b4]
        0x0000e544:    2001        .       MOVS     r0,#1
        0x0000e546:    f8c40834    ..4.    STR      r0,[r4,#0x834]
        0x0000e54a:    2000        .       MOVS     r0,#0
        0x0000e54c:    f8c40840    ..@.    STR      r0,[r4,#0x840]
        0x0000e550:    e0ee        ..      B        0xe730 ; am_hal_mspi_control + 1660
        0x0000e552:    497c        |I      LDR      r1,[pc,#496] ; [0xe744] = 0x50014000
        0x0000e554:    2020                MOVS     r0,#0x20
        0x0000e556:    f8c102b4    ....    STR      r0,[r1,#0x2b4]
        0x0000e55a:    2600        .&      MOVS     r6,#0
        0x0000e55c:    f8c46834    ..4h    STR      r6,[r4,#0x834]
        0x0000e560:    f8d41840    ..@.    LDR      r1,[r4,#0x840]
        0x0000e564:    2900        .)      CMP      r1,#0
        0x0000e566:    d07c        |.      BEQ      0xe662 ; am_hal_mspi_control + 1454
        0x0000e568:    4620         F      MOV      r0,r4
        0x0000e56a:    f002f9f7    ....    BL       sched_hiprio ; 0x1095c
        0x0000e56e:    0005        ..      MOVS     r5,r0
        0x0000e570:    bf08        ..      IT       EQ
        0x0000e572:    f8c46840    ..@h    STREQ    r6,[r4,#0x840]
        0x0000e576:    e0db        ..      B        0xe730 ; am_hal_mspi_control + 1660
        0x0000e578:    e013        ..      B        0xe5a2 ; am_hal_mspi_control + 1262
        0x0000e57a:    0016        ..      MOVS     r6,r2
        0x0000e57c:    d044        D.      BEQ      0xe608 ; am_hal_mspi_control + 1364
        0x0000e57e:    f8d40824    ..$.    LDR      r0,[r4,#0x824]
        0x0000e582:    b170        p.      CBZ      r0,0xe5a2 ; am_hal_mspi_control + 1262
        0x0000e584:    69e1        .i      LDR      r1,[r4,#0x1c]
        0x0000e586:    f5b17f80    ....    CMP      r1,#0x100
        0x0000e58a:    d006        ..      BEQ      0xe59a ; am_hal_mspi_control + 1254
        0x0000e58c:    68f1        .h      LDR      r1,[r6,#0xc]
        0x0000e58e:    ab01        ..      ADD      r3,sp,#4
        0x0000e590:    466a        jF      MOV      r2,sp
        0x0000e592:    1cc9        ..      ADDS     r1,r1,#3
        0x0000e594:    f7feff3a    ..:.    BL       am_hal_cmdq_alloc_block ; 0xd40c
        0x0000e598:    b138        8.      CBZ      r0,0xe5aa ; am_hal_mspi_control + 1270
        0x0000e59a:    b003        ..      ADD      sp,sp,#0xc
        0x0000e59c:    2005        .       MOVS     r0,#5
        0x0000e59e:    e8bd83f0    ....    POP      {r4-r9,pc}
        0x0000e5a2:    b003        ..      ADD      sp,sp,#0xc
        0x0000e5a4:    2007        .       MOVS     r0,#7
        0x0000e5a6:    e8bd83f0    ....    POP      {r4-r9,pc}
        0x0000e5aa:    9900        ..      LDR      r1,[sp,#0]
        0x0000e5ac:    4f66        fO      LDR      r7,[pc,#408] ; [0xe748] = 0x500142b8
        0x0000e5ae:    600f        .`      STR      r7,[r1,#0]
        0x0000e5b0:    f8d42834    ..4(    LDR      r2,[r4,#0x834]
        0x0000e5b4:    6830        0h      LDR      r0,[r6,#0]
        0x0000e5b6:    2a01        .*      CMP      r2,#1
        0x0000e5b8:    d05a        Z.      BEQ      0xe670 ; am_hal_mspi_control + 1468
        0x0000e5ba:    2a02        .*      CMP      r2,#2
        0x0000e5bc:    bf0c        ..      ITE      EQ
        0x0000e5be:    f44f4080    O..@    MOVEQ    r0,#0x4000
        0x0000e5c2:    f4404081    @..@    ORRNE    r0,r0,#0x4080
        0x0000e5c6:    6048        H`      STR      r0,[r1,#4]
        0x0000e5c8:    f1010008    ....    ADD      r0,r1,#8
        0x0000e5cc:    9000        ..      STR      r0,[sp,#0]
        0x0000e5ce:    f8d6c00c    ....    LDR      r12,[r6,#0xc]
        0x0000e5d2:    f1bc0f00    ....    CMP      r12,#0
        0x0000e5d6:    d02e        ..      BEQ      0xe636 ; am_hal_mspi_control + 1410
        0x0000e5d8:    68b1        .h      LDR      r1,[r6,#8]
        0x0000e5da:    f1a00208    ....    SUB      r2,r0,#8
        0x0000e5de:    f1a10308    ....    SUB      r3,r1,#8
        0x0000e5e2:    1f00        ..      SUBS     r0,r0,#4
        0x0000e5e4:    1f09        ..      SUBS     r1,r1,#4
        0x0000e5e6:    f01c0f01    ....    TST      r12,#1
        0x0000e5ea:    d007        ..      BEQ      0xe5fc ; am_hal_mspi_control + 1352
        0x0000e5ec:    f853cf08    S...    LDR      r12,[r3,#8]!
        0x0000e5f0:    f842cf08    B...    STR      r12,[r2,#8]!
        0x0000e5f4:    f851cf08    Q...    LDR      r12,[r1,#8]!
        0x0000e5f8:    f840cf08    @...    STR      r12,[r0,#8]!
        0x0000e5fc:    f8d6c00c    ....    LDR      r12,[r6,#0xc]
        0x0000e600:    ea5f0c5c    _.\.    LSRS     r12,r12,#1
        0x0000e604:    d012        ..      BEQ      0xe62c ; am_hal_mspi_control + 1400
        0x0000e606:    e000        ..      B        0xe60a ; am_hal_mspi_control + 1366
        0x0000e608:    e096        ..      B        0xe738 ; am_hal_mspi_control + 1668
        0x0000e60a:    688d        .h      LDR      r5,[r1,#8]
        0x0000e60c:    f8d38008    ....    LDR      r8,[r3,#8]
        0x0000e610:    f8c28008    ....    STR      r8,[r2,#8]
        0x0000e614:    6085        .`      STR      r5,[r0,#8]
        0x0000e616:    f8515f10    Q.._    LDR      r5,[r1,#0x10]!
        0x0000e61a:    f8538f10    S...    LDR      r8,[r3,#0x10]!
        0x0000e61e:    f8428f10    B...    STR      r8,[r2,#0x10]!
        0x0000e622:    f8405f10    @.._    STR      r5,[r0,#0x10]!
        0x0000e626:    f1bc0c01    ....    SUBS     r12,r12,#1
        0x0000e62a:    d1ec        ..      BNE      0xe606 ; am_hal_mspi_control + 1362
        0x0000e62c:    68f0        .h      LDR      r0,[r6,#0xc]
        0x0000e62e:    9900        ..      LDR      r1,[sp,#0]
        0x0000e630:    eb0100c0    ....    ADD      r0,r1,r0,LSL #3
        0x0000e634:    9000        ..      STR      r0,[sp,#0]
        0x0000e636:    69b0        .i      LDR      r0,[r6,#0x18]
        0x0000e638:    2800        .(      CMP      r0,#0
        0x0000e63a:    bf1c        ..      ITT      NE
        0x0000e63c:    9900        ..      LDRNE    r1,[sp,#0]
        0x0000e63e:    6001        .`      STRNE    r1,[r0,#0]
        0x0000e640:    f44f4180    O..A    MOV      r1,#0x4000
        0x0000e644:    9800        ..      LDR      r0,[sp,#0]
        0x0000e646:    e8e07102    ...q    STRD     r7,r1,[r0],#8
        0x0000e64a:    4940        @I      LDR      r1,[pc,#256] ; [0xe74c] = 0x500142b4
        0x0000e64c:    9000        ..      STR      r0,[sp,#0]
        0x0000e64e:    6001        .`      STR      r1,[r0,#0]
        0x0000e650:    6871        qh      LDR      r1,[r6,#4]
        0x0000e652:    6041        A`      STR      r1,[r0,#4]
        0x0000e654:    6937        7i      LDR      r7,[r6,#0x10]
        0x0000e656:    2f00        ./      CMP      r7,#0
        0x0000e658:    bf04        ..      ITT      EQ
        0x0000e65a:    f8d40834    ..4.    LDREQ    r0,[r4,#0x834]
        0x0000e65e:    2800        .(      CMPEQ    r0,#0
        0x0000e660:    e000        ..      B        0xe664 ; am_hal_mspi_control + 1456
        0x0000e662:    e065        e.      B        0xe730 ; am_hal_mspi_control + 1660
        0x0000e664:    bf04        ..      ITT      EQ
        0x0000e666:    f8940828    ..(.    LDRBEQ   r0,[r4,#0x828]
        0x0000e66a:    2800        .(      CMPEQ    r0,#0
        0x0000e66c:    d111        ..      BNE      0xe692 ; am_hal_mspi_control + 1502
        0x0000e66e:    e008        ..      B        0xe682 ; am_hal_mspi_control + 1486
        0x0000e670:    f24402a0    D...    MOV      r2,#0x40a0
        0x0000e674:    f04f0302    O...    MOV      r3,#2
        0x0000e678:    ea400002    @...    ORR      r0,r0,r2
        0x0000e67c:    f8c43834    ..48    STR      r3,[r4,#0x834]
        0x0000e680:    e7a1        ..      B        0xe5c6 ; am_hal_mspi_control + 1298
        0x0000e682:    f8d41858    ..X.    LDR      r1,[r4,#0x858]
        0x0000e686:    f8d40854    ..T.    LDR      r0,[r4,#0x854]
        0x0000e68a:    ebb10f50    ..P.    CMP      r1,r0,LSR #1
        0x0000e68e:    bf28        (.      IT       CS
        0x0000e690:    4f2f        /O      LDRCS    r7,[pc,#188] ; [0xe750] = 0x1087d
        0x0000e692:    9801        ..      LDR      r0,[sp,#4]
        0x0000e694:    b2c0        ..      UXTB     r0,r0
        0x0000e696:    eb040080    ....    ADD      r0,r4,r0,LSL #2
        0x0000e69a:    6247        Gb      STR      r7,[r0,#0x24]
        0x0000e69c:    9801        ..      LDR      r0,[sp,#4]
        0x0000e69e:    6972        ri      LDR      r2,[r6,#0x14]
        0x0000e6a0:    b2c0        ..      UXTB     r0,r0
        0x0000e6a2:    eb040080    ....    ADD      r0,r4,r0,LSL #2
        0x0000e6a6:    f8c02424    ..$$    STR      r2,[r0,#0x424]
        0x0000e6aa:    f7fdfded    ....    BL       am_hal_interrupt_master_disable ; 0xc288
        0x0000e6ae:    4681        .F      MOV      r9,r0
        0x0000e6b0:    2f00        ./      CMP      r7,#0
        0x0000e6b2:    bf14        ..      ITE      NE
        0x0000e6b4:    2101        .!      MOVNE    r1,#1
        0x0000e6b6:    2100        .!      MOVEQ    r1,#0
        0x0000e6b8:    f8d40824    ..$.    LDR      r0,[r4,#0x824]
        0x0000e6bc:    f7feffc4    ....    BL       am_hal_cmdq_post_block ; 0xd648
        0x0000e6c0:    0005        ..      MOVS     r5,r0
        0x0000e6c2:    d007        ..      BEQ      0xe6d4 ; am_hal_mspi_control + 1568
        0x0000e6c4:    4648        HF      MOV      r0,r9
        0x0000e6c6:    f7fdfde3    ....    BL       am_hal_interrupt_master_set ; 0xc290
        0x0000e6ca:    f8d40824    ..$.    LDR      r0,[r4,#0x824]
        0x0000e6ce:    f7fff80f    ....    BL       am_hal_cmdq_release_block ; 0xd6f0
        0x0000e6d2:    e02d        -.      B        0xe730 ; am_hal_mspi_control + 1660
        0x0000e6d4:    f8d4801c    ....    LDR      r8,[r4,#0x1c]
        0x0000e6d8:    f1080101    ....    ADD      r1,r8,#1
        0x0000e6dc:    61e1        .a      STR      r1,[r4,#0x1c]
        0x0000e6de:    f8d4082c    ..,.    LDR      r0,[r4,#0x82c]
        0x0000e6e2:    1c41        A.      ADDS     r1,r0,#1
        0x0000e6e4:    f8c4182c    ..,.    STR      r1,[r4,#0x82c]
        0x0000e6e8:    6930        0i      LDR      r0,[r6,#0x10]
        0x0000e6ea:    2800        .(      CMP      r0,#0
        0x0000e6ec:    bf1c        ..      ITT      NE
        0x0000e6ee:    2000        .       MOVNE    r0,#0
        0x0000e6f0:    f8840829    ..).    STRBNE   r0,[r4,#0x829]
        0x0000e6f4:    d009        ..      BEQ      0xe70a ; am_hal_mspi_control + 1622
        0x0000e6f6:    bf00        ..      NOP      
        0x0000e6f8:    f8c40858    ..X.    STR      r0,[r4,#0x858]
        0x0000e6fc:    4648        HF      MOV      r0,r9
        0x0000e6fe:    f7fdfdc7    ....    BL       am_hal_interrupt_master_set ; 0xc290
        0x0000e702:    f1b80f00    ....    CMP      r8,#0
        0x0000e706:    d113        ..      BNE      0xe730 ; am_hal_mspi_control + 1660
        0x0000e708:    e009        ..      B        0xe71e ; am_hal_mspi_control + 1642
        0x0000e70a:    2f00        ./      CMP      r7,#0
        0x0000e70c:    bf11        ..      ITEEE    NE
        0x0000e70e:    2000        .       MOVNE    r0,#0
        0x0000e710:    f8d40858    ..X.    LDREQ    r0,[r4,#0x858]
        0x0000e714:    1c41        A.      ADDEQ    r1,r0,#1
        0x0000e716:    f8c41858    ..X.    STREQ    r1,[r4,#0x858]
        0x0000e71a:    d1ed        ..      BNE      0xe6f8 ; am_hal_mspi_control + 1604
        0x0000e71c:    e7ee        ..      B        0xe6fc ; am_hal_mspi_control + 1608
        0x0000e71e:    f8d40824    ..$.    LDR      r0,[r4,#0x824]
        0x0000e722:    f7fefef9    ....    BL       am_hal_cmdq_enable ; 0xd518
        0x0000e726:    0005        ..      MOVS     r5,r0
        0x0000e728:    bf1c        ..      ITT      NE
        0x0000e72a:    b003        ..      ADDNE    sp,sp,#0xc
        0x0000e72c:    e8bd83f0    ....    POPNE    {r4-r9,pc}
        0x0000e730:    4628        (F      MOV      r0,r5
        0x0000e732:    b003        ..      ADD      sp,sp,#0xc
        0x0000e734:    e8bd83f0    ....    POP      {r4-r9,pc}
        0x0000e738:    b003        ..      ADD      sp,sp,#0xc
        0x0000e73a:    2006        .       MOVS     r0,#6
        0x0000e73c:    e8bd83f0    ....    POP      {r4-r9,pc}
    $d
        0x0000e740:    aaaaaaab    ....    DCD    2863311531
        0x0000e744:    50014000    .@.P    DCD    1342259200
        0x0000e748:    500142b8    .B.P    DCD    1342259896
        0x0000e74c:    500142b4    .B.P    DCD    1342259892
        0x0000e750:    0001087d    }...    DCD    67709
    $t
    i.am_hal_mspi_deinitialize
    am_hal_mspi_deinitialize
        0x0000e754:    e92d41f0    -..A    PUSH     {r4-r8,lr}
        0x0000e758:    1e05        ..      SUBS     r5,r0,#0
        0x0000e75a:    bf1c        ..      ITT      NE
        0x0000e75c:    6801        .h      LDRNE    r1,[r0,#0]
        0x0000e75e:    f0117f80    ....    TSTNE    r1,#0x1000000
        0x0000e762:    d004        ..      BEQ      0xe76e ; am_hal_mspi_deinitialize + 26
        0x0000e764:    4b19        .K      LDR      r3,[pc,#100] ; [0xe7cc] = 0xbebebe
        0x0000e766:    f021427f    !..B    BIC      r2,r1,#0xff000000
        0x0000e76a:    429a        .B      CMP      r2,r3
        0x0000e76c:    d002        ..      BEQ      0xe774 ; am_hal_mspi_deinitialize + 32
        0x0000e76e:    2002        .       MOVS     r0,#2
        0x0000e770:    e8bd81f0    ....    POP      {r4-r8,pc}
        0x0000e774:    f0117f00    ....    TST      r1,#0x2000000
        0x0000e778:    f04f0600    O...    MOV      r6,#0
        0x0000e77c:    d01d        ..      BEQ      0xe7ba ; am_hal_mspi_deinitialize + 102
        0x0000e77e:    6968        hi      LDR      r0,[r5,#0x14]
        0x0000e780:    462c        ,F      MOV      r4,r5
        0x0000e782:    b1b0        ..      CBZ      r0,0xe7b2 ; am_hal_mspi_deinitialize + 94
        0x0000e784:    f8d40824    ..$.    LDR      r0,[r4,#0x824]
        0x0000e788:    f7fefea6    ....    BL       am_hal_cmdq_disable ; 0xd4d8
        0x0000e78c:    b9a8        ..      CBNZ     r0,0xe7ba ; am_hal_mspi_deinitialize + 102
        0x0000e78e:    6860        `h      LDR      r0,[r4,#4]
        0x0000e790:    4f0f        .O      LDR      r7,[pc,#60] ; [0xe7d0] = 0x10006678
        0x0000e792:    eb000180    ....    ADD      r1,r0,r0,LSL #2
        0x0000e796:    eb011880    ....    ADD      r8,r1,r0,LSL #6
        0x0000e79a:    eb071048    ..H.    ADD      r0,r7,r8,LSL #5
        0x0000e79e:    f8d00824    ..$.    LDR      r0,[r0,#0x824]
        0x0000e7a2:    b130        0.      CBZ      r0,0xe7b2 ; am_hal_mspi_deinitialize + 94
        0x0000e7a4:    2101        .!      MOVS     r1,#1
        0x0000e7a6:    f7fefff1    ....    BL       am_hal_cmdq_term ; 0xd78c
        0x0000e7aa:    eb071048    ..H.    ADD      r0,r7,r8,LSL #5
        0x0000e7ae:    f8c06824    ..$h    STR      r6,[r0,#0x824]
        0x0000e7b2:    6820         h      LDR      r0,[r4,#0]
        0x0000e7b4:    f0207000     ..p    BIC      r0,r0,#0x2000000
        0x0000e7b8:    6020         `      STR      r0,[r4,#0]
        0x0000e7ba:    6828        (h      LDR      r0,[r5,#0]
        0x0000e7bc:    f0207080     ..p    BIC      r0,r0,#0x1000000
        0x0000e7c0:    e9c50600    ....    STRD     r0,r6,[r5,#0]
        0x0000e7c4:    722e        .r      STRB     r6,[r5,#8]
        0x0000e7c6:    2000        .       MOVS     r0,#0
        0x0000e7c8:    e8bd81f0    ....    POP      {r4-r8,pc}
    $d
        0x0000e7cc:    00bebebe    ....    DCD    12500670
        0x0000e7d0:    10006678    xf..    DCD    268461688
    $t
    i.am_hal_mspi_device_configure
    am_hal_mspi_device_configure
        0x0000e7d4:    b570        p.      PUSH     {r4-r6,lr}
        0x0000e7d6:    460c        .F      MOV      r4,r1
        0x0000e7d8:    1e05        ..      SUBS     r5,r0,#0
        0x0000e7da:    f04f0100    O...    MOV      r1,#0
        0x0000e7de:    bf1c        ..      ITT      NE
        0x0000e7e0:    6802        .h      LDRNE    r2,[r0,#0]
        0x0000e7e2:    f0127f80    ....    TSTNE    r2,#0x1000000
        0x0000e7e6:    d005        ..      BEQ      0xe7f4 ; am_hal_mspi_device_configure + 32
        0x0000e7e8:    f8dfc1a4    ....    LDR      r12,[pc,#420] ; [0xe990] = 0xbebebe
        0x0000e7ec:    f022437f    "..C    BIC      r3,r2,#0xff000000
        0x0000e7f0:    4563        cE      CMP      r3,r12
        0x0000e7f2:    d001        ..      BEQ      0xe7f8 ; am_hal_mspi_device_configure + 36
        0x0000e7f4:    2002        .       MOVS     r0,#2
        0x0000e7f6:    bd70        p.      POP      {r4-r6,pc}
        0x0000e7f8:    f0127f00    ....    TST      r2,#0x2000000
        0x0000e7fc:    bf1c        ..      ITT      NE
        0x0000e7fe:    2007        .       MOVNE    r0,#7
        0x0000e800:    bd70        p.      POPNE    {r4-r6,pc}
        0x0000e802:    79a2        .y      LDRB     r2,[r4,#6]
        0x0000e804:    686b        kh      LDR      r3,[r5,#4]
        0x0000e806:    b16a        j.      CBZ      r2,0xe824 ; am_hal_mspi_device_configure + 80
        0x0000e808:    2a01        .*      CMP      r2,#1
        0x0000e80a:    bf08        ..      IT       EQ
        0x0000e80c:    f44f3100    O..1    MOVEQ    r1,#0x20000
        0x0000e810:    d008        ..      BEQ      0xe824 ; am_hal_mspi_device_configure + 80
        0x0000e812:    2a02        .*      CMP      r2,#2
        0x0000e814:    bf08        ..      IT       EQ
        0x0000e816:    f44f3180    O..1    MOVEQ    r1,#0x10000
        0x0000e81a:    d003        ..      BEQ      0xe824 ; am_hal_mspi_device_configure + 80
        0x0000e81c:    2a03        .*      CMP      r2,#3
        0x0000e81e:    bf08        ..      IT       EQ
        0x0000e820:    f44f3140    O.@1    MOVEQ    r1,#0x30000
        0x0000e824:    7822        "x      LDRB     r2,[r4,#0]
        0x0000e826:    f44f5c7c    O.|\    MOV      r12,#0x3f00
        0x0000e82a:    ea0c2202    ..."    AND      r2,r12,r2,LSL #8
        0x0000e82e:    4311        .C      ORRS     r1,r1,r2
        0x0000e830:    7862        bx      LDRB     r2,[r4,#1]
        0x0000e832:    f04f0c30    O.0.    MOV      r12,#0x30
        0x0000e836:    ea0c1202    ....    AND      r2,r12,r2,LSL #4
        0x0000e83a:    4311        .C      ORRS     r1,r1,r2
        0x0000e83c:    78a2        .x      LDRB     r2,[r4,#2]
        0x0000e83e:    f04f0c40    O.@.    MOV      r12,#0x40
        0x0000e842:    ea0c1282    ....    AND      r2,r12,r2,LSL #6
        0x0000e846:    430a        .C      ORRS     r2,r2,r1
        0x0000e848:    4952        RI      LDR      r1,[pc,#328] ; [0xe994] = 0x50014000
        0x0000e84a:    604a        J`      STR      r2,[r1,#4]
        0x0000e84c:    f894c007    ....    LDRB     r12,[r4,#7]
        0x0000e850:    f8d12100    ...!    LDR      r2,[r1,#0x100]
        0x0000e854:    f36c220d    l.."    BFI      r2,r12,#8,#6
        0x0000e858:    f8c12100    ...!    STR      r2,[r1,#0x100]
        0x0000e85c:    79e2        .y      LDRB     r2,[r4,#7]
        0x0000e85e:    2a01        .*      CMP      r2,#1
        0x0000e860:    f8d12100    ...!    LDR      r2,[r1,#0x100]
        0x0000e864:    d07d        }.      BEQ      0xe962 ; am_hal_mspi_device_configure + 398
        0x0000e866:    f0220208    "...    BIC      r2,r2,#8
        0x0000e86a:    f8c12100    ...!    STR      r2,[r1,#0x100]
        0x0000e86e:    f8d12100    ...!    LDR      r2,[r1,#0x100]
        0x0000e872:    f0220204    "...    BIC      r2,r2,#4
        0x0000e876:    f8c12100    ...!    STR      r2,[r1,#0x100]
        0x0000e87a:    f8d12100    ...!    LDR      r2,[r1,#0x100]
        0x0000e87e:    f0420202    B...    ORR      r2,r2,#2
        0x0000e882:    f8c12100    ...!    STR      r2,[r1,#0x100]
        0x0000e886:    bf00        ..      NOP      
        0x0000e888:    f8d12100    ...!    LDR      r2,[r1,#0x100]
        0x0000e88c:    f0420201    B...    ORR      r2,r2,#1
        0x0000e890:    f8c12100    ...!    STR      r2,[r1,#0x100]
        0x0000e894:    f894c009    ....    LDRB     r12,[r4,#9]
        0x0000e898:    2200        ."      MOVS     r2,#0
        0x0000e89a:    f1bc0f00    ....    CMP      r12,#0
        0x0000e89e:    bf18        ..      IT       NE
        0x0000e8a0:    2280        ."      MOVNE    r2,#0x80
        0x0000e8a2:    f894c008    ....    LDRB     r12,[r4,#8]
        0x0000e8a6:    f1bc0f00    ....    CMP      r12,#0
        0x0000e8aa:    bf18        ..      IT       NE
        0x0000e8ac:    f0420240    B.@.    ORRNE    r2,r2,#0x40
        0x0000e8b0:    f894c00a    ....    LDRB     r12,[r4,#0xa]
        0x0000e8b4:    f1bc0f00    ....    CMP      r12,#0
        0x0000e8b8:    bf18        ..      IT       NE
        0x0000e8ba:    f0420220    B. .    ORRNE    r2,r2,#0x20
        0x0000e8be:    f895c00a    ....    LDRB     r12,[r5,#0xa]
        0x0000e8c2:    2610        .&      MOVS     r6,#0x10
        0x0000e8c4:    ea061c0c    ....    AND      r12,r6,r12,LSL #4
        0x0000e8c8:    ea4c0202    L...    ORR      r2,r12,r2
        0x0000e8cc:    f894c003    ....    LDRB     r12,[r4,#3]
        0x0000e8d0:    f042020c    B...    ORR      r2,r2,#0xc
        0x0000e8d4:    ea42620c    B..b    ORR      r2,r2,r12,LSL #24
        0x0000e8d8:    f894c004    ....    LDRB     r12,[r4,#4]
        0x0000e8dc:    ea42420c    B..B    ORR      r2,r2,r12,LSL #16
        0x0000e8e0:    f8c1210c    ...!    STR      r2,[r1,#0x10c]
        0x0000e8e4:    eb030283    ....    ADD      r2,r3,r3,LSL #2
        0x0000e8e8:    eb021383    ....    ADD      r3,r2,r3,LSL #6
        0x0000e8ec:    4a2a        *J      LDR      r2,[pc,#168] ; [0xe998] = 0x10006678
        0x0000e8ee:    f8d4c010    ....    LDR      r12,[r4,#0x10]
        0x0000e8f2:    eb021243    ..C.    ADD      r2,r2,r3,LSL #5
        0x0000e8f6:    f8c2c014    ....    STR      r12,[r2,#0x14]
        0x0000e8fa:    68e3        .h      LDR      r3,[r4,#0xc]
        0x0000e8fc:    6113        .a      STR      r3,[r2,#0x10]
        0x0000e8fe:    6923        #i      LDR      r3,[r4,#0x10]
        0x0000e900:    b1b3        ..      CBZ      r3,0xe930 ; am_hal_mspi_device_configure + 348
        0x0000e902:    2320         #      MOVS     r3,#0x20
        0x0000e904:    f8c13264    ..d2    STR      r3,[r1,#0x264]
        0x0000e908:    2308        .#      MOVS     r3,#8
        0x0000e90a:    f8c13278    ..x2    STR      r3,[r1,#0x278]
        0x0000e90e:    68e3        .h      LDR      r3,[r4,#0xc]
        0x0000e910:    f8dfc088    ....    LDR      r12,[pc,#136] ; [0xe99c] = 0x38e38e39
        0x0000e914:    009b        ..      LSLS     r3,r3,#2
        0x0000e916:    3b20         ;      SUBS     r3,r3,#0x20
        0x0000e918:    fbacc303    ....    UMULL    r12,r3,r12,r3
        0x0000e91c:    091b        ..      LSRS     r3,r3,#4
        0x0000e91e:    f8c23854    ..T8    STR      r3,[r2,#0x854]
        0x0000e922:    f5b37f80    ....    CMP      r3,#0x100
        0x0000e926:    bf88        ..      IT       HI
        0x0000e928:    f44f7380    O..s    MOVHI    r3,#0x100
        0x0000e92c:    f8c23854    ..T8    STR      r3,[r2,#0x854]
        0x0000e930:    6962        bi      LDR      r2,[r4,#0x14]
        0x0000e932:    f8dfc06c    ..l.    LDR      r12,[pc,#108] ; [0xe9a0] = 0x3ff0000
        0x0000e936:    69a3        .i      LDR      r3,[r4,#0x18]
        0x0000e938:    f3c24209    ...B    UBFX     r2,r2,#16,#10
        0x0000e93c:    ea03030c    ....    AND      r3,r3,r12
        0x0000e940:    431a        .C      ORRS     r2,r2,r3
        0x0000e942:    f8c12120    .. !    STR      r2,[r1,#0x120]
        0x0000e946:    f8d12100    ...!    LDR      r2,[r1,#0x100]
        0x0000e94a:    f0420270    B.p.    ORR      r2,r2,#0x70
        0x0000e94e:    f8c12100    ...!    STR      r2,[r1,#0x100]
        0x0000e952:    7961        ay      LDRB     r1,[r4,#5]
        0x0000e954:    f001fdd4    ....    BL       mspi_device_configure ; 0x10500
        0x0000e958:    2000        .       MOVS     r0,#0
        0x0000e95a:    72a8        .r      STRB     r0,[r5,#0xa]
        0x0000e95c:    79e0        .y      LDRB     r0,[r4,#7]
        0x0000e95e:    7268        hr      STRB     r0,[r5,#9]
        0x0000e960:    e000        ..      B        0xe964 ; am_hal_mspi_device_configure + 400
        0x0000e962:    e004        ..      B        0xe96e ; am_hal_mspi_device_configure + 410
        0x0000e964:    f2427010    B..p    MOV      r0,#0x2710
        0x0000e968:    60e8        .`      STR      r0,[r5,#0xc]
        0x0000e96a:    2000        .       MOVS     r0,#0
        0x0000e96c:    bd70        p.      POP      {r4-r6,pc}
        0x0000e96e:    f0420208    B...    ORR      r2,r2,#8
        0x0000e972:    f8c12100    ...!    STR      r2,[r1,#0x100]
        0x0000e976:    f8d12100    ...!    LDR      r2,[r1,#0x100]
        0x0000e97a:    f0220204    "...    BIC      r2,r2,#4
        0x0000e97e:    f8c12100    ...!    STR      r2,[r1,#0x100]
        0x0000e982:    f8d12100    ...!    LDR      r2,[r1,#0x100]
        0x0000e986:    f0420202    B...    ORR      r2,r2,#2
        0x0000e98a:    f8c12100    ...!    STR      r2,[r1,#0x100]
        0x0000e98e:    e77b        {.      B        0xe888 ; am_hal_mspi_device_configure + 180
    $d
        0x0000e990:    00bebebe    ....    DCD    12500670
        0x0000e994:    50014000    .@.P    DCD    1342259200
        0x0000e998:    10006678    xf..    DCD    268461688
        0x0000e99c:    38e38e39    9..8    DCD    954437177
        0x0000e9a0:    03ff0000    ....    DCD    67043328
    $t
    i.am_hal_mspi_disable
    am_hal_mspi_disable
        0x0000e9a4:    b570        p.      PUSH     {r4-r6,lr}
        0x0000e9a6:    0004        ..      MOVS     r4,r0
        0x0000e9a8:    bf1c        ..      ITT      NE
        0x0000e9aa:    6820         h      LDRNE    r0,[r4,#0]
        0x0000e9ac:    f0107f80    ....    TSTNE    r0,#0x1000000
        0x0000e9b0:    d004        ..      BEQ      0xe9bc ; am_hal_mspi_disable + 24
        0x0000e9b2:    4a15        .J      LDR      r2,[pc,#84] ; [0xea08] = 0xbebebe
        0x0000e9b4:    f020417f     ..A    BIC      r1,r0,#0xff000000
        0x0000e9b8:    4291        .B      CMP      r1,r2
        0x0000e9ba:    d001        ..      BEQ      0xe9c0 ; am_hal_mspi_disable + 28
        0x0000e9bc:    2002        .       MOVS     r0,#2
        0x0000e9be:    bd70        p.      POP      {r4-r6,pc}
        0x0000e9c0:    f0107000    ...p    ANDS     r0,r0,#0x2000000
        0x0000e9c4:    bf08        ..      IT       EQ
        0x0000e9c6:    bd70        p.      POPEQ    {r4-r6,pc}
        0x0000e9c8:    6960        `i      LDR      r0,[r4,#0x14]
        0x0000e9ca:    b1b8        ..      CBZ      r0,0xe9fc ; am_hal_mspi_disable + 88
        0x0000e9cc:    f8d40824    ..$.    LDR      r0,[r4,#0x824]
        0x0000e9d0:    f7fefd82    ....    BL       am_hal_cmdq_disable ; 0xd4d8
        0x0000e9d4:    2800        .(      CMP      r0,#0
        0x0000e9d6:    bf18        ..      IT       NE
        0x0000e9d8:    bd70        p.      POPNE    {r4-r6,pc}
        0x0000e9da:    6860        `h      LDR      r0,[r4,#4]
        0x0000e9dc:    eb000180    ....    ADD      r1,r0,r0,LSL #2
        0x0000e9e0:    eb011180    ....    ADD      r1,r1,r0,LSL #6
        0x0000e9e4:    4809        .H      LDR      r0,[pc,#36] ; [0xea0c] = 0x10006678
        0x0000e9e6:    eb001541    ..A.    ADD      r5,r0,r1,LSL #5
        0x0000e9ea:    f8d50824    ..$.    LDR      r0,[r5,#0x824]
        0x0000e9ee:    b128        (.      CBZ      r0,0xe9fc ; am_hal_mspi_disable + 88
        0x0000e9f0:    2101        .!      MOVS     r1,#1
        0x0000e9f2:    f7fefecb    ....    BL       am_hal_cmdq_term ; 0xd78c
        0x0000e9f6:    2000        .       MOVS     r0,#0
        0x0000e9f8:    f8c50824    ..$.    STR      r0,[r5,#0x824]
        0x0000e9fc:    6820         h      LDR      r0,[r4,#0]
        0x0000e9fe:    f0207000     ..p    BIC      r0,r0,#0x2000000
        0x0000ea02:    6020         `      STR      r0,[r4,#0]
        0x0000ea04:    2000        .       MOVS     r0,#0
        0x0000ea06:    bd70        p.      POP      {r4-r6,pc}
    $d
        0x0000ea08:    00bebebe    ....    DCD    12500670
        0x0000ea0c:    10006678    xf..    DCD    268461688
    $t
    i.am_hal_mspi_enable
    am_hal_mspi_enable
        0x0000ea10:    b570        p.      PUSH     {r4-r6,lr}
        0x0000ea12:    b084        ..      SUB      sp,sp,#0x10
        0x0000ea14:    1e04        ..      SUBS     r4,r0,#0
        0x0000ea16:    bf1c        ..      ITT      NE
        0x0000ea18:    6820         h      LDRNE    r0,[r4,#0]
        0x0000ea1a:    f0107f80    ....    TSTNE    r0,#0x1000000
        0x0000ea1e:    d004        ..      BEQ      0xea2a ; am_hal_mspi_enable + 26
        0x0000ea20:    4920         I      LDR      r1,[pc,#128] ; [0xeaa4] = 0xbebebe
        0x0000ea22:    f020407f     ..@    BIC      r0,r0,#0xff000000
        0x0000ea26:    4288        .B      CMP      r0,r1
        0x0000ea28:    d002        ..      BEQ      0xea30 ; am_hal_mspi_enable + 32
        0x0000ea2a:    b004        ..      ADD      sp,sp,#0x10
        0x0000ea2c:    2002        .       MOVS     r0,#2
        0x0000ea2e:    bd70        p.      POP      {r4-r6,pc}
        0x0000ea30:    6960        `i      LDR      r0,[r4,#0x14]
        0x0000ea32:    b378        x.      CBZ      r0,0xea94 ; am_hal_mspi_enable + 132
        0x0000ea34:    2500        .%      MOVS     r5,#0
        0x0000ea36:    61a5        .a      STR      r5,[r4,#0x18]
        0x0000ea38:    61e5        .a      STR      r5,[r4,#0x1c]
        0x0000ea3a:    e9d41204    ....    LDRD     r1,r2,[r4,#0x10]
        0x0000ea3e:    6860        `h      LDR      r0,[r4,#4]
        0x0000ea40:    0849        I.      LSRS     r1,r1,#1
        0x0000ea42:    e9cd1200    ....    STRD     r1,r2,[sp,#0]
        0x0000ea46:    eb000180    ....    ADD      r1,r0,r0,LSL #2
        0x0000ea4a:    eb011180    ....    ADD      r1,r1,r0,LSL #6
        0x0000ea4e:    4a16        .J      LDR      r2,[pc,#88] ; [0xeaa8] = 0x10006678
        0x0000ea50:    2601        .&      MOVS     r6,#1
        0x0000ea52:    eb021141    ..A.    ADD      r1,r2,r1,LSL #5
        0x0000ea56:    f6010224    ..$.    ADD      r2,r1,#0x824
        0x0000ea5a:    1d80        ..      ADDS     r0,r0,#6
        0x0000ea5c:    f88d6008    ...`    STRB     r6,[sp,#8]
        0x0000ea60:    b2c0        ..      UXTB     r0,r0
        0x0000ea62:    4669        iF      MOV      r1,sp
        0x0000ea64:    f7fefd78    ..x.    BL       am_hal_cmdq_init ; 0xd558
        0x0000ea68:    4911        .I      LDR      r1,[pc,#68] ; [0xeab0] = 0x50014000
        0x0000ea6a:    4810        .H      LDR      r0,[pc,#64] ; [0xeaac] = 0x400080
        0x0000ea6c:    f8c102b4    ....    STR      r0,[r1,#0x2b4]
        0x0000ea70:    f8c45850    ..PX    STR      r5,[r4,#0x850]
        0x0000ea74:    f8845838    ..8X    STRB     r5,[r4,#0x838]
        0x0000ea78:    f8c45840    ..@X    STR      r5,[r4,#0x840]
        0x0000ea7c:    f8c45834    ..4X    STR      r5,[r4,#0x834]
        0x0000ea80:    f8c4583c    ..<X    STR      r5,[r4,#0x83c]
        0x0000ea84:    f8845828    ..(X    STRB     r5,[r4,#0x828]
        0x0000ea88:    f8c4582c    ..,X    STR      r5,[r4,#0x82c]
        0x0000ea8c:    f8846829    ..)h    STRB     r6,[r4,#0x829]
        0x0000ea90:    f8c45858    ..XX    STR      r5,[r4,#0x858]
        0x0000ea94:    6820         h      LDR      r0,[r4,#0]
        0x0000ea96:    f0407000    @..p    ORR      r0,r0,#0x2000000
        0x0000ea9a:    6020         `      STR      r0,[r4,#0]
        0x0000ea9c:    b004        ..      ADD      sp,sp,#0x10
        0x0000ea9e:    2000        .       MOVS     r0,#0
        0x0000eaa0:    bd70        p.      POP      {r4-r6,pc}
    $d
        0x0000eaa2:    0000        ..      DCW    0
        0x0000eaa4:    00bebebe    ....    DCD    12500670
        0x0000eaa8:    10006678    xf..    DCD    268461688
        0x0000eaac:    00400080    ..@.    DCD    4194432
        0x0000eab0:    50014000    .@.P    DCD    1342259200
    $t
    i.am_hal_mspi_initialize
    am_hal_mspi_initialize
        0x0000eab4:    2800        .(      CMP      r0,#0
        0x0000eab6:    bf1c        ..      ITT      NE
        0x0000eab8:    2005        .       MOVNE    r0,#5
        0x0000eaba:    4770        pG      BXNE     lr
        0x0000eabc:    2900        .)      CMP      r1,#0
        0x0000eabe:    bf04        ..      ITT      EQ
        0x0000eac0:    2006        .       MOVEQ    r0,#6
        0x0000eac2:    4770        pG      BXEQ     lr
        0x0000eac4:    2300        .#      MOVS     r3,#0
        0x0000eac6:    4809        .H      LDR      r0,[pc,#36] ; [0xeaec] = 0x10006678
        0x0000eac8:    6802        .h      LDR      r2,[r0,#0]
        0x0000eaca:    f0127f80    ....    TST      r2,#0x1000000
        0x0000eace:    bf1c        ..      ITT      NE
        0x0000ead0:    2007        .       MOVNE    r0,#7
        0x0000ead2:    4770        pG      BXNE     lr
        0x0000ead4:    f0427280    B..r    ORR      r2,r2,#0x1000000
        0x0000ead8:    f8dfc014    ....    LDR      r12,[pc,#20] ; [0xeaf0] = 0xbebebe
        0x0000eadc:    f36c0217    l...    BFI      r2,r12,#0,#24
        0x0000eae0:    e9c02300    ...#    STRD     r2,r3,[r0,#0]
        0x0000eae4:    6008        .`      STR      r0,[r1,#0]
        0x0000eae6:    2000        .       MOVS     r0,#0
        0x0000eae8:    4770        pG      BX       lr
    $d
        0x0000eaea:    0000        ..      DCW    0
        0x0000eaec:    10006678    xf..    DCD    268461688
        0x0000eaf0:    00bebebe    ....    DCD    12500670
    $t
    i.am_hal_mspi_interrupt_clear
    am_hal_mspi_interrupt_clear
        0x0000eaf4:    2800        .(      CMP      r0,#0
        0x0000eaf6:    bf1c        ..      ITT      NE
        0x0000eaf8:    6800        .h      LDRNE    r0,[r0,#0]
        0x0000eafa:    f0107f80    ....    TSTNE    r0,#0x1000000
        0x0000eafe:    d004        ..      BEQ      0xeb0a ; am_hal_mspi_interrupt_clear + 22
        0x0000eb00:    4a05        .J      LDR      r2,[pc,#20] ; [0xeb18] = 0xbebebe
        0x0000eb02:    f020407f     ..@    BIC      r0,r0,#0xff000000
        0x0000eb06:    4290        .B      CMP      r0,r2
        0x0000eb08:    d001        ..      BEQ      0xeb0e ; am_hal_mspi_interrupt_clear + 26
        0x0000eb0a:    2002        .       MOVS     r0,#2
        0x0000eb0c:    4770        pG      BX       lr
        0x0000eb0e:    4803        .H      LDR      r0,[pc,#12] ; [0xeb1c] = 0x50014000
        0x0000eb10:    f8c01208    ....    STR      r1,[r0,#0x208]
        0x0000eb14:    2000        .       MOVS     r0,#0
        0x0000eb16:    4770        pG      BX       lr
    $d
        0x0000eb18:    00bebebe    ....    DCD    12500670
        0x0000eb1c:    50014000    .@.P    DCD    1342259200
    $t
    i.am_hal_mspi_interrupt_disable
    am_hal_mspi_interrupt_disable
        0x0000eb20:    2800        .(      CMP      r0,#0
        0x0000eb22:    bf1c        ..      ITT      NE
        0x0000eb24:    6800        .h      LDRNE    r0,[r0,#0]
        0x0000eb26:    f0107f80    ....    TSTNE    r0,#0x1000000
        0x0000eb2a:    d004        ..      BEQ      0xeb36 ; am_hal_mspi_interrupt_disable + 22
        0x0000eb2c:    4a07        .J      LDR      r2,[pc,#28] ; [0xeb4c] = 0xbebebe
        0x0000eb2e:    f020407f     ..@    BIC      r0,r0,#0xff000000
        0x0000eb32:    4290        .B      CMP      r0,r2
        0x0000eb34:    d001        ..      BEQ      0xeb3a ; am_hal_mspi_interrupt_disable + 26
        0x0000eb36:    2002        .       MOVS     r0,#2
        0x0000eb38:    4770        pG      BX       lr
        0x0000eb3a:    4805        .H      LDR      r0,[pc,#20] ; [0xeb50] = 0x50014000
        0x0000eb3c:    f8d02200    ..."    LDR      r2,[r0,#0x200]
        0x0000eb40:    ea220101    "...    BIC      r1,r2,r1
        0x0000eb44:    f8c01200    ....    STR      r1,[r0,#0x200]
        0x0000eb48:    2000        .       MOVS     r0,#0
        0x0000eb4a:    4770        pG      BX       lr
    $d
        0x0000eb4c:    00bebebe    ....    DCD    12500670
        0x0000eb50:    50014000    .@.P    DCD    1342259200
    $t
    i.am_hal_mspi_interrupt_enable
    am_hal_mspi_interrupt_enable
        0x0000eb54:    2800        .(      CMP      r0,#0
        0x0000eb56:    bf1c        ..      ITT      NE
        0x0000eb58:    6800        .h      LDRNE    r0,[r0,#0]
        0x0000eb5a:    f0107f80    ....    TSTNE    r0,#0x1000000
        0x0000eb5e:    d004        ..      BEQ      0xeb6a ; am_hal_mspi_interrupt_enable + 22
        0x0000eb60:    4a07        .J      LDR      r2,[pc,#28] ; [0xeb80] = 0xbebebe
        0x0000eb62:    f020407f     ..@    BIC      r0,r0,#0xff000000
        0x0000eb66:    4290        .B      CMP      r0,r2
        0x0000eb68:    d001        ..      BEQ      0xeb6e ; am_hal_mspi_interrupt_enable + 26
        0x0000eb6a:    2002        .       MOVS     r0,#2
        0x0000eb6c:    4770        pG      BX       lr
        0x0000eb6e:    4805        .H      LDR      r0,[pc,#20] ; [0xeb84] = 0x50014000
        0x0000eb70:    f8d02200    ..."    LDR      r2,[r0,#0x200]
        0x0000eb74:    4311        .C      ORRS     r1,r1,r2
        0x0000eb76:    f8c01200    ....    STR      r1,[r0,#0x200]
        0x0000eb7a:    2000        .       MOVS     r0,#0
        0x0000eb7c:    4770        pG      BX       lr
    $d
        0x0000eb7e:    0000        ..      DCW    0
        0x0000eb80:    00bebebe    ....    DCD    12500670
        0x0000eb84:    50014000    .@.P    DCD    1342259200
    $t
    i.am_hal_mspi_nonblocking_transfer
    am_hal_mspi_nonblocking_transfer
        0x0000eb88:    e92d4ff0    -..O    PUSH     {r4-r11,lr}
        0x0000eb8c:    b083        ..      SUB      sp,sp,#0xc
        0x0000eb8e:    4698        .F      MOV      r8,r3
        0x0000eb90:    f8ddb030    ..0.    LDR      r11,[sp,#0x30]
        0x0000eb94:    0004        ..      MOVS     r4,r0
        0x0000eb96:    bf1c        ..      ITT      NE
        0x0000eb98:    6820         h      LDRNE    r0,[r4,#0]
        0x0000eb9a:    f0107f80    ....    TSTNE    r0,#0x1000000
        0x0000eb9e:    d005        ..      BEQ      0xebac ; am_hal_mspi_nonblocking_transfer + 36
        0x0000eba0:    f8dfc148    ..H.    LDR      r12,[pc,#328] ; [0xecec] = 0xbebebe
        0x0000eba4:    f020437f     ..C    BIC      r3,r0,#0xff000000
        0x0000eba8:    4563        cE      CMP      r3,r12
        0x0000ebaa:    d003        ..      BEQ      0xebb4 ; am_hal_mspi_nonblocking_transfer + 44
        0x0000ebac:    b003        ..      ADD      sp,sp,#0xc
        0x0000ebae:    2002        .       MOVS     r0,#2
        0x0000ebb0:    e8bd8ff0    ....    POP      {r4-r11,pc}
        0x0000ebb4:    6963        ci      LDR      r3,[r4,#0x14]
        0x0000ebb6:    2b00        .+      CMP      r3,#0
        0x0000ebb8:    bf1d        ..      ITTTE    NE
        0x0000ebba:    f0107f00    ....    TSTNE    r0,#0x2000000
        0x0000ebbe:    f8940828    ..(.    LDRBNE   r0,[r4,#0x828]
        0x0000ebc2:    2802        .(      CMPNE    r0,#2
        0x0000ebc4:    2007        .       MOVEQ    r0,#7
        0x0000ebc6:    bf04        ..      ITT      EQ
        0x0000ebc8:    b003        ..      ADDEQ    sp,sp,#0xc
        0x0000ebca:    e8bd8ff0    ....    POPEQ    {r4-r11,pc}
        0x0000ebce:    ea5f0608    _...    MOVS     r6,r8
        0x0000ebd2:    bf02        ..      ITTT     EQ
        0x0000ebd4:    f8d43834    ..48    LDREQ    r3,[r4,#0x834]
        0x0000ebd8:    2b00        .+      CMPEQ    r3,#0
        0x0000ebda:    2800        .(      CMPEQ    r0,#0
        0x0000ebdc:    d107        ..      BNE      0xebee ; am_hal_mspi_nonblocking_transfer + 102
        0x0000ebde:    f8d43858    ..X8    LDR      r3,[r4,#0x858]
        0x0000ebe2:    f8d40854    ..T.    LDR      r0,[r4,#0x854]
        0x0000ebe6:    ebb30f50    ..P.    CMP      r3,r0,LSR #1
        0x0000ebea:    bf28        (.      IT       CS
        0x0000ebec:    4e40        @N      LDRCS    r6,[pc,#256] ; [0xecf0] = 0x1087d
        0x0000ebee:    4625        %F      MOV      r5,r4
        0x0000ebf0:    460f        .F      MOV      r7,r1
        0x0000ebf2:    ea5f0902    _...    MOVS     r9,r2
        0x0000ebf6:    f04f0001    O...    MOV      r0,#1
        0x0000ebfa:    f6040a24    ..$.    ADD      r10,r4,#0x824
        0x0000ebfe:    bf08        ..      IT       EQ
        0x0000ec00:    2018        .       MOVEQ    r0,#0x18
        0x0000ec02:    d003        ..      BEQ      0xec0c ; am_hal_mspi_nonblocking_transfer + 132
        0x0000ec04:    f1b90f01    ....    CMP      r9,#1
        0x0000ec08:    bf08        ..      IT       EQ
        0x0000ec0a:    2040        @       MOVEQ    r0,#0x40
        0x0000ec0c:    69e9        .i      LDR      r1,[r5,#0x1c]
        0x0000ec0e:    f5b17f80    ....    CMP      r1,#0x100
        0x0000ec12:    bf02        ..      ITTT     EQ
        0x0000ec14:    2005        .       MOVEQ    r0,#5
        0x0000ec16:    b003        ..      ADDEQ    sp,sp,#0xc
        0x0000ec18:    e8bd8ff0    ....    POPEQ    {r4-r11,pc}
        0x0000ec1c:    08c1        ..      LSRS     r1,r0,#3
        0x0000ec1e:    466b        kF      MOV      r3,sp
        0x0000ec20:    aa01        ..      ADD      r2,sp,#4
        0x0000ec22:    f8da0000    ....    LDR      r0,[r10,#0]
        0x0000ec26:    f7fefbf1    ....    BL       am_hal_cmdq_alloc_block ; 0xd40c
        0x0000ec2a:    2800        .(      CMP      r0,#0
        0x0000ec2c:    bf1c        ..      ITT      NE
        0x0000ec2e:    b003        ..      ADDNE    sp,sp,#0xc
        0x0000ec30:    e8bd8ff0    ....    POPNE    {r4-r11,pc}
        0x0000ec34:    463b        ;F      MOV      r3,r7
        0x0000ec36:    4649        IF      MOV      r1,r9
        0x0000ec38:    4628        (F      MOV      r0,r5
        0x0000ec3a:    9a01        ..      LDR      r2,[sp,#4]
        0x0000ec3c:    f000ff8c    ....    BL       build_dma_cmdlist ; 0xfb58
        0x0000ec40:    0007        ..      MOVS     r7,r0
        0x0000ec42:    d007        ..      BEQ      0xec54 ; am_hal_mspi_nonblocking_transfer + 204
        0x0000ec44:    f8da0000    ....    LDR      r0,[r10,#0]
        0x0000ec48:    f7fefd52    ..R.    BL       am_hal_cmdq_release_block ; 0xd6f0
        0x0000ec4c:    b003        ..      ADD      sp,sp,#0xc
        0x0000ec4e:    4638        8F      MOV      r0,r7
        0x0000ec50:    e8bd8ff0    ....    POP      {r4-r11,pc}
        0x0000ec54:    9900        ..      LDR      r1,[sp,#0]
        0x0000ec56:    b2c9        ..      UXTB     r1,r1
        0x0000ec58:    eb050181    ....    ADD      r1,r5,r1,LSL #2
        0x0000ec5c:    624e        Nb      STR      r6,[r1,#0x24]
        0x0000ec5e:    9800        ..      LDR      r0,[sp,#0]
        0x0000ec60:    b2c0        ..      UXTB     r0,r0
        0x0000ec62:    eb050080    ....    ADD      r0,r5,r0,LSL #2
        0x0000ec66:    f8c0b424    ..$.    STR      r11,[r0,#0x424]
        0x0000ec6a:    f7fdfb0d    ....    BL       am_hal_interrupt_master_disable ; 0xc288
        0x0000ec6e:    4681        .F      MOV      r9,r0
        0x0000ec70:    2e00        ..      CMP      r6,#0
        0x0000ec72:    bf14        ..      ITE      NE
        0x0000ec74:    2101        .!      MOVNE    r1,#1
        0x0000ec76:    2100        .!      MOVEQ    r1,#0
        0x0000ec78:    f8d40824    ..$.    LDR      r0,[r4,#0x824]
        0x0000ec7c:    f7fefce4    ....    BL       am_hal_cmdq_post_block ; 0xd648
        0x0000ec80:    0005        ..      MOVS     r5,r0
        0x0000ec82:    d007        ..      BEQ      0xec94 ; am_hal_mspi_nonblocking_transfer + 268
        0x0000ec84:    4648        HF      MOV      r0,r9
        0x0000ec86:    f7fdfb03    ....    BL       am_hal_interrupt_master_set ; 0xc290
        0x0000ec8a:    f8d40824    ..$.    LDR      r0,[r4,#0x824]
        0x0000ec8e:    f7fefd2f    ../.    BL       am_hal_cmdq_release_block ; 0xd6f0
        0x0000ec92:    e027        '.      B        0xece4 ; am_hal_mspi_nonblocking_transfer + 348
        0x0000ec94:    69e7        .i      LDR      r7,[r4,#0x1c]
        0x0000ec96:    1c79        y.      ADDS     r1,r7,#1
        0x0000ec98:    61e1        .a      STR      r1,[r4,#0x1c]
        0x0000ec9a:    f8d4082c    ..,.    LDR      r0,[r4,#0x82c]
        0x0000ec9e:    1c41        A.      ADDS     r1,r0,#1
        0x0000eca0:    2000        .       MOVS     r0,#0
        0x0000eca2:    f8c4182c    ..,.    STR      r1,[r4,#0x82c]
        0x0000eca6:    f1b80f00    ....    CMP      r8,#0
        0x0000ecaa:    bf1c        ..      ITT      NE
        0x0000ecac:    f8840829    ..).    STRBNE   r0,[r4,#0x829]
        0x0000ecb0:    f8c40858    ..X.    STRNE    r0,[r4,#0x858]
        0x0000ecb4:    d109        ..      BNE      0xecca ; am_hal_mspi_nonblocking_transfer + 322
        0x0000ecb6:    2e00        ..      CMP      r6,#0
        0x0000ecb8:    bf18        ..      IT       NE
        0x0000ecba:    f8c40858    ..X.    STRNE    r0,[r4,#0x858]
        0x0000ecbe:    d104        ..      BNE      0xecca ; am_hal_mspi_nonblocking_transfer + 322
        0x0000ecc0:    f8d40858    ..X.    LDR      r0,[r4,#0x858]
        0x0000ecc4:    1c41        A.      ADDS     r1,r0,#1
        0x0000ecc6:    f8c41858    ..X.    STR      r1,[r4,#0x858]
        0x0000ecca:    4648        HF      MOV      r0,r9
        0x0000eccc:    f7fdfae0    ....    BL       am_hal_interrupt_master_set ; 0xc290
        0x0000ecd0:    b947        G.      CBNZ     r7,0xece4 ; am_hal_mspi_nonblocking_transfer + 348
        0x0000ecd2:    f8d40824    ..$.    LDR      r0,[r4,#0x824]
        0x0000ecd6:    f7fefc1f    ....    BL       am_hal_cmdq_enable ; 0xd518
        0x0000ecda:    0005        ..      MOVS     r5,r0
        0x0000ecdc:    bf1c        ..      ITT      NE
        0x0000ecde:    b003        ..      ADDNE    sp,sp,#0xc
        0x0000ece0:    e8bd8ff0    ....    POPNE    {r4-r11,pc}
        0x0000ece4:    4628        (F      MOV      r0,r5
        0x0000ece6:    b003        ..      ADD      sp,sp,#0xc
        0x0000ece8:    e8bd8ff0    ....    POP      {r4-r11,pc}
    $d
        0x0000ecec:    00bebebe    ....    DCD    12500670
        0x0000ecf0:    0001087d    }...    DCD    67709
    $t
    i.am_hal_mspi_power_control
    am_hal_mspi_power_control
        0x0000ecf4:    b570        p.      PUSH     {r4-r6,lr}
        0x0000ecf6:    1e04        ..      SUBS     r4,r0,#0
        0x0000ecf8:    bf1c        ..      ITT      NE
        0x0000ecfa:    6803        .h      LDRNE    r3,[r0,#0]
        0x0000ecfc:    f0137f80    ....    TSTNE    r3,#0x1000000
        0x0000ed00:    d005        ..      BEQ      0xed0e ; am_hal_mspi_power_control + 26
        0x0000ed02:    f8dfc180    ....    LDR      r12,[pc,#384] ; [0xee84] = 0xbebebe
        0x0000ed06:    f023457f    #..E    BIC      r5,r3,#0xff000000
        0x0000ed0a:    4565        eE      CMP      r5,r12
        0x0000ed0c:    d001        ..      BEQ      0xed12 ; am_hal_mspi_power_control + 30
        0x0000ed0e:    2002        .       MOVS     r0,#2
        0x0000ed10:    bd70        p.      POP      {r4-r6,pc}
        0x0000ed12:    4d5d        ]M      LDR      r5,[pc,#372] ; [0xee88] = 0x50014000
        0x0000ed14:    2900        .)      CMP      r1,#0
        0x0000ed16:    d066        f.      BEQ      0xede6 ; am_hal_mspi_power_control + 242
        0x0000ed18:    2901        .)      CMP      r1,#1
        0x0000ed1a:    bf1e        ..      ITTT     NE
        0x0000ed1c:    2902        .)      CMPNE    r1,#2
        0x0000ed1e:    2006        .       MOVNE    r0,#6
        0x0000ed20:    bd70        p.      POPNE    {r4-r6,pc}
        0x0000ed22:    f0137f00    ....    TST      r3,#0x2000000
        0x0000ed26:    d009        ..      BEQ      0xed3c ; am_hal_mspi_power_control + 72
        0x0000ed28:    f8d51254    ..T.    LDR      r1,[r5,#0x254]
        0x0000ed2c:    f0110f01    ....    TST      r1,#1
        0x0000ed30:    bf07        ..      ITTEE    EQ
        0x0000ed32:    f8d41840    ..@.    LDREQ    r1,[r4,#0x840]
        0x0000ed36:    2900        .)      CMPEQ    r1,#0
        0x0000ed38:    2003        .       MOVNE    r0,#3
        0x0000ed3a:    bd70        p.      POPNE    {r4-r6,pc}
        0x0000ed3c:    b3ea        ..      CBZ      r2,0xedba ; am_hal_mspi_power_control + 198
        0x0000ed3e:    6869        ih      LDR      r1,[r5,#4]
        0x0000ed40:    f8c41864    ..d.    STR      r1,[r4,#0x864]
        0x0000ed44:    f8d51100    ....    LDR      r1,[r5,#0x100]
        0x0000ed48:    f8c41868    ..h.    STR      r1,[r4,#0x868]
        0x0000ed4c:    f8d51104    ....    LDR      r1,[r5,#0x104]
        0x0000ed50:    f8c4186c    ..l.    STR      r1,[r4,#0x86c]
        0x0000ed54:    f8d51108    ....    LDR      r1,[r5,#0x108]
        0x0000ed58:    f8c41870    ..p.    STR      r1,[r4,#0x870]
        0x0000ed5c:    f8d5110c    ....    LDR      r1,[r5,#0x10c]
        0x0000ed60:    f8c41874    ..t.    STR      r1,[r4,#0x874]
        0x0000ed64:    f8d51120    .. .    LDR      r1,[r5,#0x120]
        0x0000ed68:    f8c41878    ..x.    STR      r1,[r4,#0x878]
        0x0000ed6c:    f8d512a8    ....    LDR      r1,[r5,#0x2a8]
        0x0000ed70:    f8c41880    ....    STR      r1,[r4,#0x880]
        0x0000ed74:    f8d512b8    ....    LDR      r1,[r5,#0x2b8]
        0x0000ed78:    f8c41884    ....    STR      r1,[r4,#0x884]
        0x0000ed7c:    f8d512b0    ....    LDR      r1,[r5,#0x2b0]
        0x0000ed80:    f8c41888    ....    STR      r1,[r4,#0x888]
        0x0000ed84:    f8d512c0    ....    LDR      r1,[r5,#0x2c0]
        0x0000ed88:    f8c4188c    ....    STR      r1,[r4,#0x88c]
        0x0000ed8c:    f8d512c4    ....    LDR      r1,[r5,#0x2c4]
        0x0000ed90:    f8c41890    ....    STR      r1,[r4,#0x890]
        0x0000ed94:    f8d51200    ....    LDR      r1,[r5,#0x200]
        0x0000ed98:    f8c41894    ....    STR      r1,[r4,#0x894]
        0x0000ed9c:    f8d51264    ..d.    LDR      r1,[r5,#0x264]
        0x0000eda0:    f8c41898    ....    STR      r1,[r4,#0x898]
        0x0000eda4:    f8d51278    ..x.    LDR      r1,[r5,#0x278]
        0x0000eda8:    f8c4189c    ....    STR      r1,[r4,#0x89c]
        0x0000edac:    f8d512a0    ....    LDR      r1,[r5,#0x2a0]
        0x0000edb0:    f8c4187c    ..|.    STR      r1,[r4,#0x87c]
        0x0000edb4:    f04f0101    O...    MOV      r1,#1
        0x0000edb8:    e000        ..      B        0xedbc ; am_hal_mspi_power_control + 200
        0x0000edba:    e001        ..      B        0xedc0 ; am_hal_mspi_power_control + 204
        0x0000edbc:    f8801860    ..`.    STRB     r1,[r0,#0x860]
        0x0000edc0:    4618        .F      MOV      r0,r3
        0x0000edc2:    f0137f80    ....    TST      r3,#0x1000000
        0x0000edc6:    d009        ..      BEQ      0xeddc ; am_hal_mspi_power_control + 232
        0x0000edc8:    f020407f     ..@    BIC      r0,r0,#0xff000000
        0x0000edcc:    4560        `E      CMP      r0,r12
        0x0000edce:    d105        ..      BNE      0xeddc ; am_hal_mspi_power_control + 232
        0x0000edd0:    f8d50200    ....    LDR      r0,[r5,#0x200]
        0x0000edd4:    f36f000c    o...    BFC      r0,#0,#13
        0x0000edd8:    f8c50200    ....    STR      r0,[r5,#0x200]
        0x0000eddc:    200c        .       MOVS     r0,#0xc
        0x0000edde:    f000f941    ..A.    BL       am_hal_pwrctrl_periph_disable ; 0xf064
        0x0000ede2:    2000        .       MOVS     r0,#0
        0x0000ede4:    bd70        p.      POP      {r4-r6,pc}
        0x0000ede6:    b3e2        ..      CBZ      r2,0xee62 ; am_hal_mspi_power_control + 366
        0x0000ede8:    f8940860    ..`.    LDRB     r0,[r4,#0x860]
        0x0000edec:    2800        .(      CMP      r0,#0
        0x0000edee:    bf04        ..      ITT      EQ
        0x0000edf0:    2007        .       MOVEQ    r0,#7
        0x0000edf2:    bd70        p.      POPEQ    {r4-r6,pc}
        0x0000edf4:    200c        .       MOVS     r0,#0xc
        0x0000edf6:    f000f95d    ..].    BL       am_hal_pwrctrl_periph_enable ; 0xf0b4
        0x0000edfa:    f8d40864    ..d.    LDR      r0,[r4,#0x864]
        0x0000edfe:    6068        h`      STR      r0,[r5,#4]
        0x0000ee00:    f8d40868    ..h.    LDR      r0,[r4,#0x868]
        0x0000ee04:    f8c50100    ....    STR      r0,[r5,#0x100]
        0x0000ee08:    f8d4086c    ..l.    LDR      r0,[r4,#0x86c]
        0x0000ee0c:    f8c50104    ....    STR      r0,[r5,#0x104]
        0x0000ee10:    f8d40870    ..p.    LDR      r0,[r4,#0x870]
        0x0000ee14:    f8c50108    ....    STR      r0,[r5,#0x108]
        0x0000ee18:    f8d40874    ..t.    LDR      r0,[r4,#0x874]
        0x0000ee1c:    f8c5010c    ....    STR      r0,[r5,#0x10c]
        0x0000ee20:    f8d40878    ..x.    LDR      r0,[r4,#0x878]
        0x0000ee24:    f8c50120    .. .    STR      r0,[r5,#0x120]
        0x0000ee28:    f8d40880    ....    LDR      r0,[r4,#0x880]
        0x0000ee2c:    f8c502a8    ....    STR      r0,[r5,#0x2a8]
        0x0000ee30:    f8d40884    ....    LDR      r0,[r4,#0x884]
        0x0000ee34:    f8c502b8    ....    STR      r0,[r5,#0x2b8]
        0x0000ee38:    f8d4088c    ....    LDR      r0,[r4,#0x88c]
        0x0000ee3c:    f8c502c0    ....    STR      r0,[r5,#0x2c0]
        0x0000ee40:    f8d40890    ....    LDR      r0,[r4,#0x890]
        0x0000ee44:    f8c502c4    ....    STR      r0,[r5,#0x2c4]
        0x0000ee48:    f8d40894    ....    LDR      r0,[r4,#0x894]
        0x0000ee4c:    f8c50200    ....    STR      r0,[r5,#0x200]
        0x0000ee50:    f8d40898    ....    LDR      r0,[r4,#0x898]
        0x0000ee54:    f8c50264    ..d.    STR      r0,[r5,#0x264]
        0x0000ee58:    f8d4089c    ....    LDR      r0,[r4,#0x89c]
        0x0000ee5c:    f8c50278    ..x.    STR      r0,[r5,#0x278]
        0x0000ee60:    e000        ..      B        0xee64 ; am_hal_mspi_power_control + 368
        0x0000ee62:    e00b        ..      B        0xee7c ; am_hal_mspi_power_control + 392
        0x0000ee64:    f8940888    ....    LDRB     r0,[r4,#0x888]
        0x0000ee68:    f8c502b4    ....    STR      r0,[r5,#0x2b4]
        0x0000ee6c:    f8d4087c    ..|.    LDR      r0,[r4,#0x87c]
        0x0000ee70:    f8c502a0    ....    STR      r0,[r5,#0x2a0]
        0x0000ee74:    2000        .       MOVS     r0,#0
        0x0000ee76:    f8840860    ..`.    STRB     r0,[r4,#0x860]
        0x0000ee7a:    e7b2        ..      B        0xede2 ; am_hal_mspi_power_control + 238
        0x0000ee7c:    200c        .       MOVS     r0,#0xc
        0x0000ee7e:    f000f919    ....    BL       am_hal_pwrctrl_periph_enable ; 0xf0b4
        0x0000ee82:    e7ae        ..      B        0xede2 ; am_hal_mspi_power_control + 238
    $d
        0x0000ee84:    00bebebe    ....    DCD    12500670
        0x0000ee88:    50014000    .@.P    DCD    1342259200
    $t
    i.am_hal_pwrctrl_low_power_init
    am_hal_pwrctrl_low_power_init
        0x0000ee8c:    e92d43f8    -..C    PUSH     {r3-r9,lr}
        0x0000ee90:    486e        nH      LDR      r0,[pc,#440] ; [0xf04c] = 0x10000148
        0x0000ee92:    6801        .h      LDR      r1,[r0,#0]
        0x0000ee94:    b911        ..      CBNZ     r1,0xee9c ; am_hal_pwrctrl_low_power_init + 16
        0x0000ee96:    496e        nI      LDR      r1,[pc,#440] ; [0xf050] = 0x4ffff000
        0x0000ee98:    6809        .h      LDR      r1,[r1,#0]
        0x0000ee9a:    6001        .`      STR      r1,[r0,#0]
        0x0000ee9c:    4c6d        mL      LDR      r4,[pc,#436] ; [0xf054] = 0x40020000
        0x0000ee9e:    68e0        .h      LDR      r0,[r4,#0xc]
        0x0000eea0:    4d6d        mM      LDR      r5,[pc,#436] ; [0xf058] = 0x40021000
        0x0000eea2:    b2c0        ..      UXTB     r0,r0
        0x0000eea4:    f04f0801    O...    MOV      r8,#1
        0x0000eea8:    2812        .(      CMP      r0,#0x12
        0x0000eeaa:    d127        '.      BNE      0xeefc ; am_hal_pwrctrl_low_power_init + 112
        0x0000eeac:    6868        hh      LDR      r0,[r5,#4]
        0x0000eeae:    f0100f01    ....    TST      r0,#1
        0x0000eeb2:    d023        #.      BEQ      0xeefc ; am_hal_pwrctrl_low_power_init + 112
        0x0000eeb4:    f04f090d    O...    MOV      r9,#0xd
        0x0000eeb8:    f7fdf9e6    ....    BL       am_hal_interrupt_master_disable ; 0xc288
        0x0000eebc:    9000        ..      STR      r0,[sp,#0]
        0x0000eebe:    68a8        .h      LDR      r0,[r5,#8]
        0x0000eec0:    4f66        fO      LDR      r7,[pc,#408] ; [0xf05c] = 0x10fb8
        0x0000eec2:    f8d7109c    ....    LDR      r1,[r7,#0x9c]
        0x0000eec6:    4308        .C      ORRS     r0,r0,r1
        0x0000eec8:    60a8        .`      STR      r0,[r5,#8]
        0x0000eeca:    9800        ..      LDR      r0,[sp,#0]
        0x0000eecc:    f7fdf9e0    ....    BL       am_hal_interrupt_master_set ; 0xc290
        0x0000eed0:    eb090049    ..I.    ADD      r0,r9,r9,LSL #1
        0x0000eed4:    2600        .&      MOVS     r6,#0
        0x0000eed6:    eb070780    ....    ADD      r7,r7,r0,LSL #2
        0x0000eeda:    20a0        .       MOVS     r0,#0xa0
        0x0000eedc:    f7fefc9a    ....    BL       am_hal_flash_delay ; 0xd814
        0x0000eee0:    69a9        .i      LDR      r1,[r5,#0x18]
        0x0000eee2:    6878        xh      LDR      r0,[r7,#4]
        0x0000eee4:    4201        .B      TST      r1,r0
        0x0000eee6:    d102        ..      BNE      0xeeee ; am_hal_pwrctrl_low_power_init + 98
        0x0000eee8:    360a        .6      ADDS     r6,r6,#0xa
        0x0000eeea:    2e14        ..      CMP      r6,#0x14
        0x0000eeec:    d3f5        ..      BCC      0xeeda ; am_hal_pwrctrl_low_power_init + 78
        0x0000eeee:    69a8        .i      LDR      r0,[r5,#0x18]
        0x0000eef0:    6879        yh      LDR      r1,[r7,#4]
        0x0000eef2:    4208        .B      TST      r0,r1
        0x0000eef4:    bf04        ..      ITT      EQ
        0x0000eef6:    4640        @F      MOVEQ    r0,r8
        0x0000eef8:    e8bd83f8    ....    POPEQ    {r3-r9,pc}
        0x0000eefc:    68e0        .h      LDR      r0,[r4,#0xc]
        0x0000eefe:    b2c0        ..      UXTB     r0,r0
        0x0000ef00:    2821        !(      CMP      r0,#0x21
        0x0000ef02:    d33c        <.      BCC      0xef7e ; am_hal_pwrctrl_low_power_init + 242
        0x0000ef04:    f8d40354    ..T.    LDR      r0,[r4,#0x354]
        0x0000ef08:    f4202070     .p     BIC      r0,r0,#0xf0000
        0x0000ef0c:    f5003000    ...0    ADD      r0,r0,#0x20000
        0x0000ef10:    f8c40354    ..T.    STR      r0,[r4,#0x354]
        0x0000ef14:    f8d40354    ..T.    LDR      r0,[r4,#0x354]
        0x0000ef18:    f4200070     .p.    BIC      r0,r0,#0xf00000
        0x0000ef1c:    f5001040    ..@.    ADD      r0,r0,#0x300000
        0x0000ef20:    f8c40354    ..T.    STR      r0,[r4,#0x354]
        0x0000ef24:    f8d40358    ..X.    LDR      r0,[r4,#0x358]
        0x0000ef28:    f020000f     ...    BIC      r0,r0,#0xf
        0x0000ef2c:    1d40        @.      ADDS     r0,r0,#5
        0x0000ef2e:    f8c40358    ..X.    STR      r0,[r4,#0x358]
        0x0000ef32:    f8d40358    ..X.    LDR      r0,[r4,#0x358]
        0x0000ef36:    f02000f0     ...    BIC      r0,r0,#0xf0
        0x0000ef3a:    3020         0      ADDS     r0,r0,#0x20
        0x0000ef3c:    f8c40358    ..X.    STR      r0,[r4,#0x358]
        0x0000ef40:    f8d40358    ..X.    LDR      r0,[r4,#0x358]
        0x0000ef44:    f4206070     .p`    BIC      r0,r0,#0xf00
        0x0000ef48:    f50060c0    ...`    ADD      r0,r0,#0x600
        0x0000ef4c:    f8c40358    ..X.    STR      r0,[r4,#0x358]
        0x0000ef50:    f8d40358    ..X.    LDR      r0,[r4,#0x358]
        0x0000ef54:    f4204070     .p@    BIC      r0,r0,#0xf000
        0x0000ef58:    f5005080    ...P    ADD      r0,r0,#0x1000
        0x0000ef5c:    f8c40358    ..X.    STR      r0,[r4,#0x358]
        0x0000ef60:    f8d40358    ..X.    LDR      r0,[r4,#0x358]
        0x0000ef64:    f02040f0     ..@    BIC      r0,r0,#0x78000000
        0x0000ef68:    f10050c0    ...P    ADD      r0,r0,#0x18000000
        0x0000ef6c:    f8c40358    ..X.    STR      r0,[r4,#0x358]
        0x0000ef70:    f8d4035c    ..\.    LDR      r0,[r4,#0x35c]
        0x0000ef74:    f020000f     ...    BIC      r0,r0,#0xf
        0x0000ef78:    1cc0        ..      ADDS     r0,r0,#3
        0x0000ef7a:    f8c4035c    ..\.    STR      r0,[r4,#0x35c]
        0x0000ef7e:    68e0        .h      LDR      r0,[r4,#0xc]
        0x0000ef80:    b2c0        ..      UXTB     r0,r0
        0x0000ef82:    2812        .(      CMP      r0,#0x12
        0x0000ef84:    d305        ..      BCC      0xef92 ; am_hal_pwrctrl_low_power_init + 262
        0x0000ef86:    f8d4035c    ..\.    LDR      r0,[r4,#0x35c]
        0x0000ef8a:    f0207080     ..p    BIC      r0,r0,#0x1000000
        0x0000ef8e:    f8c4035c    ..\.    STR      r0,[r4,#0x35c]
        0x0000ef92:    2100        .!      MOVS     r1,#0
        0x0000ef94:    200c        .       MOVS     r0,#0xc
        0x0000ef96:    f7fef839    ..9.    BL       am_hal_cachectrl_control ; 0xd00c
        0x0000ef9a:    69a8        .i      LDR      r0,[r5,#0x18]
        0x0000ef9c:    f4107f80    ....    TST      r0,#0x100
        0x0000efa0:    d151        Q.      BNE      0xf046 ; am_hal_pwrctrl_low_power_init + 442
        0x0000efa2:    68e0        .h      LDR      r0,[r4,#0xc]
        0x0000efa4:    b2c0        ..      UXTB     r0,r0
        0x0000efa6:    2812        .(      CMP      r0,#0x12
        0x0000efa8:    d31a        ..      BCC      0xefe0 ; am_hal_pwrctrl_low_power_init + 340
        0x0000efaa:    f7fdf96d    ..m.    BL       am_hal_interrupt_master_disable ; 0xc288
        0x0000efae:    9000        ..      STR      r0,[sp,#0]
        0x0000efb0:    f8d40368    ..h.    LDR      r0,[r4,#0x368]
        0x0000efb4:    f420607c     .|`    BIC      r0,r0,#0xfc0
        0x0000efb8:    f50060c8    ...`    ADD      r0,r0,#0x640
        0x0000efbc:    f8c40368    ..h.    STR      r0,[r4,#0x368]
        0x0000efc0:    f8d40368    ..h.    LDR      r0,[r4,#0x368]
        0x0000efc4:    f020003f     .?.    BIC      r0,r0,#0x3f
        0x0000efc8:    300c        .0      ADDS     r0,r0,#0xc
        0x0000efca:    f8c40368    ..h.    STR      r0,[r4,#0x368]
        0x0000efce:    f04f2040    O.@     MOV      r0,#0x40004000
        0x0000efd2:    6bc1        .k      LDR      r1,[r0,#0x3c]
        0x0000efd4:    f4210180    !...    BIC      r1,r1,#0x400000
        0x0000efd8:    63c1        .c      STR      r1,[r0,#0x3c]
        0x0000efda:    9800        ..      LDR      r0,[sp,#0]
        0x0000efdc:    f7fdf958    ..X.    BL       am_hal_interrupt_master_set ; 0xc290
        0x0000efe0:    69a0        .i      LDR      r0,[r4,#0x18]
        0x0000efe2:    f0400001    @...    ORR      r0,r0,#1
        0x0000efe6:    61a0        .a      STR      r0,[r4,#0x18]
        0x0000efe8:    2307        .#      MOVS     r3,#7
        0x0000efea:    461a        .F      MOV      r2,r3
        0x0000efec:    491c        .I      LDR      r1,[pc,#112] ; [0xf060] = 0x40020018
        0x0000efee:    f2427010    B..p    MOV      r0,#0x2710
        0x0000eff2:    f8cd8000    ....    STR      r8,[sp,#0]
        0x0000eff6:    f7fefc1f    ....    BL       am_hal_flash_delay_status_check ; 0xd838
        0x0000effa:    2800        .(      CMP      r0,#0
        0x0000effc:    bf1c        ..      ITT      NE
        0x0000effe:    2004        .       MOVNE    r0,#4
        0x0000f000:    e8bd83f8    ....    POPNE    {r3-r9,pc}
        0x0000f004:    6828        (h      LDR      r0,[r5,#0]
        0x0000f006:    f0400001    @...    ORR      r0,r0,#1
        0x0000f00a:    6028        (`      STR      r0,[r5,#0]
        0x0000f00c:    6a68        hj      LDR      r0,[r5,#0x24]
        0x0000f00e:    f0400040    @.@.    ORR      r0,r0,#0x40
        0x0000f012:    6268        hb      STR      r0,[r5,#0x24]
        0x0000f014:    68e0        .h      LDR      r0,[r4,#0xc]
        0x0000f016:    b2c0        ..      UXTB     r0,r0
        0x0000f018:    2811        .(      CMP      r0,#0x11
        0x0000f01a:    d114        ..      BNE      0xf046 ; am_hal_pwrctrl_low_power_init + 442
        0x0000f01c:    f8d4035c    ..\.    LDR      r0,[r4,#0x35c]
        0x0000f020:    f42000c0     ...    BIC      r0,r0,#0x600000
        0x0000f024:    f8c4035c    ..\.    STR      r0,[r4,#0x35c]
        0x0000f028:    f8d40368    ..h.    LDR      r0,[r4,#0x368]
        0x0000f02c:    f420607c     .|`    BIC      r0,r0,#0xfc0
        0x0000f030:    f5007070    ..pp    ADD      r0,r0,#0x3c0
        0x0000f034:    f8c40368    ..h.    STR      r0,[r4,#0x368]
        0x0000f038:    f8d40368    ..h.    LDR      r0,[r4,#0x368]
        0x0000f03c:    f020003f     .?.    BIC      r0,r0,#0x3f
        0x0000f040:    300f        .0      ADDS     r0,r0,#0xf
        0x0000f042:    f8c40368    ..h.    STR      r0,[r4,#0x368]
        0x0000f046:    2000        .       MOVS     r0,#0
        0x0000f048:    e8bd83f8    ....    POP      {r3-r9,pc}
    $d
        0x0000f04c:    10000148    H...    DCD    268435784
        0x0000f050:    4ffff000    ...O    DCD    1342173184
        0x0000f054:    40020000    ...@    DCD    1073872896
        0x0000f058:    40021000    ...@    DCD    1073876992
        0x0000f05c:    00010fb8    ....    DCD    69560
        0x0000f060:    40020018    ...@    DCD    1073872920
    $t
    i.am_hal_pwrctrl_periph_disable
    am_hal_pwrctrl_periph_disable
        0x0000f064:    b5f8        ..      PUSH     {r3-r7,lr}
        0x0000f066:    4605        .F      MOV      r5,r0
        0x0000f068:    f7fdf90e    ....    BL       am_hal_interrupt_master_disable ; 0xc288
        0x0000f06c:    4c0f        .L      LDR      r4,[pc,#60] ; [0xf0ac] = 0x40021000
        0x0000f06e:    9000        ..      STR      r0,[sp,#0]
        0x0000f070:    68a0        .h      LDR      r0,[r4,#8]
        0x0000f072:    4e0f        .N      LDR      r6,[pc,#60] ; [0xf0b0] = 0x10fb8
        0x0000f074:    eb050745    ..E.    ADD      r7,r5,r5,LSL #1
        0x0000f078:    f8561027    V.'.    LDR      r1,[r6,r7,LSL #2]
        0x0000f07c:    4388        .C      BICS     r0,r0,r1
        0x0000f07e:    60a0        .`      STR      r0,[r4,#8]
        0x0000f080:    9800        ..      LDR      r0,[sp,#0]
        0x0000f082:    f7fdf905    ....    BL       am_hal_interrupt_master_set ; 0xc290
        0x0000f086:    2500        .%      MOVS     r5,#0
        0x0000f088:    eb060687    ....    ADD      r6,r6,r7,LSL #2
        0x0000f08c:    20a0        .       MOVS     r0,#0xa0
        0x0000f08e:    f7fefbc1    ....    BL       am_hal_flash_delay ; 0xd814
        0x0000f092:    69a0        .i      LDR      r0,[r4,#0x18]
        0x0000f094:    6871        qh      LDR      r1,[r6,#4]
        0x0000f096:    4208        .B      TST      r0,r1
        0x0000f098:    d002        ..      BEQ      0xf0a0 ; am_hal_pwrctrl_periph_disable + 60
        0x0000f09a:    350a        .5      ADDS     r5,r5,#0xa
        0x0000f09c:    2d14        .-      CMP      r5,#0x14
        0x0000f09e:    d3f5        ..      BCC      0xf08c ; am_hal_pwrctrl_periph_disable + 40
        0x0000f0a0:    69a0        .i      LDR      r0,[r4,#0x18]
        0x0000f0a2:    4008        .@      ANDS     r0,r0,r1
        0x0000f0a4:    bf18        ..      IT       NE
        0x0000f0a6:    2001        .       MOVNE    r0,#1
        0x0000f0a8:    bdf8        ..      POP      {r3-r7,pc}
    $d
        0x0000f0aa:    0000        ..      DCW    0
        0x0000f0ac:    40021000    ...@    DCD    1073876992
        0x0000f0b0:    00010fb8    ....    DCD    69560
    $t
    i.am_hal_pwrctrl_periph_enable
    am_hal_pwrctrl_periph_enable
        0x0000f0b4:    b5f8        ..      PUSH     {r3-r7,lr}
        0x0000f0b6:    4605        .F      MOV      r5,r0
        0x0000f0b8:    f7fdf8e6    ....    BL       am_hal_interrupt_master_disable ; 0xc288
        0x0000f0bc:    4c0f        .L      LDR      r4,[pc,#60] ; [0xf0fc] = 0x40021000
        0x0000f0be:    9000        ..      STR      r0,[sp,#0]
        0x0000f0c0:    68a0        .h      LDR      r0,[r4,#8]
        0x0000f0c2:    4e0f        .N      LDR      r6,[pc,#60] ; [0xf100] = 0x10fb8
        0x0000f0c4:    eb050745    ..E.    ADD      r7,r5,r5,LSL #1
        0x0000f0c8:    f8561027    V.'.    LDR      r1,[r6,r7,LSL #2]
        0x0000f0cc:    4308        .C      ORRS     r0,r0,r1
        0x0000f0ce:    60a0        .`      STR      r0,[r4,#8]
        0x0000f0d0:    9800        ..      LDR      r0,[sp,#0]
        0x0000f0d2:    f7fdf8dd    ....    BL       am_hal_interrupt_master_set ; 0xc290
        0x0000f0d6:    2500        .%      MOVS     r5,#0
        0x0000f0d8:    eb060687    ....    ADD      r6,r6,r7,LSL #2
        0x0000f0dc:    20a0        .       MOVS     r0,#0xa0
        0x0000f0de:    f7fefb99    ....    BL       am_hal_flash_delay ; 0xd814
        0x0000f0e2:    69a0        .i      LDR      r0,[r4,#0x18]
        0x0000f0e4:    6871        qh      LDR      r1,[r6,#4]
        0x0000f0e6:    4208        .B      TST      r0,r1
        0x0000f0e8:    d102        ..      BNE      0xf0f0 ; am_hal_pwrctrl_periph_enable + 60
        0x0000f0ea:    350a        .5      ADDS     r5,r5,#0xa
        0x0000f0ec:    2d14        .-      CMP      r5,#0x14
        0x0000f0ee:    d3f5        ..      BCC      0xf0dc ; am_hal_pwrctrl_periph_enable + 40
        0x0000f0f0:    69a0        .i      LDR      r0,[r4,#0x18]
        0x0000f0f2:    4208        .B      TST      r0,r1
        0x0000f0f4:    bf14        ..      ITE      NE
        0x0000f0f6:    2000        .       MOVNE    r0,#0
        0x0000f0f8:    2001        .       MOVEQ    r0,#1
        0x0000f0fa:    bdf8        ..      POP      {r3-r7,pc}
    $d
        0x0000f0fc:    40021000    ...@    DCD    1073876992
        0x0000f100:    00010fb8    ....    DCD    69560
    $t
    i.am_hal_rtc_osc_disable
    am_hal_rtc_osc_disable
        0x0000f104:    f04f2040    O.@     MOV      r0,#0x40004000
        0x0000f108:    f8d01250    ..P.    LDR      r1,[r0,#0x250]
        0x0000f10c:    f0410110    A...    ORR      r1,r1,#0x10
        0x0000f110:    f8c01250    ..P.    STR      r1,[r0,#0x250]
        0x0000f114:    4770        pG      BX       lr
        0x0000f116:    0000        ..      MOVS     r0,r0
    i.am_hal_sysctrl_sleep
    am_hal_sysctrl_sleep
        0x0000f118:    b538        8.      PUSH     {r3-r5,lr}
        0x0000f11a:    4604        .F      MOV      r4,r0
        0x0000f11c:    f7fdf8b4    ....    BL       am_hal_interrupt_master_disable ; 0xc288
        0x0000f120:    4912        .I      LDR      r1,[pc,#72] ; [0xf16c] = 0xe000ed10
        0x0000f122:    9000        ..      STR      r0,[sp,#0]
        0x0000f124:    b12c        ,.      CBZ      r4,0xf132 ; am_hal_sysctrl_sleep + 26
        0x0000f126:    4812        .H      LDR      r0,[pc,#72] ; [0xf170] = 0x40020000
        0x0000f128:    f8d00250    ..P.    LDR      r0,[r0,#0x250]
        0x0000f12c:    f0100f01    ....    TST      r0,#1
        0x0000f130:    d003        ..      BEQ      0xf13a ; am_hal_sysctrl_sleep + 34
        0x0000f132:    6808        .h      LDR      r0,[r1,#0]
        0x0000f134:    f0200004     ...    BIC      r0,r0,#4
        0x0000f138:    e008        ..      B        0xf14c ; am_hal_sysctrl_sleep + 52
        0x0000f13a:    480e        .H      LDR      r0,[pc,#56] ; [0xf174] = 0x10000148
        0x0000f13c:    6802        .h      LDR      r2,[r0,#0]
        0x0000f13e:    b912        ..      CBNZ     r2,0xf146 ; am_hal_sysctrl_sleep + 46
        0x0000f140:    4a0d        .J      LDR      r2,[pc,#52] ; [0xf178] = 0x4ffff000
        0x0000f142:    6812        .h      LDR      r2,[r2,#0]
        0x0000f144:    6002        .`      STR      r2,[r0,#0]
        0x0000f146:    6808        .h      LDR      r0,[r1,#0]
        0x0000f148:    f0400004    @...    ORR      r0,r0,#4
        0x0000f14c:    6008        .`      STR      r0,[r1,#0]
        0x0000f14e:    f3bf8f4f    ..O.    DSB      
        0x0000f152:    480a        .H      LDR      r0,[pc,#40] ; [0xf17c] = 0x5fff0000
        0x0000f154:    490a        .I      LDR      r1,[pc,#40] ; [0xf180] = 0x100000ec
        0x0000f156:    6800        .h      LDR      r0,[r0,#0]
        0x0000f158:    6008        .`      STR      r0,[r1,#0]
        0x0000f15a:    bf30        0.      WFI      
        0x0000f15c:    f3bf8f6f    ..o.    ISB      
        0x0000f160:    9800        ..      LDR      r0,[sp,#0]
        0x0000f162:    e8bd4038    ..8@    POP      {r3-r5,lr}
        0x0000f166:    f7fdb893    ....    B        am_hal_interrupt_master_set ; 0xc290
    $d
        0x0000f16a:    0000        ..      DCW    0
        0x0000f16c:    e000ed10    ....    DCD    3758157072
        0x0000f170:    40020000    ...@    DCD    1073872896
        0x0000f174:    10000148    H...    DCD    268435784
        0x0000f178:    4ffff000    ...O    DCD    1342173184
        0x0000f17c:    5fff0000    ..._    DCD    1610547200
        0x0000f180:    100000ec    ....    DCD    268435692
    $t
    i.am_hal_tpiu_enable
    am_hal_tpiu_enable
        0x0000f184:    e92d41f0    -..A    PUSH     {r4-r8,lr}
        0x0000f188:    4c1d        .L      LDR      r4,[pc,#116] ; [0xf200] = 0xe0040000
        0x0000f18a:    b084        ..      SUB      sp,sp,#0x10
        0x0000f18c:    2600        .&      MOVS     r6,#0
        0x0000f18e:    6805        .h      LDR      r5,[r0,#0]
        0x0000f190:    f8c46304    ...c    STR      r6,[r4,#0x304]
        0x0000f194:    4f1b        .O      LDR      r7,[pc,#108] ; [0xf204] = 0xe0040f00
        0x0000f196:    f8df8070    ..p.    LDR      r8,[pc,#112] ; [0xf208] = 0x40020000
        0x0000f19a:    2101        .!      MOVS     r1,#1
        0x0000f19c:    b31d        ..      CBZ      r5,0xf1e6 ; am_hal_tpiu_enable + 98
        0x0000f19e:    6061        a`      STR      r1,[r4,#4]
        0x0000f1a0:    491a        .I      LDR      r1,[pc,#104] ; [0xf20c] = 0x1da381
        0x0000f1a2:    f5a54061    ..a@    SUB      r0,r5,#0xe100
        0x0000f1a6:    4288        .B      CMP      r0,r1
        0x0000f1a8:    bf28        (.      IT       CS
        0x0000f1aa:    4d19        .M      LDRCS    r5,[pc,#100] ; [0xf210] = 0xf4240
        0x0000f1ac:    4668        hF      MOV      r0,sp
        0x0000f1ae:    f7fef913    ....    BL       am_hal_clkgen_status_get ; 0xd3d8
        0x0000f1b2:    9800        ..      LDR      r0,[sp,#0]
        0x0000f1b4:    f1b03fff    ...?    CMP      r0,#0xffffffff
        0x0000f1b8:    bf1d        ..      ITTTE    NE
        0x0000f1ba:    08c0        ..      LSRNE    r0,r0,#3
        0x0000f1bc:    fbb0f0f5    ....    UDIVNE   r0,r0,r5
        0x0000f1c0:    1e40        @.      SUBNE    r0,r0,#1
        0x0000f1c2:    2005        .       MOVEQ    r0,#5
        0x0000f1c4:    b280        ..      UXTH     r0,r0
        0x0000f1c6:    6120         a      STR      r0,[r4,#0x10]
        0x0000f1c8:    2002        .       MOVS     r0,#2
        0x0000f1ca:    f8c400f0    ....    STR      r0,[r4,#0xf0]
        0x0000f1ce:    603e        >`      STR      r6,[r7,#0]
        0x0000f1d0:    f2402001    @..     MOV      r0,#0x201
        0x0000f1d4:    f8c80250    ..P.    STR      r0,[r8,#0x250]
        0x0000f1d8:    f44f7048    O.Hp    MOV      r0,#0x320
        0x0000f1dc:    f7fefb1a    ....    BL       am_hal_flash_delay ; 0xd814
        0x0000f1e0:    b004        ..      ADD      sp,sp,#0x10
        0x0000f1e2:    e8bd81f0    ....    POP      {r4-r8,pc}
        0x0000f1e6:    6902        .i      LDR      r2,[r0,#0x10]
        0x0000f1e8:    6122        "a      STR      r2,[r4,#0x10]
        0x0000f1ea:    6882        .h      LDR      r2,[r0,#8]
        0x0000f1ec:    f8c420f0    ...     STR      r2,[r4,#0xf0]
        0x0000f1f0:    7b02        .{      LDRB     r2,[r0,#0xc]
        0x0000f1f2:    1e52        R.      SUBS     r2,r2,#1
        0x0000f1f4:    4091        .@      LSLS     r1,r1,r2
        0x0000f1f6:    6061        a`      STR      r1,[r4,#4]
        0x0000f1f8:    603e        >`      STR      r6,[r7,#0]
        0x0000f1fa:    6840        @h      LDR      r0,[r0,#4]
        0x0000f1fc:    e7ea        ..      B        0xf1d4 ; am_hal_tpiu_enable + 80
    $d
        0x0000f1fe:    0000        ..      DCW    0
        0x0000f200:    e0040000    ....    DCD    3758358528
        0x0000f204:    e0040f00    ....    DCD    3758362368
        0x0000f208:    40020000    ...@    DCD    1073872896
        0x0000f20c:    001da381    ....    DCD    1942401
        0x0000f210:    000f4240    @B..    DCD    1000000
    $t
    i.am_util_delay_ms
    am_util_delay_ms
        0x0000f214:    b5fe        ..      PUSH     {r1-r7,lr}
        0x0000f216:    4604        .F      MOV      r4,r0
        0x0000f218:    4668        hF      MOV      r0,sp
        0x0000f21a:    f7fef8dd    ....    BL       am_hal_clkgen_status_get ; 0xd3d8
        0x0000f21e:    9e00        ..      LDR      r6,[sp,#0]
        0x0000f220:    f64030b8    @..0    MOV      r0,#0xbb8
        0x0000f224:    fbb6f0f0    ....    UDIV     r0,r6,r0
        0x0000f228:    fb00f504    ....    MUL      r5,r0,r4
        0x0000f22c:    4628        (F      MOV      r0,r5
        0x0000f22e:    f7fefaf1    ....    BL       am_hal_flash_delay ; 0xd814
        0x0000f232:    bdfe        ..      POP      {r1-r7,pc}
    i.am_util_delay_us
    am_util_delay_us
        0x0000f234:    b5fe        ..      PUSH     {r1-r7,lr}
        0x0000f236:    4604        .F      MOV      r4,r0
        0x0000f238:    4668        hF      MOV      r0,sp
        0x0000f23a:    f7fef8cd    ....    BL       am_hal_clkgen_status_get ; 0xd3d8
        0x0000f23e:    9e00        ..      LDR      r6,[sp,#0]
        0x0000f240:    4804        .H      LDR      r0,[pc,#16] ; [0xf254] = 0x2dc6c0
        0x0000f242:    fbb6f0f0    ....    UDIV     r0,r6,r0
        0x0000f246:    fb00f504    ....    MUL      r5,r0,r4
        0x0000f24a:    4628        (F      MOV      r0,r5
        0x0000f24c:    f7fefae2    ....    BL       am_hal_flash_delay ; 0xd814
        0x0000f250:    bdfe        ..      POP      {r1-r7,pc}
    $d
        0x0000f252:    0000        ..      DCW    0
        0x0000f254:    002dc6c0    ..-.    DCD    3000000
    $t
    i.am_util_faultisr_collect_data
    am_util_faultisr_collect_data
        0x0000f258:    b092        ..      SUB      sp,sp,#0x48
        0x0000f25a:    4605        .F      MOV      r5,r0
        0x0000f25c:    2118        .!      MOVS     r1,#0x18
        0x0000f25e:    4668        hF      MOV      r0,sp
        0x0000f260:    f7fdf858    ..X.    BL       __aeabi_memclr4 ; 0xc314
        0x0000f264:    2400        .$      MOVS     r4,#0
        0x0000f266:    9410        ..      STR      r4,[sp,#0x40]
        0x0000f268:    4871        qH      LDR      r0,[pc,#452] ; [0xf430] = 0xe000ed28
        0x0000f26a:    6800        .h      LDR      r0,[r0,#0]
        0x0000f26c:    9010        ..      STR      r0,[sp,#0x40]
        0x0000f26e:    9810        ..      LDR      r0,[sp,#0x40]
        0x0000f270:    b2c0        ..      UXTB     r0,r0
        0x0000f272:    f88d0044    ..D.    STRB     r0,[sp,#0x44]
        0x0000f276:    9810        ..      LDR      r0,[sp,#0x40]
        0x0000f278:    0a00        ..      LSRS     r0,r0,#8
        0x0000f27a:    f88d0045    ..E.    STRB     r0,[sp,#0x45]
        0x0000f27e:    9810        ..      LDR      r0,[sp,#0x40]
        0x0000f280:    f64f71ff    O..q    MOV      r1,#0xffff
        0x0000f284:    ea014010    ...@    AND      r0,r1,r0,LSR #16
        0x0000f288:    f8ad0046    ..F.    STRH     r0,[sp,#0x46]
        0x0000f28c:    4868        hH      LDR      r0,[pc,#416] ; [0xf430] = 0xe000ed28
        0x0000f28e:    3010        .0      ADDS     r0,r0,#0x10
        0x0000f290:    6800        .h      LDR      r0,[r0,#0]
        0x0000f292:    900f        ..      STR      r0,[sp,#0x3c]
        0x0000f294:    f89d0045    ..E.    LDRB     r0,[sp,#0x45]
        0x0000f298:    f0000002    ....    AND      r0,r0,#2
        0x0000f29c:    b120         .      CBZ      r0,0xf2a8 ; am_util_faultisr_collect_data + 80
        0x0000f29e:    4629        )F      MOV      r1,r5
        0x0000f2a0:    2006        .       MOVS     r0,#6
        0x0000f2a2:    f7fcffe8    ....    BL       getStackedReg ; 0xc276
        0x0000f2a6:    e001        ..      B        0xf2ac ; am_util_faultisr_collect_data + 84
        0x0000f2a8:    f04f30ff    O..0    MOV      r0,#0xffffffff
        0x0000f2ac:    900e        ..      STR      r0,[sp,#0x38]
        0x0000f2ae:    4629        )F      MOV      r1,r5
        0x0000f2b0:    2000        .       MOVS     r0,#0
        0x0000f2b2:    f7fcffe0    ....    BL       getStackedReg ; 0xc276
        0x0000f2b6:    9006        ..      STR      r0,[sp,#0x18]
        0x0000f2b8:    4629        )F      MOV      r1,r5
        0x0000f2ba:    2001        .       MOVS     r0,#1
        0x0000f2bc:    f7fcffdb    ....    BL       getStackedReg ; 0xc276
        0x0000f2c0:    9007        ..      STR      r0,[sp,#0x1c]
        0x0000f2c2:    4629        )F      MOV      r1,r5
        0x0000f2c4:    2002        .       MOVS     r0,#2
        0x0000f2c6:    f7fcffd6    ....    BL       getStackedReg ; 0xc276
        0x0000f2ca:    9008        ..      STR      r0,[sp,#0x20]
        0x0000f2cc:    4629        )F      MOV      r1,r5
        0x0000f2ce:    2003        .       MOVS     r0,#3
        0x0000f2d0:    f7fcffd1    ....    BL       getStackedReg ; 0xc276
        0x0000f2d4:    9009        ..      STR      r0,[sp,#0x24]
        0x0000f2d6:    4629        )F      MOV      r1,r5
        0x0000f2d8:    2004        .       MOVS     r0,#4
        0x0000f2da:    f7fcffcc    ....    BL       getStackedReg ; 0xc276
        0x0000f2de:    900a        ..      STR      r0,[sp,#0x28]
        0x0000f2e0:    4629        )F      MOV      r1,r5
        0x0000f2e2:    2005        .       MOVS     r0,#5
        0x0000f2e4:    f7fcffc7    ....    BL       getStackedReg ; 0xc276
        0x0000f2e8:    900b        ..      STR      r0,[sp,#0x2c]
        0x0000f2ea:    4629        )F      MOV      r1,r5
        0x0000f2ec:    2006        .       MOVS     r0,#6
        0x0000f2ee:    f7fcffc2    ....    BL       getStackedReg ; 0xc276
        0x0000f2f2:    900c        ..      STR      r0,[sp,#0x30]
        0x0000f2f4:    4629        )F      MOV      r1,r5
        0x0000f2f6:    2007        .       MOVS     r0,#7
        0x0000f2f8:    f7fcffbd    ....    BL       getStackedReg ; 0xc276
        0x0000f2fc:    900d        ..      STR      r0,[sp,#0x34]
        0x0000f2fe:    4669        iF      MOV      r1,sp
        0x0000f300:    2002        .       MOVS     r0,#2
        0x0000f302:    f7fefd45    ..E.    BL       am_hal_mcuctrl_info_get ; 0xdd90
        0x0000f306:    a04b        K.      ADR      r0,{pc}+0x12e ; 0xf434
        0x0000f308:    f000fa18    ....    BL       am_util_stdio_printf ; 0xf73c
        0x0000f30c:    9906        ..      LDR      r1,[sp,#0x18]
        0x0000f30e:    a050        P.      ADR      r0,{pc}+0x142 ; 0xf450
        0x0000f310:    f000fa14    ....    BL       am_util_stdio_printf ; 0xf73c
        0x0000f314:    9907        ..      LDR      r1,[sp,#0x1c]
        0x0000f316:    a053        S.      ADR      r0,{pc}+0x14e ; 0xf464
        0x0000f318:    f000fa10    ....    BL       am_util_stdio_printf ; 0xf73c
        0x0000f31c:    9908        ..      LDR      r1,[sp,#0x20]
        0x0000f31e:    a056        V.      ADR      r0,{pc}+0x15a ; 0xf478
        0x0000f320:    f000fa0c    ....    BL       am_util_stdio_printf ; 0xf73c
        0x0000f324:    9909        ..      LDR      r1,[sp,#0x24]
        0x0000f326:    a059        Y.      ADR      r0,{pc}+0x166 ; 0xf48c
        0x0000f328:    f000fa08    ....    BL       am_util_stdio_printf ; 0xf73c
        0x0000f32c:    990a        ..      LDR      r1,[sp,#0x28]
        0x0000f32e:    a05c        \.      ADR      r0,{pc}+0x172 ; 0xf4a0
        0x0000f330:    f000fa04    ....    BL       am_util_stdio_printf ; 0xf73c
        0x0000f334:    990b        ..      LDR      r1,[sp,#0x2c]
        0x0000f336:    a05f        _.      ADR      r0,{pc}+0x17e ; 0xf4b4
        0x0000f338:    f000fa00    ....    BL       am_util_stdio_printf ; 0xf73c
        0x0000f33c:    990c        ..      LDR      r1,[sp,#0x30]
        0x0000f33e:    a062        b.      ADR      r0,{pc}+0x18a ; 0xf4c8
        0x0000f340:    f000f9fc    ....    BL       am_util_stdio_printf ; 0xf73c
        0x0000f344:    990d        ..      LDR      r1,[sp,#0x34]
        0x0000f346:    a065        e.      ADR      r0,{pc}+0x196 ; 0xf4dc
        0x0000f348:    f000f9f8    ....    BL       am_util_stdio_printf ; 0xf73c
        0x0000f34c:    a068        h.      ADR      r0,{pc}+0x1a4 ; 0xf4f0
        0x0000f34e:    f000f9f5    ....    BL       am_util_stdio_printf ; 0xf73c
        0x0000f352:    990e        ..      LDR      r1,[sp,#0x38]
        0x0000f354:    a06c        l.      ADR      r0,{pc}+0x1b4 ; 0xf508
        0x0000f356:    f000f9f1    ....    BL       am_util_stdio_printf ; 0xf73c
        0x0000f35a:    990f        ..      LDR      r1,[sp,#0x3c]
        0x0000f35c:    a071        q.      ADR      r0,{pc}+0x1c8 ; 0xf524
        0x0000f35e:    f000f9ed    ....    BL       am_util_stdio_printf ; 0xf73c
        0x0000f362:    f89d1044    ..D.    LDRB     r1,[sp,#0x44]
        0x0000f366:    a079        y.      ADR      r0,{pc}+0x1e6 ; 0xf54c
        0x0000f368:    f000f9e8    ....    BL       am_util_stdio_printf ; 0xf73c
        0x0000f36c:    f89d1045    ..E.    LDRB     r1,[sp,#0x45]
        0x0000f370:    a082        ..      ADR      r0,{pc}+0x20c ; 0xf57c
        0x0000f372:    f000f9e3    ....    BL       am_util_stdio_printf ; 0xf73c
        0x0000f376:    f8bd1046    ..F.    LDRH     r1,[sp,#0x46]
        0x0000f37a:    a08b        ..      ADR      r0,{pc}+0x22e ; 0xf5a8
        0x0000f37c:    f000f9de    ....    BL       am_util_stdio_printf ; 0xf73c
        0x0000f380:    2480        .$      MOVS     r4,#0x80
        0x0000f382:    e037        7.      B        0xf3f4 ; am_util_faultisr_collect_data + 412
        0x0000f384:    f89d0045    ..E.    LDRB     r0,[sp,#0x45]
        0x0000f388:    4020         @      ANDS     r0,r0,r4
        0x0000f38a:    2810        .(      CMP      r0,#0x10
        0x0000f38c:    d01b        ..      BEQ      0xf3c6 ; am_util_faultisr_collect_data + 366
        0x0000f38e:    dc08        ..      BGT      0xf3a2 ; am_util_faultisr_collect_data + 330
        0x0000f390:    2801        .(      CMP      r0,#1
        0x0000f392:    d028        (.      BEQ      0xf3e6 ; am_util_faultisr_collect_data + 398
        0x0000f394:    2802        .(      CMP      r0,#2
        0x0000f396:    d022        ".      BEQ      0xf3de ; am_util_faultisr_collect_data + 390
        0x0000f398:    2804        .(      CMP      r0,#4
        0x0000f39a:    d01c        ..      BEQ      0xf3d6 ; am_util_faultisr_collect_data + 382
        0x0000f39c:    2808        .(      CMP      r0,#8
        0x0000f39e:    d126        &.      BNE      0xf3ee ; am_util_faultisr_collect_data + 406
        0x0000f3a0:    e015        ..      B        0xf3ce ; am_util_faultisr_collect_data + 374
        0x0000f3a2:    2820         (      CMP      r0,#0x20
        0x0000f3a4:    d00b        ..      BEQ      0xf3be ; am_util_faultisr_collect_data + 358
        0x0000f3a6:    2840        @(      CMP      r0,#0x40
        0x0000f3a8:    d005        ..      BEQ      0xf3b6 ; am_util_faultisr_collect_data + 350
        0x0000f3aa:    2880        .(      CMP      r0,#0x80
        0x0000f3ac:    d11f        ..      BNE      0xf3ee ; am_util_faultisr_collect_data + 406
        0x0000f3ae:    a089        ..      ADR      r0,{pc}+0x226 ; 0xf5d4
        0x0000f3b0:    f000f9c4    ....    BL       am_util_stdio_printf ; 0xf73c
        0x0000f3b4:    e01c        ..      B        0xf3f0 ; am_util_faultisr_collect_data + 408
        0x0000f3b6:    a08f        ..      ADR      r0,{pc}+0x23e ; 0xf5f4
        0x0000f3b8:    f000f9c0    ....    BL       am_util_stdio_printf ; 0xf73c
        0x0000f3bc:    e018        ..      B        0xf3f0 ; am_util_faultisr_collect_data + 408
        0x0000f3be:    a095        ..      ADR      r0,{pc}+0x256 ; 0xf614
        0x0000f3c0:    f000f9bc    ....    BL       am_util_stdio_printf ; 0xf73c
        0x0000f3c4:    e014        ..      B        0xf3f0 ; am_util_faultisr_collect_data + 408
        0x0000f3c6:    a09a        ..      ADR      r0,{pc}+0x26a ; 0xf630
        0x0000f3c8:    f000f9b8    ....    BL       am_util_stdio_printf ; 0xf73c
        0x0000f3cc:    e010        ..      B        0xf3f0 ; am_util_faultisr_collect_data + 408
        0x0000f3ce:    a09f        ..      ADR      r0,{pc}+0x27e ; 0xf64c
        0x0000f3d0:    f000f9b4    ....    BL       am_util_stdio_printf ; 0xf73c
        0x0000f3d4:    e00c        ..      B        0xf3f0 ; am_util_faultisr_collect_data + 408
        0x0000f3d6:    a0a5        ..      ADR      r0,{pc}+0x296 ; 0xf66c
        0x0000f3d8:    f000f9b0    ....    BL       am_util_stdio_printf ; 0xf73c
        0x0000f3dc:    e008        ..      B        0xf3f0 ; am_util_faultisr_collect_data + 408
        0x0000f3de:    a0ab        ..      ADR      r0,{pc}+0x2ae ; 0xf68c
        0x0000f3e0:    f000f9ac    ....    BL       am_util_stdio_printf ; 0xf73c
        0x0000f3e4:    e004        ..      B        0xf3f0 ; am_util_faultisr_collect_data + 408
        0x0000f3e6:    a0b1        ..      ADR      r0,{pc}+0x2c6 ; 0xf6ac
        0x0000f3e8:    f000f9a8    ....    BL       am_util_stdio_printf ; 0xf73c
        0x0000f3ec:    e000        ..      B        0xf3f0 ; am_util_faultisr_collect_data + 408
        0x0000f3ee:    bf00        ..      NOP      
        0x0000f3f0:    bf00        ..      NOP      
        0x0000f3f2:    0864        d.      LSRS     r4,r4,#1
        0x0000f3f4:    2c00        .,      CMP      r4,#0
        0x0000f3f6:    d1c5        ..      BNE      0xf384 ; am_util_faultisr_collect_data + 300
        0x0000f3f8:    a0b3        ..      ADR      r0,{pc}+0x2d0 ; 0xf6c8
        0x0000f3fa:    f000f99f    ....    BL       am_util_stdio_printf ; 0xf73c
        0x0000f3fe:    f89d0000    ....    LDRB     r0,[sp,#0]
        0x0000f402:    b118        ..      CBZ      r0,0xf40c ; am_util_faultisr_collect_data + 436
        0x0000f404:    a0b5        ..      ADR      r0,{pc}+0x2d8 ; 0xf6dc
        0x0000f406:    9901        ..      LDR      r1,[sp,#4]
        0x0000f408:    f000f998    ....    BL       am_util_stdio_printf ; 0xf73c
        0x0000f40c:    f89d0008    ....    LDRB     r0,[sp,#8]
        0x0000f410:    b118        ..      CBZ      r0,0xf41a ; am_util_faultisr_collect_data + 450
        0x0000f412:    a0ba        ..      ADR      r0,{pc}+0x2ea ; 0xf6fc
        0x0000f414:    9903        ..      LDR      r1,[sp,#0xc]
        0x0000f416:    f000f991    ....    BL       am_util_stdio_printf ; 0xf73c
        0x0000f41a:    f89d0010    ....    LDRB     r0,[sp,#0x10]
        0x0000f41e:    b118        ..      CBZ      r0,0xf428 ; am_util_faultisr_collect_data + 464
        0x0000f420:    a0be        ..      ADR      r0,{pc}+0x2fc ; 0xf71c
        0x0000f422:    9905        ..      LDR      r1,[sp,#0x14]
        0x0000f424:    f000f98a    ....    BL       am_util_stdio_printf ; 0xf73c
        0x0000f428:    bf00        ..      NOP      
        0x0000f42a:    bf00        ..      NOP      
        0x0000f42c:    e7fe        ..      B        0xf42c ; am_util_faultisr_collect_data + 468
    $d
        0x0000f42e:    0000        ..      DCW    0
        0x0000f430:    e000ed28    (...    DCD    3758157096
        0x0000f434:    64726148    Hard    DCD    1685217608
        0x0000f438:    75614620     Fau    DCD    1969309216
        0x0000f43c:    7320746c    lt s    DCD    1931506796
        0x0000f440:    6b636174    tack    DCD    1801675124
        0x0000f444:    64206465    ed d    DCD    1679844453
        0x0000f448:    3a617461    ata:    DCD    979465313
        0x0000f44c:    0000000a    ....    DCD    10
        0x0000f450:    20202020            DCD    538976288
        0x0000f454:    20203052    R0      DCD    538980434
        0x0000f458:    7830203d    = 0x    DCD    2016419901
        0x0000f45c:    58383025    %08X    DCD    1480077349
        0x0000f460:    0000000a    ....    DCD    10
        0x0000f464:    20202020            DCD    538976288
        0x0000f468:    20203152    R1      DCD    538980690
        0x0000f46c:    7830203d    = 0x    DCD    2016419901
        0x0000f470:    58383025    %08X    DCD    1480077349
        0x0000f474:    0000000a    ....    DCD    10
        0x0000f478:    20202020            DCD    538976288
        0x0000f47c:    20203252    R2      DCD    538980946
        0x0000f480:    7830203d    = 0x    DCD    2016419901
        0x0000f484:    58383025    %08X    DCD    1480077349
        0x0000f488:    0000000a    ....    DCD    10
        0x0000f48c:    20202020            DCD    538976288
        0x0000f490:    20203352    R3      DCD    538981202
        0x0000f494:    7830203d    = 0x    DCD    2016419901
        0x0000f498:    58383025    %08X    DCD    1480077349
        0x0000f49c:    0000000a    ....    DCD    10
        0x0000f4a0:    20202020            DCD    538976288
        0x0000f4a4:    20323152    R12     DCD    540160338
        0x0000f4a8:    7830203d    = 0x    DCD    2016419901
        0x0000f4ac:    58383025    %08X    DCD    1480077349
        0x0000f4b0:    0000000a    ....    DCD    10
        0x0000f4b4:    20202020            DCD    538976288
        0x0000f4b8:    2020524c    LR      DCD    538989132
        0x0000f4bc:    7830203d    = 0x    DCD    2016419901
        0x0000f4c0:    58383025    %08X    DCD    1480077349
        0x0000f4c4:    0000000a    ....    DCD    10
        0x0000f4c8:    20202020            DCD    538976288
        0x0000f4cc:    20204350    PC      DCD    538985296
        0x0000f4d0:    7830203d    = 0x    DCD    2016419901
        0x0000f4d4:    58383025    %08X    DCD    1480077349
        0x0000f4d8:    0000000a    ....    DCD    10
        0x0000f4dc:    20202020            DCD    538976288
        0x0000f4e0:    20525350    PSR     DCD    542266192
        0x0000f4e4:    7830203d    = 0x    DCD    2016419901
        0x0000f4e8:    58383025    %08X    DCD    1480077349
        0x0000f4ec:    0000000a    ....    DCD    10
        0x0000f4f0:    6568744f    Othe    DCD    1701344335
        0x0000f4f4:    61482072    r Ha    DCD    1632116850
        0x0000f4f8:    46206472    rd F    DCD    1176527986
        0x0000f4fc:    746c7561    ault    DCD    1953264993
        0x0000f500:    74616420     dat    DCD    1952539680
        0x0000f504:    000a3a61    a:..    DCD    670305
        0x0000f508:    20202020            DCD    538976288
        0x0000f50c:    6c756146    Faul    DCD    1819631942
        0x0000f510:    64612074    t ad    DCD    1684086900
        0x0000f514:    73657264    dres    DCD    1936028260
        0x0000f518:    203d2073    s =     DCD    540876915
        0x0000f51c:    30257830    0x%0    DCD    807761968
        0x0000f520:    000a5838    8X..    DCD    677944
        0x0000f524:    20202020            DCD    538976288
        0x0000f528:    52414642    BFAR    DCD    1380009538
        0x0000f52c:    75422820     (Bu    DCD    1967269920
        0x0000f530:    61462073    s Fa    DCD    1631985779
        0x0000f534:    20746c75    ult     DCD    544500853
        0x0000f538:    72646441    Addr    DCD    1919181889
        0x0000f53c:    67655220     Reg    DCD    1734693408
        0x0000f540:    203d2029    ) =     DCD    540876841
        0x0000f544:    30257830    0x%0    DCD    807761968
        0x0000f548:    000a5838    8X..    DCD    677944
        0x0000f54c:    20202020            DCD    538976288
        0x0000f550:    52534d4d    MMSR    DCD    1381190989
        0x0000f554:    654d2820     (Me    DCD    1699555360
        0x0000f558:    674d206d    m Mg    DCD    1733107821
        0x0000f55c:    4620746d    mt F    DCD    1176532077
        0x0000f560:    746c7561    ault    DCD    1953264993
        0x0000f564:    61745320     Sta    DCD    1635013408
        0x0000f568:    20737574    tus     DCD    544437620
        0x0000f56c:    29676552    Reg)    DCD    694642002
        0x0000f570:    30203d20     = 0    DCD    807419168
        0x0000f574:    32302578    x%02    DCD    842016120
        0x0000f578:    00000a58    X...    DCD    2648
        0x0000f57c:    20202020            DCD    538976288
        0x0000f580:    52534642    BFSR    DCD    1381189186
        0x0000f584:    75422820     (Bu    DCD    1967269920
        0x0000f588:    61462073    s Fa    DCD    1631985779
        0x0000f58c:    20746c75    ult     DCD    544500853
        0x0000f590:    74617453    Stat    DCD    1952543827
        0x0000f594:    52207375    us R    DCD    1377858421
        0x0000f598:    20296765    eg)     DCD    539584357
        0x0000f59c:    7830203d    = 0x    DCD    2016419901
        0x0000f5a0:    58323025    %02X    DCD    1479684133
        0x0000f5a4:    0000000a    ....    DCD    10
        0x0000f5a8:    20202020            DCD    538976288
        0x0000f5ac:    52534655    UFSR    DCD    1381189205
        0x0000f5b0:    73552820     (Us    DCD    1934960672
        0x0000f5b4:    20656761    age     DCD    543516513
        0x0000f5b8:    6c756146    Faul    DCD    1819631942
        0x0000f5bc:    74532074    t St    DCD    1951604852
        0x0000f5c0:    73757461    atus    DCD    1937077345
        0x0000f5c4:    67655220     Reg    DCD    1734693408
        0x0000f5c8:    203d2029    ) =     DCD    540876841
        0x0000f5cc:    30257830    0x%0    DCD    807761968
        0x0000f5d0:    000a5834    4X..    DCD    677940
        0x0000f5d4:    20202020            DCD    538976288
        0x0000f5d8:    20202020            DCD    538976288
        0x0000f5dc:    52534642    BFSR    DCD    1381189186
        0x0000f5e0:    74696220     bit    DCD    1953063456
        0x0000f5e4:    42203a37    7: B    DCD    1109408311
        0x0000f5e8:    56524146    FARV    DCD    1448231238
        0x0000f5ec:    44494c41    ALID    DCD    1145654337
        0x0000f5f0:    0000000a    ....    DCD    10
        0x0000f5f4:    20202020            DCD    538976288
        0x0000f5f8:    20202020            DCD    538976288
        0x0000f5fc:    52534642    BFSR    DCD    1381189186
        0x0000f600:    74696220     bit    DCD    1953063456
        0x0000f604:    52203a36    6: R    DCD    1377843766
        0x0000f608:    52455345    ESER    DCD    1380275013
        0x0000f60c:    0a444556    VED.    DCD    172246358
        0x0000f610:    00000000    ....    DCD    0
        0x0000f614:    20202020            DCD    538976288
        0x0000f618:    20202020            DCD    538976288
        0x0000f61c:    52534642    BFSR    DCD    1381189186
        0x0000f620:    74696220     bit    DCD    1953063456
        0x0000f624:    4c203a35    5: L    DCD    1277180469
        0x0000f628:    52455053    SPER    DCD    1380274259
        0x0000f62c:    00000a52    R...    DCD    2642
        0x0000f630:    20202020            DCD    538976288
        0x0000f634:    20202020            DCD    538976288
        0x0000f638:    52534642    BFSR    DCD    1381189186
        0x0000f63c:    74696220     bit    DCD    1953063456
        0x0000f640:    53203a34    4: S    DCD    1394620980
        0x0000f644:    52454b54    TKER    DCD    1380272980
        0x0000f648:    00000a52    R...    DCD    2642
        0x0000f64c:    20202020            DCD    538976288
        0x0000f650:    20202020            DCD    538976288
        0x0000f654:    52534642    BFSR    DCD    1381189186
        0x0000f658:    74696220     bit    DCD    1953063456
        0x0000f65c:    55203a33    3: U    DCD    1428175411
        0x0000f660:    4b54534e    NSTK    DCD    1263817550
        0x0000f664:    0a525245    ERR.    DCD    173167173
        0x0000f668:    00000000    ....    DCD    0
        0x0000f66c:    20202020            DCD    538976288
        0x0000f670:    20202020            DCD    538976288
        0x0000f674:    52534642    BFSR    DCD    1381189186
        0x0000f678:    74696220     bit    DCD    1953063456
        0x0000f67c:    49203a32    2: I    DCD    1226848818
        0x0000f680:    4552504d    MPRE    DCD    1163022413
        0x0000f684:    45534943    CISE    DCD    1163086147
        0x0000f688:    000a5252    RR..    DCD    676434
        0x0000f68c:    20202020            DCD    538976288
        0x0000f690:    20202020            DCD    538976288
        0x0000f694:    52534642    BFSR    DCD    1381189186
        0x0000f698:    74696220     bit    DCD    1953063456
        0x0000f69c:    50203a31    1: P    DCD    1344289329
        0x0000f6a0:    49434552    RECI    DCD    1229145426
        0x0000f6a4:    52454553    SEER    DCD    1380271443
        0x0000f6a8:    00000a52    R...    DCD    2642
        0x0000f6ac:    20202020            DCD    538976288
        0x0000f6b0:    20202020            DCD    538976288
        0x0000f6b4:    52534642    BFSR    DCD    1381189186
        0x0000f6b8:    74696220     bit    DCD    1953063456
        0x0000f6bc:    49203a30    0: I    DCD    1226848816
        0x0000f6c0:    45535542    BUSE    DCD    1163089218
        0x0000f6c4:    000a5252    RR..    DCD    676434
        0x0000f6c8:    2055434d    MCU     DCD    542458701
        0x0000f6cc:    6c756146    Faul    DCD    1819631942
        0x0000f6d0:    61642074    t da    DCD    1633951860
        0x0000f6d4:    0a3a6174    ta:.    DCD    171598196
        0x0000f6d8:    00000000    ....    DCD    0
        0x0000f6dc:    49202020       I    DCD    1226842144
        0x0000f6e0:    45444f43    CODE    DCD    1162104643
        0x0000f6e4:    75614620     Fau    DCD    1969309216
        0x0000f6e8:    4120746c    lt A    DCD    1092645996
        0x0000f6ec:    65726464    ddre    DCD    1701995620
        0x0000f6f0:    203a7373    ss:     DCD    540701555
        0x0000f6f4:    30257830    0x%0    DCD    807761968
        0x0000f6f8:    000a5838    8X..    DCD    677944
        0x0000f6fc:    44202020       D    DCD    1142956064
        0x0000f700:    45444f43    CODE    DCD    1162104643
        0x0000f704:    75614620     Fau    DCD    1969309216
        0x0000f708:    4120746c    lt A    DCD    1092645996
        0x0000f70c:    65726464    ddre    DCD    1701995620
        0x0000f710:    203a7373    ss:     DCD    540701555
        0x0000f714:    30257830    0x%0    DCD    807761968
        0x0000f718:    000a5838    8X..    DCD    677944
        0x0000f71c:    53202020       S    DCD    1394614304
        0x0000f720:    46205359    YS F    DCD    1176523609
        0x0000f724:    746c7561    ault    DCD    1953264993
        0x0000f728:    64644120     Add    DCD    1684291872
        0x0000f72c:    73736572    ress    DCD    1936942450
        0x0000f730:    7830203a    : 0x    DCD    2016419898
        0x0000f734:    58383025    %08X    DCD    1480077349
        0x0000f738:    0000000a    ....    DCD    10
    $t
    i.am_util_stdio_printf
    am_util_stdio_printf
        0x0000f73c:    b40f        ..      PUSH     {r0-r3}
        0x0000f73e:    b538        8.      PUSH     {r3-r5,lr}
        0x0000f740:    480b        .H      LDR      r0,[pc,#44] ; [0xf770] = 0x10000008
        0x0000f742:    6800        .h      LDR      r0,[r0,#0]
        0x0000f744:    b918        ..      CBNZ     r0,0xf74e ; am_util_stdio_printf + 18
        0x0000f746:    2000        .       MOVS     r0,#0
        0x0000f748:    bc38        8.      POP      {r3-r5}
        0x0000f74a:    f85dfb14    ]...    LDR      pc,[sp],#0x14
        0x0000f74e:    a805        ..      ADD      r0,sp,#0x14
        0x0000f750:    9000        ..      STR      r0,[sp,#0]
        0x0000f752:    4808        .H      LDR      r0,[pc,#32] ; [0xf774] = 0x10006550
        0x0000f754:    9a00        ..      LDR      r2,[sp,#0]
        0x0000f756:    9904        ..      LDR      r1,[sp,#0x10]
        0x0000f758:    f000f824    ..$.    BL       am_util_stdio_vsprintf ; 0xf7a4
        0x0000f75c:    4604        .F      MOV      r4,r0
        0x0000f75e:    2000        .       MOVS     r0,#0
        0x0000f760:    9000        ..      STR      r0,[sp,#0]
        0x0000f762:    4804        .H      LDR      r0,[pc,#16] ; [0xf774] = 0x10006550
        0x0000f764:    4902        .I      LDR      r1,[pc,#8] ; [0xf770] = 0x10000008
        0x0000f766:    6809        .h      LDR      r1,[r1,#0]
        0x0000f768:    4788        .G      BLX      r1
        0x0000f76a:    4620         F      MOV      r0,r4
        0x0000f76c:    e7ec        ..      B        0xf748 ; am_util_stdio_printf + 12
    $d
        0x0000f76e:    0000        ..      DCW    0
        0x0000f770:    10000008    ....    DCD    268435464
        0x0000f774:    10006550    Pe..    DCD    268461392
    $t
    i.am_util_stdio_printf_init
    am_util_stdio_printf_init
        0x0000f778:    4901        .I      LDR      r1,[pc,#4] ; [0xf780] = 0x10000008
        0x0000f77a:    6008        .`      STR      r0,[r1,#0]
        0x0000f77c:    4770        pG      BX       lr
    $d
        0x0000f77e:    0000        ..      DCW    0
        0x0000f780:    10000008    ....    DCD    268435464
    $t
    i.am_util_stdio_terminal_clear
    am_util_stdio_terminal_clear
        0x0000f784:    b510        ..      PUSH     {r4,lr}
        0x0000f786:    a002        ..      ADR      r0,{pc}+0xa ; 0xf790
        0x0000f788:    f7ffffd8    ....    BL       am_util_stdio_printf ; 0xf73c
        0x0000f78c:    bd10        ..      POP      {r4,pc}
    $d
        0x0000f78e:    0000        ..      DCW    0
        0x0000f790:    0a0a0a0a    ....    DCD    168430090
        0x0000f794:    0a0a0a0a    ....    DCD    168430090
        0x0000f798:    0a0a0a0a    ....    DCD    168430090
        0x0000f79c:    0a0a0a0a    ....    DCD    168430090
        0x0000f7a0:    00000a0a    ....    DCD    2570
    $t
    i.am_util_stdio_vsprintf
    am_util_stdio_vsprintf
        0x0000f7a4:    e92d4ff7    -..O    PUSH     {r0-r2,r4-r11,lr}
        0x0000f7a8:    ed2d8b02    -...    VPUSH    {d8}
        0x0000f7ac:    b08a        ..      SUB      sp,sp,#0x28
        0x0000f7ae:    4604        .F      MOV      r4,r0
        0x0000f7b0:    460d        .F      MOV      r5,r1
        0x0000f7b2:    f04f0900    O...    MOV      r9,#0
        0x0000f7b6:    2000        .       MOVS     r0,#0
        0x0000f7b8:    9000        ..      STR      r0,[sp,#0]
        0x0000f7ba:    e1b9        ..      B        0xfb30 ; am_util_stdio_vsprintf + 908
        0x0000f7bc:    2006        .       MOVS     r0,#6
        0x0000f7be:    9006        ..      STR      r0,[sp,#0x18]
        0x0000f7c0:    7828        (x      LDRB     r0,[r5,#0]
        0x0000f7c2:    2825        %(      CMP      r0,#0x25
        0x0000f7c4:    d012        ..      BEQ      0xf7ec ; am_util_stdio_vsprintf + 72
        0x0000f7c6:    b16c        l.      CBZ      r4,0xf7e4 ; am_util_stdio_vsprintf + 64
        0x0000f7c8:    7828        (x      LDRB     r0,[r5,#0]
        0x0000f7ca:    280a        .(      CMP      r0,#0xa
        0x0000f7cc:    d107        ..      BNE      0xf7de ; am_util_stdio_vsprintf + 58
        0x0000f7ce:    48de        .H      LDR      r0,[pc,#888] ; [0xfb48] = 0x1000000c
        0x0000f7d0:    7800        .x      LDRB     r0,[r0,#0]
        0x0000f7d2:    b120         .      CBZ      r0,0xf7de ; am_util_stdio_vsprintf + 58
        0x0000f7d4:    200d        .       MOVS     r0,#0xd
        0x0000f7d6:    f8040b01    ....    STRB     r0,[r4],#1
        0x0000f7da:    f1090901    ....    ADD      r9,r9,#1
        0x0000f7de:    7828        (x      LDRB     r0,[r5,#0]
        0x0000f7e0:    f8040b01    ....    STRB     r0,[r4],#1
        0x0000f7e4:    1c6d        m.      ADDS     r5,r5,#1
        0x0000f7e6:    f1090901    ....    ADD      r9,r9,#1
        0x0000f7ea:    e1a1        ..      B        0xfb30 ; am_util_stdio_vsprintf + 908
        0x0000f7ec:    1c6d        m.      ADDS     r5,r5,#1
        0x0000f7ee:    2000        .       MOVS     r0,#0
        0x0000f7f0:    9002        ..      STR      r0,[sp,#8]
        0x0000f7f2:    9003        ..      STR      r0,[sp,#0xc]
        0x0000f7f4:    2020                MOVS     r0,#0x20
        0x0000f7f6:    9004        ..      STR      r0,[sp,#0x10]
        0x0000f7f8:    7828        (x      LDRB     r0,[r5,#0]
        0x0000f7fa:    2830        0(      CMP      r0,#0x30
        0x0000f7fc:    d101        ..      BNE      0xf802 ; am_util_stdio_vsprintf + 94
        0x0000f7fe:    9004        ..      STR      r0,[sp,#0x10]
        0x0000f800:    1c6d        m.      ADDS     r5,r5,#1
        0x0000f802:    a907        ..      ADD      r1,sp,#0x1c
        0x0000f804:    4628        (F      MOV      r0,r5
        0x0000f806:    f000fa63    ..c.    BL       decstr_to_int ; 0xfcd0
        0x0000f80a:    4606        .F      MOV      r6,r0
        0x0000f80c:    9807        ..      LDR      r0,[sp,#0x1c]
        0x0000f80e:    4405        .D      ADD      r5,r5,r0
        0x0000f810:    7828        (x      LDRB     r0,[r5,#0]
        0x0000f812:    2873        s(      CMP      r0,#0x73
        0x0000f814:    d002        ..      BEQ      0xf81c ; am_util_stdio_vsprintf + 120
        0x0000f816:    2e00        ..      CMP      r6,#0
        0x0000f818:    da00        ..      BGE      0xf81c ; am_util_stdio_vsprintf + 120
        0x0000f81a:    4276        vB      RSBS     r6,r6,#0
        0x0000f81c:    7828        (x      LDRB     r0,[r5,#0]
        0x0000f81e:    282e        .(      CMP      r0,#0x2e
        0x0000f820:    d107        ..      BNE      0xf832 ; am_util_stdio_vsprintf + 142
        0x0000f822:    1c6d        m.      ADDS     r5,r5,#1
        0x0000f824:    a907        ..      ADD      r1,sp,#0x1c
        0x0000f826:    4628        (F      MOV      r0,r5
        0x0000f828:    f000fa52    ..R.    BL       decstr_to_int ; 0xfcd0
        0x0000f82c:    9006        ..      STR      r0,[sp,#0x18]
        0x0000f82e:    9807        ..      LDR      r0,[sp,#0x1c]
        0x0000f830:    4405        .D      ADD      r5,r5,r0
        0x0000f832:    7828        (x      LDRB     r0,[r5,#0]
        0x0000f834:    286c        l(      CMP      r0,#0x6c
        0x0000f836:    d106        ..      BNE      0xf846 ; am_util_stdio_vsprintf + 162
        0x0000f838:    1c6d        m.      ADDS     r5,r5,#1
        0x0000f83a:    7828        (x      LDRB     r0,[r5,#0]
        0x0000f83c:    286c        l(      CMP      r0,#0x6c
        0x0000f83e:    d102        ..      BNE      0xf846 ; am_util_stdio_vsprintf + 162
        0x0000f840:    1c6d        m.      ADDS     r5,r5,#1
        0x0000f842:    2001        .       MOVS     r0,#1
        0x0000f844:    9002        ..      STR      r0,[sp,#8]
        0x0000f846:    7828        (x      LDRB     r0,[r5,#0]
        0x0000f848:    2866        f(      CMP      r0,#0x66
        0x0000f84a:    d06f        o.      BEQ      0xf92c ; am_util_stdio_vsprintf + 392
        0x0000f84c:    dc08        ..      BGT      0xf860 ; am_util_stdio_vsprintf + 188
        0x0000f84e:    2846        F(      CMP      r0,#0x46
        0x0000f850:    d06d        m.      BEQ      0xf92e ; am_util_stdio_vsprintf + 394
        0x0000f852:    2858        X(      CMP      r0,#0x58
        0x0000f854:    d05c        \.      BEQ      0xf910 ; am_util_stdio_vsprintf + 364
        0x0000f856:    2863        c(      CMP      r0,#0x63
        0x0000f858:    d00b        ..      BEQ      0xf872 ; am_util_stdio_vsprintf + 206
        0x0000f85a:    2864        d(      CMP      r0,#0x64
        0x0000f85c:    d168        h.      BNE      0xf930 ; am_util_stdio_vsprintf + 396
        0x0000f85e:    e0c3        ..      B        0xf9e8 ; am_util_stdio_vsprintf + 580
        0x0000f860:    2869        i(      CMP      r0,#0x69
        0x0000f862:    d07d        }.      BEQ      0xf960 ; am_util_stdio_vsprintf + 444
        0x0000f864:    2873        s(      CMP      r0,#0x73
        0x0000f866:    d011        ..      BEQ      0xf88c ; am_util_stdio_vsprintf + 232
        0x0000f868:    2875        u(      CMP      r0,#0x75
        0x0000f86a:    d07a        z.      BEQ      0xf962 ; am_util_stdio_vsprintf + 446
        0x0000f86c:    2878        x(      CMP      r0,#0x78
        0x0000f86e:    d1f5        ..      BNE      0xf85c ; am_util_stdio_vsprintf + 184
        0x0000f870:    e04b        K.      B        0xf90a ; am_util_stdio_vsprintf + 358
        0x0000f872:    980e        ..      LDR      r0,[sp,#0x38]
        0x0000f874:    f8101b04    ....    LDRB     r1,[r0],#4
        0x0000f878:    900e        ..      STR      r0,[sp,#0x38]
        0x0000f87a:    b2c8        ..      UXTB     r0,r1
        0x0000f87c:    9005        ..      STR      r0,[sp,#0x14]
        0x0000f87e:    b114        ..      CBZ      r4,0xf886 ; am_util_stdio_vsprintf + 226
        0x0000f880:    9805        ..      LDR      r0,[sp,#0x14]
        0x0000f882:    f8040b01    ....    STRB     r0,[r4],#1
        0x0000f886:    f1090901    ....    ADD      r9,r9,#1
        0x0000f88a:    e14e        N.      B        0xfb2a ; am_util_stdio_vsprintf + 902
        0x0000f88c:    980e        ..      LDR      r0,[sp,#0x38]
        0x0000f88e:    f850bb04    P...    LDR      r11,[r0],#4
        0x0000f892:    900e        ..      STR      r0,[sp,#0x38]
        0x0000f894:    4658        XF      MOV      r0,r11
        0x0000f896:    f001f8d5    ....    BL       simple_strlen ; 0x10a44
        0x0000f89a:    9000        ..      STR      r0,[sp,#0]
        0x0000f89c:    2e00        ..      CMP      r6,#0
        0x0000f89e:    dd11        ..      BLE      0xf8c4 ; am_util_stdio_vsprintf + 288
        0x0000f8a0:    9800        ..      LDR      r0,[sp,#0]
        0x0000f8a2:    42b0        .B      CMP      r0,r6
        0x0000f8a4:    d20e        ..      BCS      0xf8c4 ; am_util_stdio_vsprintf + 288
        0x0000f8a6:    9800        ..      LDR      r0,[sp,#0]
        0x0000f8a8:    1a36        6.      SUBS     r6,r6,r0
        0x0000f8aa:    4632        2F      MOV      r2,r6
        0x0000f8ac:    4620         F      MOV      r0,r4
        0x0000f8ae:    9904        ..      LDR      r1,[sp,#0x10]
        0x0000f8b0:    f001f83f    ..?.    BL       padbuffer ; 0x10932
        0x0000f8b4:    4606        .F      MOV      r6,r0
        0x0000f8b6:    b10c        ..      CBZ      r4,0xf8bc ; am_util_stdio_vsprintf + 280
        0x0000f8b8:    4630        0F      MOV      r0,r6
        0x0000f8ba:    e000        ..      B        0xf8be ; am_util_stdio_vsprintf + 282
        0x0000f8bc:    2000        .       MOVS     r0,#0
        0x0000f8be:    4404        .D      ADD      r4,r4,r0
        0x0000f8c0:    44b1        .D      ADD      r9,r9,r6
        0x0000f8c2:    2600        .&      MOVS     r6,#0
        0x0000f8c4:    e008        ..      B        0xf8d8 ; am_util_stdio_vsprintf + 308
        0x0000f8c6:    b11c        ..      CBZ      r4,0xf8d0 ; am_util_stdio_vsprintf + 300
        0x0000f8c8:    f89b0000    ....    LDRB     r0,[r11,#0]
        0x0000f8cc:    f8040b01    ....    STRB     r0,[r4],#1
        0x0000f8d0:    f10b0b01    ....    ADD      r11,r11,#1
        0x0000f8d4:    f1090901    ....    ADD      r9,r9,#1
        0x0000f8d8:    f89b0000    ....    LDRB     r0,[r11,#0]
        0x0000f8dc:    2800        .(      CMP      r0,#0
        0x0000f8de:    d1f2        ..      BNE      0xf8c6 ; am_util_stdio_vsprintf + 290
        0x0000f8e0:    b196        ..      CBZ      r6,0xf908 ; am_util_stdio_vsprintf + 356
        0x0000f8e2:    4276        vB      RSBS     r6,r6,#0
        0x0000f8e4:    9800        ..      LDR      r0,[sp,#0]
        0x0000f8e6:    42b0        .B      CMP      r0,r6
        0x0000f8e8:    d20e        ..      BCS      0xf908 ; am_util_stdio_vsprintf + 356
        0x0000f8ea:    9800        ..      LDR      r0,[sp,#0]
        0x0000f8ec:    1a36        6.      SUBS     r6,r6,r0
        0x0000f8ee:    4632        2F      MOV      r2,r6
        0x0000f8f0:    4620         F      MOV      r0,r4
        0x0000f8f2:    9904        ..      LDR      r1,[sp,#0x10]
        0x0000f8f4:    f001f81d    ....    BL       padbuffer ; 0x10932
        0x0000f8f8:    4606        .F      MOV      r6,r0
        0x0000f8fa:    b10c        ..      CBZ      r4,0xf900 ; am_util_stdio_vsprintf + 348
        0x0000f8fc:    4630        0F      MOV      r0,r6
        0x0000f8fe:    e000        ..      B        0xf902 ; am_util_stdio_vsprintf + 350
        0x0000f900:    2000        .       MOVS     r0,#0
        0x0000f902:    4404        .D      ADD      r4,r4,r0
        0x0000f904:    44b1        .D      ADD      r9,r9,r6
        0x0000f906:    2600        .&      MOVS     r6,#0
        0x0000f908:    e10f        ..      B        0xfb2a ; am_util_stdio_vsprintf + 902
        0x0000f90a:    2001        .       MOVS     r0,#1
        0x0000f90c:    9003        ..      STR      r0,[sp,#0xc]
        0x0000f90e:    bf00        ..      NOP      
        0x0000f910:    9802        ..      LDR      r0,[sp,#8]
        0x0000f912:    b170        p.      CBZ      r0,0xf932 ; am_util_stdio_vsprintf + 398
        0x0000f914:    980e        ..      LDR      r0,[sp,#0x38]
        0x0000f916:    1dc0        ..      ADDS     r0,r0,#7
        0x0000f918:    f0200007     ...    BIC      r0,r0,#7
        0x0000f91c:    4601        .F      MOV      r1,r0
        0x0000f91e:    900e        ..      STR      r0,[sp,#0x38]
        0x0000f920:    6800        .h      LDR      r0,[r0,#0]
        0x0000f922:    6849        Ih      LDR      r1,[r1,#4]
        0x0000f924:    9a0e        ..      LDR      r2,[sp,#0x38]
        0x0000f926:    3208        .2      ADDS     r2,r2,#8
        0x0000f928:    920e        ..      STR      r2,[sp,#0x38]
        0x0000f92a:    e008        ..      B        0xf93e ; am_util_stdio_vsprintf + 410
        0x0000f92c:    e0c3        ..      B        0xfab6 ; am_util_stdio_vsprintf + 786
        0x0000f92e:    e0c3        ..      B        0xfab8 ; am_util_stdio_vsprintf + 788
        0x0000f930:    e0f4        ..      B        0xfb1c ; am_util_stdio_vsprintf + 888
        0x0000f932:    980e        ..      LDR      r0,[sp,#0x38]
        0x0000f934:    6800        .h      LDR      r0,[r0,#0]
        0x0000f936:    990e        ..      LDR      r1,[sp,#0x38]
        0x0000f938:    1d09        ..      ADDS     r1,r1,#4
        0x0000f93a:    910e        ..      STR      r1,[sp,#0x38]
        0x0000f93c:    2100        .!      MOVS     r1,#0
        0x0000f93e:    4607        .F      MOV      r7,r0
        0x0000f940:    4688        .F      MOV      r8,r1
        0x0000f942:    b19e        ..      CBZ      r6,0xf96c ; am_util_stdio_vsprintf + 456
        0x0000f944:    4638        8F      MOV      r0,r7
        0x0000f946:    4641        AF      MOV      r1,r8
        0x0000f948:    f000ffaa    ....    BL       ndigits_in_hex ; 0x108a0
        0x0000f94c:    1a36        6.      SUBS     r6,r6,r0
        0x0000f94e:    4632        2F      MOV      r2,r6
        0x0000f950:    4620         F      MOV      r0,r4
        0x0000f952:    9904        ..      LDR      r1,[sp,#0x10]
        0x0000f954:    f000ffed    ....    BL       padbuffer ; 0x10932
        0x0000f958:    4606        .F      MOV      r6,r0
        0x0000f95a:    b11c        ..      CBZ      r4,0xf964 ; am_util_stdio_vsprintf + 448
        0x0000f95c:    4630        0F      MOV      r0,r6
        0x0000f95e:    e002        ..      B        0xf966 ; am_util_stdio_vsprintf + 450
        0x0000f960:    e043        C.      B        0xf9ea ; am_util_stdio_vsprintf + 582
        0x0000f962:    e00e        ..      B        0xf982 ; am_util_stdio_vsprintf + 478
        0x0000f964:    2000        .       MOVS     r0,#0
        0x0000f966:    4404        .D      ADD      r4,r4,r0
        0x0000f968:    44b1        .D      ADD      r9,r9,r6
        0x0000f96a:    2600        .&      MOVS     r6,#0
        0x0000f96c:    4622        "F      MOV      r2,r4
        0x0000f96e:    4638        8F      MOV      r0,r7
        0x0000f970:    4641        AF      MOV      r1,r8
        0x0000f972:    9b03        ..      LDR      r3,[sp,#0xc]
        0x0000f974:    f001f872    ..r.    BL       uint64_to_hexstr ; 0x10a5c
        0x0000f978:    4682        .F      MOV      r10,r0
        0x0000f97a:    b104        ..      CBZ      r4,0xf97e ; am_util_stdio_vsprintf + 474
        0x0000f97c:    4454        TD      ADD      r4,r4,r10
        0x0000f97e:    44d1        .D      ADD      r9,r9,r10
        0x0000f980:    e0d3        ..      B        0xfb2a ; am_util_stdio_vsprintf + 902
        0x0000f982:    9802        ..      LDR      r0,[sp,#8]
        0x0000f984:    b158        X.      CBZ      r0,0xf99e ; am_util_stdio_vsprintf + 506
        0x0000f986:    980e        ..      LDR      r0,[sp,#0x38]
        0x0000f988:    1dc0        ..      ADDS     r0,r0,#7
        0x0000f98a:    f0200007     ...    BIC      r0,r0,#7
        0x0000f98e:    4601        .F      MOV      r1,r0
        0x0000f990:    900e        ..      STR      r0,[sp,#0x38]
        0x0000f992:    6800        .h      LDR      r0,[r0,#0]
        0x0000f994:    6849        Ih      LDR      r1,[r1,#4]
        0x0000f996:    9a0e        ..      LDR      r2,[sp,#0x38]
        0x0000f998:    3208        .2      ADDS     r2,r2,#8
        0x0000f99a:    920e        ..      STR      r2,[sp,#0x38]
        0x0000f99c:    e005        ..      B        0xf9aa ; am_util_stdio_vsprintf + 518
        0x0000f99e:    980e        ..      LDR      r0,[sp,#0x38]
        0x0000f9a0:    6800        .h      LDR      r0,[r0,#0]
        0x0000f9a2:    990e        ..      LDR      r1,[sp,#0x38]
        0x0000f9a4:    1d09        ..      ADDS     r1,r1,#4
        0x0000f9a6:    910e        ..      STR      r1,[sp,#0x38]
        0x0000f9a8:    2100        .!      MOVS     r1,#0
        0x0000f9aa:    4607        .F      MOV      r7,r0
        0x0000f9ac:    4688        .F      MOV      r8,r1
        0x0000f9ae:    b18e        ..      CBZ      r6,0xf9d4 ; am_util_stdio_vsprintf + 560
        0x0000f9b0:    4638        8F      MOV      r0,r7
        0x0000f9b2:    4641        AF      MOV      r1,r8
        0x0000f9b4:    f000ffa0    ....    BL       ndigits_in_u64 ; 0x108f8
        0x0000f9b8:    1a36        6.      SUBS     r6,r6,r0
        0x0000f9ba:    4632        2F      MOV      r2,r6
        0x0000f9bc:    4620         F      MOV      r0,r4
        0x0000f9be:    9904        ..      LDR      r1,[sp,#0x10]
        0x0000f9c0:    f000ffb7    ....    BL       padbuffer ; 0x10932
        0x0000f9c4:    4606        .F      MOV      r6,r0
        0x0000f9c6:    b10c        ..      CBZ      r4,0xf9cc ; am_util_stdio_vsprintf + 552
        0x0000f9c8:    4630        0F      MOV      r0,r6
        0x0000f9ca:    e000        ..      B        0xf9ce ; am_util_stdio_vsprintf + 554
        0x0000f9cc:    2000        .       MOVS     r0,#0
        0x0000f9ce:    4404        .D      ADD      r4,r4,r0
        0x0000f9d0:    44b1        .D      ADD      r9,r9,r6
        0x0000f9d2:    2600        .&      MOVS     r6,#0
        0x0000f9d4:    4622        "F      MOV      r2,r4
        0x0000f9d6:    4638        8F      MOV      r0,r7
        0x0000f9d8:    4641        AF      MOV      r1,r8
        0x0000f9da:    f001f884    ....    BL       uint64_to_str ; 0x10ae6
        0x0000f9de:    4682        .F      MOV      r10,r0
        0x0000f9e0:    b104        ..      CBZ      r4,0xf9e4 ; am_util_stdio_vsprintf + 576
        0x0000f9e2:    4454        TD      ADD      r4,r4,r10
        0x0000f9e4:    44d1        .D      ADD      r9,r9,r10
        0x0000f9e6:    e0a0        ..      B        0xfb2a ; am_util_stdio_vsprintf + 902
        0x0000f9e8:    bf00        ..      NOP      
        0x0000f9ea:    9802        ..      LDR      r0,[sp,#8]
        0x0000f9ec:    b158        X.      CBZ      r0,0xfa06 ; am_util_stdio_vsprintf + 610
        0x0000f9ee:    980e        ..      LDR      r0,[sp,#0x38]
        0x0000f9f0:    1dc0        ..      ADDS     r0,r0,#7
        0x0000f9f2:    f0200007     ...    BIC      r0,r0,#7
        0x0000f9f6:    4601        .F      MOV      r1,r0
        0x0000f9f8:    900e        ..      STR      r0,[sp,#0x38]
        0x0000f9fa:    6800        .h      LDR      r0,[r0,#0]
        0x0000f9fc:    6849        Ih      LDR      r1,[r1,#4]
        0x0000f9fe:    9a0e        ..      LDR      r2,[sp,#0x38]
        0x0000fa00:    3208        .2      ADDS     r2,r2,#8
        0x0000fa02:    920e        ..      STR      r2,[sp,#0x38]
        0x0000fa04:    e005        ..      B        0xfa12 ; am_util_stdio_vsprintf + 622
        0x0000fa06:    980e        ..      LDR      r0,[sp,#0x38]
        0x0000fa08:    6800        .h      LDR      r0,[r0,#0]
        0x0000fa0a:    990e        ..      LDR      r1,[sp,#0x38]
        0x0000fa0c:    1d09        ..      ADDS     r1,r1,#4
        0x0000fa0e:    910e        ..      STR      r1,[sp,#0x38]
        0x0000fa10:    17c1        ..      ASRS     r1,r0,#31
        0x0000fa12:    e9cd0108    ....    STRD     r0,r1,[sp,#0x20]
        0x0000fa16:    2300        .#      MOVS     r3,#0
        0x0000fa18:    e9dd0108    ....    LDRD     r0,r1,[sp,#0x20]
        0x0000fa1c:    1ac0        ..      SUBS     r0,r0,r3
        0x0000fa1e:    4199        .A      SBCS     r1,r1,r3
        0x0000fa20:    da08        ..      BGE      0xfa34 ; am_util_stdio_vsprintf + 656
        0x0000fa22:    2200        ."      MOVS     r2,#0
        0x0000fa24:    e9dd1008    ....    LDRD     r1,r0,[sp,#0x20]
        0x0000fa28:    424f        OB      RSBS     r7,r1,#0
        0x0000fa2a:    eb620800    b...    SBC      r8,r2,r0
        0x0000fa2e:    2001        .       MOVS     r0,#1
        0x0000fa30:    9001        ..      STR      r0,[sp,#4]
        0x0000fa32:    e003        ..      B        0xfa3c ; am_util_stdio_vsprintf + 664
        0x0000fa34:    e9dd7808    ...x    LDRD     r7,r8,[sp,#0x20]
        0x0000fa38:    2000        .       MOVS     r0,#0
        0x0000fa3a:    9001        ..      STR      r0,[sp,#4]
        0x0000fa3c:    b34e        N.      CBZ      r6,0xfa92 ; am_util_stdio_vsprintf + 750
        0x0000fa3e:    4638        8F      MOV      r0,r7
        0x0000fa40:    4641        AF      MOV      r1,r8
        0x0000fa42:    f000ff47    ..G.    BL       ndigits_in_i64 ; 0x108d4
        0x0000fa46:    1a36        6.      SUBS     r6,r6,r0
        0x0000fa48:    9801        ..      LDR      r0,[sp,#4]
        0x0000fa4a:    b148        H.      CBZ      r0,0xfa60 ; am_util_stdio_vsprintf + 700
        0x0000fa4c:    1e76        v.      SUBS     r6,r6,#1
        0x0000fa4e:    9804        ..      LDR      r0,[sp,#0x10]
        0x0000fa50:    2830        0(      CMP      r0,#0x30
        0x0000fa52:    d105        ..      BNE      0xfa60 ; am_util_stdio_vsprintf + 700
        0x0000fa54:    b114        ..      CBZ      r4,0xfa5c ; am_util_stdio_vsprintf + 696
        0x0000fa56:    202d        -       MOVS     r0,#0x2d
        0x0000fa58:    f8040b01    ....    STRB     r0,[r4],#1
        0x0000fa5c:    f1090901    ....    ADD      r9,r9,#1
        0x0000fa60:    4632        2F      MOV      r2,r6
        0x0000fa62:    4620         F      MOV      r0,r4
        0x0000fa64:    9904        ..      LDR      r1,[sp,#0x10]
        0x0000fa66:    f000ff64    ..d.    BL       padbuffer ; 0x10932
        0x0000fa6a:    4606        .F      MOV      r6,r0
        0x0000fa6c:    b10c        ..      CBZ      r4,0xfa72 ; am_util_stdio_vsprintf + 718
        0x0000fa6e:    4630        0F      MOV      r0,r6
        0x0000fa70:    e000        ..      B        0xfa74 ; am_util_stdio_vsprintf + 720
        0x0000fa72:    2000        .       MOVS     r0,#0
        0x0000fa74:    4404        .D      ADD      r4,r4,r0
        0x0000fa76:    44b1        .D      ADD      r9,r9,r6
        0x0000fa78:    2600        .&      MOVS     r6,#0
        0x0000fa7a:    9801        ..      LDR      r0,[sp,#4]
        0x0000fa7c:    b188        ..      CBZ      r0,0xfaa2 ; am_util_stdio_vsprintf + 766
        0x0000fa7e:    9804        ..      LDR      r0,[sp,#0x10]
        0x0000fa80:    2820         (      CMP      r0,#0x20
        0x0000fa82:    d10e        ..      BNE      0xfaa2 ; am_util_stdio_vsprintf + 766
        0x0000fa84:    b114        ..      CBZ      r4,0xfa8c ; am_util_stdio_vsprintf + 744
        0x0000fa86:    202d        -       MOVS     r0,#0x2d
        0x0000fa88:    f8040b01    ....    STRB     r0,[r4],#1
        0x0000fa8c:    f1090901    ....    ADD      r9,r9,#1
        0x0000fa90:    e007        ..      B        0xfaa2 ; am_util_stdio_vsprintf + 766
        0x0000fa92:    9801        ..      LDR      r0,[sp,#4]
        0x0000fa94:    b128        (.      CBZ      r0,0xfaa2 ; am_util_stdio_vsprintf + 766
        0x0000fa96:    b114        ..      CBZ      r4,0xfa9e ; am_util_stdio_vsprintf + 762
        0x0000fa98:    202d        -       MOVS     r0,#0x2d
        0x0000fa9a:    f8040b01    ....    STRB     r0,[r4],#1
        0x0000fa9e:    f1090901    ....    ADD      r9,r9,#1
        0x0000faa2:    4622        "F      MOV      r2,r4
        0x0000faa4:    4638        8F      MOV      r0,r7
        0x0000faa6:    4641        AF      MOV      r1,r8
        0x0000faa8:    f001f81d    ....    BL       uint64_to_str ; 0x10ae6
        0x0000faac:    4682        .F      MOV      r10,r0
        0x0000faae:    b104        ..      CBZ      r4,0xfab2 ; am_util_stdio_vsprintf + 782
        0x0000fab0:    4454        TD      ADD      r4,r4,r10
        0x0000fab2:    44d1        .D      ADD      r9,r9,r10
        0x0000fab4:    e039        9.      B        0xfb2a ; am_util_stdio_vsprintf + 902
        0x0000fab6:    bf00        ..      NOP      
        0x0000fab8:    b37c        |.      CBZ      r4,0xfb1a ; am_util_stdio_vsprintf + 886
        0x0000faba:    980e        ..      LDR      r0,[sp,#0x38]
        0x0000fabc:    1dc0        ..      ADDS     r0,r0,#7
        0x0000fabe:    f0200007     ...    BIC      r0,r0,#7
        0x0000fac2:    900e        ..      STR      r0,[sp,#0x38]
        0x0000fac4:    ecb01b02    ....    VLDM     r0!,{d1}
        0x0000fac8:    eeb00a41    ..A.    VMOV.F32 s0,s2
        0x0000facc:    eef00a61    ..a.    VMOV.F32 s1,s3
        0x0000fad0:    900e        ..      STR      r0,[sp,#0x38]
        0x0000fad2:    ec510b10    Q...    VMOV     r0,r1,d0
        0x0000fad6:    f001f83f    ..?.    BL       __aeabi_d2f ; 0x10b58
        0x0000fada:    ee080a10    ....    VMOV     s16,r0
        0x0000fade:    2014        .       MOVS     r0,#0x14
        0x0000fae0:    6020         `      STR      r0,[r4,#0]
        0x0000fae2:    4620         F      MOV      r0,r4
        0x0000fae4:    eeb00a48    ..H.    VMOV.F32 s0,s16
        0x0000fae8:    9906        ..      LDR      r1,[sp,#0x18]
        0x0000faea:    f000f979    ..y.    BL       ftoa ; 0xfde0
        0x0000faee:    4682        .F      MOV      r10,r0
        0x0000faf0:    f1ba0f00    ....    CMP      r10,#0
        0x0000faf4:    da0e        ..      BGE      0xfb14 ; am_util_stdio_vsprintf + 880
        0x0000faf6:    f10a0101    ....    ADD      r1,r10,#1
        0x0000fafa:    b909        ..      CBNZ     r1,0xfb00 ; am_util_stdio_vsprintf + 860
        0x0000fafc:    4813        .H      LDR      r0,[pc,#76] ; [0xfb4c] = 0x302e30
        0x0000fafe:    e005        ..      B        0xfb0c ; am_util_stdio_vsprintf + 872
        0x0000fb00:    f10a0102    ....    ADD      r1,r10,#2
        0x0000fb04:    b909        ..      CBNZ     r1,0xfb0a ; am_util_stdio_vsprintf + 870
        0x0000fb06:    4812        .H      LDR      r0,[pc,#72] ; [0xfb50] = 0x232e23
        0x0000fb08:    e000        ..      B        0xfb0c ; am_util_stdio_vsprintf + 872
        0x0000fb0a:    4812        .H      LDR      r0,[pc,#72] ; [0xfb54] = 0x3f2e3f
        0x0000fb0c:    6020         `      STR      r0,[r4,#0]
        0x0000fb0e:    f04f0a03    O...    MOV      r10,#3
        0x0000fb12:    bf00        ..      NOP      
        0x0000fb14:    44d1        .D      ADD      r9,r9,r10
        0x0000fb16:    4454        TD      ADD      r4,r4,r10
        0x0000fb18:    bf00        ..      NOP      
        0x0000fb1a:    e006        ..      B        0xfb2a ; am_util_stdio_vsprintf + 902
        0x0000fb1c:    b114        ..      CBZ      r4,0xfb24 ; am_util_stdio_vsprintf + 896
        0x0000fb1e:    7828        (x      LDRB     r0,[r5,#0]
        0x0000fb20:    f8040b01    ....    STRB     r0,[r4],#1
        0x0000fb24:    f1090901    ....    ADD      r9,r9,#1
        0x0000fb28:    bf00        ..      NOP      
        0x0000fb2a:    bf00        ..      NOP      
        0x0000fb2c:    1c6d        m.      ADDS     r5,r5,#1
        0x0000fb2e:    bf00        ..      NOP      
        0x0000fb30:    7828        (x      LDRB     r0,[r5,#0]
        0x0000fb32:    2800        .(      CMP      r0,#0
        0x0000fb34:    f47fae42    ..B.    BNE      0xf7bc ; am_util_stdio_vsprintf + 24
        0x0000fb38:    b104        ..      CBZ      r4,0xfb3c ; am_util_stdio_vsprintf + 920
        0x0000fb3a:    7020         p      STRB     r0,[r4,#0]
        0x0000fb3c:    4648        HF      MOV      r0,r9
        0x0000fb3e:    b00a        ..      ADD      sp,sp,#0x28
        0x0000fb40:    ecbd8b02    ....    VPOP     {d8}
        0x0000fb44:    e8bd8ffe    ....    POP      {r1-r11,pc}
    $d
        0x0000fb48:    1000000c    ....    DCD    268435468
        0x0000fb4c:    00302e30    0.0.    DCD    3157552
        0x0000fb50:    00232e23    #.#.    DCD    2305571
        0x0000fb54:    003f2e3f    ?.?.    DCD    4140607
    $t
    i.build_dma_cmdlist
    build_dma_cmdlist
        0x0000fb58:    b410        ..      PUSH     {r4}
        0x0000fb5a:    b111        ..      CBZ      r1,0xfb62 ; build_dma_cmdlist + 10
        0x0000fb5c:    2901        .)      CMP      r1,#1
        0x0000fb5e:    d043        C.      BEQ      0xfbe8 ; build_dma_cmdlist + 144
        0x0000fb60:    e098        ..      B        0xfc94 ; build_dma_cmdlist + 316
        0x0000fb62:    6819        .h      LDR      r1,[r3,#0]
        0x0000fb64:    f5b13f80    ...?    CMP      r1,#0x10000
        0x0000fb68:    d242        B.      BCS      0xfbf0 ; build_dma_cmdlist + 152
        0x0000fb6a:    4950        PI      LDR      r1,[pc,#320] ; [0xfcac] = 0x50014008
        0x0000fb6c:    6011        .`      STR      r1,[r2,#0]
        0x0000fb6e:    6899        .h      LDR      r1,[r3,#8]
        0x0000fb70:    6051        Q`      STR      r1,[r2,#4]
        0x0000fb72:    494f        OI      LDR      r1,[pc,#316] ; [0xfcb0] = 0x5001400c
        0x0000fb74:    6091        .`      STR      r1,[r2,#8]
        0x0000fb76:    89d9        ..      LDRH     r1,[r3,#0xe]
        0x0000fb78:    60d1        .`      STR      r1,[r2,#0xc]
        0x0000fb7a:    494e        NI      LDR      r1,[pc,#312] ; [0xfcb4] = 0x50014000
        0x0000fb7c:    6111        .a      STR      r1,[r2,#0x10]
        0x0000fb7e:    7919        .y      LDRB     r1,[r3,#4]
        0x0000fb80:    f44f6c00    O..l    MOV      r12,#0x800
        0x0000fb84:    ea0c21c1    ...!    AND      r1,r12,r1,LSL #11
        0x0000fb88:    f8b3c000    ....    LDRH     r12,[r3,#0]
        0x0000fb8c:    f44f6480    O..d    MOV      r4,#0x400
        0x0000fb90:    ea41410c    A..A    ORR      r1,r1,r12,LSL #16
        0x0000fb94:    f893c005    ....    LDRB     r12,[r3,#5]
        0x0000fb98:    7a80        .z      LDRB     r0,[r0,#0xa]
        0x0000fb9a:    ea042c8c    ...,    AND      r12,r4,r12,LSL #10
        0x0000fb9e:    ea41010c    A...    ORR      r1,r1,r12
        0x0000fba2:    f893c00c    ....    LDRB     r12,[r3,#0xc]
        0x0000fba6:    1064        d.      ASRS     r4,r4,#1
        0x0000fba8:    ea042c4c    ..L,    AND      r12,r4,r12,LSL #9
        0x0000fbac:    ea41010c    A...    ORR      r1,r1,r12
        0x0000fbb0:    f893c006    ....    LDRB     r12,[r3,#6]
        0x0000fbb4:    1064        d.      ASRS     r4,r4,#1
        0x0000fbb6:    ea042c0c    ...,    AND      r12,r4,r12,LSL #8
        0x0000fbba:    ea41010c    A...    ORR      r1,r1,r12
        0x0000fbbe:    f893c010    ....    LDRB     r12,[r3,#0x10]
        0x0000fbc2:    2480        .$      MOVS     r4,#0x80
        0x0000fbc4:    ea041ccc    ....    AND      r12,r4,r12,LSL #7
        0x0000fbc8:    ea41010c    A...    ORR      r1,r1,r12
        0x0000fbcc:    f04f0c40    O.@.    MOV      r12,#0x40
        0x0000fbd0:    ea0c1080    ....    AND      r0,r12,r0,LSL #6
        0x0000fbd4:    4308        .C      ORRS     r0,r0,r1
        0x0000fbd6:    7c59        Y|      LDRB     r1,[r3,#0x11]
        0x0000fbd8:    2308        .#      MOVS     r3,#8
        0x0000fbda:    ea0301c1    ....    AND      r1,r3,r1,LSL #3
        0x0000fbde:    4308        .C      ORRS     r0,r0,r1
        0x0000fbe0:    f0400001    @...    ORR      r0,r0,#1
        0x0000fbe4:    6150        Pa      STR      r0,[r2,#0x14]
        0x0000fbe6:    e055        U.      B        0xfc94 ; build_dma_cmdlist + 316
        0x0000fbe8:    6859        Yh      LDR      r1,[r3,#4]
        0x0000fbea:    f5b13f80    ...?    CMP      r1,#0x10000
        0x0000fbee:    d302        ..      BCC      0xfbf6 ; build_dma_cmdlist + 158
        0x0000fbf0:    bc10        ..      POP      {r4}
        0x0000fbf2:    2005        .       MOVS     r0,#5
        0x0000fbf4:    4770        pG      BX       lr
        0x0000fbf6:    f8d01834    ..4.    LDR      r1,[r0,#0x834]
        0x0000fbfa:    2900        .)      CMP      r1,#0
        0x0000fbfc:    bf1f        ..      ITTTT    NE
        0x0000fbfe:    6919        .i      LDRNE    r1,[r3,#0x10]
        0x0000fc00:    2900        .)      CMPNE    r1,#0
        0x0000fc02:    2007        .       MOVNE    r0,#7
        0x0000fc04:    bc10        ..      POPNE    {r4}
        0x0000fc06:    bf18        ..      IT       NE
        0x0000fc08:    4770        pG      BXNE     lr
        0x0000fc0a:    492b        +I      LDR      r1,[pc,#172] ; [0xfcb8] = 0x50014250
        0x0000fc0c:    f04f0c00    O...    MOV      r12,#0
        0x0000fc10:    e9c21c0c    ....    STRD     r1,r12,[r2,#0x30]
        0x0000fc14:    f8dfc0a4    ....    LDR      r12,[pc,#164] ; [0xfcbc] = 0x50014258
        0x0000fc18:    f8c2c010    ....    STR      r12,[r2,#0x10]
        0x0000fc1c:    f8d3c00c    ....    LDR      r12,[r3,#0xc]
        0x0000fc20:    f8c2c014    ....    STR      r12,[r2,#0x14]
        0x0000fc24:    f8dfc098    ....    LDR      r12,[pc,#152] ; [0xfcc0] = 0x5001425c
        0x0000fc28:    f8c2c018    ....    STR      r12,[r2,#0x18]
        0x0000fc2c:    f8d3c008    ....    LDR      r12,[r3,#8]
        0x0000fc30:    f8c2c01c    ....    STR      r12,[r2,#0x1c]
        0x0000fc34:    f8dfc08c    ....    LDR      r12,[pc,#140] ; [0xfcc4] = 0x50014260
        0x0000fc38:    f8c2c020    .. .    STR      r12,[r2,#0x20]
        0x0000fc3c:    f8d3c004    ....    LDR      r12,[r3,#4]
        0x0000fc40:    e9c2c109    ....    STRD     r12,r1,[r2,#0x24]
        0x0000fc44:    7859        Yx      LDRB     r1,[r3,#1]
        0x0000fc46:    f04f0c18    O...    MOV      r12,#0x18
        0x0000fc4a:    ea0c01c1    ....    AND      r1,r12,r1,LSL #3
        0x0000fc4e:    f893c002    ....    LDRB     r12,[r3,#2]
        0x0000fc52:    f04f0404    O...    MOV      r4,#4
        0x0000fc56:    ea040c8c    ....    AND      r12,r4,r12,LSL #2
        0x0000fc5a:    ea41010c    A...    ORR      r1,r1,r12
        0x0000fc5e:    f0410103    A...    ORR      r1,r1,#3
        0x0000fc62:    62d1        .b      STR      r1,[r2,#0x2c]
        0x0000fc64:    4918        .I      LDR      r1,[pc,#96] ; [0xfcc8] = 0x500142b8
        0x0000fc66:    6091        .`      STR      r1,[r2,#8]
        0x0000fc68:    6011        .`      STR      r1,[r2,#0]
        0x0000fc6a:    f8d0c834    ..4.    LDR      r12,[r0,#0x834]
        0x0000fc6e:    6919        .i      LDR      r1,[r3,#0x10]
        0x0000fc70:    f1bc0f01    ....    CMP      r12,#1
        0x0000fc74:    d011        ..      BEQ      0xfc9a ; build_dma_cmdlist + 322
        0x0000fc76:    f1bc0f02    ....    CMP      r12,#2
        0x0000fc7a:    bf0c        ..      ITE      EQ
        0x0000fc7c:    f44f4180    O..A    MOVEQ    r1,#0x4000
        0x0000fc80:    f4414181    A..A    ORRNE    r1,r1,#0x4080
        0x0000fc84:    f44f4080    O..@    MOV      r0,#0x4000
        0x0000fc88:    6051        Q`      STR      r1,[r2,#4]
        0x0000fc8a:    60d0        .`      STR      r0,[r2,#0xc]
        0x0000fc8c:    6958        Xi      LDR      r0,[r3,#0x14]
        0x0000fc8e:    63d0        .c      STR      r0,[r2,#0x3c]
        0x0000fc90:    480e        .H      LDR      r0,[pc,#56] ; [0xfccc] = 0x500142b4
        0x0000fc92:    6390        .c      STR      r0,[r2,#0x38]
        0x0000fc94:    bc10        ..      POP      {r4}
        0x0000fc96:    2000        .       MOVS     r0,#0
        0x0000fc98:    4770        pG      BX       lr
        0x0000fc9a:    f2440ca0    D...    MOV      r12,#0x40a0
        0x0000fc9e:    ea41010c    A...    ORR      r1,r1,r12
        0x0000fca2:    f04f0c02    O...    MOV      r12,#2
        0x0000fca6:    f8c0c834    ..4.    STR      r12,[r0,#0x834]
        0x0000fcaa:    e7eb        ..      B        0xfc84 ; build_dma_cmdlist + 300
    $d
        0x0000fcac:    50014008    .@.P    DCD    1342259208
        0x0000fcb0:    5001400c    .@.P    DCD    1342259212
        0x0000fcb4:    50014000    .@.P    DCD    1342259200
        0x0000fcb8:    50014250    PB.P    DCD    1342259792
        0x0000fcbc:    50014258    XB.P    DCD    1342259800
        0x0000fcc0:    5001425c    \B.P    DCD    1342259804
        0x0000fcc4:    50014260    `B.P    DCD    1342259808
        0x0000fcc8:    500142b8    .B.P    DCD    1342259896
        0x0000fccc:    500142b4    .B.P    DCD    1342259892
    $t
    i.decstr_to_int
    decstr_to_int
        0x0000fcd0:    b530        0.      PUSH     {r4,r5,lr}
        0x0000fcd2:    4602        .F      MOV      r2,r0
        0x0000fcd4:    2500        .%      MOVS     r5,#0
        0x0000fcd6:    2300        .#      MOVS     r3,#0
        0x0000fcd8:    2400        .$      MOVS     r4,#0
        0x0000fcda:    7810        .x      LDRB     r0,[r2,#0]
        0x0000fcdc:    282d        -(      CMP      r0,#0x2d
        0x0000fcde:    d102        ..      BNE      0xfce6 ; decstr_to_int + 22
        0x0000fce0:    2501        .%      MOVS     r5,#1
        0x0000fce2:    1c52        R.      ADDS     r2,r2,#1
        0x0000fce4:    1c64        d.      ADDS     r4,r4,#1
        0x0000fce6:    e007        ..      B        0xfcf8 ; decstr_to_int + 40
        0x0000fce8:    1c64        d.      ADDS     r4,r4,#1
        0x0000fcea:    eb030083    ....    ADD      r0,r3,r3,LSL #2
        0x0000fcee:    0043        C.      LSLS     r3,r0,#1
        0x0000fcf0:    7810        .x      LDRB     r0,[r2,#0]
        0x0000fcf2:    3830        08      SUBS     r0,r0,#0x30
        0x0000fcf4:    4403        .D      ADD      r3,r3,r0
        0x0000fcf6:    1c52        R.      ADDS     r2,r2,#1
        0x0000fcf8:    7810        .x      LDRB     r0,[r2,#0]
        0x0000fcfa:    2830        0(      CMP      r0,#0x30
        0x0000fcfc:    db02        ..      BLT      0xfd04 ; decstr_to_int + 52
        0x0000fcfe:    7810        .x      LDRB     r0,[r2,#0]
        0x0000fd00:    2839        9(      CMP      r0,#0x39
        0x0000fd02:    ddf1        ..      BLE      0xfce8 ; decstr_to_int + 24
        0x0000fd04:    b101        ..      CBZ      r1,0xfd08 ; decstr_to_int + 56
        0x0000fd06:    600c        .`      STR      r4,[r1,#0]
        0x0000fd08:    b10d        ..      CBZ      r5,0xfd0e ; decstr_to_int + 62
        0x0000fd0a:    4258        XB      RSBS     r0,r3,#0
        0x0000fd0c:    bd30        0.      POP      {r4,r5,pc}
        0x0000fd0e:    4618        .F      MOV      r0,r3
        0x0000fd10:    e7fc        ..      B        0xfd0c ; decstr_to_int + 60
    i.divu64_10
    divu64_10
        0x0000fd12:    e92d4ff0    -..O    PUSH     {r4-r11,lr}
        0x0000fd16:    4604        .F      MOV      r4,r0
        0x0000fd18:    460d        .F      MOV      r5,r1
        0x0000fd1a:    2000        .       MOVS     r0,#0
        0x0000fd1c:    ea850100    ....    EOR      r1,r5,r0
        0x0000fd20:    4040        @@      EORS     r0,r0,r0
        0x0000fd22:    4301        .C      ORRS     r1,r1,r0
        0x0000fd24:    d044        D.      BEQ      0xfdb0 ; divu64_10 + 158
        0x0000fd26:    ea5f0a55    _.U.    LSRS     r10,r5,#1
        0x0000fd2a:    ea4f0134    O.4.    RRX      r1,r4
        0x0000fd2e:    ea4f0b94    O...    LSR      r11,r4,#2
        0x0000fd32:    ea4b7085    K..p    ORR      r0,r11,r5,LSL #30
        0x0000fd36:    180a        ..      ADDS     r2,r1,r0
        0x0000fd38:    eb4a0395    J...    ADC      r3,r10,r5,LSR #2
        0x0000fd3c:    ea4f1012    O...    LSR      r0,r2,#4
        0x0000fd40:    ea407a03    @..z    ORR      r10,r0,r3,LSL #28
        0x0000fd44:    eb1a0202    ....    ADDS     r2,r10,r2
        0x0000fd48:    eb431313    C...    ADC      r3,r3,r3,LSR #4
        0x0000fd4c:    ea4f2012    O..     LSR      r0,r2,#8
        0x0000fd50:    ea406a03    @..j    ORR      r10,r0,r3,LSL #24
        0x0000fd54:    eb1a0202    ....    ADDS     r2,r10,r2
        0x0000fd58:    eb432313    C..#    ADC      r3,r3,r3,LSR #8
        0x0000fd5c:    ea4f4012    O..@    LSR      r0,r2,#16
        0x0000fd60:    ea404a03    @..J    ORR      r10,r0,r3,LSL #16
        0x0000fd64:    eb1a0202    ....    ADDS     r2,r10,r2
        0x0000fd68:    eb434313    C..C    ADC      r3,r3,r3,LSR #16
        0x0000fd6c:    189a        ..      ADDS     r2,r3,r2
        0x0000fd6e:    f1430300    C...    ADC      r3,r3,#0
        0x0000fd72:    08d0        ..      LSRS     r0,r2,#3
        0x0000fd74:    ea407243    @.Cr    ORR      r2,r0,r3,LSL #29
        0x0000fd78:    08db        ..      LSRS     r3,r3,#3
        0x0000fd7a:    210a        .!      MOVS     r1,#0xa
        0x0000fd7c:    f04f0a00    O...    MOV      r10,#0
        0x0000fd80:    fba20b01    ....    UMULL    r0,r11,r2,r1
        0x0000fd84:    fb03b101    ....    MLA      r1,r3,r1,r11
        0x0000fd88:    fb02110a    ....    MLA      r1,r2,r10,r1
        0x0000fd8c:    1a26        &.      SUBS     r6,r4,r0
        0x0000fd8e:    eb650701    e...    SBC      r7,r5,r1
        0x0000fd92:    2106        .!      MOVS     r1,#6
        0x0000fd94:    eb160a01    ....    ADDS     r10,r6,r1
        0x0000fd98:    f1470100    G...    ADC      r1,r7,#0
        0x0000fd9c:    ea4f101a    O...    LSR      r0,r10,#4
        0x0000fda0:    ea407a01    @..z    ORR      r10,r0,r1,LSL #28
        0x0000fda4:    eb1a0002    ....    ADDS     r0,r10,r2
        0x0000fda8:    eb431111    C...    ADC      r1,r3,r1,LSR #4
        0x0000fdac:    e8bd8ff0    ....    POP      {r4-r11,pc}
        0x0000fdb0:    46a0        .F      MOV      r8,r4
        0x0000fdb2:    ea4f0058    O.X.    LSR      r0,r8,#1
        0x0000fdb6:    eb000c98    ....    ADD      r12,r0,r8,LSR #2
        0x0000fdba:    eb0c1c1c    ....    ADD      r12,r12,r12,LSR #4
        0x0000fdbe:    eb0c2c1c    ...,    ADD      r12,r12,r12,LSR #8
        0x0000fdc2:    eb0c4c1c    ...L    ADD      r12,r12,r12,LSR #16
        0x0000fdc6:    ea4f0cdc    O...    LSR      r12,r12,#3
        0x0000fdca:    eb0c008c    ....    ADD      r0,r12,r12,LSL #2
        0x0000fdce:    eba80940    ..@.    SUB      r9,r8,r0,LSL #1
        0x0000fdd2:    f1090006    ....    ADD      r0,r9,#6
        0x0000fdd6:    eb0c1010    ....    ADD      r0,r12,r0,LSR #4
        0x0000fdda:    2100        .!      MOVS     r1,#0
        0x0000fddc:    e7e6        ..      B        0xfdac ; divu64_10 + 154
        0x0000fdde:    0000        ..      MOVS     r0,r0
    i.ftoa
    ftoa
        0x0000fde0:    e92d4ff3    -..O    PUSH     {r0,r1,r4-r11,lr}
        0x0000fde4:    ed2d0b02    -...    VPUSH    {d0}
        0x0000fde8:    ed2d8b02    -...    VPUSH    {d8}
        0x0000fdec:    b081        ..      SUB      sp,sp,#4
        0x0000fdee:    eeb08a40    ..@.    VMOV.F32 s16,s0
        0x0000fdf2:    4604        .F      MOV      r4,r0
        0x0000fdf4:    f8d4b000    ....    LDR      r11,[r4,#0]
        0x0000fdf8:    f1bb0f04    ....    CMP      r11,#4
        0x0000fdfc:    da07        ..      BGE      0xfe0e ; ftoa + 46
        0x0000fdfe:    f06f0002    o...    MVN      r0,#2
        0x0000fe02:    b001        ..      ADD      sp,sp,#4
        0x0000fe04:    ecbd8b02    ....    VPOP     {d8}
        0x0000fe08:    b004        ..      ADD      sp,sp,#0x10
        0x0000fe0a:    e8bd8ff0    ....    POP      {r4-r11,pc}
        0x0000fe0e:    eeb58ac0    ....    VCMPE.F32 s16,#0.0
        0x0000fe12:    eef1fa10    ....    VMRS     APSR_nzcv,FPSCR
        0x0000fe16:    d103        ..      BNE      0xfe20 ; ftoa + 64
        0x0000fe18:    484e        NH      LDR      r0,[pc,#312] ; [0xff54] = 0x302e30
        0x0000fe1a:    6020         `      STR      r0,[r4,#0]
        0x0000fe1c:    2003        .       MOVS     r0,#3
        0x0000fe1e:    e7f0        ..      B        0xfe02 ; ftoa + 34
        0x0000fe20:    46a2        .F      MOV      r10,r4
        0x0000fe22:    ed8d8a00    ....    VSTR     s16,[sp,#0]
        0x0000fe26:    9800        ..      LDR      r0,[sp,#0]
        0x0000fe28:    f3c050c7    ...P    UBFX     r0,r0,#23,#8
        0x0000fe2c:    f1a0057f    ....    SUB      r5,r0,#0x7f
        0x0000fe30:    9800        ..      LDR      r0,[sp,#0]
        0x0000fe32:    f020407f     ..@    BIC      r0,r0,#0xff000000
        0x0000fe36:    f4400900    @...    ORR      r9,r0,#0x800000
        0x0000fe3a:    f04f0800    O...    MOV      r8,#0
        0x0000fe3e:    2700        .'      MOVS     r7,#0
        0x0000fe40:    2d1f        .-      CMP      r5,#0x1f
        0x0000fe42:    db01        ..      BLT      0xfe48 ; ftoa + 104
        0x0000fe44:    1eb8        ..      SUBS     r0,r7,#2
        0x0000fe46:    e7dc        ..      B        0xfe02 ; ftoa + 34
        0x0000fe48:    f1150f17    ....    CMN      r5,#0x17
        0x0000fe4c:    da02        ..      BGE      0xfe54 ; ftoa + 116
        0x0000fe4e:    f04f30ff    O..0    MOV      r0,#0xffffffff
        0x0000fe52:    e7d6        ..      B        0xfe02 ; ftoa + 34
        0x0000fe54:    2d17        .-      CMP      r5,#0x17
        0x0000fe56:    db04        ..      BLT      0xfe62 ; ftoa + 130
        0x0000fe58:    f1a50017    ....    SUB      r0,r5,#0x17
        0x0000fe5c:    fa09f700    ....    LSL      r7,r9,r0
        0x0000fe60:    e011        ..      B        0xfe86 ; ftoa + 166
        0x0000fe62:    2d00        .-      CMP      r5,#0
        0x0000fe64:    db09        ..      BLT      0xfe7a ; ftoa + 154
        0x0000fe66:    f1c50017    ....    RSB      r0,r5,#0x17
        0x0000fe6a:    fa49f700    I...    ASR      r7,r9,r0
        0x0000fe6e:    1c68        h.      ADDS     r0,r5,#1
        0x0000fe70:    fa09f000    ....    LSL      r0,r9,r0
        0x0000fe74:    f020487f     ..H    BIC      r8,r0,#0xff000000
        0x0000fe78:    e005        ..      B        0xfe86 ; ftoa + 166
        0x0000fe7a:    f029407f    )..@    BIC      r0,r9,#0xff000000
        0x0000fe7e:    1c69        i.      ADDS     r1,r5,#1
        0x0000fe80:    4249        IB      RSBS     r1,r1,#0
        0x0000fe82:    fa40f801    @...    ASR      r8,r0,r1
        0x0000fe86:    9800        ..      LDR      r0,[sp,#0]
        0x0000fe88:    2800        .(      CMP      r0,#0
        0x0000fe8a:    da02        ..      BGE      0xfe92 ; ftoa + 178
        0x0000fe8c:    202d        -       MOVS     r0,#0x2d
        0x0000fe8e:    f8040b01    ....    STRB     r0,[r4],#1
        0x0000fe92:    b91f        ..      CBNZ     r7,0xfe9c ; ftoa + 188
        0x0000fe94:    2030        0       MOVS     r0,#0x30
        0x0000fe96:    f8040b01    ....    STRB     r0,[r4],#1
        0x0000fe9a:    e014        ..      B        0xfec6 ; ftoa + 230
        0x0000fe9c:    2f00        ./      CMP      r7,#0
        0x0000fe9e:    dd05        ..      BLE      0xfeac ; ftoa + 204
        0x0000fea0:    4622        "F      MOV      r2,r4
        0x0000fea2:    4638        8F      MOV      r0,r7
        0x0000fea4:    17f9        ..      ASRS     r1,r7,#31
        0x0000fea6:    f000fe1e    ....    BL       uint64_to_str ; 0x10ae6
        0x0000feaa:    e007        ..      B        0xfebc ; ftoa + 220
        0x0000feac:    202d        -       MOVS     r0,#0x2d
        0x0000feae:    f8040b01    ....    STRB     r0,[r4],#1
        0x0000feb2:    4622        "F      MOV      r2,r4
        0x0000feb4:    4278        xB      RSBS     r0,r7,#0
        0x0000feb6:    17c1        ..      ASRS     r1,r0,#31
        0x0000feb8:    f000fe15    ....    BL       uint64_to_str ; 0x10ae6
        0x0000febc:    e000        ..      B        0xfec0 ; ftoa + 224
        0x0000febe:    1c64        d.      ADDS     r4,r4,#1
        0x0000fec0:    7820         x      LDRB     r0,[r4,#0]
        0x0000fec2:    2800        .(      CMP      r0,#0
        0x0000fec4:    d1fb        ..      BNE      0xfebe ; ftoa + 222
        0x0000fec6:    202e        .       MOVS     r0,#0x2e
        0x0000fec8:    f8040b01    ....    STRB     r0,[r4],#1
        0x0000fecc:    f1b80f00    ....    CMP      r8,#0
        0x0000fed0:    d103        ..      BNE      0xfeda ; ftoa + 250
        0x0000fed2:    2030        0       MOVS     r0,#0x30
        0x0000fed4:    f8040b01    ....    STRB     r0,[r4],#1
        0x0000fed8:    e036        6.      B        0xff48 ; ftoa + 360
        0x0000feda:    eba4020a    ....    SUB      r2,r4,r10
        0x0000fede:    ebab0202    ....    SUB      r2,r11,r2
        0x0000fee2:    1e51        Q.      SUBS     r1,r2,#1
        0x0000fee4:    9a06        ..      LDR      r2,[sp,#0x18]
        0x0000fee6:    4291        .B      CMP      r1,r2
        0x0000fee8:    dd01        ..      BLE      0xfeee ; ftoa + 270
        0x0000feea:    9a06        ..      LDR      r2,[sp,#0x18]
        0x0000feec:    e000        ..      B        0xfef0 ; ftoa + 272
        0x0000feee:    460a        .F      MOV      r2,r1
        0x0000fef0:    4611        .F      MOV      r1,r2
        0x0000fef2:    2000        .       MOVS     r0,#0
        0x0000fef4:    e00b        ..      B        0xff0e ; ftoa + 302
        0x0000fef6:    eb080288    ....    ADD      r2,r8,r8,LSL #2
        0x0000fefa:    ea4f0842    O.B.    LSL      r8,r2,#1
        0x0000fefe:    2230        0"      MOVS     r2,#0x30
        0x0000ff00:    eb026228    ..(b    ADD      r2,r2,r8,ASR #24
        0x0000ff04:    f8042b01    ...+    STRB     r2,[r4],#1
        0x0000ff08:    f028487f    (..H    BIC      r8,r8,#0xff000000
        0x0000ff0c:    1c40        @.      ADDS     r0,r0,#1
        0x0000ff0e:    4288        .B      CMP      r0,r1
        0x0000ff10:    dbf1        ..      BLT      0xfef6 ; ftoa + 278
        0x0000ff12:    eb080288    ....    ADD      r2,r8,r8,LSL #2
        0x0000ff16:    0052        R.      LSLS     r2,r2,#1
        0x0000ff18:    2305        .#      MOVS     r3,#5
        0x0000ff1a:    ebb36f22    .."o    CMP      r3,r2,ASR #24
        0x0000ff1e:    dc12        ..      BGT      0xff46 ; ftoa + 358
        0x0000ff20:    1e66        f.      SUBS     r6,r4,#1
        0x0000ff22:    e00d        ..      B        0xff40 ; ftoa + 352
        0x0000ff24:    7832        2x      LDRB     r2,[r6,#0]
        0x0000ff26:    2a2e        .*      CMP      r2,#0x2e
        0x0000ff28:    d009        ..      BEQ      0xff3e ; ftoa + 350
        0x0000ff2a:    7832        2x      LDRB     r2,[r6,#0]
        0x0000ff2c:    2a39        9*      CMP      r2,#0x39
        0x0000ff2e:    d102        ..      BNE      0xff36 ; ftoa + 342
        0x0000ff30:    2230        0"      MOVS     r2,#0x30
        0x0000ff32:    7032        2p      STRB     r2,[r6,#0]
        0x0000ff34:    e003        ..      B        0xff3e ; ftoa + 350
        0x0000ff36:    7832        2x      LDRB     r2,[r6,#0]
        0x0000ff38:    1c52        R.      ADDS     r2,r2,#1
        0x0000ff3a:    7032        2p      STRB     r2,[r6,#0]
        0x0000ff3c:    e002        ..      B        0xff44 ; ftoa + 356
        0x0000ff3e:    1e76        v.      SUBS     r6,r6,#1
        0x0000ff40:    4556        VE      CMP      r6,r10
        0x0000ff42:    d2ef        ..      BCS      0xff24 ; ftoa + 324
        0x0000ff44:    bf00        ..      NOP      
        0x0000ff46:    bf00        ..      NOP      
        0x0000ff48:    2000        .       MOVS     r0,#0
        0x0000ff4a:    7020         p      STRB     r0,[r4,#0]
        0x0000ff4c:    eba4000a    ....    SUB      r0,r4,r10
        0x0000ff50:    e757        W.      B        0xfe02 ; ftoa + 34
    $d
        0x0000ff52:    0000        ..      DCW    0
        0x0000ff54:    00302e30    0.0.    DCD    3157552
    $t
    i.main
    main
        0x0000ff58:    b508        ..      PUSH     {r3,lr}
        0x0000ff5a:    487f        .H      LDR      r0,[pc,#508] ; [0x10158] = 0xc219
        0x0000ff5c:    f0200601     ...    BIC      r6,r0,#1
        0x0000ff60:    4f7e        ~O      LDR      r7,[pc,#504] ; [0x1015c] = 0x4100001
        0x0000ff62:    2100        .!      MOVS     r1,#0
        0x0000ff64:    4608        .F      MOV      r0,r1
        0x0000ff66:    f7fdf9b9    ....    BL       am_hal_clkgen_control ; 0xd2dc
        0x0000ff6a:    f7fcfa55    ..U.    BL       am_bsp_low_power_init ; 0xc418
        0x0000ff6e:    f7fcfa35    ..5.    BL       am_bsp_itm_printf_enable ; 0xc3dc
        0x0000ff72:    f7fffc07    ....    BL       am_util_stdio_terminal_clear ; 0xf784
        0x0000ff76:    a07a        z.      ADR      r0,{pc}+0x1ea ; 0x10160
        0x0000ff78:    f7fffbe0    ....    BL       am_util_stdio_printf ; 0xf73c
        0x0000ff7c:    4b80        .K      LDR      r3,[pc,#512] ; [0x10180] = 0x10000000
        0x0000ff7e:    4a81        .J      LDR      r2,[pc,#516] ; [0x10184] = 0x10000004
        0x0000ff80:    4981        .I      LDR      r1,[pc,#516] ; [0x10188] = 0x10c6c
        0x0000ff82:    2001        .       MOVS     r0,#1
        0x0000ff84:    f7fcfce2    ....    BL       am_devices_mspi_atxp032_init ; 0xc94c
        0x0000ff88:    4604        .F      MOV      r4,r0
        0x0000ff8a:    b114        ..      CBZ      r4,0xff92 ; main + 58
        0x0000ff8c:    a07f        ..      ADR      r0,{pc}+0x200 ; 0x1018c
        0x0000ff8e:    f7fffbd5    ....    BL       am_util_stdio_printf ; 0xf73c
        0x0000ff92:    498d        .I      LDR      r1,[pc,#564] ; [0x101c8] = 0x10c80
        0x0000ff94:    f9910001    ....    LDRSB    r0,[r1,#1]
        0x0000ff98:    2800        .(      CMP      r0,#0
        0x0000ff9a:    db0d        ..      BLT      0xffb8 ; main + 96
        0x0000ff9c:    bf00        ..      NOP      
        0x0000ff9e:    bf00        ..      NOP      
        0x0000ffa0:    f000021f    ....    AND      r2,r0,#0x1f
        0x0000ffa4:    2101        .!      MOVS     r1,#1
        0x0000ffa6:    4091        .@      LSLS     r1,r1,r2
        0x0000ffa8:    0942        B.      LSRS     r2,r0,#5
        0x0000ffaa:    0092        ..      LSLS     r2,r2,#2
        0x0000ffac:    f10222e0    ..."    ADD      r2,r2,#0xe000e000
        0x0000ffb0:    f8c21100    ....    STR      r1,[r2,#0x100]
        0x0000ffb4:    bf00        ..      NOP      
        0x0000ffb6:    bf00        ..      NOP      
        0x0000ffb8:    bf00        ..      NOP      
        0x0000ffba:    f7fcf961    ..a.    BL       am_hal_interrupt_master_enable ; 0xc280
        0x0000ffbe:    2000        .       MOVS     r0,#0
        0x0000ffc0:    e002        ..      B        0xffc8 ; main + 112
        0x0000ffc2:    4a82        .J      LDR      r2,[pc,#520] ; [0x101cc] = 0x10004550
        0x0000ffc4:    5410        .T      STRB     r0,[r2,r0]
        0x0000ffc6:    1c40        @.      ADDS     r0,r0,#1
        0x0000ffc8:    f5b05f80    ..._    CMP      r0,#0x1000
        0x0000ffcc:    d3f9        ..      BCC      0xffc2 ; main + 106
        0x0000ffce:    2110        .!      MOVS     r1,#0x10
        0x0000ffd0:    a07f        ..      ADR      r0,{pc}+0x200 ; 0x101d0
        0x0000ffd2:    f7fffbb3    ....    BL       am_util_stdio_printf ; 0xf73c
        0x0000ffd6:    f44f1180    O...    MOV      r1,#0x100000
        0x0000ffda:    486a        jH      LDR      r0,[pc,#424] ; [0x10184] = 0x10000004
        0x0000ffdc:    6800        .h      LDR      r0,[r0,#0]
        0x0000ffde:    f7fcfea5    ....    BL       am_devices_mspi_atxp032_sector_erase ; 0xcd2c
        0x0000ffe2:    4604        .F      MOV      r4,r0
        0x0000ffe4:    b114        ..      CBZ      r4,0xffec ; main + 148
        0x0000ffe6:    a07f        ..      ADR      r0,{pc}+0x1fe ; 0x101e4
        0x0000ffe8:    f7fffba8    ....    BL       am_util_stdio_printf ; 0xf73c
        0x0000ffec:    4865        eH      LDR      r0,[pc,#404] ; [0x10184] = 0x10000004
        0x0000ffee:    6800        .h      LDR      r0,[r0,#0]
        0x0000fff0:    f7fcfc6e    ..n.    BL       am_devices_mspi_atxp032_disable_xip ; 0xc8d0
        0x0000fff4:    4604        .F      MOV      r4,r0
        0x0000fff6:    b114        ..      CBZ      r4,0xfffe ; main + 166
        0x0000fff8:    a084        ..      ADR      r0,{pc}+0x214 ; 0x1020c
        0x0000fffa:    f7fffb9f    ....    BL       am_util_stdio_printf ; 0xf73c
        0x0000fffe:    2210        ."      MOVS     r2,#0x10
        0x00010000:    0211        ..      LSLS     r1,r2,#8
        0x00010002:    a08d        ..      ADR      r0,{pc}+0x236 ; 0x10238
        0x00010004:    f7fffb9a    ....    BL       am_util_stdio_printf ; 0xf73c
        0x00010008:    2001        .       MOVS     r0,#1
        0x0001000a:    0303        ..      LSLS     r3,r0,#12
        0x0001000c:    0502        ..      LSLS     r2,r0,#20
        0x0001000e:    496f        oI      LDR      r1,[pc,#444] ; [0x101cc] = 0x10004550
        0x00010010:    9000        ..      STR      r0,[sp,#0]
        0x00010012:    485c        \H      LDR      r0,[pc,#368] ; [0x10184] = 0x10000004
        0x00010014:    6800        .h      LDR      r0,[r0,#0]
        0x00010016:    f7fcff31    ..1.    BL       am_devices_mspi_atxp032_write ; 0xce7c
        0x0001001a:    4604        .F      MOV      r4,r0
        0x0001001c:    b114        ..      CBZ      r4,0x10024 ; main + 204
        0x0001001e:    a08e        ..      ADR      r0,{pc}+0x23a ; 0x10258
        0x00010020:    f7fffb8c    ....    BL       am_util_stdio_printf ; 0xf73c
        0x00010024:    2210        ."      MOVS     r2,#0x10
        0x00010026:    0211        ..      LSLS     r1,r2,#8
        0x00010028:    a096        ..      ADR      r0,{pc}+0x25c ; 0x10284
        0x0001002a:    f7fffb87    ....    BL       am_util_stdio_printf ; 0xf73c
        0x0001002e:    2001        .       MOVS     r0,#1
        0x00010030:    0303        ..      LSLS     r3,r0,#12
        0x00010032:    0502        ..      LSLS     r2,r0,#20
        0x00010034:    499b        .I      LDR      r1,[pc,#620] ; [0x102a4] = 0x10005550
        0x00010036:    9000        ..      STR      r0,[sp,#0]
        0x00010038:    4852        RH      LDR      r0,[pc,#328] ; [0x10184] = 0x10000004
        0x0001003a:    6800        .h      LDR      r0,[r0,#0]
        0x0001003c:    f7fcfe0c    ....    BL       am_devices_mspi_atxp032_read ; 0xcc58
        0x00010040:    4604        .F      MOV      r4,r0
        0x00010042:    b114        ..      CBZ      r4,0x1004a ; main + 242
        0x00010044:    a098        ..      ADR      r0,{pc}+0x264 ; 0x102a8
        0x00010046:    f7fffb79    ..y.    BL       am_util_stdio_printf ; 0xf73c
        0x0001004a:    a0a1        ..      ADR      r0,{pc}+0x286 ; 0x102d0
        0x0001004c:    f7fffb76    ..v.    BL       am_util_stdio_printf ; 0xf73c
        0x00010050:    2500        .%      MOVS     r5,#0
        0x00010052:    e00a        ..      B        0x1006a ; main + 274
        0x00010054:    4893        .H      LDR      r0,[pc,#588] ; [0x102a4] = 0x10005550
        0x00010056:    5d40        @]      LDRB     r0,[r0,r5]
        0x00010058:    495c        \I      LDR      r1,[pc,#368] ; [0x101cc] = 0x10004550
        0x0001005a:    5d49        I]      LDRB     r1,[r1,r5]
        0x0001005c:    4288        .B      CMP      r0,r1
        0x0001005e:    d003        ..      BEQ      0x10068 ; main + 272
        0x00010060:    a0a4        ..      ADR      r0,{pc}+0x294 ; 0x102f4
        0x00010062:    f7fffb6b    ..k.    BL       am_util_stdio_printf ; 0xf73c
        0x00010066:    e003        ..      B        0x10070 ; main + 280
        0x00010068:    1c6d        m.      ADDS     r5,r5,#1
        0x0001006a:    f5b55f80    ..._    CMP      r5,#0x1000
        0x0001006e:    d3f1        ..      BCC      0x10054 ; main + 252
        0x00010070:    bf00        ..      NOP      
        0x00010072:    2110        .!      MOVS     r1,#0x10
        0x00010074:    a056        V.      ADR      r0,{pc}+0x15c ; 0x101d0
        0x00010076:    f7fffb61    ..a.    BL       am_util_stdio_printf ; 0xf73c
        0x0001007a:    f44f1180    O...    MOV      r1,#0x100000
        0x0001007e:    4841        AH      LDR      r0,[pc,#260] ; [0x10184] = 0x10000004
        0x00010080:    6800        .h      LDR      r0,[r0,#0]
        0x00010082:    f7fcfe53    ..S.    BL       am_devices_mspi_atxp032_sector_erase ; 0xcd2c
        0x00010086:    4604        .F      MOV      r4,r0
        0x00010088:    b114        ..      CBZ      r4,0x10090 ; main + 312
        0x0001008a:    a056        V.      ADR      r0,{pc}+0x15a ; 0x101e4
        0x0001008c:    f7fffb56    ..V.    BL       am_util_stdio_printf ; 0xf73c
        0x00010090:    a0a2        ..      ADR      r0,{pc}+0x28c ; 0x1031c
        0x00010092:    f7fffb53    ..S.    BL       am_util_stdio_printf ; 0xf73c
        0x00010096:    483b        ;H      LDR      r0,[pc,#236] ; [0x10184] = 0x10000004
        0x00010098:    6800        .h      LDR      r0,[r0,#0]
        0x0001009a:    f7fcfc3b    ..;.    BL       am_devices_mspi_atxp032_enable_scrambling ; 0xc914
        0x0001009e:    4604        .F      MOV      r4,r0
        0x000100a0:    b114        ..      CBZ      r4,0x100a8 ; main + 336
        0x000100a2:    a0a8        ..      ADR      r0,{pc}+0x2a2 ; 0x10344
        0x000100a4:    f7fffb4a    ..J.    BL       am_util_stdio_printf ; 0xf73c
        0x000100a8:    2210        ."      MOVS     r2,#0x10
        0x000100aa:    2148        H!      MOVS     r1,#0x48
        0x000100ac:    a0ae        ..      ADR      r0,{pc}+0x2bc ; 0x10368
        0x000100ae:    f7fffb45    ..E.    BL       am_util_stdio_printf ; 0xf73c
        0x000100b2:    2001        .       MOVS     r0,#1
        0x000100b4:    2348        H#      MOVS     r3,#0x48
        0x000100b6:    0502        ..      LSLS     r2,r0,#20
        0x000100b8:    4631        1F      MOV      r1,r6
        0x000100ba:    9000        ..      STR      r0,[sp,#0]
        0x000100bc:    4831        1H      LDR      r0,[pc,#196] ; [0x10184] = 0x10000004
        0x000100be:    6800        .h      LDR      r0,[r0,#0]
        0x000100c0:    f7fcfedc    ....    BL       am_devices_mspi_atxp032_write ; 0xce7c
        0x000100c4:    4604        .F      MOV      r4,r0
        0x000100c6:    b114        ..      CBZ      r4,0x100ce ; main + 374
        0x000100c8:    a0b5        ..      ADR      r0,{pc}+0x2d8 ; 0x103a0
        0x000100ca:    f7fffb37    ..7.    BL       am_util_stdio_printf ; 0xf73c
        0x000100ce:    a0c2        ..      ADR      r0,{pc}+0x30a ; 0x103d8
        0x000100d0:    f7fffb34    ..4.    BL       am_util_stdio_printf ; 0xf73c
        0x000100d4:    482b        +H      LDR      r0,[pc,#172] ; [0x10184] = 0x10000004
        0x000100d6:    6800        .h      LDR      r0,[r0,#0]
        0x000100d8:    f7fcfc2a    ..*.    BL       am_devices_mspi_atxp032_enable_xip ; 0xc930
        0x000100dc:    4604        .F      MOV      r4,r0
        0x000100de:    b114        ..      CBZ      r4,0x100e6 ; main + 398
        0x000100e0:    a0ca        ..      ADR      r0,{pc}+0x32c ; 0x1040c
        0x000100e2:    f7fffb2b    ..+.    BL       am_util_stdio_printf ; 0xf73c
        0x000100e6:    a0d3        ..      ADR      r0,{pc}+0x34e ; 0x10434
        0x000100e8:    f7fffb28    ..(.    BL       am_util_stdio_printf ; 0xf73c
        0x000100ec:    47b8        .G      BLX      r7
        0x000100ee:    a0db        ..      ADR      r0,{pc}+0x36e ; 0x1045c
        0x000100f0:    f7fffb24    ..$.    BL       am_util_stdio_printf ; 0xf73c
        0x000100f4:    a0df        ..      ADR      r0,{pc}+0x380 ; 0x10474
        0x000100f6:    f7fffb21    ..!.    BL       am_util_stdio_printf ; 0xf73c
        0x000100fa:    4822        "H      LDR      r0,[pc,#136] ; [0x10184] = 0x10000004
        0x000100fc:    6800        .h      LDR      r0,[r0,#0]
        0x000100fe:    f7fcfbe7    ....    BL       am_devices_mspi_atxp032_disable_xip ; 0xc8d0
        0x00010102:    4604        .F      MOV      r4,r0
        0x00010104:    b114        ..      CBZ      r4,0x1010c ; main + 436
        0x00010106:    a041        A.      ADR      r0,{pc}+0x106 ; 0x1020c
        0x00010108:    f7fffb18    ....    BL       am_util_stdio_printf ; 0xf73c
        0x0001010c:    f7fcf8bc    ....    BL       am_hal_interrupt_master_disable ; 0xc288
        0x00010110:    492d        -I      LDR      r1,[pc,#180] ; [0x101c8] = 0x10c80
        0x00010112:    f9910001    ....    LDRSB    r0,[r1,#1]
        0x00010116:    2800        .(      CMP      r0,#0
        0x00010118:    db0b        ..      BLT      0x10132 ; main + 474
        0x0001011a:    f000021f    ....    AND      r2,r0,#0x1f
        0x0001011e:    2101        .!      MOVS     r1,#1
        0x00010120:    4091        .@      LSLS     r1,r1,r2
        0x00010122:    4ae2        .J      LDR      r2,[pc,#904] ; [0x104ac] = 0xe000e180
        0x00010124:    0943        C.      LSRS     r3,r0,#5
        0x00010126:    f8421023    B.#.    STR      r1,[r2,r3,LSL #2]
        0x0001012a:    f3bf8f4f    ..O.    DSB      
        0x0001012e:    f3bf8f6f    ..o.    ISB      
        0x00010132:    bf00        ..      NOP      
        0x00010134:    4813        .H      LDR      r0,[pc,#76] ; [0x10184] = 0x10000004
        0x00010136:    6800        .h      LDR      r0,[r0,#0]
        0x00010138:    f7fcfb74    ..t.    BL       am_devices_mspi_atxp032_deinit ; 0xc824
        0x0001013c:    4604        .F      MOV      r4,r0
        0x0001013e:    b114        ..      CBZ      r4,0x10146 ; main + 494
        0x00010140:    a0db        ..      ADR      r0,{pc}+0x370 ; 0x104b0
        0x00010142:    f7fffafb    ....    BL       am_util_stdio_printf ; 0xf73c
        0x00010146:    a0e6        ..      ADR      r0,{pc}+0x39a ; 0x104e0
        0x00010148:    f7fffaf8    ....    BL       am_util_stdio_printf ; 0xf73c
        0x0001014c:    e002        ..      B        0x10154 ; main + 508
        0x0001014e:    2001        .       MOVS     r0,#1
        0x00010150:    f7feffe2    ....    BL       am_hal_sysctrl_sleep ; 0xf118
        0x00010154:    e7fb        ..      B        0x1014e ; main + 502
    $d
        0x00010156:    0000        ..      DCW    0
        0x00010158:    0000c219    ....    DCD    49689
        0x0001015c:    04100001    ....    DCD    68157441
        0x00010160:    6c6f7041    Apol    DCD    1819242561
        0x00010164:    70336f6c    lo3p    DCD    1882419052
        0x00010168:    74634f20     Oct    DCD    1952665376
        0x0001016c:    4d206c61    al M    DCD    1293970529
        0x00010170:    20495053    SPI     DCD    541675603
        0x00010174:    6d617845    Exam    DCD    1835104325
        0x00010178:    0a656c70    ple.    DCD    174419056
        0x0001017c:    0000000a    ....    DCD    10
        0x00010180:    10000000    ....    DCD    268435456
        0x00010184:    10000004    ....    DCD    268435460
        0x00010188:    00010c6c    l...    DCD    68716
        0x0001018c:    6c696146    Fail    DCD    1818845510
        0x00010190:    74206465    ed t    DCD    1948279909
        0x00010194:    6f63206f    o co    DCD    1868767343
        0x00010198:    6769666e    nfig    DCD    1734960750
        0x0001019c:    20657275    ure     DCD    543519349
        0x000101a0:    20656874    the     DCD    543516788
        0x000101a4:    4950534d    MSPI    DCD    1230000973
        0x000101a8:    646e6120     and    DCD    1684955424
        0x000101ac:    616c4620     Fla    DCD    1634485792
        0x000101b0:    44206873    sh D    DCD    1142974579
        0x000101b4:    63697665    evic    DCD    1667855973
        0x000101b8:    6f632065    e co    DCD    1868767333
        0x000101bc:    63657272    rrec    DCD    1667592818
        0x000101c0:    21796c74    tly!    DCD    561605748
        0x000101c4:    0000000a    ....    DCD    10
        0x000101c8:    00010c80    ....    DCD    68736
        0x000101cc:    10004550    PE..    DCD    268453200
        0x000101d0:    73617245    Eras    DCD    1935766085
        0x000101d4:    20676e69    ing     DCD    543649385
        0x000101d8:    74636553    Sect    DCD    1952671059
        0x000101dc:    2520726f    or %    DCD    622883439
        0x000101e0:    00000a64    d...    DCD    2660
        0x000101e4:    6c696146    Fail    DCD    1818845510
        0x000101e8:    74206465    ed t    DCD    1948279909
        0x000101ec:    7265206f    o er    DCD    1919230063
        0x000101f0:    20657361    ase     DCD    543519585
        0x000101f4:    73616c46    Flas    DCD    1935764550
        0x000101f8:    65442068    h De    DCD    1698963560
        0x000101fc:    65636976    vice    DCD    1701013878
        0x00010200:    63657320     sec    DCD    1667592992
        0x00010204:    21726f74    tor!    DCD    561147764
        0x00010208:    0000000a    ....    DCD    10
        0x0001020c:    6c696146    Fail    DCD    1818845510
        0x00010210:    74206465    ed t    DCD    1948279909
        0x00010214:    6964206f    o di    DCD    1768169583
        0x00010218:    6c626173    sabl    DCD    1818386803
        0x0001021c:    49582065    e XI    DCD    1230512229
        0x00010220:    6f6d2050    P mo    DCD    1869422672
        0x00010224:    69206564    de i    DCD    1763730788
        0x00010228:    6874206e    n th    DCD    1752440942
        0x0001022c:    534d2065    e MS    DCD    1397563493
        0x00010230:    0a214950    PI!.    DCD    169953616
        0x00010234:    00000000    ....    DCD    0
        0x00010238:    74697257    Writ    DCD    1953067607
        0x0001023c:    20676e69    ing     DCD    543649385
        0x00010240:    42206425    %d B    DCD    1109419045
        0x00010244:    73657479    ytes    DCD    1936028793
        0x00010248:    206f7420     to     DCD    544175136
        0x0001024c:    74636553    Sect    DCD    1952671059
        0x00010250:    2520726f    or %    DCD    622883439
        0x00010254:    00000a64    d...    DCD    2660
        0x00010258:    6c696146    Fail    DCD    1818845510
        0x0001025c:    74206465    ed t    DCD    1948279909
        0x00010260:    7277206f    o wr    DCD    1920409711
        0x00010264:    20657469    ite     DCD    543519849
        0x00010268:    66667562    buff    DCD    1717990754
        0x0001026c:    74207265    er t    DCD    1948283493
        0x00010270:    6c46206f    o Fl    DCD    1816535151
        0x00010274:    20687361    ash     DCD    543716193
        0x00010278:    69766544    Devi    DCD    1769366852
        0x0001027c:    0a216563    ce!.    DCD    169960803
        0x00010280:    00000000    ....    DCD    0
        0x00010284:    64616552    Read    DCD    1684104530
        0x00010288:    20642520     %d     DCD    543434016
        0x0001028c:    65747942    Byte    DCD    1702132034
        0x00010290:    72662073    s fr    DCD    1919295603
        0x00010294:    53206d6f    om S    DCD    1394634095
        0x00010298:    6f746365    ecto    DCD    1869898597
        0x0001029c:    64252072    r %d    DCD    1680154738
        0x000102a0:    0000000a    ....    DCD    10
        0x000102a4:    10005550    PU..    DCD    268457296
        0x000102a8:    6c696146    Fail    DCD    1818845510
        0x000102ac:    74206465    ed t    DCD    1948279909
        0x000102b0:    6572206f    o re    DCD    1701978223
        0x000102b4:    62206461    ad b    DCD    1646290017
        0x000102b8:    65666675    uffe    DCD    1701209717
        0x000102bc:    6f742072    r to    DCD    1869881458
        0x000102c0:    616c4620     Fla    DCD    1634485792
        0x000102c4:    44206873    sh D    DCD    1142974579
        0x000102c8:    63697665    evic    DCD    1667855973
        0x000102cc:    000a2165    e!..    DCD    663909
        0x000102d0:    706d6f43    Comp    DCD    1886220099
        0x000102d4:    6e697261    arin    DCD    1852404321
        0x000102d8:    68742067    g th    DCD    1752440935
        0x000102dc:    58542065    e TX    DCD    1481908325
        0x000102e0:    646e6120     and    DCD    1684955424
        0x000102e4:    20585220     RX     DCD    542659104
        0x000102e8:    66667542    Buff    DCD    1717990722
        0x000102ec:    0a737265    ers.    DCD    175338085
        0x000102f0:    00000000    ....    DCD    0
        0x000102f4:    61205854    TX a    DCD    1629509716
        0x000102f8:    5220646e    nd R    DCD    1377854574
        0x000102fc:    75622058    X bu    DCD    1969365080
        0x00010300:    72656666    ffer    DCD    1919247974
        0x00010304:    61662073    s fa    DCD    1634082931
        0x00010308:    64656c69    iled    DCD    1684368489
        0x0001030c:    206f7420     to     DCD    544175136
        0x00010310:    706d6f63    comp    DCD    1886220131
        0x00010314:    21657261    are!    DCD    560296545
        0x00010318:    0000000a    ....    DCD    10
        0x0001031c:    74747550    Putt    DCD    1953789264
        0x00010320:    20676e69    ing     DCD    543649385
        0x00010324:    20656874    the     DCD    543516788
        0x00010328:    4950534d    MSPI    DCD    1230000973
        0x0001032c:    746e6920     int    DCD    1953392928
        0x00010330:    6353206f    o Sc    DCD    1666392175
        0x00010334:    626d6172    ramb    DCD    1651335538
        0x00010338:    676e696c    ling    DCD    1735289196
        0x0001033c:    646f6d20     mod    DCD    1685024032
        0x00010340:    00000a65    e...    DCD    2661
        0x00010344:    6c696146    Fail    DCD    1818845510
        0x00010348:    74206465    ed t    DCD    1948279909
        0x0001034c:    6e65206f    o en    DCD    1852121199
        0x00010350:    656c6261    able    DCD    1701601889
        0x00010354:    50534d20     MSP    DCD    1347636512
        0x00010358:    63732049    I sc    DCD    1668489289
        0x0001035c:    626d6172    ramb    DCD    1651335538
        0x00010360:    676e696c    ling    DCD    1735289196
        0x00010364:    00000a21    !...    DCD    2593
        0x00010368:    74697257    Writ    DCD    1953067607
        0x0001036c:    20676e69    ing     DCD    543649385
        0x00010370:    63657845    Exec    DCD    1667594309
        0x00010374:    62617475    utab    DCD    1650553973
        0x00010378:    6620656c    le f    DCD    1713399148
        0x0001037c:    74636e75    unct    DCD    1952673397
        0x00010380:    206e6f69    ion     DCD    544108393
        0x00010384:    2520666f    of %    DCD    622880367
        0x00010388:    79422064    d By    DCD    2034376804
        0x0001038c:    20736574    tes     DCD    544433524
        0x00010390:    53206f74    to S    DCD    1394634612
        0x00010394:    6f746365    ecto    DCD    1869898597
        0x00010398:    64252072    r %d    DCD    1680154738
        0x0001039c:    0000000a    ....    DCD    10
        0x000103a0:    6c696146    Fail    DCD    1818845510
        0x000103a4:    74206465    ed t    DCD    1948279909
        0x000103a8:    7277206f    o wr    DCD    1920409711
        0x000103ac:    20657469    ite     DCD    543519849
        0x000103b0:    63657865    exec    DCD    1667594341
        0x000103b4:    62617475    utab    DCD    1650553973
        0x000103b8:    6620656c    le f    DCD    1713399148
        0x000103bc:    74636e75    unct    DCD    1952673397
        0x000103c0:    206e6f69    ion     DCD    544108393
        0x000103c4:    46206f74    to F    DCD    1176530804
        0x000103c8:    6873616c    lash    DCD    1752392044
        0x000103cc:    76654420     Dev    DCD    1986348064
        0x000103d0:    21656369    ice!    DCD    560292713
        0x000103d4:    0000000a    ....    DCD    10
        0x000103d8:    74747550    Putt    DCD    1953789264
        0x000103dc:    20676e69    ing     DCD    543649385
        0x000103e0:    20656874    the     DCD    543516788
        0x000103e4:    4950534d    MSPI    DCD    1230000973
        0x000103e8:    646e6120     and    DCD    1684955424
        0x000103ec:    74784520     Ext    DCD    1954039072
        0x000103f0:    616e7265    erna    DCD    1634628197
        0x000103f4:    6c46206c    l Fl    DCD    1816535148
        0x000103f8:    20687361    ash     DCD    543716193
        0x000103fc:    6f746e69    into    DCD    1869901417
        0x00010400:    50495820     XIP    DCD    1346983968
        0x00010404:    646f6d20     mod    DCD    1685024032
        0x00010408:    00000a65    e...    DCD    2661
        0x0001040c:    6c696146    Fail    DCD    1818845510
        0x00010410:    74206465    ed t    DCD    1948279909
        0x00010414:    7570206f    o pu    DCD    1970282607
        0x00010418:    68742074    t th    DCD    1752440948
        0x0001041c:    534d2065    e MS    DCD    1397563493
        0x00010420:    69204950    PI i    DCD    1763723600
        0x00010424:    206f746e    nto     DCD    544175214
        0x00010428:    20504958    XIP     DCD    542132568
        0x0001042c:    65646f6d    mode    DCD    1701080941
        0x00010430:    00000a21    !...    DCD    2593
        0x00010434:    706d754a    Jump    DCD    1886221642
        0x00010438:    20676e69    ing     DCD    543649385
        0x0001043c:    66206f74    to f    DCD    1713401716
        0x00010440:    74636e75    unct    DCD    1952673397
        0x00010444:    206e6f69    ion     DCD    544108393
        0x00010448:    45206e69    in E    DCD    1159753321
        0x0001044c:    72657478    xter    DCD    1919251576
        0x00010450:    206c616e    nal     DCD    543973742
        0x00010454:    73616c46    Flas    DCD    1935764550
        0x00010458:    00000a68    h...    DCD    2664
        0x0001045c:    75746552    Retu    DCD    1970562386
        0x00010460:    64656e72    rned    DCD    1684369010
        0x00010464:    6f726620     fro    DCD    1869768224
        0x00010468:    4958206d    m XI    DCD    1230512237
        0x0001046c:    61632050    P ca    DCD    1633886288
        0x00010470:    000a6c6c    ll..    DCD    683116
        0x00010474:    61736944    Disa    DCD    1634953540
        0x00010478:    6e696c62    blin    DCD    1852402786
        0x0001047c:    68742067    g th    DCD    1752440935
        0x00010480:    534d2065    e MS    DCD    1397563493
        0x00010484:    61204950    PI a    DCD    1629505872
        0x00010488:    4520646e    nd E    DCD    1159750766
        0x0001048c:    72657478    xter    DCD    1919251576
        0x00010490:    206c616e    nal     DCD    543973742
        0x00010494:    73616c46    Flas    DCD    1935764550
        0x00010498:    72662068    h fr    DCD    1919295592
        0x0001049c:    58206d6f    om X    DCD    1478520175
        0x000104a0:    6d205049    IP m    DCD    1830834249
        0x000104a4:    0a65646f    ode.    DCD    174417007
        0x000104a8:    00000000    ....    DCD    0
        0x000104ac:    e000e180    ....    DCD    3758154112
        0x000104b0:    6c696146    Fail    DCD    1818845510
        0x000104b4:    74206465    ed t    DCD    1948279909
        0x000104b8:    6873206f    o sh    DCD    1752375407
        0x000104bc:    6f647475    utdo    DCD    1868854389
        0x000104c0:    74206e77    wn t    DCD    1948282487
        0x000104c4:    4d206568    he M    DCD    1293968744
        0x000104c8:    20495053    SPI     DCD    541675603
        0x000104cc:    20646e61    and     DCD    543452769
        0x000104d0:    73616c46    Flas    DCD    1935764550
        0x000104d4:    65442068    h De    DCD    1698963560
        0x000104d8:    65636976    vice    DCD    1701013878
        0x000104dc:    00000a21    !...    DCD    2593
        0x000104e0:    6c6f7041    Apol    DCD    1819242561
        0x000104e4:    70336f6c    lo3p    DCD    1882419052
        0x000104e8:    50534d20     MSP    DCD    1347636512
        0x000104ec:    78452049    I Ex    DCD    2017796169
        0x000104f0:    6c706d61    ampl    DCD    1819307361
        0x000104f4:    6f432065    e Co    DCD    1866670181
        0x000104f8:    656c706d    mple    DCD    1701605485
        0x000104fc:    000a6574    te..    DCD    681332
    $t
    i.mspi_device_configure
    mspi_device_configure
        0x00010500:    2914        .)      CMP      r1,#0x14
        0x00010502:    f08081b7    ....    BCS.W    0x10874 ; mspi_device_configure + 884
        0x00010506:    e8dff001    ....    TBB      [pc,r1]
    $d
        0x0001050a:    210a        .!      DCW    8458
        0x0001050c:    7d664f38    8Of}    DCD    2103856952
        0x00010510:    c2c2ab94    ....    DCD    3267537812
        0x00010514:    fafcdcc4    ....    DCD    4210875588
        0x00010518:    f6f7f8f9    ....    DCD    4143446265
        0x0001051c:    f4f5        ..      DCW    62709
    $t
        0x0001051e:    48d6        .H      LDR      r0,[pc,#856] ; [0x10878] = 0x50014000
        0x00010520:    6841        Ah      LDR      r1,[r0,#4]
        0x00010522:    f021010f    !...    BIC      r1,r1,#0xf
        0x00010526:    1c49        I.      ADDS     r1,r1,#1
        0x00010528:    6041        A`      STR      r1,[r0,#4]
        0x0001052a:    6841        Ah      LDR      r1,[r0,#4]
        0x0001052c:    f0410180    A...    ORR      r1,r1,#0x80
        0x00010530:    6041        A`      STR      r1,[r0,#4]
        0x00010532:    f8d0110c    ....    LDR      r1,[r0,#0x10c]
        0x00010536:    f42161e0    !..a    BIC      r1,r1,#0x700
        0x0001053a:    f8c0110c    ....    STR      r1,[r0,#0x10c]
        0x0001053e:    2100        .!      MOVS     r1,#0
        0x00010540:    f8c01104    ....    STR      r1,[r0,#0x104]
        0x00010544:    f2401103    @...    MOV      r1,#0x103
        0x00010548:    f000b992    ....    B.W      0x10870 ; mspi_device_configure + 880
        0x0001054c:    48ca        .H      LDR      r0,[pc,#808] ; [0x10878] = 0x50014000
        0x0001054e:    6841        Ah      LDR      r1,[r0,#4]
        0x00010550:    f021010f    !...    BIC      r1,r1,#0xf
        0x00010554:    1c89        ..      ADDS     r1,r1,#2
        0x00010556:    6041        A`      STR      r1,[r0,#4]
        0x00010558:    6841        Ah      LDR      r1,[r0,#4]
        0x0001055a:    f0410180    A...    ORR      r1,r1,#0x80
        0x0001055e:    6041        A`      STR      r1,[r0,#4]
        0x00010560:    f8d0110c    ....    LDR      r1,[r0,#0x10c]
        0x00010564:    f42161e0    !..a    BIC      r1,r1,#0x700
        0x00010568:    f8c0110c    ....    STR      r1,[r0,#0x10c]
        0x0001056c:    2100        .!      MOVS     r1,#0
        0x0001056e:    f8c01104    ....    STR      r1,[r0,#0x104]
        0x00010572:    f44f7198    O..q    MOV      r1,#0x130
        0x00010576:    f000b97b    ..{.    B.W      0x10870 ; mspi_device_configure + 880
        0x0001057a:    48bf        .H      LDR      r0,[pc,#764] ; [0x10878] = 0x50014000
        0x0001057c:    6841        Ah      LDR      r1,[r0,#4]
        0x0001057e:    f021010f    !...    BIC      r1,r1,#0xf
        0x00010582:    1d49        I.      ADDS     r1,r1,#5
        0x00010584:    6041        A`      STR      r1,[r0,#4]
        0x00010586:    6841        Ah      LDR      r1,[r0,#4]
        0x00010588:    f0210180    !...    BIC      r1,r1,#0x80
        0x0001058c:    6041        A`      STR      r1,[r0,#4]
        0x0001058e:    f8d0110c    ....    LDR      r1,[r0,#0x10c]
        0x00010592:    f42161e0    !..a    BIC      r1,r1,#0x700
        0x00010596:    f8c0110c    ....    STR      r1,[r0,#0x10c]
        0x0001059a:    2100        .!      MOVS     r1,#0
        0x0001059c:    f8c01104    ....    STR      r1,[r0,#0x104]
        0x000105a0:    f2401103    @...    MOV      r1,#0x103
        0x000105a4:    f000b964    ..d.    B.W      0x10870 ; mspi_device_configure + 880
        0x000105a8:    48b3        .H      LDR      r0,[pc,#716] ; [0x10878] = 0x50014000
        0x000105aa:    6841        Ah      LDR      r1,[r0,#4]
        0x000105ac:    f021010f    !...    BIC      r1,r1,#0xf
        0x000105b0:    1d89        ..      ADDS     r1,r1,#6
        0x000105b2:    6041        A`      STR      r1,[r0,#4]
        0x000105b4:    6841        Ah      LDR      r1,[r0,#4]
        0x000105b6:    f0210180    !...    BIC      r1,r1,#0x80
        0x000105ba:    6041        A`      STR      r1,[r0,#4]
        0x000105bc:    f8d0110c    ....    LDR      r1,[r0,#0x10c]
        0x000105c0:    f42161e0    !..a    BIC      r1,r1,#0x700
        0x000105c4:    f8c0110c    ....    STR      r1,[r0,#0x10c]
        0x000105c8:    2100        .!      MOVS     r1,#0
        0x000105ca:    f8c01104    ....    STR      r1,[r0,#0x104]
        0x000105ce:    f44f7198    O..q    MOV      r1,#0x130
        0x000105d2:    f000b94d    ..M.    B.W      0x10870 ; mspi_device_configure + 880
        0x000105d6:    48a8        .H      LDR      r0,[pc,#672] ; [0x10878] = 0x50014000
        0x000105d8:    6841        Ah      LDR      r1,[r0,#4]
        0x000105da:    f021010f    !...    BIC      r1,r1,#0xf
        0x000105de:    3109        .1      ADDS     r1,r1,#9
        0x000105e0:    6041        A`      STR      r1,[r0,#4]
        0x000105e2:    6841        Ah      LDR      r1,[r0,#4]
        0x000105e4:    f0210180    !...    BIC      r1,r1,#0x80
        0x000105e8:    6041        A`      STR      r1,[r0,#4]
        0x000105ea:    f8d0110c    ....    LDR      r1,[r0,#0x10c]
        0x000105ee:    f42161e0    !..a    BIC      r1,r1,#0x700
        0x000105f2:    f8c0110c    ....    STR      r1,[r0,#0x10c]
        0x000105f6:    2100        .!      MOVS     r1,#0
        0x000105f8:    f8c01104    ....    STR      r1,[r0,#0x104]
        0x000105fc:    f240110f    @...    MOV      r1,#0x10f
        0x00010600:    f000b936    ..6.    B.W      0x10870 ; mspi_device_configure + 880
        0x00010604:    489c        .H      LDR      r0,[pc,#624] ; [0x10878] = 0x50014000
        0x00010606:    6841        Ah      LDR      r1,[r0,#4]
        0x00010608:    f021010f    !...    BIC      r1,r1,#0xf
        0x0001060c:    310a        .1      ADDS     r1,r1,#0xa
        0x0001060e:    6041        A`      STR      r1,[r0,#4]
        0x00010610:    6841        Ah      LDR      r1,[r0,#4]
        0x00010612:    f0210180    !...    BIC      r1,r1,#0x80
        0x00010616:    6041        A`      STR      r1,[r0,#4]
        0x00010618:    f8d0110c    ....    LDR      r1,[r0,#0x10c]
        0x0001061c:    f42161e0    !..a    BIC      r1,r1,#0x700
        0x00010620:    f8c0110c    ....    STR      r1,[r0,#0x10c]
        0x00010624:    2100        .!      MOVS     r1,#0
        0x00010626:    f8c01104    ....    STR      r1,[r0,#0x104]
        0x0001062a:    f44f71f8    O..q    MOV      r1,#0x1f0
        0x0001062e:    f000b91f    ....    B.W      0x10870 ; mspi_device_configure + 880
        0x00010632:    4891        .H      LDR      r0,[pc,#580] ; [0x10878] = 0x50014000
        0x00010634:    6841        Ah      LDR      r1,[r0,#4]
        0x00010636:    f021010f    !...    BIC      r1,r1,#0xf
        0x0001063a:    310d        .1      ADDS     r1,r1,#0xd
        0x0001063c:    6041        A`      STR      r1,[r0,#4]
        0x0001063e:    6841        Ah      LDR      r1,[r0,#4]
        0x00010640:    f0210180    !...    BIC      r1,r1,#0x80
        0x00010644:    6041        A`      STR      r1,[r0,#4]
        0x00010646:    f8d0110c    ....    LDR      r1,[r0,#0x10c]
        0x0001064a:    f42161e0    !..a    BIC      r1,r1,#0x700
        0x0001064e:    f8c0110c    ....    STR      r1,[r0,#0x10c]
        0x00010652:    2100        .!      MOVS     r1,#0
        0x00010654:    f8c01104    ....    STR      r1,[r0,#0x104]
        0x00010658:    f24011ff    @...    MOV      r1,#0x1ff
        0x0001065c:    f000b908    ....    B.W      0x10870 ; mspi_device_configure + 880
        0x00010660:    4885        .H      LDR      r0,[pc,#532] ; [0x10878] = 0x50014000
        0x00010662:    6841        Ah      LDR      r1,[r0,#4]
        0x00010664:    f021010f    !...    BIC      r1,r1,#0xf
        0x00010668:    310e        .1      ADDS     r1,r1,#0xe
        0x0001066a:    6041        A`      STR      r1,[r0,#4]
        0x0001066c:    6841        Ah      LDR      r1,[r0,#4]
        0x0001066e:    f0210180    !...    BIC      r1,r1,#0x80
        0x00010672:    6041        A`      STR      r1,[r0,#4]
        0x00010674:    f8d0110c    ....    LDR      r1,[r0,#0x10c]
        0x00010678:    f42161e0    !..a    BIC      r1,r1,#0x700
        0x0001067c:    f8c0110c    ....    STR      r1,[r0,#0x10c]
        0x00010680:    2100        .!      MOVS     r1,#0
        0x00010682:    f8c01104    ....    STR      r1,[r0,#0x104]
        0x00010686:    f24011ff    @...    MOV      r1,#0x1ff
        0x0001068a:    f000b8f1    ....    B.W      0x10870 ; mspi_device_configure + 880
        0x0001068e:    2006        .       MOVS     r0,#6
        0x00010690:    4770        pG      BX       lr
        0x00010692:    4879        yH      LDR      r0,[pc,#484] ; [0x10878] = 0x50014000
        0x00010694:    6841        Ah      LDR      r1,[r0,#4]
        0x00010696:    f021010f    !...    BIC      r1,r1,#0xf
        0x0001069a:    1c49        I.      ADDS     r1,r1,#1
        0x0001069c:    6041        A`      STR      r1,[r0,#4]
        0x0001069e:    6841        Ah      LDR      r1,[r0,#4]
        0x000106a0:    f0210180    !...    BIC      r1,r1,#0x80
        0x000106a4:    6041        A`      STR      r1,[r0,#4]
        0x000106a6:    f8d0110c    ....    LDR      r1,[r0,#0x10c]
        0x000106aa:    f42161e0    !..a    BIC      r1,r1,#0x700
        0x000106ae:    f5017180    ...q    ADD      r1,r1,#0x100
        0x000106b2:    f8c0110c    ....    STR      r1,[r0,#0x10c]
        0x000106b6:    2100        .!      MOVS     r1,#0
        0x000106b8:    f8c01104    ....    STR      r1,[r0,#0x104]
        0x000106bc:    f2401103    @...    MOV      r1,#0x103
        0x000106c0:    e0d6        ..      B        0x10870 ; mspi_device_configure + 880
        0x000106c2:    486d        mH      LDR      r0,[pc,#436] ; [0x10878] = 0x50014000
        0x000106c4:    6841        Ah      LDR      r1,[r0,#4]
        0x000106c6:    f021010f    !...    BIC      r1,r1,#0xf
        0x000106ca:    1c89        ..      ADDS     r1,r1,#2
        0x000106cc:    6041        A`      STR      r1,[r0,#4]
        0x000106ce:    6841        Ah      LDR      r1,[r0,#4]
        0x000106d0:    f0210180    !...    BIC      r1,r1,#0x80
        0x000106d4:    6041        A`      STR      r1,[r0,#4]
        0x000106d6:    f8d0110c    ....    LDR      r1,[r0,#0x10c]
        0x000106da:    f42161e0    !..a    BIC      r1,r1,#0x700
        0x000106de:    f5017180    ...q    ADD      r1,r1,#0x100
        0x000106e2:    f8c0110c    ....    STR      r1,[r0,#0x10c]
        0x000106e6:    2100        .!      MOVS     r1,#0
        0x000106e8:    f8c01104    ....    STR      r1,[r0,#0x104]
        0x000106ec:    f44f7198    O..q    MOV      r1,#0x130
        0x000106f0:    e0be        ..      B        0x10870 ; mspi_device_configure + 880
        0x000106f2:    e0a8        ..      B        0x10846 ; mspi_device_configure + 838
        0x000106f4:    e091        ..      B        0x1081a ; mspi_device_configure + 794
        0x000106f6:    e07a        z.      B        0x107ee ; mspi_device_configure + 750
        0x000106f8:    e063        c.      B        0x107c2 ; mspi_device_configure + 706
        0x000106fa:    e04a        J.      B        0x10792 ; mspi_device_configure + 658
        0x000106fc:    e031        1.      B        0x10762 ; mspi_device_configure + 610
        0x000106fe:    e018        ..      B        0x10732 ; mspi_device_configure + 562
        0x00010700:    e7ff        ..      B        0x10702 ; mspi_device_configure + 514
        0x00010702:    485d        ]H      LDR      r0,[pc,#372] ; [0x10878] = 0x50014000
        0x00010704:    6841        Ah      LDR      r1,[r0,#4]
        0x00010706:    f021010f    !...    BIC      r1,r1,#0xf
        0x0001070a:    1c49        I.      ADDS     r1,r1,#1
        0x0001070c:    6041        A`      STR      r1,[r0,#4]
        0x0001070e:    6841        Ah      LDR      r1,[r0,#4]
        0x00010710:    f0210180    !...    BIC      r1,r1,#0x80
        0x00010714:    6041        A`      STR      r1,[r0,#4]
        0x00010716:    f8d0110c    ....    LDR      r1,[r0,#0x10c]
        0x0001071a:    f42161e0    !..a    BIC      r1,r1,#0x700
        0x0001071e:    f5017140    ..@q    ADD      r1,r1,#0x300
        0x00010722:    f8c0110c    ....    STR      r1,[r0,#0x10c]
        0x00010726:    2100        .!      MOVS     r1,#0
        0x00010728:    f8c01104    ....    STR      r1,[r0,#0x104]
        0x0001072c:    f2401103    @...    MOV      r1,#0x103
        0x00010730:    e09e        ..      B        0x10870 ; mspi_device_configure + 880
        0x00010732:    4851        QH      LDR      r0,[pc,#324] ; [0x10878] = 0x50014000
        0x00010734:    6841        Ah      LDR      r1,[r0,#4]
        0x00010736:    f021010f    !...    BIC      r1,r1,#0xf
        0x0001073a:    1c89        ..      ADDS     r1,r1,#2
        0x0001073c:    6041        A`      STR      r1,[r0,#4]
        0x0001073e:    6841        Ah      LDR      r1,[r0,#4]
        0x00010740:    f0210180    !...    BIC      r1,r1,#0x80
        0x00010744:    6041        A`      STR      r1,[r0,#4]
        0x00010746:    f8d0110c    ....    LDR      r1,[r0,#0x10c]
        0x0001074a:    f42161e0    !..a    BIC      r1,r1,#0x700
        0x0001074e:    f5017140    ..@q    ADD      r1,r1,#0x300
        0x00010752:    f8c0110c    ....    STR      r1,[r0,#0x10c]
        0x00010756:    2100        .!      MOVS     r1,#0
        0x00010758:    f8c01104    ....    STR      r1,[r0,#0x104]
        0x0001075c:    f44f7198    O..q    MOV      r1,#0x130
        0x00010760:    e086        ..      B        0x10870 ; mspi_device_configure + 880
        0x00010762:    4845        EH      LDR      r0,[pc,#276] ; [0x10878] = 0x50014000
        0x00010764:    6841        Ah      LDR      r1,[r0,#4]
        0x00010766:    f021010f    !...    BIC      r1,r1,#0xf
        0x0001076a:    1c49        I.      ADDS     r1,r1,#1
        0x0001076c:    6041        A`      STR      r1,[r0,#4]
        0x0001076e:    6841        Ah      LDR      r1,[r0,#4]
        0x00010770:    f0210180    !...    BIC      r1,r1,#0x80
        0x00010774:    6041        A`      STR      r1,[r0,#4]
        0x00010776:    f8d0110c    ....    LDR      r1,[r0,#0x10c]
        0x0001077a:    f42161e0    !..a    BIC      r1,r1,#0x700
        0x0001077e:    f50161a0    ...a    ADD      r1,r1,#0x500
        0x00010782:    f8c0110c    ....    STR      r1,[r0,#0x10c]
        0x00010786:    2100        .!      MOVS     r1,#0
        0x00010788:    f8c01104    ....    STR      r1,[r0,#0x104]
        0x0001078c:    f240110f    @...    MOV      r1,#0x10f
        0x00010790:    e06e        n.      B        0x10870 ; mspi_device_configure + 880
        0x00010792:    4839        9H      LDR      r0,[pc,#228] ; [0x10878] = 0x50014000
        0x00010794:    6841        Ah      LDR      r1,[r0,#4]
        0x00010796:    f021010f    !...    BIC      r1,r1,#0xf
        0x0001079a:    1c89        ..      ADDS     r1,r1,#2
        0x0001079c:    6041        A`      STR      r1,[r0,#4]
        0x0001079e:    6841        Ah      LDR      r1,[r0,#4]
        0x000107a0:    f0210180    !...    BIC      r1,r1,#0x80
        0x000107a4:    6041        A`      STR      r1,[r0,#4]
        0x000107a6:    f8d0110c    ....    LDR      r1,[r0,#0x10c]
        0x000107aa:    f42161e0    !..a    BIC      r1,r1,#0x700
        0x000107ae:    f50161a0    ...a    ADD      r1,r1,#0x500
        0x000107b2:    f8c0110c    ....    STR      r1,[r0,#0x10c]
        0x000107b6:    2100        .!      MOVS     r1,#0
        0x000107b8:    f8c01104    ....    STR      r1,[r0,#0x104]
        0x000107bc:    f44f71f8    O..q    MOV      r1,#0x1f0
        0x000107c0:    e056        V.      B        0x10870 ; mspi_device_configure + 880
        0x000107c2:    482d        -H      LDR      r0,[pc,#180] ; [0x10878] = 0x50014000
        0x000107c4:    6841        Ah      LDR      r1,[r0,#4]
        0x000107c6:    f021010f    !...    BIC      r1,r1,#0xf
        0x000107ca:    1c49        I.      ADDS     r1,r1,#1
        0x000107cc:    6041        A`      STR      r1,[r0,#4]
        0x000107ce:    6841        Ah      LDR      r1,[r0,#4]
        0x000107d0:    f0210180    !...    BIC      r1,r1,#0x80
        0x000107d4:    6041        A`      STR      r1,[r0,#4]
        0x000107d6:    f8d0110c    ....    LDR      r1,[r0,#0x10c]
        0x000107da:    f44161e0    A..a    ORR      r1,r1,#0x700
        0x000107de:    f8c0110c    ....    STR      r1,[r0,#0x10c]
        0x000107e2:    2100        .!      MOVS     r1,#0
        0x000107e4:    f8c01104    ....    STR      r1,[r0,#0x104]
        0x000107e8:    f240110f    @...    MOV      r1,#0x10f
        0x000107ec:    e040        @.      B        0x10870 ; mspi_device_configure + 880
        0x000107ee:    4822        "H      LDR      r0,[pc,#136] ; [0x10878] = 0x50014000
        0x000107f0:    6841        Ah      LDR      r1,[r0,#4]
        0x000107f2:    f021010f    !...    BIC      r1,r1,#0xf
        0x000107f6:    1c89        ..      ADDS     r1,r1,#2
        0x000107f8:    6041        A`      STR      r1,[r0,#4]
        0x000107fa:    6841        Ah      LDR      r1,[r0,#4]
        0x000107fc:    f0210180    !...    BIC      r1,r1,#0x80
        0x00010800:    6041        A`      STR      r1,[r0,#4]
        0x00010802:    f8d0110c    ....    LDR      r1,[r0,#0x10c]
        0x00010806:    f44161e0    A..a    ORR      r1,r1,#0x700
        0x0001080a:    f8c0110c    ....    STR      r1,[r0,#0x10c]
        0x0001080e:    2100        .!      MOVS     r1,#0
        0x00010810:    f8c01104    ....    STR      r1,[r0,#0x104]
        0x00010814:    f44f71f8    O..q    MOV      r1,#0x1f0
        0x00010818:    e02a        *.      B        0x10870 ; mspi_device_configure + 880
        0x0001081a:    4817        .H      LDR      r0,[pc,#92] ; [0x10878] = 0x50014000
        0x0001081c:    6841        Ah      LDR      r1,[r0,#4]
        0x0001081e:    f021010f    !...    BIC      r1,r1,#0xf
        0x00010822:    1c49        I.      ADDS     r1,r1,#1
        0x00010824:    6041        A`      STR      r1,[r0,#4]
        0x00010826:    6841        Ah      LDR      r1,[r0,#4]
        0x00010828:    f0210180    !...    BIC      r1,r1,#0x80
        0x0001082c:    6041        A`      STR      r1,[r0,#4]
        0x0001082e:    f8d0110c    ....    LDR      r1,[r0,#0x10c]
        0x00010832:    f42161e0    !..a    BIC      r1,r1,#0x700
        0x00010836:    f8c0110c    ....    STR      r1,[r0,#0x10c]
        0x0001083a:    2100        .!      MOVS     r1,#0
        0x0001083c:    f8c01104    ....    STR      r1,[r0,#0x104]
        0x00010840:    f2401103    @...    MOV      r1,#0x103
        0x00010844:    e014        ..      B        0x10870 ; mspi_device_configure + 880
        0x00010846:    480c        .H      LDR      r0,[pc,#48] ; [0x10878] = 0x50014000
        0x00010848:    6841        Ah      LDR      r1,[r0,#4]
        0x0001084a:    f021010f    !...    BIC      r1,r1,#0xf
        0x0001084e:    1c89        ..      ADDS     r1,r1,#2
        0x00010850:    6041        A`      STR      r1,[r0,#4]
        0x00010852:    6841        Ah      LDR      r1,[r0,#4]
        0x00010854:    f0210180    !...    BIC      r1,r1,#0x80
        0x00010858:    6041        A`      STR      r1,[r0,#4]
        0x0001085a:    f8d0110c    ....    LDR      r1,[r0,#0x10c]
        0x0001085e:    f42161e0    !..a    BIC      r1,r1,#0x700
        0x00010862:    f8c0110c    ....    STR      r1,[r0,#0x10c]
        0x00010866:    2100        .!      MOVS     r1,#0
        0x00010868:    f8c01104    ....    STR      r1,[r0,#0x104]
        0x0001086c:    f44f7198    O..q    MOV      r1,#0x130
        0x00010870:    f8c01108    ....    STR      r1,[r0,#0x108]
        0x00010874:    2000        .       MOVS     r0,#0
        0x00010876:    4770        pG      BX       lr
    $d
        0x00010878:    50014000    .@.P    DCD    1342259200
    $t
    i.mspi_dummy_callback
    mspi_dummy_callback
        0x0001087c:    4770        pG      BX       lr
        0x0001087e:    0000        ..      MOVS     r0,r0
    i.mspi_seq_loopback
    mspi_seq_loopback
        0x00010880:    f8d0182c    ..,.    LDR      r1,[r0,#0x82c]
        0x00010884:    1c49        I.      ADDS     r1,r1,#1
        0x00010886:    61c1        .a      STR      r1,[r0,#0x1c]
        0x00010888:    2100        .!      MOVS     r1,#0
        0x0001088a:    6181        .a      STR      r1,[r0,#0x18]
        0x0001088c:    2101        .!      MOVS     r1,#1
        0x0001088e:    f8801830    ..0.    STRB     r1,[r0,#0x830]
        0x00010892:    4902        .I      LDR      r1,[pc,#8] ; [0x1089c] = 0x50014000
        0x00010894:    2040        @       MOVS     r0,#0x40
        0x00010896:    f8c102b4    ....    STR      r0,[r1,#0x2b4]
        0x0001089a:    4770        pG      BX       lr
    $d
        0x0001089c:    50014000    .@.P    DCD    1342259200
    $t
    i.ndigits_in_hex
    ndigits_in_hex
        0x000108a0:    b530        0.      PUSH     {r4,r5,lr}
        0x000108a2:    4602        .F      MOV      r2,r0
        0x000108a4:    460b        .F      MOV      r3,r1
        0x000108a6:    2400        .$      MOVS     r4,#0
        0x000108a8:    ea820104    ....    EOR      r1,r2,r4
        0x000108ac:    405c        \@      EORS     r4,r4,r3
        0x000108ae:    4321        !C      ORRS     r1,r1,r4
        0x000108b0:    d101        ..      BNE      0x108b6 ; ndigits_in_hex + 22
        0x000108b2:    2101        .!      MOVS     r1,#1
        0x000108b4:    e000        ..      B        0x108b8 ; ndigits_in_hex + 24
        0x000108b6:    2100        .!      MOVS     r1,#0
        0x000108b8:    4608        .F      MOV      r0,r1
        0x000108ba:    e004        ..      B        0x108c6 ; ndigits_in_hex + 38
        0x000108bc:    0911        ..      LSRS     r1,r2,#4
        0x000108be:    ea417203    A..r    ORR      r2,r1,r3,LSL #28
        0x000108c2:    091b        ..      LSRS     r3,r3,#4
        0x000108c4:    1c40        @.      ADDS     r0,r0,#1
        0x000108c6:    2400        .$      MOVS     r4,#0
        0x000108c8:    ea820104    ....    EOR      r1,r2,r4
        0x000108cc:    405c        \@      EORS     r4,r4,r3
        0x000108ce:    4321        !C      ORRS     r1,r1,r4
        0x000108d0:    d1f4        ..      BNE      0x108bc ; ndigits_in_hex + 28
        0x000108d2:    bd30        0.      POP      {r4,r5,pc}
    i.ndigits_in_i64
    ndigits_in_i64
        0x000108d4:    b570        p.      PUSH     {r4-r6,lr}
        0x000108d6:    4604        .F      MOV      r4,r0
        0x000108d8:    460d        .F      MOV      r5,r1
        0x000108da:    2100        .!      MOVS     r1,#0
        0x000108dc:    4608        .F      MOV      r0,r1
        0x000108de:    1a61        a.      SUBS     r1,r4,r1
        0x000108e0:    eb750000    u...    SBCS     r0,r5,r0
        0x000108e4:    da03        ..      BGE      0x108ee ; ndigits_in_i64 + 26
        0x000108e6:    2200        ."      MOVS     r2,#0
        0x000108e8:    4264        dB      RSBS     r4,r4,#0
        0x000108ea:    eb620505    b...    SBC      r5,r2,r5
        0x000108ee:    4620         F      MOV      r0,r4
        0x000108f0:    4629        )F      MOV      r1,r5
        0x000108f2:    f000f801    ....    BL       ndigits_in_u64 ; 0x108f8
        0x000108f6:    bd70        p.      POP      {r4-r6,pc}
    i.ndigits_in_u64
    ndigits_in_u64
        0x000108f8:    b570        p.      PUSH     {r4-r6,lr}
        0x000108fa:    4604        .F      MOV      r4,r0
        0x000108fc:    460d        .F      MOV      r5,r1
        0x000108fe:    2100        .!      MOVS     r1,#0
        0x00010900:    ea840001    ....    EOR      r0,r4,r1
        0x00010904:    4069        i@      EORS     r1,r1,r5
        0x00010906:    4308        .C      ORRS     r0,r0,r1
        0x00010908:    d101        ..      BNE      0x1090e ; ndigits_in_u64 + 22
        0x0001090a:    2001        .       MOVS     r0,#1
        0x0001090c:    e000        ..      B        0x10910 ; ndigits_in_u64 + 24
        0x0001090e:    2000        .       MOVS     r0,#0
        0x00010910:    4606        .F      MOV      r6,r0
        0x00010912:    e006        ..      B        0x10922 ; ndigits_in_u64 + 42
        0x00010914:    4620         F      MOV      r0,r4
        0x00010916:    4629        )F      MOV      r1,r5
        0x00010918:    f7fff9fb    ....    BL       divu64_10 ; 0xfd12
        0x0001091c:    4604        .F      MOV      r4,r0
        0x0001091e:    460d        .F      MOV      r5,r1
        0x00010920:    1c76        v.      ADDS     r6,r6,#1
        0x00010922:    2100        .!      MOVS     r1,#0
        0x00010924:    ea840001    ....    EOR      r0,r4,r1
        0x00010928:    4069        i@      EORS     r1,r1,r5
        0x0001092a:    4308        .C      ORRS     r0,r0,r1
        0x0001092c:    d1f2        ..      BNE      0x10914 ; ndigits_in_u64 + 28
        0x0001092e:    4630        0F      MOV      r0,r6
        0x00010930:    bd70        p.      POP      {r4-r6,pc}
    i.padbuffer
    padbuffer
        0x00010932:    b530        0.      PUSH     {r4,r5,lr}
        0x00010934:    4603        .F      MOV      r3,r0
        0x00010936:    2000        .       MOVS     r0,#0
        0x00010938:    2a00        .*      CMP      r2,#0
        0x0001093a:    dc00        ..      BGT      0x1093e ; padbuffer + 12
        0x0001093c:    bd30        0.      POP      {r4,r5,pc}
        0x0001093e:    e003        ..      B        0x10948 ; padbuffer + 22
        0x00010940:    b10b        ..      CBZ      r3,0x10946 ; padbuffer + 20
        0x00010942:    f8031b01    ....    STRB     r1,[r3],#1
        0x00010946:    1c40        @.      ADDS     r0,r0,#1
        0x00010948:    1e14        ..      SUBS     r4,r2,#0
        0x0001094a:    f1a20201    ....    SUB      r2,r2,#1
        0x0001094e:    d1f7        ..      BNE      0x10940 ; padbuffer + 14
        0x00010950:    bf00        ..      NOP      
        0x00010952:    e7f3        ..      B        0x1093c ; padbuffer + 10
    i.pfnMSPI_ATXP032_Callback
    pfnMSPI_ATXP032_Callback
        0x00010954:    2201        ."      MOVS     r2,#1
        0x00010956:    7002        .p      STRB     r2,[r0,#0]
        0x00010958:    4770        pG      BX       lr
        0x0001095a:    0000        ..      MOVS     r0,r0
    i.sched_hiprio
    sched_hiprio
        0x0001095c:    e92d43f8    -..C    PUSH     {r3-r9,lr}
        0x00010960:    460f        .F      MOV      r7,r1
        0x00010962:    4605        .F      MOV      r5,r0
        0x00010964:    2600        .&      MOVS     r6,#0
        0x00010966:    f7fbfc8f    ....    BL       am_hal_interrupt_master_disable ; 0xc288
        0x0001096a:    9000        ..      STR      r0,[sp,#0]
        0x0001096c:    f8d5483c    ..<H    LDR      r4,[r5,#0x83c]
        0x00010970:    19e0        ..      ADDS     r0,r4,r7
        0x00010972:    f8c5083c    ..<.    STR      r0,[r5,#0x83c]
        0x00010976:    9800        ..      LDR      r0,[sp,#0]
        0x00010978:    f7fbfc8a    ....    BL       am_hal_interrupt_master_set ; 0xc290
        0x0001097c:    2c00        .,      CMP      r4,#0
        0x0001097e:    d158        X.      BNE      0x10a32 ; sched_hiprio + 214
        0x00010980:    4c2e        .L      LDR      r4,[pc,#184] ; [0x10a3c] = 0x50014000
        0x00010982:    4f2d        -O      LDR      r7,[pc,#180] ; [0x10a38] = 0x186a0
        0x00010984:    f44f0000    O...    MOV      r0,#0x800000
        0x00010988:    463e        >F      MOV      r6,r7
        0x0001098a:    f8c402b4    ....    STR      r0,[r4,#0x2b4]
        0x0001098e:    f8d402a0    ....    LDR      r0,[r4,#0x2a0]
        0x00010992:    f0100f01    ....    TST      r0,#1
        0x00010996:    d013        ..      BEQ      0x109c0 ; sched_hiprio + 100
        0x00010998:    f8d402ac    ....    LDR      r0,[r4,#0x2ac]
        0x0001099c:    f0100f08    ....    TST      r0,#8
        0x000109a0:    bf1c        ..      ITT      NE
        0x000109a2:    f8d402b8    ....    LDRNE    r0,[r4,#0x2b8]
        0x000109a6:    f0100f80    ....    TSTNE    r0,#0x80
        0x000109aa:    d109        ..      BNE      0x109c0 ; sched_hiprio + 100
        0x000109ac:    1e76        v.      SUBS     r6,r6,#1
        0x000109ae:    d314        ..      BCC      0x109da ; sched_hiprio + 126
        0x000109b0:    2010        .       MOVS     r0,#0x10
        0x000109b2:    f7fcff2f    ../.    BL       am_hal_flash_delay ; 0xd814
        0x000109b6:    f8d402a0    ....    LDR      r0,[r4,#0x2a0]
        0x000109ba:    f0100f01    ....    TST      r0,#1
        0x000109be:    d1eb        ..      BNE      0x10998 ; sched_hiprio + 60
        0x000109c0:    f04f0801    O...    MOV      r8,#1
        0x000109c4:    2300        .#      MOVS     r3,#0
        0x000109c6:    4642        BF      MOV      r2,r8
        0x000109c8:    491d        .I      LDR      r1,[pc,#116] ; [0x10a40] = 0x50014254
        0x000109ca:    4638        8F      MOV      r0,r7
        0x000109cc:    f8cd8000    ....    STR      r8,[sp,#0]
        0x000109d0:    f7fcff32    ..2.    BL       am_hal_flash_delay_status_check ; 0xd838
        0x000109d4:    0006        ..      MOVS     r6,r0
        0x000109d6:    d12c        ,.      BNE      0x10a32 ; sched_hiprio + 214
        0x000109d8:    e001        ..      B        0x109de ; sched_hiprio + 130
        0x000109da:    2604        .&      MOVS     r6,#4
        0x000109dc:    e029        ).      B        0x10a32 ; sched_hiprio + 214
        0x000109de:    2100        .!      MOVS     r1,#0
        0x000109e0:    2041        A       MOVS     r0,#0x41
        0x000109e2:    6229        )b      STR      r1,[r5,#0x20]
        0x000109e4:    f8c40208    ....    STR      r0,[r4,#0x208]
        0x000109e8:    f8d40200    ....    LDR      r0,[r4,#0x200]
        0x000109ec:    f0400041    @.A.    ORR      r0,r0,#0x41
        0x000109f0:    f8c40200    ....    STR      r0,[r4,#0x200]
        0x000109f4:    f8858838    ..8.    STRB     r8,[r5,#0x838]
        0x000109f8:    f8d5084c    ..L.    LDR      r0,[r5,#0x84c]
        0x000109fc:    f8d52844    ..D(    LDR      r2,[r5,#0x844]
        0x00010a00:    1c40        @.      ADDS     r0,r0,#1
        0x00010a02:    fbb0f3f2    ....    UDIV     r3,r0,r2
        0x00010a06:    fb020013    ....    MLS      r0,r2,r3,r0
        0x00010a0a:    f8d52850    ..P(    LDR      r2,[r5,#0x850]
        0x00010a0e:    eb000040    ..@.    ADD      r0,r0,r0,LSL #1
        0x00010a12:    eb0200c0    ....    ADD      r0,r2,r0,LSL #3
        0x00010a16:    f8c41250    ..P.    STR      r1,[r4,#0x250]
        0x00010a1a:    6801        .h      LDR      r1,[r0,#0]
        0x00010a1c:    f8c41258    ..X.    STR      r1,[r4,#0x258]
        0x00010a20:    6841        Ah      LDR      r1,[r0,#4]
        0x00010a22:    f8c4125c    ..\.    STR      r1,[r4,#0x25c]
        0x00010a26:    6881        .h      LDR      r1,[r0,#8]
        0x00010a28:    f8c41260    ..`.    STR      r1,[r4,#0x260]
        0x00010a2c:    68c0        .h      LDR      r0,[r0,#0xc]
        0x00010a2e:    f8c40250    ..P.    STR      r0,[r4,#0x250]
        0x00010a32:    4630        0F      MOV      r0,r6
        0x00010a34:    e8bd83f8    ....    POP      {r3-r9,pc}
    $d
        0x00010a38:    000186a0    ....    DCD    100000
        0x00010a3c:    50014000    .@.P    DCD    1342259200
        0x00010a40:    50014254    TB.P    DCD    1342259796
    $t
    i.simple_strlen
    simple_strlen
        0x00010a44:    4601        .F      MOV      r1,r0
        0x00010a46:    2000        .       MOVS     r0,#0
        0x00010a48:    b901        ..      CBNZ     r1,0x10a4c ; simple_strlen + 8
        0x00010a4a:    4770        pG      BX       lr
        0x00010a4c:    e000        ..      B        0x10a50 ; simple_strlen + 12
        0x00010a4e:    1c40        @.      ADDS     r0,r0,#1
        0x00010a50:    f8113b01    ...;    LDRB     r3,[r1],#1
        0x00010a54:    2b00        .+      CMP      r3,#0
        0x00010a56:    d1fa        ..      BNE      0x10a4e ; simple_strlen + 10
        0x00010a58:    bf00        ..      NOP      
        0x00010a5a:    e7f6        ..      B        0x10a4a ; simple_strlen + 6
    i.uint64_to_hexstr
    uint64_to_hexstr
        0x00010a5c:    e92d41f0    -..A    PUSH     {r4-r8,lr}
        0x00010a60:    b085        ..      SUB      sp,sp,#0x14
        0x00010a62:    4604        .F      MOV      r4,r0
        0x00010a64:    460d        .F      MOV      r5,r1
        0x00010a66:    461e        .F      MOV      r6,r3
        0x00010a68:    2100        .!      MOVS     r1,#0
        0x00010a6a:    468c        .F      MOV      r12,r1
        0x00010a6c:    ea84070c    ....    EOR      r7,r4,r12
        0x00010a70:    ea850c0c    ....    EOR      r12,r5,r12
        0x00010a74:    ea57070c    W...    ORRS     r7,r7,r12
        0x00010a78:    d105        ..      BNE      0x10a86 ; uint64_to_hexstr + 42
        0x00010a7a:    f04f0830    O.0.    MOV      r8,#0x30
        0x00010a7e:    460f        .F      MOV      r7,r1
        0x00010a80:    1c49        I.      ADDS     r1,r1,#1
        0x00010a82:    f80d8007    ....    STRB     r8,[sp,r7]
        0x00010a86:    e016        ..      B        0x10ab6 ; uint64_to_hexstr + 90
        0x00010a88:    270f        .'      MOVS     r7,#0xf
        0x00010a8a:    4027        '@      ANDS     r7,r7,r4
        0x00010a8c:    b2fb        ..      UXTB     r3,r7
        0x00010a8e:    2b09        .+      CMP      r3,#9
        0x00010a90:    dd05        ..      BLE      0x10a9e ; uint64_to_hexstr + 66
        0x00010a92:    b10e        ..      CBZ      r6,0x10a98 ; uint64_to_hexstr + 60
        0x00010a94:    2727        ''      MOVS     r7,#0x27
        0x00010a96:    e000        ..      B        0x10a9a ; uint64_to_hexstr + 62
        0x00010a98:    2707        .'      MOVS     r7,#7
        0x00010a9a:    441f        .D      ADD      r7,r7,r3
        0x00010a9c:    b2fb        ..      UXTB     r3,r7
        0x00010a9e:    f1030730    ..0.    ADD      r7,r3,#0x30
        0x00010aa2:    f00708ff    ....    AND      r8,r7,#0xff
        0x00010aa6:    460f        .F      MOV      r7,r1
        0x00010aa8:    1c49        I.      ADDS     r1,r1,#1
        0x00010aaa:    f80d8007    ....    STRB     r8,[sp,r7]
        0x00010aae:    0927        '.      LSRS     r7,r4,#4
        0x00010ab0:    ea477405    G..t    ORR      r4,r7,r5,LSL #28
        0x00010ab4:    092d        -.      LSRS     r5,r5,#4
        0x00010ab6:    f04f0c00    O...    MOV      r12,#0
        0x00010aba:    ea84070c    ....    EOR      r7,r4,r12
        0x00010abe:    ea850c0c    ....    EOR      r12,r5,r12
        0x00010ac2:    ea57070c    W...    ORRS     r7,r7,r12
        0x00010ac6:    d1df        ..      BNE      0x10a88 ; uint64_to_hexstr + 44
        0x00010ac8:    4608        .F      MOV      r0,r1
        0x00010aca:    b14a        J.      CBZ      r2,0x10ae0 ; uint64_to_hexstr + 132
        0x00010acc:    e003        ..      B        0x10ad6 ; uint64_to_hexstr + 122
        0x00010ace:    f81d7001    ...p    LDRB     r7,[sp,r1]
        0x00010ad2:    f8027b01    ...{    STRB     r7,[r2],#1
        0x00010ad6:    1e0f        ..      SUBS     r7,r1,#0
        0x00010ad8:    f1a10101    ....    SUB      r1,r1,#1
        0x00010adc:    d1f7        ..      BNE      0x10ace ; uint64_to_hexstr + 114
        0x00010ade:    7017        .p      STRB     r7,[r2,#0]
        0x00010ae0:    b005        ..      ADD      sp,sp,#0x14
        0x00010ae2:    e8bd81f0    ....    POP      {r4-r8,pc}
    i.uint64_to_str
    uint64_to_str
        0x00010ae6:    e92d4ff0    -..O    PUSH     {r4-r11,lr}
        0x00010aea:    b087        ..      SUB      sp,sp,#0x1c
        0x00010aec:    4607        .F      MOV      r7,r0
        0x00010aee:    4688        .F      MOV      r8,r1
        0x00010af0:    4616        .F      MOV      r6,r2
        0x00010af2:    f04f0900    O...    MOV      r9,#0
        0x00010af6:    46cb        .F      MOV      r11,r9
        0x00010af8:    bf00        ..      NOP      
        0x00010afa:    4638        8F      MOV      r0,r7
        0x00010afc:    4641        AF      MOV      r1,r8
        0x00010afe:    f7fff908    ....    BL       divu64_10 ; 0xfd12
        0x00010b02:    4604        .F      MOV      r4,r0
        0x00010b04:    460d        .F      MOV      r5,r1
        0x00010b06:    210a        .!      MOVS     r1,#0xa
        0x00010b08:    fba40101    ....    UMULL    r0,r1,r4,r1
        0x00010b0c:    ebb70a00    ....    SUBS     r10,r7,r0
        0x00010b10:    f10a0030    ..0.    ADD      r0,r10,#0x30
        0x00010b14:    b2c2        ..      UXTB     r2,r0
        0x00010b16:    4648        HF      MOV      r0,r9
        0x00010b18:    f1090901    ....    ADD      r9,r9,#1
        0x00010b1c:    f80d2000    ...     STRB     r2,[sp,r0]
        0x00010b20:    4627        'F      MOV      r7,r4
        0x00010b22:    46a8        .F      MOV      r8,r5
        0x00010b24:    f04f0200    O...    MOV      r2,#0
        0x00010b28:    ea870002    ....    EOR      r0,r7,r2
        0x00010b2c:    ea880102    ....    EOR      r1,r8,r2
        0x00010b30:    4308        .C      ORRS     r0,r0,r1
        0x00010b32:    d1e2        ..      BNE      0x10afa ; uint64_to_str + 20
        0x00010b34:    46cb        .F      MOV      r11,r9
        0x00010b36:    b156        V.      CBZ      r6,0x10b4e ; uint64_to_str + 104
        0x00010b38:    e003        ..      B        0x10b42 ; uint64_to_str + 92
        0x00010b3a:    f81d0009    ....    LDRB     r0,[sp,r9]
        0x00010b3e:    f8060b01    ....    STRB     r0,[r6],#1
        0x00010b42:    f1b90000    ....    SUBS     r0,r9,#0
        0x00010b46:    f1a90901    ....    SUB      r9,r9,#1
        0x00010b4a:    d1f6        ..      BNE      0x10b3a ; uint64_to_str + 84
        0x00010b4c:    7030        0p      STRB     r0,[r6,#0]
        0x00010b4e:    4658        XF      MOV      r0,r11
        0x00010b50:    b007        ..      ADD      sp,sp,#0x1c
        0x00010b52:    e8bd8ff0    ....    POP      {r4-r11,pc}
        0x00010b56:    0000        ..      MOVS     r0,r0
    x$fpl$d2f
    $v0
    __aeabi_d2f
    _d2f
        0x00010b58:    f0214200    !..B    BIC      r2,r1,#0x80000000
        0x00010b5c:    f1a25260    ..`R    SUB      r2,r2,#0x38000000
        0x00010b60:    f5b21f80    ....    CMP      r2,#0x100000
        0x00010b64:    f0014300    ...C    AND      r3,r1,#0x80000000
        0x00010b68:    bf28        (.      IT       CS
        0x00010b6a:    f1d26c7f    ...l    RSBSCS   r12,r2,#0xff00000
        0x00010b6e:    d90b        ..      BLS      0x10b88 ; __aeabi_d2f + 48
        0x00010b70:    ea5f1c00    _...    LSLS     r12,r0,#4
        0x00010b74:    ea4302c2    C...    ORR      r2,r3,r2,LSL #3
        0x00010b78:    eb427050    B.Pp    ADC      r0,r2,r0,LSR #29
        0x00010b7c:    bf18        ..      IT       NE
        0x00010b7e:    4770        pG      BXNE     lr
        0x00010b80:    bf28        (.      IT       CS
        0x00010b82:    f0200001     ...    BICCS    r0,r0,#1
        0x00010b86:    4770        pG      BX       lr
        0x00010b88:    f5b21f80    ....    CMP      r2,#0x100000
        0x00010b8c:    bfbc        ..      ITT      LT
        0x00010b8e:    4618        .F      MOVLT    r0,r3
        0x00010b90:    4770        pG      BXLT     lr
        0x00010b92:    ea4f0c41    O.A.    LSL      r12,r1,#1
        0x00010b96:    f51c1f00    ....    CMN      r12,#0x200000
        0x00010b9a:    d202        ..      BCS      0x10ba2 ; __aeabi_d2f + 74
        0x00010b9c:    4608        .F      MOV      r0,r1
        0x00010b9e:    f000b85f    .._.    B.W      __fpl_fretinf ; 0x10c60
        0x00010ba2:    b570        p.      PUSH     {r4-r6,lr}
        0x00010ba4:    f000f809    ....    BL       __fpl_dnaninf ; 0x10bba
    $d
        0x00010ba8:    89000000    ....    DCD    2298478592
    $t
        0x00010bac:    f7ffbff6    ....    B.W      0x10b9c ; __aeabi_d2f + 68
        0x00010bb0:    f04f4000    O..@    MOV      r0,#0x80000000
        0x00010bb4:    f5a00080    ....    SUB      r0,r0,#0x400000
        0x00010bb8:    4770        pG      BX       lr
    x$fpl$dnaninf
    $v0
    __fpl_dnaninf
        0x00010bba:    f10e0e02    ....    ADD      lr,lr,#2
        0x00010bbe:    f02e0e03    ....    BIC      lr,lr,#3
        0x00010bc2:    f85e6b04    ^..k    LDR      r6,[lr],#4
        0x00010bc6:    4236        6B      TST      r6,r6
        0x00010bc8:    d405        ..      BMI      0x10bd6 ; __fpl_dnaninf + 28
        0x00010bca:    2a01        .*      CMP      r2,#1
        0x00010bcc:    eb430503    C...    ADC      r5,r3,r3
        0x00010bd0:    f5151f00    ....    CMN      r5,#0x200000
        0x00010bd4:    d812        ..      BHI      0x10bfc ; __fpl_dnaninf + 66
        0x00010bd6:    2801        .(      CMP      r0,#1
        0x00010bd8:    eb410c01    A...    ADC      r12,r1,r1
        0x00010bdc:    f51c1f00    ....    CMN      r12,#0x200000
        0x00010be0:    d80c        ..      BHI      0x10bfc ; __fpl_dnaninf + 66
        0x00010be2:    d10e        ..      BNE      0x10c02 ; __fpl_dnaninf + 72
        0x00010be4:    ea4f7cd1    O..|    LSR      r12,r1,#31
        0x00010be8:    f5151f00    ....    CMN      r5,#0x200000
        0x00010bec:    eb0c0c4c    ..L.    ADD      r12,r12,r12,LSL #1
        0x00010bf0:    f10c0c02    ....    ADD      r12,r12,#2
        0x00010bf4:    bf08        ..      IT       EQ
        0x00010bf6:    eb4c7cd3    L..|    ADCEQ    r12,r12,r3,LSR #31
        0x00010bfa:    e004        ..      B        0x10c06 ; __fpl_dnaninf + 76
        0x00010bfc:    f04f0c08    O...    MOV      r12,#8
        0x00010c00:    e001        ..      B        0x10c06 ; __fpl_dnaninf + 76
        0x00010c02:    ea4f7cd3    O..|    LSR      r12,r3,#31
        0x00010c06:    eb0c054c    ..L.    ADD      r5,r12,r12,LSL #1
        0x00010c0a:    fa26f605    &...    LSR      r6,r6,r5
        0x00010c0e:    f0060607    ....    AND      r6,r6,#7
        0x00010c12:    f1b60c04    ....    SUBS     r12,r6,#4
        0x00010c16:    d206        ..      BCS      0x10c26 ; __fpl_dnaninf + 108
        0x00010c18:    eb0e0c86    ....    ADD      r12,lr,r6,LSL #2
        0x00010c1c:    e8bd4070    ..p@    POP      {r4-r6,lr}
        0x00010c20:    f04c0c01    L...    ORR      r12,r12,#1
        0x00010c24:    4760        `G      BX       r12
        0x00010c26:    e8dff00c    ....    TBB      [pc,r12]
    $d
        0x00010c2a:    0b09        ..      DCW    2825
        0x00010c2c:    0202        ..      DCW    514
    $t
        0x00010c2e:    f04f4100    O..A    MOV      r1,#0x80000000
        0x00010c32:    f04f0000    O...    MOV      r0,#0
        0x00010c36:    f5a12100    ...!    SUB      r1,r1,#0x80000
        0x00010c3a:    bd70        p.      POP      {r4-r6,pc}
        0x00010c3c:    4619        .F      MOV      r1,r3
        0x00010c3e:    4610        .F      MOV      r0,r2
        0x00010c40:    2801        .(      CMP      r0,#1
        0x00010c42:    eb510401    Q...    ADCS     r4,r1,r1
        0x00010c46:    bf18        ..      IT       NE
        0x00010c48:    f5d41400    ....    RSBSNE   r4,r4,#0x200000
        0x00010c4c:    bf84        ..      ITT      HI
        0x00010c4e:    2000        .       MOVHI    r0,#0
        0x00010c50:    f0014100    ...A    ANDHI    r1,r1,#0x80000000
        0x00010c54:    bd70        p.      POP      {r4-r6,pc}
    x$fpl$fpinit
    $v0
    _fp_init
        0x00010c56:    f04f7040    O.@p    MOV      r0,#0x3000000
        0x00010c5a:    eee10a10    ....    VMSR     FPSCR,r0
    __fplib_config_fpu_vfp
    __fplib_config_pureend_doubles
        0x00010c5e:    4770        pG      BX       lr
    x$fpl$fretinf
    $v0
    __fpl_fretinf
        0x00010c60:    21ff        .!      MOVS     r1,#0xff
        0x00010c62:    ea4150d0    A..P    ORR      r0,r1,r0,LSR #23
        0x00010c66:    05c0        ..      LSLS     r0,r0,#23
        0x00010c68:    4770        pG      BX       lr
    x$fpl$usenofp
    __I$use$fp
        0x00010c6a:    0000        ..      MOVS     r0,r0
    $d.realdata
    .constdata
    MSPI_Flash_Config
        0x00010c6c:    00000206    ....    DCD    518
        0x00010c70:    10001150    P...    DCD    268439888
        0x00010c74:    00000a00    ....    DCD    2560
        0x00010c78:    00000000    ....    DCD    0
        0x00010c7c:    00000000    ....    DCD    0
    mspi_interrupts
        0x00010c80:    00000014    ....    DCD    20
    .constdata
        0x00010c84:    bf006001    .`..    DCD    3204472833
        0x00010c88:    bf006800    .h..    DCD    3204474880
        0x00010c8c:    bf004770    pG..    DCD    3204466544
    .constdata
    g_am_hal_mcuctrl_flash_size
        0x00010c90:    00004000    .@..    DCD    16384
        0x00010c94:    00008000    ....    DCD    32768
        0x00010c98:    00010000    ....    DCD    65536
        0x00010c9c:    00020000    ....    DCD    131072
        0x00010ca0:    00040000    ....    DCD    262144
        0x00010ca4:    00080000    ....    DCD    524288
        0x00010ca8:    00100000    ....    DCD    1048576
        0x00010cac:    00200000    .. .    DCD    2097152
        0x00010cb0:    00180000    ....    DCD    1572864
        0x00010cb4:    00000000    ....    DCD    0
        0x00010cb8:    00000000    ....    DCD    0
        0x00010cbc:    00000000    ....    DCD    0
        0x00010cc0:    00000000    ....    DCD    0
        0x00010cc4:    00000000    ....    DCD    0
        0x00010cc8:    00000000    ....    DCD    0
        0x00010ccc:    00000000    ....    DCD    0
    g_am_hal_mcuctrl_sram_size
        0x00010cd0:    00004000    .@..    DCD    16384
        0x00010cd4:    00008000    ....    DCD    32768
        0x00010cd8:    00010000    ....    DCD    65536
        0x00010cdc:    00020000    ....    DCD    131072
        0x00010ce0:    00040000    ....    DCD    262144
        0x00010ce4:    00080000    ....    DCD    524288
        0x00010ce8:    00100000    ....    DCD    1048576
        0x00010cec:    00060000    ....    DCD    393216
        0x00010cf0:    000c0000    ....    DCD    786432
        0x00010cf4:    00000000    ....    DCD    0
        0x00010cf8:    00000000    ....    DCD    0
        0x00010cfc:    00000000    ....    DCD    0
        0x00010d00:    00000000    ....    DCD    0
        0x00010d04:    00000000    ....    DCD    0
        0x00010d08:    00000000    ....    DCD    0
        0x00010d0c:    00000000    ....    DCD    0
    .constdata
    gAmHalCmdQReg
        0x00010d10:    50004294    .B.P    DCD    1342194324
        0x00010d14:    50004298    .B.P    DCD    1342194328
        0x00010d18:    500042ac    .B.P    DCD    1342194348
        0x00010d1c:    500042b0    .B.P    DCD    1342194352
        0x00010d20:    500042a8    .B.P    DCD    1342194344
        0x00010d24:    00008000    ....    DCD    32768
        0x00010d28:    5000429c    .B.P    DCD    1342194332
        0x00010d2c:    00000001    ....    DCD    1
        0x00010d30:    00000004    ....    DCD    4
        0x00010d34:    00000002    ....    DCD    2
        0x00010d38:    50005294    .R.P    DCD    1342198420
        0x00010d3c:    50005298    .R.P    DCD    1342198424
        0x00010d40:    500052ac    .R.P    DCD    1342198444
        0x00010d44:    500052b0    .R.P    DCD    1342198448
        0x00010d48:    500052a8    .R.P    DCD    1342198440
        0x00010d4c:    00008000    ....    DCD    32768
        0x00010d50:    5000529c    .R.P    DCD    1342198428
        0x00010d54:    00000001    ....    DCD    1
        0x00010d58:    00000004    ....    DCD    4
        0x00010d5c:    00000002    ....    DCD    2
        0x00010d60:    50006294    .b.P    DCD    1342202516
        0x00010d64:    50006298    .b.P    DCD    1342202520
        0x00010d68:    500062ac    .b.P    DCD    1342202540
        0x00010d6c:    500062b0    .b.P    DCD    1342202544
        0x00010d70:    500062a8    .b.P    DCD    1342202536
        0x00010d74:    00008000    ....    DCD    32768
        0x00010d78:    5000629c    .b.P    DCD    1342202524
        0x00010d7c:    00000001    ....    DCD    1
        0x00010d80:    00000004    ....    DCD    4
        0x00010d84:    00000002    ....    DCD    2
        0x00010d88:    50007294    .r.P    DCD    1342206612
        0x00010d8c:    50007298    .r.P    DCD    1342206616
        0x00010d90:    500072ac    .r.P    DCD    1342206636
        0x00010d94:    500072b0    .r.P    DCD    1342206640
        0x00010d98:    500072a8    .r.P    DCD    1342206632
        0x00010d9c:    00008000    ....    DCD    32768
        0x00010da0:    5000729c    .r.P    DCD    1342206620
        0x00010da4:    00000001    ....    DCD    1
        0x00010da8:    00000004    ....    DCD    4
        0x00010dac:    00000002    ....    DCD    2
        0x00010db0:    50008294    ...P    DCD    1342210708
        0x00010db4:    50008298    ...P    DCD    1342210712
        0x00010db8:    500082ac    ...P    DCD    1342210732
        0x00010dbc:    500082b0    ...P    DCD    1342210736
        0x00010dc0:    500082a8    ...P    DCD    1342210728
        0x00010dc4:    00008000    ....    DCD    32768
        0x00010dc8:    5000829c    ...P    DCD    1342210716
        0x00010dcc:    00000001    ....    DCD    1
        0x00010dd0:    00000004    ....    DCD    4
        0x00010dd4:    00000002    ....    DCD    2
        0x00010dd8:    50009294    ...P    DCD    1342214804
        0x00010ddc:    50009298    ...P    DCD    1342214808
        0x00010de0:    500092ac    ...P    DCD    1342214828
        0x00010de4:    500092b0    ...P    DCD    1342214832
        0x00010de8:    500092a8    ...P    DCD    1342214824
        0x00010dec:    00008000    ....    DCD    32768
        0x00010df0:    5000929c    ...P    DCD    1342214812
        0x00010df4:    00000001    ....    DCD    1
        0x00010df8:    00000004    ....    DCD    4
        0x00010dfc:    00000002    ....    DCD    2
        0x00010e00:    500142a0    .B.P    DCD    1342259872
        0x00010e04:    500142a8    .B.P    DCD    1342259880
        0x00010e08:    500142c0    .B.P    DCD    1342259904
        0x00010e0c:    500142c4    .B.P    DCD    1342259908
        0x00010e10:    500142b8    .B.P    DCD    1342259896
        0x00010e14:    00004000    .@..    DCD    16384
        0x00010e18:    500142ac    .B.P    DCD    1342259884
        0x00010e1c:    00000001    ....    DCD    1
        0x00010e20:    00000004    ....    DCD    4
        0x00010e24:    00000008    ....    DCD    8
        0x00010e28:    5000c248    H..P    DCD    1342227016
        0x00010e2c:    5000c24c    L..P    DCD    1342227020
        0x00010e30:    5000c260    `..P    DCD    1342227040
        0x00010e34:    5000c264    d..P    DCD    1342227044
        0x00010e38:    5000c25c    \..P    DCD    1342227036
        0x00010e3c:    00008000    ....    DCD    32768
        0x00010e40:    5000c250    P..P    DCD    1342227024
        0x00010e44:    00000001    ....    DCD    1
        0x00010e48:    00000004    ....    DCD    4
        0x00010e4c:    00000002    ....    DCD    2
    .constdata
    g_AM_HAL_GPIO_DISABLE
        0x00010e50:    00000003    ....    DCD    3
    g_ui8Inpen
        0x00010e54:    62272323    ##'b    DCD    1646732067
        0x00010e58:    108703a1    ....    DCD    277283745
        0x00010e5c:    e1005303    .S..    DCD    3774894851
        0x00010e60:    55418151    Q.AU    DCD    1430356305
        0x00010e64:    4080c405    ...@    DCD    1082180613
        0x00010e68:    4140b101    ..@A    DCD    1094758657
        0x00010e6c:    31a03114    .1.1    DCD    832581908
        0x00010e70:    1180f100    ....    DCD    293662976
        0x00010e74:    11c12191    .!..    DCD    297869713
        0x00010e78:    304511e5    ..E0    DCD    809832933
        0x00010e7c:    31300037    7.01    DCD    825229367
        0x00010e80:    40007100    .q.@    DCD    1073770752
        0x00010e84:    3130        01      DCW    12592
    g_ui8Bit76Capabilities
        0x00010e86:    0101        ..      DCW    257
        0x00010e88:    01800280    ....    DCD    25166464
        0x00010e8c:    01018001    ....    DCD    16875521
        0x00010e90:    80808080    ....    DCD    2155905152
        0x00010e94:    80808080    ....    DCD    2155905152
        0x00010e98:    80088080    ....    DCD    2148040832
        0x00010e9c:    01808080    ....    DCD    25198720
        0x00010ea0:    80800180    ....    DCD    2155872640
        0x00010ea4:    80808080    ....    DCD    2155905152
        0x00010ea8:    04028080    ....    DCD    67272832
        0x00010eac:    04010180    ....    DCD    67174784
        0x00010eb0:    80800101    ....    DCD    2155872513
        0x00010eb4:    01018080    ....    DCD    16875648
    g_ui8nCEpins
        0x00010eb8:    02070707    ....    DCD    34014983
        0x00010ebc:    00080802    ....    DCD    526338
        0x00010ec0:    01020202    ....    DCD    16908802
        0x00010ec4:    01010101    ....    DCD    16843009
        0x00010ec8:    01010101    ....    DCD    16843009
        0x00010ecc:    01010101    ....    DCD    16843009
        0x00010ed0:    01010101    ....    DCD    16843009
        0x00010ed4:    01010101    ....    DCD    16843009
        0x00010ed8:    01010101    ....    DCD    16843009
        0x00010edc:    08010101    ....    DCD    134283521
        0x00010ee0:    01010008    ....    DCD    16842760
        0x00010ee4:    01010101    ....    DCD    16843009
        0x00010ee8:    0101        ..      DCW    257
    g_ui8NCEtable
        0x00010eea:    4232        2B      DCW    16946
        0x00010eec:    12021352    R...    DCD    302125906
        0x00010ef0:    43336022    "`3C    DCD    1127440418
        0x00010ef4:    40302153    S!0@    DCD    1076896083
        0x00010ef8:    41312050    P 1A    DCD    1093738576
        0x00010efc:    ffff1151    Q...    DCD    4294906193
        0x00010f00:    ffffffff    ....    DCD    4294967295
        0x00010f04:    4131ffff    ..1A    DCD    1093795839
        0x00010f08:    40306051    Q`0@    DCD    1076912209
        0x00010f0c:    43330050    P.3C    DCD    1127415888
        0x00010f10:    42322353    S#2B    DCD    1110582099
        0x00010f14:    10006052    R`..    DCD    268460114
        0x00010f18:    40303020     00@    DCD    1076899872
        0x00010f1c:    41316150    Pa1A    DCD    1093755216
        0x00010f20:    12020151    Q...    DCD    302121297
        0x00010f24:    13034222    "B..    DCD    318980642
        0x00010f28:    10006023    #`..    DCD    268460067
        0x00010f2c:    11015020     P..    DCD    285298720
        0x00010f30:    12024121    !A..    DCD    302137633
        0x00010f34:    13033222    "2..    DCD    318976546
        0x00010f38:    41316033    3`1A    DCD    1093754931
        0x00010f3c:    42322151    Q!2B    DCD    1110581585
        0x00010f40:    43332252    R"3C    DCD    1127424594
        0x00010f44:    10000353    S...    DCD    268436307
        0x00010f48:    11014020     @..    DCD    285294624
        0x00010f4c:    42325121    !Q2B    DCD    1110593825
        0x00010f50:    43330252    R.3C    DCD    1127416402
        0x00010f54:    40301353    S.0@    DCD    1076892499
        0x00010f58:    41311050    P.1A    DCD    1093734480
        0x00010f5c:    42326051    Q`2B    DCD    1110597713
        0x00010f60:    43331252    R.3C    DCD    1127420498
        0x00010f64:    10000353    S...    DCD    268436307
        0x00010f68:    11014020     @..    DCD    285294624
        0x00010f6c:    12026121    !a..    DCD    302145825
        0x00010f70:    13035222    "R..    DCD    318984738
        0x00010f74:    10003323    #3..    DCD    268448547
        0x00010f78:    41313020     01A    DCD    1093742624
        0x00010f7c:    42326151    Qa2B    DCD    1110597969
        0x00010f80:    13030252    R...    DCD    318964306
        0x00010f84:    ffff5333    3S..    DCD    4294923059
        0x00010f88:    ffffffff    ....    DCD    4294967295
        0x00010f8c:    1101ffff    ....    DCD    285343743
        0x00010f90:    10006121    !a..    DCD    268460321
        0x00010f94:    11015020     P..    DCD    285298720
        0x00010f98:    12026121    !a..    DCD    302145825
        0x00010f9c:    43335222    "R3C    DCD    1127436834
        0x00010fa0:    40301353    S.0@    DCD    1076892499
        0x00010fa4:    11016150    Pa..    DCD    285303120
        0x00010fa8:    12023121    !1..    DCD    302133537
        0x00010fac:    13033222    "2..    DCD    318976546
        0x00010fb0:    00004323    #C..    DCD    17187
    .constdata
    g_AM_HAL_GPIO_OUTPUT
        0x00010fb4:    00000403    ....    DCD    1027
    .constdata
    am_hal_pwrctrl_peripheral_control
        0x00010fb8:    00000000    ....    DCD    0
        0x00010fbc:    00000000    ....    DCD    0
        0x00010fc0:    00000000    ....    DCD    0
        0x00010fc4:    00000001    ....    DCD    1
        0x00010fc8:    00000004    ....    DCD    4
        0x00010fcc:    00000004    ....    DCD    4
        0x00010fd0:    00000002    ....    DCD    2
        0x00010fd4:    00000008    ....    DCD    8
        0x00010fd8:    00000008    ....    DCD    8
        0x00010fdc:    00000004    ....    DCD    4
        0x00010fe0:    00000008    ....    DCD    8
        0x00010fe4:    00000008    ....    DCD    8
        0x00010fe8:    00000008    ....    DCD    8
        0x00010fec:    00000008    ....    DCD    8
        0x00010ff0:    00000008    ....    DCD    8
        0x00010ff4:    00000010    ....    DCD    16
        0x00010ff8:    00000010    ....    DCD    16
        0x00010ffc:    00000010    ....    DCD    16
        0x00011000:    00000020     ...    DCD    32
        0x00011004:    00000010    ....    DCD    16
        0x00011008:    00000010    ....    DCD    16
        0x0001100c:    00000040    @...    DCD    64
        0x00011010:    00000010    ....    DCD    16
        0x00011014:    00000010    ....    DCD    16
        0x00011018:    00000080    ....    DCD    128
        0x0001101c:    00000004    ....    DCD    4
        0x00011020:    00000004    ....    DCD    4
        0x00011024:    00000100    ....    DCD    256
        0x00011028:    00000004    ....    DCD    4
        0x0001102c:    00000004    ....    DCD    4
        0x00011030:    00000200    ....    DCD    512
        0x00011034:    00000020     ...    DCD    32
        0x00011038:    00000020     ...    DCD    32
        0x0001103c:    00000400    ....    DCD    1024
        0x00011040:    00000004    ....    DCD    4
        0x00011044:    00000004    ....    DCD    4
        0x00011048:    00000800    ....    DCD    2048
        0x0001104c:    00000040    @...    DCD    64
        0x00011050:    00000040    @...    DCD    64
        0x00011054:    00001000    ....    DCD    4096
        0x00011058:    00000080    ....    DCD    128
        0x0001105c:    00000080    ....    DCD    128
        0x00011060:    00002000    . ..    DCD    8192
        0x00011064:    00000100    ....    DCD    256
        0x00011068:    00000100    ....    DCD    256
    am_hal_pwrctrl_memory_control
        0x0001106c:    00000000    ....    DCD    0
        0x00011070:    00000000    ....    DCD    0
        0x00011074:    00000000    ....    DCD    0
        0x00011078:    00000000    ....    DCD    0
        0x0001107c:    00000000    ....    DCD    0
        0x00011080:    00000000    ....    DCD    0
        0x00011084:    00000001    ....    DCD    1
        0x00011088:    00000001    ....    DCD    1
        0x0001108c:    00000001    ....    DCD    1
        0x00011090:    00001fff    ....    DCD    8191
        0x00011094:    00001fff    ....    DCD    8191
        0x00011098:    00000001    ....    DCD    1
        0x0001109c:    00000003    ....    DCD    3
        0x000110a0:    00000003    ....    DCD    3
        0x000110a4:    00000003    ....    DCD    3
        0x000110a8:    00001fff    ....    DCD    8191
        0x000110ac:    00001fff    ....    DCD    8191
        0x000110b0:    00000003    ....    DCD    3
        0x000110b4:    00000007    ....    DCD    7
        0x000110b8:    00000007    ....    DCD    7
        0x000110bc:    00000007    ....    DCD    7
        0x000110c0:    00001fff    ....    DCD    8191
        0x000110c4:    00001fff    ....    DCD    8191
        0x000110c8:    00000007    ....    DCD    7
        0x000110cc:    0000000f    ....    DCD    15
        0x000110d0:    0000000f    ....    DCD    15
        0x000110d4:    0000000f    ....    DCD    15
        0x000110d8:    00001fff    ....    DCD    8191
        0x000110dc:    00001fff    ....    DCD    8191
        0x000110e0:    0000000f    ....    DCD    15
        0x000110e4:    0000001f    ....    DCD    31
        0x000110e8:    0000001f    ....    DCD    31
        0x000110ec:    0000001f    ....    DCD    31
        0x000110f0:    00001fff    ....    DCD    8191
        0x000110f4:    00001fff    ....    DCD    8191
        0x000110f8:    0000001f    ....    DCD    31
        0x000110fc:    0000003f    ?...    DCD    63
        0x00011100:    0000003f    ?...    DCD    63
        0x00011104:    0000003f    ?...    DCD    63
        0x00011108:    00001fff    ....    DCD    8191
        0x0001110c:    00001fff    ....    DCD    8191
        0x00011110:    0000003f    ?...    DCD    63
        0x00011114:    0000007f    ....    DCD    127
        0x00011118:    0000007f    ....    DCD    127
        0x0001111c:    0000007f    ....    DCD    127
        0x00011120:    00001fff    ....    DCD    8191
        0x00011124:    00001fff    ....    DCD    8191
        0x00011128:    0000007f    ....    DCD    127
        0x0001112c:    000000ff    ....    DCD    255
        0x00011130:    000000ff    ....    DCD    255
        0x00011134:    000000ff    ....    DCD    255
        0x00011138:    00001fff    ....    DCD    8191
        0x0001113c:    00001fff    ....    DCD    8191
        0x00011140:    000000ff    ....    DCD    255
        0x00011144:    000001ff    ....    DCD    511
        0x00011148:    000001ff    ....    DCD    511
        0x0001114c:    000001ff    ....    DCD    511
        0x00011150:    00001fff    ....    DCD    8191
        0x00011154:    00001fff    ....    DCD    8191
        0x00011158:    000001ff    ....    DCD    511
        0x0001115c:    000003ff    ....    DCD    1023
        0x00011160:    000003ff    ....    DCD    1023
        0x00011164:    000003ff    ....    DCD    1023
        0x00011168:    00001fff    ....    DCD    8191
        0x0001116c:    00001fff    ....    DCD    8191
        0x00011170:    000003ff    ....    DCD    1023
        0x00011174:    000007ff    ....    DCD    2047
        0x00011178:    000007ff    ....    DCD    2047
        0x0001117c:    000007ff    ....    DCD    2047
        0x00011180:    00001fff    ....    DCD    8191
        0x00011184:    00001fff    ....    DCD    8191
        0x00011188:    000007ff    ....    DCD    2047
        0x0001118c:    00000fff    ....    DCD    4095
        0x00011190:    00000fff    ....    DCD    4095
        0x00011194:    00000fff    ....    DCD    4095
        0x00011198:    00001fff    ....    DCD    8191
        0x0001119c:    00001fff    ....    DCD    8191
        0x000111a0:    00000fff    ....    DCD    4095
        0x000111a4:    00001fff    ....    DCD    8191
        0x000111a8:    00001fff    ....    DCD    8191
        0x000111ac:    00001fff    ....    DCD    8191
        0x000111b0:    00001fff    ....    DCD    8191
        0x000111b4:    00001fff    ....    DCD    8191
        0x000111b8:    00001fff    ....    DCD    8191
        0x000111bc:    00002000    . ..    DCD    8192
        0x000111c0:    00002000    . ..    DCD    8192
        0x000111c4:    00002000    . ..    DCD    8192
        0x000111c8:    00006000    .`..    DCD    24576
        0x000111cc:    00006000    .`..    DCD    24576
        0x000111d0:    00002000    . ..    DCD    8192
        0x000111d4:    00006000    .`..    DCD    24576
        0x000111d8:    00006000    .`..    DCD    24576
        0x000111dc:    00006000    .`..    DCD    24576
        0x000111e0:    00006000    .`..    DCD    24576
        0x000111e4:    00006000    .`..    DCD    24576
        0x000111e8:    00006000    .`..    DCD    24576
        0x000111ec:    c0000000    ....    DCD    3221225472
        0x000111f0:    00000000    ....    DCD    0
        0x000111f4:    c0000000    ....    DCD    3221225472
        0x000111f8:    c0000000    ....    DCD    3221225472
        0x000111fc:    00000000    ....    DCD    0
        0x00011200:    80000000    ....    DCD    2147483648
        0x00011204:    c0007fff    ....    DCD    3221258239
        0x00011208:    00007fff    ....    DCD    32767
        0x0001120c:    c0007fff    ....    DCD    3221258239
        0x00011210:    c0007fff    ....    DCD    3221258239
        0x00011214:    00007fff    ....    DCD    32767
        0x00011218:    80007fff    ....    DCD    2147516415
    .constdata
    g_AM_BSP_GPIO_MSPI_CE0
        0x0001121c:    00060701    ....    DCD    395009
    .constdata
    g_AM_BSP_GPIO_MSPI_CE1
        0x00011220:    000e0700    ....    DCD    919296
    .constdata
    g_AM_BSP_GPIO_MSPI_D0
        0x00011224:    00060206    ....    DCD    393734
    .constdata
    g_AM_BSP_GPIO_MSPI_D1
        0x00011228:    00060205    ....    DCD    393733
    .constdata
    g_AM_BSP_GPIO_MSPI_D2
        0x0001122c:    00060207    ....    DCD    393735
    .constdata
    g_AM_BSP_GPIO_MSPI_D3
        0x00011230:    00060206    ....    DCD    393734
    .constdata
    g_AM_BSP_GPIO_MSPI_D4
        0x00011234:    00060205    ....    DCD    393733
    .constdata
    g_AM_BSP_GPIO_MSPI_D5
        0x00011238:    00060205    ....    DCD    393733
    .constdata
    g_AM_BSP_GPIO_MSPI_D6
        0x0001123c:    00060205    ....    DCD    393733
    .constdata
    g_AM_BSP_GPIO_MSPI_D7
        0x00011240:    00060205    ....    DCD    393733
    .constdata
    g_AM_BSP_GPIO_MSPI_SCK
        0x00011244:    00060302    ....    DCD    393986
    .constdata
    g_AM_BSP_GPIO_ITM_SWO
        0x00011248:    00000002    ....    DCD    2
    Region$$Table$$Base
        0x0001124c:    0001126c    l...    DCD    70252
        0x00011250:    10000000    ....    DCD    268435456
        0x00011254:    0000014c    L...    DCD    332
        0x00011258:    0000c174    t...    DCD    49524
        0x0001125c:    000112d4    ....    DCD    70356
        0x00011260:    1000014c    L...    DCD    268435788
        0x00011264:    0000778c    .w..    DCD    30604
        0x00011268:    0000c1d0    ....    DCD    49616
    Region$$Table$$Limit

** Section #2 'SRAM' (SHT_PROGBITS) [SHF_ALLOC + SHF_WRITE]
    Size   : 104 bytes (alignment 4)
    Address: 0x10000000

    Data section was compressed (Original size: 332 bytes)

    0x10000000:   00 00 00 00 00 00 00 00 00 00 00 00 00 00 00 00    ................
    0x10000010:   08 03 00 0b 02 00 00 02 01 01 01 00 00 00 00 00    ................
    0x10000020:   00 00 00 00 00 00 00 00 00 00 00 00 08 03 00 0b    ................
    0x10000030:   02 01 00 02 01 01 01 00 00 00 00 00 00 00 00 00    ................
    0x10000040:   00 00 00 00 00 00 00 00 08 03 00 0b 02 04 00 02    ................
    0x10000050:   01 01 01 00 00 00 00 00 00 00 00 00 00 00 00 00    ................
    0x10000060:   00 00 00 00 08 03 00 0b 02 05 00 02 01 01 01 00    ................
    0x10000070:   00 00 00 00 00 00 00 00 00 00 00 00 00 00 00 00    ................
    0x10000080:   08 03 00 0b 02 06 00 02 01 01 01 00 00 00 00 00    ................
    0x10000090:   00 00 00 00 00 00 00 00 00 00 00 00 08 03 00 0b    ................
    0x100000a0:   02 07 00 02 01 01 01 00 00 00 00 00 00 00 00 00    ................
    0x100000b0:   00 00 00 00 00 00 00 00 00 00 00 00 10 00 00 10    ................
    0x100000c0:   01 00 00 00 2c 00 00 10 04 00 00 00 48 00 00 10    ....,.......H...
    0x100000d0:   05 00 00 00 64 00 00 10 06 00 00 00 80 00 00 10    ....d...........
    0x100000e0:   07 00 00 00 9c 00 00 10 00 00 00 00 00 00 00 00    ................
    0x100000f0:   00 00 00 00 00 00 00 00 0a 00 00 00 03 00 00 00    ................
    0x10000100:   1e 00 00 00 03 00 00 00 0f 00 00 00 03 00 00 00    ................
    0x10000110:   0e 00 00 00 03 00 00 00 11 00 00 00 03 00 00 00    ................
    0x10000120:   00 c2 01 00 60 00 00 00 00 00 00 00 00 00 00 00    ....`...........
    0x10000130:   00 00 00 00 12 00 00 00 18 6f 00 10 00 04 00 00    .........o......
    0x10000140:   18 73 00 10 00 04 00 00 00 00 00 00                .s..........


** Section #3 'SRAM' (SHT_NOBITS) [SHF_ALLOC + SHF_WRITE]
    Size   : 30604 bytes (alignment 8)
    Address: 0x1000014c


** Section #4 '.debug_abbrev' (SHT_PROGBITS)
    Size   : 1476 bytes


** Section #5 '.debug_frame' (SHT_PROGBITS)
    Size   : 4316 bytes


** Section #6 '.debug_info' (SHT_PROGBITS)
    Size   : 284976 bytes


** Section #7 '.debug_line' (SHT_PROGBITS)
    Size   : 9360 bytes


** Section #8 '.debug_loc' (SHT_PROGBITS)
    Size   : 4784 bytes


** Section #9 '.debug_macinfo' (SHT_PROGBITS)
    Size   : 224372 bytes


** Section #10 '.debug_pubnames' (SHT_PROGBITS)
    Size   : 1357 bytes


** Section #11 '.symtab' (SHT_SYMTAB)
    Size   : 11712 bytes (alignment 4)
    String table #12 '.strtab'
    Last local symbol no. 496

    Symbol table .symtab (731 symbols, 496 local)

      #  Symbol Name                Value      Bind  Sec  Type  Vis  Size
    ========================================================================

      1  $d                         0x0000c000   Lc    1   --   De 
      2  $t                         0x0000c100   Lc    1   --   De 
      3  $d                         0x0000c132   Lc    1   --   De 
      4  $t                         0x0000c138   Lc    1   --   De 
      5  $d                         0x0000c16c   Lc    1   --   De 
      6  $t                         0x0000c174   Lc    1   --   De 
      7  $d                         0x0000c2a2   Lc    1   --   De 
      8  $t                         0x0000c2b0   Lc    1   --   De 
      9  $d                         0x0000c3c8   Lc    1   --   De 
     10  $t                         0x0000c3cc   Lc    1   --   De 
     11  $d                         0x0000c3d4   Lc    1   --   De 
     12  $t                         0x0000c3d8   Lc    1   --   De 
     13  $d                         0x0000c408   Lc    1   --   De 
     14  $t                         0x0000c418   Lc    1   --   De 
     15  $d                         0x0000c452   Lc    1   --   De 
     16  $t                         0x0000c45c   Lc    1   --   De 
     17  $d                         0x0000c46e   Lc    1   --   De 
     18  $t                         0x0000c482   Lc    1   --   De 
     19  $d                         0x0000c636   Lc    1   --   De 
     20  $t                         0x0000c664   Lc    1   --   De 
     21  $d                         0x0000c67e   Lc    1   --   De 
     22  $t                         0x0000c686   Lc    1   --   De 
     23  $d                         0x0000c714   Lc    1   --   De 
     24  $t                         0x0000c71c   Lc    1   --   De 
     25  $d                         0x0000c7c6   Lc    1   --   De 
     26  $t                         0x0000c7cc   Lc    1   --   De 
     27  $d                         0x0000c820   Lc    1   --   De 
     28  $t                         0x0000c824   Lc    1   --   De 
     29  $d                         0x0000c8a8   Lc    1   --   De 
     30  $t                         0x0000c8d0   Lc    1   --   De 
     31  $d                         0x0000c9da   Lc    1   --   De 
     32  $t                         0x0000c9e2   Lc    1   --   De 
     33  $d                         0x0000cbba   Lc    1   --   De 
     34  $t                         0x0000cc58   Lc    1   --   De 
     35  $d                         0x0000ccf4   Lc    1   --   De 
     36  $t                         0x0000ccfc   Lc    1   --   De 
     37  $d                         0x0000cdc8   Lc    1   --   De 
     38  $t                         0x0000cdd0   Lc    1   --   De 
     39  $d                         0x0000ce78   Lc    1   --   De 
     40  $t                         0x0000ce7c   Lc    1   --   De 
     41  $d                         0x0000cf4a   Lc    1   --   De 
     42  $t                         0x0000cf52   Lc    1   --   De 
     43  $d                         0x0000d004   Lc    1   --   De 
     44  $t                         0x0000d00c   Lc    1   --   De 
     45  $d                         0x0000d018   Lc    1   --   De 
     46  $t                         0x0000d02a   Lc    1   --   De 
     47  $d                         0x0000d2d2   Lc    1   --   De 
     48  $t                         0x0000d2dc   Lc    1   --   De 
     49  $d                         0x0000d2f4   Lc    1   --   De 
     50  $t                         0x0000d2fe   Lc    1   --   De 
     51  $d                         0x0000d3c8   Lc    1   --   De 
     52  $t                         0x0000d3d8   Lc    1   --   De 
     53  $d                         0x0000d404   Lc    1   --   De 
     54  $t                         0x0000d40c   Lc    1   --   De 
     55  $d                         0x0000d4d4   Lc    1   --   De 
     56  $t                         0x0000d4d8   Lc    1   --   De 
     57  $d                         0x0000d514   Lc    1   --   De 
     58  $t                         0x0000d518   Lc    1   --   De 
     59  $d                         0x0000d554   Lc    1   --   De 
     60  $t                         0x0000d558   Lc    1   --   De 
     61  $d                         0x0000d63a   Lc    1   --   De 
     62  $t                         0x0000d648   Lc    1   --   De 
     63  $d                         0x0000d690   Lc    1   --   De 
     64  $t                         0x0000d694   Lc    1   --   De 
     65  $d                         0x0000d6ea   Lc    1   --   De 
     66  $t                         0x0000d6f0   Lc    1   --   De 
     67  $d                         0x0000d722   Lc    1   --   De 
     68  $t                         0x0000d728   Lc    1   --   De 
     69  $d                         0x0000d786   Lc    1   --   De 
     70  $t                         0x0000d78c   Lc    1   --   De 
     71  $d                         0x0000d810   Lc    1   --   De 
     72  $t                         0x0000d814   Lc    1   --   De 
     73  $d                         0x0000d832   Lc    1   --   De 
     74  $t                         0x0000d838   Lc    1   --   De 
     75  $d                         0x0000d88e   Lc    1   --   De 
     76  $t                         0x0000d894   Lc    1   --   De 
     77  $d                         0x0000d898   Lc    1   --   De 
     78  $t                         0x0000d89c   Lc    1   --   De 
     79  $d                         0x0000d8c0   Lc    1   --   De 
     80  $t                         0x0000d8c4   Lc    1   --   De 
     81  $d                         0x0000db0e   Lc    1   --   De 
     82  $t                         0x0000db44   Lc    1   --   De 
     83  $d                         0x0000db82   Lc    1   --   De 
     84  $t                         0x0000db88   Lc    1   --   De 
     85  $d                         0x0000dbf0   Lc    1   --   De 
     86  $t                         0x0000dc0c   Lc    1   --   De 
     87  $d                         0x0000dc48   Lc    1   --   De 
     88  $t                         0x0000dc4e   Lc    1   --   De 
     89  $d                         0x0000dce4   Lc    1   --   De 
     90  $t                         0x0000dcf4   Lc    1   --   De 
     91  $d                         0x0000dd46   Lc    1   --   De 
     92  $t                         0x0000dd56   Lc    1   --   De 
     93  $d                         0x0000dd8a   Lc    1   --   De 
     94  $t                         0x0000dd90   Lc    1   --   De 
     95  $d                         0x0000dea6   Lc    1   --   De 
     96  $t                         0x0000dec8   Lc    1   --   De 
     97  $d                         0x0000e0a2   Lc    1   --   De 
     98  $t                         0x0000e0b4   Lc    1   --   De 
     99  $d                         0x0000e0ea   Lc    1   --   De 
    100  $t                         0x0000e0fc   Lc    1   --   De 
    101  $d                         0x0000e4b2   Lc    1   --   De 
    102  $t                         0x0000e4d4   Lc    1   --   De 
    103  $d                         0x0000e740   Lc    1   --   De 
    104  $t                         0x0000e754   Lc    1   --   De 
    105  $d                         0x0000e7cc   Lc    1   --   De 
    106  $t                         0x0000e7d4   Lc    1   --   De 
    107  $d                         0x0000e990   Lc    1   --   De 
    108  $t                         0x0000e9a4   Lc    1   --   De 
    109  $d                         0x0000ea08   Lc    1   --   De 
    110  $t                         0x0000ea10   Lc    1   --   De 
    111  $d                         0x0000eaa2   Lc    1   --   De 
    112  $t                         0x0000eab4   Lc    1   --   De 
    113  $d                         0x0000eaea   Lc    1   --   De 
    114  $t                         0x0000eaf4   Lc    1   --   De 
    115  $d                         0x0000eb18   Lc    1   --   De 
    116  $t                         0x0000eb20   Lc    1   --   De 
    117  $d                         0x0000eb4c   Lc    1   --   De 
    118  $t                         0x0000eb54   Lc    1   --   De 
    119  $d                         0x0000eb7e   Lc    1   --   De 
    120  $t                         0x0000eb88   Lc    1   --   De 
    121  $d                         0x0000ecec   Lc    1   --   De 
    122  $t                         0x0000ecf4   Lc    1   --   De 
    123  $d                         0x0000ee84   Lc    1   --   De 
    124  $t                         0x0000ee8c   Lc    1   --   De 
    125  $d                         0x0000f04c   Lc    1   --   De 
    126  $t                         0x0000f064   Lc    1   --   De 
    127  $d                         0x0000f0aa   Lc    1   --   De 
    128  $t                         0x0000f0b4   Lc    1   --   De 
    129  $d                         0x0000f0fc   Lc    1   --   De 
    130  $t                         0x0000f104   Lc    1   --   De 
    131  $d                         0x0000f16a   Lc    1   --   De 
    132  $t                         0x0000f184   Lc    1   --   De 
    133  $d                         0x0000f1fe   Lc    1   --   De 
    134  $t                         0x0000f214   Lc    1   --   De 
    135  $d                         0x0000f252   Lc    1   --   De 
    136  $t                         0x0000f258   Lc    1   --   De 
    137  $d                         0x0000f42e   Lc    1   --   De 
    138  $t                         0x0000f73c   Lc    1   --   De 
    139  $d                         0x0000f76e   Lc    1   --   De 
    140  $t                         0x0000f778   Lc    1   --   De 
    141  $d                         0x0000f77e   Lc    1   --   De 
    142  $t                         0x0000f784   Lc    1   --   De 
    143  $d                         0x0000f78e   Lc    1   --   De 
    144  $t                         0x0000f7a4   Lc    1   --   De 
    145  $d                         0x0000fb48   Lc    1   --   De 
    146  $t                         0x0000fb58   Lc    1   --   De 
    147  $d                         0x0000fcac   Lc    1   --   De 
    148  $t                         0x0000fcd0   Lc    1   --   De 
    149  $d                         0x0000ff52   Lc    1   --   De 
    150  $t                         0x0000ff58   Lc    1   --   De 
    151  $d                         0x00010156   Lc    1   --   De 
    152  $t                         0x00010500   Lc    1   --   De 
    153  $d                         0x0001050a   Lc    1   --   De 
    154  $t                         0x0001051e   Lc    1   --   De 
    155  $d                         0x00010878   Lc    1   --   De 
    156  $t                         0x0001087c   Lc    1   --   De 
    157  $d                         0x0001089c   Lc    1   --   De 
    158  $t                         0x000108a0   Lc    1   --   De 
    159  $d                         0x00010a38   Lc    1   --   De 
    160  $t                         0x00010a44   Lc    1   --   De 
    161  $d                         0x00010ba8   Lc    1   --   De 
    162  $t                         0x00010bac   Lc    1   --   De 
    163  $d                         0x00010c2a   Lc    1   --   De 
    164  $t                         0x00010c2e   Lc    1   --   De 
    165  $d.realdata                0x00010c6c   Lc    1   --   De 
    166  $d.realdata                0x10000000   Lc    2   --   De 
    167  ..\src\mspi_octal_example.c
                                    0x00000000   Lc  Abs  File  De 
    168  .emb_text                  0x0000c218   Lc    1  Sect  De   0x42
    169  $v0                        0x0000c218   Lc    1   --   De 
    170  ../src/mspi_octal_example.c
                                    0x00000000   Lc  Abs  File  De 
    171  i.main                     0x0000ff58   Lc    1  Sect  De 
    172  .bss                       0x10001150   Lc    3  Sect  De   0x5400
    173  .constdata                 0x00010c6c   Lc    1  Sect  De   0x15
    174  mspi_interrupts            0x00010c80   Lc    1  Data  De   0x1
    175  .data                      0x10000000   Lc    2  Sect  De   0x8
    176  ..\..\..\..\..\utils\am_util_delay.c
                                    0x00000000   Lc  Abs  File  De 
    177  ../../../../../utils/am_util_delay.c
                                    0x00000000   Lc  Abs  File  De 
    178  i.am_util_delay_ms         0x0000f214   Lc    1  Sect  De 
    179  i.am_util_delay_us         0x0000f234   Lc    1  Sect  De 
    180  ..\..\..\..\..\utils\am_util_faultisr.c
                                    0x00000000   Lc  Abs  File  De 
    181  .emb_text                  0x0000c25c   Lc    1  Sect  De   0x22
    182  $v0                        0x0000c25c   Lc    1   --   De 
    183  ../../../../../utils/am_util_faultisr.c
                                    0x00000000   Lc  Abs  File  De 
    184  i.am_util_faultisr_collect_data
                                    0x0000f258   Lc    1  Sect  De 
    185  ../../../../../utils/am_util_stdio.c
                                    0x00000000   Lc  Abs  File  De 
    186  i.am_util_stdio_printf     0x0000f73c   Lc    1  Sect  De 
    187  i.am_util_stdio_printf_init
                                    0x0000f778   Lc    1  Sect  De 
    188  i.am_util_stdio_terminal_clear
                                    0x0000f784   Lc    1  Sect  De 
    189  i.am_util_stdio_vsprintf   0x0000f7a4   Lc    1  Sect  De 
    190  i.decstr_to_int            0x0000fcd0   Lc    1  Sect  De 
    191  decstr_to_int              0x0000fcd1   Lc    1  Code  De   0x42
    192  i.divu64_10                0x0000fd12   Lc    1  Sect  De 
    193  divu64_10                  0x0000fd13   Lc    1  Code  De   0xcc
    194  i.ftoa                     0x0000fde0   Lc    1  Sect  De 
    195  ftoa                       0x0000fde1   Lc    1  Code  De   0x172
    196  i.ndigits_in_hex           0x000108a0   Lc    1  Sect  De 
    197  ndigits_in_hex             0x000108a1   Lc    1  Code  De   0x34
    198  i.ndigits_in_i64           0x000108d4   Lc    1  Sect  De 
    199  ndigits_in_i64             0x000108d5   Lc    1  Code  De   0x24
    200  i.ndigits_in_u64           0x000108f8   Lc    1  Sect  De 
    201  ndigits_in_u64             0x000108f9   Lc    1  Code  De   0x3a
    202  i.padbuffer                0x00010932   Lc    1  Sect  De 
    203  padbuffer                  0x00010933   Lc    1  Code  De   0x22
    204  i.simple_strlen            0x00010a44   Lc    1  Sect  De 
    205  simple_strlen              0x00010a45   Lc    1  Code  De   0x18
    206  i.uint64_to_hexstr         0x00010a5c   Lc    1  Sect  De 
    207  uint64_to_hexstr           0x00010a5d   Lc    1  Code  De   0x8a
    208  i.uint64_to_str            0x00010ae6   Lc    1  Sect  De 
    209  uint64_to_str              0x00010ae7   Lc    1  Code  De   0x70
    210  .bss                       0x10006550   Lc    3  Sect  De   0x100
    211  g_prfbuf                   0x10006550   Lc    3  Data  De   0x100
    212  .data                      0x10000008   Lc    2  Sect  De   0x5
    213  g_bTxtXlate                0x1000000c   Lc    2  Data  De   0x1
    214  ..\..\..\..\..\devices\am_devices_mspi_atxp032.c
                                    0x00000000   Lc  Abs  File  De 
    215  ../../../../../devices/am_devices_mspi_atxp032.c
                                    0x00000000   Lc  Abs  File  De 
    216  i.am_device_deinit_flash   0x0000c664   Lc    1  Sect  De 
    217  am_device_deinit_flash     0x0000c665   Lc    1  Code  De   0x56
    218  i.am_device_init_flash     0x0000c6ba   Lc    1  Sect  De 
    219  am_device_init_flash       0x0000c6bb   Lc    1  Code  De   0xb6
    220  i.am_devices_mspi_atxp032_command_read
                                    0x0000c770   Lc    1  Sect  De 
    221  am_devices_mspi_atxp032_command_read
                                    0x0000c771   Lc    1  Code  De   0x56
    222  i.am_devices_mspi_atxp032_command_write
                                    0x0000c7cc   Lc    1  Sect  De 
    223  am_devices_mspi_atxp032_command_write
                                    0x0000c7cd   Lc    1  Code  De   0x54
    224  i.am_devices_mspi_atxp032_deinit
                                    0x0000c824   Lc    1  Sect  De 
    225  i.am_devices_mspi_atxp032_disable_xip
                                    0x0000c8d0   Lc    1  Sect  De 
    226  i.am_devices_mspi_atxp032_enable_scrambling
                                    0x0000c914   Lc    1  Sect  De 
    227  i.am_devices_mspi_atxp032_enable_xip
                                    0x0000c930   Lc    1  Sect  De 
    228  i.am_devices_mspi_atxp032_init
                                    0x0000c94c   Lc    1  Sect  De 
    229  i.am_devices_mspi_atxp032_read
                                    0x0000cc58   Lc    1  Sect  De 
    230  i.am_devices_mspi_atxp032_reset
                                    0x0000ccfc   Lc    1  Sect  De 
    231  i.am_devices_mspi_atxp032_sector_erase
                                    0x0000cd2c   Lc    1  Sect  De 
    232  i.am_devices_mspi_atxp032_write
                                    0x0000ce7c   Lc    1  Sect  De 
    233  i.pfnMSPI_ATXP032_Callback 0x00010954   Lc    1  Sect  De 
    234  pfnMSPI_ATXP032_Callback   0x00010955   Lc    1  Code  De   0x6
    235  .bss                       0x10006650   Lc    3  Sect  De   0x28
    236  .data                      0x10000010   Lc    2  Sect  De   0xd8
    237  ../keil/startup_keil.s     0x00000000   Lc  Abs  File  De 
    238  STACK                      0x10000150   Lc    3  Sect  De   0x1000
    239  StackMem                   0x10000150   Lc    3  Data  De 
    240  HEAP                       0x100078d8   Lc    3  Sect  De 
    241  HeapMem                    0x100078d8   Lc    3  Data  De 
    242  RESET                      0x0000c000   Lc    1  Sect  De   0x138
    243  $v0                        0x0000c100   Lc    1   --   De 
    244  .text                      0x0000c298   Lc    1  Sect  De   0x18
    245  $v0                        0x0000c298   Lc    1   --   De 
    246  ..\am_hal_global.c         0x00000000   Lc  Abs  File  De 
    247  ../am_hal_global.c         0x00000000   Lc  Abs  File  De 
    248  .data                      0x100000e8   Lc    2  Sect  De   0x4
    249  ..\am_hal_clkgen.c         0x00000000   Lc  Abs  File  De 
    250  ../am_hal_clkgen.c         0x00000000   Lc  Abs  File  De 
    251  i.am_hal_clkgen_control    0x0000d2dc   Lc    1  Sect  De 
    252  i.am_hal_clkgen_status_get 0x0000d3d8   Lc    1  Sect  De 
    253  ..\am_hal_flash.c          0x00000000   Lc  Abs  File  De 
    254  ../am_hal_flash.c          0x00000000   Lc  Abs  File  De 
    255  i.am_hal_flash_delay       0x0000d814   Lc    1  Sect  De 
    256  i.am_hal_flash_delay_status_check
                                    0x0000d838   Lc    1  Sect  De 
    257  i.am_hal_flash_load_ui32   0x0000d894   Lc    1  Sect  De 
    258  i.am_hal_flash_store_ui32  0x0000d89c   Lc    1  Sect  De 
    259  .constdata                 0x00010c84   Lc    1  Sect  De   0xc
    260  ..\am_hal_interrupt.c      0x00000000   Lc  Abs  File  De 
    261  .emb_text                  0x0000c280   Lc    1  Sect  De   0x16
    262  $v0                        0x0000c280   Lc    1   --   De 
    263  ../am_hal_interrupt.c      0x00000000   Lc  Abs  File  De 
    264  ..\am_hal_mcuctrl.c        0x00000000   Lc  Abs  File  De 
    265  ../am_hal_mcuctrl.c        0x00000000   Lc  Abs  File  De 
    266  i.am_hal_mcuctrl_control   0x0000dc3c   Lc    1  Sect  De 
    267  i.am_hal_mcuctrl_info_get  0x0000dd90   Lc    1  Sect  De 
    268  .constdata                 0x00010c90   Lc    1  Sect  De   0x80
    269  ..\am_hal_mspi.c           0x00000000   Lc  Abs  File  De 
    270  ../am_hal_mspi.c           0x00000000   Lc  Abs  File  De 
    271  i.am_hal_mspi_blocking_transfer
                                    0x0000dec8   Lc    1  Sect  De 
    272  i.am_hal_mspi_control      0x0000e0b4   Lc    1  Sect  De 
    273  i.am_hal_mspi_deinitialize 0x0000e754   Lc    1  Sect  De 
    274  i.am_hal_mspi_device_configure
                                    0x0000e7d4   Lc    1  Sect  De 
    275  i.am_hal_mspi_disable      0x0000e9a4   Lc    1  Sect  De 
    276  i.am_hal_mspi_enable       0x0000ea10   Lc    1  Sect  De 
    277  i.am_hal_mspi_initialize   0x0000eab4   Lc    1  Sect  De 
    278  i.am_hal_mspi_interrupt_clear
                                    0x0000eaf4   Lc    1  Sect  De 
    279  i.am_hal_mspi_interrupt_disable
                                    0x0000eb20   Lc    1  Sect  De 
    280  i.am_hal_mspi_interrupt_enable
                                    0x0000eb54   Lc    1  Sect  De 
    281  i.am_hal_mspi_nonblocking_transfer
                                    0x0000eb88   Lc    1  Sect  De 
    282  i.am_hal_mspi_power_control
                                    0x0000ecf4   Lc    1  Sect  De 
    283  i.build_dma_cmdlist        0x0000fb58   Lc    1  Sect  De 
    284  i.mspi_device_configure    0x00010500   Lc    1  Sect  De 
    285  mspi_device_configure      0x00010501   Lc    1  Code  De   0x378
    286  i.mspi_dummy_callback      0x0001087c   Lc    1  Sect  De 
    287  mspi_dummy_callback        0x0001087d   Lc    1  Code  De   0x2
    288  i.mspi_seq_loopback        0x00010880   Lc    1  Sect  De 
    289  mspi_seq_loopback          0x00010881   Lc    1  Code  De   0x1c
    290  i.sched_hiprio             0x0001095c   Lc    1  Sect  De 
    291  sched_hiprio               0x0001095d   Lc    1  Code  De   0xdc
    292  .bss                       0x10006678   Lc    3  Sect  De   0x8a0
    293  ..\am_hal_sysctrl.c        0x00000000   Lc  Abs  File  De 
    294  ../am_hal_sysctrl.c        0x00000000   Lc  Abs  File  De 
    295  i.am_hal_sysctrl_sleep     0x0000f118   Lc    1  Sect  De 
    296  .data                      0x100000ec   Lc    2  Sect  De   0x4
    297  g_ui32BusWriteFlush        0x100000ec   Lc    2  Data  De   0x4
    298  ..\am_bsp.c                0x00000000   Lc  Abs  File  De 
    299  ../am_bsp.c                0x00000000   Lc  Abs  File  De 
    300  i.am_bsp_itm_printf_enable 0x0000c3dc   Lc    1  Sect  De 
    301  i.am_bsp_low_power_init    0x0000c418   Lc    1  Sect  De 
    302  i.am_bsp_mspi_pins_enable  0x0000c45c   Lc    1  Sect  De 
    303  .bss                       0x10006f18   Lc    3  Sect  De   0x400
    304  pui8UartTxBuffer           0x10006f18   Lc    3  Data  De   0x400
    305  .bss                       0x10007318   Lc    3  Sect  De   0x400
    306  pui8UartRxBuffer           0x10007318   Lc    3  Data  De   0x400
    307  .data                      0x100000f0   Lc    2  Sect  De   0x58
    308  g_ui32PrintInterface       0x100000f0   Lc    2  Data  De   0x4
    309  g_sCOMUART                 0x100000f4   Lc    2  Data  De   0x4
    310  g_sBspUartBufferedConfig   0x10000120   Lc    2  Data  De   0x28
    311  ..\am_hal_cmdq.c           0x00000000   Lc  Abs  File  De 
    312  ../am_hal_cmdq.c           0x00000000   Lc  Abs  File  De 
    313  i.am_hal_cmdq_alloc_block  0x0000d40c   Lc    1  Sect  De 
    314  i.am_hal_cmdq_disable      0x0000d4d8   Lc    1  Sect  De 
    315  i.am_hal_cmdq_enable       0x0000d518   Lc    1  Sect  De 
    316  i.am_hal_cmdq_init         0x0000d558   Lc    1  Sect  De 
    317  i.am_hal_cmdq_post_block   0x0000d648   Lc    1  Sect  De 
    318  i.am_hal_cmdq_post_loop_block
                                    0x0000d694   Lc    1  Sect  De 
    319  i.am_hal_cmdq_release_block
                                    0x0000d6f0   Lc    1  Sect  De 
    320  i.am_hal_cmdq_reset        0x0000d728   Lc    1  Sect  De 
    321  i.am_hal_cmdq_term         0x0000d78c   Lc    1  Sect  De 
    322  .bss                       0x10007718   Lc    3  Sect  De   0x160
    323  gAmHalCmdq                 0x10007718   Lc    3  Data  De   0x160
    324  .constdata                 0x00010d10   Lc    1  Sect  De   0x140
    325  gAmHalCmdQReg              0x00010d10   Lc    1  Data  De   0x140
    326  ..\am_hal_gpio.c           0x00000000   Lc  Abs  File  De 
    327  ../am_hal_gpio.c           0x00000000   Lc  Abs  File  De 
    328  i.am_hal_gpio_pinconfig    0x0000d8c4   Lc    1  Sect  De 
    329  i.am_hal_gpio_state_write  0x0000db44   Lc    1  Sect  De 
    330  .constdata                 0x00010e50   Lc    1  Sect  De   0x162
    331  g_ui8Inpen                 0x00010e54   Lc    1  Data  De   0x32
    332  g_ui8Bit76Capabilities     0x00010e86   Lc    1  Data  De   0x32
    333  g_ui8nCEpins               0x00010eb8   Lc    1  Data  De   0x32
    334  g_ui8NCEtable              0x00010eea   Lc    1  Data  De   0xc8
    335  .constdata                 0x00010fb4   Lc    1  Sect  De   0x4
    336  ..\am_hal_itm.c            0x00000000   Lc  Abs  File  De 
    337  ../am_hal_itm.c            0x00000000   Lc  Abs  File  De 
    338  i.am_hal_itm_enable        0x0000dbc4   Lc    1  Sect  De 
    339  i.am_hal_itm_print         0x0000dc0c   Lc    1  Sect  De 
    340  ..\am_hal_pwrctrl.c        0x00000000   Lc  Abs  File  De 
    341  ../am_hal_pwrctrl.c        0x00000000   Lc  Abs  File  De 
    342  i.am_hal_pwrctrl_low_power_init
                                    0x0000ee8c   Lc    1  Sect  De 
    343  i.am_hal_pwrctrl_periph_disable
                                    0x0000f064   Lc    1  Sect  De 
    344  i.am_hal_pwrctrl_periph_enable
                                    0x0000f0b4   Lc    1  Sect  De 
    345  .constdata                 0x00010fb8   Lc    1  Sect  De   0x264
    346  ..\am_hal_reset.c          0x00000000   Lc  Abs  File  De 
    347  ../am_hal_reset.c          0x00000000   Lc  Abs  File  De 
    348  .data                      0x10000148   Lc    2  Sect  De   0x4
    349  ..\am_hal_rtc.c            0x00000000   Lc  Abs  File  De 
    350  ../am_hal_rtc.c            0x00000000   Lc  Abs  File  De 
    351  i.am_hal_rtc_osc_disable   0x0000f104   Lc    1  Sect  De 
    352  ..\am_hal_tpiu.c           0x00000000   Lc  Abs  File  De 
    353  ../am_hal_tpiu.c           0x00000000   Lc  Abs  File  De 
    354  i.am_hal_tpiu_enable       0x0000f184   Lc    1  Sect  De 
    355  ..\am_hal_uart.c           0x00000000   Lc  Abs  File  De 
    356  ../am_hal_uart.c           0x00000000   Lc  Abs  File  De 
    357  ..\am_bsp_pins.c           0x00000000   Lc  Abs  File  De 
    358  ../am_bsp_pins.c           0x00000000   Lc  Abs  File  De 
    359  .constdata                 0x0001121c   Lc    1  Sect  De   0x4
    360  .constdata                 0x00011220   Lc    1  Sect  De   0x4
    361  .constdata                 0x00011224   Lc    1  Sect  De   0x4
    362  .constdata                 0x00011228   Lc    1  Sect  De   0x4
    363  .constdata                 0x0001122c   Lc    1  Sect  De   0x4
    364  .constdata                 0x00011230   Lc    1  Sect  De   0x4
    365  .constdata                 0x00011234   Lc    1  Sect  De   0x4
    366  .constdata                 0x00011238   Lc    1  Sect  De   0x4
    367  .constdata                 0x0001123c   Lc    1  Sect  De   0x4
    368  .constdata                 0x00011240   Lc    1  Sect  De   0x4
    369  .constdata                 0x00011244   Lc    1  Sect  De   0x4
    370  .constdata                 0x00011248   Lc    1  Sect  De   0x4
    371  ..\am_hal_cachectrl.c      0x00000000   Lc  Abs  File  De 
    372  ../am_hal_cachectrl.c      0x00000000   Lc  Abs  File  De 
    373  i.am_hal_cachectrl_control 0x0000d00c   Lc    1  Sect  De 
    374  ..\am_hal_queue.c          0x00000000   Lc  Abs  File  De 
    375  ../am_hal_queue.c          0x00000000   Lc  Abs  File  De 
    376  dc.s                       0x00000000   Lc  Abs  File  De 
    377  ../clib/longlong.s         0x00000000   Lc  Abs  File  De 
    378  ../clib/longlong.s         0x00000000   Lc  Abs  File  De 
    379  ../clib/memcpset.s         0x00000000   Lc  Abs  File  De 
    380  .text                      0x0000c2b0   Lc    1  Sect  De   0x64
    381  ../clib/memcpset.s         0x00000000   Lc  Abs  File  De 
    382  .text                      0x0000c314   Lc    1  Sect  De   0x4e
    383  ../clib/heapaux.c          0x00000000   Lc  Abs  File  De 
    384  .text                      0x0000c362   Lc    1  Sect  De 
    385  ../clib/angel/startup.s    0x00000000   Lc  Abs  File  De 
    386  !!!main                    0x0000c138   Lc    1  Sect  De   0x8
    387  ../fplib/d2f.s             0x00000000   Lc  Abs  File  De 
    388  x$fpl$d2f                  0x00010b58   Lc    1  Sect  De   0x62
    389  $v0                        0x00010b58   Lc    1   --   De 
    390  ../clib/angel/kernel.s     0x00000000   Lc  Abs  File  De 
    391  .ARM.Collect$$rtentry$$00000000
                                    0x0000c1f8   Lc    1  Sect  De 
    392  ../fplib/dnaninf.s         0x00000000   Lc  Abs  File  De 
    393  x$fpl$dnaninf              0x00010bba   Lc    1  Sect  De   0x9c
    394  $v0                        0x00010bba   Lc    1   --   De 
    395  ../fplib/fretinf.s         0x00000000   Lc  Abs  File  De 
    396  x$fpl$fretinf              0x00010c60   Lc    1  Sect  De   0xa
    397  $v0                        0x00010c60   Lc    1   --   De 
    398  ../fplib/usenofp.s         0x00000000   Lc  Abs  File  De 
    399  x$fpl$usenofp              0x00010c6a   Lc    1  Sect  De 
    400  ../clib/angel/kernel.s     0x00000000   Lc  Abs  File  De 
    401  .ARM.Collect$$rtentry$$00000002
                                    0x0000c1f8   Lc    1  Sect  De 
    402  .ARM.Collect$$rtentry$$00000009
                                    0x0000c1fe   Lc    1  Sect  De 
    403  .ARM.Collect$$rtentry$$0000000A
                                    0x0000c1fe   Lc    1  Sect  De   0x4
    404  .ARM.Collect$$rtentry$$0000000C
                                    0x0000c202   Lc    1  Sect  De 
    405  .ARM.Collect$$rtentry$$0000000D
                                    0x0000c202   Lc    1  Sect  De   0x8
    406  ../clib/angel/kernel.s     0x00000000   Lc  Abs  File  De 
    407  .ARM.Collect$$rtentry$$00000004
                                    0x0000c1f8   Lc    1  Sect  De   0x6
    408  ../clib/angel/sys.s        0x00000000   Lc  Abs  File  De 
    409  .text                      0x0000c368   Lc    1  Sect  De   0x4a
    410  ../clib/stdlib.c           0x00000000   Lc  Abs  File  De 
    411  .text                      0x0000c3b2   Lc    1  Sect  De 
    412  ../clib/angel/boardlib.s   0x00000000   Lc  Abs  File  De 
    413  ../clib/angel/boardlib.s   0x00000000   Lc  Abs  File  De 
    414  ../clib/angel/boardlib.s   0x00000000   Lc  Abs  File  De 
    415  ../clib/libinit.s          0x00000000   Lc  Abs  File  De 
    416  .ARM.Collect$$libinit$$00000000
                                    0x0000c1ec   Lc    1  Sect  De   0x2
    417  ../clib/angel/sys.s        0x00000000   Lc  Abs  File  De 
    418  .text                      0x0000c3c4   Lc    1  Sect  De   0x8
    419  .bss                       0x10007878   Lc    3  Sect  De   0x60
    420  ../clib/angel/kernel.s     0x00000000   Lc  Abs  File  De 
    421  .ARM.Collect$$rtexit$$00000000
                                    0x0000c20a   Lc    1  Sect  De   0x2
    422  ../clib/libinit.s          0x00000000   Lc  Abs  File  De 
    423  .ARM.Collect$$libinit$$00000001
                                    0x0000c1ee   Lc    1  Sect  De   0x4
    424  .ARM.Collect$$libinit$$00000004
                                    0x0000c1f2   Lc    1  Sect  De 
    425  .ARM.Collect$$libinit$$0000000A
                                    0x0000c1f2   Lc    1  Sect  De 
    426  .ARM.Collect$$libinit$$0000000C
                                    0x0000c1f2   Lc    1  Sect  De 
    427  .ARM.Collect$$libinit$$0000000E
                                    0x0000c1f2   Lc    1  Sect  De 
    428  .ARM.Collect$$libinit$$00000011
                                    0x0000c1f2   Lc    1  Sect  De 
    429  .ARM.Collect$$libinit$$00000013
                                    0x0000c1f2   Lc    1  Sect  De 
    430  .ARM.Collect$$libinit$$00000015
                                    0x0000c1f2   Lc    1  Sect  De 
    431  .ARM.Collect$$libinit$$00000017
                                    0x0000c1f2   Lc    1  Sect  De 
    432  .ARM.Collect$$libinit$$00000019
                                    0x0000c1f2   Lc    1  Sect  De 
    433  .ARM.Collect$$libinit$$0000001B
                                    0x0000c1f2   Lc    1  Sect  De 
    434  .ARM.Collect$$libinit$$0000001D
                                    0x0000c1f2   Lc    1  Sect  De 
    435  .ARM.Collect$$libinit$$0000001F
                                    0x0000c1f2   Lc    1  Sect  De 
    436  .ARM.Collect$$libinit$$00000021
                                    0x0000c1f2   Lc    1  Sect  De 
    437  .ARM.Collect$$libinit$$00000023
                                    0x0000c1f2   Lc    1  Sect  De 
    438  .ARM.Collect$$libinit$$00000025
                                    0x0000c1f2   Lc    1  Sect  De 
    439  .ARM.Collect$$libinit$$0000002C
                                    0x0000c1f2   Lc    1  Sect  De 
    440  .ARM.Collect$$libinit$$0000002E
                                    0x0000c1f2   Lc    1  Sect  De 
    441  .ARM.Collect$$libinit$$00000030
                                    0x0000c1f2   Lc    1  Sect  De 
    442  .ARM.Collect$$libinit$$00000032
                                    0x0000c1f2   Lc    1  Sect  De 
    443  .ARM.Collect$$libinit$$00000033
                                    0x0000c1f2   Lc    1  Sect  De   0x2
    444  ../clib/angel/kernel.s     0x00000000   Lc  Abs  File  De 
    445  .ARM.Collect$$rtexit$$00000002
                                    0x0000c20c   Lc    1  Sect  De 
    446  .ARM.Collect$$rtexit$$00000003
                                    0x0000c20c   Lc    1  Sect  De   0x4
    447  .ARM.Collect$$rtexit$$00000004
                                    0x0000c210   Lc    1  Sect  De   0x6
    448  ../clib/armsys.c           0x00000000   Lc  Abs  File  De 
    449  ../clib/armsys.c           0x00000000   Lc  Abs  File  De 
    450  ../fplib/fpinit.s          0x00000000   Lc  Abs  File  De 
    451  x$fpl$fpinit               0x00010c56   Lc    1  Sect  De   0xa
    452  $v0                        0x00010c56   Lc    1   --   De 
    453  ../clib/angel/sysapp.c     0x00000000   Lc  Abs  File  De 
    454  .text                      0x0000c3cc   Lc    1  Sect  De 
    455  ../clib/angel/boardlib.s   0x00000000   Lc  Abs  File  De 
    456  ../clib/armsys.c           0x00000000   Lc  Abs  File  De 
    457  ../clib/armsys.c           0x00000000   Lc  Abs  File  De 
    458  ../clib/libinit.s          0x00000000   Lc  Abs  File  De 
    459  .ARM.Collect$$libshutdown$$00000000
                                    0x0000c1f4   Lc    1  Sect  De   0x2
    460  ../clib/angel/sysapp.c     0x00000000   Lc  Abs  File  De 
    461  ../clib/angel/sys.s        0x00000000   Lc  Abs  File  De 
    462  .text                      0x0000c3d8   Lc    1  Sect  De   0x2
    463  ../clib/angel/sys.s        0x00000000   Lc  Abs  File  De 
    464  .text                      0x0000c3da   Lc    1  Sect  De 
    465  ../clib/heapalloc.c        0x00000000   Lc  Abs  File  De 
    466  ../clib/signal.c           0x00000000   Lc  Abs  File  De 
    467  ../clib/signal.c           0x00000000   Lc  Abs  File  De 
    468  ../clib/libinit.s          0x00000000   Lc  Abs  File  De 
    469  .ARM.Collect$$libshutdown$$00000002
                                    0x0000c1f6   Lc    1  Sect  De 
    470  .ARM.Collect$$libshutdown$$00000004
                                    0x0000c1f6   Lc    1  Sect  De 
    471  .ARM.Collect$$libshutdown$$00000007
                                    0x0000c1f6   Lc    1  Sect  De 
    472  .ARM.Collect$$libshutdown$$0000000A
                                    0x0000c1f6   Lc    1  Sect  De 
    473  .ARM.Collect$$libshutdown$$0000000C
                                    0x0000c1f6   Lc    1  Sect  De 
    474  .ARM.Collect$$libshutdown$$0000000F
                                    0x0000c1f6   Lc    1  Sect  De 
    475  .ARM.Collect$$libshutdown$$00000010
                                    0x0000c1f6   Lc    1  Sect  De   0x2
    476  ../clib/angel/rt.s         0x00000000   Lc  Abs  File  De 
    477  ../clib/signal.c           0x00000000   Lc  Abs  File  De 
    478  ../clib/signal.c           0x00000000   Lc  Abs  File  De 
    479  ../clib/signal.c           0x00000000   Lc  Abs  File  De 
    480  ../clib/signal.c           0x00000000   Lc  Abs  File  De 
    481  ../clib/angel/sysapp.c     0x00000000   Lc  Abs  File  De 
    482  ../clib/signal.s           0x00000000   Lc  Abs  File  De 
    483  ../clib/signal.c           0x00000000   Lc  Abs  File  De 
    484  ../clib/signal.c           0x00000000   Lc  Abs  File  De 
    485  ../clib/signal.c           0x00000000   Lc  Abs  File  De 
    486  ../clib/signal.c           0x00000000   Lc  Abs  File  De 
    487  ../clib/signal.c           0x00000000   Lc  Abs  File  De 
    488  ../clib/signal.c           0x00000000   Lc  Abs  File  De 
    489  ../clib/signal.c           0x00000000   Lc  Abs  File  De 
    490  ../clib/signal.c           0x00000000   Lc  Abs  File  De 
    491  ../clib/angel/dczerorl2.s  0x00000000   Lc  Abs  File  De 
    492  !!dczerorl2                0x0000c174   Lc    1  Sect  De   0x5a
    493  ../clib/angel/scatter.s    0x00000000   Lc  Abs  File  De 
    494  !!!scatter                 0x0000c140   Lc    1  Sect  De   0x34
    495  ../clib/angel/handlers.s   0x00000000   Lc  Abs  File  De 
    496  !!handler_zi               0x0000c1d0   Lc    1  Sect  De   0x1c
    497  BuildAttributes$$THM_ISAv4$E$P$D$K$B$S$7EM$VFPi3$EXTD16$VFPS$VFMA$PE$A:L22UL41UL21$X:L11$S22US41US21$IEEE1$IW$USESV6$~STKCKD$USESV7$~SHL$OTIME$ROPI$EBA8$UX$STANDARDLIB$REQ8$PRES8$EABIv2
                                    0x00000000   Gb  Abs   --   Hi 
    498  __ARM_use_no_argv          0x00000000   Gb  Abs   --   Hi 
    499  __Vectors                  0x0000c000   Gb    1  Data  Hi 
    500  __Patchable                0x0000c0c0   Gb    1  Data  Hi 
    501  Reset_Handler              0x0000c101   Wk    1  Code  Hi   0x1c
    502  NMI_Handler                0x0000c11f   Wk    1  Code  Hi   0x2
    503  MemManage_Handler          0x0000c121   Wk    1  Code  Hi   0x2
    504  BusFault_Handler           0x0000c123   Wk    1  Code  Hi   0x2
    505  UsageFault_Handler         0x0000c125   Wk    1  Code  Hi   0x2
    506  SecureFault_Handler        0x0000c127   Wk    1  Code  Hi   0x2
    507  SVC_Handler                0x0000c129   Wk    1  Code  Hi   0x2
    508  DebugMon_Handler           0x0000c12b   Wk    1  Code  Hi   0x2
    509  PendSV_Handler             0x0000c12d   Wk    1  Code  Hi   0x2
    510  SysTick_Handler            0x0000c12f   Wk    1  Code  Hi   0x2
    511  am_adc_isr                 0x0000c131   Wk    1  Code  Hi 
    512  am_ble_isr                 0x0000c131   Wk    1  Code  Hi 
    513  am_brownout_isr            0x0000c131   Wk    1  Code  Hi 
    514  am_clkgen_isr              0x0000c131   Wk    1  Code  Hi 
    515  am_ctimer_isr              0x0000c131   Wk    1  Code  Hi 
    516  am_gpio_isr                0x0000c131   Wk    1  Code  Hi 
    517  am_iomaster0_isr           0x0000c131   Wk    1  Code  Hi 
    518  am_iomaster1_isr           0x0000c131   Wk    1  Code  Hi 
    519  am_iomaster2_isr           0x0000c131   Wk    1  Code  Hi 
    520  am_iomaster3_isr           0x0000c131   Wk    1  Code  Hi 
    521  am_iomaster4_isr           0x0000c131   Wk    1  Code  Hi 
    522  am_iomaster5_isr           0x0000c131   Wk    1  Code  Hi 
    523  am_ioslave_acc_isr         0x0000c131   Wk    1  Code  Hi 
    524  am_ioslave_ios_isr         0x0000c131   Wk    1  Code  Hi 
    525  am_mspi0_isr               0x0000c131   Wk    1  Code  Hi 
    526  am_pdm0_isr                0x0000c131   Wk    1  Code  Hi 
    527  am_rtc_isr                 0x0000c131   Wk    1  Code  Hi 
    528  am_scard_isr               0x0000c131   Wk    1  Code  Hi 
    529  am_software0_isr           0x0000c131   Wk    1  Code  Hi 
    530  am_stimer_cmpr0_isr        0x0000c131   Wk    1  Code  Hi 
    531  am_stimer_cmpr1_isr        0x0000c131   Wk    1  Code  Hi 
    532  am_stimer_cmpr2_isr        0x0000c131   Wk    1  Code  Hi 
    533  am_stimer_cmpr3_isr        0x0000c131   Wk    1  Code  Hi 
    534  am_stimer_cmpr4_isr        0x0000c131   Wk    1  Code  Hi 
    535  am_stimer_cmpr5_isr        0x0000c131   Wk    1  Code  Hi 
    536  am_stimer_cmpr6_isr        0x0000c131   Wk    1  Code  Hi 
    537  am_stimer_cmpr7_isr        0x0000c131   Wk    1  Code  Hi 
    538  am_stimer_isr              0x0000c131   Wk    1  Code  Hi 
    539  am_uart0_isr               0x0000c131   Wk    1  Code  Hi 
    540  am_uart1_isr               0x0000c131   Wk    1  Code  Hi 
    541  am_uart_isr                0x0000c131   Wk    1  Code  Hi 
    542  am_vcomp_isr               0x0000c131   Wk    1  Code  Hi 
    543  am_watchdog_isr            0x0000c131   Wk    1  Code  Hi 
    544  __main                     0x0000c139   Gb    1  Code  Hi   0x8
    545  __scatterload              0x0000c141   Gb    1  Code  Hi 
    546  __scatterload_rt2          0x0000c141   Gb    1  Code  Hi   0x2c
    547  __scatterload_rt2_thumb_only
                                    0x0000c141   Gb    1  Code  Hi 
    548  __scatterload_null         0x0000c14f   Gb    1  Code  Hi 
    549  __decompress               0x0000c175   Gb    1  Code  Hi   0x5a
    550  __decompress1              0x0000c175   Gb    1  Code  Hi 
    551  __scatterload_zeroinit     0x0000c1d1   Gb    1  Code  Hi   0x1c
    552  __rt_lib_init              0x0000c1ed   Gb    1  Code  De 
    553  __rt_lib_init_fp_1         0x0000c1ef   Gb    1  Code  Hi 
    554  __rt_lib_init_alloca_1     0x0000c1f3   Gb    1  Code  Hi 
    555  __rt_lib_init_argv_1       0x0000c1f3   Gb    1  Code  Hi 
    556  __rt_lib_init_atexit_1     0x0000c1f3   Gb    1  Code  Hi 
    557  __rt_lib_init_clock_1      0x0000c1f3   Gb    1  Code  Hi 
    558  __rt_lib_init_cpp_1        0x0000c1f3   Gb    1  Code  Hi 
    559  __rt_lib_init_exceptions_1 0x0000c1f3   Gb    1  Code  Hi 
    560  __rt_lib_init_fp_trap_1    0x0000c1f3   Gb    1  Code  Hi 
    561  __rt_lib_init_getenv_1     0x0000c1f3   Gb    1  Code  Hi 
    562  __rt_lib_init_heap_1       0x0000c1f3   Gb    1  Code  Hi 
    563  __rt_lib_init_lc_collate_1 0x0000c1f3   Gb    1  Code  Hi 
    564  __rt_lib_init_lc_ctype_1   0x0000c1f3   Gb    1  Code  Hi 
    565  __rt_lib_init_lc_monetary_1
                                    0x0000c1f3   Gb    1  Code  Hi 
    566  __rt_lib_init_lc_numeric_1 0x0000c1f3   Gb    1  Code  Hi 
    567  __rt_lib_init_lc_time_1    0x0000c1f3   Gb    1  Code  Hi 
    568  __rt_lib_init_preinit_1    0x0000c1f3   Gb    1  Code  Hi 
    569  __rt_lib_init_rand_1       0x0000c1f3   Gb    1  Code  Hi 
    570  __rt_lib_init_return       0x0000c1f3   Gb    1  Code  Hi 
    571  __rt_lib_init_signal_1     0x0000c1f3   Gb    1  Code  Hi 
    572  __rt_lib_init_stdio_1      0x0000c1f3   Gb    1  Code  Hi 
    573  __rt_lib_init_user_alloc_1 0x0000c1f3   Gb    1  Code  Hi 
    574  __rt_lib_shutdown          0x0000c1f5   Gb    1  Code  De 
    575  __rt_lib_shutdown_cpp_1    0x0000c1f7   Gb    1  Code  Hi 
    576  __rt_lib_shutdown_fp_trap_1
                                    0x0000c1f7   Gb    1  Code  Hi 
    577  __rt_lib_shutdown_heap_1   0x0000c1f7   Gb    1  Code  Hi 
    578  __rt_lib_shutdown_return   0x0000c1f7   Gb    1  Code  Hi 
    579  __rt_lib_shutdown_signal_1 0x0000c1f7   Gb    1  Code  Hi 
    580  __rt_lib_shutdown_stdio_1  0x0000c1f7   Gb    1  Code  Hi 
    581  __rt_lib_shutdown_user_alloc_1
                                    0x0000c1f7   Gb    1  Code  Hi 
    582  __rt_entry                 0x0000c1f9   Gb    1  Code  Hi 
    583  __rt_entry_presh_1         0x0000c1f9   Gb    1  Code  Hi 
    584  __rt_entry_sh              0x0000c1f9   Gb    1  Code  Hi 
    585  __rt_entry_li              0x0000c1ff   Gb    1  Code  Hi 
    586  __rt_entry_postsh_1        0x0000c1ff   Gb    1  Code  Hi 
    587  __rt_entry_main            0x0000c203   Gb    1  Code  Hi 
    588  __rt_entry_postli_1        0x0000c203   Gb    1  Code  Hi 
    589  __rt_exit                  0x0000c20b   Gb    1  Code  De 
    590  __rt_exit_ls               0x0000c20d   Gb    1  Code  Hi 
    591  __rt_exit_prels_1          0x0000c20d   Gb    1  Code  Hi 
    592  __rt_exit_exit             0x0000c211   Gb    1  Code  Hi 
    593  __asm___20_mspi_octal_example_c_eee66a02__xip_test_function
                                    0x0000c219   Gb    1  Code  Hi   0x42
    594  HardFault_Handler          0x0000c25d   Gb    1  Code  Hi   0x1a
    595  getStackedReg              0x0000c277   Gb    1  Code  Hi   0x8
    596  am_hal_interrupt_master_enable
                                    0x0000c281   Gb    1  Code  Hi   0x8
    597  am_hal_interrupt_master_disable
                                    0x0000c289   Gb    1  Code  Hi   0x8
    598  am_hal_interrupt_master_set
                                    0x0000c291   Gb    1  Code  Hi   0x6
    599  __user_initial_stackheap   0x0000c299   Gb    1  Code  Hi   0xa
    600  __aeabi_memcpy4            0x0000c2b1   Gb    1  Code  Hi 
    601  __aeabi_memcpy8            0x0000c2b1   Gb    1  Code  De 
    602  __rt_memcpy_w              0x0000c2b1   Gb    1  Code  De   0x64
    603  _memcpy_lastbytes_aligned  0x0000c2f9   Gb    1  Code  De 
    604  __aeabi_memclr4            0x0000c315   Gb    1  Code  Hi 
    605  __aeabi_memclr8            0x0000c315   Gb    1  Code  De 
    606  __rt_memclr_w              0x0000c315   Gb    1  Code  De   0x4e
    607  _memset_w                  0x0000c319   Gb    1  Code  De 
    608  __use_two_region_memory    0x0000c363   Gb    1  Code  Hi   0x2
    609  __rt_heap_escrow$2region   0x0000c365   Gb    1  Code  De   0x2
    610  __rt_heap_expand$2region   0x0000c367   Gb    1  Code  De   0x2
    611  __user_setup_stackheap     0x0000c369   Gb    1  Code  De   0x4a
    612  exit                       0x0000c3b3   Gb    1  Code  De   0x12
    613  __user_libspace            0x0000c3c5   Wk    1  Code  De   0x8
    614  __user_perproc_libspace    0x0000c3c5   Wk    1  Code  De 
    615  __user_perthread_libspace  0x0000c3c5   Wk    1  Code  De 
    616  _sys_exit                  0x0000c3cd   Gb    1  Code  De   0x8
    617  __I$use$semihosting        0x0000c3d9   Gb    1  Code  Hi 
    618  __use_no_semihosting_swi   0x0000c3d9   Gb    1  Code  Hi   0x2
    619  __semihosting_library_function
                                    0x0000c3db   Gb    1  Code  Hi 
    620  am_bsp_itm_printf_enable   0x0000c3dd   Gb    1  Code  Hi   0x2c
    621  am_bsp_low_power_init      0x0000c419   Gb    1  Code  Hi   0x3a
    622  am_bsp_mspi_pins_enable    0x0000c45d   Gb    1  Code  Hi   0x1da
    623  am_devices_mspi_atxp032_deinit
                                    0x0000c825   Gb    1  Code  Hi   0x84
    624  am_devices_mspi_atxp032_disable_xip
                                    0x0000c8d1   Gb    1  Code  Hi   0x44
    625  am_devices_mspi_atxp032_enable_scrambling
                                    0x0000c915   Gb    1  Code  Hi   0x1c
    626  am_devices_mspi_atxp032_enable_xip
                                    0x0000c931   Gb    1  Code  Hi   0x1c
    627  am_devices_mspi_atxp032_init
                                    0x0000c94d   Gb    1  Code  Hi   0x26e
    628  am_devices_mspi_atxp032_read
                                    0x0000cc59   Gb    1  Code  Hi   0x9c
    629  am_devices_mspi_atxp032_reset
                                    0x0000ccfd   Gb    1  Code  Hi   0x2e
    630  am_devices_mspi_atxp032_sector_erase
                                    0x0000cd2d   Gb    1  Code  Hi   0x14c
    631  am_devices_mspi_atxp032_write
                                    0x0000ce7d   Gb    1  Code  Hi   0x188
    632  am_hal_cachectrl_control   0x0000d00d   Gb    1  Code  Hi   0x2c6
    633  am_hal_clkgen_control      0x0000d2dd   Gb    1  Code  Hi   0xec
    634  am_hal_clkgen_status_get   0x0000d3d9   Gb    1  Code  Hi   0x2c
    635  am_hal_cmdq_alloc_block    0x0000d40d   Gb    1  Code  Hi   0xc8
    636  am_hal_cmdq_disable        0x0000d4d9   Gb    1  Code  Hi   0x3c
    637  am_hal_cmdq_enable         0x0000d519   Gb    1  Code  Hi   0x3c
    638  am_hal_cmdq_init           0x0000d559   Gb    1  Code  Hi   0xe2
    639  am_hal_cmdq_post_block     0x0000d649   Gb    1  Code  Hi   0x48
    640  am_hal_cmdq_post_loop_block
                                    0x0000d695   Gb    1  Code  Hi   0x56
    641  am_hal_cmdq_release_block  0x0000d6f1   Gb    1  Code  Hi   0x32
    642  am_hal_cmdq_reset          0x0000d729   Gb    1  Code  Hi   0x5e
    643  am_hal_cmdq_term           0x0000d78d   Gb    1  Code  Hi   0x84
    644  am_hal_flash_delay         0x0000d815   Gb    1  Code  Hi   0x1e
    645  am_hal_flash_delay_status_check
                                    0x0000d839   Gb    1  Code  Hi   0x56
    646  am_hal_flash_load_ui32     0x0000d895   Gb    1  Code  Hi   0x4
    647  am_hal_flash_store_ui32    0x0000d89d   Gb    1  Code  Hi   0x24
    648  am_hal_gpio_pinconfig      0x0000d8c5   Gb    1  Code  Hi   0x24a
    649  am_hal_gpio_state_write    0x0000db45   Gb    1  Code  Hi   0x80
    650  am_hal_itm_enable          0x0000dbc5   Gb    1  Code  Hi   0x2c
    651  am_hal_itm_print           0x0000dc0d   Gb    1  Code  Hi   0x30
    652  am_hal_mcuctrl_control     0x0000dc3d   Gb    1  Code  Hi   0x14e
    653  am_hal_mcuctrl_info_get    0x0000dd91   Gb    1  Code  Hi   0x116
    654  am_hal_mspi_blocking_transfer
                                    0x0000dec9   Gb    1  Code  Hi   0x1da
    655  am_hal_mspi_control        0x0000e0b5   Gb    1  Code  Hi   0x68c
    656  am_hal_mspi_deinitialize   0x0000e755   Gb    1  Code  Hi   0x78
    657  am_hal_mspi_device_configure
                                    0x0000e7d5   Gb    1  Code  Hi   0x1bc
    658  am_hal_mspi_disable        0x0000e9a5   Gb    1  Code  Hi   0x64
    659  am_hal_mspi_enable         0x0000ea11   Gb    1  Code  Hi   0x92
    660  am_hal_mspi_initialize     0x0000eab5   Gb    1  Code  Hi   0x36
    661  am_hal_mspi_interrupt_clear
                                    0x0000eaf5   Gb    1  Code  Hi   0x24
    662  am_hal_mspi_interrupt_disable
                                    0x0000eb21   Gb    1  Code  Hi   0x2c
    663  am_hal_mspi_interrupt_enable
                                    0x0000eb55   Gb    1  Code  Hi   0x2a
    664  am_hal_mspi_nonblocking_transfer
                                    0x0000eb89   Gb    1  Code  Hi   0x164
    665  am_hal_mspi_power_control  0x0000ecf5   Gb    1  Code  Hi   0x190
    666  am_hal_pwrctrl_low_power_init
                                    0x0000ee8d   Gb    1  Code  Hi   0x1c0
    667  am_hal_pwrctrl_periph_disable
                                    0x0000f065   Gb    1  Code  Hi   0x46
    668  am_hal_pwrctrl_periph_enable
                                    0x0000f0b5   Gb    1  Code  Hi   0x48
    669  am_hal_rtc_osc_disable     0x0000f105   Gb    1  Code  Hi   0x12
    670  am_hal_sysctrl_sleep       0x0000f119   Gb    1  Code  Hi   0x52
    671  am_hal_tpiu_enable         0x0000f185   Gb    1  Code  Hi   0x7a
    672  am_util_delay_ms           0x0000f215   Gb    1  Code  Hi   0x20
    673  am_util_delay_us           0x0000f235   Gb    1  Code  Hi   0x1e
    674  am_util_faultisr_collect_data
                                    0x0000f259   Gb    1  Code  Hi   0x1d6
    675  am_util_stdio_printf       0x0000f73d   Gb    1  Code  Hi   0x32
    676  am_util_stdio_printf_init  0x0000f779   Gb    1  Code  Hi   0x6
    677  am_util_stdio_terminal_clear
                                    0x0000f785   Gb    1  Code  Hi   0xa
    678  am_util_stdio_vsprintf     0x0000f7a5   Gb    1  Code  Hi   0x3a4
    679  build_dma_cmdlist          0x0000fb59   Gb    1  Code  Hi   0x154
    680  main                       0x0000ff59   Gb    1  Code  Hi   0x1fe
    681  __aeabi_d2f                0x00010b59   Gb    1  Code  Hi 
    682  _d2f                       0x00010b59   Gb    1  Code  De   0x62
    683  __fpl_dnaninf              0x00010bbb   Gb    1  Code  De   0x9c
    684  _fp_init                   0x00010c57   Gb    1  Code  De   0xa
    685  __fplib_config_fpu_vfp     0x00010c5f   Gb    1  Code  De 
    686  __fplib_config_pureend_doubles
                                    0x00010c5f   Gb    1  Code  De 
    687  __fpl_fretinf              0x00010c61   Gb    1  Code  De   0xa
    688  __I$use$fp                 0x00010c6a   Gb    1   --   De 
    689  MSPI_Flash_Config          0x00010c6c   Gb    1  Data  Hi   0x14
    690  g_am_hal_mcuctrl_flash_size
                                    0x00010c90   Gb    1  Data  Hi   0x40
    691  g_am_hal_mcuctrl_sram_size 0x00010cd0   Gb    1  Data  Hi   0x40
    692  g_AM_HAL_GPIO_DISABLE      0x00010e50   Gb    1  Data  Hi   0x4
    693  g_AM_HAL_GPIO_OUTPUT       0x00010fb4   Gb    1  Data  Hi   0x4
    694  am_hal_pwrctrl_peripheral_control
                                    0x00010fb8   Gb    1  Data  Hi   0xb4
    695  am_hal_pwrctrl_memory_control
                                    0x0001106c   Gb    1  Data  Hi   0x1b0
    696  g_AM_BSP_GPIO_MSPI_CE0     0x0001121c   Gb    1  Data  Hi   0x4
    697  g_AM_BSP_GPIO_MSPI_CE1     0x00011220   Gb    1  Data  Hi   0x4
    698  g_AM_BSP_GPIO_MSPI_D0      0x00011224   Gb    1  Data  Hi   0x4
    699  g_AM_BSP_GPIO_MSPI_D1      0x00011228   Gb    1  Data  Hi   0x4
    700  g_AM_BSP_GPIO_MSPI_D2      0x0001122c   Gb    1  Data  Hi   0x4
    701  g_AM_BSP_GPIO_MSPI_D3      0x00011230   Gb    1  Data  Hi   0x4
    702  g_AM_BSP_GPIO_MSPI_D4      0x00011234   Gb    1  Data  Hi   0x4
    703  g_AM_BSP_GPIO_MSPI_D5      0x00011238   Gb    1  Data  Hi   0x4
    704  g_AM_BSP_GPIO_MSPI_D6      0x0001123c   Gb    1  Data  Hi   0x4
    705  g_AM_BSP_GPIO_MSPI_D7      0x00011240   Gb    1  Data  Hi   0x4
    706  g_AM_BSP_GPIO_MSPI_SCK     0x00011244   Gb    1  Data  Hi   0x4
    707  g_AM_BSP_GPIO_ITM_SWO      0x00011248   Gb    1  Data  Hi   0x4
    708  Region$$Table$$Base        0x0001124c   Gb    1   --   Hi 
    709  Region$$Table$$Limit       0x0001126c   Gb    1   --   Hi 
    710  g_MSPIHdl                  0x10000000   Gb    2  Data  Hi   0x4
    711  g_FlashHdl                 0x10000004   Gb    2  Data  Hi   0x4
    712  g_pfnCharPrint             0x10000008   Gb    2  Data  Hi   0x4
    713  MSPI_ATXP032_Serial_CE0_MSPIConfig
                                    0x10000010   Gb    2  Data  Hi   0x1c
    714  MSPI_ATXP032_Serial_CE1_MSPIConfig
                                    0x1000002c   Gb    2  Data  Hi   0x1c
    715  MSPI_ATXP032_Quad_CE0_MSPIConfig
                                    0x10000048   Gb    2  Data  Hi   0x1c
    716  MSPI_ATXP032_Quad_CE1_MSPIConfig
                                    0x10000064   Gb    2  Data  Hi   0x1c
    717  MSPI_ATXP032_Octal_CE0_MSPIConfig
                                    0x10000080   Gb    2  Data  Hi   0x1c
    718  MSPI_ATXP032_Octal_CE1_MSPIConfig
                                    0x1000009c   Gb    2  Data  Hi   0x1c
    719  g_ATXP032_DevConfig        0x100000b8   Gb    2  Data  Hi   0x30
    720  g_ui32HALflags             0x100000e8   Gb    2  Data  Hi   0x4
    721  am_bsp_psLEDs              0x100000f8   Gb    2  Data  Hi   0x28
    722  gAmHalResetStatus          0x10000148   Gb    2  Data  Hi   0x4
    723  DMATCBBuffer               0x10001150   Gb    3  Data  Hi   0x2800
    724  TestBuffer                 0x10003950   Gb    3  Data  Hi   0x800
    725  DummyBuffer                0x10004150   Gb    3  Data  Hi   0x400
    726  g_SectorTXBuffer           0x10004550   Gb    3  Data  Hi   0x1000
    727  g_SectorRXBuffer           0x10005550   Gb    3  Data  Hi   0x1000
    728  gAmAtxp032                 0x10006650   Gb    3  Data  Hi   0x28
    729  g_MSPIState                0x10006678   Gb    3  Data  Hi   0x8a0
    730  __libspace_start           0x10007878   Gb    3  Data  De   0x60
    731  __temporary_stack_top$libspace
                                    0x100078d8   Gb    3  Data  De 


** Section #12 '.strtab' (SHT_STRTAB)
    Size   : 10744 bytes

            #  Offset String
        ====================================

            1      1: $d
            2      4: $t
            3      7: $d.realdata
            4     19: ..\src\mspi_octal_example.c
            5     47: .emb_text
            6     57: $v0
            7     61: ../src/mspi_octal_example.c
            8     89: i.main
            9     96: .bss
           10    101: .constdata
           11    112: mspi_interrupts
           12    128: .data
           13    134: ..\..\..\..\..\utils\am_util_delay.c
           14    171: ../../../../../utils/am_util_delay.c
           15    208: i.am_util_delay_ms
           16    227: i.am_util_delay_us
           17    246: ..\..\..\..\..\utils\am_util_faultisr.c
           18    286: ../../../../../utils/am_util_faultisr.c
           19    326: i.am_util_faultisr_collect_data
           20    358: ../../../../../utils/am_util_stdio.c
           21    395: i.am_util_stdio_printf
           22    418: i.am_util_stdio_printf_init
           23    446: i.am_util_stdio_terminal_clear
           24    477: i.am_util_stdio_vsprintf
           25    502: i.decstr_to_int
           26    518: decstr_to_int
           27    532: i.divu64_10
           28    544: divu64_10
           29    554: i.ftoa
           30    561: ftoa
           31    566: i.ndigits_in_hex
           32    583: ndigits_in_hex
           33    598: i.ndigits_in_i64
           34    615: ndigits_in_i64
           35    630: i.ndigits_in_u64
           36    647: ndigits_in_u64
           37    662: i.padbuffer
           38    674: padbuffer
           39    684: i.simple_strlen
           40    700: simple_strlen
           41    714: i.uint64_to_hexstr
           42    733: uint64_to_hexstr
           43    750: i.uint64_to_str
           44    766: uint64_to_str
           45    780: g_prfbuf
           46    789: g_bTxtXlate
           47    801: ..\..\..\..\..\devices\am_devices_mspi_atxp032.c
           48    850: ../../../../../devices/am_devices_mspi_atxp032.c
           49    899: i.am_device_deinit_flash
           50    924: am_device_deinit_flash
           51    947: i.am_device_init_flash
           52    970: am_device_init_flash
           53    991: i.am_devices_mspi_atxp032_command_read
           54   1030: am_devices_mspi_atxp032_command_read
           55   1067: i.am_devices_mspi_atxp032_command_write
           56   1107: am_devices_mspi_atxp032_command_write
           57   1145: i.am_devices_mspi_atxp032_deinit
           58   1178: i.am_devices_mspi_atxp032_disable_xip
           59   1216: i.am_devices_mspi_atxp032_enable_scrambling
           60   1260: i.am_devices_mspi_atxp032_enable_xip
           61   1297: i.am_devices_mspi_atxp032_init
           62   1328: i.am_devices_mspi_atxp032_read
           63   1359: i.am_devices_mspi_atxp032_reset
           64   1391: i.am_devices_mspi_atxp032_sector_erase
           65   1430: i.am_devices_mspi_atxp032_write
           66   1462: i.pfnMSPI_ATXP032_Callback
           67   1489: pfnMSPI_ATXP032_Callback
           68   1514: ../keil/startup_keil.s
           69   1537: STACK
           70   1543: StackMem
           71   1552: HEAP
           72   1557: HeapMem
           73   1565: RESET
           74   1571: .text
           75   1577: ..\am_hal_global.c
           76   1596: ../am_hal_global.c
           77   1615: ..\am_hal_clkgen.c
           78   1634: ../am_hal_clkgen.c
           79   1653: i.am_hal_clkgen_control
           80   1677: i.am_hal_clkgen_status_get
           81   1704: ..\am_hal_flash.c
           82   1722: ../am_hal_flash.c
           83   1740: i.am_hal_flash_delay
           84   1761: i.am_hal_flash_delay_status_check
           85   1795: i.am_hal_flash_load_ui32
           86   1820: i.am_hal_flash_store_ui32
           87   1846: ..\am_hal_interrupt.c
           88   1868: ../am_hal_interrupt.c
           89   1890: ..\am_hal_mcuctrl.c
           90   1910: ../am_hal_mcuctrl.c
           91   1930: i.am_hal_mcuctrl_control
           92   1955: i.am_hal_mcuctrl_info_get
           93   1981: ..\am_hal_mspi.c
           94   1998: ../am_hal_mspi.c
           95   2015: i.am_hal_mspi_blocking_transfer
           96   2047: i.am_hal_mspi_control
           97   2069: i.am_hal_mspi_deinitialize
           98   2096: i.am_hal_mspi_device_configure
           99   2127: i.am_hal_mspi_disable
          100   2149: i.am_hal_mspi_enable
          101   2170: i.am_hal_mspi_initialize
          102   2195: i.am_hal_mspi_interrupt_clear
          103   2225: i.am_hal_mspi_interrupt_disable
          104   2257: i.am_hal_mspi_interrupt_enable
          105   2288: i.am_hal_mspi_nonblocking_transfer
          106   2323: i.am_hal_mspi_power_control
          107   2351: i.build_dma_cmdlist
          108   2371: i.mspi_device_configure
          109   2395: mspi_device_configure
          110   2417: i.mspi_dummy_callback
          111   2439: mspi_dummy_callback
          112   2459: i.mspi_seq_loopback
          113   2479: mspi_seq_loopback
          114   2497: i.sched_hiprio
          115   2512: sched_hiprio
          116   2525: ..\am_hal_sysctrl.c
          117   2545: ../am_hal_sysctrl.c
          118   2565: i.am_hal_sysctrl_sleep
          119   2588: g_ui32BusWriteFlush
          120   2608: ..\am_bsp.c
          121   2620: ../am_bsp.c
          122   2632: i.am_bsp_itm_printf_enable
          123   2659: i.am_bsp_low_power_init
          124   2683: i.am_bsp_mspi_pins_enable
          125   2709: pui8UartTxBuffer
          126   2726: pui8UartRxBuffer
          127   2743: g_ui32PrintInterface
          128   2764: g_sCOMUART
          129   2775: g_sBspUartBufferedConfig
          130   2800: ..\am_hal_cmdq.c
          131   2817: ../am_hal_cmdq.c
          132   2834: i.am_hal_cmdq_alloc_block
          133   2860: i.am_hal_cmdq_disable
          134   2882: i.am_hal_cmdq_enable
          135   2903: i.am_hal_cmdq_init
          136   2922: i.am_hal_cmdq_post_block
          137   2947: i.am_hal_cmdq_post_loop_block
          138   2977: i.am_hal_cmdq_release_block
          139   3005: i.am_hal_cmdq_reset
          140   3025: i.am_hal_cmdq_term
          141   3044: gAmHalCmdq
          142   3055: gAmHalCmdQReg
          143   3069: ..\am_hal_gpio.c
          144   3086: ../am_hal_gpio.c
          145   3103: i.am_hal_gpio_pinconfig
          146   3127: i.am_hal_gpio_state_write
          147   3153: g_ui8Inpen
          148   3164: g_ui8Bit76Capabilities
          149   3187: g_ui8nCEpins
          150   3200: g_ui8NCEtable
          151   3214: ..\am_hal_itm.c
          152   3230: ../am_hal_itm.c
          153   3246: i.am_hal_itm_enable
          154   3266: i.am_hal_itm_print
          155   3285: ..\am_hal_pwrctrl.c
          156   3305: ../am_hal_pwrctrl.c
          157   3325: i.am_hal_pwrctrl_low_power_init
          158   3357: i.am_hal_pwrctrl_periph_disable
          159   3389: i.am_hal_pwrctrl_periph_enable
          160   3420: ..\am_hal_reset.c
          161   3438: ../am_hal_reset.c
          162   3456: ..\am_hal_rtc.c
          163   3472: ../am_hal_rtc.c
          164   3488: i.am_hal_rtc_osc_disable
          165   3513: ..\am_hal_tpiu.c
          166   3530: ../am_hal_tpiu.c
          167   3547: i.am_hal_tpiu_enable
          168   3568: ..\am_hal_uart.c
          169   3585: ../am_hal_uart.c
          170   3602: ..\am_bsp_pins.c
          171   3619: ../am_bsp_pins.c
          172   3636: ..\am_hal_cachectrl.c
          173   3658: ../am_hal_cachectrl.c
          174   3680: i.am_hal_cachectrl_control
          175   3707: ..\am_hal_queue.c
          176   3725: ../am_hal_queue.c
          177   3743: dc.s
          178   3748: ../clib/longlong.s
          179   3767: ../clib/memcpset.s
          180   3786: ../clib/heapaux.c
          181   3804: ../clib/angel/startup.s
          182   3828: !!!main
          183   3836: ../fplib/d2f.s
          184   3851: x$fpl$d2f
          185   3861: ../clib/angel/kernel.s
          186   3884: .ARM.Collect$$rtentry$$00000000
          187   3916: ../fplib/dnaninf.s
          188   3935: x$fpl$dnaninf
          189   3949: ../fplib/fretinf.s
          190   3968: x$fpl$fretinf
          191   3982: ../fplib/usenofp.s
          192   4001: x$fpl$usenofp
          193   4015: .ARM.Collect$$rtentry$$00000002
          194   4047: .ARM.Collect$$rtentry$$00000009
          195   4079: .ARM.Collect$$rtentry$$0000000A
          196   4111: .ARM.Collect$$rtentry$$0000000C
          197   4143: .ARM.Collect$$rtentry$$0000000D
          198   4175: .ARM.Collect$$rtentry$$00000004
          199   4207: ../clib/angel/sys.s
          200   4227: ../clib/stdlib.c
          201   4244: ../clib/angel/boardlib.s
          202   4269: ../clib/libinit.s
          203   4287: .ARM.Collect$$libinit$$00000000
          204   4319: .ARM.Collect$$rtexit$$00000000
          205   4350: .ARM.Collect$$libinit$$00000001
          206   4382: .ARM.Collect$$libinit$$00000004
          207   4414: .ARM.Collect$$libinit$$0000000A
          208   4446: .ARM.Collect$$libinit$$0000000C
          209   4478: .ARM.Collect$$libinit$$0000000E
          210   4510: .ARM.Collect$$libinit$$00000011
          211   4542: .ARM.Collect$$libinit$$00000013
          212   4574: .ARM.Collect$$libinit$$00000015
          213   4606: .ARM.Collect$$libinit$$00000017
          214   4638: .ARM.Collect$$libinit$$00000019
          215   4670: .ARM.Collect$$libinit$$0000001B
          216   4702: .ARM.Collect$$libinit$$0000001D
          217   4734: .ARM.Collect$$libinit$$0000001F
          218   4766: .ARM.Collect$$libinit$$00000021
          219   4798: .ARM.Collect$$libinit$$00000023
          220   4830: .ARM.Collect$$libinit$$00000025
          221   4862: .ARM.Collect$$libinit$$0000002C
          222   4894: .ARM.Collect$$libinit$$0000002E
          223   4926: .ARM.Collect$$libinit$$00000030
          224   4958: .ARM.Collect$$libinit$$00000032
          225   4990: .ARM.Collect$$libinit$$00000033
          226   5022: .ARM.Collect$$rtexit$$00000002
          227   5053: .ARM.Collect$$rtexit$$00000003
          228   5084: .ARM.Collect$$rtexit$$00000004
          229   5115: ../clib/armsys.c
          230   5132: ../fplib/fpinit.s
          231   5150: x$fpl$fpinit
          232   5163: ../clib/angel/sysapp.c
          233   5186: .ARM.Collect$$libshutdown$$00000000
          234   5222: ../clib/heapalloc.c
          235   5242: ../clib/signal.c
          236   5259: .ARM.Collect$$libshutdown$$00000002
          237   5295: .ARM.Collect$$libshutdown$$00000004
          238   5331: .ARM.Collect$$libshutdown$$00000007
          239   5367: .ARM.Collect$$libshutdown$$0000000A
          240   5403: .ARM.Collect$$libshutdown$$0000000C
          241   5439: .ARM.Collect$$libshutdown$$0000000F
          242   5475: .ARM.Collect$$libshutdown$$00000010
          243   5511: ../clib/angel/rt.s
          244   5530: ../clib/signal.s
          245   5547: ../clib/angel/dczerorl2.s
          246   5573: !!dczerorl2
          247   5585: ../clib/angel/scatter.s
          248   5609: !!!scatter
          249   5620: ../clib/angel/handlers.s
          250   5645: !!handler_zi
          251   5658: BuildAttributes$$THM_ISAv4$E$P$D$K$B$S$7EM$VFPi3$EXTD16$VFPS$VFMA$PE$A:L22UL41UL21$X:L11$S22US41US21$IEEE1$IW$USESV6$~STKCKD$USESV7$~SHL$OTIME$ROPI$EBA8$UX$STANDARDLIB$REQ8$PRES8$EABIv2
          252   5844: __ARM_use_no_argv
          253   5862: __Vectors
          254   5872: __Patchable
          255   5884: Reset_Handler
          256   5898: NMI_Handler
          257   5910: MemManage_Handler
          258   5928: BusFault_Handler
          259   5945: UsageFault_Handler
          260   5964: SecureFault_Handler
          261   5984: SVC_Handler
          262   5996: DebugMon_Handler
          263   6013: PendSV_Handler
          264   6028: SysTick_Handler
          265   6044: am_adc_isr
          266   6055: am_ble_isr
          267   6066: am_brownout_isr
          268   6082: am_clkgen_isr
          269   6096: am_ctimer_isr
          270   6110: am_gpio_isr
          271   6122: am_iomaster0_isr
          272   6139: am_iomaster1_isr
          273   6156: am_iomaster2_isr
          274   6173: am_iomaster3_isr
          275   6190: am_iomaster4_isr
          276   6207: am_iomaster5_isr
          277   6224: am_ioslave_acc_isr
          278   6243: am_ioslave_ios_isr
          279   6262: am_mspi0_isr
          280   6275: am_pdm0_isr
          281   6287: am_rtc_isr
          282   6298: am_scard_isr
          283   6311: am_software0_isr
          284   6328: am_stimer_cmpr0_isr
          285   6348: am_stimer_cmpr1_isr
          286   6368: am_stimer_cmpr2_isr
          287   6388: am_stimer_cmpr3_isr
          288   6408: am_stimer_cmpr4_isr
          289   6428: am_stimer_cmpr5_isr
          290   6448: am_stimer_cmpr6_isr
          291   6468: am_stimer_cmpr7_isr
          292   6488: am_stimer_isr
          293   6502: am_uart0_isr
          294   6515: am_uart1_isr
          295   6528: am_uart_isr
          296   6540: am_vcomp_isr
          297   6553: am_watchdog_isr
          298   6569: __main
          299   6576: __scatterload
          300   6590: __scatterload_rt2
          301   6608: __scatterload_rt2_thumb_only
          302   6637: __scatterload_null
          303   6656: __decompress
          304   6669: __decompress1
          305   6683: __scatterload_zeroinit
          306   6706: __rt_lib_init
          307   6720: __rt_lib_init_fp_1
          308   6739: __rt_lib_init_alloca_1
          309   6762: __rt_lib_init_argv_1
          310   6783: __rt_lib_init_atexit_1
          311   6806: __rt_lib_init_clock_1
          312   6828: __rt_lib_init_cpp_1
          313   6848: __rt_lib_init_exceptions_1
          314   6875: __rt_lib_init_fp_trap_1
          315   6899: __rt_lib_init_getenv_1
          316   6922: __rt_lib_init_heap_1
          317   6943: __rt_lib_init_lc_collate_1
          318   6970: __rt_lib_init_lc_ctype_1
          319   6995: __rt_lib_init_lc_monetary_1
          320   7023: __rt_lib_init_lc_numeric_1
          321   7050: __rt_lib_init_lc_time_1
          322   7074: __rt_lib_init_preinit_1
          323   7098: __rt_lib_init_rand_1
          324   7119: __rt_lib_init_return
          325   7140: __rt_lib_init_signal_1
          326   7163: __rt_lib_init_stdio_1
          327   7185: __rt_lib_init_user_alloc_1
          328   7212: __rt_lib_shutdown
          329   7230: __rt_lib_shutdown_cpp_1
          330   7254: __rt_lib_shutdown_fp_trap_1
          331   7282: __rt_lib_shutdown_heap_1
          332   7307: __rt_lib_shutdown_return
          333   7332: __rt_lib_shutdown_signal_1
          334   7359: __rt_lib_shutdown_stdio_1
          335   7385: __rt_lib_shutdown_user_alloc_1
          336   7416: __rt_entry
          337   7427: __rt_entry_presh_1
          338   7446: __rt_entry_sh
          339   7460: __rt_entry_li
          340   7474: __rt_entry_postsh_1
          341   7494: __rt_entry_main
          342   7510: __rt_entry_postli_1
          343   7530: __rt_exit
          344   7540: __rt_exit_ls
          345   7553: __rt_exit_prels_1
          346   7571: __rt_exit_exit
          347   7586: __asm___20_mspi_octal_example_c_eee66a02__xip_test_function
          348   7646: HardFault_Handler
          349   7664: getStackedReg
          350   7678: am_hal_interrupt_master_enable
          351   7709: am_hal_interrupt_master_disable
          352   7741: am_hal_interrupt_master_set
          353   7769: __user_initial_stackheap
          354   7794: __aeabi_memcpy4
          355   7810: __aeabi_memcpy8
          356   7826: __rt_memcpy_w
          357   7840: _memcpy_lastbytes_aligned
          358   7866: __aeabi_memclr4
          359   7882: __aeabi_memclr8
          360   7898: __rt_memclr_w
          361   7912: _memset_w
          362   7922: __use_two_region_memory
          363   7946: __rt_heap_escrow$2region
          364   7971: __rt_heap_expand$2region
          365   7996: __user_setup_stackheap
          366   8019: exit
          367   8024: __user_libspace
          368   8040: __user_perproc_libspace
          369   8064: __user_perthread_libspace
          370   8090: _sys_exit
          371   8100: __I$use$semihosting
          372   8120: __use_no_semihosting_swi
          373   8145: __semihosting_library_function
          374   8176: am_bsp_itm_printf_enable
          375   8201: am_bsp_low_power_init
          376   8223: am_bsp_mspi_pins_enable
          377   8247: am_devices_mspi_atxp032_deinit
          378   8278: am_devices_mspi_atxp032_disable_xip
          379   8314: am_devices_mspi_atxp032_enable_scrambling
          380   8356: am_devices_mspi_atxp032_enable_xip
          381   8391: am_devices_mspi_atxp032_init
          382   8420: am_devices_mspi_atxp032_read
          383   8449: am_devices_mspi_atxp032_reset
          384   8479: am_devices_mspi_atxp032_sector_erase
          385   8516: am_devices_mspi_atxp032_write
          386   8546: am_hal_cachectrl_control
          387   8571: am_hal_clkgen_control
          388   8593: am_hal_clkgen_status_get
          389   8618: am_hal_cmdq_alloc_block
          390   8642: am_hal_cmdq_disable
          391   8662: am_hal_cmdq_enable
          392   8681: am_hal_cmdq_init
          393   8698: am_hal_cmdq_post_block
          394   8721: am_hal_cmdq_post_loop_block
          395   8749: am_hal_cmdq_release_block
          396   8775: am_hal_cmdq_reset
          397   8793: am_hal_cmdq_term
          398   8810: am_hal_flash_delay
          399   8829: am_hal_flash_delay_status_check
          400   8861: am_hal_flash_load_ui32
          401   8884: am_hal_flash_store_ui32
          402   8908: am_hal_gpio_pinconfig
          403   8930: am_hal_gpio_state_write
          404   8954: am_hal_itm_enable
          405   8972: am_hal_itm_print
          406   8989: am_hal_mcuctrl_control
          407   9012: am_hal_mcuctrl_info_get
          408   9036: am_hal_mspi_blocking_transfer
          409   9066: am_hal_mspi_control
          410   9086: am_hal_mspi_deinitialize
          411   9111: am_hal_mspi_device_configure
          412   9140: am_hal_mspi_disable
          413   9160: am_hal_mspi_enable
          414   9179: am_hal_mspi_initialize
          415   9202: am_hal_mspi_interrupt_clear
          416   9230: am_hal_mspi_interrupt_disable
          417   9260: am_hal_mspi_interrupt_enable
          418   9289: am_hal_mspi_nonblocking_transfer
          419   9322: am_hal_mspi_power_control
          420   9348: am_hal_pwrctrl_low_power_init
          421   9378: am_hal_pwrctrl_periph_disable
          422   9408: am_hal_pwrctrl_periph_enable
          423   9437: am_hal_rtc_osc_disable
          424   9460: am_hal_sysctrl_sleep
          425   9481: am_hal_tpiu_enable
          426   9500: am_util_delay_ms
          427   9517: am_util_delay_us
          428   9534: am_util_faultisr_collect_data
          429   9564: am_util_stdio_printf
          430   9585: am_util_stdio_printf_init
          431   9611: am_util_stdio_terminal_clear
          432   9640: am_util_stdio_vsprintf
          433   9663: build_dma_cmdlist
          434   9681: main
          435   9686: __aeabi_d2f
          436   9698: _d2f
          437   9703: __fpl_dnaninf
          438   9717: _fp_init
          439   9726: __fplib_config_fpu_vfp
          440   9749: __fplib_config_pureend_doubles
          441   9780: __fpl_fretinf
          442   9794: __I$use$fp
          443   9805: MSPI_Flash_Config
          444   9823: g_am_hal_mcuctrl_flash_size
          445   9851: g_am_hal_mcuctrl_sram_size
          446   9878: g_AM_HAL_GPIO_DISABLE
          447   9900: g_AM_HAL_GPIO_OUTPUT
          448   9921: am_hal_pwrctrl_peripheral_control
          449   9955: am_hal_pwrctrl_memory_control
          450   9985: g_AM_BSP_GPIO_MSPI_CE0
          451  10008: g_AM_BSP_GPIO_MSPI_CE1
          452  10031: g_AM_BSP_GPIO_MSPI_D0
          453  10053: g_AM_BSP_GPIO_MSPI_D1
          454  10075: g_AM_BSP_GPIO_MSPI_D2
          455  10097: g_AM_BSP_GPIO_MSPI_D3
          456  10119: g_AM_BSP_GPIO_MSPI_D4
          457  10141: g_AM_BSP_GPIO_MSPI_D5
          458  10163: g_AM_BSP_GPIO_MSPI_D6
          459  10185: g_AM_BSP_GPIO_MSPI_D7
          460  10207: g_AM_BSP_GPIO_MSPI_SCK
          461  10230: g_AM_BSP_GPIO_ITM_SWO
          462  10252: Region$$Table$$Base
          463  10272: Region$$Table$$Limit
          464  10293: g_MSPIHdl
          465  10303: g_FlashHdl
          466  10314: g_pfnCharPrint
          467  10329: MSPI_ATXP032_Serial_CE0_MSPIConfig
          468  10364: MSPI_ATXP032_Serial_CE1_MSPIConfig
          469  10399: MSPI_ATXP032_Quad_CE0_MSPIConfig
          470  10432: MSPI_ATXP032_Quad_CE1_MSPIConfig
          471  10465: MSPI_ATXP032_Octal_CE0_MSPIConfig
          472  10499: MSPI_ATXP032_Octal_CE1_MSPIConfig
          473  10533: g_ATXP032_DevConfig
          474  10553: g_ui32HALflags
          475  10568: am_bsp_psLEDs
          476  10582: gAmHalResetStatus
          477  10600: DMATCBBuffer
          478  10613: TestBuffer
          479  10624: DummyBuffer
          480  10636: g_SectorTXBuffer
          481  10653: g_SectorRXBuffer
          482  10670: gAmAtxp032
          483  10681: g_MSPIState
          484  10693: __libspace_start
          485  10710: __temporary_stack_top$libspace
          486  10741: 
          487  10742: 
          488  10743: 


** Section #13 '.note' (SHT_NOTE)
    Size   : 28 bytes (alignment 4)


** Section #14 '.comment' (SHT_PROGBITS)
    Size   : 28904 bytes


** Section #15 '.shstrtab' (SHT_STRTAB)
    Size   : 148 bytes

            #  Offset String
        ====================================

            1      1: FLASH
            2      7: SRAM
            3     12: .debug_abbrev
            4     26: .debug_frame
            5     39: .debug_info
            6     51: .debug_line
            7     63: .debug_loc
            8     74: .debug_macinfo
            9     89: .debug_pubnames
           10    105: .symtab
           11    113: .strtab
           12    121: .note
           13    127: .comment
           14    136: .shstrtab
           15    146: 
           16    147: 


