
========================================================================

** ELF Header Information

    File Name: bin\ios_lram_host.axf

    Machine class: ELFCLASS32 (32-bit)
    Data encoding: ELFDATA2LSB (Little endian)
    Header version: EV_CURRENT (Current version)
    Operating System ABI: none
    ABI Version: 0
    File Type: ET_EXEC (Executable) (2)
    Machine: EM_ARM (ARM)

    Image Entry point: 0x0000c139
    Flags: EF_ARM_HASENTRY + EF_ARM_ABI_FLOAT_HARD (0x05000402)

    ARM ELF revision: 5 (ABI version 2)

    Conforms to Hard float procedure-call standard

    Built with
    Component: ARM Compiler 5.06 update 5 (build 528) Tool: armasm [4d35e1]
    Component: ARM Compiler 5.06 update 5 (build 528) Tool: armlink [4d35e2]

    Header size: 52 bytes (0x34)
    Program header entry size: 32 bytes (0x20)
    Section header entry size: 40 bytes (0x28)

    Program header entries: 1
    Section header entries: 16

    Program header offset: 586752 (0x0008f400)
    Section header offset: 586784 (0x0008f420)

    Section header string table index: 15

========================================================================

** Program header #0 (PT_LOAD) [PF_X + PF_W + PF_R + PF_ARM_ENTRY]
    Size : 48476 bytes (23868 bytes in file)
    Virtual address: 0x0000c000 (Alignment 8)


========================================================================

** Section #1 'FLASH' (SHT_PROGBITS) [SHF_ALLOC + SHF_EXECINSTR]
    Size   : 23708 bytes (alignment 4)
    Address: 0x0000c000

    $d
    RESET
    __Vectors
        0x0000c000:    100060c0    .`..    DCD    268460224
        0x0000c004:    0000c101    ....    DCD    49409
        0x0000c008:    0000c11f    ....    DCD    49439
        0x0000c00c:    0000c11d    ....    DCD    49437
        0x0000c010:    0000c121    !...    DCD    49441
        0x0000c014:    0000c123    #...    DCD    49443
        0x0000c018:    0000c125    %...    DCD    49445
        0x0000c01c:    0000c127    '...    DCD    49447
        0x0000c020:    00000000    ....    DCD    0
        0x0000c024:    00000000    ....    DCD    0
        0x0000c028:    00000000    ....    DCD    0
        0x0000c02c:    0000c129    )...    DCD    49449
        0x0000c030:    0000c12b    +...    DCD    49451
        0x0000c034:    00000000    ....    DCD    0
        0x0000c038:    0000c12d    -...    DCD    49453
        0x0000c03c:    0000c12f    /...    DCD    49455
        0x0000c040:    0000c131    1...    DCD    49457
        0x0000c044:    0000c131    1...    DCD    49457
        0x0000c048:    0000c131    1...    DCD    49457
        0x0000c04c:    0000c131    1...    DCD    49457
        0x0000c050:    0000c131    1...    DCD    49457
        0x0000c054:    0000c131    1...    DCD    49457
        0x0000c058:    0000e771    q...    DCD    59249
        0x0000c05c:    0000c131    1...    DCD    49457
        0x0000c060:    0000c131    1...    DCD    49457
        0x0000c064:    0000c131    1...    DCD    49457
        0x0000c068:    0000c131    1...    DCD    49457
        0x0000c06c:    0000c131    1...    DCD    49457
        0x0000c070:    0000c131    1...    DCD    49457
        0x0000c074:    0000c825    %...    DCD    51237
        0x0000c078:    0000c131    1...    DCD    49457
        0x0000c07c:    0000c131    1...    DCD    49457
        0x0000c080:    0000c131    1...    DCD    49457
        0x0000c084:    0000c131    1...    DCD    49457
        0x0000c088:    0000c131    1...    DCD    49457
        0x0000c08c:    0000c131    1...    DCD    49457
        0x0000c090:    0000c131    1...    DCD    49457
        0x0000c094:    0000c131    1...    DCD    49457
        0x0000c098:    0000c131    1...    DCD    49457
        0x0000c09c:    0000c131    1...    DCD    49457
        0x0000c0a0:    0000c131    1...    DCD    49457
        0x0000c0a4:    0000c131    1...    DCD    49457
        0x0000c0a8:    0000c131    1...    DCD    49457
        0x0000c0ac:    0000c131    1...    DCD    49457
        0x0000c0b0:    0000c131    1...    DCD    49457
        0x0000c0b4:    0000c131    1...    DCD    49457
        0x0000c0b8:    0000c131    1...    DCD    49457
        0x0000c0bc:    0000c131    1...    DCD    49457
    __Patchable
        0x0000c0c0:    00000000    ....    DCD    0
        0x0000c0c4:    00000000    ....    DCD    0
        0x0000c0c8:    00000000    ....    DCD    0
        0x0000c0cc:    00000000    ....    DCD    0
        0x0000c0d0:    00000000    ....    DCD    0
        0x0000c0d4:    00000000    ....    DCD    0
        0x0000c0d8:    00000000    ....    DCD    0
        0x0000c0dc:    00000000    ....    DCD    0
        0x0000c0e0:    00000000    ....    DCD    0
        0x0000c0e4:    00000000    ....    DCD    0
        0x0000c0e8:    00000000    ....    DCD    0
        0x0000c0ec:    00000000    ....    DCD    0
        0x0000c0f0:    00000000    ....    DCD    0
        0x0000c0f4:    00000000    ....    DCD    0
        0x0000c0f8:    00000000    ....    DCD    0
        0x0000c0fc:    00000000    ....    DCD    0
    $t
    $v0
    Reset_Handler
        0x0000c100:    f64e5088    N..P    MOV      r0,#0xed88
        0x0000c104:    f2ce0000    ....    MOVT     r0,#0xe000
        0x0000c108:    6801        .h      LDR      r1,[r0,#0]
        0x0000c10a:    f4410170    A.p.    ORR      r1,r1,#0xf00000
        0x0000c10e:    6001        .`      STR      r1,[r0,#0]
        0x0000c110:    f3bf8f4f    ..O.    DSB      
        0x0000c114:    f3bf8f6f    ..o.    ISB      
        0x0000c118:    4806        .H      LDR      r0,[pc,#24] ; [0xc134] = 0xc139
        0x0000c11a:    4700        .G      BX       r0
    HardFault_Handler
        0x0000c11c:    e7fe        ..      B        HardFault_Handler ; 0xc11c
    NMI_Handler
        0x0000c11e:    e7fe        ..      B        NMI_Handler ; 0xc11e
    MemManage_Handler
        0x0000c120:    e7fe        ..      B        MemManage_Handler ; 0xc120
    BusFault_Handler
        0x0000c122:    e7fe        ..      B        BusFault_Handler ; 0xc122
    UsageFault_Handler
        0x0000c124:    e7fe        ..      B        UsageFault_Handler ; 0xc124
    SecureFault_Handler
        0x0000c126:    e7fe        ..      B        SecureFault_Handler ; 0xc126
    SVC_Handler
        0x0000c128:    e7fe        ..      B        SVC_Handler ; 0xc128
    DebugMon_Handler
        0x0000c12a:    e7fe        ..      B        DebugMon_Handler ; 0xc12a
    PendSV_Handler
        0x0000c12c:    e7fe        ..      B        PendSV_Handler ; 0xc12c
    SysTick_Handler
        0x0000c12e:    e7fe        ..      B        SysTick_Handler ; 0xc12e
    am_adc_isr
    am_ble_isr
    am_brownout_isr
    am_clkgen_isr
    am_ctimer_isr
    am_iomaster1_isr
    am_iomaster2_isr
    am_iomaster3_isr
    am_iomaster4_isr
    am_iomaster5_isr
    am_ioslave_acc_isr
    am_ioslave_ios_isr
    am_mspi0_isr
    am_pdm0_isr
    am_rtc_isr
    am_scard_isr
    am_software0_isr
    am_stimer_cmpr0_isr
    am_stimer_cmpr1_isr
    am_stimer_cmpr2_isr
    am_stimer_cmpr3_isr
    am_stimer_cmpr4_isr
    am_stimer_cmpr5_isr
    am_stimer_cmpr6_isr
    am_stimer_cmpr7_isr
    am_stimer_isr
    am_uart0_isr
    am_uart1_isr
    am_uart_isr
    am_vcomp_isr
    am_watchdog_isr
        0x0000c130:    e7fe        ..      B        am_adc_isr ; 0xc130
    $d
        0x0000c132:    0000        ..      DCW    0
        0x0000c134:    0000c139    9...    DCD    49465
    $t
    !!!main
    __main
        0x0000c138:    f000f802    ....    BL       __scatterload ; 0xc140
        0x0000c13c:    f000f83c    ..<.    BL       __rt_entry ; 0xc1b8
    !!!scatter
    __scatterload
    __scatterload_rt2
    __scatterload_rt2_thumb_only
        0x0000c140:    a00a        ..      ADR      r0,{pc}+0x2c ; 0xc16c
        0x0000c142:    e8900c00    ....    LDM      r0,{r10,r11}
        0x0000c146:    4482        .D      ADD      r10,r10,r0
        0x0000c148:    4483        .D      ADD      r11,r11,r0
        0x0000c14a:    f1aa0701    ....    SUB      r7,r10,#1
    __scatterload_null
        0x0000c14e:    45da        .E      CMP      r10,r11
        0x0000c150:    d101        ..      BNE      0xc156 ; __scatterload_null + 8
        0x0000c152:    f000f831    ..1.    BL       __rt_entry ; 0xc1b8
        0x0000c156:    f2af0e09    ....    ADR      lr,{pc}-7 ; 0xc14f
        0x0000c15a:    e8ba000f    ....    LDM      r10!,{r0-r3}
        0x0000c15e:    f0130f01    ....    TST      r3,#1
        0x0000c162:    bf18        ..      IT       NE
        0x0000c164:    1afb        ..      SUBNE    r3,r7,r3
        0x0000c166:    f0430301    C...    ORR      r3,r3,#1
        0x0000c16a:    4718        .G      BX       r3
    $d
        0x0000c16c:    00005b10    .[..    DCD    23312
        0x0000c170:    00005b30    0[..    DCD    23344
    $t
    !!handler_copy
    __scatterload_copy
        0x0000c174:    3a10        .:      SUBS     r2,r2,#0x10
        0x0000c176:    bf24        $.      ITT      CS
        0x0000c178:    c878        x.      LDMCS    r0!,{r3-r6}
        0x0000c17a:    c178        x.      STMCS    r1!,{r3-r6}
        0x0000c17c:    d8fa        ..      BHI      __scatterload_copy ; 0xc174
        0x0000c17e:    0752        R.      LSLS     r2,r2,#29
        0x0000c180:    bf24        $.      ITT      CS
        0x0000c182:    c830        0.      LDMCS    r0!,{r4,r5}
        0x0000c184:    c130        0.      STMCS    r1!,{r4,r5}
        0x0000c186:    bf44        D.      ITT      MI
        0x0000c188:    6804        .h      LDRMI    r4,[r0,#0]
        0x0000c18a:    600c        .`      STRMI    r4,[r1,#0]
        0x0000c18c:    4770        pG      BX       lr
        0x0000c18e:    0000        ..      MOVS     r0,r0
    !!handler_zi
    __scatterload_zeroinit
        0x0000c190:    2300        .#      MOVS     r3,#0
        0x0000c192:    2400        .$      MOVS     r4,#0
        0x0000c194:    2500        .%      MOVS     r5,#0
        0x0000c196:    2600        .&      MOVS     r6,#0
        0x0000c198:    3a10        .:      SUBS     r2,r2,#0x10
        0x0000c19a:    bf28        (.      IT       CS
        0x0000c19c:    c178        x.      STMCS    r1!,{r3-r6}
        0x0000c19e:    d8fb        ..      BHI      0xc198 ; __scatterload_zeroinit + 8
        0x0000c1a0:    0752        R.      LSLS     r2,r2,#29
        0x0000c1a2:    bf28        (.      IT       CS
        0x0000c1a4:    c130        0.      STMCS    r1!,{r4,r5}
        0x0000c1a6:    bf48        H.      IT       MI
        0x0000c1a8:    600b        .`      STRMI    r3,[r1,#0]
        0x0000c1aa:    4770        pG      BX       lr
    .ARM.Collect$$libinit$$00000000
    __rt_lib_init
        0x0000c1ac:    b51f        ..      PUSH     {r0-r4,lr}
    .ARM.Collect$$libinit$$00000001
    __rt_lib_init_fp_1
        0x0000c1ae:    f003fbb6    ....    BL       _fp_init ; 0xf91e
    .ARM.Collect$$libinit$$00000004
    .ARM.Collect$$libinit$$0000000A
    .ARM.Collect$$libinit$$0000000C
    .ARM.Collect$$libinit$$0000000E
    .ARM.Collect$$libinit$$00000011
    .ARM.Collect$$libinit$$00000013
    .ARM.Collect$$libinit$$00000015
    .ARM.Collect$$libinit$$00000017
    .ARM.Collect$$libinit$$00000019
    .ARM.Collect$$libinit$$0000001B
    .ARM.Collect$$libinit$$0000001D
    .ARM.Collect$$libinit$$0000001F
    .ARM.Collect$$libinit$$00000021
    .ARM.Collect$$libinit$$00000023
    .ARM.Collect$$libinit$$00000025
    .ARM.Collect$$libinit$$0000002C
    .ARM.Collect$$libinit$$0000002E
    .ARM.Collect$$libinit$$00000030
    .ARM.Collect$$libinit$$00000032
    .ARM.Collect$$libinit$$00000033
    __rt_lib_init_alloca_1
    __rt_lib_init_argv_1
    __rt_lib_init_atexit_1
    __rt_lib_init_clock_1
    __rt_lib_init_cpp_1
    __rt_lib_init_exceptions_1
    __rt_lib_init_fp_trap_1
    __rt_lib_init_getenv_1
    __rt_lib_init_heap_1
    __rt_lib_init_lc_collate_1
    __rt_lib_init_lc_ctype_1
    __rt_lib_init_lc_monetary_1
    __rt_lib_init_lc_numeric_1
    __rt_lib_init_lc_time_1
    __rt_lib_init_preinit_1
    __rt_lib_init_rand_1
    __rt_lib_init_return
    __rt_lib_init_signal_1
    __rt_lib_init_stdio_1
    __rt_lib_init_user_alloc_1
        0x0000c1b2:    bd1f        ..      POP      {r0-r4,pc}
    .ARM.Collect$$libshutdown$$00000000
    __rt_lib_shutdown
        0x0000c1b4:    b510        ..      PUSH     {r4,lr}
    .ARM.Collect$$libshutdown$$00000002
    .ARM.Collect$$libshutdown$$00000004
    .ARM.Collect$$libshutdown$$00000007
    .ARM.Collect$$libshutdown$$0000000A
    .ARM.Collect$$libshutdown$$0000000C
    .ARM.Collect$$libshutdown$$0000000F
    .ARM.Collect$$libshutdown$$00000010
    __rt_lib_shutdown_cpp_1
    __rt_lib_shutdown_fp_trap_1
    __rt_lib_shutdown_heap_1
    __rt_lib_shutdown_return
    __rt_lib_shutdown_signal_1
    __rt_lib_shutdown_stdio_1
    __rt_lib_shutdown_user_alloc_1
        0x0000c1b6:    bd10        ..      POP      {r4,pc}
    .ARM.Collect$$rtentry$$00000000
    .ARM.Collect$$rtentry$$00000002
    .ARM.Collect$$rtentry$$00000004
    __rt_entry
    __rt_entry_presh_1
    __rt_entry_sh
        0x0000c1b8:    f000f8b3    ....    BL       __user_setup_stackheap ; 0xc322
        0x0000c1bc:    4611        .F      MOV      r1,r2
    .ARM.Collect$$rtentry$$00000009
    .ARM.Collect$$rtentry$$0000000A
    __rt_entry_li
    __rt_entry_postsh_1
        0x0000c1be:    f7fffff5    ....    BL       __rt_lib_init ; 0xc1ac
    .ARM.Collect$$rtentry$$0000000C
    .ARM.Collect$$rtentry$$0000000D
    __rt_entry_main
    __rt_entry_postli_1
        0x0000c1c2:    f003f809    ....    BL       main ; 0xf1d8
        0x0000c1c6:    f000f8d1    ....    BL       exit ; 0xc36c
    .ARM.Collect$$rtexit$$00000000
    __rt_exit
        0x0000c1ca:    b403        ..      PUSH     {r0,r1}
    .ARM.Collect$$rtexit$$00000002
    .ARM.Collect$$rtexit$$00000003
    __rt_exit_ls
    __rt_exit_prels_1
        0x0000c1cc:    f7fffff2    ....    BL       __rt_lib_shutdown ; 0xc1b4
    .ARM.Collect$$rtexit$$00000004
    __rt_exit_exit
        0x0000c1d0:    bc03        ..      POP      {r0,r1}
        0x0000c1d2:    f000f8d9    ....    BL       _sys_exit ; 0xc388
        0x0000c1d6:    0000        ..      MOVS     r0,r0
    .emb_text
    $v0
    am_hal_interrupt_master_enable
        0x0000c1d8:    f3ef8010    ....    MRS      r0,PRIMASK
        0x0000c1dc:    b662        b.      CPSIE    i
        0x0000c1de:    4770        pG      BX       lr
    am_hal_interrupt_master_disable
        0x0000c1e0:    f3ef8010    ....    MRS      r0,PRIMASK
        0x0000c1e4:    b672        r.      CPSID    i
        0x0000c1e6:    4770        pG      BX       lr
    am_hal_interrupt_master_set
        0x0000c1e8:    f3808810    ....    MSR      PRIMASK,r0
        0x0000c1ec:    4770        pG      BX       lr
        0x0000c1ee:    0000        ..      MOVS     r0,r0
    .text
    $v0
    __user_initial_stackheap
        0x0000c1f0:    4802        .H      LDR      r0,[pc,#8] ; [0xc1fc] = 0x100050c0
        0x0000c1f2:    4903        .I      LDR      r1,[pc,#12] ; [0xc200] = 0x100060c0
        0x0000c1f4:    4a01        .J      LDR      r2,[pc,#4] ; [0xc1fc] = 0x100050c0
        0x0000c1f6:    4b03        .K      LDR      r3,[pc,#12] ; [0xc204] = 0x100050c0
        0x0000c1f8:    4770        pG      BX       lr
    $d
        0x0000c1fa:    0000        ..      DCW    0
        0x0000c1fc:    100050c0    .P..    DCD    268456128
        0x0000c200:    100060c0    .`..    DCD    268460224
        0x0000c204:    100050c0    .P..    DCD    268456128
    $t
    .text
    __aeabi_llsr
    _ll_ushift_r
        0x0000c208:    f1b20320    .. .    SUBS     r3,r2,#0x20
        0x0000c20c:    d50a        ..      BPL      0xc224 ; __aeabi_llsr + 28
        0x0000c20e:    f1c20320    .. .    RSB      r3,r2,#0x20
        0x0000c212:    fa20f002     ...    LSR      r0,r0,r2
        0x0000c216:    fa01f303    ....    LSL      r3,r1,r3
        0x0000c21a:    fa21f102    !...    LSR      r1,r1,r2
        0x0000c21e:    ea400003    @...    ORR      r0,r0,r3
        0x0000c222:    4770        pG      BX       lr
        0x0000c224:    fa21f003    !...    LSR      r0,r1,r3
        0x0000c228:    f04f0100    O...    MOV      r1,#0
        0x0000c22c:    4770        pG      BX       lr
    .text
    __aeabi_memcpy
    __rt_memcpy
        0x0000c22e:    2a03        .*      CMP      r2,#3
        0x0000c230:    f2408030    @.0.    BLS.W    _memcpy_lastbytes ; 0xc294
        0x0000c234:    f0100c03    ....    ANDS     r12,r0,#3
        0x0000c238:    f0008015    ....    BEQ.W    0xc266 ; __aeabi_memcpy + 56
        0x0000c23c:    f8113b01    ...;    LDRB     r3,[r1],#1
        0x0000c240:    f1bc0f02    ....    CMP      r12,#2
        0x0000c244:    4462        bD      ADD      r2,r2,r12
        0x0000c246:    bf98        ..      IT       LS
        0x0000c248:    f811cb01    ....    LDRBLS   r12,[r1],#1
        0x0000c24c:    f8003b01    ...;    STRB     r3,[r0],#1
        0x0000c250:    bf38        8.      IT       CC
        0x0000c252:    f8113b01    ...;    LDRBCC   r3,[r1],#1
        0x0000c256:    f1a20204    ....    SUB      r2,r2,#4
        0x0000c25a:    bf98        ..      IT       LS
        0x0000c25c:    f800cb01    ....    STRBLS   r12,[r0],#1
        0x0000c260:    bf38        8.      IT       CC
        0x0000c262:    f8003b01    ...;    STRBCC   r3,[r0],#1
        0x0000c266:    f0110303    ....    ANDS     r3,r1,#3
        0x0000c26a:    f0008028    ..(.    BEQ.W    __aeabi_memcpy4 ; 0xc2be
        0x0000c26e:    3a08        .:      SUBS     r2,r2,#8
        0x0000c270:    f0c08008    ....    BCC.W    0xc284 ; __aeabi_memcpy + 86
        0x0000c274:    f8513b04    Q..;    LDR      r3,[r1],#4
        0x0000c278:    3a08        .:      SUBS     r2,r2,#8
        0x0000c27a:    f851cb04    Q...    LDR      r12,[r1],#4
        0x0000c27e:    e8a01008    ....    STM      r0!,{r3,r12}
        0x0000c282:    e7f5        ..      B        0xc270 ; __aeabi_memcpy + 66
        0x0000c284:    1d12        ..      ADDS     r2,r2,#4
        0x0000c286:    bf5c        \.      ITT      PL
        0x0000c288:    f8513b04    Q..;    LDRPL    r3,[r1],#4
        0x0000c28c:    f8403b04    @..;    STRPL    r3,[r0],#4
        0x0000c290:    f3af8000    ....    NOP.W    
    _memcpy_lastbytes
        0x0000c294:    07d2        ..      LSLS     r2,r2,#31
        0x0000c296:    bf24        $.      ITT      CS
        0x0000c298:    f8113b01    ...;    LDRBCS   r3,[r1],#1
        0x0000c29c:    f811cb01    ....    LDRBCS   r12,[r1],#1
        0x0000c2a0:    bf48        H.      IT       MI
        0x0000c2a2:    f8112b01    ...+    LDRBMI   r2,[r1],#1
        0x0000c2a6:    bf24        $.      ITT      CS
        0x0000c2a8:    f8003b01    ...;    STRBCS   r3,[r0],#1
        0x0000c2ac:    f800cb01    ....    STRBCS   r12,[r0],#1
        0x0000c2b0:    bf48        H.      IT       MI
        0x0000c2b2:    f8002b01    ...+    STRBMI   r2,[r0],#1
        0x0000c2b6:    4770        pG      BX       lr
    .text
    __use_two_region_memory
        0x0000c2b8:    4770        pG      BX       lr
    __rt_heap_escrow$2region
        0x0000c2ba:    4770        pG      BX       lr
    __rt_heap_expand$2region
        0x0000c2bc:    4770        pG      BX       lr
    .text
    __aeabi_memcpy4
    __aeabi_memcpy8
    __rt_memcpy_w
        0x0000c2be:    b510        ..      PUSH     {r4,lr}
        0x0000c2c0:    3a20         :      SUBS     r2,r2,#0x20
        0x0000c2c2:    f0c0800b    ....    BCC.W    0xc2dc ; __aeabi_memcpy4 + 30
        0x0000c2c6:    e8b15018    ...P    LDM      r1!,{r3,r4,r12,lr}
        0x0000c2ca:    3a20         :      SUBS     r2,r2,#0x20
        0x0000c2cc:    e8a05018    ...P    STM      r0!,{r3,r4,r12,lr}
        0x0000c2d0:    e8b15018    ...P    LDM      r1!,{r3,r4,r12,lr}
        0x0000c2d4:    e8a05018    ...P    STM      r0!,{r3,r4,r12,lr}
        0x0000c2d8:    f4bfaff5    ....    BCS.W    0xc2c6 ; __aeabi_memcpy4 + 8
        0x0000c2dc:    ea5f7c02    _..|    LSLS     r12,r2,#28
        0x0000c2e0:    bf24        $.      ITT      CS
        0x0000c2e2:    e8b15018    ...P    LDMCS    r1!,{r3,r4,r12,lr}
        0x0000c2e6:    e8a05018    ...P    STMCS    r0!,{r3,r4,r12,lr}
        0x0000c2ea:    bf44        D.      ITT      MI
        0x0000c2ec:    c918        ..      LDMMI    r1!,{r3,r4}
        0x0000c2ee:    c018        ..      STMMI    r0!,{r3,r4}
        0x0000c2f0:    e8bd4010    ...@    POP      {r4,lr}
        0x0000c2f4:    ea5f7c82    _..|    LSLS     r12,r2,#30
        0x0000c2f8:    bf24        $.      ITT      CS
        0x0000c2fa:    f8513b04    Q..;    LDRCS    r3,[r1],#4
        0x0000c2fe:    f8403b04    @..;    STRCS    r3,[r0],#4
        0x0000c302:    bf08        ..      IT       EQ
        0x0000c304:    4770        pG      BXEQ     lr
    _memcpy_lastbytes_aligned
        0x0000c306:    07d2        ..      LSLS     r2,r2,#31
        0x0000c308:    bf28        (.      IT       CS
        0x0000c30a:    f8313b02    1..;    LDRHCS   r3,[r1],#2
        0x0000c30e:    bf48        H.      IT       MI
        0x0000c310:    f8112b01    ...+    LDRBMI   r2,[r1],#1
        0x0000c314:    bf28        (.      IT       CS
        0x0000c316:    f8203b02     ..;    STRHCS   r3,[r0],#2
        0x0000c31a:    bf48        H.      IT       MI
        0x0000c31c:    f8002b01    ...+    STRBMI   r2,[r0],#1
        0x0000c320:    4770        pG      BX       lr
    .text
    __user_setup_stackheap
        0x0000c322:    4675        uF      MOV      r5,lr
        0x0000c324:    f000f82c    ..,.    BL       __user_libspace ; 0xc380
        0x0000c328:    46ae        .F      MOV      lr,r5
        0x0000c32a:    0005        ..      MOVS     r5,r0
        0x0000c32c:    4669        iF      MOV      r1,sp
        0x0000c32e:    4653        SF      MOV      r3,r10
        0x0000c330:    f0200007     ...    BIC      r0,r0,#7
        0x0000c334:    4685        .F      MOV      sp,r0
        0x0000c336:    b018        ..      ADD      sp,sp,#0x60
        0x0000c338:    b520         .      PUSH     {r5,lr}
        0x0000c33a:    f7ffff59    ..Y.    BL       __user_initial_stackheap ; 0xc1f0
        0x0000c33e:    e8bd4020    .. @    POP      {r5,lr}
        0x0000c342:    f04f0600    O...    MOV      r6,#0
        0x0000c346:    f04f0700    O...    MOV      r7,#0
        0x0000c34a:    f04f0800    O...    MOV      r8,#0
        0x0000c34e:    f04f0b00    O...    MOV      r11,#0
        0x0000c352:    f0210107    !...    BIC      r1,r1,#7
        0x0000c356:    46ac        .F      MOV      r12,r5
        0x0000c358:    e8ac09c0    ....    STM      r12!,{r6-r8,r11}
        0x0000c35c:    e8ac09c0    ....    STM      r12!,{r6-r8,r11}
        0x0000c360:    e8ac09c0    ....    STM      r12!,{r6-r8,r11}
        0x0000c364:    e8ac09c0    ....    STM      r12!,{r6-r8,r11}
        0x0000c368:    468d        .F      MOV      sp,r1
        0x0000c36a:    4770        pG      BX       lr
    .text
    exit
        0x0000c36c:    b510        ..      PUSH     {r4,lr}
        0x0000c36e:    4604        .F      MOV      r4,r0
        0x0000c370:    f3af8000    ....    NOP.W    
        0x0000c374:    4620         F      MOV      r0,r4
        0x0000c376:    e8bd4010    ...@    POP      {r4,lr}
        0x0000c37a:    f7ffbf26    ..&.    B.W      __rt_exit ; 0xc1ca
        0x0000c37e:    0000        ..      MOVS     r0,r0
    .text
    __user_libspace
    __user_perproc_libspace
    __user_perthread_libspace
        0x0000c380:    4800        .H      LDR      r0,[pc,#0] ; [0xc384] = 0x10005060
        0x0000c382:    4770        pG      BX       lr
    $d
        0x0000c384:    10005060    `P..    DCD    268456032
    $t
    .text
    _sys_exit
        0x0000c388:    4901        .I      LDR      r1,[pc,#4] ; [0xc390] = 0x20026
        0x0000c38a:    2018        .       MOVS     r0,#0x18
        0x0000c38c:    beab        ..      BKPT     #0xab
        0x0000c38e:    e7fe        ..      B        0xc38e ; _sys_exit + 6
    $d
        0x0000c390:    00020026    &...    DCD    131110
    $t
    .text
    __I$use$semihosting
    __use_no_semihosting_swi
        0x0000c394:    4770        pG      BX       lr
    i.__NVIC_EnableIRQ
    __NVIC_EnableIRQ
    .text
    __semihosting_library_function
        0x0000c396:    2800        .(      CMP      r0,#0
        0x0000c398:    db09        ..      BLT      0xc3ae ; __NVIC_EnableIRQ + 24
        0x0000c39a:    f000021f    ....    AND      r2,r0,#0x1f
        0x0000c39e:    2101        .!      MOVS     r1,#1
        0x0000c3a0:    4091        .@      LSLS     r1,r1,r2
        0x0000c3a2:    0942        B.      LSRS     r2,r0,#5
        0x0000c3a4:    0092        ..      LSLS     r2,r2,#2
        0x0000c3a6:    f10222e0    ..."    ADD      r2,r2,#0xe000e000
        0x0000c3aa:    f8c21100    ....    STR      r1,[r2,#0x100]
        0x0000c3ae:    4770        pG      BX       lr
    i.am_bsp_iom_pins_disable
    am_bsp_iom_pins_disable
        0x0000c3b0:    2806        .(      CMP      r0,#6
        0x0000c3b2:    bf28        (.      IT       CS
        0x0000c3b4:    4770        pG      BXCS     lr
        0x0000c3b6:    b510        ..      PUSH     {r4,lr}
        0x0000c3b8:    ea410080    A...    ORR      r0,r1,r0,LSL #2
        0x0000c3bc:    2816        .(      CMP      r0,#0x16
        0x0000c3be:    bf28        (.      IT       CS
        0x0000c3c0:    bd10        ..      POPCS    {r4,pc}
        0x0000c3c2:    e8dff000    ....    TBB      [pc,r0]
    $d
        0x0000c3c6:    7d0b        .}      DCW    32011
        0x0000c3c8:    881ebfbf    ....    DCD    2283716543
        0x0000c3cc:    9331bfbf    ..1.    DCD    2469511103
        0x0000c3d0:    9e44bfbf    ..D.    DCD    2655305663
        0x0000c3d4:    a957bfbf    ..W.    DCD    2841100223
        0x0000c3d8:    b46abfbf    ..j.    DCD    3026894783
    $t
        0x0000c3dc:    4c5a        ZL      LDR      r4,[pc,#360] ; [0xc548] = 0x11724
        0x0000c3de:    2005        .       MOVS     r0,#5
        0x0000c3e0:    6821        !h      LDR      r1,[r4,#0]
        0x0000c3e2:    f000ffb3    ....    BL       am_hal_gpio_pinconfig ; 0xd34c
        0x0000c3e6:    2006        .       MOVS     r0,#6
        0x0000c3e8:    6821        !h      LDR      r1,[r4,#0]
        0x0000c3ea:    f000ffaf    ....    BL       am_hal_gpio_pinconfig ; 0xd34c
        0x0000c3ee:    2007        .       MOVS     r0,#7
        0x0000c3f0:    6821        !h      LDR      r1,[r4,#0]
        0x0000c3f2:    f000ffab    ....    BL       am_hal_gpio_pinconfig ; 0xd34c
        0x0000c3f6:    6821        !h      LDR      r1,[r4,#0]
        0x0000c3f8:    e8bd4010    ...@    POP      {r4,lr}
        0x0000c3fc:    200b        .       MOVS     r0,#0xb
        0x0000c3fe:    f000bfa5    ....    B.W      am_hal_gpio_pinconfig ; 0xd34c
        0x0000c402:    4c51        QL      LDR      r4,[pc,#324] ; [0xc548] = 0x11724
        0x0000c404:    2008        .       MOVS     r0,#8
        0x0000c406:    6821        !h      LDR      r1,[r4,#0]
        0x0000c408:    f000ffa0    ....    BL       am_hal_gpio_pinconfig ; 0xd34c
        0x0000c40c:    2009        .       MOVS     r0,#9
        0x0000c40e:    6821        !h      LDR      r1,[r4,#0]
        0x0000c410:    f000ff9c    ....    BL       am_hal_gpio_pinconfig ; 0xd34c
        0x0000c414:    200a        .       MOVS     r0,#0xa
        0x0000c416:    6821        !h      LDR      r1,[r4,#0]
        0x0000c418:    f000ff98    ....    BL       am_hal_gpio_pinconfig ; 0xd34c
        0x0000c41c:    6821        !h      LDR      r1,[r4,#0]
        0x0000c41e:    e8bd4010    ...@    POP      {r4,lr}
        0x0000c422:    200e        .       MOVS     r0,#0xe
        0x0000c424:    f000bf92    ....    B.W      am_hal_gpio_pinconfig ; 0xd34c
        0x0000c428:    4c47        GL      LDR      r4,[pc,#284] ; [0xc548] = 0x11724
        0x0000c42a:    201b        .       MOVS     r0,#0x1b
        0x0000c42c:    6821        !h      LDR      r1,[r4,#0]
        0x0000c42e:    f000ff8d    ....    BL       am_hal_gpio_pinconfig ; 0xd34c
        0x0000c432:    2019        .       MOVS     r0,#0x19
        0x0000c434:    6821        !h      LDR      r1,[r4,#0]
        0x0000c436:    f000ff89    ....    BL       am_hal_gpio_pinconfig ; 0xd34c
        0x0000c43a:    201c        .       MOVS     r0,#0x1c
        0x0000c43c:    6821        !h      LDR      r1,[r4,#0]
        0x0000c43e:    f000ff85    ....    BL       am_hal_gpio_pinconfig ; 0xd34c
        0x0000c442:    6821        !h      LDR      r1,[r4,#0]
        0x0000c444:    e8bd4010    ...@    POP      {r4,lr}
        0x0000c448:    200f        .       MOVS     r0,#0xf
        0x0000c44a:    f000bf7f    ....    B.W      am_hal_gpio_pinconfig ; 0xd34c
        0x0000c44e:    4c3e        >L      LDR      r4,[pc,#248] ; [0xc548] = 0x11724
        0x0000c450:    202a        *       MOVS     r0,#0x2a
        0x0000c452:    6821        !h      LDR      r1,[r4,#0]
        0x0000c454:    f000ff7a    ..z.    BL       am_hal_gpio_pinconfig ; 0xd34c
        0x0000c458:    202b        +       MOVS     r0,#0x2b
        0x0000c45a:    6821        !h      LDR      r1,[r4,#0]
        0x0000c45c:    f000ff76    ..v.    BL       am_hal_gpio_pinconfig ; 0xd34c
        0x0000c460:    2026        &       MOVS     r0,#0x26
        0x0000c462:    6821        !h      LDR      r1,[r4,#0]
        0x0000c464:    f000ff72    ..r.    BL       am_hal_gpio_pinconfig ; 0xd34c
        0x0000c468:    6821        !h      LDR      r1,[r4,#0]
        0x0000c46a:    e8bd4010    ...@    POP      {r4,lr}
        0x0000c46e:    200c        .       MOVS     r0,#0xc
        0x0000c470:    f000bf6c    ..l.    B.W      am_hal_gpio_pinconfig ; 0xd34c
        0x0000c474:    4c34        4L      LDR      r4,[pc,#208] ; [0xc548] = 0x11724
        0x0000c476:    2027        '       MOVS     r0,#0x27
        0x0000c478:    6821        !h      LDR      r1,[r4,#0]
        0x0000c47a:    f000ff67    ..g.    BL       am_hal_gpio_pinconfig ; 0xd34c
        0x0000c47e:    2028        (       MOVS     r0,#0x28
        0x0000c480:    6821        !h      LDR      r1,[r4,#0]
        0x0000c482:    f000ff63    ..c.    BL       am_hal_gpio_pinconfig ; 0xd34c
        0x0000c486:    202c        ,       MOVS     r0,#0x2c
        0x0000c488:    6821        !h      LDR      r1,[r4,#0]
        0x0000c48a:    f000ff5f    .._.    BL       am_hal_gpio_pinconfig ; 0xd34c
        0x0000c48e:    6821        !h      LDR      r1,[r4,#0]
        0x0000c490:    e8bd4010    ...@    POP      {r4,lr}
        0x0000c494:    200d        .       MOVS     r0,#0xd
        0x0000c496:    f000bf59    ..Y.    B.W      am_hal_gpio_pinconfig ; 0xd34c
        0x0000c49a:    4c2b        +L      LDR      r4,[pc,#172] ; [0xc548] = 0x11724
        0x0000c49c:    2030        0       MOVS     r0,#0x30
        0x0000c49e:    6821        !h      LDR      r1,[r4,#0]
        0x0000c4a0:    f000ff54    ..T.    BL       am_hal_gpio_pinconfig ; 0xd34c
        0x0000c4a4:    2031        1       MOVS     r0,#0x31
        0x0000c4a6:    6821        !h      LDR      r1,[r4,#0]
        0x0000c4a8:    f000ff50    ..P.    BL       am_hal_gpio_pinconfig ; 0xd34c
        0x0000c4ac:    202f        /       MOVS     r0,#0x2f
        0x0000c4ae:    6821        !h      LDR      r1,[r4,#0]
        0x0000c4b0:    f000ff4c    ..L.    BL       am_hal_gpio_pinconfig ; 0xd34c
        0x0000c4b4:    6821        !h      LDR      r1,[r4,#0]
        0x0000c4b6:    e8bd4010    ...@    POP      {r4,lr}
        0x0000c4ba:    2010        .       MOVS     r0,#0x10
        0x0000c4bc:    f000bf46    ..F.    B.W      am_hal_gpio_pinconfig ; 0xd34c
        0x0000c4c0:    4c21        !L      LDR      r4,[pc,#132] ; [0xc548] = 0x11724
        0x0000c4c2:    2005        .       MOVS     r0,#5
        0x0000c4c4:    6821        !h      LDR      r1,[r4,#0]
        0x0000c4c6:    f000ff41    ..A.    BL       am_hal_gpio_pinconfig ; 0xd34c
        0x0000c4ca:    6821        !h      LDR      r1,[r4,#0]
        0x0000c4cc:    e8bd4010    ...@    POP      {r4,lr}
        0x0000c4d0:    2006        .       MOVS     r0,#6
        0x0000c4d2:    f000bf3b    ..;.    B.W      am_hal_gpio_pinconfig ; 0xd34c
        0x0000c4d6:    4c1c        .L      LDR      r4,[pc,#112] ; [0xc548] = 0x11724
        0x0000c4d8:    2008        .       MOVS     r0,#8
        0x0000c4da:    6821        !h      LDR      r1,[r4,#0]
        0x0000c4dc:    f000ff36    ..6.    BL       am_hal_gpio_pinconfig ; 0xd34c
        0x0000c4e0:    6821        !h      LDR      r1,[r4,#0]
        0x0000c4e2:    e8bd4010    ...@    POP      {r4,lr}
        0x0000c4e6:    2009        .       MOVS     r0,#9
        0x0000c4e8:    f000bf30    ..0.    B.W      am_hal_gpio_pinconfig ; 0xd34c
        0x0000c4ec:    4c16        .L      LDR      r4,[pc,#88] ; [0xc548] = 0x11724
        0x0000c4ee:    201b        .       MOVS     r0,#0x1b
        0x0000c4f0:    6821        !h      LDR      r1,[r4,#0]
        0x0000c4f2:    f000ff2b    ..+.    BL       am_hal_gpio_pinconfig ; 0xd34c
        0x0000c4f6:    6821        !h      LDR      r1,[r4,#0]
        0x0000c4f8:    e8bd4010    ...@    POP      {r4,lr}
        0x0000c4fc:    2019        .       MOVS     r0,#0x19
        0x0000c4fe:    f000bf25    ..%.    B.W      am_hal_gpio_pinconfig ; 0xd34c
        0x0000c502:    4c11        .L      LDR      r4,[pc,#68] ; [0xc548] = 0x11724
        0x0000c504:    202a        *       MOVS     r0,#0x2a
        0x0000c506:    6821        !h      LDR      r1,[r4,#0]
        0x0000c508:    f000ff20    .. .    BL       am_hal_gpio_pinconfig ; 0xd34c
        0x0000c50c:    6821        !h      LDR      r1,[r4,#0]
        0x0000c50e:    e8bd4010    ...@    POP      {r4,lr}
        0x0000c512:    202b        +       MOVS     r0,#0x2b
        0x0000c514:    f000bf1a    ....    B.W      am_hal_gpio_pinconfig ; 0xd34c
        0x0000c518:    4c0b        .L      LDR      r4,[pc,#44] ; [0xc548] = 0x11724
        0x0000c51a:    2027        '       MOVS     r0,#0x27
        0x0000c51c:    6821        !h      LDR      r1,[r4,#0]
        0x0000c51e:    f000ff15    ....    BL       am_hal_gpio_pinconfig ; 0xd34c
        0x0000c522:    6821        !h      LDR      r1,[r4,#0]
        0x0000c524:    e8bd4010    ...@    POP      {r4,lr}
        0x0000c528:    2028        (       MOVS     r0,#0x28
        0x0000c52a:    f000bf0f    ....    B.W      am_hal_gpio_pinconfig ; 0xd34c
        0x0000c52e:    4c06        .L      LDR      r4,[pc,#24] ; [0xc548] = 0x11724
        0x0000c530:    2030        0       MOVS     r0,#0x30
        0x0000c532:    6821        !h      LDR      r1,[r4,#0]
        0x0000c534:    f000ff0a    ....    BL       am_hal_gpio_pinconfig ; 0xd34c
        0x0000c538:    6821        !h      LDR      r1,[r4,#0]
        0x0000c53a:    e8bd4010    ...@    POP      {r4,lr}
        0x0000c53e:    2031        1       MOVS     r0,#0x31
        0x0000c540:    f000bf04    ....    B.W      am_hal_gpio_pinconfig ; 0xd34c
        0x0000c544:    bd10        ..      POP      {r4,pc}
    $d
        0x0000c546:    0000        ..      DCW    0
        0x0000c548:    00011724    $...    DCD    71460
    $t
    i.am_bsp_iom_pins_enable
    am_bsp_iom_pins_enable
        0x0000c54c:    2806        .(      CMP      r0,#6
        0x0000c54e:    bf28        (.      IT       CS
        0x0000c550:    4770        pG      BXCS     lr
        0x0000c552:    b510        ..      PUSH     {r4,lr}
        0x0000c554:    ea410080    A...    ORR      r0,r1,r0,LSL #2
        0x0000c558:    2816        .(      CMP      r0,#0x16
        0x0000c55a:    bf28        (.      IT       CS
        0x0000c55c:    bd10        ..      POPCS    {r4,pc}
        0x0000c55e:    e8dff000    ....    TBB      [pc,r0]
    $d
        0x0000c562:    8f0b        ..      DCW    36619
        0x0000c564:    9b21d7d7    ..!.    DCD    2602686423
        0x0000c568:    a737d7d7    ..7.    DCD    2805454807
        0x0000c56c:    b34dd7d7    ..M.    DCD    3008223191
        0x0000c570:    bf63d7d7    ..c.    DCD    3210991575
        0x0000c574:    cb79d7d7    ..y.    DCD    3413759959
    $t
        0x0000c578:    4866        fH      LDR      r0,[pc,#408] ; [0xc714] = 0x11bf4
        0x0000c57a:    6801        .h      LDR      r1,[r0,#0]
        0x0000c57c:    2005        .       MOVS     r0,#5
        0x0000c57e:    f000fee5    ....    BL       am_hal_gpio_pinconfig ; 0xd34c
        0x0000c582:    4865        eH      LDR      r0,[pc,#404] ; [0xc718] = 0x11bec
        0x0000c584:    6801        .h      LDR      r1,[r0,#0]
        0x0000c586:    2006        .       MOVS     r0,#6
        0x0000c588:    f000fee0    ....    BL       am_hal_gpio_pinconfig ; 0xd34c
        0x0000c58c:    4863        cH      LDR      r0,[pc,#396] ; [0xc71c] = 0x11bf0
        0x0000c58e:    6801        .h      LDR      r1,[r0,#0]
        0x0000c590:    2007        .       MOVS     r0,#7
        0x0000c592:    f000fedb    ....    BL       am_hal_gpio_pinconfig ; 0xd34c
        0x0000c596:    4862        bH      LDR      r0,[pc,#392] ; [0xc720] = 0x11be8
        0x0000c598:    6801        .h      LDR      r1,[r0,#0]
        0x0000c59a:    e8bd4010    ...@    POP      {r4,lr}
        0x0000c59e:    200b        .       MOVS     r0,#0xb
        0x0000c5a0:    f000bed4    ....    B.W      am_hal_gpio_pinconfig ; 0xd34c
        0x0000c5a4:    485f        _H      LDR      r0,[pc,#380] ; [0xc724] = 0x11c0c
        0x0000c5a6:    6801        .h      LDR      r1,[r0,#0]
        0x0000c5a8:    2008        .       MOVS     r0,#8
        0x0000c5aa:    f000fecf    ....    BL       am_hal_gpio_pinconfig ; 0xd34c
        0x0000c5ae:    485e        ^H      LDR      r0,[pc,#376] ; [0xc728] = 0x11c04
        0x0000c5b0:    6801        .h      LDR      r1,[r0,#0]
        0x0000c5b2:    2009        .       MOVS     r0,#9
        0x0000c5b4:    f000feca    ....    BL       am_hal_gpio_pinconfig ; 0xd34c
        0x0000c5b8:    485c        \H      LDR      r0,[pc,#368] ; [0xc72c] = 0x11c08
        0x0000c5ba:    6801        .h      LDR      r1,[r0,#0]
        0x0000c5bc:    200a        .       MOVS     r0,#0xa
        0x0000c5be:    f000fec5    ....    BL       am_hal_gpio_pinconfig ; 0xd34c
        0x0000c5c2:    485b        [H      LDR      r0,[pc,#364] ; [0xc730] = 0x11c00
        0x0000c5c4:    6801        .h      LDR      r1,[r0,#0]
        0x0000c5c6:    e8bd4010    ...@    POP      {r4,lr}
        0x0000c5ca:    200e        .       MOVS     r0,#0xe
        0x0000c5cc:    f000bebe    ....    B.W      am_hal_gpio_pinconfig ; 0xd34c
        0x0000c5d0:    4858        XH      LDR      r0,[pc,#352] ; [0xc734] = 0x11c24
        0x0000c5d2:    6801        .h      LDR      r1,[r0,#0]
        0x0000c5d4:    201b        .       MOVS     r0,#0x1b
        0x0000c5d6:    f000feb9    ....    BL       am_hal_gpio_pinconfig ; 0xd34c
        0x0000c5da:    4857        WH      LDR      r0,[pc,#348] ; [0xc738] = 0x11c1c
        0x0000c5dc:    6801        .h      LDR      r1,[r0,#0]
        0x0000c5de:    2019        .       MOVS     r0,#0x19
        0x0000c5e0:    f000feb4    ....    BL       am_hal_gpio_pinconfig ; 0xd34c
        0x0000c5e4:    4855        UH      LDR      r0,[pc,#340] ; [0xc73c] = 0x11c20
        0x0000c5e6:    6801        .h      LDR      r1,[r0,#0]
        0x0000c5e8:    201c        .       MOVS     r0,#0x1c
        0x0000c5ea:    f000feaf    ....    BL       am_hal_gpio_pinconfig ; 0xd34c
        0x0000c5ee:    4854        TH      LDR      r0,[pc,#336] ; [0xc740] = 0x11c18
        0x0000c5f0:    6801        .h      LDR      r1,[r0,#0]
        0x0000c5f2:    e8bd4010    ...@    POP      {r4,lr}
        0x0000c5f6:    200f        .       MOVS     r0,#0xf
        0x0000c5f8:    f000bea8    ....    B.W      am_hal_gpio_pinconfig ; 0xd34c
        0x0000c5fc:    4851        QH      LDR      r0,[pc,#324] ; [0xc744] = 0x11c3c
        0x0000c5fe:    6801        .h      LDR      r1,[r0,#0]
        0x0000c600:    202a        *       MOVS     r0,#0x2a
        0x0000c602:    f000fea3    ....    BL       am_hal_gpio_pinconfig ; 0xd34c
        0x0000c606:    4850        PH      LDR      r0,[pc,#320] ; [0xc748] = 0x11c34
        0x0000c608:    6801        .h      LDR      r1,[r0,#0]
        0x0000c60a:    202b        +       MOVS     r0,#0x2b
        0x0000c60c:    f000fe9e    ....    BL       am_hal_gpio_pinconfig ; 0xd34c
        0x0000c610:    484e        NH      LDR      r0,[pc,#312] ; [0xc74c] = 0x11c38
        0x0000c612:    6801        .h      LDR      r1,[r0,#0]
        0x0000c614:    2026        &       MOVS     r0,#0x26
        0x0000c616:    f000fe99    ....    BL       am_hal_gpio_pinconfig ; 0xd34c
        0x0000c61a:    484d        MH      LDR      r0,[pc,#308] ; [0xc750] = 0x11c30
        0x0000c61c:    6801        .h      LDR      r1,[r0,#0]
        0x0000c61e:    e8bd4010    ...@    POP      {r4,lr}
        0x0000c622:    200c        .       MOVS     r0,#0xc
        0x0000c624:    f000be92    ....    B.W      am_hal_gpio_pinconfig ; 0xd34c
        0x0000c628:    484a        JH      LDR      r0,[pc,#296] ; [0xc754] = 0x11c54
        0x0000c62a:    6801        .h      LDR      r1,[r0,#0]
        0x0000c62c:    2027        '       MOVS     r0,#0x27
        0x0000c62e:    f000fe8d    ....    BL       am_hal_gpio_pinconfig ; 0xd34c
        0x0000c632:    4849        IH      LDR      r0,[pc,#292] ; [0xc758] = 0x11c4c
        0x0000c634:    6801        .h      LDR      r1,[r0,#0]
        0x0000c636:    2028        (       MOVS     r0,#0x28
        0x0000c638:    f000fe88    ....    BL       am_hal_gpio_pinconfig ; 0xd34c
        0x0000c63c:    4847        GH      LDR      r0,[pc,#284] ; [0xc75c] = 0x11c50
        0x0000c63e:    6801        .h      LDR      r1,[r0,#0]
        0x0000c640:    202c        ,       MOVS     r0,#0x2c
        0x0000c642:    f000fe83    ....    BL       am_hal_gpio_pinconfig ; 0xd34c
        0x0000c646:    4846        FH      LDR      r0,[pc,#280] ; [0xc760] = 0x11c48
        0x0000c648:    6801        .h      LDR      r1,[r0,#0]
        0x0000c64a:    e8bd4010    ...@    POP      {r4,lr}
        0x0000c64e:    200d        .       MOVS     r0,#0xd
        0x0000c650:    f000be7c    ..|.    B.W      am_hal_gpio_pinconfig ; 0xd34c
        0x0000c654:    4843        CH      LDR      r0,[pc,#268] ; [0xc764] = 0x11c6c
        0x0000c656:    6801        .h      LDR      r1,[r0,#0]
        0x0000c658:    2030        0       MOVS     r0,#0x30
        0x0000c65a:    f000fe77    ..w.    BL       am_hal_gpio_pinconfig ; 0xd34c
        0x0000c65e:    4842        BH      LDR      r0,[pc,#264] ; [0xc768] = 0x11c64
        0x0000c660:    6801        .h      LDR      r1,[r0,#0]
        0x0000c662:    2031        1       MOVS     r0,#0x31
        0x0000c664:    f000fe72    ..r.    BL       am_hal_gpio_pinconfig ; 0xd34c
        0x0000c668:    4840        @H      LDR      r0,[pc,#256] ; [0xc76c] = 0x11c68
        0x0000c66a:    6801        .h      LDR      r1,[r0,#0]
        0x0000c66c:    202f        /       MOVS     r0,#0x2f
        0x0000c66e:    f000fe6d    ..m.    BL       am_hal_gpio_pinconfig ; 0xd34c
        0x0000c672:    483f        ?H      LDR      r0,[pc,#252] ; [0xc770] = 0x11c60
        0x0000c674:    6801        .h      LDR      r1,[r0,#0]
        0x0000c676:    e8bd4010    ...@    POP      {r4,lr}
        0x0000c67a:    2010        .       MOVS     r0,#0x10
        0x0000c67c:    f000be66    ..f.    B.W      am_hal_gpio_pinconfig ; 0xd34c
        0x0000c680:    483c        <H      LDR      r0,[pc,#240] ; [0xc774] = 0x11bf8
        0x0000c682:    6801        .h      LDR      r1,[r0,#0]
        0x0000c684:    2005        .       MOVS     r0,#5
        0x0000c686:    f000fe61    ..a.    BL       am_hal_gpio_pinconfig ; 0xd34c
        0x0000c68a:    483b        ;H      LDR      r0,[pc,#236] ; [0xc778] = 0x11bfc
        0x0000c68c:    6801        .h      LDR      r1,[r0,#0]
        0x0000c68e:    e8bd4010    ...@    POP      {r4,lr}
        0x0000c692:    2006        .       MOVS     r0,#6
        0x0000c694:    f000be5a    ..Z.    B.W      am_hal_gpio_pinconfig ; 0xd34c
        0x0000c698:    4838        8H      LDR      r0,[pc,#224] ; [0xc77c] = 0x11c10
        0x0000c69a:    6801        .h      LDR      r1,[r0,#0]
        0x0000c69c:    2008        .       MOVS     r0,#8
        0x0000c69e:    f000fe55    ..U.    BL       am_hal_gpio_pinconfig ; 0xd34c
        0x0000c6a2:    4837        7H      LDR      r0,[pc,#220] ; [0xc780] = 0x11c14
        0x0000c6a4:    6801        .h      LDR      r1,[r0,#0]
        0x0000c6a6:    e8bd4010    ...@    POP      {r4,lr}
        0x0000c6aa:    2009        .       MOVS     r0,#9
        0x0000c6ac:    f000be4e    ..N.    B.W      am_hal_gpio_pinconfig ; 0xd34c
        0x0000c6b0:    4834        4H      LDR      r0,[pc,#208] ; [0xc784] = 0x11c28
        0x0000c6b2:    6801        .h      LDR      r1,[r0,#0]
        0x0000c6b4:    201b        .       MOVS     r0,#0x1b
        0x0000c6b6:    f000fe49    ..I.    BL       am_hal_gpio_pinconfig ; 0xd34c
        0x0000c6ba:    4833        3H      LDR      r0,[pc,#204] ; [0xc788] = 0x11c2c
        0x0000c6bc:    6801        .h      LDR      r1,[r0,#0]
        0x0000c6be:    e8bd4010    ...@    POP      {r4,lr}
        0x0000c6c2:    2019        .       MOVS     r0,#0x19
        0x0000c6c4:    f000be42    ..B.    B.W      am_hal_gpio_pinconfig ; 0xd34c
        0x0000c6c8:    4830        0H      LDR      r0,[pc,#192] ; [0xc78c] = 0x11c40
        0x0000c6ca:    6801        .h      LDR      r1,[r0,#0]
        0x0000c6cc:    202a        *       MOVS     r0,#0x2a
        0x0000c6ce:    f000fe3d    ..=.    BL       am_hal_gpio_pinconfig ; 0xd34c
        0x0000c6d2:    482f        /H      LDR      r0,[pc,#188] ; [0xc790] = 0x11c44
        0x0000c6d4:    6801        .h      LDR      r1,[r0,#0]
        0x0000c6d6:    e8bd4010    ...@    POP      {r4,lr}
        0x0000c6da:    202b        +       MOVS     r0,#0x2b
        0x0000c6dc:    f000be36    ..6.    B.W      am_hal_gpio_pinconfig ; 0xd34c
        0x0000c6e0:    482c        ,H      LDR      r0,[pc,#176] ; [0xc794] = 0x11c58
        0x0000c6e2:    6801        .h      LDR      r1,[r0,#0]
        0x0000c6e4:    2027        '       MOVS     r0,#0x27
        0x0000c6e6:    f000fe31    ..1.    BL       am_hal_gpio_pinconfig ; 0xd34c
        0x0000c6ea:    482b        +H      LDR      r0,[pc,#172] ; [0xc798] = 0x11c5c
        0x0000c6ec:    6801        .h      LDR      r1,[r0,#0]
        0x0000c6ee:    e8bd4010    ...@    POP      {r4,lr}
        0x0000c6f2:    2028        (       MOVS     r0,#0x28
        0x0000c6f4:    f000be2a    ..*.    B.W      am_hal_gpio_pinconfig ; 0xd34c
        0x0000c6f8:    4828        (H      LDR      r0,[pc,#160] ; [0xc79c] = 0x11c70
        0x0000c6fa:    6801        .h      LDR      r1,[r0,#0]
        0x0000c6fc:    2030        0       MOVS     r0,#0x30
        0x0000c6fe:    f000fe25    ..%.    BL       am_hal_gpio_pinconfig ; 0xd34c
        0x0000c702:    4827        'H      LDR      r0,[pc,#156] ; [0xc7a0] = 0x11c74
        0x0000c704:    6801        .h      LDR      r1,[r0,#0]
        0x0000c706:    e8bd4010    ...@    POP      {r4,lr}
        0x0000c70a:    2031        1       MOVS     r0,#0x31
        0x0000c70c:    f000be1e    ....    B.W      am_hal_gpio_pinconfig ; 0xd34c
        0x0000c710:    bd10        ..      POP      {r4,pc}
    $d
        0x0000c712:    0000        ..      DCW    0
        0x0000c714:    00011bf4    ....    DCD    72692
        0x0000c718:    00011bec    ....    DCD    72684
        0x0000c71c:    00011bf0    ....    DCD    72688
        0x0000c720:    00011be8    ....    DCD    72680
        0x0000c724:    00011c0c    ....    DCD    72716
        0x0000c728:    00011c04    ....    DCD    72708
        0x0000c72c:    00011c08    ....    DCD    72712
        0x0000c730:    00011c00    ....    DCD    72704
        0x0000c734:    00011c24    $...    DCD    72740
        0x0000c738:    00011c1c    ....    DCD    72732
        0x0000c73c:    00011c20     ...    DCD    72736
        0x0000c740:    00011c18    ....    DCD    72728
        0x0000c744:    00011c3c    <...    DCD    72764
        0x0000c748:    00011c34    4...    DCD    72756
        0x0000c74c:    00011c38    8...    DCD    72760
        0x0000c750:    00011c30    0...    DCD    72752
        0x0000c754:    00011c54    T...    DCD    72788
        0x0000c758:    00011c4c    L...    DCD    72780
        0x0000c75c:    00011c50    P...    DCD    72784
        0x0000c760:    00011c48    H...    DCD    72776
        0x0000c764:    00011c6c    l...    DCD    72812
        0x0000c768:    00011c64    d...    DCD    72804
        0x0000c76c:    00011c68    h...    DCD    72808
        0x0000c770:    00011c60    `...    DCD    72800
        0x0000c774:    00011bf8    ....    DCD    72696
        0x0000c778:    00011bfc    ....    DCD    72700
        0x0000c77c:    00011c10    ....    DCD    72720
        0x0000c780:    00011c14    ....    DCD    72724
        0x0000c784:    00011c28    (...    DCD    72744
        0x0000c788:    00011c2c    ,...    DCD    72748
        0x0000c78c:    00011c40    @...    DCD    72768
        0x0000c790:    00011c44    D...    DCD    72772
        0x0000c794:    00011c58    X...    DCD    72792
        0x0000c798:    00011c5c    \...    DCD    72796
        0x0000c79c:    00011c70    p...    DCD    72816
        0x0000c7a0:    00011c74    t...    DCD    72820
    $t
    i.am_bsp_itm_printf_enable
    am_bsp_itm_printf_enable
        0x0000c7a4:    b500        ..      PUSH     {lr}
        0x0000c7a6:    490a        .I      LDR      r1,[pc,#40] ; [0xc7d0] = 0x10000044
        0x0000c7a8:    b085        ..      SUB      sp,sp,#0x14
        0x0000c7aa:    2001        .       MOVS     r0,#1
        0x0000c7ac:    6008        .`      STR      r0,[r1,#0]
        0x0000c7ae:    f001fe49    ..I.    BL       am_hal_itm_enable ; 0xe444
        0x0000c7b2:    4808        .H      LDR      r0,[pc,#32] ; [0xc7d4] = 0xf4240
        0x0000c7b4:    9000        ..      STR      r0,[sp,#0]
        0x0000c7b6:    4668        hF      MOV      r0,sp
        0x0000c7b8:    f001ff92    ....    BL       am_hal_tpiu_enable ; 0xe6e0
        0x0000c7bc:    4806        .H      LDR      r0,[pc,#24] ; [0xc7d8] = 0x11c78
        0x0000c7be:    6801        .h      LDR      r1,[r0,#0]
        0x0000c7c0:    2029        )       MOVS     r0,#0x29
        0x0000c7c2:    f000fdc3    ....    BL       am_hal_gpio_pinconfig ; 0xd34c
        0x0000c7c6:    4805        .H      LDR      r0,[pc,#20] ; [0xc7dc] = 0xe48d
        0x0000c7c8:    f002f82a    ..*.    BL       am_util_stdio_printf_init ; 0xe820
        0x0000c7cc:    b005        ..      ADD      sp,sp,#0x14
        0x0000c7ce:    bd00        ..      POP      {pc}
    $d
        0x0000c7d0:    10000044    D...    DCD    268435524
        0x0000c7d4:    000f4240    @B..    DCD    1000000
        0x0000c7d8:    00011c78    x...    DCD    72824
        0x0000c7dc:    0000e48d    ....    DCD    58509
    $t
    i.am_bsp_low_power_init
    am_bsp_low_power_init
        0x0000c7e0:    e92d41f0    -..A    PUSH     {r4-r8,lr}
        0x0000c7e4:    f001fe6a    ..j.    BL       am_hal_pwrctrl_low_power_init ; 0xe4bc
        0x0000c7e8:    f001ff3a    ..:.    BL       am_hal_rtc_osc_disable ; 0xe660
        0x0000c7ec:    4f0b        .O      LDR      r7,[pc,#44] ; [0xc81c] = 0x1000004c
        0x0000c7ee:    4e0c        .N      LDR      r6,[pc,#48] ; [0xc820] = 0x11888
        0x0000c7f0:    2400        .$      MOVS     r4,#0
        0x0000c7f2:    bf00        ..      NOP      
        0x0000c7f4:    f8575034    W.4P    LDR      r5,[r7,r4,LSL #3]
        0x0000c7f8:    6831        1h      LDR      r1,[r6,#0]
        0x0000c7fa:    4628        (F      MOV      r0,r5
        0x0000c7fc:    f000fda6    ....    BL       am_hal_gpio_pinconfig ; 0xd34c
        0x0000c800:    2103        .!      MOVS     r1,#3
        0x0000c802:    4628        (F      MOV      r0,r5
        0x0000c804:    f000fee2    ....    BL       am_hal_gpio_state_write ; 0xd5cc
        0x0000c808:    2100        .!      MOVS     r1,#0
        0x0000c80a:    4628        (F      MOV      r0,r5
        0x0000c80c:    f000fede    ....    BL       am_hal_gpio_state_write ; 0xd5cc
        0x0000c810:    1c64        d.      ADDS     r4,r4,#1
        0x0000c812:    2c05        .,      CMP      r4,#5
        0x0000c814:    d3ee        ..      BCC      0xc7f4 ; am_bsp_low_power_init + 20
        0x0000c816:    e8bd81f0    ....    POP      {r4-r8,pc}
    $d
        0x0000c81a:    0000        ..      DCW    0
        0x0000c81c:    1000004c    L...    DCD    268435532
        0x0000c820:    00011888    ....    DCD    71816
    $t
    i.am_gpio_isr
    am_gpio_isr
        0x0000c824:    b51c        ..      PUSH     {r2-r4,lr}
        0x0000c826:    4669        iF      MOV      r1,sp
        0x0000c828:    2000        .       MOVS     r0,#0
        0x0000c82a:    f000fd65    ..e.    BL       am_hal_gpio_interrupt_status_get ; 0xd2f8
        0x0000c82e:    e9dd0100    ....    LDRD     r0,r1,[sp,#0]
        0x0000c832:    f000fcbb    ....    BL       am_hal_gpio_interrupt_clear ; 0xd1ac
        0x0000c836:    e9dd0100    ....    LDRD     r0,r1,[sp,#0]
        0x0000c83a:    f000fd21    ..!.    BL       am_hal_gpio_interrupt_service ; 0xd280
        0x0000c83e:    bd1c        ..      POP      {r2-r4,pc}
    i.am_hal_cachectrl_config
    am_hal_cachectrl_config
        0x0000c840:    b538        8.      PUSH     {r3-r5,lr}
        0x0000c842:    4604        .F      MOV      r4,r0
        0x0000c844:    f7fffccc    ....    BL       am_hal_interrupt_master_disable ; 0xc1e0
        0x0000c848:    4d0f        .M      LDR      r5,[pc,#60] ; [0xc888] = 0x40018000
        0x0000c84a:    9000        ..      STR      r0,[sp,#0]
        0x0000c84c:    6828        (h      LDR      r0,[r5,#0]
        0x0000c84e:    f4207040     .@p    BIC      r0,r0,#0x300
        0x0000c852:    6028        (`      STR      r0,[r5,#0]
        0x0000c854:    9800        ..      LDR      r0,[sp,#0]
        0x0000c856:    f7fffcc7    ....    BL       am_hal_interrupt_master_set ; 0xc1e8
        0x0000c85a:    78a0        .x      LDRB     r0,[r4,#2]
        0x0000c85c:    2102        .!      MOVS     r1,#2
        0x0000c85e:    ea010040    ..@.    AND      r0,r1,r0,LSL #1
        0x0000c862:    7821        !x      LDRB     r1,[r4,#0]
        0x0000c864:    22f0        ."      MOVS     r2,#0xf0
        0x0000c866:    ea021101    ....    AND      r1,r2,r1,LSL #4
        0x0000c86a:    4308        .C      ORRS     r0,r0,r1
        0x0000c86c:    7861        ax      LDRB     r1,[r4,#1]
        0x0000c86e:    f44f7240    O.@r    MOV      r2,#0x300
        0x0000c872:    ea022101    ...!    AND      r1,r2,r1,LSL #8
        0x0000c876:    4308        .C      ORRS     r0,r0,r1
        0x0000c878:    f4406080    @..`    ORR      r0,r0,#0x400
        0x0000c87c:    f4401080    @...    ORR      r0,r0,#0x100000
        0x0000c880:    6028        (`      STR      r0,[r5,#0]
        0x0000c882:    2000        .       MOVS     r0,#0
        0x0000c884:    bd38        8.      POP      {r3-r5,pc}
    $d
        0x0000c886:    0000        ..      DCW    0
        0x0000c888:    40018000    ...@    DCD    1073840128
    $t
    i.am_hal_cachectrl_control
    am_hal_cachectrl_control
        0x0000c88c:    b538        8.      PUSH     {r3-r5,lr}
        0x0000c88e:    2812        .(      CMP      r0,#0x12
        0x0000c890:    f080814a    ..J.    BCS.W    0xcb28 ; am_hal_cachectrl_control + 668
        0x0000c894:    e8dff000    ....    TBB      [pc,r0]
    $d
        0x0000c898:    140b09fd    ....    DCD    336267773
        0x0000c89c:    1e1c1a17    ....    DCD    505158167
        0x0000c8a0:    3f332721    !'3?    DCD    1060316961
        0x0000c8a4:    fce1ab75    u...    DCD    4242647925
        0x0000c8a8:    fafb        ..      DCW    64251
    $t
        0x0000c8aa:    2001        .       MOVS     r0,#1
        0x0000c8ac:    e017        ..      B        0xc8de ; am_hal_cachectrl_control + 82
        0x0000c8ae:    48a9        .H      LDR      r0,[pc,#676] ; [0xcb54] = 0x40018000
        0x0000c8b0:    6800        .h      LDR      r0,[r0,#0]
        0x0000c8b2:    f0107f80    ....    TST      r0,#0x1000000
        0x0000c8b6:    bf0a        ..      ITET     EQ
        0x0000c8b8:    2007        .       MOVEQ    r0,#7
        0x0000c8ba:    2002        .       MOVNE    r0,#2
        0x0000c8bc:    bd38        8.      POPEQ    {r3-r5,pc}
        0x0000c8be:    e00e        ..      B        0xc8de ; am_hal_cachectrl_control + 82
        0x0000c8c0:    f44f6088    O..`    MOV      r0,#0x440
        0x0000c8c4:    e00b        ..      B        0xc8de ; am_hal_cachectrl_control + 82
        0x0000c8c6:    f44f7008    O..p    MOV      r0,#0x220
        0x0000c8ca:    e008        ..      B        0xc8de ; am_hal_cachectrl_control + 82
        0x0000c8cc:    2040        @       MOVS     r0,#0x40
        0x0000c8ce:    e006        ..      B        0xc8de ; am_hal_cachectrl_control + 82
        0x0000c8d0:    2020                MOVS     r0,#0x20
        0x0000c8d2:    e004        ..      B        0xc8de ; am_hal_cachectrl_control + 82
        0x0000c8d4:    f44f6080    O..`    MOV      r0,#0x400
        0x0000c8d8:    e001        ..      B        0xc8de ; am_hal_cachectrl_control + 82
        0x0000c8da:    f44f7000    O..p    MOV      r0,#0x200
        0x0000c8de:    499d        .I      LDR      r1,[pc,#628] ; [0xcb54] = 0x40018000
        0x0000c8e0:    6088        .`      STR      r0,[r1,#8]
        0x0000c8e2:    2000        .       MOVS     r0,#0
        0x0000c8e4:    bd38        8.      POP      {r3-r5,pc}
        0x0000c8e6:    f7fffc7b    ..{.    BL       am_hal_interrupt_master_disable ; 0xc1e0
        0x0000c8ea:    9000        ..      STR      r0,[sp,#0]
        0x0000c8ec:    4899        .H      LDR      r0,[pc,#612] ; [0xcb54] = 0x40018000
        0x0000c8ee:    6801        .h      LDR      r1,[r0,#0]
        0x0000c8f0:    f0417180    A..q    ORR      r1,r1,#0x1000000
        0x0000c8f4:    6001        .`      STR      r1,[r0,#0]
        0x0000c8f6:    9800        ..      LDR      r0,[sp,#0]
        0x0000c8f8:    f7fffc76    ..v.    BL       am_hal_interrupt_master_set ; 0xc1e8
        0x0000c8fc:    e7f1        ..      B        0xc8e2 ; am_hal_cachectrl_control + 86
        0x0000c8fe:    f7fffc6f    ..o.    BL       am_hal_interrupt_master_disable ; 0xc1e0
        0x0000c902:    9000        ..      STR      r0,[sp,#0]
        0x0000c904:    4893        .H      LDR      r0,[pc,#588] ; [0xcb54] = 0x40018000
        0x0000c906:    6801        .h      LDR      r1,[r0,#0]
        0x0000c908:    f0217180    !..q    BIC      r1,r1,#0x1000000
        0x0000c90c:    6001        .`      STR      r1,[r0,#0]
        0x0000c90e:    9800        ..      LDR      r0,[sp,#0]
        0x0000c910:    f7fffc6a    ..j.    BL       am_hal_interrupt_master_set ; 0xc1e8
        0x0000c914:    e7e5        ..      B        0xc8e2 ; am_hal_cachectrl_control + 86
        0x0000c916:    4c90        .L      LDR      r4,[pc,#576] ; [0xcb58] = 0x40018004
        0x0000c918:    f7fffc62    ..b.    BL       am_hal_interrupt_master_disable ; 0xc1e0
        0x0000c91c:    9000        ..      STR      r0,[sp,#0]
        0x0000c91e:    4620         F      MOV      r0,r4
        0x0000c920:    f000fc2c    ..,.    BL       am_hal_flash_load_ui32 ; 0xd17c
        0x0000c924:    f420507c     .|P    BIC      r0,r0,#0x3f00
        0x0000c928:    f44061e0    @..a    ORR      r1,r0,#0x700
        0x0000c92c:    4620         F      MOV      r0,r4
        0x0000c92e:    f000fc29    ..).    BL       am_hal_flash_store_ui32 ; 0xd184
        0x0000c932:    9800        ..      LDR      r0,[sp,#0]
        0x0000c934:    f7fffc58    ..X.    BL       am_hal_interrupt_master_set ; 0xc1e8
        0x0000c938:    f7fffc52    ..R.    BL       am_hal_interrupt_master_disable ; 0xc1e0
        0x0000c93c:    9000        ..      STR      r0,[sp,#0]
        0x0000c93e:    4620         F      MOV      r0,r4
        0x0000c940:    f000fc1c    ....    BL       am_hal_flash_load_ui32 ; 0xd17c
        0x0000c944:    f4206077     .w`    BIC      r0,r0,#0xf70
        0x0000c948:    f44061ee    @..a    ORR      r1,r0,#0x770
        0x0000c94c:    4620         F      MOV      r0,r4
        0x0000c94e:    f000fc19    ....    BL       am_hal_flash_store_ui32 ; 0xd184
        0x0000c952:    9800        ..      LDR      r0,[sp,#0]
        0x0000c954:    f7fffc48    ..H.    BL       am_hal_interrupt_master_set ; 0xc1e8
        0x0000c958:    f7fffc42    ..B.    BL       am_hal_interrupt_master_disable ; 0xc1e0
        0x0000c95c:    9000        ..      STR      r0,[sp,#0]
        0x0000c95e:    4620         F      MOV      r0,r4
        0x0000c960:    f000fc0c    ....    BL       am_hal_flash_load_ui32 ; 0xd17c
        0x0000c964:    f020000f     ...    BIC      r0,r0,#0xf
        0x0000c968:    f4206070     .p`    BIC      r0,r0,#0xf00
        0x0000c96c:    f0400003    @...    ORR      r0,r0,#3
        0x0000c970:    f44061e0    @..a    ORR      r1,r0,#0x700
        0x0000c974:    4620         F      MOV      r0,r4
        0x0000c976:    f000fc05    ....    BL       am_hal_flash_store_ui32 ; 0xd184
        0x0000c97a:    9800        ..      LDR      r0,[sp,#0]
        0x0000c97c:    f7fffc34    ..4.    BL       am_hal_interrupt_master_set ; 0xc1e8
        0x0000c980:    e7af        ..      B        0xc8e2 ; am_hal_cachectrl_control + 86
        0x0000c982:    4c75        uL      LDR      r4,[pc,#468] ; [0xcb58] = 0x40018004
        0x0000c984:    f7fffc2c    ..,.    BL       am_hal_interrupt_master_disable ; 0xc1e0
        0x0000c988:    9000        ..      STR      r0,[sp,#0]
        0x0000c98a:    4620         F      MOV      r0,r4
        0x0000c98c:    f000fbf6    ....    BL       am_hal_flash_load_ui32 ; 0xd17c
        0x0000c990:    f420507c     .|P    BIC      r0,r0,#0x3f00
        0x0000c994:    f44051b8    @..Q    ORR      r1,r0,#0x1700
        0x0000c998:    4620         F      MOV      r0,r4
        0x0000c99a:    f000fbf3    ....    BL       am_hal_flash_store_ui32 ; 0xd184
        0x0000c99e:    9800        ..      LDR      r0,[sp,#0]
        0x0000c9a0:    f7fffc22    ..".    BL       am_hal_interrupt_master_set ; 0xc1e8
        0x0000c9a4:    f7fffc1c    ....    BL       am_hal_interrupt_master_disable ; 0xc1e0
        0x0000c9a8:    9000        ..      STR      r0,[sp,#0]
        0x0000c9aa:    4620         F      MOV      r0,r4
        0x0000c9ac:    f000fbe6    ....    BL       am_hal_flash_load_ui32 ; 0xd17c
        0x0000c9b0:    f4206077     .w`    BIC      r0,r0,#0xf70
        0x0000c9b4:    f44061ea    @..a    ORR      r1,r0,#0x750
        0x0000c9b8:    4620         F      MOV      r0,r4
        0x0000c9ba:    f000fbe3    ....    BL       am_hal_flash_store_ui32 ; 0xd184
        0x0000c9be:    9800        ..      LDR      r0,[sp,#0]
        0x0000c9c0:    f7fffc12    ....    BL       am_hal_interrupt_master_set ; 0xc1e8
        0x0000c9c4:    f7fffc0c    ....    BL       am_hal_interrupt_master_disable ; 0xc1e0
        0x0000c9c8:    9000        ..      STR      r0,[sp,#0]
        0x0000c9ca:    4620         F      MOV      r0,r4
        0x0000c9cc:    f000fbd6    ....    BL       am_hal_flash_load_ui32 ; 0xd17c
        0x0000c9d0:    f020000f     ...    BIC      r0,r0,#0xf
        0x0000c9d4:    f4206070     .p`    BIC      r0,r0,#0xf00
        0x0000c9d8:    f0400001    @...    ORR      r0,r0,#1
        0x0000c9dc:    f44061e0    @..a    ORR      r1,r0,#0x700
        0x0000c9e0:    4620         F      MOV      r0,r4
        0x0000c9e2:    f000fbcf    ....    BL       am_hal_flash_store_ui32 ; 0xd184
        0x0000c9e6:    9800        ..      LDR      r0,[sp,#0]
        0x0000c9e8:    f7fffbfe    ....    BL       am_hal_interrupt_master_set ; 0xc1e8
        0x0000c9ec:    e779        y.      B        0xc8e2 ; am_hal_cachectrl_control + 86
        0x0000c9ee:    4c5a        ZL      LDR      r4,[pc,#360] ; [0xcb58] = 0x40018004
        0x0000c9f0:    f7fffbf6    ....    BL       am_hal_interrupt_master_disable ; 0xc1e0
        0x0000c9f4:    9000        ..      STR      r0,[sp,#0]
        0x0000c9f6:    4620         F      MOV      r0,r4
        0x0000c9f8:    f000fbc0    ....    BL       am_hal_flash_load_ui32 ; 0xd17c
        0x0000c9fc:    f420507c     .|P    BIC      r0,r0,#0x3f00
        0x0000ca00:    f44051b8    @..Q    ORR      r1,r0,#0x1700
        0x0000ca04:    4620         F      MOV      r0,r4
        0x0000ca06:    f000fbbd    ....    BL       am_hal_flash_store_ui32 ; 0xd184
        0x0000ca0a:    9800        ..      LDR      r0,[sp,#0]
        0x0000ca0c:    f7fffbec    ....    BL       am_hal_interrupt_master_set ; 0xc1e8
        0x0000ca10:    f7fffbe6    ....    BL       am_hal_interrupt_master_disable ; 0xc1e0
        0x0000ca14:    9000        ..      STR      r0,[sp,#0]
        0x0000ca16:    4620         F      MOV      r0,r4
        0x0000ca18:    f000fbb0    ....    BL       am_hal_flash_load_ui32 ; 0xd17c
        0x0000ca1c:    f4206077     .w`    BIC      r0,r0,#0xf70
        0x0000ca20:    f44061ec    @..a    ORR      r1,r0,#0x760
        0x0000ca24:    4620         F      MOV      r0,r4
        0x0000ca26:    f000fbad    ....    BL       am_hal_flash_store_ui32 ; 0xd184
        0x0000ca2a:    9800        ..      LDR      r0,[sp,#0]
        0x0000ca2c:    f7fffbdc    ....    BL       am_hal_interrupt_master_set ; 0xc1e8
        0x0000ca30:    f7fffbd6    ....    BL       am_hal_interrupt_master_disable ; 0xc1e0
        0x0000ca34:    9000        ..      STR      r0,[sp,#0]
        0x0000ca36:    4620         F      MOV      r0,r4
        0x0000ca38:    f000fba0    ....    BL       am_hal_flash_load_ui32 ; 0xd17c
        0x0000ca3c:    f020000f     ...    BIC      r0,r0,#0xf
        0x0000ca40:    f4206070     .p`    BIC      r0,r0,#0xf00
        0x0000ca44:    f0400001    @...    ORR      r0,r0,#1
        0x0000ca48:    f44061e0    @..a    ORR      r1,r0,#0x700
        0x0000ca4c:    4620         F      MOV      r0,r4
        0x0000ca4e:    f000fb99    ....    BL       am_hal_flash_store_ui32 ; 0xd184
        0x0000ca52:    9800        ..      LDR      r0,[sp,#0]
        0x0000ca54:    f7fffbc8    ....    BL       am_hal_interrupt_master_set ; 0xc1e8
        0x0000ca58:    e743        C.      B        0xc8e2 ; am_hal_cachectrl_control + 86
        0x0000ca5a:    2900        .)      CMP      r1,#0
        0x0000ca5c:    d064        d.      BEQ      0xcb28 ; am_hal_cachectrl_control + 668
        0x0000ca5e:    680c        .h      LDR      r4,[r1,#0]
        0x0000ca60:    2c03        .,      CMP      r4,#3
        0x0000ca62:    d839        9.      BHI      0xcad8 ; am_hal_cachectrl_control + 588
        0x0000ca64:    4d3c        <M      LDR      r5,[pc,#240] ; [0xcb58] = 0x40018004
        0x0000ca66:    f7fffbbb    ....    BL       am_hal_interrupt_master_disable ; 0xc1e0
        0x0000ca6a:    9000        ..      STR      r0,[sp,#0]
        0x0000ca6c:    4628        (F      MOV      r0,r5
        0x0000ca6e:    f000fb85    ....    BL       am_hal_flash_load_ui32 ; 0xd17c
        0x0000ca72:    f44f5140    O.@Q    MOV      r1,#0x3000
        0x0000ca76:    f420507c     .|P    BIC      r0,r0,#0x3f00
        0x0000ca7a:    ea013104    ...1    AND      r1,r1,r4,LSL #12
        0x0000ca7e:    4308        .C      ORRS     r0,r0,r1
        0x0000ca80:    f44061e0    @..a    ORR      r1,r0,#0x700
        0x0000ca84:    4628        (F      MOV      r0,r5
        0x0000ca86:    f000fb7d    ..}.    BL       am_hal_flash_store_ui32 ; 0xd184
        0x0000ca8a:    e003        ..      B        0xca94 ; am_hal_cachectrl_control + 520
        0x0000ca8c:    e03e        >.      B        0xcb0c ; am_hal_cachectrl_control + 640
        0x0000ca8e:    e01f        ..      B        0xcad0 ; am_hal_cachectrl_control + 580
        0x0000ca90:    e004        ..      B        0xca9c ; am_hal_cachectrl_control + 528
        0x0000ca92:    e03a        :.      B        0xcb0a ; am_hal_cachectrl_control + 638
        0x0000ca94:    9800        ..      LDR      r0,[sp,#0]
        0x0000ca96:    f7fffba7    ....    BL       am_hal_interrupt_master_set ; 0xc1e8
        0x0000ca9a:    e722        ".      B        0xc8e2 ; am_hal_cachectrl_control + 86
        0x0000ca9c:    b3a9        ..      CBZ      r1,0xcb0a ; am_hal_cachectrl_control + 638
        0x0000ca9e:    680c        .h      LDR      r4,[r1,#0]
        0x0000caa0:    2c07        .,      CMP      r4,#7
        0x0000caa2:    d819        ..      BHI      0xcad8 ; am_hal_cachectrl_control + 588
        0x0000caa4:    4d2c        ,M      LDR      r5,[pc,#176] ; [0xcb58] = 0x40018004
        0x0000caa6:    f7fffb9b    ....    BL       am_hal_interrupt_master_disable ; 0xc1e0
        0x0000caaa:    9000        ..      STR      r0,[sp,#0]
        0x0000caac:    4628        (F      MOV      r0,r5
        0x0000caae:    f000fb65    ..e.    BL       am_hal_flash_load_ui32 ; 0xd17c
        0x0000cab2:    2170        p!      MOVS     r1,#0x70
        0x0000cab4:    f4206077     .w`    BIC      r0,r0,#0xf70
        0x0000cab8:    ea011104    ....    AND      r1,r1,r4,LSL #4
        0x0000cabc:    4308        .C      ORRS     r0,r0,r1
        0x0000cabe:    f44061e0    @..a    ORR      r1,r0,#0x700
        0x0000cac2:    4628        (F      MOV      r0,r5
        0x0000cac4:    f000fb5e    ..^.    BL       am_hal_flash_store_ui32 ; 0xd184
        0x0000cac8:    9800        ..      LDR      r0,[sp,#0]
        0x0000caca:    f7fffb8d    ....    BL       am_hal_interrupt_master_set ; 0xc1e8
        0x0000cace:    e708        ..      B        0xc8e2 ; am_hal_cachectrl_control + 86
        0x0000cad0:    b1d9        ..      CBZ      r1,0xcb0a ; am_hal_cachectrl_control + 638
        0x0000cad2:    680c        .h      LDR      r4,[r1,#0]
        0x0000cad4:    2c0f        .,      CMP      r4,#0xf
        0x0000cad6:    d901        ..      BLS      0xcadc ; am_hal_cachectrl_control + 592
        0x0000cad8:    2001        .       MOVS     r0,#1
        0x0000cada:    bd38        8.      POP      {r3-r5,pc}
        0x0000cadc:    4d1e        .M      LDR      r5,[pc,#120] ; [0xcb58] = 0x40018004
        0x0000cade:    f7fffb7f    ....    BL       am_hal_interrupt_master_disable ; 0xc1e0
        0x0000cae2:    9000        ..      STR      r0,[sp,#0]
        0x0000cae4:    4628        (F      MOV      r0,r5
        0x0000cae6:    f000fb49    ..I.    BL       am_hal_flash_load_ui32 ; 0xd17c
        0x0000caea:    f020000f     ...    BIC      r0,r0,#0xf
        0x0000caee:    f4206070     .p`    BIC      r0,r0,#0xf00
        0x0000caf2:    f004010f    ....    AND      r1,r4,#0xf
        0x0000caf6:    4308        .C      ORRS     r0,r0,r1
        0x0000caf8:    f44061e0    @..a    ORR      r1,r0,#0x700
        0x0000cafc:    4628        (F      MOV      r0,r5
        0x0000cafe:    f000fb41    ..A.    BL       am_hal_flash_store_ui32 ; 0xd184
        0x0000cb02:    9800        ..      LDR      r0,[sp,#0]
        0x0000cb04:    f7fffb70    ..p.    BL       am_hal_interrupt_master_set ; 0xc1e8
        0x0000cb08:    e6eb        ..      B        0xc8e2 ; am_hal_cachectrl_control + 86
        0x0000cb0a:    e00d        ..      B        0xcb28 ; am_hal_cachectrl_control + 668
        0x0000cb0c:    b161        a.      CBZ      r1,0xcb28 ; am_hal_cachectrl_control + 668
        0x0000cb0e:    6848        Hh      LDR      r0,[r1,#4]
        0x0000cb10:    4602        .F      MOV      r2,r0
        0x0000cb12:    f36f121a    o...    BFC      r2,#4,#23
        0x0000cb16:    b93a        :.      CBNZ     r2,0xcb28 ; am_hal_cachectrl_control + 668
        0x0000cb18:    688a        .h      LDR      r2,[r1,#8]
        0x0000cb1a:    f36f121a    o...    BFC      r2,#4,#23
        0x0000cb1e:    b91a        ..      CBNZ     r2,0xcb28 ; am_hal_cachectrl_control + 668
        0x0000cb20:    780a        .x      LDRB     r2,[r1,#0]
        0x0000cb22:    b11a        ..      CBZ      r2,0xcb2c ; am_hal_cachectrl_control + 672
        0x0000cb24:    2a01        .*      CMP      r2,#1
        0x0000cb26:    d00a        ..      BEQ      0xcb3e ; am_hal_cachectrl_control + 690
        0x0000cb28:    2006        .       MOVS     r0,#6
        0x0000cb2a:    bd38        8.      POP      {r3-r5,pc}
        0x0000cb2c:    4a09        .J      LDR      r2,[pc,#36] ; [0xcb54] = 0x40018000
        0x0000cb2e:    6110        .a      STR      r0,[r2,#0x10]
        0x0000cb30:    6888        .h      LDR      r0,[r1,#8]
        0x0000cb32:    6150        Pa      STR      r0,[r2,#0x14]
        0x0000cb34:    7849        Ix      LDRB     r1,[r1,#1]
        0x0000cb36:    6810        .h      LDR      r0,[r2,#0]
        0x0000cb38:    f3610082    a...    BFI      r0,r1,#2,#1
        0x0000cb3c:    e007        ..      B        0xcb4e ; am_hal_cachectrl_control + 706
        0x0000cb3e:    4a05        .J      LDR      r2,[pc,#20] ; [0xcb54] = 0x40018000
        0x0000cb40:    6190        .a      STR      r0,[r2,#0x18]
        0x0000cb42:    6888        .h      LDR      r0,[r1,#8]
        0x0000cb44:    61d0        .a      STR      r0,[r2,#0x1c]
        0x0000cb46:    7849        Ix      LDRB     r1,[r1,#1]
        0x0000cb48:    6810        .h      LDR      r0,[r2,#0]
        0x0000cb4a:    f36100c3    a...    BFI      r0,r1,#3,#1
        0x0000cb4e:    6010        .`      STR      r0,[r2,#0]
        0x0000cb50:    e6c7        ..      B        0xc8e2 ; am_hal_cachectrl_control + 86
    $d
        0x0000cb52:    0000        ..      DCW    0
        0x0000cb54:    40018000    ...@    DCD    1073840128
        0x0000cb58:    40018004    ...@    DCD    1073840132
    $t
    i.am_hal_cachectrl_enable
    am_hal_cachectrl_enable
        0x0000cb5c:    4803        .H      LDR      r0,[pc,#12] ; [0xcb6c] = 0x40018000
        0x0000cb5e:    6801        .h      LDR      r1,[r0,#0]
        0x0000cb60:    f0410101    A...    ORR      r1,r1,#1
        0x0000cb64:    6001        .`      STR      r1,[r0,#0]
        0x0000cb66:    2000        .       MOVS     r0,#0
        0x0000cb68:    4770        pG      BX       lr
    $d
        0x0000cb6a:    0000        ..      DCW    0
        0x0000cb6c:    40018000    ...@    DCD    1073840128
    $t
    i.am_hal_clkgen_control
    am_hal_clkgen_control
        0x0000cb70:    b510        ..      PUSH     {r4,lr}
        0x0000cb72:    460c        .F      MOV      r4,r1
        0x0000cb74:    4938        8I      LDR      r1,[pc,#224] ; [0xcc58] = 0x1000009c
        0x0000cb76:    680a        .h      LDR      r2,[r1,#0]
        0x0000cb78:    b912        ..      CBNZ     r2,0xcb80 ; am_hal_clkgen_control + 16
        0x0000cb7a:    4a38        8J      LDR      r2,[pc,#224] ; [0xcc5c] = 0x4ffff000
        0x0000cb7c:    6812        .h      LDR      r2,[r2,#0]
        0x0000cb7e:    600a        .`      STR      r2,[r1,#0]
        0x0000cb80:    280a        .(      CMP      r0,#0xa
        0x0000cb82:    d267        g.      BCS      0xcc54 ; am_hal_clkgen_control + 228
        0x0000cb84:    e8dff000    ....    TBB      [pc,r0]
    $d
        0x0000cb88:    27151b05    ...'    DCD    655694597
        0x0000cb8c:    3a400c21    !.@:    DCD    977275937
        0x0000cb90:    5e45        E^      DCW    24133
    $t
        0x0000cb92:    f04f2040    O.@     MOV      r0,#0x40004000
        0x0000cb96:    2147        G!      MOVS     r1,#0x47
        0x0000cb98:    6141        Aa      STR      r1,[r0,#0x14]
        0x0000cb9a:    2100        .!      MOVS     r1,#0
        0x0000cb9c:    6181        .a      STR      r1,[r0,#0x18]
        0x0000cb9e:    e006        ..      B        0xcbae ; am_hal_clkgen_control + 62
        0x0000cba0:    f04f2040    O.@     MOV      r0,#0x40004000
        0x0000cba4:    2147        G!      MOVS     r1,#0x47
        0x0000cba6:    6141        Aa      STR      r1,[r0,#0x14]
        0x0000cba8:    2101        .!      MOVS     r1,#1
        0x0000cbaa:    6181        .a      STR      r1,[r0,#0x18]
        0x0000cbac:    2100        .!      MOVS     r1,#0
        0x0000cbae:    6141        Aa      STR      r1,[r0,#0x14]
        0x0000cbb0:    e04e        N.      B        0xcc50 ; am_hal_clkgen_control + 224
        0x0000cbb2:    f04f2040    O.@     MOV      r0,#0x40004000
        0x0000cbb6:    68c1        .h      LDR      r1,[r0,#0xc]
        0x0000cbb8:    f0210102    !...    BIC      r1,r1,#2
        0x0000cbbc:    e027        '.      B        0xcc0e ; am_hal_clkgen_control + 158
        0x0000cbbe:    f04f2040    O.@     MOV      r0,#0x40004000
        0x0000cbc2:    68c1        .h      LDR      r1,[r0,#0xc]
        0x0000cbc4:    f0210101    !...    BIC      r1,r1,#1
        0x0000cbc8:    e021        !.      B        0xcc0e ; am_hal_clkgen_control + 158
        0x0000cbca:    f04f2040    O.@     MOV      r0,#0x40004000
        0x0000cbce:    68c1        .h      LDR      r1,[r0,#0xc]
        0x0000cbd0:    f0410102    A...    ORR      r1,r1,#2
        0x0000cbd4:    e01b        ..      B        0xcc0e ; am_hal_clkgen_control + 158
        0x0000cbd6:    4822        "H      LDR      r0,[pc,#136] ; [0xcc60] = 0x40020000
        0x0000cbd8:    68c1        .h      LDR      r1,[r0,#0xc]
        0x0000cbda:    b2c9        ..      UXTB     r1,r1
        0x0000cbdc:    2921        !)      CMP      r1,#0x21
        0x0000cbde:    d107        ..      BNE      0xcbf0 ; am_hal_clkgen_control + 128
        0x0000cbe0:    f8d01120    .. .    LDR      r1,[r0,#0x120]
        0x0000cbe4:    f4217140    !.@q    BIC      r1,r1,#0x300
        0x0000cbe8:    f5017180    ...q    ADD      r1,r1,#0x100
        0x0000cbec:    f8c01120    .. .    STR      r1,[r0,#0x120]
        0x0000cbf0:    f04f2040    O.@     MOV      r0,#0x40004000
        0x0000cbf4:    68c1        .h      LDR      r1,[r0,#0xc]
        0x0000cbf6:    f0410101    A...    ORR      r1,r1,#1
        0x0000cbfa:    e008        ..      B        0xcc0e ; am_hal_clkgen_control + 158
        0x0000cbfc:    f04f2040    O.@     MOV      r0,#0x40004000
        0x0000cc00:    68c1        .h      LDR      r1,[r0,#0xc]
        0x0000cc02:    f0410180    A...    ORR      r1,r1,#0x80
        0x0000cc06:    e002        ..      B        0xcc0e ; am_hal_clkgen_control + 158
        0x0000cc08:    f04f2040    O.@     MOV      r0,#0x40004000
        0x0000cc0c:    68c1        .h      LDR      r1,[r0,#0xc]
        0x0000cc0e:    60c1        .`      STR      r1,[r0,#0xc]
        0x0000cc10:    e01e        ..      B        0xcc50 ; am_hal_clkgen_control + 224
        0x0000cc12:    4813        .H      LDR      r0,[pc,#76] ; [0xcc60] = 0x40020000
        0x0000cc14:    68c1        .h      LDR      r1,[r0,#0xc]
        0x0000cc16:    b2c9        ..      UXTB     r1,r1
        0x0000cc18:    2921        !)      CMP      r1,#0x21
        0x0000cc1a:    d109        ..      BNE      0xcc30 ; am_hal_clkgen_control + 192
        0x0000cc1c:    f8d01120    .. .    LDR      r1,[r0,#0x120]
        0x0000cc20:    f4417140    A.@q    ORR      r1,r1,#0x300
        0x0000cc24:    f8c01120    .. .    STR      r1,[r0,#0x120]
        0x0000cc28:    f44f507a    O.zP    MOV      r0,#0x3e80
        0x0000cc2c:    f000fa66    ..f.    BL       am_hal_flash_delay ; 0xd0fc
        0x0000cc30:    2c00        .,      CMP      r4,#0
        0x0000cc32:    bf0c        ..      ITE      EQ
        0x0000cc34:    480b        .H      LDREQ    r0,[pc,#44] ; [0xcc64] = 0x25b801
        0x0000cc36:    6820         h      LDRNE    r0,[r4,#0]
        0x0000cc38:    f0400001    @...    ORR      r0,r0,#1
        0x0000cc3c:    f04f2140    O.@!    MOV      r1,#0x40004000
        0x0000cc40:    6208        .b      STR      r0,[r1,#0x20]
        0x0000cc42:    e005        ..      B        0xcc50 ; am_hal_clkgen_control + 224
        0x0000cc44:    f04f2040    O.@     MOV      r0,#0x40004000
        0x0000cc48:    6a01        .j      LDR      r1,[r0,#0x20]
        0x0000cc4a:    f0210101    !...    BIC      r1,r1,#1
        0x0000cc4e:    6201        .b      STR      r1,[r0,#0x20]
        0x0000cc50:    2000        .       MOVS     r0,#0
        0x0000cc52:    bd10        ..      POP      {r4,pc}
        0x0000cc54:    2006        .       MOVS     r0,#6
        0x0000cc56:    bd10        ..      POP      {r4,pc}
    $d
        0x0000cc58:    1000009c    ....    DCD    268435612
        0x0000cc5c:    4ffff000    ...O    DCD    1342173184
        0x0000cc60:    40020000    ...@    DCD    1073872896
        0x0000cc64:    0025b801    ..%.    DCD    2471937
    $t
    i.am_hal_clkgen_status_get
    am_hal_clkgen_status_get
        0x0000cc68:    2800        .(      CMP      r0,#0
        0x0000cc6a:    bf04        ..      ITT      EQ
        0x0000cc6c:    2006        .       MOVEQ    r0,#6
        0x0000cc6e:    4770        pG      BXEQ     lr
        0x0000cc70:    f04f2140    O.@!    MOV      r1,#0x40004000
        0x0000cc74:    698a        .i      LDR      r2,[r1,#0x18]
        0x0000cc76:    f0120f01    ....    TST      r2,#1
        0x0000cc7a:    bf14        ..      ITE      NE
        0x0000cc7c:    4a05        .J      LDRNE    r2,[pc,#20] ; [0xcc94] = 0x16e3600
        0x0000cc7e:    4a06        .J      LDREQ    r2,[pc,#24] ; [0xcc98] = 0x2dc6c00
        0x0000cc80:    6002        .`      STR      r2,[r0,#0]
        0x0000cc82:    69c9        .i      LDR      r1,[r1,#0x1c]
        0x0000cc84:    f0010201    ....    AND      r2,r1,#1
        0x0000cc88:    f3c10140    ..@.    UBFX     r1,r1,#1,#1
        0x0000cc8c:    6042        B`      STR      r2,[r0,#4]
        0x0000cc8e:    7201        .r      STRB     r1,[r0,#8]
        0x0000cc90:    2000        .       MOVS     r0,#0
        0x0000cc92:    4770        pG      BX       lr
    $d
        0x0000cc94:    016e3600    .6n.    DCD    24000000
        0x0000cc98:    02dc6c00    .l..    DCD    48000000
    $t
    i.am_hal_cmdq_alloc_block
    am_hal_cmdq_alloc_block
        0x0000cc9c:    b5f8        ..      PUSH     {r3-r7,lr}
        0x0000cc9e:    461e        .F      MOV      r6,r3
        0x0000cca0:    4617        .F      MOV      r7,r2
        0x0000cca2:    460d        .F      MOV      r5,r1
        0x0000cca4:    1e04        ..      SUBS     r4,r0,#0
        0x0000cca6:    bf1c        ..      ITT      NE
        0x0000cca8:    6820         h      LDRNE    r0,[r4,#0]
        0x0000ccaa:    f0107f80    ....    TSTNE    r0,#0x1000000
        0x0000ccae:    d004        ..      BEQ      0xccba ; am_hal_cmdq_alloc_block + 30
        0x0000ccb0:    492c        ,I      LDR      r1,[pc,#176] ; [0xcd64] = 0xcdcdcd
        0x0000ccb2:    f020407f     ..@    BIC      r0,r0,#0xff000000
        0x0000ccb6:    4288        .B      CMP      r0,r1
        0x0000ccb8:    d001        ..      BEQ      0xccbe ; am_hal_cmdq_alloc_block + 34
        0x0000ccba:    2002        .       MOVS     r0,#2
        0x0000ccbc:    bdf8        ..      POP      {r3-r7,pc}
        0x0000ccbe:    2f00        ./      CMP      r7,#0
        0x0000ccc0:    bf12        ..      ITEE     NE
        0x0000ccc2:    2e00        ..      CMPNE    r6,#0
        0x0000ccc4:    2006        .       MOVEQ    r0,#6
        0x0000ccc6:    bdf8        ..      POPEQ    {r3-r7,pc}
        0x0000ccc8:    e9d40104    ....    LDRD     r0,r1,[r4,#0x10]
        0x0000cccc:    4288        .B      CMP      r0,r1
        0x0000ccce:    bf1c        ..      ITT      NE
        0x0000ccd0:    2007        .       MOVNE    r0,#7
        0x0000ccd2:    bdf8        ..      POPNE    {r3-r7,pc}
        0x0000ccd4:    f7fffa84    ....    BL       am_hal_interrupt_master_disable ; 0xc1e0
        0x0000ccd8:    9000        ..      STR      r0,[sp,#0]
        0x0000ccda:    6a60        `j      LDR      r0,[r4,#0x24]
        0x0000ccdc:    6880        .h      LDR      r0,[r0,#8]
        0x0000ccde:    6800        .h      LDR      r0,[r0,#0]
        0x0000cce0:    6a21        !j      LDR      r1,[r4,#0x20]
        0x0000cce2:    b2c0        ..      UXTB     r0,r0
        0x0000cce4:    f02101ff    !...    BIC      r1,r1,#0xff
        0x0000cce8:    4308        .C      ORRS     r0,r0,r1
        0x0000ccea:    61e0        .a      STR      r0,[r4,#0x1c]
        0x0000ccec:    6a21        !j      LDR      r1,[r4,#0x20]
        0x0000ccee:    1a09        ..      SUBS     r1,r1,r0
        0x0000ccf0:    bf44        D.      ITT      MI
        0x0000ccf2:    f5a07080    ...p    SUBMI    r0,r0,#0x100
        0x0000ccf6:    61e0        .a      STRMI    r0,[r4,#0x1c]
        0x0000ccf8:    6a60        `j      LDR      r0,[r4,#0x24]
        0x0000ccfa:    6840        @h      LDR      r0,[r0,#4]
        0x0000ccfc:    6800        .h      LDR      r0,[r0,#0]
        0x0000ccfe:    60e0        .`      STR      r0,[r4,#0xc]
        0x0000cd00:    9800        ..      LDR      r0,[sp,#0]
        0x0000cd02:    f7fffa71    ..q.    BL       am_hal_interrupt_master_set ; 0xc1e8
        0x0000cd06:    e9d40107    ....    LDRD     r0,r1,[r4,#0x1c]
        0x0000cd0a:    1a40        @.      SUBS     r0,r0,r1
        0x0000cd0c:    f1100ffe    ....    CMN      r0,#0xfe
        0x0000cd10:    d41c        ..      BMI      0xcd4c ; am_hal_cmdq_alloc_block + 176
        0x0000cd12:    e9d42003    ...     LDRD     r2,r0,[r4,#0xc]
        0x0000cd16:    2108        .!      MOVS     r1,#8
        0x0000cd18:    eb0101c5    ....    ADD      r1,r1,r5,LSL #3
        0x0000cd1c:    4290        .B      CMP      r0,r2
        0x0000cd1e:    d312        ..      BCC      0xcd46 ; am_hal_cmdq_alloc_block + 170
        0x0000cd20:    2310        .#      MOVS     r3,#0x10
        0x0000cd22:    eb0303c5    ....    ADD      r3,r3,r5,LSL #3
        0x0000cd26:    f8d4c008    ....    LDR      r12,[r4,#8]
        0x0000cd2a:    4403        .D      ADD      r3,r3,r0
        0x0000cd2c:    4563        cE      CMP      r3,r12
        0x0000cd2e:    d90f        ..      BLS      0xcd50 ; am_hal_cmdq_alloc_block + 180
        0x0000cd30:    6863        ch      LDR      r3,[r4,#4]
        0x0000cd32:    4419        .D      ADD      r1,r1,r3
        0x0000cd34:    428a        .B      CMP      r2,r1
        0x0000cd36:    d909        ..      BLS      0xcd4c ; am_hal_cmdq_alloc_block + 176
        0x0000cd38:    6a61        aj      LDR      r1,[r4,#0x24]
        0x0000cd3a:    6849        Ih      LDR      r1,[r1,#4]
        0x0000cd3c:    6001        .`      STR      r1,[r0,#0]
        0x0000cd3e:    6861        ah      LDR      r1,[r4,#4]
        0x0000cd40:    6041        A`      STR      r1,[r0,#4]
        0x0000cd42:    6860        `h      LDR      r0,[r4,#4]
        0x0000cd44:    e004        ..      B        0xcd50 ; am_hal_cmdq_alloc_block + 180
        0x0000cd46:    4401        .D      ADD      r1,r1,r0
        0x0000cd48:    4291        .B      CMP      r1,r2
        0x0000cd4a:    d301        ..      BCC      0xcd50 ; am_hal_cmdq_alloc_block + 180
        0x0000cd4c:    2005        .       MOVS     r0,#5
        0x0000cd4e:    bdf8        ..      POP      {r3-r7,pc}
        0x0000cd50:    6038        8`      STR      r0,[r7,#0]
        0x0000cd52:    6a21        !j      LDR      r1,[r4,#0x20]
        0x0000cd54:    eb0000c5    ....    ADD      r0,r0,r5,LSL #3
        0x0000cd58:    1c49        I.      ADDS     r1,r1,#1
        0x0000cd5a:    6221        !b      STR      r1,[r4,#0x20]
        0x0000cd5c:    6031        1`      STR      r1,[r6,#0]
        0x0000cd5e:    6160        `a      STR      r0,[r4,#0x14]
        0x0000cd60:    2000        .       MOVS     r0,#0
        0x0000cd62:    bdf8        ..      POP      {r3-r7,pc}
    $d
        0x0000cd64:    00cdcdcd    ....    DCD    13487565
    $t
    i.am_hal_cmdq_disable
    am_hal_cmdq_disable
        0x0000cd68:    2800        .(      CMP      r0,#0
        0x0000cd6a:    bf1c        ..      ITT      NE
        0x0000cd6c:    6801        .h      LDRNE    r1,[r0,#0]
        0x0000cd6e:    f0117f80    ....    TSTNE    r1,#0x1000000
        0x0000cd72:    d004        ..      BEQ      0xcd7e ; am_hal_cmdq_disable + 22
        0x0000cd74:    4b0b        .K      LDR      r3,[pc,#44] ; [0xcda4] = 0xcdcdcd
        0x0000cd76:    f021427f    !..B    BIC      r2,r1,#0xff000000
        0x0000cd7a:    429a        .B      CMP      r2,r3
        0x0000cd7c:    d001        ..      BEQ      0xcd82 ; am_hal_cmdq_disable + 26
        0x0000cd7e:    2002        .       MOVS     r0,#2
        0x0000cd80:    4770        pG      BX       lr
        0x0000cd82:    f0117f00    ....    TST      r1,#0x2000000
        0x0000cd86:    bf04        ..      ITT      EQ
        0x0000cd88:    2000        .       MOVEQ    r0,#0
        0x0000cd8a:    4770        pG      BXEQ     lr
        0x0000cd8c:    6a41        Aj      LDR      r1,[r0,#0x24]
        0x0000cd8e:    6809        .h      LDR      r1,[r1,#0]
        0x0000cd90:    680a        .h      LDR      r2,[r1,#0]
        0x0000cd92:    f0220201    "...    BIC      r2,r2,#1
        0x0000cd96:    600a        .`      STR      r2,[r1,#0]
        0x0000cd98:    6801        .h      LDR      r1,[r0,#0]
        0x0000cd9a:    f0217100    !..q    BIC      r1,r1,#0x2000000
        0x0000cd9e:    6001        .`      STR      r1,[r0,#0]
        0x0000cda0:    2000        .       MOVS     r0,#0
        0x0000cda2:    4770        pG      BX       lr
    $d
        0x0000cda4:    00cdcdcd    ....    DCD    13487565
    $t
    i.am_hal_cmdq_enable
    am_hal_cmdq_enable
        0x0000cda8:    2800        .(      CMP      r0,#0
        0x0000cdaa:    bf1c        ..      ITT      NE
        0x0000cdac:    6801        .h      LDRNE    r1,[r0,#0]
        0x0000cdae:    f0117f80    ....    TSTNE    r1,#0x1000000
        0x0000cdb2:    d004        ..      BEQ      0xcdbe ; am_hal_cmdq_enable + 22
        0x0000cdb4:    4b0b        .K      LDR      r3,[pc,#44] ; [0xcde4] = 0xcdcdcd
        0x0000cdb6:    f021427f    !..B    BIC      r2,r1,#0xff000000
        0x0000cdba:    429a        .B      CMP      r2,r3
        0x0000cdbc:    d001        ..      BEQ      0xcdc2 ; am_hal_cmdq_enable + 26
        0x0000cdbe:    2002        .       MOVS     r0,#2
        0x0000cdc0:    4770        pG      BX       lr
        0x0000cdc2:    f0117f00    ....    TST      r1,#0x2000000
        0x0000cdc6:    bf1c        ..      ITT      NE
        0x0000cdc8:    2000        .       MOVNE    r0,#0
        0x0000cdca:    4770        pG      BXNE     lr
        0x0000cdcc:    6a41        Aj      LDR      r1,[r0,#0x24]
        0x0000cdce:    6809        .h      LDR      r1,[r1,#0]
        0x0000cdd0:    680a        .h      LDR      r2,[r1,#0]
        0x0000cdd2:    f0420201    B...    ORR      r2,r2,#1
        0x0000cdd6:    600a        .`      STR      r2,[r1,#0]
        0x0000cdd8:    6801        .h      LDR      r1,[r0,#0]
        0x0000cdda:    f0417100    A..q    ORR      r1,r1,#0x2000000
        0x0000cdde:    6001        .`      STR      r1,[r0,#0]
        0x0000cde0:    2000        .       MOVS     r0,#0
        0x0000cde2:    4770        pG      BX       lr
    $d
        0x0000cde4:    00cdcdcd    ....    DCD    13487565
    $t
    i.am_hal_cmdq_error_resume
    am_hal_cmdq_error_resume
        0x0000cde8:    2800        .(      CMP      r0,#0
        0x0000cdea:    bf1c        ..      ITT      NE
        0x0000cdec:    6801        .h      LDRNE    r1,[r0,#0]
        0x0000cdee:    f0117f80    ....    TSTNE    r1,#0x1000000
        0x0000cdf2:    d004        ..      BEQ      0xcdfe ; am_hal_cmdq_error_resume + 22
        0x0000cdf4:    4b18        .K      LDR      r3,[pc,#96] ; [0xce58] = 0xcdcdcd
        0x0000cdf6:    f021427f    !..B    BIC      r2,r1,#0xff000000
        0x0000cdfa:    429a        .B      CMP      r2,r3
        0x0000cdfc:    d001        ..      BEQ      0xce02 ; am_hal_cmdq_error_resume + 26
        0x0000cdfe:    2002        .       MOVS     r0,#2
        0x0000ce00:    4770        pG      BX       lr
        0x0000ce02:    f0117f00    ....    TST      r1,#0x2000000
        0x0000ce06:    bf04        ..      ITT      EQ
        0x0000ce08:    2000        .       MOVEQ    r0,#0
        0x0000ce0a:    4770        pG      BXEQ     lr
        0x0000ce0c:    6a41        Aj      LDR      r1,[r0,#0x24]
        0x0000ce0e:    6809        .h      LDR      r1,[r1,#0]
        0x0000ce10:    680a        .h      LDR      r2,[r1,#0]
        0x0000ce12:    f0220201    "...    BIC      r2,r2,#1
        0x0000ce16:    600a        .`      STR      r2,[r1,#0]
        0x0000ce18:    6a42        Bj      LDR      r2,[r0,#0x24]
        0x0000ce1a:    6853        Sh      LDR      r3,[r2,#4]
        0x0000ce1c:    6819        .h      LDR      r1,[r3,#0]
        0x0000ce1e:    6892        .h      LDR      r2,[r2,#8]
        0x0000ce20:    f8d1c000    ....    LDR      r12,[r1,#0]
        0x0000ce24:    f02c0c01    ,...    BIC      r12,r12,#1
        0x0000ce28:    4594        .E      CMP      r12,r2
        0x0000ce2a:    d00b        ..      BEQ      0xce44 ; am_hal_cmdq_error_resume + 92
        0x0000ce2c:    f8d1c000    ....    LDR      r12,[r1,#0]
        0x0000ce30:    459c        .E      CMP      r12,r3
        0x0000ce32:    bf0c        ..      ITE      EQ
        0x0000ce34:    6849        Ih      LDREQ    r1,[r1,#4]
        0x0000ce36:    3108        .1      ADDNE    r1,r1,#8
        0x0000ce38:    f8d1c000    ....    LDR      r12,[r1,#0]
        0x0000ce3c:    f02c0c01    ,...    BIC      r12,r12,#1
        0x0000ce40:    4594        .E      CMP      r12,r2
        0x0000ce42:    d1f3        ..      BNE      0xce2c ; am_hal_cmdq_error_resume + 68
        0x0000ce44:    600a        .`      STR      r2,[r1,#0]
        0x0000ce46:    6a42        Bj      LDR      r2,[r0,#0x24]
        0x0000ce48:    6852        Rh      LDR      r2,[r2,#4]
        0x0000ce4a:    6011        .`      STR      r1,[r2,#0]
        0x0000ce4c:    6801        .h      LDR      r1,[r0,#0]
        0x0000ce4e:    f0217100    !..q    BIC      r1,r1,#0x2000000
        0x0000ce52:    6001        .`      STR      r1,[r0,#0]
        0x0000ce54:    2000        .       MOVS     r0,#0
        0x0000ce56:    4770        pG      BX       lr
    $d
        0x0000ce58:    00cdcdcd    ....    DCD    13487565
    $t
    i.am_hal_cmdq_get_status
    am_hal_cmdq_get_status
        0x0000ce5c:    b538        8.      PUSH     {r3-r5,lr}
        0x0000ce5e:    460d        .F      MOV      r5,r1
        0x0000ce60:    1e04        ..      SUBS     r4,r0,#0
        0x0000ce62:    bf1c        ..      ITT      NE
        0x0000ce64:    6820         h      LDRNE    r0,[r4,#0]
        0x0000ce66:    f0107f80    ....    TSTNE    r0,#0x1000000
        0x0000ce6a:    d004        ..      BEQ      0xce76 ; am_hal_cmdq_get_status + 26
        0x0000ce6c:    4923        #I      LDR      r1,[pc,#140] ; [0xcefc] = 0xcdcdcd
        0x0000ce6e:    f020407f     ..@    BIC      r0,r0,#0xff000000
        0x0000ce72:    4288        .B      CMP      r0,r1
        0x0000ce74:    d001        ..      BEQ      0xce7a ; am_hal_cmdq_get_status + 30
        0x0000ce76:    2002        .       MOVS     r0,#2
        0x0000ce78:    bd38        8.      POP      {r3-r5,pc}
        0x0000ce7a:    2d00        .-      CMP      r5,#0
        0x0000ce7c:    bf04        ..      ITT      EQ
        0x0000ce7e:    2006        .       MOVEQ    r0,#6
        0x0000ce80:    bd38        8.      POPEQ    {r3-r5,pc}
        0x0000ce82:    f7fff9ad    ....    BL       am_hal_interrupt_master_disable ; 0xc1e0
        0x0000ce86:    9000        ..      STR      r0,[sp,#0]
        0x0000ce88:    6a60        `j      LDR      r0,[r4,#0x24]
        0x0000ce8a:    6880        .h      LDR      r0,[r0,#8]
        0x0000ce8c:    6800        .h      LDR      r0,[r0,#0]
        0x0000ce8e:    6a21        !j      LDR      r1,[r4,#0x20]
        0x0000ce90:    b2c0        ..      UXTB     r0,r0
        0x0000ce92:    f02101ff    !...    BIC      r1,r1,#0xff
        0x0000ce96:    4308        .C      ORRS     r0,r0,r1
        0x0000ce98:    61e0        .a      STR      r0,[r4,#0x1c]
        0x0000ce9a:    6a21        !j      LDR      r1,[r4,#0x20]
        0x0000ce9c:    1a09        ..      SUBS     r1,r1,r0
        0x0000ce9e:    bf44        D.      ITT      MI
        0x0000cea0:    f5a07080    ...p    SUBMI    r0,r0,#0x100
        0x0000cea4:    61e0        .a      STRMI    r0,[r4,#0x1c]
        0x0000cea6:    6a60        `j      LDR      r0,[r4,#0x24]
        0x0000cea8:    6840        @h      LDR      r0,[r0,#4]
        0x0000ceaa:    6800        .h      LDR      r0,[r0,#0]
        0x0000ceac:    60e0        .`      STR      r0,[r4,#0xc]
        0x0000ceae:    9800        ..      LDR      r0,[sp,#0]
        0x0000ceb0:    f7fff99a    ....    BL       am_hal_interrupt_master_set ; 0xc1e8
        0x0000ceb4:    69e0        .i      LDR      r0,[r4,#0x1c]
        0x0000ceb6:    6028        (`      STR      r0,[r5,#0]
        0x0000ceb8:    6a20         j      LDR      r0,[r4,#0x20]
        0x0000ceba:    60a8        .`      STR      r0,[r5,#8]
        0x0000cebc:    e9d40104    ....    LDRD     r0,r1,[r4,#0x10]
        0x0000cec0:    4281        .B      CMP      r1,r0
        0x0000cec2:    bf14        ..      ITE      NE
        0x0000cec4:    2001        .       MOVNE    r0,#1
        0x0000cec6:    2000        .       MOVEQ    r0,#0
        0x0000cec8:    6a21        !j      LDR      r1,[r4,#0x20]
        0x0000ceca:    1a08        ..      SUBS     r0,r1,r0
        0x0000cecc:    6068        h`      STR      r0,[r5,#4]
        0x0000cece:    6a61        aj      LDR      r1,[r4,#0x24]
        0x0000ced0:    6988        .i      LDR      r0,[r1,#0x18]
        0x0000ced2:    6800        .h      LDR      r0,[r0,#0]
        0x0000ced4:    69c9        .i      LDR      r1,[r1,#0x1c]
        0x0000ced6:    4001        .@      ANDS     r1,r1,r0
        0x0000ced8:    bf18        ..      IT       NE
        0x0000ceda:    2101        .!      MOVNE    r1,#1
        0x0000cedc:    7329        )s      STRB     r1,[r5,#0xc]
        0x0000cede:    6a61        aj      LDR      r1,[r4,#0x24]
        0x0000cee0:    6a49        Ij      LDR      r1,[r1,#0x24]
        0x0000cee2:    4001        .@      ANDS     r1,r1,r0
        0x0000cee4:    bf18        ..      IT       NE
        0x0000cee6:    2101        .!      MOVNE    r1,#1
        0x0000cee8:    7369        is      STRB     r1,[r5,#0xd]
        0x0000ceea:    6a61        aj      LDR      r1,[r4,#0x24]
        0x0000ceec:    6a09        .j      LDR      r1,[r1,#0x20]
        0x0000ceee:    4008        .@      ANDS     r0,r0,r1
        0x0000cef0:    bf18        ..      IT       NE
        0x0000cef2:    2001        .       MOVNE    r0,#1
        0x0000cef4:    73a8        .s      STRB     r0,[r5,#0xe]
        0x0000cef6:    2000        .       MOVS     r0,#0
        0x0000cef8:    bd38        8.      POP      {r3-r5,pc}
    $d
        0x0000cefa:    0000        ..      DCW    0
        0x0000cefc:    00cdcdcd    ....    DCD    13487565
    $t
    i.am_hal_cmdq_init
    am_hal_cmdq_init
        0x0000cf00:    2808        .(      CMP      r0,#8
        0x0000cf02:    bf24        $.      ITT      CS
        0x0000cf04:    2005        .       MOVCS    r0,#5
        0x0000cf06:    4770        pG      BXCS     lr
        0x0000cf08:    2900        .)      CMP      r1,#0
        0x0000cf0a:    bf1e        ..      ITTT     NE
        0x0000cf0c:    684b        Kh      LDRNE    r3,[r1,#4]
        0x0000cf0e:    2b00        .+      CMPNE    r3,#0
        0x0000cf10:    2a00        .*      CMPNE    r2,#0
        0x0000cf12:    d004        ..      BEQ      0xcf1e ; am_hal_cmdq_init + 30
        0x0000cf14:    f8d1c000    ....    LDR      r12,[r1,#0]
        0x0000cf18:    f1bc0f02    ....    CMP      r12,#2
        0x0000cf1c:    d201        ..      BCS      0xcf22 ; am_hal_cmdq_init + 34
        0x0000cf1e:    2006        .       MOVS     r0,#6
        0x0000cf20:    4770        pG      BX       lr
        0x0000cf22:    b430        0.      PUSH     {r4,r5}
        0x0000cf24:    eb000340    ..@.    ADD      r3,r0,r0,LSL #1
        0x0000cf28:    4c2e        .L      LDR      r4,[pc,#184] ; [0xcfe4] = 0x10004f00
        0x0000cf2a:    eb0303c0    ....    ADD      r3,r3,r0,LSL #3
        0x0000cf2e:    f8545023    T.#P    LDR      r5,[r4,r3,LSL #2]
        0x0000cf32:    f0157f80    ....    TST      r5,#0x1000000
        0x0000cf36:    bf1e        ..      ITTT     NE
        0x0000cf38:    2007        .       MOVNE    r0,#7
        0x0000cf3a:    bc30        0.      POPNE    {r4,r5}
        0x0000cf3c:    4770        pG      BXNE     lr
        0x0000cf3e:    eb040383    ....    ADD      r3,r4,r3,LSL #2
        0x0000cf42:    ea4f0ccc    O...    LSL      r12,r12,#3
        0x0000cf46:    f8c3c018    ....    STR      r12,[r3,#0x18]
        0x0000cf4a:    f8d1c004    ....    LDR      r12,[r1,#4]
        0x0000cf4e:    f8c3c004    ....    STR      r12,[r3,#4]
        0x0000cf52:    f8c3c00c    ....    STR      r12,[r3,#0xc]
        0x0000cf56:    f8c3c014    ....    STR      r12,[r3,#0x14]
        0x0000cf5a:    f8c3c010    ....    STR      r12,[r3,#0x10]
        0x0000cf5e:    e9d14c00    ...L    LDRD     r4,r12,[r1,#0]
        0x0000cf62:    eb0c0cc4    ....    ADD      r12,r12,r4,LSL #3
        0x0000cf66:    f8c3c008    ....    STR      r12,[r3,#8]
        0x0000cf6a:    f8d3c000    ....    LDR      r12,[r3,#0]
        0x0000cf6e:    4c1e        .L      LDR      r4,[pc,#120] ; [0xcfe8] = 0xcdcdcd
        0x0000cf70:    f02c7c00    ,..|    BIC      r12,r12,#0x2000000
        0x0000cf74:    f04c7c80    L..|    ORR      r12,r12,#0x1000000
        0x0000cf78:    f3640c17    d...    BFI      r12,r4,#0,#24
        0x0000cf7c:    f8c3c000    ....    STR      r12,[r3,#0]
        0x0000cf80:    f8dfc068    ..h.    LDR      r12,[pc,#104] ; [0xcfec] = 0x1188c
        0x0000cf84:    eb000080    ....    ADD      r0,r0,r0,LSL #2
        0x0000cf88:    eb0c00c0    ....    ADD      r0,r12,r0,LSL #3
        0x0000cf8c:    6258        Xb      STR      r0,[r3,#0x24]
        0x0000cf8e:    2000        .       MOVS     r0,#0
        0x0000cf90:    61d8        .a      STR      r0,[r3,#0x1c]
        0x0000cf92:    6218        .b      STR      r0,[r3,#0x20]
        0x0000cf94:    f8d3c024    ..$.    LDR      r12,[r3,#0x24]
        0x0000cf98:    f8dcc008    ....    LDR      r12,[r12,#8]
        0x0000cf9c:    f8cc0000    ....    STR      r0,[r12,#0]
        0x0000cfa0:    f8d3c024    ..$.    LDR      r12,[r3,#0x24]
        0x0000cfa4:    f8dcc00c    ....    LDR      r12,[r12,#0xc]
        0x0000cfa8:    f8cc0000    ....    STR      r0,[r12,#0]
        0x0000cfac:    6a58        Xj      LDR      r0,[r3,#0x24]
        0x0000cfae:    f8d0c010    ....    LDR      r12,[r0,#0x10]
        0x0000cfb2:    f8dc4000    ...@    LDR      r4,[r12,#0]
        0x0000cfb6:    6940        @i      LDR      r0,[r0,#0x14]
        0x0000cfb8:    4320         C      ORRS     r0,r0,r4
        0x0000cfba:    f8cc0000    ....    STR      r0,[r12,#0]
        0x0000cfbe:    f8d3c024    ..$.    LDR      r12,[r3,#0x24]
        0x0000cfc2:    6848        Hh      LDR      r0,[r1,#4]
        0x0000cfc4:    f8dcc004    ....    LDR      r12,[r12,#4]
        0x0000cfc8:    f8cc0000    ....    STR      r0,[r12,#0]
        0x0000cfcc:    7a08        .z      LDRB     r0,[r1,#8]
        0x0000cfce:    2102        .!      MOVS     r1,#2
        0x0000cfd0:    ea010040    ..@.    AND      r0,r1,r0,LSL #1
        0x0000cfd4:    6a59        Yj      LDR      r1,[r3,#0x24]
        0x0000cfd6:    6809        .h      LDR      r1,[r1,#0]
        0x0000cfd8:    6008        .`      STR      r0,[r1,#0]
        0x0000cfda:    6013        .`      STR      r3,[r2,#0]
        0x0000cfdc:    bc30        0.      POP      {r4,r5}
        0x0000cfde:    2000        .       MOVS     r0,#0
        0x0000cfe0:    4770        pG      BX       lr
    $d
        0x0000cfe2:    0000        ..      DCW    0
        0x0000cfe4:    10004f00    .O..    DCD    268455680
        0x0000cfe8:    00cdcdcd    ....    DCD    13487565
        0x0000cfec:    0001188c    ....    DCD    71820
    $t
    i.am_hal_cmdq_post_block
    am_hal_cmdq_post_block
        0x0000cff0:    2800        .(      CMP      r0,#0
        0x0000cff2:    bf1c        ..      ITT      NE
        0x0000cff4:    6802        .h      LDRNE    r2,[r0,#0]
        0x0000cff6:    f0127f80    ....    TSTNE    r2,#0x1000000
        0x0000cffa:    d004        ..      BEQ      0xd006 ; am_hal_cmdq_post_block + 22
        0x0000cffc:    4b0e        .K      LDR      r3,[pc,#56] ; [0xd038] = 0xcdcdcd
        0x0000cffe:    f022427f    "..B    BIC      r2,r2,#0xff000000
        0x0000d002:    429a        .B      CMP      r2,r3
        0x0000d004:    d001        ..      BEQ      0xd00a ; am_hal_cmdq_post_block + 26
        0x0000d006:    2002        .       MOVS     r0,#2
        0x0000d008:    4770        pG      BX       lr
        0x0000d00a:    e9d03204    ...2    LDRD     r3,r2,[r0,#0x10]
        0x0000d00e:    4293        .B      CMP      r3,r2
        0x0000d010:    bf04        ..      ITT      EQ
        0x0000d012:    2007        .       MOVEQ    r0,#7
        0x0000d014:    4770        pG      BXEQ     lr
        0x0000d016:    6a43        Cj      LDR      r3,[r0,#0x24]
        0x0000d018:    689b        .h      LDR      r3,[r3,#8]
        0x0000d01a:    4319        .C      ORRS     r1,r1,r3
        0x0000d01c:    6011        .`      STR      r1,[r2,#0]
        0x0000d01e:    6a01        .j      LDR      r1,[r0,#0x20]
        0x0000d020:    6051        Q`      STR      r1,[r2,#4]
        0x0000d022:    f1020108    ....    ADD      r1,r2,#8
        0x0000d026:    6141        Aa      STR      r1,[r0,#0x14]
        0x0000d028:    6101        .a      STR      r1,[r0,#0x10]
        0x0000d02a:    f8901020    .. .    LDRB     r1,[r0,#0x20]
        0x0000d02e:    6a40        @j      LDR      r0,[r0,#0x24]
        0x0000d030:    68c0        .h      LDR      r0,[r0,#0xc]
        0x0000d032:    6001        .`      STR      r1,[r0,#0]
        0x0000d034:    2000        .       MOVS     r0,#0
        0x0000d036:    4770        pG      BX       lr
    $d
        0x0000d038:    00cdcdcd    ....    DCD    13487565
    $t
    i.am_hal_cmdq_release_block
    am_hal_cmdq_release_block
        0x0000d03c:    2800        .(      CMP      r0,#0
        0x0000d03e:    bf1c        ..      ITT      NE
        0x0000d040:    6801        .h      LDRNE    r1,[r0,#0]
        0x0000d042:    f0117f80    ....    TSTNE    r1,#0x1000000
        0x0000d046:    d004        ..      BEQ      0xd052 ; am_hal_cmdq_release_block + 22
        0x0000d048:    4a09        .J      LDR      r2,[pc,#36] ; [0xd070] = 0xcdcdcd
        0x0000d04a:    f021417f    !..A    BIC      r1,r1,#0xff000000
        0x0000d04e:    4291        .B      CMP      r1,r2
        0x0000d050:    d001        ..      BEQ      0xd056 ; am_hal_cmdq_release_block + 26
        0x0000d052:    2002        .       MOVS     r0,#2
        0x0000d054:    4770        pG      BX       lr
        0x0000d056:    e9d01204    ....    LDRD     r1,r2,[r0,#0x10]
        0x0000d05a:    4291        .B      CMP      r1,r2
        0x0000d05c:    bf04        ..      ITT      EQ
        0x0000d05e:    2007        .       MOVEQ    r0,#7
        0x0000d060:    4770        pG      BXEQ     lr
        0x0000d062:    6141        Aa      STR      r1,[r0,#0x14]
        0x0000d064:    6a01        .j      LDR      r1,[r0,#0x20]
        0x0000d066:    1e49        I.      SUBS     r1,r1,#1
        0x0000d068:    6201        .b      STR      r1,[r0,#0x20]
        0x0000d06a:    2000        .       MOVS     r0,#0
        0x0000d06c:    4770        pG      BX       lr
    $d
        0x0000d06e:    0000        ..      DCW    0
        0x0000d070:    00cdcdcd    ....    DCD    13487565
    $t
    i.am_hal_cmdq_term
    am_hal_cmdq_term
        0x0000d074:    b538        8.      PUSH     {r3-r5,lr}
        0x0000d076:    460d        .F      MOV      r5,r1
        0x0000d078:    1e04        ..      SUBS     r4,r0,#0
        0x0000d07a:    bf1c        ..      ITT      NE
        0x0000d07c:    6820         h      LDRNE    r0,[r4,#0]
        0x0000d07e:    f0107f80    ....    TSTNE    r0,#0x1000000
        0x0000d082:    d004        ..      BEQ      0xd08e ; am_hal_cmdq_term + 26
        0x0000d084:    491c        .I      LDR      r1,[pc,#112] ; [0xd0f8] = 0xcdcdcd
        0x0000d086:    f020407f     ..@    BIC      r0,r0,#0xff000000
        0x0000d08a:    4288        .B      CMP      r0,r1
        0x0000d08c:    d001        ..      BEQ      0xd092 ; am_hal_cmdq_term + 30
        0x0000d08e:    2002        .       MOVS     r0,#2
        0x0000d090:    bd38        8.      POP      {r3-r5,pc}
        0x0000d092:    f7fff8a5    ....    BL       am_hal_interrupt_master_disable ; 0xc1e0
        0x0000d096:    9000        ..      STR      r0,[sp,#0]
        0x0000d098:    6a60        `j      LDR      r0,[r4,#0x24]
        0x0000d09a:    6880        .h      LDR      r0,[r0,#8]
        0x0000d09c:    6800        .h      LDR      r0,[r0,#0]
        0x0000d09e:    6a21        !j      LDR      r1,[r4,#0x20]
        0x0000d0a0:    b2c0        ..      UXTB     r0,r0
        0x0000d0a2:    f02101ff    !...    BIC      r1,r1,#0xff
        0x0000d0a6:    4308        .C      ORRS     r0,r0,r1
        0x0000d0a8:    61e0        .a      STR      r0,[r4,#0x1c]
        0x0000d0aa:    6a21        !j      LDR      r1,[r4,#0x20]
        0x0000d0ac:    1a09        ..      SUBS     r1,r1,r0
        0x0000d0ae:    bf44        D.      ITT      MI
        0x0000d0b0:    f5a07080    ...p    SUBMI    r0,r0,#0x100
        0x0000d0b4:    61e0        .a      STRMI    r0,[r4,#0x1c]
        0x0000d0b6:    6a60        `j      LDR      r0,[r4,#0x24]
        0x0000d0b8:    6840        @h      LDR      r0,[r0,#4]
        0x0000d0ba:    6800        .h      LDR      r0,[r0,#0]
        0x0000d0bc:    60e0        .`      STR      r0,[r4,#0xc]
        0x0000d0be:    9800        ..      LDR      r0,[sp,#0]
        0x0000d0c0:    f7fff892    ....    BL       am_hal_interrupt_master_set ; 0xc1e8
        0x0000d0c4:    b92d        -.      CBNZ     r5,0xd0d2 ; am_hal_cmdq_term + 94
        0x0000d0c6:    e9d40107    ....    LDRD     r0,r1,[r4,#0x1c]
        0x0000d0ca:    4288        .B      CMP      r0,r1
        0x0000d0cc:    bf1c        ..      ITT      NE
        0x0000d0ce:    2003        .       MOVNE    r0,#3
        0x0000d0d0:    bd38        8.      POPNE    {r3-r5,pc}
        0x0000d0d2:    6820         h      LDR      r0,[r4,#0]
        0x0000d0d4:    f0207080     ..p    BIC      r0,r0,#0x1000000
        0x0000d0d8:    6020         `      STR      r0,[r4,#0]
        0x0000d0da:    6a60        `j      LDR      r0,[r4,#0x24]
        0x0000d0dc:    6800        .h      LDR      r0,[r0,#0]
        0x0000d0de:    6801        .h      LDR      r1,[r0,#0]
        0x0000d0e0:    f0210101    !...    BIC      r1,r1,#1
        0x0000d0e4:    6001        .`      STR      r1,[r0,#0]
        0x0000d0e6:    6a60        `j      LDR      r0,[r4,#0x24]
        0x0000d0e8:    6901        .i      LDR      r1,[r0,#0x10]
        0x0000d0ea:    680a        .h      LDR      r2,[r1,#0]
        0x0000d0ec:    6940        @i      LDR      r0,[r0,#0x14]
        0x0000d0ee:    ea220000    "...    BIC      r0,r2,r0
        0x0000d0f2:    6008        .`      STR      r0,[r1,#0]
        0x0000d0f4:    2000        .       MOVS     r0,#0
        0x0000d0f6:    bd38        8.      POP      {r3-r5,pc}
    $d
        0x0000d0f8:    00cdcdcd    ....    DCD    13487565
    $t
    i.am_hal_flash_delay
    am_hal_flash_delay
        0x0000d0fc:    f04f2140    O.@!    MOV      r1,#0x40004000
        0x0000d100:    6b49        Ik      LDR      r1,[r1,#0x34]
        0x0000d102:    f0110f04    ....    TST      r1,#4
        0x0000d106:    bf1a        ..      ITTE     NE
        0x0000d108:    0040        @.      LSLNE    r0,r0,#1
        0x0000d10a:    210e        .!      MOVNE    r1,#0xe
        0x0000d10c:    210b        .!      MOVEQ    r1,#0xb
        0x0000d10e:    4288        .B      CMP      r0,r1
        0x0000d110:    bf98        ..      IT       LS
        0x0000d112:    4770        pG      BXLS     lr
        0x0000d114:    1a40        @.      SUBS     r0,r0,r1
        0x0000d116:    4901        .I      LDR      r1,[pc,#4] ; [0xd11c] = 0x800009d
        0x0000d118:    4708        .G      BX       r1
    $d
        0x0000d11a:    0000        ..      DCW    0
        0x0000d11c:    0800009d    ....    DCD    134217885
    $t
    i.am_hal_flash_delay_status_check
    am_hal_flash_delay_status_check
        0x0000d120:    e92d47f0    -..G    PUSH     {r4-r10,lr}
        0x0000d124:    f8dfa050    ..P.    LDR      r10,[pc,#80] ; [0xd178] = 0x800009d
        0x0000d128:    f8dd8020    .. .    LDR      r8,[sp,#0x20]
        0x0000d12c:    461c        .F      MOV      r4,r3
        0x0000d12e:    4615        .F      MOV      r5,r2
        0x0000d130:    460e        .F      MOV      r6,r1
        0x0000d132:    4607        .F      MOV      r7,r0
        0x0000d134:    f04f2940    O.@)    MOV      r9,#0x40004000
        0x0000d138:    6830        0h      LDR      r0,[r6,#0]
        0x0000d13a:    f1b80f00    ....    CMP      r8,#0
        0x0000d13e:    ea000005    ....    AND      r0,r0,r5
        0x0000d142:    d002        ..      BEQ      0xd14a ; am_hal_flash_delay_status_check + 42
        0x0000d144:    42a0        .B      CMP      r0,r4
        0x0000d146:    d002        ..      BEQ      0xd14e ; am_hal_flash_delay_status_check + 46
        0x0000d148:    e004        ..      B        0xd154 ; am_hal_flash_delay_status_check + 52
        0x0000d14a:    42a0        .B      CMP      r0,r4
        0x0000d14c:    d002        ..      BEQ      0xd154 ; am_hal_flash_delay_status_check + 52
        0x0000d14e:    2000        .       MOVS     r0,#0
        0x0000d150:    e8bd87f0    ....    POP      {r4-r10,pc}
        0x0000d154:    1e7f        ..      SUBS     r7,r7,#1
        0x0000d156:    d30b        ..      BCC      0xd170 ; am_hal_flash_delay_status_check + 80
        0x0000d158:    f8d91034    ..4.    LDR      r1,[r9,#0x34]
        0x0000d15c:    2010        .       MOVS     r0,#0x10
        0x0000d15e:    f0110f04    ....    TST      r1,#4
        0x0000d162:    bf1a        ..      ITTE     NE
        0x0000d164:    2020                MOVNE    r0,#0x20
        0x0000d166:    210e        .!      MOVNE    r1,#0xe
        0x0000d168:    210b        .!      MOVEQ    r1,#0xb
        0x0000d16a:    1a40        @.      SUBS     r0,r0,r1
        0x0000d16c:    47d0        .G      BLX      r10
        0x0000d16e:    e7e3        ..      B        0xd138 ; am_hal_flash_delay_status_check + 24
        0x0000d170:    2004        .       MOVS     r0,#4
        0x0000d172:    e8bd87f0    ....    POP      {r4-r10,pc}
    $d
        0x0000d176:    0000        ..      DCW    0
        0x0000d178:    0800009d    ....    DCD    134217885
    $t
    i.am_hal_flash_load_ui32
    am_hal_flash_load_ui32
        0x0000d17c:    4900        .I      LDR      r1,[pc,#0] ; [0xd180] = 0x8000075
        0x0000d17e:    4708        .G      BX       r1
    $d
        0x0000d180:    08000075    u...    DCD    134217845
    $t
    i.am_hal_flash_store_ui32
    am_hal_flash_store_ui32
        0x0000d184:    b500        ..      PUSH     {lr}
        0x0000d186:    f8dfc020    .. .    LDR      r12,[pc,#32] ; [0xd1a8] = 0x11718
        0x0000d18a:    b083        ..      SUB      sp,sp,#0xc
        0x0000d18c:    e9dc2300    ...#    LDRD     r2,r3,[r12,#0]
        0x0000d190:    f8dcc008    ....    LDR      r12,[r12,#8]
        0x0000d194:    e9cd2300    ...#    STRD     r2,r3,[sp,#0]
        0x0000d198:    466a        jF      MOV      r2,sp
        0x0000d19a:    f8cdc008    ....    STR      r12,[sp,#8]
        0x0000d19e:    f0420201    B...    ORR      r2,r2,#1
        0x0000d1a2:    4790        .G      BLX      r2
        0x0000d1a4:    b003        ..      ADD      sp,sp,#0xc
        0x0000d1a6:    bd00        ..      POP      {pc}
    $d
        0x0000d1a8:    00011718    ....    DCD    71448
    $t
    i.am_hal_gpio_interrupt_clear
    am_hal_gpio_interrupt_clear
        0x0000d1ac:    b538        8.      PUSH     {r3-r5,lr}
        0x0000d1ae:    4605        .F      MOV      r5,r0
        0x0000d1b0:    4608        .F      MOV      r0,r1
        0x0000d1b2:    f36f0011    o...    BFC      r0,#0,#18
        0x0000d1b6:    460c        .F      MOV      r4,r1
        0x0000d1b8:    0000        ..      MOVS     r0,r0
        0x0000d1ba:    bf1c        ..      ITT      NE
        0x0000d1bc:    2005        .       MOVNE    r0,#5
        0x0000d1be:    bd38        8.      POPNE    {r3-r5,pc}
        0x0000d1c0:    f7fff80e    ....    BL       am_hal_interrupt_master_disable ; 0xc1e0
        0x0000d1c4:    9000        ..      STR      r0,[sp,#0]
        0x0000d1c6:    4805        .H      LDR      r0,[pc,#20] ; [0xd1dc] = 0x40010000
        0x0000d1c8:    f8c05208    ...R    STR      r5,[r0,#0x208]
        0x0000d1cc:    f8c04218    ...B    STR      r4,[r0,#0x218]
        0x0000d1d0:    9800        ..      LDR      r0,[sp,#0]
        0x0000d1d2:    f7fff809    ....    BL       am_hal_interrupt_master_set ; 0xc1e8
        0x0000d1d6:    2000        .       MOVS     r0,#0
        0x0000d1d8:    bd38        8.      POP      {r3-r5,pc}
    $d
        0x0000d1da:    0000        ..      DCW    0
        0x0000d1dc:    40010000    ...@    DCD    1073807360
    $t
    i.am_hal_gpio_interrupt_disable
    am_hal_gpio_interrupt_disable
        0x0000d1e0:    b538        8.      PUSH     {r3-r5,lr}
        0x0000d1e2:    4605        .F      MOV      r5,r0
        0x0000d1e4:    4608        .F      MOV      r0,r1
        0x0000d1e6:    f36f0011    o...    BFC      r0,#0,#18
        0x0000d1ea:    460c        .F      MOV      r4,r1
        0x0000d1ec:    0000        ..      MOVS     r0,r0
        0x0000d1ee:    bf1c        ..      ITT      NE
        0x0000d1f0:    2005        .       MOVNE    r0,#5
        0x0000d1f2:    bd38        8.      POPNE    {r3-r5,pc}
        0x0000d1f4:    f7fefff4    ....    BL       am_hal_interrupt_master_disable ; 0xc1e0
        0x0000d1f8:    4908        .I      LDR      r1,[pc,#32] ; [0xd21c] = 0x40010000
        0x0000d1fa:    9000        ..      STR      r0,[sp,#0]
        0x0000d1fc:    f8d10200    ....    LDR      r0,[r1,#0x200]
        0x0000d200:    43a8        .C      BICS     r0,r0,r5
        0x0000d202:    f8c10200    ....    STR      r0,[r1,#0x200]
        0x0000d206:    f8d10210    ....    LDR      r0,[r1,#0x210]
        0x0000d20a:    43a0        .C      BICS     r0,r0,r4
        0x0000d20c:    f8c10210    ....    STR      r0,[r1,#0x210]
        0x0000d210:    9800        ..      LDR      r0,[sp,#0]
        0x0000d212:    f7feffe9    ....    BL       am_hal_interrupt_master_set ; 0xc1e8
        0x0000d216:    2000        .       MOVS     r0,#0
        0x0000d218:    bd38        8.      POP      {r3-r5,pc}
    $d
        0x0000d21a:    0000        ..      DCW    0
        0x0000d21c:    40010000    ...@    DCD    1073807360
    $t
    i.am_hal_gpio_interrupt_enable
    am_hal_gpio_interrupt_enable
        0x0000d220:    b538        8.      PUSH     {r3-r5,lr}
        0x0000d222:    4605        .F      MOV      r5,r0
        0x0000d224:    4608        .F      MOV      r0,r1
        0x0000d226:    f36f0011    o...    BFC      r0,#0,#18
        0x0000d22a:    460c        .F      MOV      r4,r1
        0x0000d22c:    0000        ..      MOVS     r0,r0
        0x0000d22e:    bf1c        ..      ITT      NE
        0x0000d230:    2005        .       MOVNE    r0,#5
        0x0000d232:    bd38        8.      POPNE    {r3-r5,pc}
        0x0000d234:    f7feffd4    ....    BL       am_hal_interrupt_master_disable ; 0xc1e0
        0x0000d238:    4908        .I      LDR      r1,[pc,#32] ; [0xd25c] = 0x40010000
        0x0000d23a:    9000        ..      STR      r0,[sp,#0]
        0x0000d23c:    f8d10200    ....    LDR      r0,[r1,#0x200]
        0x0000d240:    4328        (C      ORRS     r0,r0,r5
        0x0000d242:    f8c10200    ....    STR      r0,[r1,#0x200]
        0x0000d246:    f8d10210    ....    LDR      r0,[r1,#0x210]
        0x0000d24a:    4320         C      ORRS     r0,r0,r4
        0x0000d24c:    f8c10210    ....    STR      r0,[r1,#0x210]
        0x0000d250:    9800        ..      LDR      r0,[sp,#0]
        0x0000d252:    f7feffc9    ....    BL       am_hal_interrupt_master_set ; 0xc1e8
        0x0000d256:    2000        .       MOVS     r0,#0
        0x0000d258:    bd38        8.      POP      {r3-r5,pc}
    $d
        0x0000d25a:    0000        ..      DCW    0
        0x0000d25c:    40010000    ...@    DCD    1073807360
    $t
    i.am_hal_gpio_interrupt_register
    am_hal_gpio_interrupt_register
        0x0000d260:    2832        2(      CMP      r0,#0x32
        0x0000d262:    bf24        $.      ITT      CS
        0x0000d264:    2005        .       MOVCS    r0,#5
        0x0000d266:    4770        pG      BXCS     lr
        0x0000d268:    2900        .)      CMP      r1,#0
        0x0000d26a:    bf04        ..      ITT      EQ
        0x0000d26c:    2006        .       MOVEQ    r0,#6
        0x0000d26e:    4770        pG      BXEQ     lr
        0x0000d270:    4a02        .J      LDR      r2,[pc,#8] ; [0xd27c] = 0x10001290
        0x0000d272:    f8421020    B. .    STR      r1,[r2,r0,LSL #2]
        0x0000d276:    2000        .       MOVS     r0,#0
        0x0000d278:    4770        pG      BX       lr
    $d
        0x0000d27a:    0000        ..      DCW    0
        0x0000d27c:    10001290    ....    DCD    268440208
    $t
    i.am_hal_gpio_interrupt_service
    am_hal_gpio_interrupt_service
        0x0000d280:    e92d47f0    -..G    PUSH     {r4-r10,lr}
        0x0000d284:    4607        .F      MOV      r7,r0
        0x0000d286:    4608        .F      MOV      r0,r1
        0x0000d288:    f04f0800    O...    MOV      r8,#0
        0x0000d28c:    f36f0011    o...    BFC      r0,#0,#18
        0x0000d290:    460e        .F      MOV      r6,r1
        0x0000d292:    ea580000    X...    ORRS     r0,r8,r0
        0x0000d296:    bf1c        ..      ITT      NE
        0x0000d298:    2005        .       MOVNE    r0,#5
        0x0000d29a:    e8bd87f0    ....    POPNE    {r4-r10,pc}
        0x0000d29e:    ea570006    W...    ORRS     r0,r7,r6
        0x0000d2a2:    bf04        ..      ITT      EQ
        0x0000d2a4:    2001        .       MOVEQ    r0,#1
        0x0000d2a6:    e8bd87f0    ....    POPEQ    {r4-r10,pc}
        0x0000d2aa:    2500        .%      MOVS     r5,#0
        0x0000d2ac:    f8df9044    ..D.    LDR      r9,[pc,#68] ; [0xd2f4] = 0x10001290
        0x0000d2b0:    f04f0a01    O...    MOV      r10,#1
        0x0000d2b4:    462a        *F      MOV      r2,r5
        0x0000d2b6:    4638        8F      MOV      r0,r7
        0x0000d2b8:    4631        1F      MOV      r1,r6
        0x0000d2ba:    f7feffa5    ....    BL       __aeabi_llsr ; 0xc208
        0x0000d2be:    0004        ..      MOVS     r4,r0
        0x0000d2c0:    d012        ..      BEQ      0xd2e8 ; am_hal_gpio_interrupt_service + 104
        0x0000d2c2:    4260        `B      RSBS     r0,r4,#0
        0x0000d2c4:    4020         @      ANDS     r0,r0,r4
        0x0000d2c6:    fab0f080    ....    CLZ      r0,r0
        0x0000d2ca:    f1c0001f    ....    RSB      r0,r0,#0x1f
        0x0000d2ce:    fa0af100    ....    LSL      r1,r10,r0
        0x0000d2d2:    4428        (D      ADD      r0,r0,r5
        0x0000d2d4:    438c        .C      BICS     r4,r4,r1
        0x0000d2d6:    f8590020    Y. .    LDR      r0,[r9,r0,LSL #2]
        0x0000d2da:    2800        .(      CMP      r0,#0
        0x0000d2dc:    bf0c        ..      ITE      EQ
        0x0000d2de:    f04f0807    O...    MOVEQ    r8,#7
        0x0000d2e2:    4780        .G      BLXNE    r0
        0x0000d2e4:    2c00        .,      CMP      r4,#0
        0x0000d2e6:    d1ec        ..      BNE      0xd2c2 ; am_hal_gpio_interrupt_service + 66
        0x0000d2e8:    3520         5      ADDS     r5,r5,#0x20
        0x0000d2ea:    2d21        !-      CMP      r5,#0x21
        0x0000d2ec:    d3e2        ..      BCC      0xd2b4 ; am_hal_gpio_interrupt_service + 52
        0x0000d2ee:    4640        @F      MOV      r0,r8
        0x0000d2f0:    e8bd87f0    ....    POP      {r4-r10,pc}
    $d
        0x0000d2f4:    10001290    ....    DCD    268440208
    $t
    i.am_hal_gpio_interrupt_status_get
    am_hal_gpio_interrupt_status_get
        0x0000d2f8:    2900        .)      CMP      r1,#0
        0x0000d2fa:    bf04        ..      ITT      EQ
        0x0000d2fc:    2006        .       MOVEQ    r0,#6
        0x0000d2fe:    4770        pG      BXEQ     lr
        0x0000d300:    b5f8        ..      PUSH     {r3-r7,lr}
        0x0000d302:    f04f34ff    O..4    MOV      r4,#0xffffffff
        0x0000d306:    460e        .F      MOV      r6,r1
        0x0000d308:    4607        .F      MOV      r7,r0
        0x0000d30a:    4625        %F      MOV      r5,r4
        0x0000d30c:    f7feff68    ..h.    BL       am_hal_interrupt_master_disable ; 0xc1e0
        0x0000d310:    9000        ..      STR      r0,[sp,#0]
        0x0000d312:    480d        .H      LDR      r0,[pc,#52] ; [0xd348] = 0x40010000
        0x0000d314:    f8d01214    ....    LDR      r1,[r0,#0x214]
        0x0000d318:    f8d03204    ...2    LDR      r3,[r0,#0x204]
        0x0000d31c:    2200        ."      MOVS     r2,#0
        0x0000d31e:    4313        .C      ORRS     r3,r3,r2
        0x0000d320:    4311        .C      ORRS     r1,r1,r2
        0x0000d322:    b13f        ?.      CBZ      r7,0xd334 ; am_hal_gpio_interrupt_status_get + 60
        0x0000d324:    f8d0c210    ....    LDR      r12,[r0,#0x210]
        0x0000d328:    f8d00200    ....    LDR      r0,[r0,#0x200]
        0x0000d32c:    ea42050c    B...    ORR      r5,r2,r12
        0x0000d330:    ea400402    @...    ORR      r4,r0,r2
        0x0000d334:    ea030004    ....    AND      r0,r3,r4
        0x0000d338:    4029        )@      ANDS     r1,r1,r5
        0x0000d33a:    e9c60100    ....    STRD     r0,r1,[r6,#0]
        0x0000d33e:    9800        ..      LDR      r0,[sp,#0]
        0x0000d340:    f7feff52    ..R.    BL       am_hal_interrupt_master_set ; 0xc1e8
        0x0000d344:    2000        .       MOVS     r0,#0
        0x0000d346:    bdf8        ..      POP      {r3-r7,pc}
    $d
        0x0000d348:    40010000    ...@    DCD    1073807360
    $t
    i.am_hal_gpio_pinconfig
    am_hal_gpio_pinconfig
        0x0000d34c:    e92d4ff0    -..O    PUSH     {r4-r11,lr}
        0x0000d350:    2500        .%      MOVS     r5,#0
        0x0000d352:    b08b        ..      SUB      sp,sp,#0x2c
        0x0000d354:    4604        .F      MOV      r4,r0
        0x0000d356:    2832        2(      CMP      r0,#0x32
        0x0000d358:    bf22        ".      ITTT     CS
        0x0000d35a:    2006        .       MOVCS    r0,#6
        0x0000d35c:    b00b        ..      ADDCS    sp,sp,#0x2c
        0x0000d35e:    e8bd8ff0    ....    POPCS    {r4-r11,pc}
        0x0000d362:    2200        ."      MOVS     r2,#0
        0x0000d364:    f0010307    ....    AND      r3,r1,#7
        0x0000d368:    4f8b        .O      LDR      r7,[pc,#556] ; [0xd598] = 0x1175a
        0x0000d36a:    f3c10cc1    ....    UBFX     r12,r1,#3,#2
        0x0000d36e:    ea4200c3    B...    ORR      r0,r2,r3,LSL #3
        0x0000d372:    f0110fe0    ....    TST      r1,#0xe0
        0x0000d376:    d021        !.      BEQ      0xd3bc ; am_hal_gpio_pinconfig + 112
        0x0000d378:    f3c11642    ..B.    UBFX     r6,r1,#5,#3
        0x0000d37c:    f1a60902    ....    SUB      r9,r6,#2
        0x0000d380:    f8df8218    ....    LDR      r8,[pc,#536] ; [0xd59c] = 0x8000100
        0x0000d384:    f0400001    @...    ORR      r0,r0,#1
        0x0000d388:    f1b90f03    ....    CMP      r9,#3
        0x0000d38c:    d809        ..      BHI      0xd3a2 ; am_hal_gpio_pinconfig + 86
        0x0000d38e:    f06f097f    o...    MVN      r9,#0x7f
        0x0000d392:    eb091686    ....    ADD      r6,r9,r6,LSL #6
        0x0000d396:    4330        0C      ORRS     r0,r0,r6
        0x0000d398:    5d3e        >]      LDRB     r6,[r7,r4]
        0x0000d39a:    f0160f01    ....    TST      r6,#1
        0x0000d39e:    d10d        ..      BNE      0xd3bc ; am_hal_gpio_pinconfig + 112
        0x0000d3a0:    e016        ..      B        0xd3d0 ; am_hal_gpio_pinconfig + 132
        0x0000d3a2:    2e06        ..      CMP      r6,#6
        0x0000d3a4:    d004        ..      BEQ      0xd3b0 ; am_hal_gpio_pinconfig + 100
        0x0000d3a6:    2e01        ..      CMP      r6,#1
        0x0000d3a8:    bf08        ..      IT       EQ
        0x0000d3aa:    2c14        .,      CMPEQ    r4,#0x14
        0x0000d3ac:    d010        ..      BEQ      0xd3d0 ; am_hal_gpio_pinconfig + 132
        0x0000d3ae:    e005        ..      B        0xd3bc ; am_hal_gpio_pinconfig + 112
        0x0000d3b0:    2c14        .,      CMP      r4,#0x14
        0x0000d3b2:    bf1e        ..      ITTT     NE
        0x0000d3b4:    487a        zH      LDRNE    r0,[pc,#488] ; [0xd5a0] = 0x8000101
        0x0000d3b6:    b00b        ..      ADDNE    sp,sp,#0x2c
        0x0000d3b8:    e8bd8ff0    ....    POPNE    {r4-r11,pc}
        0x0000d3bc:    f1bc0f00    ....    CMP      r12,#0
        0x0000d3c0:    d012        ..      BEQ      0xd3e8 ; am_hal_gpio_pinconfig + 156
        0x0000d3c2:    f1bc0f01    ....    CMP      r12,#1
        0x0000d3c6:    d007        ..      BEQ      0xd3d8 ; am_hal_gpio_pinconfig + 140
        0x0000d3c8:    f1bc0f02    ....    CMP      r12,#2
        0x0000d3cc:    d03a        :.      BEQ      0xd444 ; am_hal_gpio_pinconfig + 248
        0x0000d3ce:    e041        A.      B        0xd454 ; am_hal_gpio_pinconfig + 264
        0x0000d3d0:    b00b        ..      ADD      sp,sp,#0x2c
        0x0000d3d2:    4640        @F      MOV      r0,r8
        0x0000d3d4:    e8bd8ff0    ....    POP      {r4-r11,pc}
        0x0000d3d8:    f817c004    ....    LDRB     r12,[r7,r4]
        0x0000d3dc:    f01c0f02    ....    TST      r12,#2
        0x0000d3e0:    bf18        ..      IT       NE
        0x0000d3e2:    f0400040    @.@.    ORRNE    r0,r0,#0x40
        0x0000d3e6:    d035        5.      BEQ      0xd454 ; am_hal_gpio_pinconfig + 264
        0x0000d3e8:    f8dfc1b8    ....    LDR      r12,[pc,#440] ; [0xd5a4] = 0x11728
        0x0000d3ec:    f81c6004    ...`    LDRB     r6,[r12,r4]
        0x0000d3f0:    f04f0c01    O...    MOV      r12,#1
        0x0000d3f4:    fa0cfc03    ....    LSL      r12,r12,r3
        0x0000d3f8:    ea160c0c    ....    ANDS     r12,r6,r12
        0x0000d3fc:    bf18        ..      IT       NE
        0x0000d3fe:    f04f0c02    O...    MOVNE    r12,#2
        0x0000d402:    ea4c0000    L...    ORR      r0,r12,r0
        0x0000d406:    f8dfc1a0    ....    LDR      r12,[pc,#416] ; [0xd5a8] = 0x1178c
        0x0000d40a:    f81cc004    ....    LDRB     r12,[r12,r4]
        0x0000d40e:    459c        .E      CMP      r12,r3
        0x0000d410:    d132        2.      BNE      0xd478 ; am_hal_gpio_pinconfig + 300
        0x0000d412:    f3c14302    ...C    UBFX     r3,r1,#16,#3
        0x0000d416:    2b06        .+      CMP      r3,#6
        0x0000d418:    bf82        ..      ITTT     HI
        0x0000d41a:    4864        dH      LDRHI    r0,[pc,#400] ; [0xd5ac] = 0x8000103
        0x0000d41c:    b00b        ..      ADDHI    sp,sp,#0x2c
        0x0000d41e:    e8bd8ff0    ....    POPHI    {r4-r11,pc}
        0x0000d422:    f3c14cc1    ...L    UBFX     r12,r1,#19,#2
        0x0000d426:    ea4c1603    L...    ORR      r6,r12,r3,LSL #4
        0x0000d42a:    f8dfc184    ....    LDR      r12,[pc,#388] ; [0xd5b0] = 0x117be
        0x0000d42e:    2300        .#      MOVS     r3,#0
        0x0000d430:    eb0c0c84    ....    ADD      r12,r12,r4,LSL #2
        0x0000d434:    f81c7003    ...p    LDRB     r7,[r12,r3]
        0x0000d438:    42b7        .B      CMP      r7,r6
        0x0000d43a:    d00f        ..      BEQ      0xd45c ; am_hal_gpio_pinconfig + 272
        0x0000d43c:    1c5b        [.      ADDS     r3,r3,#1
        0x0000d43e:    2b04        .+      CMP      r3,#4
        0x0000d440:    d3f8        ..      BCC      0xd434 ; am_hal_gpio_pinconfig + 232
        0x0000d442:    e00d        ..      B        0xd460 ; am_hal_gpio_pinconfig + 276
        0x0000d444:    f817c004    ....    LDRB     r12,[r7,r4]
        0x0000d448:    f01c0f04    ....    TST      r12,#4
        0x0000d44c:    bf18        ..      IT       NE
        0x0000d44e:    f0400080    @...    ORRNE    r0,r0,#0x80
        0x0000d452:    d1c9        ..      BNE      0xd3e8 ; am_hal_gpio_pinconfig + 156
        0x0000d454:    b00b        ..      ADD      sp,sp,#0x2c
        0x0000d456:    4857        WH      LDR      r0,[pc,#348] ; [0xd5b4] = 0x8000102
        0x0000d458:    e8bd8ff0    ....    POP      {r4-r11,pc}
        0x0000d45c:    2b04        .+      CMP      r3,#4
        0x0000d45e:    d303        ..      BCC      0xd468 ; am_hal_gpio_pinconfig + 284
        0x0000d460:    b00b        ..      ADD      sp,sp,#0x2c
        0x0000d462:    4855        UH      LDR      r0,[pc,#340] ; [0xd5b8] = 0x8000104
        0x0000d464:    e8bd8ff0    ....    POP      {r4-r11,pc}
        0x0000d468:    005b        [.      LSLS     r3,r3,#1
        0x0000d46a:    f3c15c40    ..@\    UBFX     r12,r1,#21,#1
        0x0000d46e:    ea430ccc    C...    ORR      r12,r3,r12,LSL #3
        0x0000d472:    ea4c0302    L...    ORR      r3,r12,r2
        0x0000d476:    e022        ".      B        0xd4be ; am_hal_gpio_pinconfig + 370
        0x0000d478:    f3c13300    ...3    UBFX     r3,r1,#12,#1
        0x0000d47c:    f3c12c81    ...,    UBFX     r12,r1,#10,#2
        0x0000d480:    ea400043    @.C.    ORR      r0,r0,r3,LSL #1
        0x0000d484:    ea4f064c    O.L.    LSL      r6,r12,#1
        0x0000d488:    f3c13340    ..@3    UBFX     r3,r1,#13,#1
        0x0000d48c:    ea4603c3    F...    ORR      r3,r6,r3,LSL #3
        0x0000d490:    f3c13641    ..A6    UBFX     r6,r1,#13,#2
        0x0000d494:    ea430356    C.V.    ORR      r3,r3,r6,LSR #1
        0x0000d498:    f1bc0f01    ....    CMP      r12,#1
        0x0000d49c:    d005        ..      BEQ      0xd4aa ; am_hal_gpio_pinconfig + 350
        0x0000d49e:    f8dfc11c    ....    LDR      r12,[pc,#284] ; [0xd5bc] = 0x11724
        0x0000d4a2:    f8dcc000    ....    LDR      r12,[r12,#0]
        0x0000d4a6:    4561        aE      CMP      r1,r12
        0x0000d4a8:    d100        ..      BNE      0xd4ac ; am_hal_gpio_pinconfig + 352
        0x0000d4aa:    2501        .%      MOVS     r5,#1
        0x0000d4ac:    f4114fc0    ...O    TST      r1,#0x6000
        0x0000d4b0:    d105        ..      BNE      0xd4be ; am_hal_gpio_pinconfig + 370
        0x0000d4b2:    f0230301    #...    BIC      r3,r3,#1
        0x0000d4b6:    f3c13cc0    ...<    UBFX     r12,r1,#15,#1
        0x0000d4ba:    ea4c0303    L...    ORR      r3,r12,r3
        0x0000d4be:    f3c12101    ...!    UBFX     r1,r1,#8,#2
        0x0000d4c2:    b179        y.      CBZ      r1,0xd4e4 ; am_hal_gpio_pinconfig + 408
        0x0000d4c4:    2901        .)      CMP      r1,#1
        0x0000d4c6:    bf08        ..      IT       EQ
        0x0000d4c8:    f0400004    @...    ORREQ    r0,r0,#4
        0x0000d4cc:    d00a        ..      BEQ      0xd4e4 ; am_hal_gpio_pinconfig + 408
        0x0000d4ce:    2902        .)      CMP      r1,#2
        0x0000d4d0:    bf08        ..      IT       EQ
        0x0000d4d2:    f0420201    B...    ORREQ    r2,r2,#1
        0x0000d4d6:    d005        ..      BEQ      0xd4e4 ; am_hal_gpio_pinconfig + 408
        0x0000d4d8:    2903        .)      CMP      r1,#3
        0x0000d4da:    bf04        ..      ITT      EQ
        0x0000d4dc:    f0400004    @...    ORREQ    r0,r0,#4
        0x0000d4e0:    f0420201    B...    ORREQ    r2,r2,#1
        0x0000d4e4:    f06f0103    o...    MVN      r1,#3
        0x0000d4e8:    f8dfc0d4    ....    LDR      r12,[pc,#212] ; [0xd5c0] = 0x40010040
        0x0000d4ec:    ea010154    ..T.    AND      r1,r1,r4,LSR #1
        0x0000d4f0:    eb01090c    ....    ADD      r9,r1,r12
        0x0000d4f4:    f0240103    $...    BIC      r1,r4,#3
        0x0000d4f8:    f8dfc0c8    ....    LDR      r12,[pc,#200] ; [0xd5c4] = 0x400100e0
        0x0000d4fc:    f1014880    ...H    ADD      r8,r1,#0x40000000
        0x0000d500:    eb01070c    ....    ADD      r7,r1,r12
        0x0000d504:    0761        a.      LSLS     r1,r4,#29
        0x0000d506:    ea4f6cd1    O..l    LSR      r12,r1,#27
        0x0000d50a:    07a1        ..      LSLS     r1,r4,#30
        0x0000d50c:    0ec9        ..      LSRS     r1,r1,#27
        0x0000d50e:    260f        .&      MOVS     r6,#0xf
        0x0000d510:    fa06f60c    ....    LSL      r6,r6,r12
        0x0000d514:    ea6f0a06    o...    MVN      r10,r6
        0x0000d518:    26ff        .&      MOVS     r6,#0xff
        0x0000d51a:    408e        .@      LSLS     r6,r6,r1
        0x0000d51c:    4088        .@      LSLS     r0,r0,r1
        0x0000d51e:    9000        ..      STR      r0,[sp,#0]
        0x0000d520:    fa02f001    ....    LSL      r0,r2,r1
        0x0000d524:    f5083880    ...8    ADD      r8,r8,#0x10000
        0x0000d528:    43f6        .C      MVNS     r6,r6
        0x0000d52a:    fa03fb0c    ....    LSL      r11,r3,r12
        0x0000d52e:    9002        ..      STR      r0,[sp,#8]
        0x0000d530:    f7fefe56    ..V.    BL       am_hal_interrupt_master_disable ; 0xc1e0
        0x0000d534:    9003        ..      STR      r0,[sp,#0xc]
        0x0000d536:    b165        e.      CBZ      r5,0xd552 ; am_hal_gpio_pinconfig + 518
        0x0000d538:    f004011f    ....    AND      r1,r4,#0x1f
        0x0000d53c:    2001        .       MOVS     r0,#1
        0x0000d53e:    4088        .@      LSLS     r0,r0,r1
        0x0000d540:    2104        .!      MOVS     r1,#4
        0x0000d542:    ea0101d4    ....    AND      r1,r1,r4,LSR #3
        0x0000d546:    f1014180    ...A    ADD      r1,r1,#0x40000000
        0x0000d54a:    f5013180    ...1    ADD      r1,r1,#0x10000
        0x0000d54e:    f8c100b4    ....    STR      r0,[r1,#0xb4]
        0x0000d552:    481d        .H      LDR      r0,[pc,#116] ; [0xd5c8] = 0x40010000
        0x0000d554:    2173        s!      MOVS     r1,#0x73
        0x0000d556:    6601        .f      STR      r1,[r0,#0x60]
        0x0000d558:    f8d81000    ....    LDR      r1,[r8,#0]
        0x0000d55c:    ea010206    ....    AND      r2,r1,r6
        0x0000d560:    9900        ..      LDR      r1,[sp,#0]
        0x0000d562:    4311        .C      ORRS     r1,r1,r2
        0x0000d564:    f8c81000    ....    STR      r1,[r8,#0]
        0x0000d568:    f8d91000    ....    LDR      r1,[r9,#0]
        0x0000d56c:    ea01010a    ....    AND      r1,r1,r10
        0x0000d570:    ea41010b    A...    ORR      r1,r1,r11
        0x0000d574:    f8c91000    ....    STR      r1,[r9,#0]
        0x0000d578:    6839        9h      LDR      r1,[r7,#0]
        0x0000d57a:    ea010206    ....    AND      r2,r1,r6
        0x0000d57e:    9902        ..      LDR      r1,[sp,#8]
        0x0000d580:    4311        .C      ORRS     r1,r1,r2
        0x0000d582:    6039        9`      STR      r1,[r7,#0]
        0x0000d584:    2100        .!      MOVS     r1,#0
        0x0000d586:    6601        .f      STR      r1,[r0,#0x60]
        0x0000d588:    9803        ..      LDR      r0,[sp,#0xc]
        0x0000d58a:    f7fefe2d    ..-.    BL       am_hal_interrupt_master_set ; 0xc1e8
        0x0000d58e:    b00b        ..      ADD      sp,sp,#0x2c
        0x0000d590:    2000        .       MOVS     r0,#0
        0x0000d592:    e8bd8ff0    ....    POP      {r4-r11,pc}
    $d
        0x0000d596:    0000        ..      DCW    0
        0x0000d598:    0001175a    Z...    DCD    71514
        0x0000d59c:    08000100    ....    DCD    134217984
        0x0000d5a0:    08000101    ....    DCD    134217985
        0x0000d5a4:    00011728    (...    DCD    71464
        0x0000d5a8:    0001178c    ....    DCD    71564
        0x0000d5ac:    08000103    ....    DCD    134217987
        0x0000d5b0:    000117be    ....    DCD    71614
        0x0000d5b4:    08000102    ....    DCD    134217986
        0x0000d5b8:    08000104    ....    DCD    134217988
        0x0000d5bc:    00011724    $...    DCD    71460
        0x0000d5c0:    40010040    @..@    DCD    1073807424
        0x0000d5c4:    400100e0    ...@    DCD    1073807584
        0x0000d5c8:    40010000    ...@    DCD    1073807360
    $t
    i.am_hal_gpio_state_write
    am_hal_gpio_state_write
        0x0000d5cc:    b5f8        ..      PUSH     {r3-r7,lr}
        0x0000d5ce:    2700        .'      MOVS     r7,#0
        0x0000d5d0:    460d        .F      MOV      r5,r1
        0x0000d5d2:    4606        .F      MOV      r6,r0
        0x0000d5d4:    2832        2(      CMP      r0,#0x32
        0x0000d5d6:    bf24        $.      ITT      CS
        0x0000d5d8:    2005        .       MOVCS    r0,#5
        0x0000d5da:    bdf8        ..      POPCS    {r3-r7,pc}
        0x0000d5dc:    2d05        .-      CMP      r5,#5
        0x0000d5de:    bf84        ..      ITT      HI
        0x0000d5e0:    2006        .       MOVHI    r0,#6
        0x0000d5e2:    bdf8        ..      POPHI    {r3-r7,pc}
        0x0000d5e4:    f006001f    ....    AND      r0,r6,#0x1f
        0x0000d5e8:    2101        .!      MOVS     r1,#1
        0x0000d5ea:    fa01f400    ....    LSL      r4,r1,r0
        0x0000d5ee:    f7fefdf7    ....    BL       am_hal_interrupt_master_disable ; 0xc1e0
        0x0000d5f2:    9000        ..      STR      r0,[sp,#0]
        0x0000d5f4:    2004        .       MOVS     r0,#4
        0x0000d5f6:    ea0000d6    ....    AND      r0,r0,r6,LSR #3
        0x0000d5fa:    f1004080    ...@    ADD      r0,r0,#0x40000000
        0x0000d5fe:    f5003080    ...0    ADD      r0,r0,#0x10000
        0x0000d602:    2d06        .-      CMP      r5,#6
        0x0000d604:    d21c        ..      BCS      0xd640 ; am_hal_gpio_state_write + 116
        0x0000d606:    e8dff005    ....    TBB      [pc,r5]
    $d
        0x0000d60a:    0306        ..      DCW    774
        0x0000d60c:    150f1209    ....    DCD    353309193
    $t
        0x0000d610:    f8c04090    ...@    STR      r4,[r0,#0x90]
        0x0000d614:    e015        ..      B        0xd642 ; am_hal_gpio_state_write + 118
        0x0000d616:    f8c04098    ...@    STR      r4,[r0,#0x98]
        0x0000d61a:    e012        ..      B        0xd642 ; am_hal_gpio_state_write + 118
        0x0000d61c:    f8d01088    ....    LDR      r1,[r0,#0x88]
        0x0000d620:    4061        a@      EORS     r1,r1,r4
        0x0000d622:    f8c01088    ....    STR      r1,[r0,#0x88]
        0x0000d626:    e00c        ..      B        0xd642 ; am_hal_gpio_state_write + 118
        0x0000d628:    f8c040a8    ...@    STR      r4,[r0,#0xa8]
        0x0000d62c:    e009        ..      B        0xd642 ; am_hal_gpio_state_write + 118
        0x0000d62e:    f8c040b4    ...@    STR      r4,[r0,#0xb4]
        0x0000d632:    e006        ..      B        0xd642 ; am_hal_gpio_state_write + 118
        0x0000d634:    f8d010b4    ....    LDR      r1,[r0,#0xb4]
        0x0000d638:    4061        a@      EORS     r1,r1,r4
        0x0000d63a:    f8c010b4    ....    STR      r1,[r0,#0xb4]
        0x0000d63e:    e000        ..      B        0xd642 ; am_hal_gpio_state_write + 118
        0x0000d640:    2706        .'      MOVS     r7,#6
        0x0000d642:    9800        ..      LDR      r0,[sp,#0]
        0x0000d644:    f7fefdd0    ....    BL       am_hal_interrupt_master_set ; 0xc1e8
        0x0000d648:    4638        8F      MOV      r0,r7
        0x0000d64a:    bdf8        ..      POP      {r3-r7,pc}
    i.am_hal_iom_CQAddTransaction
    am_hal_iom_CQAddTransaction
        0x0000d64c:    e92d4ff0    -..O    PUSH     {r4-r11,lr}
        0x0000d650:    4605        .F      MOV      r5,r0
        0x0000d652:    6a40        @j      LDR      r0,[r0,#0x24]
        0x0000d654:    b083        ..      SUB      sp,sp,#0xc
        0x0000d656:    461e        .F      MOV      r6,r3
        0x0000d658:    4617        .F      MOV      r7,r2
        0x0000d65a:    460c        .F      MOV      r4,r1
        0x0000d65c:    f5b07f80    ....    CMP      r0,#0x100
        0x0000d660:    d007        ..      BEQ      0xd672 ; am_hal_iom_CQAddTransaction + 38
        0x0000d662:    466b        kF      MOV      r3,sp
        0x0000d664:    aa01        ..      ADD      r2,sp,#4
        0x0000d666:    210b        .!      MOVS     r1,#0xb
        0x0000d668:    f8d50828    ..(.    LDR      r0,[r5,#0x828]
        0x0000d66c:    f7fffb16    ....    BL       am_hal_cmdq_alloc_block ; 0xcc9c
        0x0000d670:    b118        ..      CBZ      r0,0xd67a ; am_hal_iom_CQAddTransaction + 46
        0x0000d672:    b003        ..      ADD      sp,sp,#0xc
        0x0000d674:    2005        .       MOVS     r0,#5
        0x0000d676:    e8bd8ff0    ....    POP      {r4-r11,pc}
        0x0000d67a:    f8ddc004    ....    LDR      r12,[sp,#4]
        0x0000d67e:    4a58        XJ      LDR      r2,[pc,#352] ; [0xd7e0] = 0x50004220
        0x0000d680:    6868        hh      LDR      r0,[r5,#4]
        0x0000d682:    7c21        !|      LDRB     r1,[r4,#0x10]
        0x0000d684:    eb023200    ...2    ADD      r2,r2,r0,LSL #12
        0x0000d688:    f8cc2010    ...     STR      r2,[r12,#0x10]
        0x0000d68c:    68a2        .h      LDR      r2,[r4,#8]
        0x0000d68e:    f3c2220f    ..."    UBFX     r2,r2,#8,#16
        0x0000d692:    f8cc2014    ...     STR      r2,[r12,#0x14]
        0x0000d696:    4a53        SJ      LDR      r2,[pc,#332] ; [0xd7e4] = 0x50004404
        0x0000d698:    eb023200    ...2    ADD      r2,r2,r0,LSL #12
        0x0000d69c:    f8cc2018    ...     STR      r2,[r12,#0x18]
        0x0000d6a0:    8822        ".      LDRH     r2,[r4,#0]
        0x0000d6a2:    f3c20209    ....    UBFX     r2,r2,#0,#10
        0x0000d6a6:    f8cc201c    ...     STR      r2,[r12,#0x1c]
        0x0000d6aa:    4a4f        OJ      LDR      r2,[pc,#316] ; [0xd7e8] = 0x50004280
        0x0000d6ac:    eb023300    ...3    ADD      r3,r2,r0,LSL #12
        0x0000d6b0:    2200        ."      MOVS     r2,#0
        0x0000d6b2:    e9cc3208    ...2    STRD     r3,r2,[r12,#0x20]
        0x0000d6b6:    4a4d        MJ      LDR      r2,[pc,#308] ; [0xd7ec] = 0x50004288
        0x0000d6b8:    2900        .)      CMP      r1,#0
        0x0000d6ba:    eb023200    ...2    ADD      r2,r2,r0,LSL #12
        0x0000d6be:    f8cc2028    ..(     STR      r2,[r12,#0x28]
        0x0000d6c2:    68e2        .h      LDR      r2,[r4,#0xc]
        0x0000d6c4:    f8cc202c    ..,     STR      r2,[r12,#0x2c]
        0x0000d6c8:    4a49        IJ      LDR      r2,[pc,#292] ; [0xd7f0] = 0x5000428c
        0x0000d6ca:    eb023200    ...2    ADD      r2,r2,r0,LSL #12
        0x0000d6ce:    f8cc2030    ..0     STR      r2,[r12,#0x30]
        0x0000d6d2:    bf14        ..      ITE      NE
        0x0000d6d4:    69a2        .i      LDRNE    r2,[r4,#0x18]
        0x0000d6d6:    6962        bi      LDREQ    r2,[r4,#0x14]
        0x0000d6d8:    e9cc230d    ...#    STRD     r2,r3,[r12,#0x34]
        0x0000d6dc:    7fa2        ..      LDRB     r2,[r4,#0x1e]
        0x0000d6de:    f44f7380    O..s    MOV      r3,#0x100
        0x0000d6e2:    ea032302    ...#    AND      r3,r3,r2,LSL #8
        0x0000d6e6:    bf0c        ..      ITE      EQ
        0x0000d6e8:    2201        ."      MOVEQ    r2,#1
        0x0000d6ea:    2200        ."      MOVNE    r2,#0
        0x0000d6ec:    ea430242    C.B.    ORR      r2,r3,r2,LSL #1
        0x0000d6f0:    f8cc203c    ..<     STR      r2,[r12,#0x3c]
        0x0000d6f4:    68e3        .h      LDR      r3,[r4,#0xc]
        0x0000d6f6:    2b00        .+      CMP      r3,#0
        0x0000d6f8:    bf1c        ..      ITT      NE
        0x0000d6fa:    f0420201    B...    ORRNE    r2,r2,#1
        0x0000d6fe:    f8cc203c    ..<     STRNE    r2,[r12,#0x3c]
        0x0000d702:    4a3c        <J      LDR      r2,[pc,#240] ; [0xd7f4] = 0x5000421c
        0x0000d704:    eb023200    ...2    ADD      r2,r2,r0,LSL #12
        0x0000d708:    f8cc2040    ..@     STR      r2,[r12,#0x40]
        0x0000d70c:    7a2a        *z      LDRB     r2,[r5,#8]
        0x0000d70e:    2a00        .*      CMP      r2,#0
        0x0000d710:    bf03        ..      ITTTE    EQ
        0x0000d712:    6823        #h      LDREQ    r3,[r4,#0]
        0x0000d714:    f6050298    ....    ADDEQ    r2,r5,#0x898
        0x0000d718:    5c9a        .\      LDRBEQ   r2,[r3,r2]
        0x0000d71a:    2200        ."      MOVNE    r2,#0
        0x0000d71c:    f8cc2044    ..D     STR      r2,[r12,#0x44]
        0x0000d720:    7a2a        *z      LDRB     r2,[r5,#8]
        0x0000d722:    2a00        .*      CMP      r2,#0
        0x0000d724:    bf0c        ..      ITE      EQ
        0x0000d726:    6822        "h      LDREQ    r2,[r4,#0]
        0x0000d728:    2200        ."      MOVNE    r2,#0
        0x0000d72a:    f894901c    ....    LDRB     r9,[r4,#0x1c]
        0x0000d72e:    f44f1b40    O.@.    MOV      r11,#0x300000
        0x0000d732:    ea0b5202    ...R    AND      r2,r11,r2,LSL #20
        0x0000d736:    e9d48a02    ....    LDRD     r8,r10,[r4,#8]
        0x0000d73a:    f8dfb0bc    ....    LDR      r11,[pc,#188] ; [0xd7f8] = 0xfffff
        0x0000d73e:    6863        ch      LDR      r3,[r4,#4]
        0x0000d740:    ea0b2a0a    ...*    AND      r10,r11,r10,LSL #8
        0x0000d744:    ea4a0202    J...    ORR      r2,r10,r2
        0x0000d748:    2901        .)      CMP      r1,#1
        0x0000d74a:    bf0c        ..      ITE      EQ
        0x0000d74c:    f0420102    B...    ORREQ    r1,r2,#2
        0x0000d750:    f0420101    B...    ORRNE    r1,r2,#1
        0x0000d754:    2280        ."      MOVS     r2,#0x80
        0x0000d756:    ea0212c9    ....    AND      r2,r2,r9,LSL #7
        0x0000d75a:    4311        .C      ORRS     r1,r1,r2
        0x0000d75c:    2260        `"      MOVS     r2,#0x60
        0x0000d75e:    ea416108    A..a    ORR      r1,r1,r8,LSL #24
        0x0000d762:    ea021243    ..C.    AND      r2,r2,r3,LSL #5
        0x0000d766:    4311        .C      ORRS     r1,r1,r2
        0x0000d768:    4a24        $J      LDR      r2,[pc,#144] ; [0xd7fc] = 0x50004218
        0x0000d76a:    eb023200    ...2    ADD      r2,r2,r0,LSL #12
        0x0000d76e:    e9cc2112    ...!    STRD     r2,r1,[r12,#0x48]
        0x0000d772:    4923        #I      LDR      r1,[pc,#140] ; [0xd800] = 0x500042a8
        0x0000d774:    eb013100    ...1    ADD      r1,r1,r0,LSL #12
        0x0000d778:    f8cc1008    ....    STR      r1,[r12,#8]
        0x0000d77c:    f8cc1000    ....    STR      r1,[r12,#0]
        0x0000d780:    f44f4100    O..A    MOV      r1,#0x8000
        0x0000d784:    f8cc100c    ....    STR      r1,[r12,#0xc]
        0x0000d788:    f8d52838    ..8(    LDR      r2,[r5,#0x838]
        0x0000d78c:    6a21        !j      LDR      r1,[r4,#0x20]
        0x0000d78e:    2a01        .*      CMP      r2,#1
        0x0000d790:    d01f        ..      BEQ      0xd7d2 ; am_hal_iom_CQAddTransaction + 390
        0x0000d792:    2a02        .*      CMP      r2,#2
        0x0000d794:    bf0e        ..      ITEE     EQ
        0x0000d796:    f44f4100    O..A    MOVEQ    r1,#0x8000
        0x0000d79a:    f2480280    H...    MOVNE    r2,#0x8080
        0x0000d79e:    4311        .C      ORRNE    r1,r1,r2
        0x0000d7a0:    f8cc1004    ....    STR      r1,[r12,#4]
        0x0000d7a4:    6a61        aj      LDR      r1,[r4,#0x24]
        0x0000d7a6:    f8cc1054    ..T.    STR      r1,[r12,#0x54]
        0x0000d7aa:    4916        .I      LDR      r1,[pc,#88] ; [0xd804] = 0x500042a4
        0x0000d7ac:    eb013000    ...0    ADD      r0,r1,r0,LSL #12
        0x0000d7b0:    f8cc0050    ..P.    STR      r0,[r12,#0x50]
        0x0000d7b4:    9800        ..      LDR      r0,[sp,#0]
        0x0000d7b6:    b2c0        ..      UXTB     r0,r0
        0x0000d7b8:    eb050080    ....    ADD      r0,r5,r0,LSL #2
        0x0000d7bc:    6287        .b      STR      r7,[r0,#0x28]
        0x0000d7be:    9800        ..      LDR      r0,[sp,#0]
        0x0000d7c0:    b2c0        ..      UXTB     r0,r0
        0x0000d7c2:    eb050080    ....    ADD      r0,r5,r0,LSL #2
        0x0000d7c6:    f8c06428    ..(d    STR      r6,[r0,#0x428]
        0x0000d7ca:    b003        ..      ADD      sp,sp,#0xc
        0x0000d7cc:    2000        .       MOVS     r0,#0
        0x0000d7ce:    e8bd8ff0    ....    POP      {r4-r11,pc}
        0x0000d7d2:    f24802a0    H...    MOV      r2,#0x80a0
        0x0000d7d6:    4311        .C      ORRS     r1,r1,r2
        0x0000d7d8:    2302        .#      MOVS     r3,#2
        0x0000d7da:    f8c53838    ..88    STR      r3,[r5,#0x838]
        0x0000d7de:    e7df        ..      B        0xd7a0 ; am_hal_iom_CQAddTransaction + 340
    $d
        0x0000d7e0:    50004220     B.P    DCD    1342194208
        0x0000d7e4:    50004404    .D.P    DCD    1342194692
        0x0000d7e8:    50004280    .B.P    DCD    1342194304
        0x0000d7ec:    50004288    .B.P    DCD    1342194312
        0x0000d7f0:    5000428c    .B.P    DCD    1342194316
        0x0000d7f4:    5000421c    .B.P    DCD    1342194204
        0x0000d7f8:    000fffff    ....    DCD    1048575
        0x0000d7fc:    50004218    .B.P    DCD    1342194200
        0x0000d800:    500042a8    .B.P    DCD    1342194344
        0x0000d804:    500042a4    .B.P    DCD    1342194340
    $t
    i.am_hal_iom_configure
    am_hal_iom_configure
        0x0000d808:    e92d4ff0    -..O    PUSH     {r4-r11,lr}
        0x0000d80c:    f1b00c00    ....    SUBS     r12,r0,#0
        0x0000d810:    bf1c        ..      ITT      NE
        0x0000d812:    f8dc2000    ...     LDRNE    r2,[r12,#0]
        0x0000d816:    f0127f80    ....    TSTNE    r2,#0x1000000
        0x0000d81a:    d004        ..      BEQ      0xd826 ; am_hal_iom_configure + 30
        0x0000d81c:    4b8d        .K      LDR      r3,[pc,#564] ; [0xda54] = 0x123456
        0x0000d81e:    f022407f    "..@    BIC      r0,r2,#0xff000000
        0x0000d822:    4298        .B      CMP      r0,r3
        0x0000d824:    d002        ..      BEQ      0xd82c ; am_hal_iom_configure + 36
        0x0000d826:    2002        .       MOVS     r0,#2
        0x0000d828:    e8bd8ff0    ....    POP      {r4-r11,pc}
        0x0000d82c:    2900        .)      CMP      r1,#0
        0x0000d82e:    bf1c        ..      ITT      NE
        0x0000d830:    f8dc0004    ....    LDRNE    r0,[r12,#4]
        0x0000d834:    2806        .(      CMPNE    r0,#6
        0x0000d836:    d22e        ..      BCS      0xd896 ; am_hal_iom_configure + 142
        0x0000d838:    f0127f00    ....    TST      r2,#0x2000000
        0x0000d83c:    bf1c        ..      ITT      NE
        0x0000d83e:    2007        .       MOVNE    r0,#7
        0x0000d840:    e8bd8ff0    ....    POPNE    {r4-r11,pc}
        0x0000d844:    780a        .x      LDRB     r2,[r1,#0]
        0x0000d846:    0300        ..      LSLS     r0,r0,#12
        0x0000d848:    f10045a0    ...E    ADD      r5,r0,#0x50000000
        0x0000d84c:    f88c2008    ...     STRB     r2,[r12,#8]
        0x0000d850:    f5054580    ...E    ADD      r5,r5,#0x4000
        0x0000d854:    f2410210    A...    MOV      r2,#0x1010
        0x0000d858:    f8c52104    ...!    STR      r2,[r5,#0x104]
        0x0000d85c:    7808        .x      LDRB     r0,[r1,#0]
        0x0000d85e:    b1e8        ..      CBZ      r0,0xd89c ; am_hal_iom_configure + 148
        0x0000d860:    2801        .(      CMP      r0,#1
        0x0000d862:    bf1c        ..      ITT      NE
        0x0000d864:    2005        .       MOVNE    r0,#5
        0x0000d866:    e8bd8ff0    ....    POPNE    {r4-r11,pc}
        0x0000d86a:    6848        Hh      LDR      r0,[r1,#4]
        0x0000d86c:    f5a060d4    ...`    SUB      r0,r0,#0x6a0
        0x0000d870:    f5b030c0    ...0    SUBS     r0,r0,#0x18000
        0x0000d874:    bf04        ..      ITT      EQ
        0x0000d876:    4a78        xJ      LDREQ    r2,[pc,#480] ; [0xda58] = 0x773b1201
        0x0000d878:    4878        xH      LDREQ    r0,[pc,#480] ; [0xda5c] = 0x3f070
        0x0000d87a:    d07d        }.      BEQ      0xd978 ; am_hal_iom_configure + 368
        0x0000d87c:    f5a0509f    ...P    SUB      r0,r0,#0x13e0
        0x0000d880:    f5b02090    ...     SUBS     r0,r0,#0x48000
        0x0000d884:    bf04        ..      ITT      EQ
        0x0000d886:    4a76        vJ      LDREQ    r2,[pc,#472] ; [0xda60] = 0x1d0e1201
        0x0000d888:    4876        vH      LDREQ    r0,[pc,#472] ; [0xda64] = 0x3f270
        0x0000d88a:    d075        u.      BEQ      0xd978 ; am_hal_iom_configure + 368
        0x0000d88c:    f5a0501f    ...P    SUB      r0,r0,#0x27c0
        0x0000d890:    f5b02f10    .../    CMP      r0,#0x90000
        0x0000d894:    d071        q.      BEQ      0xd97a ; am_hal_iom_configure + 370
        0x0000d896:    2006        .       MOVS     r0,#6
        0x0000d898:    e8bd8ff0    ....    POP      {r4-r11,pc}
        0x0000d89c:    7a0e        .z      LDRB     r6,[r1,#8]
        0x0000d89e:    2e03        ..      CMP      r6,#3
        0x0000d8a0:    d8f9        ..      BHI      0xd896 ; am_hal_iom_configure + 142
        0x0000d8a2:    4871        qH      LDR      r0,[pc,#452] ; [0xda68] = 0x2dc6c00
        0x0000d8a4:    684a        Jh      LDR      r2,[r1,#4]
        0x0000d8a6:    4282        .B      CMP      r2,r0
        0x0000d8a8:    d8f5        ..      BHI      0xd896 ; am_hal_iom_configure + 142
        0x0000d8aa:    f3c60940    ..@.    UBFX     r9,r6,#1,#1
        0x0000d8ae:    2a00        .*      CMP      r2,#0
        0x0000d8b0:    d07e        ~.      BEQ      0xd9b0 ; am_hal_iom_configure + 424
        0x0000d8b2:    fbb0f3f2    ....    UDIV     r3,r0,r2
        0x0000d8b6:    fbb0f4f2    ....    UDIV     r4,r0,r2
        0x0000d8ba:    fb020014    ....    MLS      r0,r2,r4,r0
        0x0000d8be:    2800        .(      CMP      r0,#0
        0x0000d8c0:    bf18        ..      IT       NE
        0x0000d8c2:    2001        .       MOVNE    r0,#1
        0x0000d8c4:    181c        ..      ADDS     r4,r3,r0
        0x0000d8c6:    4260        `B      RSBS     r0,r4,#0
        0x0000d8c8:    4020         @      ANDS     r0,r0,r4
        0x0000d8ca:    fab0f080    ....    CLZ      r0,r0
        0x0000d8ce:    f1c0031f    ....    RSB      r3,r0,#0x1f
        0x0000d8d2:    2b06        .+      CMP      r3,#6
        0x0000d8d4:    dc6d        m.      BGT      0xd9b2 ; am_hal_iom_configure + 426
        0x0000d8d6:    bf00        ..      NOP      
        0x0000d8d8:    f5b26f37    ..7o    CMP      r2,#0xb70
        0x0000d8dc:    d909        ..      BLS      0xd8f2 ; am_hal_iom_configure + 234
        0x0000d8de:    f5a20774    ..t.    SUB      r7,r2,#0xf40000
        0x0000d8e2:    4862        bH      LDR      r0,[pc,#392] ; [0xda6c] = 0x7a11ff
        0x0000d8e4:    f5a75710    ...W    SUB      r7,r7,#0x2400
        0x0000d8e8:    4287        .B      CMP      r7,r0
        0x0000d8ea:    bf88        ..      IT       HI
        0x0000d8ec:    f04f0a00    O...    MOVHI    r10,#0
        0x0000d8f0:    d801        ..      BHI      0xd8f6 ; am_hal_iom_configure + 238
        0x0000d8f2:    f04f0a01    O...    MOV      r10,#1
        0x0000d8f6:    2001        .       MOVS     r0,#1
        0x0000d8f8:    eb00084a    ..J.    ADD      r8,r0,r10,LSL #1
        0x0000d8fc:    fa08f003    ....    LSL      r0,r8,r3
        0x0000d900:    fbb4f7f0    ....    UDIV     r7,r4,r0
        0x0000d904:    fbb4fbf0    ....    UDIV     r11,r4,r0
        0x0000d908:    fb00401b    ...@    MLS      r0,r0,r11,r4
        0x0000d90c:    2800        .(      CMP      r0,#0
        0x0000d90e:    bf18        ..      IT       NE
        0x0000d910:    2001        .       MOVNE    r0,#1
        0x0000d912:    4438        8D      ADD      r0,r0,r7
        0x0000d914:    fab0f780    ....    CLZ      r7,r0
        0x0000d918:    f1c7071f    ....    RSB      r7,r7,#0x1f
        0x0000d91c:    2f07        ./      CMP      r7,#7
        0x0000d91e:    bf84        ..      ITT      HI
        0x0000d920:    443b        ;D      ADDHI    r3,r7
        0x0000d922:    1fdb        ..      SUBHI    r3,r3,#7
        0x0000d924:    1c5b        [.      ADDS     r3,r3,#1
        0x0000d926:    2b07        .+      CMP      r3,#7
        0x0000d928:    bf88        ..      IT       HI
        0x0000d92a:    2200        ."      MOVHI    r2,#0
        0x0000d92c:    d86b        k.      BHI      0xda06 ; am_hal_iom_configure + 510
        0x0000d92e:    2f07        ./      CMP      r7,#7
        0x0000d930:    d90e        ..      BLS      0xd950 ; am_hal_iom_configure + 328
        0x0000d932:    1fff        ..      SUBS     r7,r7,#7
        0x0000d934:    fa20fb07     ...    LSR      r11,r0,r7
        0x0000d938:    f04f0e01    O...    MOV      lr,#1
        0x0000d93c:    fa0ef707    ....    LSL      r7,lr,r7
        0x0000d940:    fbb0fef7    ....    UDIV     lr,r0,r7
        0x0000d944:    fb07001e    ....    MLS      r0,r7,lr,r0
        0x0000d948:    2800        .(      CMP      r0,#0
        0x0000d94a:    bf18        ..      IT       NE
        0x0000d94c:    2001        .       MOVNE    r0,#1
        0x0000d94e:    4458        XD      ADD      r0,r0,r11
        0x0000d950:    4f47        GO      LDR      r7,[pc,#284] ; [0xda70] = 0xb71b00
        0x0000d952:    42ba        .B      CMP      r2,r7
        0x0000d954:    d206        ..      BCS      0xd964 ; am_hal_iom_configure + 348
        0x0000d956:    1e5f        _.      SUBS     r7,r3,#1
        0x0000d958:    2201        ."      MOVS     r2,#1
        0x0000d95a:    40ba        .@      LSLS     r2,r2,r7
        0x0000d95c:    42a2        .B      CMP      r2,r4
        0x0000d95e:    bf18        ..      IT       NE
        0x0000d960:    2701        .'      MOVNE    r7,#1
        0x0000d962:    d100        ..      BNE      0xd966 ; am_hal_iom_configure + 350
        0x0000d964:    2700        .'      MOVS     r7,#0
        0x0000d966:    f1b90f00    ....    CMP      r9,#0
        0x0000d96a:    bf14        ..      ITE      NE
        0x0000d96c:    1e82        ..      SUBNE    r2,r0,#2
        0x0000d96e:    1e42        B.      SUBEQ    r2,r0,#1
        0x0000d970:    0852        R.      LSRS     r2,r2,#1
        0x0000d972:    f44f64e0    O..d    MOV      r4,#0x700
        0x0000d976:    e001        ..      B        0xd97c ; am_hal_iom_configure + 372
        0x0000d978:    e04a        J.      B        0xda10 ; am_hal_iom_configure + 520
        0x0000d97a:    e04c        L.      B        0xda16 ; am_hal_iom_configure + 526
        0x0000d97c:    ea042903    ...)    AND      r9,r4,r3,LSL #8
        0x0000d980:    f44f6400    O..d    MOV      r4,#0x800
        0x0000d984:    ea0424ca    ...$    AND      r4,r4,r10,LSL #11
        0x0000d988:    f44f5a80    O..Z    MOV      r10,#0x1000
        0x0000d98c:    ea490404    I...    ORR      r4,r9,r4
        0x0000d990:    ea0a3a07    ...:    AND      r10,r10,r7,LSL #12
        0x0000d994:    ea44040a    D...    ORR      r4,r4,r10
        0x0000d998:    f44f0a7f    O...    MOV      r10,#0xff0000
        0x0000d99c:    ea0a4202    ...B    AND      r2,r10,r2,LSL #16
        0x0000d9a0:    4322        "C      ORRS     r2,r2,r4
        0x0000d9a2:    f04f447f    O..D    MOV      r4,#0xff000000
        0x0000d9a6:    eb046400    ...d    ADD      r4,r4,r0,LSL #24
        0x0000d9aa:    4322        "C      ORRS     r2,r2,r4
        0x0000d9ac:    4c2e        .L      LDR      r4,[pc,#184] ; [0xda68] = 0x2dc6c00
        0x0000d9ae:    e001        ..      B        0xd9b4 ; am_hal_iom_configure + 428
        0x0000d9b0:    e029        ).      B        0xda06 ; am_hal_iom_configure + 510
        0x0000d9b2:    e04d        M.      B        0xda50 ; am_hal_iom_configure + 584
        0x0000d9b4:    f1a30a01    ....    SUB      r10,r3,#1
        0x0000d9b8:    fa08f30a    ....    LSL      r3,r8,r10
        0x0000d9bc:    1e40        @.      SUBS     r0,r0,#1
        0x0000d9be:    4378        xC      MULS     r0,r7,r0
        0x0000d9c0:    1c40        @.      ADDS     r0,r0,#1
        0x0000d9c2:    4358        XC      MULS     r0,r3,r0
        0x0000d9c4:    fbb4f7f0    ....    UDIV     r7,r4,r0
        0x0000d9c8:    fbb4f3f0    ....    UDIV     r3,r4,r0
        0x0000d9cc:    fb004717    ...G    MLS      r7,r0,r7,r4
        0x0000d9d0:    ebb70f50    ..P.    CMP      r7,r0,LSR #1
        0x0000d9d4:    bf8c        ..      ITE      HI
        0x0000d9d6:    2001        .       MOVHI    r0,#1
        0x0000d9d8:    2000        .       MOVLS    r0,#0
        0x0000d9da:    4403        .D      ADD      r3,r3,r0
        0x0000d9dc:    4825        %H      LDR      r0,[pc,#148] ; [0xda74] = 0x3d090
        0x0000d9de:    fbb3f7f0    ....    UDIV     r7,r3,r0
        0x0000d9e2:    fb003717    ...7    MLS      r7,r0,r7,r3
        0x0000d9e6:    b977        w.      CBNZ     r7,0xda06 ; am_hal_iom_configure + 510
        0x0000d9e8:    fbb3f0f0    ....    UDIV     r0,r3,r0
        0x0000d9ec:    b158        X.      CBZ      r0,0xda06 ; am_hal_iom_configure + 510
        0x0000d9ee:    1e47        G.      SUBS     r7,r0,#1
        0x0000d9f0:    4238        8B      TST      r0,r7
        0x0000d9f2:    d108        ..      BNE      0xda06 ; am_hal_iom_configure + 510
        0x0000d9f4:    2003        .       MOVS     r0,#3
        0x0000d9f6:    fa00f00a    ....    LSL      r0,r0,r10
        0x0000d9fa:    fbb4f2f0    ....    UDIV     r2,r4,r0
        0x0000d9fe:    fbb4f3f0    ....    UDIV     r3,r4,r0
        0x0000da02:    f4496200    I..b    ORR      r2,r9,#0x800
        0x0000da06:    f0060003    ....    AND      r0,r6,#3
        0x0000da0a:    f8c50300    ....    STR      r0,[r5,#0x300]
        0x0000da0e:    e006        ..      B        0xda1e ; am_hal_iom_configure + 534
        0x0000da10:    f8c50400    ....    STR      r0,[r5,#0x400]
        0x0000da14:    e003        ..      B        0xda1e ; am_hal_iom_configure + 534
        0x0000da16:    4a18        .J      LDR      r2,[pc,#96] ; [0xda78] = 0x6031301
        0x0000da18:    4818        .H      LDR      r0,[pc,#96] ; [0xda7c] = 0x213040
        0x0000da1a:    f8c50400    ....    STR      r0,[r5,#0x400]
        0x0000da1e:    f0420001    B...    ORR      r0,r2,#1
        0x0000da22:    f8c50210    ....    STR      r0,[r5,#0x210]
        0x0000da26:    4810        .H      LDR      r0,[pc,#64] ; [0xda68] = 0x2dc6c00
        0x0000da28:    684a        Jh      LDR      r2,[r1,#4]
        0x0000da2a:    fbb0f0f2    ....    UDIV     r0,r0,r2
        0x0000da2e:    f8cc085c    ..\.    STR      r0,[r12,#0x85c]
        0x0000da32:    f44f707a    O.zp    MOV      r0,#0x3e8
        0x0000da36:    f8cc0858    ..X.    STR      r0,[r12,#0x858]
        0x0000da3a:    68c8        .h      LDR      r0,[r1,#0xc]
        0x0000da3c:    f8cc000c    ....    STR      r0,[r12,#0xc]
        0x0000da40:    6908        .i      LDR      r0,[r1,#0x10]
        0x0000da42:    f8cc0010    ....    STR      r0,[r12,#0x10]
        0x0000da46:    2000        .       MOVS     r0,#0
        0x0000da48:    f8cc0898    ....    STR      r0,[r12,#0x898]
        0x0000da4c:    e8bd8ff0    ....    POP      {r4-r11,pc}
        0x0000da50:    2306        .#      MOVS     r3,#6
        0x0000da52:    e741        A.      B        0xd8d8 ; am_hal_iom_configure + 208
    $d
        0x0000da54:    00123456    V4..    DCD    1193046
        0x0000da58:    773b1201    ..;w    DCD    2000359937
        0x0000da5c:    0003f070    p...    DCD    258160
        0x0000da60:    1d0e1201    ....    DCD    487461377
        0x0000da64:    0003f270    p...    DCD    258672
        0x0000da68:    02dc6c00    .l..    DCD    48000000
        0x0000da6c:    007a11ff    ..z.    DCD    7999999
        0x0000da70:    00b71b00    ....    DCD    12000000
        0x0000da74:    0003d090    ....    DCD    250000
        0x0000da78:    06031301    ....    DCD    100864769
        0x0000da7c:    00213040    @0!.    DCD    2175040
    $t
    i.am_hal_iom_disable
    am_hal_iom_disable
        0x0000da80:    b570        p.      PUSH     {r4-r6,lr}
        0x0000da82:    1e04        ..      SUBS     r4,r0,#0
        0x0000da84:    bf1c        ..      ITT      NE
        0x0000da86:    6801        .h      LDRNE    r1,[r0,#0]
        0x0000da88:    f0117f80    ....    TSTNE    r1,#0x1000000
        0x0000da8c:    d004        ..      BEQ      0xda98 ; am_hal_iom_disable + 24
        0x0000da8e:    4b1c        .K      LDR      r3,[pc,#112] ; [0xdb00] = 0x123456
        0x0000da90:    f021427f    !..B    BIC      r2,r1,#0xff000000
        0x0000da94:    429a        .B      CMP      r2,r3
        0x0000da96:    d001        ..      BEQ      0xda9c ; am_hal_iom_disable + 28
        0x0000da98:    2002        .       MOVS     r0,#2
        0x0000da9a:    bd70        p.      POP      {r4-r6,pc}
        0x0000da9c:    f0117f00    ....    TST      r1,#0x2000000
        0x0000daa0:    bf04        ..      ITT      EQ
        0x0000daa2:    2000        .       MOVEQ    r0,#0
        0x0000daa4:    bd70        p.      POPEQ    {r4-r6,pc}
        0x0000daa6:    6a61        aj      LDR      r1,[r4,#0x24]
        0x0000daa8:    2900        .)      CMP      r1,#0
        0x0000daaa:    bf1c        ..      ITT      NE
        0x0000daac:    2003        .       MOVNE    r0,#3
        0x0000daae:    bd70        p.      POPNE    {r4-r6,pc}
        0x0000dab0:    6861        ah      LDR      r1,[r4,#4]
        0x0000dab2:    0309        ..      LSLS     r1,r1,#12
        0x0000dab4:    f10141a0    ...A    ADD      r1,r1,#0x50000000
        0x0000dab8:    f5014180    ...A    ADD      r1,r1,#0x4000
        0x0000dabc:    f8d12214    ..."    LDR      r2,[r1,#0x214]
        0x0000dac0:    f0220201    "...    BIC      r2,r2,#1
        0x0000dac4:    f8c12214    ..."    STR      r2,[r1,#0x214]
        0x0000dac8:    6861        ah      LDR      r1,[r4,#4]
        0x0000daca:    0309        ..      LSLS     r1,r1,#12
        0x0000dacc:    f10141a0    ...A    ADD      r1,r1,#0x50000000
        0x0000dad0:    f5014180    ...A    ADD      r1,r1,#0x4000
        0x0000dad4:    f8d12214    ..."    LDR      r2,[r1,#0x214]
        0x0000dad8:    f0220210    "...    BIC      r2,r2,#0x10
        0x0000dadc:    f8c12214    ..."    STR      r2,[r1,#0x214]
        0x0000dae0:    f8d40828    ..(.    LDR      r0,[r4,#0x828]
        0x0000dae4:    4625        %F      MOV      r5,r4
        0x0000dae6:    b128        (.      CBZ      r0,0xdaf4 ; am_hal_iom_disable + 116
        0x0000dae8:    2101        .!      MOVS     r1,#1
        0x0000daea:    f7fffac3    ....    BL       am_hal_cmdq_term ; 0xd074
        0x0000daee:    2000        .       MOVS     r0,#0
        0x0000daf0:    f8c50828    ..(.    STR      r0,[r5,#0x828]
        0x0000daf4:    6820         h      LDR      r0,[r4,#0]
        0x0000daf6:    f0207000     ..p    BIC      r0,r0,#0x2000000
        0x0000dafa:    6020         `      STR      r0,[r4,#0]
        0x0000dafc:    2000        .       MOVS     r0,#0
        0x0000dafe:    bd70        p.      POP      {r4-r6,pc}
    $d
        0x0000db00:    00123456    V4..    DCD    1193046
    $t
    i.am_hal_iom_enable
    am_hal_iom_enable
        0x0000db04:    b510        ..      PUSH     {r4,lr}
        0x0000db06:    0004        ..      MOVS     r4,r0
        0x0000db08:    b084        ..      SUB      sp,sp,#0x10
        0x0000db0a:    f04f0000    O...    MOV      r0,#0
        0x0000db0e:    bf1c        ..      ITT      NE
        0x0000db10:    6821        !h      LDRNE    r1,[r4,#0]
        0x0000db12:    f0117f80    ....    TSTNE    r1,#0x1000000
        0x0000db16:    d004        ..      BEQ      0xdb22 ; am_hal_iom_enable + 30
        0x0000db18:    4b37        7K      LDR      r3,[pc,#220] ; [0xdbf8] = 0x123456
        0x0000db1a:    f021427f    !..B    BIC      r2,r1,#0xff000000
        0x0000db1e:    429a        .B      CMP      r2,r3
        0x0000db20:    d002        ..      BEQ      0xdb28 ; am_hal_iom_enable + 36
        0x0000db22:    b004        ..      ADD      sp,sp,#0x10
        0x0000db24:    2002        .       MOVS     r0,#2
        0x0000db26:    bd10        ..      POP      {r4,pc}
        0x0000db28:    f0117f00    ....    TST      r1,#0x2000000
        0x0000db2c:    bf1e        ..      ITTT     NE
        0x0000db2e:    2000        .       MOVNE    r0,#0
        0x0000db30:    b004        ..      ADDNE    sp,sp,#0x10
        0x0000db32:    bd10        ..      POPNE    {r4,pc}
        0x0000db34:    7a22        "z      LDRB     r2,[r4,#8]
        0x0000db36:    6861        ah      LDR      r1,[r4,#4]
        0x0000db38:    2a00        .*      CMP      r2,#0
        0x0000db3a:    bf14        ..      ITE      NE
        0x0000db3c:    2301        .#      MOVNE    r3,#1
        0x0000db3e:    2300        .#      MOVEQ    r3,#0
        0x0000db40:    0309        ..      LSLS     r1,r1,#12
        0x0000db42:    f10142a0    ...B    ADD      r2,r1,#0x50000000
        0x0000db46:    f5024280    ...B    ADD      r2,r2,#0x4000
        0x0000db4a:    f8d21214    ....    LDR      r1,[r2,#0x214]
        0x0000db4e:    f3c10c42    ..B.    UBFX     r12,r1,#1,#3
        0x0000db52:    2101        .!      MOVS     r1,#1
        0x0000db54:    459c        .E      CMP      r12,r3
        0x0000db56:    bf0e        ..      ITEE     EQ
        0x0000db58:    f8c21214    ....    STREQ    r1,[r2,#0x214]
        0x0000db5c:    2310        .#      MOVNE    r3,#0x10
        0x0000db5e:    f8c23214    ...2    STRNE    r3,[r2,#0x214]
        0x0000db62:    68e2        .h      LDR      r2,[r4,#0xc]
        0x0000db64:    2a00        .*      CMP      r2,#0
        0x0000db66:    d041        A.      BEQ      0xdbec ; am_hal_iom_enable + 232
        0x0000db68:    2000        .       MOVS     r0,#0
        0x0000db6a:    6260        `b      STR      r0,[r4,#0x24]
        0x0000db6c:    61e0        .a      STR      r0,[r4,#0x1c]
        0x0000db6e:    6863        ch      LDR      r3,[r4,#4]
        0x0000db70:    4a22        "J      LDR      r2,[pc,#136] ; [0xdbfc] = 0x800040
        0x0000db72:    031b        ..      LSLS     r3,r3,#12
        0x0000db74:    f10343a0    ...C    ADD      r3,r3,#0x50000000
        0x0000db78:    f5034380    ...C    ADD      r3,r3,#0x4000
        0x0000db7c:    f8c322a4    ..."    STR      r2,[r3,#0x2a4]
        0x0000db80:    f8c40854    ..T.    STR      r0,[r4,#0x854]
        0x0000db84:    f884083c    ..<.    STRB     r0,[r4,#0x83c]
        0x0000db88:    f8c40838    ..8.    STR      r0,[r4,#0x838]
        0x0000db8c:    f8c40844    ..D.    STR      r0,[r4,#0x844]
        0x0000db90:    f8c40840    ..@.    STR      r0,[r4,#0x840]
        0x0000db94:    f884082c    ..,.    STRB     r0,[r4,#0x82c]
        0x0000db98:    f8c40830    ..0.    STR      r0,[r4,#0x830]
        0x0000db9c:    f884182d    ..-.    STRB     r1,[r4,#0x82d]
        0x0000dba0:    e9d42303    ...#    LDRD     r2,r3,[r4,#0xc]
        0x0000dba4:    f894c004    ....    LDRB     r12,[r4,#4]
        0x0000dba8:    f8c40828    ..(.    STR      r0,[r4,#0x828]
        0x0000dbac:    6220         b      STR      r0,[r4,#0x20]
        0x0000dbae:    0858        X.      LSRS     r0,r3,#1
        0x0000dbb0:    e9cd0200    ....    STRD     r0,r2,[sp,#0]
        0x0000dbb4:    f88d1008    ....    STRB     r1,[sp,#8]
        0x0000dbb8:    f00c00ff    ....    AND      r0,r12,#0xff
        0x0000dbbc:    f6040228    ..(.    ADD      r2,r4,#0x828
        0x0000dbc0:    4669        iF      MOV      r1,sp
        0x0000dbc2:    f7fff99d    ....    BL       am_hal_cmdq_init ; 0xcf00
        0x0000dbc6:    2800        .(      CMP      r0,#0
        0x0000dbc8:    bf04        ..      ITT      EQ
        0x0000dbca:    f44f7280    O..r    MOVEQ    r2,#0x100
        0x0000dbce:    6222        "b      STREQ    r2,[r4,#0x20]
        0x0000dbd0:    f04f0102    O...    MOV      r1,#2
        0x0000dbd4:    6862        bh      LDR      r2,[r4,#4]
        0x0000dbd6:    ea4f3202    O..2    LSL      r2,r2,#12
        0x0000dbda:    f10242a0    ...B    ADD      r2,r2,#0x50000000
        0x0000dbde:    f5024280    ...B    ADD      r2,r2,#0x4000
        0x0000dbe2:    f8c21240    ..@.    STR      r1,[r2,#0x240]
        0x0000dbe6:    bf1c        ..      ITT      NE
        0x0000dbe8:    b004        ..      ADDNE    sp,sp,#0x10
        0x0000dbea:    bd10        ..      POPNE    {r4,pc}
        0x0000dbec:    6821        !h      LDR      r1,[r4,#0]
        0x0000dbee:    f0417100    A..q    ORR      r1,r1,#0x2000000
        0x0000dbf2:    6021        !`      STR      r1,[r4,#0]
        0x0000dbf4:    b004        ..      ADD      sp,sp,#0x10
        0x0000dbf6:    bd10        ..      POP      {r4,pc}
    $d
        0x0000dbf8:    00123456    V4..    DCD    1193046
        0x0000dbfc:    00800040    @...    DCD    8388672
    $t
    i.am_hal_iom_initialize
    am_hal_iom_initialize
        0x0000dc00:    2806        .(      CMP      r0,#6
        0x0000dc02:    bf24        $.      ITT      CS
        0x0000dc04:    2005        .       MOVCS    r0,#5
        0x0000dc06:    4770        pG      BXCS     lr
        0x0000dc08:    2900        .)      CMP      r1,#0
        0x0000dc0a:    bf04        ..      ITT      EQ
        0x0000dc0c:    2006        .       MOVEQ    r0,#6
        0x0000dc0e:    4770        pG      BXEQ     lr
        0x0000dc10:    b410        ..      PUSH     {r4}
        0x0000dc12:    f2402227    @.'"    MOV      r2,#0x227
        0x0000dc16:    fb00f302    ....    MUL      r3,r0,r2
        0x0000dc1a:    4a0c        .J      LDR      r2,[pc,#48] ; [0xdc4c] = 0x10001358
        0x0000dc1c:    f852c023    R.#.    LDR      r12,[r2,r3,LSL #2]
        0x0000dc20:    f01c7f80    ....    TST      r12,#0x1000000
        0x0000dc24:    bf1e        ..      ITTT     NE
        0x0000dc26:    2007        .       MOVNE    r0,#7
        0x0000dc28:    bc10        ..      POPNE    {r4}
        0x0000dc2a:    4770        pG      BXNE     lr
        0x0000dc2c:    f02c7c00    ,..|    BIC      r12,r12,#0x2000000
        0x0000dc30:    f04c7c80    L..|    ORR      r12,r12,#0x1000000
        0x0000dc34:    4c06        .L      LDR      r4,[pc,#24] ; [0xdc50] = 0x123456
        0x0000dc36:    f3640c17    d...    BFI      r12,r4,#0,#24
        0x0000dc3a:    f842c023    B.#.    STR      r12,[r2,r3,LSL #2]
        0x0000dc3e:    eb020283    ....    ADD      r2,r2,r3,LSL #2
        0x0000dc42:    6050        P`      STR      r0,[r2,#4]
        0x0000dc44:    600a        .`      STR      r2,[r1,#0]
        0x0000dc46:    bc10        ..      POP      {r4}
        0x0000dc48:    2000        .       MOVS     r0,#0
        0x0000dc4a:    4770        pG      BX       lr
    $d
        0x0000dc4c:    10001358    X...    DCD    268440408
        0x0000dc50:    00123456    V4..    DCD    1193046
    $t
    i.am_hal_iom_interrupt_clear
    am_hal_iom_interrupt_clear
        0x0000dc54:    2800        .(      CMP      r0,#0
        0x0000dc56:    bf1c        ..      ITT      NE
        0x0000dc58:    6802        .h      LDRNE    r2,[r0,#0]
        0x0000dc5a:    f0127f80    ....    TSTNE    r2,#0x1000000
        0x0000dc5e:    d004        ..      BEQ      0xdc6a ; am_hal_iom_interrupt_clear + 22
        0x0000dc60:    4b08        .K      LDR      r3,[pc,#32] ; [0xdc84] = 0x123456
        0x0000dc62:    f022427f    "..B    BIC      r2,r2,#0xff000000
        0x0000dc66:    429a        .B      CMP      r2,r3
        0x0000dc68:    d001        ..      BEQ      0xdc6e ; am_hal_iom_interrupt_clear + 26
        0x0000dc6a:    2002        .       MOVS     r0,#2
        0x0000dc6c:    4770        pG      BX       lr
        0x0000dc6e:    6840        @h      LDR      r0,[r0,#4]
        0x0000dc70:    0300        ..      LSLS     r0,r0,#12
        0x0000dc72:    f10040a0    ...@    ADD      r0,r0,#0x50000000
        0x0000dc76:    f5004080    ...@    ADD      r0,r0,#0x4000
        0x0000dc7a:    f8c01208    ....    STR      r1,[r0,#0x208]
        0x0000dc7e:    2000        .       MOVS     r0,#0
        0x0000dc80:    4770        pG      BX       lr
    $d
        0x0000dc82:    0000        ..      DCW    0
        0x0000dc84:    00123456    V4..    DCD    1193046
    $t
    i.am_hal_iom_interrupt_enable
    am_hal_iom_interrupt_enable
        0x0000dc88:    2800        .(      CMP      r0,#0
        0x0000dc8a:    bf1c        ..      ITT      NE
        0x0000dc8c:    6802        .h      LDRNE    r2,[r0,#0]
        0x0000dc8e:    f0127f80    ....    TSTNE    r2,#0x1000000
        0x0000dc92:    d004        ..      BEQ      0xdc9e ; am_hal_iom_interrupt_enable + 22
        0x0000dc94:    4b0c        .K      LDR      r3,[pc,#48] ; [0xdcc8] = 0x123456
        0x0000dc96:    f022427f    "..B    BIC      r2,r2,#0xff000000
        0x0000dc9a:    429a        .B      CMP      r2,r3
        0x0000dc9c:    d001        ..      BEQ      0xdca2 ; am_hal_iom_interrupt_enable + 26
        0x0000dc9e:    2002        .       MOVS     r0,#2
        0x0000dca0:    4770        pG      BX       lr
        0x0000dca2:    f0110f02    ....    TST      r1,#2
        0x0000dca6:    bf1c        ..      ITT      NE
        0x0000dca8:    2006        .       MOVNE    r0,#6
        0x0000dcaa:    4770        pG      BXNE     lr
        0x0000dcac:    6840        @h      LDR      r0,[r0,#4]
        0x0000dcae:    0300        ..      LSLS     r0,r0,#12
        0x0000dcb0:    f10040a0    ...@    ADD      r0,r0,#0x50000000
        0x0000dcb4:    f5004080    ...@    ADD      r0,r0,#0x4000
        0x0000dcb8:    f8d02200    ..."    LDR      r2,[r0,#0x200]
        0x0000dcbc:    4311        .C      ORRS     r1,r1,r2
        0x0000dcbe:    f8c01200    ....    STR      r1,[r0,#0x200]
        0x0000dcc2:    2000        .       MOVS     r0,#0
        0x0000dcc4:    4770        pG      BX       lr
    $d
        0x0000dcc6:    0000        ..      DCW    0
        0x0000dcc8:    00123456    V4..    DCD    1193046
    $t
    i.am_hal_iom_interrupt_service
    am_hal_iom_interrupt_service
        0x0000dccc:    e92d4ff0    -..O    PUSH     {r4-r11,lr}
        0x0000dcd0:    b085        ..      SUB      sp,sp,#0x14
        0x0000dcd2:    0004        ..      MOVS     r4,r0
        0x0000dcd4:    f04f0000    O...    MOV      r0,#0
        0x0000dcd8:    4688        .F      MOV      r8,r1
        0x0000dcda:    9004        ..      STR      r0,[sp,#0x10]
        0x0000dcdc:    bf1c        ..      ITT      NE
        0x0000dcde:    6820         h      LDRNE    r0,[r4,#0]
        0x0000dce0:    f0107f80    ....    TSTNE    r0,#0x1000000
        0x0000dce4:    d004        ..      BEQ      0xdcf0 ; am_hal_iom_interrupt_service + 36
        0x0000dce6:    49b7        .I      LDR      r1,[pc,#732] ; [0xdfc4] = 0x123456
        0x0000dce8:    f020407f     ..@    BIC      r0,r0,#0xff000000
        0x0000dcec:    4288        .B      CMP      r0,r1
        0x0000dcee:    d003        ..      BEQ      0xdcf8 ; am_hal_iom_interrupt_service + 44
        0x0000dcf0:    b005        ..      ADD      sp,sp,#0x14
        0x0000dcf2:    2002        .       MOVS     r0,#2
        0x0000dcf4:    e8bd8ff0    ....    POP      {r4-r11,pc}
        0x0000dcf8:    f894083c    ..<.    LDRB     r0,[r4,#0x83c]
        0x0000dcfc:    6867        gh      LDR      r7,[r4,#4]
        0x0000dcfe:    4db2        .M      LDR      r5,[pc,#712] ; [0xdfc8] = 0x8000001
        0x0000dd00:    2600        .&      MOVS     r6,#0
        0x0000dd02:    f1050b01    ....    ADD      r11,r5,#1
        0x0000dd06:    f644297c    D.|)    MOV      r9,#0x4a7c
        0x0000dd0a:    2800        .(      CMP      r0,#0
        0x0000dd0c:    d07e        ~.      BEQ      0xde0c ; am_hal_iom_interrupt_service + 320
        0x0000dd0e:    69a0        .i      LDR      r0,[r4,#0x18]
        0x0000dd10:    f6400101    @...    MOV      r1,#0x801
        0x0000dd14:    ea400008    @...    ORR      r0,r0,r8
        0x0000dd18:    4208        .B      TST      r0,r1
        0x0000dd1a:    61a0        .a      STR      r0,[r4,#0x18]
        0x0000dd1c:    d077        w.      BEQ      0xde0e ; am_hal_iom_interrupt_service + 322
        0x0000dd1e:    0339        9.      LSLS     r1,r7,#12
        0x0000dd20:    f10147a0    ...G    ADD      r7,r1,#0x50000000
        0x0000dd24:    f5074780    ...G    ADD      r7,r7,#0x4000
        0x0000dd28:    f8d71280    ....    LDR      r1,[r7,#0x280]
        0x0000dd2c:    f0110f01    ....    TST      r1,#1
        0x0000dd30:    d003        ..      BEQ      0xdd3a ; am_hal_iom_interrupt_service + 110
        0x0000dd32:    f644617c    D.|a    MOV      r1,#0x4e7c
        0x0000dd36:    4208        .B      TST      r0,r1
        0x0000dd38:    d069        i.      BEQ      0xde0e ; am_hal_iom_interrupt_service + 322
        0x0000dd3a:    f8d40850    ..P.    LDR      r0,[r4,#0x850]
        0x0000dd3e:    1c40        @.      ADDS     r0,r0,#1
        0x0000dd40:    f8c40850    ..P.    STR      r0,[r4,#0x850]
        0x0000dd44:    f8d40840    ..@.    LDR      r0,[r4,#0x840]
        0x0000dd48:    1e40        @.      SUBS     r0,r0,#1
        0x0000dd4a:    f8c40840    ..@.    STR      r0,[r4,#0x840]
        0x0000dd4e:    f8d41848    ..H.    LDR      r1,[r4,#0x848]
        0x0000dd52:    f8d40850    ..P.    LDR      r0,[r4,#0x850]
        0x0000dd56:    fbb0f2f1    ....    UDIV     r2,r0,r1
        0x0000dd5a:    fb010012    ....    MLS      r0,r1,r2,r0
        0x0000dd5e:    f8d41854    ..T.    LDR      r1,[r4,#0x854]
        0x0000dd62:    eb011840    ..@.    ADD      r8,r1,r0,LSL #5
        0x0000dd66:    f8d82018    ...     LDR      r2,[r8,#0x18]
        0x0000dd6a:    b1ea        ..      CBZ      r2,0xdda8 ; am_hal_iom_interrupt_service + 220
        0x0000dd6c:    69a0        .i      LDR      r0,[r4,#0x18]
        0x0000dd6e:    f8d73204    ...2    LDR      r3,[r7,#0x204]
        0x0000dd72:    2100        .!      MOVS     r1,#0
        0x0000dd74:    4318        .C      ORRS     r0,r0,r3
        0x0000dd76:    f0100f6c    ..l.    TST      r0,#0x6c
        0x0000dd7a:    bf18        ..      IT       NE
        0x0000dd7c:    f04f6100    O..a    MOVNE    r1,#0x8000000
        0x0000dd80:    d10d        ..      BNE      0xdd9e ; am_hal_iom_interrupt_service + 210
        0x0000dd82:    f4107f00    ....    TST      r0,#0x200
        0x0000dd86:    bf18        ..      IT       NE
        0x0000dd88:    4629        )F      MOVNE    r1,r5
        0x0000dd8a:    d108        ..      BNE      0xdd9e ; am_hal_iom_interrupt_service + 210
        0x0000dd8c:    f0100f10    ....    TST      r0,#0x10
        0x0000dd90:    bf18        ..      IT       NE
        0x0000dd92:    4659        YF      MOVNE    r1,r11
        0x0000dd94:    d103        ..      BNE      0xdd9e ; am_hal_iom_interrupt_service + 210
        0x0000dd96:    f4104f90    ...O    TST      r0,#0x4800
        0x0000dd9a:    bf18        ..      IT       NE
        0x0000dd9c:    2101        .!      MOVNE    r1,#1
        0x0000dd9e:    f8d8001c    ....    LDR      r0,[r8,#0x1c]
        0x0000dda2:    4790        .G      BLX      r2
        0x0000dda4:    f8c86018    ...`    STR      r6,[r8,#0x18]
        0x0000dda8:    69a0        .i      LDR      r0,[r4,#0x18]
        0x0000ddaa:    ea100f09    ....    TST      r0,r9
        0x0000ddae:    d00d        ..      BEQ      0xddcc ; am_hal_iom_interrupt_service + 256
        0x0000ddb0:    f8d70280    ....    LDR      r0,[r7,#0x280]
        0x0000ddb4:    f0200001     ...    BIC      r0,r0,#1
        0x0000ddb8:    f8c70280    ....    STR      r0,[r7,#0x280]
        0x0000ddbc:    f8c76290    ...b    STR      r6,[r7,#0x290]
        0x0000ddc0:    69a0        .i      LDR      r0,[r4,#0x18]
        0x0000ddc2:    ea000109    ....    AND      r1,r0,r9
        0x0000ddc6:    4620         F      MOV      r0,r4
        0x0000ddc8:    f001f864    ..d.    BL       internal_iom_reset_on_error ; 0xee94
        0x0000ddcc:    f8d40840    ..@.    LDR      r0,[r4,#0x840]
        0x0000ddd0:    b368        h.      CBZ      r0,0xde2e ; am_hal_iom_interrupt_service + 354
        0x0000ddd2:    f8c76290    ...b    STR      r6,[r7,#0x290]
        0x0000ddd6:    61a6        .a      STR      r6,[r4,#0x18]
        0x0000ddd8:    f8d40850    ..P.    LDR      r0,[r4,#0x850]
        0x0000dddc:    f8d42848    ..H(    LDR      r2,[r4,#0x848]
        0x0000dde0:    1c40        @.      ADDS     r0,r0,#1
        0x0000dde2:    fbb0f3f2    ....    UDIV     r3,r0,r2
        0x0000dde6:    fb020013    ....    MLS      r0,r2,r3,r0
        0x0000ddea:    6861        ah      LDR      r1,[r4,#4]
        0x0000ddec:    f8d42854    ..T(    LDR      r2,[r4,#0x854]
        0x0000ddf0:    0309        ..      LSLS     r1,r1,#12
        0x0000ddf2:    eb021040    ..@.    ADD      r0,r2,r0,LSL #5
        0x0000ddf6:    f10141a0    ...A    ADD      r1,r1,#0x50000000
        0x0000ddfa:    f5014180    ...A    ADD      r1,r1,#0x4000
        0x0000ddfe:    6802        .h      LDR      r2,[r0,#0]
        0x0000de00:    f8c12220    .. "    STR      r2,[r1,#0x220]
        0x0000de04:    6842        Bh      LDR      r2,[r0,#4]
        0x0000de06:    f8c12404    ...$    STR      r2,[r1,#0x404]
        0x0000de0a:    e001        ..      B        0xde10 ; am_hal_iom_interrupt_service + 324
        0x0000de0c:    e021        !.      B        0xde52 ; am_hal_iom_interrupt_service + 390
        0x0000de0e:    e01c        ..      B        0xde4a ; am_hal_iom_interrupt_service + 382
        0x0000de10:    f8c16280    ...b    STR      r6,[r1,#0x280]
        0x0000de14:    6882        .h      LDR      r2,[r0,#8]
        0x0000de16:    f8c12288    ..."    STR      r2,[r1,#0x288]
        0x0000de1a:    68c2        .h      LDR      r2,[r0,#0xc]
        0x0000de1c:    f8c1228c    ..."    STR      r2,[r1,#0x28c]
        0x0000de20:    6902        .i      LDR      r2,[r0,#0x10]
        0x0000de22:    f8c12280    ..."    STR      r2,[r1,#0x280]
        0x0000de26:    6940        @i      LDR      r0,[r0,#0x14]
        0x0000de28:    f8c10218    ....    STR      r0,[r1,#0x218]
        0x0000de2c:    e00d        ..      B        0xde4a ; am_hal_iom_interrupt_service + 382
        0x0000de2e:    f884683c    ..<h    STRB     r6,[r4,#0x83c]
        0x0000de32:    f8d70200    ....    LDR      r0,[r7,#0x200]
        0x0000de36:    f0200001     ...    BIC      r0,r0,#1
        0x0000de3a:    f4206080     ..`    BIC      r0,r0,#0x400
        0x0000de3e:    f8c70200    ....    STR      r0,[r7,#0x200]
        0x0000de42:    f44f0000    O...    MOV      r0,#0x800000
        0x0000de46:    f8c702a4    ....    STR      r0,[r7,#0x2a4]
        0x0000de4a:    b005        ..      ADD      sp,sp,#0x14
        0x0000de4c:    2000        .       MOVS     r0,#0
        0x0000de4e:    e8bd8ff0    ....    POP      {r4-r11,pc}
        0x0000de52:    6a60        `j      LDR      r0,[r4,#0x24]
        0x0000de54:    2800        .(      CMP      r0,#0
        0x0000de56:    d07d        }.      BEQ      0xdf54 ; am_hal_iom_interrupt_service + 648
        0x0000de58:    f8d40828    ..(.    LDR      r0,[r4,#0x828]
        0x0000de5c:    2800        .(      CMP      r0,#0
        0x0000de5e:    d07a        z.      BEQ      0xdf56 ; am_hal_iom_interrupt_service + 650
        0x0000de60:    4669        iF      MOV      r1,sp
        0x0000de62:    f7fefffb    ....    BL       am_hal_cmdq_get_status ; 0xce5c
        0x0000de66:    9004        ..      STR      r0,[sp,#0x10]
        0x0000de68:    2800        .(      CMP      r0,#0
        0x0000de6a:    bf04        ..      ITT      EQ
        0x0000de6c:    4620         F      MOVEQ    r0,r4
        0x0000de6e:    f8846834    ..4h    STRBEQ   r6,[r4,#0x834]
        0x0000de72:    d015        ..      BEQ      0xdea0 ; am_hal_iom_interrupt_service + 468
        0x0000de74:    e091        ..      B        0xdf9a ; am_hal_iom_interrupt_service + 718
        0x0000de76:    1c40        @.      ADDS     r0,r0,#1
        0x0000de78:    61e0        .a      STR      r0,[r4,#0x1c]
        0x0000de7a:    6a61        aj      LDR      r1,[r4,#0x24]
        0x0000de7c:    1e4a        J.      SUBS     r2,r1,#1
        0x0000de7e:    6262        bb      STR      r2,[r4,#0x24]
        0x0000de80:    b2c0        ..      UXTB     r0,r0
        0x0000de82:    eb040a80    ....    ADD      r10,r4,r0,LSL #2
        0x0000de86:    f8da2028    ..(     LDR      r2,[r10,#0x28]
        0x0000de8a:    b14a        J.      CBZ      r2,0xdea0 ; am_hal_iom_interrupt_service + 468
        0x0000de8c:    2100        .!      MOVS     r1,#0
        0x0000de8e:    f8da0428    ..(.    LDR      r0,[r10,#0x428]
        0x0000de92:    4790        .G      BLX      r2
        0x0000de94:    f894082c    ..,.    LDRB     r0,[r4,#0x82c]
        0x0000de98:    2802        .(      CMP      r0,#2
        0x0000de9a:    bf18        ..      IT       NE
        0x0000de9c:    f8ca6028    ..(`    STRNE    r6,[r10,#0x28]
        0x0000dea0:    69e0        .i      LDR      r0,[r4,#0x1c]
        0x0000dea2:    9900        ..      LDR      r1,[sp,#0]
        0x0000dea4:    4288        .B      CMP      r0,r1
        0x0000dea6:    d003        ..      BEQ      0xdeb0 ; am_hal_iom_interrupt_service + 484
        0x0000dea8:    f8941834    ..4.    LDRB     r1,[r4,#0x834]
        0x0000deac:    2900        .)      CMP      r1,#0
        0x0000deae:    d0e2        ..      BEQ      0xde76 ; am_hal_iom_interrupt_service + 426
        0x0000deb0:    f8940834    ..4.    LDRB     r0,[r4,#0x834]
        0x0000deb4:    2800        .(      CMP      r0,#0
        0x0000deb6:    d169        i.      BNE      0xdf8c ; am_hal_iom_interrupt_service + 704
        0x0000deb8:    ea180a09    ....    ANDS     r10,r8,r9
        0x0000debc:    d066        f.      BEQ      0xdf8c ; am_hal_iom_interrupt_service + 704
        0x0000debe:    69e0        .i      LDR      r0,[r4,#0x1c]
        0x0000dec0:    1c40        @.      ADDS     r0,r0,#1
        0x0000dec2:    61e0        .a      STR      r0,[r4,#0x1c]
        0x0000dec4:    6a61        aj      LDR      r1,[r4,#0x24]
        0x0000dec6:    1e4a        J.      SUBS     r2,r1,#1
        0x0000dec8:    6262        bb      STR      r2,[r4,#0x24]
        0x0000deca:    b2c0        ..      UXTB     r0,r0
        0x0000decc:    eb040980    ....    ADD      r9,r4,r0,LSL #2
        0x0000ded0:    f8d92028    ..(     LDR      r2,[r9,#0x28]
        0x0000ded4:    b332        2.      CBZ      r2,0xdf24 ; am_hal_iom_interrupt_service + 600
        0x0000ded6:    2100        .!      MOVS     r1,#0
        0x0000ded8:    0338        8.      LSLS     r0,r7,#12
        0x0000deda:    f10040a0    ...@    ADD      r0,r0,#0x50000000
        0x0000dede:    f5004080    ...@    ADD      r0,r0,#0x4000
        0x0000dee2:    f8d00204    ....    LDR      r0,[r0,#0x204]
        0x0000dee6:    ea400008    @...    ORR      r0,r0,r8
        0x0000deea:    f0100f6c    ..l.    TST      r0,#0x6c
        0x0000deee:    bf18        ..      IT       NE
        0x0000def0:    f04f6100    O..a    MOVNE    r1,#0x8000000
        0x0000def4:    d10d        ..      BNE      0xdf12 ; am_hal_iom_interrupt_service + 582
        0x0000def6:    f4107f00    ....    TST      r0,#0x200
        0x0000defa:    bf18        ..      IT       NE
        0x0000defc:    4629        )F      MOVNE    r1,r5
        0x0000defe:    d108        ..      BNE      0xdf12 ; am_hal_iom_interrupt_service + 582
        0x0000df00:    f0100f10    ....    TST      r0,#0x10
        0x0000df04:    bf18        ..      IT       NE
        0x0000df06:    4659        YF      MOVNE    r1,r11
        0x0000df08:    d103        ..      BNE      0xdf12 ; am_hal_iom_interrupt_service + 582
        0x0000df0a:    f4104f90    ...O    TST      r0,#0x4800
        0x0000df0e:    bf18        ..      IT       NE
        0x0000df10:    2101        .!      MOVNE    r1,#1
        0x0000df12:    f8d90428    ..(.    LDR      r0,[r9,#0x428]
        0x0000df16:    4790        .G      BLX      r2
        0x0000df18:    f894082c    ..,.    LDRB     r0,[r4,#0x82c]
        0x0000df1c:    2802        .(      CMP      r0,#2
        0x0000df1e:    bf18        ..      IT       NE
        0x0000df20:    f8c96028    ..(`    STRNE    r6,[r9,#0x28]
        0x0000df24:    0338        8.      LSLS     r0,r7,#12
        0x0000df26:    f10040a0    ...@    ADD      r0,r0,#0x50000000
        0x0000df2a:    f5004080    ...@    ADD      r0,r0,#0x4000
        0x0000df2e:    f8d01294    ....    LDR      r1,[r0,#0x294]
        0x0000df32:    f0210101    !...    BIC      r1,r1,#1
        0x0000df36:    f8c01294    ....    STR      r1,[r0,#0x294]
        0x0000df3a:    f8d01280    ....    LDR      r1,[r0,#0x280]
        0x0000df3e:    f0210101    !...    BIC      r1,r1,#1
        0x0000df42:    f8c01280    ....    STR      r1,[r0,#0x280]
        0x0000df46:    f8c06290    ...b    STR      r6,[r0,#0x290]
        0x0000df4a:    4651        QF      MOV      r1,r10
        0x0000df4c:    4620         F      MOV      r0,r4
        0x0000df4e:    f000ffa1    ....    BL       internal_iom_reset_on_error ; 0xee94
        0x0000df52:    e001        ..      B        0xdf58 ; am_hal_iom_interrupt_service + 652
        0x0000df54:    e031        1.      B        0xdfba ; am_hal_iom_interrupt_service + 750
        0x0000df56:    e020         .      B        0xdf9a ; am_hal_iom_interrupt_service + 718
        0x0000df58:    f8d40828    ..(.    LDR      r0,[r4,#0x828]
        0x0000df5c:    f7feff44    ..D.    BL       am_hal_cmdq_error_resume ; 0xcde8
        0x0000df60:    6a60        `j      LDR      r0,[r4,#0x24]
        0x0000df62:    b198        ..      CBZ      r0,0xdf8c ; am_hal_iom_interrupt_service + 704
        0x0000df64:    6a61        aj      LDR      r1,[r4,#0x24]
        0x0000df66:    4620         F      MOV      r0,r4
        0x0000df68:    b961        a.      CBNZ     r1,0xdf84 ; am_hal_iom_interrupt_service + 696
        0x0000df6a:    6842        Bh      LDR      r2,[r0,#4]
        0x0000df6c:    0311        ..      LSLS     r1,r2,#12
        0x0000df6e:    f10141a0    ...A    ADD      r1,r1,#0x50000000
        0x0000df72:    f5014180    ...A    ADD      r1,r1,#0x4000
        0x0000df76:    f8d11298    ....    LDR      r1,[r1,#0x298]
        0x0000df7a:    4b14        .K      LDR      r3,[pc,#80] ; [0xdfcc] = 0x50004298
        0x0000df7c:    eb033202    ...2    ADD      r2,r3,r2,LSL #12
        0x0000df80:    e9c12100    ...!    STRD     r2,r1,[r1,#0]
        0x0000df84:    f8d40828    ..(.    LDR      r0,[r4,#0x828]
        0x0000df88:    f7feff0e    ....    BL       am_hal_cmdq_enable ; 0xcda8
        0x0000df8c:    6a60        `j      LDR      r0,[r4,#0x24]
        0x0000df8e:    2800        .(      CMP      r0,#0
        0x0000df90:    bf04        ..      ITT      EQ
        0x0000df92:    f8d40828    ..(.    LDREQ    r0,[r4,#0x828]
        0x0000df96:    f7fefee7    ....    BLEQ     am_hal_cmdq_disable ; 0xcd68
        0x0000df9a:    6a60        `j      LDR      r0,[r4,#0x24]
        0x0000df9c:    b968        h.      CBNZ     r0,0xdfba ; am_hal_iom_interrupt_service + 750
        0x0000df9e:    0338        8.      LSLS     r0,r7,#12
        0x0000dfa0:    f10040a0    ...@    ADD      r0,r0,#0x50000000
        0x0000dfa4:    f5004080    ...@    ADD      r0,r0,#0x4000
        0x0000dfa8:    f8c06200    ...b    STR      r6,[r0,#0x200]
        0x0000dfac:    f04f31ff    O..1    MOV      r1,#0xffffffff
        0x0000dfb0:    f8c01208    ....    STR      r1,[r0,#0x208]
        0x0000dfb4:    6961        ai      LDR      r1,[r4,#0x14]
        0x0000dfb6:    f8c01200    ....    STR      r1,[r0,#0x200]
        0x0000dfba:    9804        ..      LDR      r0,[sp,#0x10]
        0x0000dfbc:    b005        ..      ADD      sp,sp,#0x14
        0x0000dfbe:    e8bd8ff0    ....    POP      {r4-r11,pc}
    $d
        0x0000dfc2:    0000        ..      DCW    0
        0x0000dfc4:    00123456    V4..    DCD    1193046
        0x0000dfc8:    08000001    ....    DCD    134217729
        0x0000dfcc:    50004298    .B.P    DCD    1342194328
    $t
    i.am_hal_iom_interrupt_status_get
    am_hal_iom_interrupt_status_get
        0x0000dfd0:    2800        .(      CMP      r0,#0
        0x0000dfd2:    bf1c        ..      ITT      NE
        0x0000dfd4:    6803        .h      LDRNE    r3,[r0,#0]
        0x0000dfd6:    f0137f80    ....    TSTNE    r3,#0x1000000
        0x0000dfda:    d005        ..      BEQ      0xdfe8 ; am_hal_iom_interrupt_status_get + 24
        0x0000dfdc:    f8dfc034    ..4.    LDR      r12,[pc,#52] ; [0xe014] = 0x123456
        0x0000dfe0:    f023437f    #..C    BIC      r3,r3,#0xff000000
        0x0000dfe4:    4563        cE      CMP      r3,r12
        0x0000dfe6:    d001        ..      BEQ      0xdfec ; am_hal_iom_interrupt_status_get + 28
        0x0000dfe8:    2002        .       MOVS     r0,#2
        0x0000dfea:    4770        pG      BX       lr
        0x0000dfec:    2a00        .*      CMP      r2,#0
        0x0000dfee:    bf04        ..      ITT      EQ
        0x0000dff0:    2006        .       MOVEQ    r0,#6
        0x0000dff2:    4770        pG      BXEQ     lr
        0x0000dff4:    6840        @h      LDR      r0,[r0,#4]
        0x0000dff6:    0300        ..      LSLS     r0,r0,#12
        0x0000dff8:    f10043a0    ...C    ADD      r3,r0,#0x50000000
        0x0000dffc:    f5034380    ...C    ADD      r3,r3,#0x4000
        0x0000e000:    f8d30204    ....    LDR      r0,[r3,#0x204]
        0x0000e004:    2900        .)      CMP      r1,#0
        0x0000e006:    bf1c        ..      ITT      NE
        0x0000e008:    f8d31200    ....    LDRNE    r1,[r3,#0x200]
        0x0000e00c:    4008        .@      ANDNE    r0,r0,r1
        0x0000e00e:    6010        .`      STR      r0,[r2,#0]
        0x0000e010:    2000        .       MOVS     r0,#0
        0x0000e012:    4770        pG      BX       lr
    $d
        0x0000e014:    00123456    V4..    DCD    1193046
    $t
    i.am_hal_iom_nonblocking_transfer
    am_hal_iom_nonblocking_transfer
        0x0000e018:    e92d41f0    -..A    PUSH     {r4-r8,lr}
        0x0000e01c:    461e        .F      MOV      r6,r3
        0x0000e01e:    4617        .F      MOV      r7,r2
        0x0000e020:    460d        .F      MOV      r5,r1
        0x0000e022:    0004        ..      MOVS     r4,r0
        0x0000e024:    bf1c        ..      ITT      NE
        0x0000e026:    6820         h      LDRNE    r0,[r4,#0]
        0x0000e028:    f0107f80    ....    TSTNE    r0,#0x1000000
        0x0000e02c:    d004        ..      BEQ      0xe038 ; am_hal_iom_nonblocking_transfer + 32
        0x0000e02e:    494c        LI      LDR      r1,[pc,#304] ; [0xe160] = 0x123456
        0x0000e030:    f020407f     ..@    BIC      r0,r0,#0xff000000
        0x0000e034:    4288        .B      CMP      r0,r1
        0x0000e036:    d002        ..      BEQ      0xe03e ; am_hal_iom_nonblocking_transfer + 38
        0x0000e038:    2002        .       MOVS     r0,#2
        0x0000e03a:    e8bd81f0    ....    POP      {r4-r8,pc}
        0x0000e03e:    2d00        .-      CMP      r5,#0
        0x0000e040:    bf04        ..      ITT      EQ
        0x0000e042:    2006        .       MOVEQ    r0,#6
        0x0000e044:    e8bd81f0    ....    POPEQ    {r4-r8,pc}
        0x0000e048:    7c28        (|      LDRB     r0,[r5,#0x10]
        0x0000e04a:    2801        .(      CMP      r0,#1
        0x0000e04c:    d81e        ..      BHI      0xe08c ; am_hal_iom_nonblocking_transfer + 116
        0x0000e04e:    68e8        .h      LDR      r0,[r5,#0xc]
        0x0000e050:    f04f0800    O...    MOV      r8,#0
        0x0000e054:    2800        .(      CMP      r0,#0
        0x0000e056:    bf08        ..      IT       EQ
        0x0000e058:    f8858010    ....    STRBEQ   r8,[r5,#0x10]
        0x0000e05c:    2200        ."      MOVS     r2,#0
        0x0000e05e:    4629        )F      MOV      r1,r5
        0x0000e060:    4620         F      MOV      r0,r4
        0x0000e062:    f001fb35    ..5.    BL       validate_transaction ; 0xf6d0
        0x0000e066:    2800        .(      CMP      r0,#0
        0x0000e068:    bf18        ..      IT       NE
        0x0000e06a:    e8bd81f0    ....    POPNE    {r4-r8,pc}
        0x0000e06e:    f8d40828    ..(.    LDR      r0,[r4,#0x828]
        0x0000e072:    2800        .(      CMP      r0,#0
        0x0000e074:    bf1c        ..      ITT      NE
        0x0000e076:    f894082c    ..,.    LDRBNE   r0,[r4,#0x82c]
        0x0000e07a:    2802        .(      CMPNE    r0,#2
        0x0000e07c:    d006        ..      BEQ      0xe08c ; am_hal_iom_nonblocking_transfer + 116
        0x0000e07e:    f8d40838    ..8.    LDR      r0,[r4,#0x838]
        0x0000e082:    2800        .(      CMP      r0,#0
        0x0000e084:    bf1c        ..      ITT      NE
        0x0000e086:    6a28        (j      LDRNE    r0,[r5,#0x20]
        0x0000e088:    2800        .(      CMPNE    r0,#0
        0x0000e08a:    d003        ..      BEQ      0xe094 ; am_hal_iom_nonblocking_transfer + 124
        0x0000e08c:    f04f0007    O...    MOV      r0,#7
        0x0000e090:    e8bd81f0    ....    POP      {r4-r8,pc}
        0x0000e094:    4633        3F      MOV      r3,r6
        0x0000e096:    463a        :F      MOV      r2,r7
        0x0000e098:    4629        )F      MOV      r1,r5
        0x0000e09a:    4620         F      MOV      r0,r4
        0x0000e09c:    f7fffad6    ....    BL       am_hal_iom_CQAddTransaction ; 0xd64c
        0x0000e0a0:    0005        ..      MOVS     r5,r0
        0x0000e0a2:    d113        ..      BNE      0xe0cc ; am_hal_iom_nonblocking_transfer + 180
        0x0000e0a4:    f7fef89c    ....    BL       am_hal_interrupt_master_disable ; 0xc1e0
        0x0000e0a8:    4606        .F      MOV      r6,r0
        0x0000e0aa:    2f00        ./      CMP      r7,#0
        0x0000e0ac:    bf14        ..      ITE      NE
        0x0000e0ae:    2101        .!      MOVNE    r1,#1
        0x0000e0b0:    2100        .!      MOVEQ    r1,#0
        0x0000e0b2:    f8d40828    ..(.    LDR      r0,[r4,#0x828]
        0x0000e0b6:    f7feff9b    ....    BL       am_hal_cmdq_post_block ; 0xcff0
        0x0000e0ba:    0005        ..      MOVS     r5,r0
        0x0000e0bc:    d009        ..      BEQ      0xe0d2 ; am_hal_iom_nonblocking_transfer + 186
        0x0000e0be:    f8d40828    ..(.    LDR      r0,[r4,#0x828]
        0x0000e0c2:    f7feffbb    ....    BL       am_hal_cmdq_release_block ; 0xd03c
        0x0000e0c6:    4630        0F      MOV      r0,r6
        0x0000e0c8:    f7fef88e    ....    BL       am_hal_interrupt_master_set ; 0xc1e8
        0x0000e0cc:    4628        (F      MOV      r0,r5
        0x0000e0ce:    e8bd81f0    ....    POP      {r4-r8,pc}
        0x0000e0d2:    6a60        `j      LDR      r0,[r4,#0x24]
        0x0000e0d4:    1c41        A.      ADDS     r1,r0,#1
        0x0000e0d6:    6261        ab      STR      r1,[r4,#0x24]
        0x0000e0d8:    f8d41830    ..0.    LDR      r1,[r4,#0x830]
        0x0000e0dc:    1c49        I.      ADDS     r1,r1,#1
        0x0000e0de:    f8c41830    ..0.    STR      r1,[r4,#0x830]
        0x0000e0e2:    2f00        ./      CMP      r7,#0
        0x0000e0e4:    bf18        ..      IT       NE
        0x0000e0e6:    f884882d    ..-.    STRBNE   r8,[r4,#0x82d]
        0x0000e0ea:    2800        .(      CMP      r0,#0
        0x0000e0ec:    d1eb        ..      BNE      0xe0c6 ; am_hal_iom_nonblocking_transfer + 174
        0x0000e0ee:    6860        `h      LDR      r0,[r4,#4]
        0x0000e0f0:    0300        ..      LSLS     r0,r0,#12
        0x0000e0f2:    f10040a0    ...@    ADD      r0,r0,#0x50000000
        0x0000e0f6:    f5004080    ...@    ADD      r0,r0,#0x4000
        0x0000e0fa:    f8d00200    ....    LDR      r0,[r0,#0x200]
        0x0000e0fe:    6160        `a      STR      r0,[r4,#0x14]
        0x0000e100:    6860        `h      LDR      r0,[r4,#4]
        0x0000e102:    0300        ..      LSLS     r0,r0,#12
        0x0000e104:    f10040a0    ...@    ADD      r0,r0,#0x50000000
        0x0000e108:    f5004080    ...@    ADD      r0,r0,#0x4000
        0x0000e10c:    f8c08200    ....    STR      r8,[r0,#0x200]
        0x0000e110:    6861        ah      LDR      r1,[r4,#4]
        0x0000e112:    f04f30ff    O..0    MOV      r0,#0xffffffff
        0x0000e116:    0309        ..      LSLS     r1,r1,#12
        0x0000e118:    f10141a0    ...A    ADD      r1,r1,#0x50000000
        0x0000e11c:    f5014180    ...A    ADD      r1,r1,#0x4000
        0x0000e120:    f8c10208    ....    STR      r0,[r1,#0x208]
        0x0000e124:    6861        ah      LDR      r1,[r4,#4]
        0x0000e126:    f646207c    F.|     MOV      r0,#0x6a7c
        0x0000e12a:    0309        ..      LSLS     r1,r1,#12
        0x0000e12c:    f10141a0    ...A    ADD      r1,r1,#0x50000000
        0x0000e130:    f5014180    ...A    ADD      r1,r1,#0x4000
        0x0000e134:    f8c10200    ....    STR      r0,[r1,#0x200]
        0x0000e138:    6a60        `j      LDR      r0,[r4,#0x24]
        0x0000e13a:    b960        `.      CBNZ     r0,0xe156 ; am_hal_iom_nonblocking_transfer + 318
        0x0000e13c:    6861        ah      LDR      r1,[r4,#4]
        0x0000e13e:    0308        ..      LSLS     r0,r1,#12
        0x0000e140:    f10040a0    ...@    ADD      r0,r0,#0x50000000
        0x0000e144:    f5004080    ...@    ADD      r0,r0,#0x4000
        0x0000e148:    f8d00298    ....    LDR      r0,[r0,#0x298]
        0x0000e14c:    4a05        .J      LDR      r2,[pc,#20] ; [0xe164] = 0x50004298
        0x0000e14e:    eb023101    ...1    ADD      r1,r2,r1,LSL #12
        0x0000e152:    e9c01000    ....    STRD     r1,r0,[r0,#0]
        0x0000e156:    f8d40828    ..(.    LDR      r0,[r4,#0x828]
        0x0000e15a:    f7fefe25    ..%.    BL       am_hal_cmdq_enable ; 0xcda8
        0x0000e15e:    e7b2        ..      B        0xe0c6 ; am_hal_iom_nonblocking_transfer + 174
    $d
        0x0000e160:    00123456    V4..    DCD    1193046
        0x0000e164:    50004298    .B.P    DCD    1342194328
    $t
    i.am_hal_iom_power_ctrl
    am_hal_iom_power_ctrl
        0x0000e168:    b570        p.      PUSH     {r4-r6,lr}
        0x0000e16a:    4615        .F      MOV      r5,r2
        0x0000e16c:    1e04        ..      SUBS     r4,r0,#0
        0x0000e16e:    bf1c        ..      ITT      NE
        0x0000e170:    6820         h      LDRNE    r0,[r4,#0]
        0x0000e172:    f0107f80    ....    TSTNE    r0,#0x1000000
        0x0000e176:    d004        ..      BEQ      0xe182 ; am_hal_iom_power_ctrl + 26
        0x0000e178:    4bb0        .K      LDR      r3,[pc,#704] ; [0xe43c] = 0x123456
        0x0000e17a:    f020427f     ..B    BIC      r2,r0,#0xff000000
        0x0000e17e:    429a        .B      CMP      r2,r3
        0x0000e180:    d001        ..      BEQ      0xe186 ; am_hal_iom_power_ctrl + 30
        0x0000e182:    2002        .       MOVS     r0,#2
        0x0000e184:    bd70        p.      POP      {r4-r6,pc}
        0x0000e186:    2900        .)      CMP      r1,#0
        0x0000e188:    d07d        }.      BEQ      0xe286 ; am_hal_iom_power_ctrl + 286
        0x0000e18a:    2901        .)      CMP      r1,#1
        0x0000e18c:    bf1e        ..      ITTT     NE
        0x0000e18e:    2902        .)      CMPNE    r1,#2
        0x0000e190:    2006        .       MOVNE    r0,#6
        0x0000e192:    bd70        p.      POPNE    {r4-r6,pc}
        0x0000e194:    f0107f00    ....    TST      r0,#0x2000000
        0x0000e198:    d010        ..      BEQ      0xe1bc ; am_hal_iom_power_ctrl + 84
        0x0000e19a:    6860        `h      LDR      r0,[r4,#4]
        0x0000e19c:    ea4f3000    O..0    LSL      r0,r0,#12
        0x0000e1a0:    f10040a0    ...@    ADD      r0,r0,#0x50000000
        0x0000e1a4:    f5004080    ...@    ADD      r0,r0,#0x4000
        0x0000e1a8:    f8d002b4    ....    LDR      r0,[r0,#0x2b4]
        0x0000e1ac:    f0000006    ....    AND      r0,r0,#6
        0x0000e1b0:    2804        .(      CMP      r0,#4
        0x0000e1b2:    bf07        ..      ITTEE    EQ
        0x0000e1b4:    6a60        `j      LDREQ    r0,[r4,#0x24]
        0x0000e1b6:    2800        .(      CMPEQ    r0,#0
        0x0000e1b8:    2003        .       MOVNE    r0,#3
        0x0000e1ba:    bd70        p.      POPNE    {r4-r6,pc}
        0x0000e1bc:    2d00        .-      CMP      r5,#0
        0x0000e1be:    d07c        |.      BEQ      0xe2ba ; am_hal_iom_power_ctrl + 338
        0x0000e1c0:    6860        `h      LDR      r0,[r4,#4]
        0x0000e1c2:    0300        ..      LSLS     r0,r0,#12
        0x0000e1c4:    f10040a0    ...@    ADD      r0,r0,#0x50000000
        0x0000e1c8:    f5004080    ...@    ADD      r0,r0,#0x4000
        0x0000e1cc:    f8d00104    ....    LDR      r0,[r0,#0x104]
        0x0000e1d0:    f8c40864    ..d.    STR      r0,[r4,#0x864]
        0x0000e1d4:    6860        `h      LDR      r0,[r4,#4]
        0x0000e1d6:    0300        ..      LSLS     r0,r0,#12
        0x0000e1d8:    f10040a0    ...@    ADD      r0,r0,#0x50000000
        0x0000e1dc:    f5004080    ...@    ADD      r0,r0,#0x4000
        0x0000e1e0:    f8d00210    ....    LDR      r0,[r0,#0x210]
        0x0000e1e4:    f8c4086c    ..l.    STR      r0,[r4,#0x86c]
        0x0000e1e8:    6860        `h      LDR      r0,[r4,#4]
        0x0000e1ea:    0300        ..      LSLS     r0,r0,#12
        0x0000e1ec:    f10040a0    ...@    ADD      r0,r0,#0x50000000
        0x0000e1f0:    f5004080    ...@    ADD      r0,r0,#0x4000
        0x0000e1f4:    f8d00214    ....    LDR      r0,[r0,#0x214]
        0x0000e1f8:    f8c40870    ..p.    STR      r0,[r4,#0x870]
        0x0000e1fc:    6860        `h      LDR      r0,[r4,#4]
        0x0000e1fe:    0300        ..      LSLS     r0,r0,#12
        0x0000e200:    f10040a0    ...@    ADD      r0,r0,#0x50000000
        0x0000e204:    f5004080    ...@    ADD      r0,r0,#0x4000
        0x0000e208:    f8d00294    ....    LDR      r0,[r0,#0x294]
        0x0000e20c:    f8c40874    ..t.    STR      r0,[r4,#0x874]
        0x0000e210:    6860        `h      LDR      r0,[r4,#4]
        0x0000e212:    0300        ..      LSLS     r0,r0,#12
        0x0000e214:    f10040a0    ...@    ADD      r0,r0,#0x50000000
        0x0000e218:    f5004080    ...@    ADD      r0,r0,#0x4000
        0x0000e21c:    f8d00298    ....    LDR      r0,[r0,#0x298]
        0x0000e220:    f8c40878    ..x.    STR      r0,[r4,#0x878]
        0x0000e224:    6860        `h      LDR      r0,[r4,#4]
        0x0000e226:    0300        ..      LSLS     r0,r0,#12
        0x0000e228:    f10040a0    ...@    ADD      r0,r0,#0x50000000
        0x0000e22c:    f5004080    ...@    ADD      r0,r0,#0x4000
        0x0000e230:    f8d002a0    ....    LDR      r0,[r0,#0x2a0]
        0x0000e234:    f8c4087c    ..|.    STR      r0,[r4,#0x87c]
        0x0000e238:    6860        `h      LDR      r0,[r4,#4]
        0x0000e23a:    0300        ..      LSLS     r0,r0,#12
        0x0000e23c:    f10040a0    ...@    ADD      r0,r0,#0x50000000
        0x0000e240:    f5004080    ...@    ADD      r0,r0,#0x4000
        0x0000e244:    f8d002a8    ....    LDR      r0,[r0,#0x2a8]
        0x0000e248:    f8c40880    ....    STR      r0,[r4,#0x880]
        0x0000e24c:    6860        `h      LDR      r0,[r4,#4]
        0x0000e24e:    0300        ..      LSLS     r0,r0,#12
        0x0000e250:    f10040a0    ...@    ADD      r0,r0,#0x50000000
        0x0000e254:    f5004080    ...@    ADD      r0,r0,#0x4000
        0x0000e258:    f8d002ac    ....    LDR      r0,[r0,#0x2ac]
        0x0000e25c:    f8c40884    ....    STR      r0,[r4,#0x884]
        0x0000e260:    6860        `h      LDR      r0,[r4,#4]
        0x0000e262:    0300        ..      LSLS     r0,r0,#12
        0x0000e264:    f10040a0    ...@    ADD      r0,r0,#0x50000000
        0x0000e268:    f5004080    ...@    ADD      r0,r0,#0x4000
        0x0000e26c:    f8d002b0    ....    LDR      r0,[r0,#0x2b0]
        0x0000e270:    f8c40888    ....    STR      r0,[r4,#0x888]
        0x0000e274:    6860        `h      LDR      r0,[r4,#4]
        0x0000e276:    0300        ..      LSLS     r0,r0,#12
        0x0000e278:    f10040a0    ...@    ADD      r0,r0,#0x50000000
        0x0000e27c:    f5004080    ...@    ADD      r0,r0,#0x4000
        0x0000e280:    f8d00300    ....    LDR      r0,[r0,#0x300]
        0x0000e284:    e000        ..      B        0xe288 ; am_hal_iom_power_ctrl + 288
        0x0000e286:    e02b        +.      B        0xe2e0 ; am_hal_iom_power_ctrl + 376
        0x0000e288:    f8c4088c    ....    STR      r0,[r4,#0x88c]
        0x0000e28c:    6860        `h      LDR      r0,[r4,#4]
        0x0000e28e:    0300        ..      LSLS     r0,r0,#12
        0x0000e290:    f10040a0    ...@    ADD      r0,r0,#0x50000000
        0x0000e294:    f5004080    ...@    ADD      r0,r0,#0x4000
        0x0000e298:    f8d00400    ....    LDR      r0,[r0,#0x400]
        0x0000e29c:    f8c40890    ....    STR      r0,[r4,#0x890]
        0x0000e2a0:    6860        `h      LDR      r0,[r4,#4]
        0x0000e2a2:    0300        ..      LSLS     r0,r0,#12
        0x0000e2a4:    f10040a0    ...@    ADD      r0,r0,#0x50000000
        0x0000e2a8:    f5004080    ...@    ADD      r0,r0,#0x4000
        0x0000e2ac:    f8d00200    ....    LDR      r0,[r0,#0x200]
        0x0000e2b0:    f8c40894    ....    STR      r0,[r4,#0x894]
        0x0000e2b4:    6860        `h      LDR      r0,[r4,#4]
        0x0000e2b6:    0300        ..      LSLS     r0,r0,#12
        0x0000e2b8:    e000        ..      B        0xe2bc ; am_hal_iom_power_ctrl + 340
        0x0000e2ba:    e00a        ..      B        0xe2d2 ; am_hal_iom_power_ctrl + 362
        0x0000e2bc:    f10040a0    ...@    ADD      r0,r0,#0x50000000
        0x0000e2c0:    f5004080    ...@    ADD      r0,r0,#0x4000
        0x0000e2c4:    f8d00240    ..@.    LDR      r0,[r0,#0x240]
        0x0000e2c8:    f8c40868    ..h.    STR      r0,[r4,#0x868]
        0x0000e2cc:    2001        .       MOVS     r0,#1
        0x0000e2ce:    f8840860    ..`.    STRB     r0,[r4,#0x860]
        0x0000e2d2:    7920         y      LDRB     r0,[r4,#4]
        0x0000e2d4:    1c80        ..      ADDS     r0,r0,#2
        0x0000e2d6:    b2c0        ..      UXTB     r0,r0
        0x0000e2d8:    f000f972    ..r.    BL       am_hal_pwrctrl_periph_disable ; 0xe5c0
        0x0000e2dc:    2000        .       MOVS     r0,#0
        0x0000e2de:    bd70        p.      POP      {r4-r6,pc}
        0x0000e2e0:    b12d        -.      CBZ      r5,0xe2ee ; am_hal_iom_power_ctrl + 390
        0x0000e2e2:    f8940860    ..`.    LDRB     r0,[r4,#0x860]
        0x0000e2e6:    2800        .(      CMP      r0,#0
        0x0000e2e8:    bf04        ..      ITT      EQ
        0x0000e2ea:    2007        .       MOVEQ    r0,#7
        0x0000e2ec:    bd70        p.      POPEQ    {r4-r6,pc}
        0x0000e2ee:    7920         y      LDRB     r0,[r4,#4]
        0x0000e2f0:    1c80        ..      ADDS     r0,r0,#2
        0x0000e2f2:    b2c0        ..      UXTB     r0,r0
        0x0000e2f4:    f000f98c    ....    BL       am_hal_pwrctrl_periph_enable ; 0xe610
        0x0000e2f8:    2d00        .-      CMP      r5,#0
        0x0000e2fa:    d0ef        ..      BEQ      0xe2dc ; am_hal_iom_power_ctrl + 372
        0x0000e2fc:    6861        ah      LDR      r1,[r4,#4]
        0x0000e2fe:    f8d40864    ..d.    LDR      r0,[r4,#0x864]
        0x0000e302:    0309        ..      LSLS     r1,r1,#12
        0x0000e304:    f10141a0    ...A    ADD      r1,r1,#0x50000000
        0x0000e308:    f5014180    ...A    ADD      r1,r1,#0x4000
        0x0000e30c:    f8c10104    ....    STR      r0,[r1,#0x104]
        0x0000e310:    6861        ah      LDR      r1,[r4,#4]
        0x0000e312:    f8d4086c    ..l.    LDR      r0,[r4,#0x86c]
        0x0000e316:    0309        ..      LSLS     r1,r1,#12
        0x0000e318:    f10141a0    ...A    ADD      r1,r1,#0x50000000
        0x0000e31c:    f5014180    ...A    ADD      r1,r1,#0x4000
        0x0000e320:    f8c10210    ....    STR      r0,[r1,#0x210]
        0x0000e324:    6861        ah      LDR      r1,[r4,#4]
        0x0000e326:    f8d40870    ..p.    LDR      r0,[r4,#0x870]
        0x0000e32a:    0309        ..      LSLS     r1,r1,#12
        0x0000e32c:    f10141a0    ...A    ADD      r1,r1,#0x50000000
        0x0000e330:    f5014180    ...A    ADD      r1,r1,#0x4000
        0x0000e334:    f8c10214    ....    STR      r0,[r1,#0x214]
        0x0000e338:    6861        ah      LDR      r1,[r4,#4]
        0x0000e33a:    f8d40878    ..x.    LDR      r0,[r4,#0x878]
        0x0000e33e:    0309        ..      LSLS     r1,r1,#12
        0x0000e340:    f10141a0    ...A    ADD      r1,r1,#0x50000000
        0x0000e344:    f5014180    ...A    ADD      r1,r1,#0x4000
        0x0000e348:    f8c10298    ....    STR      r0,[r1,#0x298]
        0x0000e34c:    6861        ah      LDR      r1,[r4,#4]
        0x0000e34e:    f8d40880    ....    LDR      r0,[r4,#0x880]
        0x0000e352:    0309        ..      LSLS     r1,r1,#12
        0x0000e354:    f10141a0    ...A    ADD      r1,r1,#0x50000000
        0x0000e358:    f5014180    ...A    ADD      r1,r1,#0x4000
        0x0000e35c:    f8c102a8    ....    STR      r0,[r1,#0x2a8]
        0x0000e360:    6861        ah      LDR      r1,[r4,#4]
        0x0000e362:    f8d40884    ....    LDR      r0,[r4,#0x884]
        0x0000e366:    0309        ..      LSLS     r1,r1,#12
        0x0000e368:    f10141a0    ...A    ADD      r1,r1,#0x50000000
        0x0000e36c:    f5014180    ...A    ADD      r1,r1,#0x4000
        0x0000e370:    f8c102ac    ....    STR      r0,[r1,#0x2ac]
        0x0000e374:    6861        ah      LDR      r1,[r4,#4]
        0x0000e376:    f8d40888    ....    LDR      r0,[r4,#0x888]
        0x0000e37a:    0309        ..      LSLS     r1,r1,#12
        0x0000e37c:    f10141a0    ...A    ADD      r1,r1,#0x50000000
        0x0000e380:    f5014180    ...A    ADD      r1,r1,#0x4000
        0x0000e384:    f8c102b0    ....    STR      r0,[r1,#0x2b0]
        0x0000e388:    6861        ah      LDR      r1,[r4,#4]
        0x0000e38a:    f8d4088c    ....    LDR      r0,[r4,#0x88c]
        0x0000e38e:    0309        ..      LSLS     r1,r1,#12
        0x0000e390:    f10141a0    ...A    ADD      r1,r1,#0x50000000
        0x0000e394:    f5014180    ...A    ADD      r1,r1,#0x4000
        0x0000e398:    f8c10300    ....    STR      r0,[r1,#0x300]
        0x0000e39c:    6861        ah      LDR      r1,[r4,#4]
        0x0000e39e:    f8d40890    ....    LDR      r0,[r4,#0x890]
        0x0000e3a2:    0309        ..      LSLS     r1,r1,#12
        0x0000e3a4:    f10141a0    ...A    ADD      r1,r1,#0x50000000
        0x0000e3a8:    f5014180    ...A    ADD      r1,r1,#0x4000
        0x0000e3ac:    f8c10400    ....    STR      r0,[r1,#0x400]
        0x0000e3b0:    6861        ah      LDR      r1,[r4,#4]
        0x0000e3b2:    f8d40894    ....    LDR      r0,[r4,#0x894]
        0x0000e3b6:    0309        ..      LSLS     r1,r1,#12
        0x0000e3b8:    f10141a0    ...A    ADD      r1,r1,#0x50000000
        0x0000e3bc:    f5014180    ...A    ADD      r1,r1,#0x4000
        0x0000e3c0:    f8c10200    ....    STR      r0,[r1,#0x200]
        0x0000e3c4:    6861        ah      LDR      r1,[r4,#4]
        0x0000e3c6:    f8d40868    ..h.    LDR      r0,[r4,#0x868]
        0x0000e3ca:    0309        ..      LSLS     r1,r1,#12
        0x0000e3cc:    f10141a0    ...A    ADD      r1,r1,#0x50000000
        0x0000e3d0:    f5014180    ...A    ADD      r1,r1,#0x4000
        0x0000e3d4:    f8c10240    ..@.    STR      r0,[r1,#0x240]
        0x0000e3d8:    6861        ah      LDR      r1,[r4,#4]
        0x0000e3da:    f894087c    ..|.    LDRB     r0,[r4,#0x87c]
        0x0000e3de:    0309        ..      LSLS     r1,r1,#12
        0x0000e3e0:    f10141a0    ...A    ADD      r1,r1,#0x50000000
        0x0000e3e4:    f5014180    ...A    ADD      r1,r1,#0x4000
        0x0000e3e8:    f8c102a4    ....    STR      r0,[r1,#0x2a4]
        0x0000e3ec:    6861        ah      LDR      r1,[r4,#4]
        0x0000e3ee:    f8d40874    ..t.    LDR      r0,[r4,#0x874]
        0x0000e3f2:    0309        ..      LSLS     r1,r1,#12
        0x0000e3f4:    f10141a0    ...A    ADD      r1,r1,#0x50000000
        0x0000e3f8:    f5014180    ...A    ADD      r1,r1,#0x4000
        0x0000e3fc:    f0200001     ...    BIC      r0,r0,#1
        0x0000e400:    f8c10294    ....    STR      r0,[r1,#0x294]
        0x0000e404:    f8940874    ..t.    LDRB     r0,[r4,#0x874]
        0x0000e408:    f0100f01    ....    TST      r0,#1
        0x0000e40c:    d012        ..      BEQ      0xe434 ; am_hal_iom_power_ctrl + 716
        0x0000e40e:    6a60        `j      LDR      r0,[r4,#0x24]
        0x0000e410:    b960        `.      CBNZ     r0,0xe42c ; am_hal_iom_power_ctrl + 708
        0x0000e412:    6861        ah      LDR      r1,[r4,#4]
        0x0000e414:    0308        ..      LSLS     r0,r1,#12
        0x0000e416:    f10040a0    ...@    ADD      r0,r0,#0x50000000
        0x0000e41a:    f5004080    ...@    ADD      r0,r0,#0x4000
        0x0000e41e:    f8d00298    ....    LDR      r0,[r0,#0x298]
        0x0000e422:    4a07        .J      LDR      r2,[pc,#28] ; [0xe440] = 0x50004298
        0x0000e424:    eb023101    ...1    ADD      r1,r2,r1,LSL #12
        0x0000e428:    e9c01000    ....    STRD     r1,r0,[r0,#0]
        0x0000e42c:    f8d40828    ..(.    LDR      r0,[r4,#0x828]
        0x0000e430:    f7fefcba    ....    BL       am_hal_cmdq_enable ; 0xcda8
        0x0000e434:    2000        .       MOVS     r0,#0
        0x0000e436:    f8840860    ..`.    STRB     r0,[r4,#0x860]
        0x0000e43a:    e74f        O.      B        0xe2dc ; am_hal_iom_power_ctrl + 372
    $d
        0x0000e43c:    00123456    V4..    DCD    1193046
        0x0000e440:    50004298    .B.P    DCD    1342194328
    $t
    i.am_hal_itm_enable
    am_hal_itm_enable
        0x0000e444:    480a        .H      LDR      r0,[pc,#40] ; [0xe470] = 0xe000edfc
        0x0000e446:    6801        .h      LDR      r1,[r0,#0]
        0x0000e448:    f0417180    A..q    ORR      r1,r1,#0x1000000
        0x0000e44c:    6001        .`      STR      r1,[r0,#0]
        0x0000e44e:    6801        .h      LDR      r1,[r0,#0]
        0x0000e450:    f0117f80    ....    TST      r1,#0x1000000
        0x0000e454:    d0fb        ..      BEQ      0xe44e ; am_hal_itm_enable + 10
        0x0000e456:    4908        .I      LDR      r1,[pc,#32] ; [0xe478] = 0xe0000fb0
        0x0000e458:    4806        .H      LDR      r0,[pc,#24] ; [0xe474] = 0xc5acce55
        0x0000e45a:    6008        .`      STR      r0,[r1,#0]
        0x0000e45c:    4907        .I      LDR      r1,[pc,#28] ; [0xe47c] = 0xe0000e40
        0x0000e45e:    200f        .       MOVS     r0,#0xf
        0x0000e460:    6008        .`      STR      r0,[r1,#0]
        0x0000e462:    1748        H.      ASRS     r0,r1,#29
        0x0000e464:    4906        .I      LDR      r1,[pc,#24] ; [0xe480] = 0xe0000e00
        0x0000e466:    6008        .`      STR      r0,[r1,#0]
        0x0000e468:    4907        .I      LDR      r1,[pc,#28] ; [0xe488] = 0xe0000e80
        0x0000e46a:    4806        .H      LDR      r0,[pc,#24] ; [0xe484] = 0x150511
        0x0000e46c:    6008        .`      STR      r0,[r1,#0]
        0x0000e46e:    4770        pG      BX       lr
    $d
        0x0000e470:    e000edfc    ....    DCD    3758157308
        0x0000e474:    c5acce55    U...    DCD    3316436565
        0x0000e478:    e0000fb0    ....    DCD    3758100400
        0x0000e47c:    e0000e40    @...    DCD    3758100032
        0x0000e480:    e0000e00    ....    DCD    3758099968
        0x0000e484:    00150511    ....    DCD    1377553
        0x0000e488:    e0000e80    ....    DCD    3758100096
    $t
    i.am_hal_itm_print
    am_hal_itm_print
        0x0000e48c:    7802        .x      LDRB     r2,[r0,#0]
        0x0000e48e:    2100        .!      MOVS     r1,#0
        0x0000e490:    2a00        .*      CMP      r2,#0
        0x0000e492:    bf08        ..      IT       EQ
        0x0000e494:    4770        pG      BXEQ     lr
        0x0000e496:    1c49        I.      ADDS     r1,r1,#1
        0x0000e498:    5c42        B\      LDRB     r2,[r0,r1]
        0x0000e49a:    2a00        .*      CMP      r2,#0
        0x0000e49c:    d1fb        ..      BNE      0xe496 ; am_hal_itm_print + 10
        0x0000e49e:    2900        .)      CMP      r1,#0
        0x0000e4a0:    bf08        ..      IT       EQ
        0x0000e4a2:    4770        pG      BXEQ     lr
        0x0000e4a4:    f810cb01    ....    LDRB     r12,[r0],#1
        0x0000e4a8:    f04f4260    O.`B    MOV      r2,#0xe0000000
        0x0000e4ac:    6813        .h      LDR      r3,[r2,#0]
        0x0000e4ae:    2b00        .+      CMP      r3,#0
        0x0000e4b0:    d0fc        ..      BEQ      0xe4ac ; am_hal_itm_print + 32
        0x0000e4b2:    f882c000    ....    STRB     r12,[r2,#0]
        0x0000e4b6:    1e49        I.      SUBS     r1,r1,#1
        0x0000e4b8:    d1f4        ..      BNE      0xe4a4 ; am_hal_itm_print + 24
        0x0000e4ba:    4770        pG      BX       lr
    i.am_hal_pwrctrl_low_power_init
    am_hal_pwrctrl_low_power_init
        0x0000e4bc:    e92d43f8    -..C    PUSH     {r3-r9,lr}
        0x0000e4c0:    4839        9H      LDR      r0,[pc,#228] ; [0xe5a8] = 0x1000009c
        0x0000e4c2:    6801        .h      LDR      r1,[r0,#0]
        0x0000e4c4:    b911        ..      CBNZ     r1,0xe4cc ; am_hal_pwrctrl_low_power_init + 16
        0x0000e4c6:    4939        9I      LDR      r1,[pc,#228] ; [0xe5ac] = 0x4ffff000
        0x0000e4c8:    6809        .h      LDR      r1,[r1,#0]
        0x0000e4ca:    6001        .`      STR      r1,[r0,#0]
        0x0000e4cc:    4f38        8O      LDR      r7,[pc,#224] ; [0xe5b0] = 0x40020000
        0x0000e4ce:    68f8        .h      LDR      r0,[r7,#0xc]
        0x0000e4d0:    4c38        8L      LDR      r4,[pc,#224] ; [0xe5b4] = 0x40021000
        0x0000e4d2:    b2c0        ..      UXTB     r0,r0
        0x0000e4d4:    f04f0801    O...    MOV      r8,#1
        0x0000e4d8:    2812        .(      CMP      r0,#0x12
        0x0000e4da:    d127        '.      BNE      0xe52c ; am_hal_pwrctrl_low_power_init + 112
        0x0000e4dc:    6860        `h      LDR      r0,[r4,#4]
        0x0000e4de:    f0100f01    ....    TST      r0,#1
        0x0000e4e2:    d023        #.      BEQ      0xe52c ; am_hal_pwrctrl_low_power_init + 112
        0x0000e4e4:    260d        .&      MOVS     r6,#0xd
        0x0000e4e6:    f7fdfe7b    ..{.    BL       am_hal_interrupt_master_disable ; 0xc1e0
        0x0000e4ea:    9000        ..      STR      r0,[sp,#0]
        0x0000e4ec:    68a0        .h      LDR      r0,[r4,#8]
        0x0000e4ee:    f8df90c8    ....    LDR      r9,[pc,#200] ; [0xe5b8] = 0x119cc
        0x0000e4f2:    f8d9109c    ....    LDR      r1,[r9,#0x9c]
        0x0000e4f6:    4308        .C      ORRS     r0,r0,r1
        0x0000e4f8:    60a0        .`      STR      r0,[r4,#8]
        0x0000e4fa:    9800        ..      LDR      r0,[sp,#0]
        0x0000e4fc:    f7fdfe74    ..t.    BL       am_hal_interrupt_master_set ; 0xc1e8
        0x0000e500:    eb060046    ..F.    ADD      r0,r6,r6,LSL #1
        0x0000e504:    2500        .%      MOVS     r5,#0
        0x0000e506:    eb090680    ....    ADD      r6,r9,r0,LSL #2
        0x0000e50a:    20a0        .       MOVS     r0,#0xa0
        0x0000e50c:    f7fefdf6    ....    BL       am_hal_flash_delay ; 0xd0fc
        0x0000e510:    69a1        .i      LDR      r1,[r4,#0x18]
        0x0000e512:    6870        ph      LDR      r0,[r6,#4]
        0x0000e514:    4201        .B      TST      r1,r0
        0x0000e516:    d102        ..      BNE      0xe51e ; am_hal_pwrctrl_low_power_init + 98
        0x0000e518:    350a        .5      ADDS     r5,r5,#0xa
        0x0000e51a:    2d14        .-      CMP      r5,#0x14
        0x0000e51c:    d3f5        ..      BCC      0xe50a ; am_hal_pwrctrl_low_power_init + 78
        0x0000e51e:    69a0        .i      LDR      r0,[r4,#0x18]
        0x0000e520:    6871        qh      LDR      r1,[r6,#4]
        0x0000e522:    4208        .B      TST      r0,r1
        0x0000e524:    bf04        ..      ITT      EQ
        0x0000e526:    4640        @F      MOVEQ    r0,r8
        0x0000e528:    e8bd83f8    ....    POPEQ    {r3-r9,pc}
        0x0000e52c:    2100        .!      MOVS     r1,#0
        0x0000e52e:    200c        .       MOVS     r0,#0xc
        0x0000e530:    f7fef9ac    ....    BL       am_hal_cachectrl_control ; 0xc88c
        0x0000e534:    69a0        .i      LDR      r0,[r4,#0x18]
        0x0000e536:    f4107f80    ....    TST      r0,#0x100
        0x0000e53a:    d132        2.      BNE      0xe5a2 ; am_hal_pwrctrl_low_power_init + 230
        0x0000e53c:    69b8        .i      LDR      r0,[r7,#0x18]
        0x0000e53e:    f0400001    @...    ORR      r0,r0,#1
        0x0000e542:    61b8        .a      STR      r0,[r7,#0x18]
        0x0000e544:    2307        .#      MOVS     r3,#7
        0x0000e546:    461a        .F      MOV      r2,r3
        0x0000e548:    491c        .I      LDR      r1,[pc,#112] ; [0xe5bc] = 0x40020018
        0x0000e54a:    f2427010    B..p    MOV      r0,#0x2710
        0x0000e54e:    f8cd8000    ....    STR      r8,[sp,#0]
        0x0000e552:    f7fefde5    ....    BL       am_hal_flash_delay_status_check ; 0xd120
        0x0000e556:    2800        .(      CMP      r0,#0
        0x0000e558:    bf1c        ..      ITT      NE
        0x0000e55a:    2004        .       MOVNE    r0,#4
        0x0000e55c:    e8bd83f8    ....    POPNE    {r3-r9,pc}
        0x0000e560:    6820         h      LDR      r0,[r4,#0]
        0x0000e562:    f0400001    @...    ORR      r0,r0,#1
        0x0000e566:    6020         `      STR      r0,[r4,#0]
        0x0000e568:    6a60        `j      LDR      r0,[r4,#0x24]
        0x0000e56a:    f0400040    @.@.    ORR      r0,r0,#0x40
        0x0000e56e:    6260        `b      STR      r0,[r4,#0x24]
        0x0000e570:    68f8        .h      LDR      r0,[r7,#0xc]
        0x0000e572:    b2c0        ..      UXTB     r0,r0
        0x0000e574:    2811        .(      CMP      r0,#0x11
        0x0000e576:    d114        ..      BNE      0xe5a2 ; am_hal_pwrctrl_low_power_init + 230
        0x0000e578:    f8d7035c    ..\.    LDR      r0,[r7,#0x35c]
        0x0000e57c:    f42000c0     ...    BIC      r0,r0,#0x600000
        0x0000e580:    f8c7035c    ..\.    STR      r0,[r7,#0x35c]
        0x0000e584:    f8d70368    ..h.    LDR      r0,[r7,#0x368]
        0x0000e588:    f420607c     .|`    BIC      r0,r0,#0xfc0
        0x0000e58c:    f5007070    ..pp    ADD      r0,r0,#0x3c0
        0x0000e590:    f8c70368    ..h.    STR      r0,[r7,#0x368]
        0x0000e594:    f8d70368    ..h.    LDR      r0,[r7,#0x368]
        0x0000e598:    f020003f     .?.    BIC      r0,r0,#0x3f
        0x0000e59c:    300f        .0      ADDS     r0,r0,#0xf
        0x0000e59e:    f8c70368    ..h.    STR      r0,[r7,#0x368]
        0x0000e5a2:    2000        .       MOVS     r0,#0
        0x0000e5a4:    e8bd83f8    ....    POP      {r3-r9,pc}
    $d
        0x0000e5a8:    1000009c    ....    DCD    268435612
        0x0000e5ac:    4ffff000    ...O    DCD    1342173184
        0x0000e5b0:    40020000    ...@    DCD    1073872896
        0x0000e5b4:    40021000    ...@    DCD    1073876992
        0x0000e5b8:    000119cc    ....    DCD    72140
        0x0000e5bc:    40020018    ...@    DCD    1073872920
    $t
    i.am_hal_pwrctrl_periph_disable
    am_hal_pwrctrl_periph_disable
        0x0000e5c0:    b5f8        ..      PUSH     {r3-r7,lr}
        0x0000e5c2:    4605        .F      MOV      r5,r0
        0x0000e5c4:    f7fdfe0c    ....    BL       am_hal_interrupt_master_disable ; 0xc1e0
        0x0000e5c8:    4c0f        .L      LDR      r4,[pc,#60] ; [0xe608] = 0x40021000
        0x0000e5ca:    9000        ..      STR      r0,[sp,#0]
        0x0000e5cc:    68a0        .h      LDR      r0,[r4,#8]
        0x0000e5ce:    4e0f        .N      LDR      r6,[pc,#60] ; [0xe60c] = 0x119cc
        0x0000e5d0:    eb050745    ..E.    ADD      r7,r5,r5,LSL #1
        0x0000e5d4:    f8561027    V.'.    LDR      r1,[r6,r7,LSL #2]
        0x0000e5d8:    4388        .C      BICS     r0,r0,r1
        0x0000e5da:    60a0        .`      STR      r0,[r4,#8]
        0x0000e5dc:    9800        ..      LDR      r0,[sp,#0]
        0x0000e5de:    f7fdfe03    ....    BL       am_hal_interrupt_master_set ; 0xc1e8
        0x0000e5e2:    2500        .%      MOVS     r5,#0
        0x0000e5e4:    eb060687    ....    ADD      r6,r6,r7,LSL #2
        0x0000e5e8:    20a0        .       MOVS     r0,#0xa0
        0x0000e5ea:    f7fefd87    ....    BL       am_hal_flash_delay ; 0xd0fc
        0x0000e5ee:    69a0        .i      LDR      r0,[r4,#0x18]
        0x0000e5f0:    6871        qh      LDR      r1,[r6,#4]
        0x0000e5f2:    4208        .B      TST      r0,r1
        0x0000e5f4:    d002        ..      BEQ      0xe5fc ; am_hal_pwrctrl_periph_disable + 60
        0x0000e5f6:    350a        .5      ADDS     r5,r5,#0xa
        0x0000e5f8:    2d14        .-      CMP      r5,#0x14
        0x0000e5fa:    d3f5        ..      BCC      0xe5e8 ; am_hal_pwrctrl_periph_disable + 40
        0x0000e5fc:    69a0        .i      LDR      r0,[r4,#0x18]
        0x0000e5fe:    4008        .@      ANDS     r0,r0,r1
        0x0000e600:    bf18        ..      IT       NE
        0x0000e602:    2001        .       MOVNE    r0,#1
        0x0000e604:    bdf8        ..      POP      {r3-r7,pc}
    $d
        0x0000e606:    0000        ..      DCW    0
        0x0000e608:    40021000    ...@    DCD    1073876992
        0x0000e60c:    000119cc    ....    DCD    72140
    $t
    i.am_hal_pwrctrl_periph_enable
    am_hal_pwrctrl_periph_enable
        0x0000e610:    b5f8        ..      PUSH     {r3-r7,lr}
        0x0000e612:    4605        .F      MOV      r5,r0
        0x0000e614:    f7fdfde4    ....    BL       am_hal_interrupt_master_disable ; 0xc1e0
        0x0000e618:    4c0f        .L      LDR      r4,[pc,#60] ; [0xe658] = 0x40021000
        0x0000e61a:    9000        ..      STR      r0,[sp,#0]
        0x0000e61c:    68a0        .h      LDR      r0,[r4,#8]
        0x0000e61e:    4e0f        .N      LDR      r6,[pc,#60] ; [0xe65c] = 0x119cc
        0x0000e620:    eb050745    ..E.    ADD      r7,r5,r5,LSL #1
        0x0000e624:    f8561027    V.'.    LDR      r1,[r6,r7,LSL #2]
        0x0000e628:    4308        .C      ORRS     r0,r0,r1
        0x0000e62a:    60a0        .`      STR      r0,[r4,#8]
        0x0000e62c:    9800        ..      LDR      r0,[sp,#0]
        0x0000e62e:    f7fdfddb    ....    BL       am_hal_interrupt_master_set ; 0xc1e8
        0x0000e632:    2500        .%      MOVS     r5,#0
        0x0000e634:    eb060687    ....    ADD      r6,r6,r7,LSL #2
        0x0000e638:    20a0        .       MOVS     r0,#0xa0
        0x0000e63a:    f7fefd5f    .._.    BL       am_hal_flash_delay ; 0xd0fc
        0x0000e63e:    69a0        .i      LDR      r0,[r4,#0x18]
        0x0000e640:    6871        qh      LDR      r1,[r6,#4]
        0x0000e642:    4208        .B      TST      r0,r1
        0x0000e644:    d102        ..      BNE      0xe64c ; am_hal_pwrctrl_periph_enable + 60
        0x0000e646:    350a        .5      ADDS     r5,r5,#0xa
        0x0000e648:    2d14        .-      CMP      r5,#0x14
        0x0000e64a:    d3f5        ..      BCC      0xe638 ; am_hal_pwrctrl_periph_enable + 40
        0x0000e64c:    69a0        .i      LDR      r0,[r4,#0x18]
        0x0000e64e:    4208        .B      TST      r0,r1
        0x0000e650:    bf14        ..      ITE      NE
        0x0000e652:    2000        .       MOVNE    r0,#0
        0x0000e654:    2001        .       MOVEQ    r0,#1
        0x0000e656:    bdf8        ..      POP      {r3-r7,pc}
    $d
        0x0000e658:    40021000    ...@    DCD    1073876992
        0x0000e65c:    000119cc    ....    DCD    72140
    $t
    i.am_hal_rtc_osc_disable
    am_hal_rtc_osc_disable
        0x0000e660:    f04f2040    O.@     MOV      r0,#0x40004000
        0x0000e664:    f8d01250    ..P.    LDR      r1,[r0,#0x250]
        0x0000e668:    f0410110    A...    ORR      r1,r1,#0x10
        0x0000e66c:    f8c01250    ..P.    STR      r1,[r0,#0x250]
        0x0000e670:    4770        pG      BX       lr
        0x0000e672:    0000        ..      MOVS     r0,r0
    i.am_hal_sysctrl_sleep
    am_hal_sysctrl_sleep
        0x0000e674:    b538        8.      PUSH     {r3-r5,lr}
        0x0000e676:    4604        .F      MOV      r4,r0
        0x0000e678:    f7fdfdb2    ....    BL       am_hal_interrupt_master_disable ; 0xc1e0
        0x0000e67c:    4912        .I      LDR      r1,[pc,#72] ; [0xe6c8] = 0xe000ed10
        0x0000e67e:    9000        ..      STR      r0,[sp,#0]
        0x0000e680:    b12c        ,.      CBZ      r4,0xe68e ; am_hal_sysctrl_sleep + 26
        0x0000e682:    4812        .H      LDR      r0,[pc,#72] ; [0xe6cc] = 0x40020000
        0x0000e684:    f8d00250    ..P.    LDR      r0,[r0,#0x250]
        0x0000e688:    f0100f01    ....    TST      r0,#1
        0x0000e68c:    d003        ..      BEQ      0xe696 ; am_hal_sysctrl_sleep + 34
        0x0000e68e:    6808        .h      LDR      r0,[r1,#0]
        0x0000e690:    f0200004     ...    BIC      r0,r0,#4
        0x0000e694:    e008        ..      B        0xe6a8 ; am_hal_sysctrl_sleep + 52
        0x0000e696:    480e        .H      LDR      r0,[pc,#56] ; [0xe6d0] = 0x1000009c
        0x0000e698:    6802        .h      LDR      r2,[r0,#0]
        0x0000e69a:    b912        ..      CBNZ     r2,0xe6a2 ; am_hal_sysctrl_sleep + 46
        0x0000e69c:    4a0d        .J      LDR      r2,[pc,#52] ; [0xe6d4] = 0x4ffff000
        0x0000e69e:    6812        .h      LDR      r2,[r2,#0]
        0x0000e6a0:    6002        .`      STR      r2,[r0,#0]
        0x0000e6a2:    6808        .h      LDR      r0,[r1,#0]
        0x0000e6a4:    f0400004    @...    ORR      r0,r0,#4
        0x0000e6a8:    6008        .`      STR      r0,[r1,#0]
        0x0000e6aa:    f3bf8f4f    ..O.    DSB      
        0x0000e6ae:    480a        .H      LDR      r0,[pc,#40] ; [0xe6d8] = 0x5fff0000
        0x0000e6b0:    490a        .I      LDR      r1,[pc,#40] ; [0xe6dc] = 0x10000040
        0x0000e6b2:    6800        .h      LDR      r0,[r0,#0]
        0x0000e6b4:    6008        .`      STR      r0,[r1,#0]
        0x0000e6b6:    bf30        0.      WFI      
        0x0000e6b8:    f3bf8f6f    ..o.    ISB      
        0x0000e6bc:    9800        ..      LDR      r0,[sp,#0]
        0x0000e6be:    e8bd4038    ..8@    POP      {r3-r5,lr}
        0x0000e6c2:    f7fdbd91    ....    B        am_hal_interrupt_master_set ; 0xc1e8
    $d
        0x0000e6c6:    0000        ..      DCW    0
        0x0000e6c8:    e000ed10    ....    DCD    3758157072
        0x0000e6cc:    40020000    ...@    DCD    1073872896
        0x0000e6d0:    1000009c    ....    DCD    268435612
        0x0000e6d4:    4ffff000    ...O    DCD    1342173184
        0x0000e6d8:    5fff0000    ..._    DCD    1610547200
        0x0000e6dc:    10000040    @...    DCD    268435520
    $t
    i.am_hal_tpiu_enable
    am_hal_tpiu_enable
        0x0000e6e0:    e92d41f0    -..A    PUSH     {r4-r8,lr}
        0x0000e6e4:    4c1d        .L      LDR      r4,[pc,#116] ; [0xe75c] = 0xe0040000
        0x0000e6e6:    b084        ..      SUB      sp,sp,#0x10
        0x0000e6e8:    2600        .&      MOVS     r6,#0
        0x0000e6ea:    6805        .h      LDR      r5,[r0,#0]
        0x0000e6ec:    f8c46304    ...c    STR      r6,[r4,#0x304]
        0x0000e6f0:    4f1b        .O      LDR      r7,[pc,#108] ; [0xe760] = 0xe0040f00
        0x0000e6f2:    f8df8070    ..p.    LDR      r8,[pc,#112] ; [0xe764] = 0x40020000
        0x0000e6f6:    2101        .!      MOVS     r1,#1
        0x0000e6f8:    b31d        ..      CBZ      r5,0xe742 ; am_hal_tpiu_enable + 98
        0x0000e6fa:    6061        a`      STR      r1,[r4,#4]
        0x0000e6fc:    491a        .I      LDR      r1,[pc,#104] ; [0xe768] = 0x1da381
        0x0000e6fe:    f5a54061    ..a@    SUB      r0,r5,#0xe100
        0x0000e702:    4288        .B      CMP      r0,r1
        0x0000e704:    bf28        (.      IT       CS
        0x0000e706:    4d19        .M      LDRCS    r5,[pc,#100] ; [0xe76c] = 0xf4240
        0x0000e708:    4668        hF      MOV      r0,sp
        0x0000e70a:    f7fefaad    ....    BL       am_hal_clkgen_status_get ; 0xcc68
        0x0000e70e:    9800        ..      LDR      r0,[sp,#0]
        0x0000e710:    f1b03fff    ...?    CMP      r0,#0xffffffff
        0x0000e714:    bf1d        ..      ITTTE    NE
        0x0000e716:    08c0        ..      LSRNE    r0,r0,#3
        0x0000e718:    fbb0f0f5    ....    UDIVNE   r0,r0,r5
        0x0000e71c:    1e40        @.      SUBNE    r0,r0,#1
        0x0000e71e:    2005        .       MOVEQ    r0,#5
        0x0000e720:    b280        ..      UXTH     r0,r0
        0x0000e722:    6120         a      STR      r0,[r4,#0x10]
        0x0000e724:    2002        .       MOVS     r0,#2
        0x0000e726:    f8c400f0    ....    STR      r0,[r4,#0xf0]
        0x0000e72a:    603e        >`      STR      r6,[r7,#0]
        0x0000e72c:    f2402001    @..     MOV      r0,#0x201
        0x0000e730:    f8c80250    ..P.    STR      r0,[r8,#0x250]
        0x0000e734:    f44f7048    O.Hp    MOV      r0,#0x320
        0x0000e738:    f7fefce0    ....    BL       am_hal_flash_delay ; 0xd0fc
        0x0000e73c:    b004        ..      ADD      sp,sp,#0x10
        0x0000e73e:    e8bd81f0    ....    POP      {r4-r8,pc}
        0x0000e742:    6902        .i      LDR      r2,[r0,#0x10]
        0x0000e744:    6122        "a      STR      r2,[r4,#0x10]
        0x0000e746:    6882        .h      LDR      r2,[r0,#8]
        0x0000e748:    f8c420f0    ...     STR      r2,[r4,#0xf0]
        0x0000e74c:    7b02        .{      LDRB     r2,[r0,#0xc]
        0x0000e74e:    1e52        R.      SUBS     r2,r2,#1
        0x0000e750:    4091        .@      LSLS     r1,r1,r2
        0x0000e752:    6061        a`      STR      r1,[r4,#4]
        0x0000e754:    603e        >`      STR      r6,[r7,#0]
        0x0000e756:    6840        @h      LDR      r0,[r0,#4]
        0x0000e758:    e7ea        ..      B        0xe730 ; am_hal_tpiu_enable + 80
    $d
        0x0000e75a:    0000        ..      DCW    0
        0x0000e75c:    e0040000    ....    DCD    3758358528
        0x0000e760:    e0040f00    ....    DCD    3758362368
        0x0000e764:    40020000    ...@    DCD    1073872896
        0x0000e768:    001da381    ....    DCD    1942401
        0x0000e76c:    000f4240    @B..    DCD    1000000
    $t
    i.am_iomaster0_isr
    am_iomaster0_isr
        0x0000e770:    b508        ..      PUSH     {r3,lr}
        0x0000e772:    466a        jF      MOV      r2,sp
        0x0000e774:    2101        .!      MOVS     r1,#1
        0x0000e776:    4809        .H      LDR      r0,[pc,#36] ; [0xe79c] = 0x10000004
        0x0000e778:    6800        .h      LDR      r0,[r0,#0]
        0x0000e77a:    f7fffc29    ..).    BL       am_hal_iom_interrupt_status_get ; 0xdfd0
        0x0000e77e:    b958        X.      CBNZ     r0,0xe798 ; am_iomaster0_isr + 40
        0x0000e780:    9800        ..      LDR      r0,[sp,#0]
        0x0000e782:    b148        H.      CBZ      r0,0xe798 ; am_iomaster0_isr + 40
        0x0000e784:    4805        .H      LDR      r0,[pc,#20] ; [0xe79c] = 0x10000004
        0x0000e786:    9900        ..      LDR      r1,[sp,#0]
        0x0000e788:    6800        .h      LDR      r0,[r0,#0]
        0x0000e78a:    f7fffa63    ..c.    BL       am_hal_iom_interrupt_clear ; 0xdc54
        0x0000e78e:    4803        .H      LDR      r0,[pc,#12] ; [0xe79c] = 0x10000004
        0x0000e790:    9900        ..      LDR      r1,[sp,#0]
        0x0000e792:    6800        .h      LDR      r0,[r0,#0]
        0x0000e794:    f7fffa9a    ....    BL       am_hal_iom_interrupt_service ; 0xdccc
        0x0000e798:    bd08        ..      POP      {r3,pc}
    $d
        0x0000e79a:    0000        ..      DCW    0
        0x0000e79c:    10000004    ....    DCD    268435460
    $t
    i.am_util_delay_ms
    am_util_delay_ms
        0x0000e7a0:    b5fe        ..      PUSH     {r1-r7,lr}
        0x0000e7a2:    4604        .F      MOV      r4,r0
        0x0000e7a4:    4668        hF      MOV      r0,sp
        0x0000e7a6:    f7fefa5f    .._.    BL       am_hal_clkgen_status_get ; 0xcc68
        0x0000e7aa:    9e00        ..      LDR      r6,[sp,#0]
        0x0000e7ac:    f64030b8    @..0    MOV      r0,#0xbb8
        0x0000e7b0:    fbb6f0f0    ....    UDIV     r0,r6,r0
        0x0000e7b4:    fb00f504    ....    MUL      r5,r0,r4
        0x0000e7b8:    4628        (F      MOV      r0,r5
        0x0000e7ba:    f7fefc9f    ....    BL       am_hal_flash_delay ; 0xd0fc
        0x0000e7be:    bdfe        ..      POP      {r1-r7,pc}
    i.am_util_delay_us
    am_util_delay_us
        0x0000e7c0:    b5fe        ..      PUSH     {r1-r7,lr}
        0x0000e7c2:    4604        .F      MOV      r4,r0
        0x0000e7c4:    4668        hF      MOV      r0,sp
        0x0000e7c6:    f7fefa4f    ..O.    BL       am_hal_clkgen_status_get ; 0xcc68
        0x0000e7ca:    9e00        ..      LDR      r6,[sp,#0]
        0x0000e7cc:    4804        .H      LDR      r0,[pc,#16] ; [0xe7e0] = 0x2dc6c0
        0x0000e7ce:    fbb6f0f0    ....    UDIV     r0,r6,r0
        0x0000e7d2:    fb00f504    ....    MUL      r5,r0,r4
        0x0000e7d6:    4628        (F      MOV      r0,r5
        0x0000e7d8:    f7fefc90    ....    BL       am_hal_flash_delay ; 0xd0fc
        0x0000e7dc:    bdfe        ..      POP      {r1-r7,pc}
    $d
        0x0000e7de:    0000        ..      DCW    0
        0x0000e7e0:    002dc6c0    ..-.    DCD    3000000
    $t
    i.am_util_stdio_printf
    am_util_stdio_printf
        0x0000e7e4:    b40f        ..      PUSH     {r0-r3}
        0x0000e7e6:    b538        8.      PUSH     {r3-r5,lr}
        0x0000e7e8:    480b        .H      LDR      r0,[pc,#44] ; [0xe818] = 0x10000034
        0x0000e7ea:    6800        .h      LDR      r0,[r0,#0]
        0x0000e7ec:    b918        ..      CBNZ     r0,0xe7f6 ; am_util_stdio_printf + 18
        0x0000e7ee:    2000        .       MOVS     r0,#0
        0x0000e7f0:    bc38        8.      POP      {r3-r5}
        0x0000e7f2:    f85dfb14    ]...    LDR      pc,[sp],#0x14
        0x0000e7f6:    a805        ..      ADD      r0,sp,#0x14
        0x0000e7f8:    9000        ..      STR      r0,[sp,#0]
        0x0000e7fa:    4808        .H      LDR      r0,[pc,#32] ; [0xe81c] = 0x10001190
        0x0000e7fc:    9a00        ..      LDR      r2,[sp,#0]
        0x0000e7fe:    9904        ..      LDR      r1,[sp,#0x10]
        0x0000e800:    f000f824    ..$.    BL       am_util_stdio_vsprintf ; 0xe84c
        0x0000e804:    4604        .F      MOV      r4,r0
        0x0000e806:    2000        .       MOVS     r0,#0
        0x0000e808:    9000        ..      STR      r0,[sp,#0]
        0x0000e80a:    4804        .H      LDR      r0,[pc,#16] ; [0xe81c] = 0x10001190
        0x0000e80c:    4902        .I      LDR      r1,[pc,#8] ; [0xe818] = 0x10000034
        0x0000e80e:    6809        .h      LDR      r1,[r1,#0]
        0x0000e810:    4788        .G      BLX      r1
        0x0000e812:    4620         F      MOV      r0,r4
        0x0000e814:    e7ec        ..      B        0xe7f0 ; am_util_stdio_printf + 12
    $d
        0x0000e816:    0000        ..      DCW    0
        0x0000e818:    10000034    4...    DCD    268435508
        0x0000e81c:    10001190    ....    DCD    268439952
    $t
    i.am_util_stdio_printf_init
    am_util_stdio_printf_init
        0x0000e820:    4901        .I      LDR      r1,[pc,#4] ; [0xe828] = 0x10000034
        0x0000e822:    6008        .`      STR      r0,[r1,#0]
        0x0000e824:    4770        pG      BX       lr
    $d
        0x0000e826:    0000        ..      DCW    0
        0x0000e828:    10000034    4...    DCD    268435508
    $t
    i.am_util_stdio_terminal_clear
    am_util_stdio_terminal_clear
        0x0000e82c:    b510        ..      PUSH     {r4,lr}
        0x0000e82e:    a002        ..      ADR      r0,{pc}+0xa ; 0xe838
        0x0000e830:    f7ffffd8    ....    BL       am_util_stdio_printf ; 0xe7e4
        0x0000e834:    bd10        ..      POP      {r4,pc}
    $d
        0x0000e836:    0000        ..      DCW    0
        0x0000e838:    0a0a0a0a    ....    DCD    168430090
        0x0000e83c:    0a0a0a0a    ....    DCD    168430090
        0x0000e840:    0a0a0a0a    ....    DCD    168430090
        0x0000e844:    0a0a0a0a    ....    DCD    168430090
        0x0000e848:    00000a0a    ....    DCD    2570
    $t
    i.am_util_stdio_vsprintf
    am_util_stdio_vsprintf
        0x0000e84c:    e92d4ff7    -..O    PUSH     {r0-r2,r4-r11,lr}
        0x0000e850:    ed2d8b02    -...    VPUSH    {d8}
        0x0000e854:    b08a        ..      SUB      sp,sp,#0x28
        0x0000e856:    4604        .F      MOV      r4,r0
        0x0000e858:    460d        .F      MOV      r5,r1
        0x0000e85a:    f04f0900    O...    MOV      r9,#0
        0x0000e85e:    2000        .       MOVS     r0,#0
        0x0000e860:    9000        ..      STR      r0,[sp,#0]
        0x0000e862:    e1b9        ..      B        0xebd8 ; am_util_stdio_vsprintf + 908
        0x0000e864:    2006        .       MOVS     r0,#6
        0x0000e866:    9006        ..      STR      r0,[sp,#0x18]
        0x0000e868:    7828        (x      LDRB     r0,[r5,#0]
        0x0000e86a:    2825        %(      CMP      r0,#0x25
        0x0000e86c:    d012        ..      BEQ      0xe894 ; am_util_stdio_vsprintf + 72
        0x0000e86e:    b16c        l.      CBZ      r4,0xe88c ; am_util_stdio_vsprintf + 64
        0x0000e870:    7828        (x      LDRB     r0,[r5,#0]
        0x0000e872:    280a        .(      CMP      r0,#0xa
        0x0000e874:    d107        ..      BNE      0xe886 ; am_util_stdio_vsprintf + 58
        0x0000e876:    48de        .H      LDR      r0,[pc,#888] ; [0xebf0] = 0x10000038
        0x0000e878:    7800        .x      LDRB     r0,[r0,#0]
        0x0000e87a:    b120         .      CBZ      r0,0xe886 ; am_util_stdio_vsprintf + 58
        0x0000e87c:    200d        .       MOVS     r0,#0xd
        0x0000e87e:    f8040b01    ....    STRB     r0,[r4],#1
        0x0000e882:    f1090901    ....    ADD      r9,r9,#1
        0x0000e886:    7828        (x      LDRB     r0,[r5,#0]
        0x0000e888:    f8040b01    ....    STRB     r0,[r4],#1
        0x0000e88c:    1c6d        m.      ADDS     r5,r5,#1
        0x0000e88e:    f1090901    ....    ADD      r9,r9,#1
        0x0000e892:    e1a1        ..      B        0xebd8 ; am_util_stdio_vsprintf + 908
        0x0000e894:    1c6d        m.      ADDS     r5,r5,#1
        0x0000e896:    2000        .       MOVS     r0,#0
        0x0000e898:    9002        ..      STR      r0,[sp,#8]
        0x0000e89a:    9003        ..      STR      r0,[sp,#0xc]
        0x0000e89c:    2020                MOVS     r0,#0x20
        0x0000e89e:    9004        ..      STR      r0,[sp,#0x10]
        0x0000e8a0:    7828        (x      LDRB     r0,[r5,#0]
        0x0000e8a2:    2830        0(      CMP      r0,#0x30
        0x0000e8a4:    d101        ..      BNE      0xe8aa ; am_util_stdio_vsprintf + 94
        0x0000e8a6:    9004        ..      STR      r0,[sp,#0x10]
        0x0000e8a8:    1c6d        m.      ADDS     r5,r5,#1
        0x0000e8aa:    a907        ..      ADD      r1,sp,#0x1c
        0x0000e8ac:    4628        (F      MOV      r0,r5
        0x0000e8ae:    f000f9a7    ....    BL       decstr_to_int ; 0xec00
        0x0000e8b2:    4606        .F      MOV      r6,r0
        0x0000e8b4:    9807        ..      LDR      r0,[sp,#0x1c]
        0x0000e8b6:    4405        .D      ADD      r5,r5,r0
        0x0000e8b8:    7828        (x      LDRB     r0,[r5,#0]
        0x0000e8ba:    2873        s(      CMP      r0,#0x73
        0x0000e8bc:    d002        ..      BEQ      0xe8c4 ; am_util_stdio_vsprintf + 120
        0x0000e8be:    2e00        ..      CMP      r6,#0
        0x0000e8c0:    da00        ..      BGE      0xe8c4 ; am_util_stdio_vsprintf + 120
        0x0000e8c2:    4276        vB      RSBS     r6,r6,#0
        0x0000e8c4:    7828        (x      LDRB     r0,[r5,#0]
        0x0000e8c6:    282e        .(      CMP      r0,#0x2e
        0x0000e8c8:    d107        ..      BNE      0xe8da ; am_util_stdio_vsprintf + 142
        0x0000e8ca:    1c6d        m.      ADDS     r5,r5,#1
        0x0000e8cc:    a907        ..      ADD      r1,sp,#0x1c
        0x0000e8ce:    4628        (F      MOV      r0,r5
        0x0000e8d0:    f000f996    ....    BL       decstr_to_int ; 0xec00
        0x0000e8d4:    9006        ..      STR      r0,[sp,#0x18]
        0x0000e8d6:    9807        ..      LDR      r0,[sp,#0x1c]
        0x0000e8d8:    4405        .D      ADD      r5,r5,r0
        0x0000e8da:    7828        (x      LDRB     r0,[r5,#0]
        0x0000e8dc:    286c        l(      CMP      r0,#0x6c
        0x0000e8de:    d106        ..      BNE      0xe8ee ; am_util_stdio_vsprintf + 162
        0x0000e8e0:    1c6d        m.      ADDS     r5,r5,#1
        0x0000e8e2:    7828        (x      LDRB     r0,[r5,#0]
        0x0000e8e4:    286c        l(      CMP      r0,#0x6c
        0x0000e8e6:    d102        ..      BNE      0xe8ee ; am_util_stdio_vsprintf + 162
        0x0000e8e8:    1c6d        m.      ADDS     r5,r5,#1
        0x0000e8ea:    2001        .       MOVS     r0,#1
        0x0000e8ec:    9002        ..      STR      r0,[sp,#8]
        0x0000e8ee:    7828        (x      LDRB     r0,[r5,#0]
        0x0000e8f0:    2866        f(      CMP      r0,#0x66
        0x0000e8f2:    d06f        o.      BEQ      0xe9d4 ; am_util_stdio_vsprintf + 392
        0x0000e8f4:    dc08        ..      BGT      0xe908 ; am_util_stdio_vsprintf + 188
        0x0000e8f6:    2846        F(      CMP      r0,#0x46
        0x0000e8f8:    d06d        m.      BEQ      0xe9d6 ; am_util_stdio_vsprintf + 394
        0x0000e8fa:    2858        X(      CMP      r0,#0x58
        0x0000e8fc:    d05c        \.      BEQ      0xe9b8 ; am_util_stdio_vsprintf + 364
        0x0000e8fe:    2863        c(      CMP      r0,#0x63
        0x0000e900:    d00b        ..      BEQ      0xe91a ; am_util_stdio_vsprintf + 206
        0x0000e902:    2864        d(      CMP      r0,#0x64
        0x0000e904:    d168        h.      BNE      0xe9d8 ; am_util_stdio_vsprintf + 396
        0x0000e906:    e0c3        ..      B        0xea90 ; am_util_stdio_vsprintf + 580
        0x0000e908:    2869        i(      CMP      r0,#0x69
        0x0000e90a:    d07d        }.      BEQ      0xea08 ; am_util_stdio_vsprintf + 444
        0x0000e90c:    2873        s(      CMP      r0,#0x73
        0x0000e90e:    d011        ..      BEQ      0xe934 ; am_util_stdio_vsprintf + 232
        0x0000e910:    2875        u(      CMP      r0,#0x75
        0x0000e912:    d07a        z.      BEQ      0xea0a ; am_util_stdio_vsprintf + 446
        0x0000e914:    2878        x(      CMP      r0,#0x78
        0x0000e916:    d1f5        ..      BNE      0xe904 ; am_util_stdio_vsprintf + 184
        0x0000e918:    e04b        K.      B        0xe9b2 ; am_util_stdio_vsprintf + 358
        0x0000e91a:    980e        ..      LDR      r0,[sp,#0x38]
        0x0000e91c:    f8101b04    ....    LDRB     r1,[r0],#4
        0x0000e920:    900e        ..      STR      r0,[sp,#0x38]
        0x0000e922:    b2c8        ..      UXTB     r0,r1
        0x0000e924:    9005        ..      STR      r0,[sp,#0x14]
        0x0000e926:    b114        ..      CBZ      r4,0xe92e ; am_util_stdio_vsprintf + 226
        0x0000e928:    9805        ..      LDR      r0,[sp,#0x14]
        0x0000e92a:    f8040b01    ....    STRB     r0,[r4],#1
        0x0000e92e:    f1090901    ....    ADD      r9,r9,#1
        0x0000e932:    e14e        N.      B        0xebd2 ; am_util_stdio_vsprintf + 902
        0x0000e934:    980e        ..      LDR      r0,[sp,#0x38]
        0x0000e936:    f850bb04    P...    LDR      r11,[r0],#4
        0x0000e93a:    900e        ..      STR      r0,[sp,#0x38]
        0x0000e93c:    4658        XF      MOV      r0,r11
        0x0000e93e:    f000fe3d    ..=.    BL       simple_strlen ; 0xf5bc
        0x0000e942:    9000        ..      STR      r0,[sp,#0]
        0x0000e944:    2e00        ..      CMP      r6,#0
        0x0000e946:    dd11        ..      BLE      0xe96c ; am_util_stdio_vsprintf + 288
        0x0000e948:    9800        ..      LDR      r0,[sp,#0]
        0x0000e94a:    42b0        .B      CMP      r0,r6
        0x0000e94c:    d20e        ..      BCS      0xe96c ; am_util_stdio_vsprintf + 288
        0x0000e94e:    9800        ..      LDR      r0,[sp,#0]
        0x0000e950:    1a36        6.      SUBS     r6,r6,r0
        0x0000e952:    4632        2F      MOV      r2,r6
        0x0000e954:    4620         F      MOV      r0,r4
        0x0000e956:    9904        ..      LDR      r1,[sp,#0x10]
        0x0000e958:    f000fe19    ....    BL       padbuffer ; 0xf58e
        0x0000e95c:    4606        .F      MOV      r6,r0
        0x0000e95e:    b10c        ..      CBZ      r4,0xe964 ; am_util_stdio_vsprintf + 280
        0x0000e960:    4630        0F      MOV      r0,r6
        0x0000e962:    e000        ..      B        0xe966 ; am_util_stdio_vsprintf + 282
        0x0000e964:    2000        .       MOVS     r0,#0
        0x0000e966:    4404        .D      ADD      r4,r4,r0
        0x0000e968:    44b1        .D      ADD      r9,r9,r6
        0x0000e96a:    2600        .&      MOVS     r6,#0
        0x0000e96c:    e008        ..      B        0xe980 ; am_util_stdio_vsprintf + 308
        0x0000e96e:    b11c        ..      CBZ      r4,0xe978 ; am_util_stdio_vsprintf + 300
        0x0000e970:    f89b0000    ....    LDRB     r0,[r11,#0]
        0x0000e974:    f8040b01    ....    STRB     r0,[r4],#1
        0x0000e978:    f10b0b01    ....    ADD      r11,r11,#1
        0x0000e97c:    f1090901    ....    ADD      r9,r9,#1
        0x0000e980:    f89b0000    ....    LDRB     r0,[r11,#0]
        0x0000e984:    2800        .(      CMP      r0,#0
        0x0000e986:    d1f2        ..      BNE      0xe96e ; am_util_stdio_vsprintf + 290
        0x0000e988:    b196        ..      CBZ      r6,0xe9b0 ; am_util_stdio_vsprintf + 356
        0x0000e98a:    4276        vB      RSBS     r6,r6,#0
        0x0000e98c:    9800        ..      LDR      r0,[sp,#0]
        0x0000e98e:    42b0        .B      CMP      r0,r6
        0x0000e990:    d20e        ..      BCS      0xe9b0 ; am_util_stdio_vsprintf + 356
        0x0000e992:    9800        ..      LDR      r0,[sp,#0]
        0x0000e994:    1a36        6.      SUBS     r6,r6,r0
        0x0000e996:    4632        2F      MOV      r2,r6
        0x0000e998:    4620         F      MOV      r0,r4
        0x0000e99a:    9904        ..      LDR      r1,[sp,#0x10]
        0x0000e99c:    f000fdf7    ....    BL       padbuffer ; 0xf58e
        0x0000e9a0:    4606        .F      MOV      r6,r0
        0x0000e9a2:    b10c        ..      CBZ      r4,0xe9a8 ; am_util_stdio_vsprintf + 348
        0x0000e9a4:    4630        0F      MOV      r0,r6
        0x0000e9a6:    e000        ..      B        0xe9aa ; am_util_stdio_vsprintf + 350
        0x0000e9a8:    2000        .       MOVS     r0,#0
        0x0000e9aa:    4404        .D      ADD      r4,r4,r0
        0x0000e9ac:    44b1        .D      ADD      r9,r9,r6
        0x0000e9ae:    2600        .&      MOVS     r6,#0
        0x0000e9b0:    e10f        ..      B        0xebd2 ; am_util_stdio_vsprintf + 902
        0x0000e9b2:    2001        .       MOVS     r0,#1
        0x0000e9b4:    9003        ..      STR      r0,[sp,#0xc]
        0x0000e9b6:    bf00        ..      NOP      
        0x0000e9b8:    9802        ..      LDR      r0,[sp,#8]
        0x0000e9ba:    b170        p.      CBZ      r0,0xe9da ; am_util_stdio_vsprintf + 398
        0x0000e9bc:    980e        ..      LDR      r0,[sp,#0x38]
        0x0000e9be:    1dc0        ..      ADDS     r0,r0,#7
        0x0000e9c0:    f0200007     ...    BIC      r0,r0,#7
        0x0000e9c4:    4601        .F      MOV      r1,r0
        0x0000e9c6:    900e        ..      STR      r0,[sp,#0x38]
        0x0000e9c8:    6800        .h      LDR      r0,[r0,#0]
        0x0000e9ca:    6849        Ih      LDR      r1,[r1,#4]
        0x0000e9cc:    9a0e        ..      LDR      r2,[sp,#0x38]
        0x0000e9ce:    3208        .2      ADDS     r2,r2,#8
        0x0000e9d0:    920e        ..      STR      r2,[sp,#0x38]
        0x0000e9d2:    e008        ..      B        0xe9e6 ; am_util_stdio_vsprintf + 410
        0x0000e9d4:    e0c3        ..      B        0xeb5e ; am_util_stdio_vsprintf + 786
        0x0000e9d6:    e0c3        ..      B        0xeb60 ; am_util_stdio_vsprintf + 788
        0x0000e9d8:    e0f4        ..      B        0xebc4 ; am_util_stdio_vsprintf + 888
        0x0000e9da:    980e        ..      LDR      r0,[sp,#0x38]
        0x0000e9dc:    6800        .h      LDR      r0,[r0,#0]
        0x0000e9de:    990e        ..      LDR      r1,[sp,#0x38]
        0x0000e9e0:    1d09        ..      ADDS     r1,r1,#4
        0x0000e9e2:    910e        ..      STR      r1,[sp,#0x38]
        0x0000e9e4:    2100        .!      MOVS     r1,#0
        0x0000e9e6:    4607        .F      MOV      r7,r0
        0x0000e9e8:    4688        .F      MOV      r8,r1
        0x0000e9ea:    b19e        ..      CBZ      r6,0xea14 ; am_util_stdio_vsprintf + 456
        0x0000e9ec:    4638        8F      MOV      r0,r7
        0x0000e9ee:    4641        AF      MOV      r1,r8
        0x0000e9f0:    f000fd84    ....    BL       ndigits_in_hex ; 0xf4fc
        0x0000e9f4:    1a36        6.      SUBS     r6,r6,r0
        0x0000e9f6:    4632        2F      MOV      r2,r6
        0x0000e9f8:    4620         F      MOV      r0,r4
        0x0000e9fa:    9904        ..      LDR      r1,[sp,#0x10]
        0x0000e9fc:    f000fdc7    ....    BL       padbuffer ; 0xf58e
        0x0000ea00:    4606        .F      MOV      r6,r0
        0x0000ea02:    b11c        ..      CBZ      r4,0xea0c ; am_util_stdio_vsprintf + 448
        0x0000ea04:    4630        0F      MOV      r0,r6
        0x0000ea06:    e002        ..      B        0xea0e ; am_util_stdio_vsprintf + 450
        0x0000ea08:    e043        C.      B        0xea92 ; am_util_stdio_vsprintf + 582
        0x0000ea0a:    e00e        ..      B        0xea2a ; am_util_stdio_vsprintf + 478
        0x0000ea0c:    2000        .       MOVS     r0,#0
        0x0000ea0e:    4404        .D      ADD      r4,r4,r0
        0x0000ea10:    44b1        .D      ADD      r9,r9,r6
        0x0000ea12:    2600        .&      MOVS     r6,#0
        0x0000ea14:    4622        "F      MOV      r2,r4
        0x0000ea16:    4638        8F      MOV      r0,r7
        0x0000ea18:    4641        AF      MOV      r1,r8
        0x0000ea1a:    9b03        ..      LDR      r3,[sp,#0xc]
        0x0000ea1c:    f000fdda    ....    BL       uint64_to_hexstr ; 0xf5d4
        0x0000ea20:    4682        .F      MOV      r10,r0
        0x0000ea22:    b104        ..      CBZ      r4,0xea26 ; am_util_stdio_vsprintf + 474
        0x0000ea24:    4454        TD      ADD      r4,r4,r10
        0x0000ea26:    44d1        .D      ADD      r9,r9,r10
        0x0000ea28:    e0d3        ..      B        0xebd2 ; am_util_stdio_vsprintf + 902
        0x0000ea2a:    9802        ..      LDR      r0,[sp,#8]
        0x0000ea2c:    b158        X.      CBZ      r0,0xea46 ; am_util_stdio_vsprintf + 506
        0x0000ea2e:    980e        ..      LDR      r0,[sp,#0x38]
        0x0000ea30:    1dc0        ..      ADDS     r0,r0,#7
        0x0000ea32:    f0200007     ...    BIC      r0,r0,#7
        0x0000ea36:    4601        .F      MOV      r1,r0
        0x0000ea38:    900e        ..      STR      r0,[sp,#0x38]
        0x0000ea3a:    6800        .h      LDR      r0,[r0,#0]
        0x0000ea3c:    6849        Ih      LDR      r1,[r1,#4]
        0x0000ea3e:    9a0e        ..      LDR      r2,[sp,#0x38]
        0x0000ea40:    3208        .2      ADDS     r2,r2,#8
        0x0000ea42:    920e        ..      STR      r2,[sp,#0x38]
        0x0000ea44:    e005        ..      B        0xea52 ; am_util_stdio_vsprintf + 518
        0x0000ea46:    980e        ..      LDR      r0,[sp,#0x38]
        0x0000ea48:    6800        .h      LDR      r0,[r0,#0]
        0x0000ea4a:    990e        ..      LDR      r1,[sp,#0x38]
        0x0000ea4c:    1d09        ..      ADDS     r1,r1,#4
        0x0000ea4e:    910e        ..      STR      r1,[sp,#0x38]
        0x0000ea50:    2100        .!      MOVS     r1,#0
        0x0000ea52:    4607        .F      MOV      r7,r0
        0x0000ea54:    4688        .F      MOV      r8,r1
        0x0000ea56:    b18e        ..      CBZ      r6,0xea7c ; am_util_stdio_vsprintf + 560
        0x0000ea58:    4638        8F      MOV      r0,r7
        0x0000ea5a:    4641        AF      MOV      r1,r8
        0x0000ea5c:    f000fd7a    ..z.    BL       ndigits_in_u64 ; 0xf554
        0x0000ea60:    1a36        6.      SUBS     r6,r6,r0
        0x0000ea62:    4632        2F      MOV      r2,r6
        0x0000ea64:    4620         F      MOV      r0,r4
        0x0000ea66:    9904        ..      LDR      r1,[sp,#0x10]
        0x0000ea68:    f000fd91    ....    BL       padbuffer ; 0xf58e
        0x0000ea6c:    4606        .F      MOV      r6,r0
        0x0000ea6e:    b10c        ..      CBZ      r4,0xea74 ; am_util_stdio_vsprintf + 552
        0x0000ea70:    4630        0F      MOV      r0,r6
        0x0000ea72:    e000        ..      B        0xea76 ; am_util_stdio_vsprintf + 554
        0x0000ea74:    2000        .       MOVS     r0,#0
        0x0000ea76:    4404        .D      ADD      r4,r4,r0
        0x0000ea78:    44b1        .D      ADD      r9,r9,r6
        0x0000ea7a:    2600        .&      MOVS     r6,#0
        0x0000ea7c:    4622        "F      MOV      r2,r4
        0x0000ea7e:    4638        8F      MOV      r0,r7
        0x0000ea80:    4641        AF      MOV      r1,r8
        0x0000ea82:    f000fdec    ....    BL       uint64_to_str ; 0xf65e
        0x0000ea86:    4682        .F      MOV      r10,r0
        0x0000ea88:    b104        ..      CBZ      r4,0xea8c ; am_util_stdio_vsprintf + 576
        0x0000ea8a:    4454        TD      ADD      r4,r4,r10
        0x0000ea8c:    44d1        .D      ADD      r9,r9,r10
        0x0000ea8e:    e0a0        ..      B        0xebd2 ; am_util_stdio_vsprintf + 902
        0x0000ea90:    bf00        ..      NOP      
        0x0000ea92:    9802        ..      LDR      r0,[sp,#8]
        0x0000ea94:    b158        X.      CBZ      r0,0xeaae ; am_util_stdio_vsprintf + 610
        0x0000ea96:    980e        ..      LDR      r0,[sp,#0x38]
        0x0000ea98:    1dc0        ..      ADDS     r0,r0,#7
        0x0000ea9a:    f0200007     ...    BIC      r0,r0,#7
        0x0000ea9e:    4601        .F      MOV      r1,r0
        0x0000eaa0:    900e        ..      STR      r0,[sp,#0x38]
        0x0000eaa2:    6800        .h      LDR      r0,[r0,#0]
        0x0000eaa4:    6849        Ih      LDR      r1,[r1,#4]
        0x0000eaa6:    9a0e        ..      LDR      r2,[sp,#0x38]
        0x0000eaa8:    3208        .2      ADDS     r2,r2,#8
        0x0000eaaa:    920e        ..      STR      r2,[sp,#0x38]
        0x0000eaac:    e005        ..      B        0xeaba ; am_util_stdio_vsprintf + 622
        0x0000eaae:    980e        ..      LDR      r0,[sp,#0x38]
        0x0000eab0:    6800        .h      LDR      r0,[r0,#0]
        0x0000eab2:    990e        ..      LDR      r1,[sp,#0x38]
        0x0000eab4:    1d09        ..      ADDS     r1,r1,#4
        0x0000eab6:    910e        ..      STR      r1,[sp,#0x38]
        0x0000eab8:    17c1        ..      ASRS     r1,r0,#31
        0x0000eaba:    e9cd0108    ....    STRD     r0,r1,[sp,#0x20]
        0x0000eabe:    2300        .#      MOVS     r3,#0
        0x0000eac0:    e9dd0108    ....    LDRD     r0,r1,[sp,#0x20]
        0x0000eac4:    1ac0        ..      SUBS     r0,r0,r3
        0x0000eac6:    4199        .A      SBCS     r1,r1,r3
        0x0000eac8:    da08        ..      BGE      0xeadc ; am_util_stdio_vsprintf + 656
        0x0000eaca:    2200        ."      MOVS     r2,#0
        0x0000eacc:    e9dd1008    ....    LDRD     r1,r0,[sp,#0x20]
        0x0000ead0:    424f        OB      RSBS     r7,r1,#0
        0x0000ead2:    eb620800    b...    SBC      r8,r2,r0
        0x0000ead6:    2001        .       MOVS     r0,#1
        0x0000ead8:    9001        ..      STR      r0,[sp,#4]
        0x0000eada:    e003        ..      B        0xeae4 ; am_util_stdio_vsprintf + 664
        0x0000eadc:    e9dd7808    ...x    LDRD     r7,r8,[sp,#0x20]
        0x0000eae0:    2000        .       MOVS     r0,#0
        0x0000eae2:    9001        ..      STR      r0,[sp,#4]
        0x0000eae4:    b34e        N.      CBZ      r6,0xeb3a ; am_util_stdio_vsprintf + 750
        0x0000eae6:    4638        8F      MOV      r0,r7
        0x0000eae8:    4641        AF      MOV      r1,r8
        0x0000eaea:    f000fd21    ..!.    BL       ndigits_in_i64 ; 0xf530
        0x0000eaee:    1a36        6.      SUBS     r6,r6,r0
        0x0000eaf0:    9801        ..      LDR      r0,[sp,#4]
        0x0000eaf2:    b148        H.      CBZ      r0,0xeb08 ; am_util_stdio_vsprintf + 700
        0x0000eaf4:    1e76        v.      SUBS     r6,r6,#1
        0x0000eaf6:    9804        ..      LDR      r0,[sp,#0x10]
        0x0000eaf8:    2830        0(      CMP      r0,#0x30
        0x0000eafa:    d105        ..      BNE      0xeb08 ; am_util_stdio_vsprintf + 700
        0x0000eafc:    b114        ..      CBZ      r4,0xeb04 ; am_util_stdio_vsprintf + 696
        0x0000eafe:    202d        -       MOVS     r0,#0x2d
        0x0000eb00:    f8040b01    ....    STRB     r0,[r4],#1
        0x0000eb04:    f1090901    ....    ADD      r9,r9,#1
        0x0000eb08:    4632        2F      MOV      r2,r6
        0x0000eb0a:    4620         F      MOV      r0,r4
        0x0000eb0c:    9904        ..      LDR      r1,[sp,#0x10]
        0x0000eb0e:    f000fd3e    ..>.    BL       padbuffer ; 0xf58e
        0x0000eb12:    4606        .F      MOV      r6,r0
        0x0000eb14:    b10c        ..      CBZ      r4,0xeb1a ; am_util_stdio_vsprintf + 718
        0x0000eb16:    4630        0F      MOV      r0,r6
        0x0000eb18:    e000        ..      B        0xeb1c ; am_util_stdio_vsprintf + 720
        0x0000eb1a:    2000        .       MOVS     r0,#0
        0x0000eb1c:    4404        .D      ADD      r4,r4,r0
        0x0000eb1e:    44b1        .D      ADD      r9,r9,r6
        0x0000eb20:    2600        .&      MOVS     r6,#0
        0x0000eb22:    9801        ..      LDR      r0,[sp,#4]
        0x0000eb24:    b188        ..      CBZ      r0,0xeb4a ; am_util_stdio_vsprintf + 766
        0x0000eb26:    9804        ..      LDR      r0,[sp,#0x10]
        0x0000eb28:    2820         (      CMP      r0,#0x20
        0x0000eb2a:    d10e        ..      BNE      0xeb4a ; am_util_stdio_vsprintf + 766
        0x0000eb2c:    b114        ..      CBZ      r4,0xeb34 ; am_util_stdio_vsprintf + 744
        0x0000eb2e:    202d        -       MOVS     r0,#0x2d
        0x0000eb30:    f8040b01    ....    STRB     r0,[r4],#1
        0x0000eb34:    f1090901    ....    ADD      r9,r9,#1
        0x0000eb38:    e007        ..      B        0xeb4a ; am_util_stdio_vsprintf + 766
        0x0000eb3a:    9801        ..      LDR      r0,[sp,#4]
        0x0000eb3c:    b128        (.      CBZ      r0,0xeb4a ; am_util_stdio_vsprintf + 766
        0x0000eb3e:    b114        ..      CBZ      r4,0xeb46 ; am_util_stdio_vsprintf + 762
        0x0000eb40:    202d        -       MOVS     r0,#0x2d
        0x0000eb42:    f8040b01    ....    STRB     r0,[r4],#1
        0x0000eb46:    f1090901    ....    ADD      r9,r9,#1
        0x0000eb4a:    4622        "F      MOV      r2,r4
        0x0000eb4c:    4638        8F      MOV      r0,r7
        0x0000eb4e:    4641        AF      MOV      r1,r8
        0x0000eb50:    f000fd85    ....    BL       uint64_to_str ; 0xf65e
        0x0000eb54:    4682        .F      MOV      r10,r0
        0x0000eb56:    b104        ..      CBZ      r4,0xeb5a ; am_util_stdio_vsprintf + 782
        0x0000eb58:    4454        TD      ADD      r4,r4,r10
        0x0000eb5a:    44d1        .D      ADD      r9,r9,r10
        0x0000eb5c:    e039        9.      B        0xebd2 ; am_util_stdio_vsprintf + 902
        0x0000eb5e:    bf00        ..      NOP      
        0x0000eb60:    b37c        |.      CBZ      r4,0xebc2 ; am_util_stdio_vsprintf + 886
        0x0000eb62:    980e        ..      LDR      r0,[sp,#0x38]
        0x0000eb64:    1dc0        ..      ADDS     r0,r0,#7
        0x0000eb66:    f0200007     ...    BIC      r0,r0,#7
        0x0000eb6a:    900e        ..      STR      r0,[sp,#0x38]
        0x0000eb6c:    ecb01b02    ....    VLDM     r0!,{d1}
        0x0000eb70:    eeb00a41    ..A.    VMOV.F32 s0,s2
        0x0000eb74:    eef00a61    ..a.    VMOV.F32 s1,s3
        0x0000eb78:    900e        ..      STR      r0,[sp,#0x38]
        0x0000eb7a:    ec510b10    Q...    VMOV     r0,r1,d0
        0x0000eb7e:    f000fe4f    ..O.    BL       __aeabi_d2f ; 0xf820
        0x0000eb82:    ee080a10    ....    VMOV     s16,r0
        0x0000eb86:    2014        .       MOVS     r0,#0x14
        0x0000eb88:    6020         `      STR      r0,[r4,#0]
        0x0000eb8a:    4620         F      MOV      r0,r4
        0x0000eb8c:    eeb00a48    ..H.    VMOV.F32 s0,s16
        0x0000eb90:    9906        ..      LDR      r1,[sp,#0x18]
        0x0000eb92:    f000f8bd    ....    BL       ftoa ; 0xed10
        0x0000eb96:    4682        .F      MOV      r10,r0
        0x0000eb98:    f1ba0f00    ....    CMP      r10,#0
        0x0000eb9c:    da0e        ..      BGE      0xebbc ; am_util_stdio_vsprintf + 880
        0x0000eb9e:    f10a0101    ....    ADD      r1,r10,#1
        0x0000eba2:    b909        ..      CBNZ     r1,0xeba8 ; am_util_stdio_vsprintf + 860
        0x0000eba4:    4813        .H      LDR      r0,[pc,#76] ; [0xebf4] = 0x302e30
        0x0000eba6:    e005        ..      B        0xebb4 ; am_util_stdio_vsprintf + 872
        0x0000eba8:    f10a0102    ....    ADD      r1,r10,#2
        0x0000ebac:    b909        ..      CBNZ     r1,0xebb2 ; am_util_stdio_vsprintf + 870
        0x0000ebae:    4812        .H      LDR      r0,[pc,#72] ; [0xebf8] = 0x232e23
        0x0000ebb0:    e000        ..      B        0xebb4 ; am_util_stdio_vsprintf + 872
        0x0000ebb2:    4812        .H      LDR      r0,[pc,#72] ; [0xebfc] = 0x3f2e3f
        0x0000ebb4:    6020         `      STR      r0,[r4,#0]
        0x0000ebb6:    f04f0a03    O...    MOV      r10,#3
        0x0000ebba:    bf00        ..      NOP      
        0x0000ebbc:    44d1        .D      ADD      r9,r9,r10
        0x0000ebbe:    4454        TD      ADD      r4,r4,r10
        0x0000ebc0:    bf00        ..      NOP      
        0x0000ebc2:    e006        ..      B        0xebd2 ; am_util_stdio_vsprintf + 902
        0x0000ebc4:    b114        ..      CBZ      r4,0xebcc ; am_util_stdio_vsprintf + 896
        0x0000ebc6:    7828        (x      LDRB     r0,[r5,#0]
        0x0000ebc8:    f8040b01    ....    STRB     r0,[r4],#1
        0x0000ebcc:    f1090901    ....    ADD      r9,r9,#1
        0x0000ebd0:    bf00        ..      NOP      
        0x0000ebd2:    bf00        ..      NOP      
        0x0000ebd4:    1c6d        m.      ADDS     r5,r5,#1
        0x0000ebd6:    bf00        ..      NOP      
        0x0000ebd8:    7828        (x      LDRB     r0,[r5,#0]
        0x0000ebda:    2800        .(      CMP      r0,#0
        0x0000ebdc:    f47fae42    ..B.    BNE      0xe864 ; am_util_stdio_vsprintf + 24
        0x0000ebe0:    b104        ..      CBZ      r4,0xebe4 ; am_util_stdio_vsprintf + 920
        0x0000ebe2:    7020         p      STRB     r0,[r4,#0]
        0x0000ebe4:    4648        HF      MOV      r0,r9
        0x0000ebe6:    b00a        ..      ADD      sp,sp,#0x28
        0x0000ebe8:    ecbd8b02    ....    VPOP     {d8}
        0x0000ebec:    e8bd8ffe    ....    POP      {r1-r11,pc}
    $d
        0x0000ebf0:    10000038    8...    DCD    268435512
        0x0000ebf4:    00302e30    0.0.    DCD    3157552
        0x0000ebf8:    00232e23    #.#.    DCD    2305571
        0x0000ebfc:    003f2e3f    ?.?.    DCD    4140607
    $t
    i.decstr_to_int
    decstr_to_int
        0x0000ec00:    b530        0.      PUSH     {r4,r5,lr}
        0x0000ec02:    4602        .F      MOV      r2,r0
        0x0000ec04:    2500        .%      MOVS     r5,#0
        0x0000ec06:    2300        .#      MOVS     r3,#0
        0x0000ec08:    2400        .$      MOVS     r4,#0
        0x0000ec0a:    7810        .x      LDRB     r0,[r2,#0]
        0x0000ec0c:    282d        -(      CMP      r0,#0x2d
        0x0000ec0e:    d102        ..      BNE      0xec16 ; decstr_to_int + 22
        0x0000ec10:    2501        .%      MOVS     r5,#1
        0x0000ec12:    1c52        R.      ADDS     r2,r2,#1
        0x0000ec14:    1c64        d.      ADDS     r4,r4,#1
        0x0000ec16:    e007        ..      B        0xec28 ; decstr_to_int + 40
        0x0000ec18:    1c64        d.      ADDS     r4,r4,#1
        0x0000ec1a:    eb030083    ....    ADD      r0,r3,r3,LSL #2
        0x0000ec1e:    0043        C.      LSLS     r3,r0,#1
        0x0000ec20:    7810        .x      LDRB     r0,[r2,#0]
        0x0000ec22:    3830        08      SUBS     r0,r0,#0x30
        0x0000ec24:    4403        .D      ADD      r3,r3,r0
        0x0000ec26:    1c52        R.      ADDS     r2,r2,#1
        0x0000ec28:    7810        .x      LDRB     r0,[r2,#0]
        0x0000ec2a:    2830        0(      CMP      r0,#0x30
        0x0000ec2c:    db02        ..      BLT      0xec34 ; decstr_to_int + 52
        0x0000ec2e:    7810        .x      LDRB     r0,[r2,#0]
        0x0000ec30:    2839        9(      CMP      r0,#0x39
        0x0000ec32:    ddf1        ..      BLE      0xec18 ; decstr_to_int + 24
        0x0000ec34:    b101        ..      CBZ      r1,0xec38 ; decstr_to_int + 56
        0x0000ec36:    600c        .`      STR      r4,[r1,#0]
        0x0000ec38:    b10d        ..      CBZ      r5,0xec3e ; decstr_to_int + 62
        0x0000ec3a:    4258        XB      RSBS     r0,r3,#0
        0x0000ec3c:    bd30        0.      POP      {r4,r5,pc}
        0x0000ec3e:    4618        .F      MOV      r0,r3
        0x0000ec40:    e7fc        ..      B        0xec3c ; decstr_to_int + 60
    i.divu64_10
    divu64_10
        0x0000ec42:    e92d4ff0    -..O    PUSH     {r4-r11,lr}
        0x0000ec46:    4604        .F      MOV      r4,r0
        0x0000ec48:    460d        .F      MOV      r5,r1
        0x0000ec4a:    2000        .       MOVS     r0,#0
        0x0000ec4c:    ea850100    ....    EOR      r1,r5,r0
        0x0000ec50:    4040        @@      EORS     r0,r0,r0
        0x0000ec52:    4301        .C      ORRS     r1,r1,r0
        0x0000ec54:    d044        D.      BEQ      0xece0 ; divu64_10 + 158
        0x0000ec56:    ea5f0a55    _.U.    LSRS     r10,r5,#1
        0x0000ec5a:    ea4f0134    O.4.    RRX      r1,r4
        0x0000ec5e:    ea4f0b94    O...    LSR      r11,r4,#2
        0x0000ec62:    ea4b7085    K..p    ORR      r0,r11,r5,LSL #30
        0x0000ec66:    180a        ..      ADDS     r2,r1,r0
        0x0000ec68:    eb4a0395    J...    ADC      r3,r10,r5,LSR #2
        0x0000ec6c:    ea4f1012    O...    LSR      r0,r2,#4
        0x0000ec70:    ea407a03    @..z    ORR      r10,r0,r3,LSL #28
        0x0000ec74:    eb1a0202    ....    ADDS     r2,r10,r2
        0x0000ec78:    eb431313    C...    ADC      r3,r3,r3,LSR #4
        0x0000ec7c:    ea4f2012    O..     LSR      r0,r2,#8
        0x0000ec80:    ea406a03    @..j    ORR      r10,r0,r3,LSL #24
        0x0000ec84:    eb1a0202    ....    ADDS     r2,r10,r2
        0x0000ec88:    eb432313    C..#    ADC      r3,r3,r3,LSR #8
        0x0000ec8c:    ea4f4012    O..@    LSR      r0,r2,#16
        0x0000ec90:    ea404a03    @..J    ORR      r10,r0,r3,LSL #16
        0x0000ec94:    eb1a0202    ....    ADDS     r2,r10,r2
        0x0000ec98:    eb434313    C..C    ADC      r3,r3,r3,LSR #16
        0x0000ec9c:    189a        ..      ADDS     r2,r3,r2
        0x0000ec9e:    f1430300    C...    ADC      r3,r3,#0
        0x0000eca2:    08d0        ..      LSRS     r0,r2,#3
        0x0000eca4:    ea407243    @.Cr    ORR      r2,r0,r3,LSL #29
        0x0000eca8:    08db        ..      LSRS     r3,r3,#3
        0x0000ecaa:    210a        .!      MOVS     r1,#0xa
        0x0000ecac:    f04f0a00    O...    MOV      r10,#0
        0x0000ecb0:    fba20b01    ....    UMULL    r0,r11,r2,r1
        0x0000ecb4:    fb03b101    ....    MLA      r1,r3,r1,r11
        0x0000ecb8:    fb02110a    ....    MLA      r1,r2,r10,r1
        0x0000ecbc:    1a26        &.      SUBS     r6,r4,r0
        0x0000ecbe:    eb650701    e...    SBC      r7,r5,r1
        0x0000ecc2:    2106        .!      MOVS     r1,#6
        0x0000ecc4:    eb160a01    ....    ADDS     r10,r6,r1
        0x0000ecc8:    f1470100    G...    ADC      r1,r7,#0
        0x0000eccc:    ea4f101a    O...    LSR      r0,r10,#4
        0x0000ecd0:    ea407a01    @..z    ORR      r10,r0,r1,LSL #28
        0x0000ecd4:    eb1a0002    ....    ADDS     r0,r10,r2
        0x0000ecd8:    eb431111    C...    ADC      r1,r3,r1,LSR #4
        0x0000ecdc:    e8bd8ff0    ....    POP      {r4-r11,pc}
        0x0000ece0:    46a0        .F      MOV      r8,r4
        0x0000ece2:    ea4f0058    O.X.    LSR      r0,r8,#1
        0x0000ece6:    eb000c98    ....    ADD      r12,r0,r8,LSR #2
        0x0000ecea:    eb0c1c1c    ....    ADD      r12,r12,r12,LSR #4
        0x0000ecee:    eb0c2c1c    ...,    ADD      r12,r12,r12,LSR #8
        0x0000ecf2:    eb0c4c1c    ...L    ADD      r12,r12,r12,LSR #16
        0x0000ecf6:    ea4f0cdc    O...    LSR      r12,r12,#3
        0x0000ecfa:    eb0c008c    ....    ADD      r0,r12,r12,LSL #2
        0x0000ecfe:    eba80940    ..@.    SUB      r9,r8,r0,LSL #1
        0x0000ed02:    f1090006    ....    ADD      r0,r9,#6
        0x0000ed06:    eb0c1010    ....    ADD      r0,r12,r0,LSR #4
        0x0000ed0a:    2100        .!      MOVS     r1,#0
        0x0000ed0c:    e7e6        ..      B        0xecdc ; divu64_10 + 154
        0x0000ed0e:    0000        ..      MOVS     r0,r0
    i.ftoa
    ftoa
        0x0000ed10:    e92d4ff3    -..O    PUSH     {r0,r1,r4-r11,lr}
        0x0000ed14:    ed2d0b02    -...    VPUSH    {d0}
        0x0000ed18:    ed2d8b02    -...    VPUSH    {d8}
        0x0000ed1c:    b081        ..      SUB      sp,sp,#4
        0x0000ed1e:    eeb08a40    ..@.    VMOV.F32 s16,s0
        0x0000ed22:    4604        .F      MOV      r4,r0
        0x0000ed24:    f8d4b000    ....    LDR      r11,[r4,#0]
        0x0000ed28:    f1bb0f04    ....    CMP      r11,#4
        0x0000ed2c:    da07        ..      BGE      0xed3e ; ftoa + 46
        0x0000ed2e:    f06f0002    o...    MVN      r0,#2
        0x0000ed32:    b001        ..      ADD      sp,sp,#4
        0x0000ed34:    ecbd8b02    ....    VPOP     {d8}
        0x0000ed38:    b004        ..      ADD      sp,sp,#0x10
        0x0000ed3a:    e8bd8ff0    ....    POP      {r4-r11,pc}
        0x0000ed3e:    eeb58ac0    ....    VCMPE.F32 s16,#0.0
        0x0000ed42:    eef1fa10    ....    VMRS     APSR_nzcv,FPSCR
        0x0000ed46:    d103        ..      BNE      0xed50 ; ftoa + 64
        0x0000ed48:    484e        NH      LDR      r0,[pc,#312] ; [0xee84] = 0x302e30
        0x0000ed4a:    6020         `      STR      r0,[r4,#0]
        0x0000ed4c:    2003        .       MOVS     r0,#3
        0x0000ed4e:    e7f0        ..      B        0xed32 ; ftoa + 34
        0x0000ed50:    46a2        .F      MOV      r10,r4
        0x0000ed52:    ed8d8a00    ....    VSTR     s16,[sp,#0]
        0x0000ed56:    9800        ..      LDR      r0,[sp,#0]
        0x0000ed58:    f3c050c7    ...P    UBFX     r0,r0,#23,#8
        0x0000ed5c:    f1a0057f    ....    SUB      r5,r0,#0x7f
        0x0000ed60:    9800        ..      LDR      r0,[sp,#0]
        0x0000ed62:    f020407f     ..@    BIC      r0,r0,#0xff000000
        0x0000ed66:    f4400900    @...    ORR      r9,r0,#0x800000
        0x0000ed6a:    f04f0800    O...    MOV      r8,#0
        0x0000ed6e:    2700        .'      MOVS     r7,#0
        0x0000ed70:    2d1f        .-      CMP      r5,#0x1f
        0x0000ed72:    db01        ..      BLT      0xed78 ; ftoa + 104
        0x0000ed74:    1eb8        ..      SUBS     r0,r7,#2
        0x0000ed76:    e7dc        ..      B        0xed32 ; ftoa + 34
        0x0000ed78:    f1150f17    ....    CMN      r5,#0x17
        0x0000ed7c:    da02        ..      BGE      0xed84 ; ftoa + 116
        0x0000ed7e:    f04f30ff    O..0    MOV      r0,#0xffffffff
        0x0000ed82:    e7d6        ..      B        0xed32 ; ftoa + 34
        0x0000ed84:    2d17        .-      CMP      r5,#0x17
        0x0000ed86:    db04        ..      BLT      0xed92 ; ftoa + 130
        0x0000ed88:    f1a50017    ....    SUB      r0,r5,#0x17
        0x0000ed8c:    fa09f700    ....    LSL      r7,r9,r0
        0x0000ed90:    e011        ..      B        0xedb6 ; ftoa + 166
        0x0000ed92:    2d00        .-      CMP      r5,#0
        0x0000ed94:    db09        ..      BLT      0xedaa ; ftoa + 154
        0x0000ed96:    f1c50017    ....    RSB      r0,r5,#0x17
        0x0000ed9a:    fa49f700    I...    ASR      r7,r9,r0
        0x0000ed9e:    1c68        h.      ADDS     r0,r5,#1
        0x0000eda0:    fa09f000    ....    LSL      r0,r9,r0
        0x0000eda4:    f020487f     ..H    BIC      r8,r0,#0xff000000
        0x0000eda8:    e005        ..      B        0xedb6 ; ftoa + 166
        0x0000edaa:    f029407f    )..@    BIC      r0,r9,#0xff000000
        0x0000edae:    1c69        i.      ADDS     r1,r5,#1
        0x0000edb0:    4249        IB      RSBS     r1,r1,#0
        0x0000edb2:    fa40f801    @...    ASR      r8,r0,r1
        0x0000edb6:    9800        ..      LDR      r0,[sp,#0]
        0x0000edb8:    2800        .(      CMP      r0,#0
        0x0000edba:    da02        ..      BGE      0xedc2 ; ftoa + 178
        0x0000edbc:    202d        -       MOVS     r0,#0x2d
        0x0000edbe:    f8040b01    ....    STRB     r0,[r4],#1
        0x0000edc2:    b91f        ..      CBNZ     r7,0xedcc ; ftoa + 188
        0x0000edc4:    2030        0       MOVS     r0,#0x30
        0x0000edc6:    f8040b01    ....    STRB     r0,[r4],#1
        0x0000edca:    e014        ..      B        0xedf6 ; ftoa + 230
        0x0000edcc:    2f00        ./      CMP      r7,#0
        0x0000edce:    dd05        ..      BLE      0xeddc ; ftoa + 204
        0x0000edd0:    4622        "F      MOV      r2,r4
        0x0000edd2:    4638        8F      MOV      r0,r7
        0x0000edd4:    17f9        ..      ASRS     r1,r7,#31
        0x0000edd6:    f000fc42    ..B.    BL       uint64_to_str ; 0xf65e
        0x0000edda:    e007        ..      B        0xedec ; ftoa + 220
        0x0000eddc:    202d        -       MOVS     r0,#0x2d
        0x0000edde:    f8040b01    ....    STRB     r0,[r4],#1
        0x0000ede2:    4622        "F      MOV      r2,r4
        0x0000ede4:    4278        xB      RSBS     r0,r7,#0
        0x0000ede6:    17c1        ..      ASRS     r1,r0,#31
        0x0000ede8:    f000fc39    ..9.    BL       uint64_to_str ; 0xf65e
        0x0000edec:    e000        ..      B        0xedf0 ; ftoa + 224
        0x0000edee:    1c64        d.      ADDS     r4,r4,#1
        0x0000edf0:    7820         x      LDRB     r0,[r4,#0]
        0x0000edf2:    2800        .(      CMP      r0,#0
        0x0000edf4:    d1fb        ..      BNE      0xedee ; ftoa + 222
        0x0000edf6:    202e        .       MOVS     r0,#0x2e
        0x0000edf8:    f8040b01    ....    STRB     r0,[r4],#1
        0x0000edfc:    f1b80f00    ....    CMP      r8,#0
        0x0000ee00:    d103        ..      BNE      0xee0a ; ftoa + 250
        0x0000ee02:    2030        0       MOVS     r0,#0x30
        0x0000ee04:    f8040b01    ....    STRB     r0,[r4],#1
        0x0000ee08:    e036        6.      B        0xee78 ; ftoa + 360
        0x0000ee0a:    eba4020a    ....    SUB      r2,r4,r10
        0x0000ee0e:    ebab0202    ....    SUB      r2,r11,r2
        0x0000ee12:    1e51        Q.      SUBS     r1,r2,#1
        0x0000ee14:    9a06        ..      LDR      r2,[sp,#0x18]
        0x0000ee16:    4291        .B      CMP      r1,r2
        0x0000ee18:    dd01        ..      BLE      0xee1e ; ftoa + 270
        0x0000ee1a:    9a06        ..      LDR      r2,[sp,#0x18]
        0x0000ee1c:    e000        ..      B        0xee20 ; ftoa + 272
        0x0000ee1e:    460a        .F      MOV      r2,r1
        0x0000ee20:    4611        .F      MOV      r1,r2
        0x0000ee22:    2000        .       MOVS     r0,#0
        0x0000ee24:    e00b        ..      B        0xee3e ; ftoa + 302
        0x0000ee26:    eb080288    ....    ADD      r2,r8,r8,LSL #2
        0x0000ee2a:    ea4f0842    O.B.    LSL      r8,r2,#1
        0x0000ee2e:    2230        0"      MOVS     r2,#0x30
        0x0000ee30:    eb026228    ..(b    ADD      r2,r2,r8,ASR #24
        0x0000ee34:    f8042b01    ...+    STRB     r2,[r4],#1
        0x0000ee38:    f028487f    (..H    BIC      r8,r8,#0xff000000
        0x0000ee3c:    1c40        @.      ADDS     r0,r0,#1
        0x0000ee3e:    4288        .B      CMP      r0,r1
        0x0000ee40:    dbf1        ..      BLT      0xee26 ; ftoa + 278
        0x0000ee42:    eb080288    ....    ADD      r2,r8,r8,LSL #2
        0x0000ee46:    0052        R.      LSLS     r2,r2,#1
        0x0000ee48:    2305        .#      MOVS     r3,#5
        0x0000ee4a:    ebb36f22    .."o    CMP      r3,r2,ASR #24
        0x0000ee4e:    dc12        ..      BGT      0xee76 ; ftoa + 358
        0x0000ee50:    1e66        f.      SUBS     r6,r4,#1
        0x0000ee52:    e00d        ..      B        0xee70 ; ftoa + 352
        0x0000ee54:    7832        2x      LDRB     r2,[r6,#0]
        0x0000ee56:    2a2e        .*      CMP      r2,#0x2e
        0x0000ee58:    d009        ..      BEQ      0xee6e ; ftoa + 350
        0x0000ee5a:    7832        2x      LDRB     r2,[r6,#0]
        0x0000ee5c:    2a39        9*      CMP      r2,#0x39
        0x0000ee5e:    d102        ..      BNE      0xee66 ; ftoa + 342
        0x0000ee60:    2230        0"      MOVS     r2,#0x30
        0x0000ee62:    7032        2p      STRB     r2,[r6,#0]
        0x0000ee64:    e003        ..      B        0xee6e ; ftoa + 350
        0x0000ee66:    7832        2x      LDRB     r2,[r6,#0]
        0x0000ee68:    1c52        R.      ADDS     r2,r2,#1
        0x0000ee6a:    7032        2p      STRB     r2,[r6,#0]
        0x0000ee6c:    e002        ..      B        0xee74 ; ftoa + 356
        0x0000ee6e:    1e76        v.      SUBS     r6,r6,#1
        0x0000ee70:    4556        VE      CMP      r6,r10
        0x0000ee72:    d2ef        ..      BCS      0xee54 ; ftoa + 324
        0x0000ee74:    bf00        ..      NOP      
        0x0000ee76:    bf00        ..      NOP      
        0x0000ee78:    2000        .       MOVS     r0,#0
        0x0000ee7a:    7020         p      STRB     r0,[r4,#0]
        0x0000ee7c:    eba4000a    ....    SUB      r0,r4,r10
        0x0000ee80:    e757        W.      B        0xed32 ; ftoa + 34
    $d
        0x0000ee82:    0000        ..      DCW    0
        0x0000ee84:    00302e30    0.0.    DCD    3157552
    $t
    i.hostint_handler
    hostint_handler
        0x0000ee88:    2001        .       MOVS     r0,#1
        0x0000ee8a:    4901        .I      LDR      r1,[pc,#4] ; [0xee90] = 0x10000000
        0x0000ee8c:    7008        .p      STRB     r0,[r1,#0]
        0x0000ee8e:    4770        pG      BX       lr
    $d
        0x0000ee90:    10000000    ....    DCD    268435456
    $t
    i.internal_iom_reset_on_error
    internal_iom_reset_on_error
        0x0000ee94:    b570        p.      PUSH     {r4-r6,lr}
        0x0000ee96:    4602        .F      MOV      r2,r0
        0x0000ee98:    f8d0085c    ..\.    LDR      r0,[r0,#0x85c]
        0x0000ee9c:    6852        Rh      LDR      r2,[r2,#4]
        0x0000ee9e:    0040        @.      LSLS     r0,r0,#1
        0x0000eea0:    0312        ..      LSLS     r2,r2,#12
        0x0000eea2:    f10244a0    ...D    ADD      r4,r2,#0x50000000
        0x0000eea6:    f5044480    ...D    ADD      r4,r4,#0x4000
        0x0000eeaa:    f8d45200    ...R    LDR      r5,[r4,#0x200]
        0x0000eeae:    2200        ."      MOVS     r2,#0
        0x0000eeb0:    f8c42200    ..."    STR      r2,[r4,#0x200]
        0x0000eeb4:    f4116f00    ...o    TST      r1,#0x800
        0x0000eeb8:    d055        U.      BEQ      0xef66 ; internal_iom_reset_on_error + 210
        0x0000eeba:    f8d42280    ..."    LDR      r2,[r4,#0x280]
        0x0000eebe:    f0120f02    ....    TST      r2,#2
        0x0000eec2:    d019        ..      BEQ      0xeef8 ; internal_iom_reset_on_error + 100
        0x0000eec4:    4b3d        =K      LDR      r3,[pc,#244] ; [0xefbc] = 0xdeadbeef
        0x0000eec6:    f8d42288    ..."    LDR      r2,[r4,#0x288]
        0x0000eeca:    b172        r.      CBZ      r2,0xeeea ; internal_iom_reset_on_error + 86
        0x0000eecc:    f8d4c100    ....    LDR      r12,[r4,#0x100]
        0x0000eed0:    f3cc2c07    ...,    UBFX     r12,r12,#8,#8
        0x0000eed4:    f1bc0f04    ....    CMP      r12,#4
        0x0000eed8:    d305        ..      BCC      0xeee6 ; internal_iom_reset_on_error + 82
        0x0000eeda:    f8c4310c    ...1    STR      r3,[r4,#0x10c]
        0x0000eede:    2a04        .*      CMP      r2,#4
        0x0000eee0:    bf88        ..      IT       HI
        0x0000eee2:    1f12        ..      SUBHI    r2,r2,#4
        0x0000eee4:    d901        ..      BLS      0xeeea ; internal_iom_reset_on_error + 86
        0x0000eee6:    2a00        .*      CMP      r2,#0
        0x0000eee8:    d1f0        ..      BNE      0xeecc ; internal_iom_reset_on_error + 56
        0x0000eeea:    f8d422b4    ..."    LDR      r2,[r4,#0x2b4]
        0x0000eeee:    f0020206    ....    AND      r2,r2,#6
        0x0000eef2:    2a04        .*      CMP      r2,#4
        0x0000eef4:    d1f9        ..      BNE      0xeeea ; internal_iom_reset_on_error + 86
        0x0000eef6:    e036        6.      B        0xef66 ; internal_iom_reset_on_error + 210
        0x0000eef8:    f8d422b4    ..."    LDR      r2,[r4,#0x2b4]
        0x0000eefc:    f0120f02    ....    TST      r2,#2
        0x0000ef00:    d013        ..      BEQ      0xef2a ; internal_iom_reset_on_error + 150
        0x0000ef02:    bf00        ..      NOP      
        0x0000ef04:    f8d42100    ...!    LDR      r2,[r4,#0x100]
        0x0000ef08:    f3c24207    ...B    UBFX     r2,r2,#16,#8
        0x0000ef0c:    2a04        .*      CMP      r2,#4
        0x0000ef0e:    d307        ..      BCC      0xef20 ; internal_iom_reset_on_error + 140
        0x0000ef10:    f8d42108    ...!    LDR      r2,[r4,#0x108]
        0x0000ef14:    f8d42100    ...!    LDR      r2,[r4,#0x100]
        0x0000ef18:    f3c24207    ...B    UBFX     r2,r2,#16,#8
        0x0000ef1c:    2a04        .*      CMP      r2,#4
        0x0000ef1e:    d2f7        ..      BCS      0xef10 ; internal_iom_reset_on_error + 124
        0x0000ef20:    f8d422b4    ..."    LDR      r2,[r4,#0x2b4]
        0x0000ef24:    f0120f02    ....    TST      r2,#2
        0x0000ef28:    d1ec        ..      BNE      0xef04 ; internal_iom_reset_on_error + 112
        0x0000ef2a:    f8d422b4    ..."    LDR      r2,[r4,#0x2b4]
        0x0000ef2e:    f0020206    ....    AND      r2,r2,#6
        0x0000ef32:    2a04        .*      CMP      r2,#4
        0x0000ef34:    d1f9        ..      BNE      0xef2a ; internal_iom_reset_on_error + 150
        0x0000ef36:    f8d42100    ...!    LDR      r2,[r4,#0x100]
        0x0000ef3a:    f4120f7f    ....    TST      r2,#0xff0000
        0x0000ef3e:    d012        ..      BEQ      0xef66 ; internal_iom_reset_on_error + 210
        0x0000ef40:    f8d42100    ...!    LDR      r2,[r4,#0x100]
        0x0000ef44:    f3c24207    ...B    UBFX     r2,r2,#16,#8
        0x0000ef48:    2a04        .*      CMP      r2,#4
        0x0000ef4a:    d307        ..      BCC      0xef5c ; internal_iom_reset_on_error + 200
        0x0000ef4c:    f8d42108    ...!    LDR      r2,[r4,#0x108]
        0x0000ef50:    f8d42100    ...!    LDR      r2,[r4,#0x100]
        0x0000ef54:    f3c24207    ...B    UBFX     r2,r2,#16,#8
        0x0000ef58:    2a04        .*      CMP      r2,#4
        0x0000ef5a:    d2f7        ..      BCS      0xef4c ; internal_iom_reset_on_error + 184
        0x0000ef5c:    f8d42100    ...!    LDR      r2,[r4,#0x100]
        0x0000ef60:    f4120f7f    ....    TST      r2,#0xff0000
        0x0000ef64:    d1ec        ..      BNE      0xef40 ; internal_iom_reset_on_error + 172
        0x0000ef66:    f0110f10    ....    TST      r1,#0x10
        0x0000ef6a:    d01f        ..      BEQ      0xefac ; internal_iom_reset_on_error + 280
        0x0000ef6c:    f8d412b4    ....    LDR      r1,[r4,#0x2b4]
        0x0000ef70:    f0010106    ....    AND      r1,r1,#6
        0x0000ef74:    2904        .)      CMP      r1,#4
        0x0000ef76:    d1f9        ..      BNE      0xef6c ; internal_iom_reset_on_error + 216
        0x0000ef78:    f8d41214    ....    LDR      r1,[r4,#0x214]
        0x0000ef7c:    f0210110    !...    BIC      r1,r1,#0x10
        0x0000ef80:    f8c41214    ....    STR      r1,[r4,#0x214]
        0x0000ef84:    f8d41110    ....    LDR      r1,[r4,#0x110]
        0x0000ef88:    f0210102    !...    BIC      r1,r1,#2
        0x0000ef8c:    f8c41110    ....    STR      r1,[r4,#0x110]
        0x0000ef90:    f7fef8b4    ....    BL       am_hal_flash_delay ; 0xd0fc
        0x0000ef94:    f8d40110    ....    LDR      r0,[r4,#0x110]
        0x0000ef98:    f0400002    @...    ORR      r0,r0,#2
        0x0000ef9c:    f8c40110    ....    STR      r0,[r4,#0x110]
        0x0000efa0:    f8d40214    ....    LDR      r0,[r4,#0x214]
        0x0000efa4:    f0400010    @...    ORR      r0,r0,#0x10
        0x0000efa8:    f8c40214    ....    STR      r0,[r4,#0x214]
        0x0000efac:    f04f30ff    O..0    MOV      r0,#0xffffffff
        0x0000efb0:    f8c40208    ....    STR      r0,[r4,#0x208]
        0x0000efb4:    f8c45200    ...R    STR      r5,[r4,#0x200]
        0x0000efb8:    bd70        p.      POP      {r4-r6,pc}
    $d
        0x0000efba:    0000        ..      DCW    0
        0x0000efbc:    deadbeef    ....    DCD    3735928559
    $t
    i.iom_clean_up
    iom_clean_up
        0x0000efc0:    b538        8.      PUSH     {r3-r5,lr}
        0x0000efc2:    4605        .F      MOV      r5,r0
        0x0000efc4:    460c        .F      MOV      r4,r1
        0x0000efc6:    2000        .       MOVS     r0,#0
        0x0000efc8:    9000        ..      STR      r0,[sp,#0]
        0x0000efca:    2301        .#      MOVS     r3,#1
        0x0000efcc:    466a        jF      MOV      r2,sp
        0x0000efce:    2178        x!      MOVS     r1,#0x78
        0x0000efd0:    4620         F      MOV      r0,r4
        0x0000efd2:    f000f8cd    ....    BL       iom_slave_write ; 0xf170
        0x0000efd6:    481f        .H      LDR      r0,[pc,#124] ; [0xf054] = 0x10000004
        0x0000efd8:    6800        .h      LDR      r0,[r0,#0]
        0x0000efda:    f7fefd51    ..Q.    BL       am_hal_iom_disable ; 0xda80
        0x0000efde:    b124        $.      CBZ      r4,0xefea ; iom_clean_up + 42
        0x0000efe0:    2100        .!      MOVS     r1,#0
        0x0000efe2:    4628        (F      MOV      r0,r5
        0x0000efe4:    f7fdf9e4    ....    BL       am_bsp_iom_pins_disable ; 0xc3b0
        0x0000efe8:    e003        ..      B        0xeff2 ; iom_clean_up + 50
        0x0000efea:    2101        .!      MOVS     r1,#1
        0x0000efec:    4628        (F      MOV      r0,r5
        0x0000efee:    f7fdf9df    ....    BL       am_bsp_iom_pins_disable ; 0xc3b0
        0x0000eff2:    2100        .!      MOVS     r1,#0
        0x0000eff4:    200a        .       MOVS     r0,#0xa
        0x0000eff6:    f7fefae9    ....    BL       am_hal_gpio_state_write ; 0xd5cc
        0x0000effa:    4817        .H      LDR      r0,[pc,#92] ; [0xf058] = 0x11710
        0x0000effc:    6801        .h      LDR      r1,[r0,#0]
        0x0000effe:    200a        .       MOVS     r0,#0xa
        0x0000f000:    f7fef9a4    ....    BL       am_hal_gpio_pinconfig ; 0xd34c
        0x0000f004:    f44f6080    O..`    MOV      r0,#0x400
        0x0000f008:    2100        .!      MOVS     r1,#0
        0x0000f00a:    f7fef8e9    ....    BL       am_hal_gpio_interrupt_disable ; 0xd1e0
        0x0000f00e:    200d        .       MOVS     r0,#0xd
        0x0000f010:    2800        .(      CMP      r0,#0
        0x0000f012:    db17        ..      BLT      0xf044 ; iom_clean_up + 132
        0x0000f014:    f000021f    ....    AND      r2,r0,#0x1f
        0x0000f018:    2101        .!      MOVS     r1,#1
        0x0000f01a:    4091        .@      LSLS     r1,r1,r2
        0x0000f01c:    4a0f        .J      LDR      r2,[pc,#60] ; [0xf05c] = 0xe000e180
        0x0000f01e:    0943        C.      LSRS     r3,r0,#5
        0x0000f020:    f8421023    B.#.    STR      r1,[r2,r3,LSL #2]
        0x0000f024:    bf00        ..      NOP      
        0x0000f026:    bf00        ..      NOP      
        0x0000f028:    bf00        ..      NOP      
        0x0000f02a:    f3bf8f4f    ..O.    DSB      
        0x0000f02e:    bf00        ..      NOP      
        0x0000f030:    bf00        ..      NOP      
        0x0000f032:    bf00        ..      NOP      
        0x0000f034:    bf00        ..      NOP      
        0x0000f036:    bf00        ..      NOP      
        0x0000f038:    bf00        ..      NOP      
        0x0000f03a:    f3bf8f6f    ..o.    ISB      
        0x0000f03e:    bf00        ..      NOP      
        0x0000f040:    bf00        ..      NOP      
        0x0000f042:    bf00        ..      NOP      
        0x0000f044:    bf00        ..      NOP      
        0x0000f046:    2200        ."      MOVS     r2,#0
        0x0000f048:    2102        .!      MOVS     r1,#2
        0x0000f04a:    4802        .H      LDR      r0,[pc,#8] ; [0xf054] = 0x10000004
        0x0000f04c:    6800        .h      LDR      r0,[r0,#0]
        0x0000f04e:    f7fff88b    ....    BL       am_hal_iom_power_ctrl ; 0xe168
        0x0000f052:    bd38        8.      POP      {r3-r5,pc}
    $d
        0x0000f054:    10000004    ....    DCD    268435460
        0x0000f058:    00011710    ....    DCD    71440
        0x0000f05c:    e000e180    ....    DCD    3758154112
    $t
    i.iom_set_up
    iom_set_up
        0x0000f060:    b538        8.      PUSH     {r3-r5,lr}
        0x0000f062:    4605        .F      MOV      r5,r0
        0x0000f064:    460c        .F      MOV      r4,r1
        0x0000f066:    2002        .       MOVS     r0,#2
        0x0000f068:    9000        ..      STR      r0,[sp,#0]
        0x0000f06a:    4923        #I      LDR      r1,[pc,#140] ; [0xf0f8] = 0x10000004
        0x0000f06c:    4628        (F      MOV      r0,r5
        0x0000f06e:    f7fefdc7    ....    BL       am_hal_iom_initialize ; 0xdc00
        0x0000f072:    2200        ."      MOVS     r2,#0
        0x0000f074:    4611        .F      MOV      r1,r2
        0x0000f076:    4820         H      LDR      r0,[pc,#128] ; [0xf0f8] = 0x10000004
        0x0000f078:    6800        .h      LDR      r0,[r0,#0]
        0x0000f07a:    f7fff875    ..u.    BL       am_hal_iom_power_ctrl ; 0xe168
        0x0000f07e:    b14c        L.      CBZ      r4,0xf094 ; iom_set_up + 52
        0x0000f080:    491e        .I      LDR      r1,[pc,#120] ; [0xf0fc] = 0x1000000c
        0x0000f082:    481d        .H      LDR      r0,[pc,#116] ; [0xf0f8] = 0x10000004
        0x0000f084:    6800        .h      LDR      r0,[r0,#0]
        0x0000f086:    f7fefbbf    ....    BL       am_hal_iom_configure ; 0xd808
        0x0000f08a:    2100        .!      MOVS     r1,#0
        0x0000f08c:    4628        (F      MOV      r0,r5
        0x0000f08e:    f7fdfa5d    ..].    BL       am_bsp_iom_pins_enable ; 0xc54c
        0x0000f092:    e008        ..      B        0xf0a6 ; iom_set_up + 70
        0x0000f094:    491a        .I      LDR      r1,[pc,#104] ; [0xf100] = 0x10000020
        0x0000f096:    4818        .H      LDR      r0,[pc,#96] ; [0xf0f8] = 0x10000004
        0x0000f098:    6800        .h      LDR      r0,[r0,#0]
        0x0000f09a:    f7fefbb5    ....    BL       am_hal_iom_configure ; 0xd808
        0x0000f09e:    2101        .!      MOVS     r1,#1
        0x0000f0a0:    4628        (F      MOV      r0,r5
        0x0000f0a2:    f7fdfa53    ..S.    BL       am_bsp_iom_pins_enable ; 0xc54c
        0x0000f0a6:    21ff        .!      MOVS     r1,#0xff
        0x0000f0a8:    4813        .H      LDR      r0,[pc,#76] ; [0xf0f8] = 0x10000004
        0x0000f0aa:    6800        .h      LDR      r0,[r0,#0]
        0x0000f0ac:    f7fefdec    ....    BL       am_hal_iom_interrupt_enable ; 0xdc88
        0x0000f0b0:    2006        .       MOVS     r0,#6
        0x0000f0b2:    f7fdf970    ..p.    BL       __NVIC_EnableIRQ ; 0xc396
        0x0000f0b6:    4810        .H      LDR      r0,[pc,#64] ; [0xf0f8] = 0x10000004
        0x0000f0b8:    6800        .h      LDR      r0,[r0,#0]
        0x0000f0ba:    f7fefd23    ..#.    BL       am_hal_iom_enable ; 0xdb04
        0x0000f0be:    4811        .H      LDR      r0,[pc,#68] ; [0xf104] = 0x1170c
        0x0000f0c0:    6801        .h      LDR      r1,[r0,#0]
        0x0000f0c2:    200a        .       MOVS     r0,#0xa
        0x0000f0c4:    f7fef942    ..B.    BL       am_hal_gpio_pinconfig ; 0xd34c
        0x0000f0c8:    f44f6080    O..`    MOV      r0,#0x400
        0x0000f0cc:    2100        .!      MOVS     r1,#0
        0x0000f0ce:    f7fef86d    ..m.    BL       am_hal_gpio_interrupt_clear ; 0xd1ac
        0x0000f0d2:    490d        .I      LDR      r1,[pc,#52] ; [0xf108] = 0xee89
        0x0000f0d4:    200a        .       MOVS     r0,#0xa
        0x0000f0d6:    f7fef8c3    ....    BL       am_hal_gpio_interrupt_register ; 0xd260
        0x0000f0da:    f44f6080    O..`    MOV      r0,#0x400
        0x0000f0de:    2100        .!      MOVS     r1,#0
        0x0000f0e0:    f7fef89e    ....    BL       am_hal_gpio_interrupt_enable ; 0xd220
        0x0000f0e4:    200d        .       MOVS     r0,#0xd
        0x0000f0e6:    f7fdf956    ..V.    BL       __NVIC_EnableIRQ ; 0xc396
        0x0000f0ea:    2301        .#      MOVS     r3,#1
        0x0000f0ec:    466a        jF      MOV      r2,sp
        0x0000f0ee:    2178        x!      MOVS     r1,#0x78
        0x0000f0f0:    4620         F      MOV      r0,r4
        0x0000f0f2:    f000f83d    ..=.    BL       iom_slave_write ; 0xf170
        0x0000f0f6:    bd38        8.      POP      {r3-r5,pc}
    $d
        0x0000f0f8:    10000004    ....    DCD    268435460
        0x0000f0fc:    1000000c    ....    DCD    268435468
        0x0000f100:    10000020     ...    DCD    268435488
        0x0000f104:    0001170c    ....    DCD    71436
        0x0000f108:    0000ee89    ....    DCD    61065
    $t
    i.iom_slave_read
    iom_slave_read
        0x0000f10c:    b5f0        ..      PUSH     {r4-r7,lr}
        0x0000f10e:    b08b        ..      SUB      sp,sp,#0x2c
        0x0000f110:    4604        .F      MOV      r4,r0
        0x0000f112:    460f        .F      MOV      r7,r1
        0x0000f114:    4615        .F      MOV      r5,r2
        0x0000f116:    461e        .F      MOV      r6,r3
        0x0000f118:    2001        .       MOVS     r0,#1
        0x0000f11a:    f88d0022    ..".    STRB     r0,[sp,#0x22]
        0x0000f11e:    9002        ..      STR      r0,[sp,#8]
        0x0000f120:    9703        ..      STR      r7,[sp,#0xc]
        0x0000f122:    f88d0014    ....    STRB     r0,[sp,#0x14]
        0x0000f126:    9604        ..      STR      r6,[sp,#0x10]
        0x0000f128:    9507        ..      STR      r5,[sp,#0x1c]
        0x0000f12a:    2000        .       MOVS     r0,#0
        0x0000f12c:    f88d0020    .. .    STRB     r0,[sp,#0x20]
        0x0000f130:    f88d0021    ..!.    STRB     r0,[sp,#0x21]
        0x0000f134:    9009        ..      STR      r0,[sp,#0x24]
        0x0000f136:    900a        ..      STR      r0,[sp,#0x28]
        0x0000f138:    b10c        ..      CBZ      r4,0xf13e ; iom_slave_read + 50
        0x0000f13a:    9001        ..      STR      r0,[sp,#4]
        0x0000f13c:    e001        ..      B        0xf142 ; iom_slave_read + 54
        0x0000f13e:    2010        .       MOVS     r0,#0x10
        0x0000f140:    9001        ..      STR      r0,[sp,#4]
        0x0000f142:    2000        .       MOVS     r0,#0
        0x0000f144:    4907        .I      LDR      r1,[pc,#28] ; [0xf164] = 0x10000008
        0x0000f146:    7008        .p      STRB     r0,[r1,#0]
        0x0000f148:    2300        .#      MOVS     r3,#0
        0x0000f14a:    4a07        .J      LDR      r2,[pc,#28] ; [0xf168] = 0xf5b1
        0x0000f14c:    a901        ..      ADD      r1,sp,#4
        0x0000f14e:    4807        .H      LDR      r0,[pc,#28] ; [0xf16c] = 0x10000004
        0x0000f150:    6800        .h      LDR      r0,[r0,#0]
        0x0000f152:    f7feff61    ..a.    BL       am_hal_iom_nonblocking_transfer ; 0xe018
        0x0000f156:    bf00        ..      NOP      
        0x0000f158:    4802        .H      LDR      r0,[pc,#8] ; [0xf164] = 0x10000008
        0x0000f15a:    7800        .x      LDRB     r0,[r0,#0]
        0x0000f15c:    2800        .(      CMP      r0,#0
        0x0000f15e:    d0fb        ..      BEQ      0xf158 ; iom_slave_read + 76
        0x0000f160:    b00b        ..      ADD      sp,sp,#0x2c
        0x0000f162:    bdf0        ..      POP      {r4-r7,pc}
    $d
        0x0000f164:    10000008    ....    DCD    268435464
        0x0000f168:    0000f5b1    ....    DCD    62897
        0x0000f16c:    10000004    ....    DCD    268435460
    $t
    i.iom_slave_write
    iom_slave_write
        0x0000f170:    b5f0        ..      PUSH     {r4-r7,lr}
        0x0000f172:    b08b        ..      SUB      sp,sp,#0x2c
        0x0000f174:    4604        .F      MOV      r4,r0
        0x0000f176:    460f        .F      MOV      r7,r1
        0x0000f178:    4615        .F      MOV      r5,r2
        0x0000f17a:    461e        .F      MOV      r6,r3
        0x0000f17c:    2001        .       MOVS     r0,#1
        0x0000f17e:    f88d0022    ..".    STRB     r0,[sp,#0x22]
        0x0000f182:    9002        ..      STR      r0,[sp,#8]
        0x0000f184:    f0470080    G...    ORR      r0,r7,#0x80
        0x0000f188:    9003        ..      STR      r0,[sp,#0xc]
        0x0000f18a:    2000        .       MOVS     r0,#0
        0x0000f18c:    f88d0014    ....    STRB     r0,[sp,#0x14]
        0x0000f190:    9604        ..      STR      r6,[sp,#0x10]
        0x0000f192:    9506        ..      STR      r5,[sp,#0x18]
        0x0000f194:    f88d0020    .. .    STRB     r0,[sp,#0x20]
        0x0000f198:    f88d0021    ..!.    STRB     r0,[sp,#0x21]
        0x0000f19c:    9009        ..      STR      r0,[sp,#0x24]
        0x0000f19e:    900a        ..      STR      r0,[sp,#0x28]
        0x0000f1a0:    b10c        ..      CBZ      r4,0xf1a6 ; iom_slave_write + 54
        0x0000f1a2:    9001        ..      STR      r0,[sp,#4]
        0x0000f1a4:    e001        ..      B        0xf1aa ; iom_slave_write + 58
        0x0000f1a6:    2010        .       MOVS     r0,#0x10
        0x0000f1a8:    9001        ..      STR      r0,[sp,#4]
        0x0000f1aa:    2000        .       MOVS     r0,#0
        0x0000f1ac:    4907        .I      LDR      r1,[pc,#28] ; [0xf1cc] = 0x10000008
        0x0000f1ae:    7008        .p      STRB     r0,[r1,#0]
        0x0000f1b0:    2300        .#      MOVS     r3,#0
        0x0000f1b2:    4a07        .J      LDR      r2,[pc,#28] ; [0xf1d0] = 0xf5b1
        0x0000f1b4:    a901        ..      ADD      r1,sp,#4
        0x0000f1b6:    4807        .H      LDR      r0,[pc,#28] ; [0xf1d4] = 0x10000004
        0x0000f1b8:    6800        .h      LDR      r0,[r0,#0]
        0x0000f1ba:    f7feff2d    ..-.    BL       am_hal_iom_nonblocking_transfer ; 0xe018
        0x0000f1be:    bf00        ..      NOP      
        0x0000f1c0:    4802        .H      LDR      r0,[pc,#8] ; [0xf1cc] = 0x10000008
        0x0000f1c2:    7800        .x      LDRB     r0,[r0,#0]
        0x0000f1c4:    2800        .(      CMP      r0,#0
        0x0000f1c6:    d0fb        ..      BEQ      0xf1c0 ; iom_slave_write + 80
        0x0000f1c8:    b00b        ..      ADD      sp,sp,#0x2c
        0x0000f1ca:    bdf0        ..      POP      {r4-r7,pc}
    $d
        0x0000f1cc:    10000008    ....    DCD    268435464
        0x0000f1d0:    0000f5b1    ....    DCD    62897
        0x0000f1d4:    10000004    ....    DCD    268435460
    $t
    i.main
    main
        0x0000f1d8:    b51c        ..      PUSH     {r2-r4,lr}
        0x0000f1da:    f04f0900    O...    MOV      r9,#0
        0x0000f1de:    f04f0801    O...    MOV      r8,#1
        0x0000f1e2:    2000        .       MOVS     r0,#0
        0x0000f1e4:    9000        ..      STR      r0,[sp,#0]
        0x0000f1e6:    2400        .$      MOVS     r4,#0
        0x0000f1e8:    2600        .&      MOVS     r6,#0
        0x0000f1ea:    2701        .'      MOVS     r7,#1
        0x0000f1ec:    2578        x%      MOVS     r5,#0x78
        0x0000f1ee:    2100        .!      MOVS     r1,#0
        0x0000f1f0:    4608        .F      MOV      r0,r1
        0x0000f1f2:    f7fdfcbd    ....    BL       am_hal_clkgen_control ; 0xcb70
        0x0000f1f6:    4888        .H      LDR      r0,[pc,#544] ; [0xf418] = 0x11714
        0x0000f1f8:    f7fdfb22    ..".    BL       am_hal_cachectrl_config ; 0xc840
        0x0000f1fc:    f7fdfcae    ....    BL       am_hal_cachectrl_enable ; 0xcb5c
        0x0000f200:    f7fdfaee    ....    BL       am_bsp_low_power_init ; 0xc7e0
        0x0000f204:    f7fdface    ....    BL       am_bsp_itm_printf_enable ; 0xc7a4
        0x0000f208:    f7fffb10    ....    BL       am_util_stdio_terminal_clear ; 0xe82c
        0x0000f20c:    a083        ..      ADR      r0,{pc}+0x210 ; 0xf41c
        0x0000f20e:    f7fffae9    ....    BL       am_util_stdio_printf ; 0xe7e4
        0x0000f212:    200a        .       MOVS     r0,#0xa
        0x0000f214:    f7fffac4    ....    BL       am_util_delay_ms ; 0xe7a0
        0x0000f218:    4884        .H      LDR      r0,[pc,#528] ; [0xf42c] = 0x11888
        0x0000f21a:    6801        .h      LDR      r1,[r0,#0]
        0x0000f21c:    2000        .       MOVS     r0,#0
        0x0000f21e:    f7fef895    ....    BL       am_hal_gpio_pinconfig ; 0xd34c
        0x0000f222:    f7fcffd9    ....    BL       am_hal_interrupt_master_enable ; 0xc1d8
        0x0000f226:    4641        AF      MOV      r1,r8
        0x0000f228:    4648        HF      MOV      r0,r9
        0x0000f22a:    f7ffff19    ....    BL       iom_set_up ; 0xf060
        0x0000f22e:    2064        d       MOVS     r0,#0x64
        0x0000f230:    f7fffab6    ....    BL       am_util_delay_ms ; 0xe7a0
        0x0000f234:    bf00        ..      NOP      
        0x0000f236:    e005        ..      B        0xf244 ; main + 108
        0x0000f238:    20ee        .       MOVS     r0,#0xee
        0x0000f23a:    497d        }I      LDR      r1,[pc,#500] ; [0xf430] = 0x10000118
        0x0000f23c:    5508        .U      STRB     r0,[r1,r4]
        0x0000f23e:    497d        }I      LDR      r1,[pc,#500] ; [0xf434] = 0x100000a0
        0x0000f240:    5508        .U      STRB     r0,[r1,r4]
        0x0000f242:    1c64        d.      ADDS     r4,r4,#1
        0x0000f244:    2c78        x,      CMP      r4,#0x78
        0x0000f246:    d3f7        ..      BCC      0xf238 ; main + 96
        0x0000f248:    20fd        .       MOVS     r0,#0xfd
        0x0000f24a:    9001        ..      STR      r0,[sp,#4]
        0x0000f24c:    2301        .#      MOVS     r3,#1
        0x0000f24e:    aa01        ..      ADD      r2,sp,#4
        0x0000f250:    2100        .!      MOVS     r1,#0
        0x0000f252:    4640        @F      MOV      r0,r8
        0x0000f254:    f7ffff8c    ....    BL       iom_slave_write ; 0xf170
        0x0000f258:    e054        T.      B        0xf304 ; main + 300
        0x0000f25a:    f7fcffc1    ....    BL       am_hal_interrupt_master_disable ; 0xc1e0
        0x0000f25e:    4682        .F      MOV      r10,r0
        0x0000f260:    4875        uH      LDR      r0,[pc,#468] ; [0xf438] = 0x10000000
        0x0000f262:    7800        .x      LDRB     r0,[r0,#0]
        0x0000f264:    2801        .(      CMP      r0,#1
        0x0000f266:    d146        F.      BNE      0xf2f6 ; main + 286
        0x0000f268:    4650        PF      MOV      r0,r10
        0x0000f26a:    f7fcffbd    ....    BL       am_hal_interrupt_master_set ; 0xc1e8
        0x0000f26e:    2000        .       MOVS     r0,#0
        0x0000f270:    4971        qI      LDR      r1,[pc,#452] ; [0xf438] = 0x10000000
        0x0000f272:    7008        .p      STRB     r0,[r1,#0]
        0x0000f274:    2301        .#      MOVS     r3,#1
        0x0000f276:    aa01        ..      ADD      r2,sp,#4
        0x0000f278:    2179        y!      MOVS     r1,#0x79
        0x0000f27a:    4640        @F      MOV      r0,r8
        0x0000f27c:    f7ffff46    ..F.    BL       iom_slave_read ; 0xf10c
        0x0000f280:    f89d0004    ....    LDRB     r0,[sp,#4]
        0x0000f284:    f0000002    ....    AND      r0,r0,#2
        0x0000f288:    2800        .(      CMP      r0,#0
        0x0000f28a:    d03a        :.      BEQ      0xf302 ; main + 298
        0x0000f28c:    2002        .       MOVS     r0,#2
        0x0000f28e:    9001        ..      STR      r0,[sp,#4]
        0x0000f290:    2301        .#      MOVS     r3,#1
        0x0000f292:    aa01        ..      ADD      r2,sp,#4
        0x0000f294:    217a        z!      MOVS     r1,#0x7a
        0x0000f296:    4640        @F      MOV      r0,r8
        0x0000f298:    f7ffff6a    ..j.    BL       iom_slave_write ; 0xf170
        0x0000f29c:    2301        .#      MOVS     r3,#1
        0x0000f29e:    466a        jF      MOV      r2,sp
        0x0000f2a0:    2100        .!      MOVS     r1,#0
        0x0000f2a2:    4640        @F      MOV      r0,r8
        0x0000f2a4:    f7ffff32    ..2.    BL       iom_slave_read ; 0xf10c
        0x0000f2a8:    f89d0000    ....    LDRB     r0,[sp,#0]
        0x0000f2ac:    28fe        .(      CMP      r0,#0xfe
        0x0000f2ae:    d116        ..      BNE      0xf2de ; main + 262
        0x0000f2b0:    a062        b.      ADR      r0,{pc}+0x18c ; 0xf43c
        0x0000f2b2:    f7fffa97    ....    BL       am_util_stdio_printf ; 0xe7e4
        0x0000f2b6:    485f        _H      LDR      r0,[pc,#380] ; [0xf434] = 0x100000a0
        0x0000f2b8:    7007        .p      STRB     r7,[r0,#0]
        0x0000f2ba:    7045        Ep      STRB     r5,[r0,#1]
        0x0000f2bc:    1eaa        ..      SUBS     r2,r5,#2
        0x0000f2be:    4865        eH      LDR      r0,[pc,#404] ; [0xf454] = 0xf934
        0x0000f2c0:    1981        ..      ADDS     r1,r0,r6
        0x0000f2c2:    485c        \H      LDR      r0,[pc,#368] ; [0xf434] = 0x100000a0
        0x0000f2c4:    1c80        ..      ADDS     r0,r0,#2
        0x0000f2c6:    f7fcffb2    ....    BL       __aeabi_memcpy ; 0xc22e
        0x0000f2ca:    462b        +F      MOV      r3,r5
        0x0000f2cc:    4a59        YJ      LDR      r2,[pc,#356] ; [0xf434] = 0x100000a0
        0x0000f2ce:    2100        .!      MOVS     r1,#0
        0x0000f2d0:    4640        @F      MOV      r0,r8
        0x0000f2d2:    f7ffff4d    ..M.    BL       iom_slave_write ; 0xf170
        0x0000f2d6:    a060        `.      ADR      r0,{pc}+0x182 ; 0xf458
        0x0000f2d8:    f7fffa84    ....    BL       am_util_stdio_printf ; 0xe7e4
        0x0000f2dc:    e013        ..      B        0xf306 ; main + 302
        0x0000f2de:    a064        d.      ADR      r0,{pc}+0x192 ; 0xf470
        0x0000f2e0:    f7fffa80    ....    BL       am_util_stdio_printf ; 0xe7e4
        0x0000f2e4:    20fd        .       MOVS     r0,#0xfd
        0x0000f2e6:    9001        ..      STR      r0,[sp,#4]
        0x0000f2e8:    2301        .#      MOVS     r3,#1
        0x0000f2ea:    aa01        ..      ADD      r2,sp,#4
        0x0000f2ec:    2100        .!      MOVS     r1,#0
        0x0000f2ee:    4640        @F      MOV      r0,r8
        0x0000f2f0:    f7ffff3e    ..>.    BL       iom_slave_write ; 0xf170
        0x0000f2f4:    e005        ..      B        0xf302 ; main + 298
        0x0000f2f6:    2001        .       MOVS     r0,#1
        0x0000f2f8:    f7fff9bc    ....    BL       am_hal_sysctrl_sleep ; 0xe674
        0x0000f2fc:    4650        PF      MOV      r0,r10
        0x0000f2fe:    f7fcff73    ..s.    BL       am_hal_interrupt_master_set ; 0xc1e8
        0x0000f302:    bf00        ..      NOP      
        0x0000f304:    e7a9        ..      B        0xf25a ; main + 130
        0x0000f306:    bf00        ..      NOP      
        0x0000f308:    e07a        z.      B        0xf400 ; main + 552
        0x0000f30a:    f7fcff69    ..i.    BL       am_hal_interrupt_master_disable ; 0xc1e0
        0x0000f30e:    4682        .F      MOV      r10,r0
        0x0000f310:    4849        IH      LDR      r0,[pc,#292] ; [0xf438] = 0x10000000
        0x0000f312:    7800        .x      LDRB     r0,[r0,#0]
        0x0000f314:    2801        .(      CMP      r0,#1
        0x0000f316:    d16c        l.      BNE      0xf3f2 ; main + 538
        0x0000f318:    4650        PF      MOV      r0,r10
        0x0000f31a:    f7fcff65    ..e.    BL       am_hal_interrupt_master_set ; 0xc1e8
        0x0000f31e:    2000        .       MOVS     r0,#0
        0x0000f320:    4945        EI      LDR      r1,[pc,#276] ; [0xf438] = 0x10000000
        0x0000f322:    7008        .p      STRB     r0,[r1,#0]
        0x0000f324:    2301        .#      MOVS     r3,#1
        0x0000f326:    aa01        ..      ADD      r2,sp,#4
        0x0000f328:    2179        y!      MOVS     r1,#0x79
        0x0000f32a:    4640        @F      MOV      r0,r8
        0x0000f32c:    f7fffeee    ....    BL       iom_slave_read ; 0xf10c
        0x0000f330:    f89d0004    ....    LDRB     r0,[sp,#4]
        0x0000f334:    f0000002    ....    AND      r0,r0,#2
        0x0000f338:    2800        .(      CMP      r0,#0
        0x0000f33a:    d060        `.      BEQ      0xf3fe ; main + 550
        0x0000f33c:    2002        .       MOVS     r0,#2
        0x0000f33e:    9001        ..      STR      r0,[sp,#4]
        0x0000f340:    2301        .#      MOVS     r3,#1
        0x0000f342:    aa01        ..      ADD      r2,sp,#4
        0x0000f344:    217a        z!      MOVS     r1,#0x7a
        0x0000f346:    4640        @F      MOV      r0,r8
        0x0000f348:    f7ffff12    ....    BL       iom_slave_write ; 0xf170
        0x0000f34c:    462b        +F      MOV      r3,r5
        0x0000f34e:    4a38        8J      LDR      r2,[pc,#224] ; [0xf430] = 0x10000118
        0x0000f350:    2100        .!      MOVS     r1,#0
        0x0000f352:    4640        @F      MOV      r0,r8
        0x0000f354:    f7fffeda    ....    BL       iom_slave_read ; 0xf10c
        0x0000f358:    2064        d       MOVS     r0,#0x64
        0x0000f35a:    f7fffa31    ..1.    BL       am_util_delay_us ; 0xe7c0
        0x0000f35e:    4628        (F      MOV      r0,r5
        0x0000f360:    f000f9f6    ....    BL       verify_result ; 0xf750
        0x0000f364:    9000        ..      STR      r0,[sp,#0]
        0x0000f366:    f89d0000    ....    LDRB     r0,[sp,#0]
        0x0000f36a:    2800        .(      CMP      r0,#0
        0x0000f36c:    d03d        =.      BEQ      0xf3ea ; main + 530
        0x0000f36e:    1eaa        ..      SUBS     r2,r5,#2
        0x0000f370:    4631        1F      MOV      r1,r6
        0x0000f372:    a047        G.      ADR      r0,{pc}+0x11e ; 0xf490
        0x0000f374:    f7fffa36    ..6.    BL       am_util_stdio_printf ; 0xe7e4
        0x0000f378:    2400        .$      MOVS     r4,#0
        0x0000f37a:    e005        ..      B        0xf388 ; main + 432
        0x0000f37c:    20ee        .       MOVS     r0,#0xee
        0x0000f37e:    492c        ,I      LDR      r1,[pc,#176] ; [0xf430] = 0x10000118
        0x0000f380:    5508        .U      STRB     r0,[r1,r4]
        0x0000f382:    492c        ,I      LDR      r1,[pc,#176] ; [0xf434] = 0x100000a0
        0x0000f384:    5508        .U      STRB     r0,[r1,r4]
        0x0000f386:    1c64        d.      ADDS     r4,r4,#1
        0x0000f388:    2c78        x,      CMP      r4,#0x78
        0x0000f38a:    d3f7        ..      BCC      0xf37c ; main + 420
        0x0000f38c:    1ea8        ..      SUBS     r0,r5,#2
        0x0000f38e:    4406        .D      ADD      r6,r6,r0
        0x0000f390:    f64150d8    A..P    MOV      r0,#0x1dd8
        0x0000f394:    4286        .B      CMP      r6,r0
        0x0000f396:    d30b        ..      BCC      0xf3b0 ; main + 472
        0x0000f398:    20ff        .       MOVS     r0,#0xff
        0x0000f39a:    9001        ..      STR      r0,[sp,#4]
        0x0000f39c:    2301        .#      MOVS     r3,#1
        0x0000f39e:    aa01        ..      ADD      r2,sp,#4
        0x0000f3a0:    2100        .!      MOVS     r1,#0
        0x0000f3a2:    4640        @F      MOV      r0,r8
        0x0000f3a4:    f7fffee4    ....    BL       iom_slave_write ; 0xf170
        0x0000f3a8:    a047        G.      ADR      r0,{pc}+0x120 ; 0xf4c8
        0x0000f3aa:    f7fffa1b    ....    BL       am_util_stdio_printf ; 0xe7e4
        0x0000f3ae:    e028        (.      B        0xf402 ; main + 554
        0x0000f3b0:    f64150d8    A..P    MOV      r0,#0x1dd8
        0x0000f3b4:    1b80        ..      SUBS     r0,r0,r6
        0x0000f3b6:    2876        v(      CMP      r0,#0x76
        0x0000f3b8:    d301        ..      BCC      0xf3be ; main + 486
        0x0000f3ba:    2578        x%      MOVS     r5,#0x78
        0x0000f3bc:    e002        ..      B        0xf3c4 ; main + 492
        0x0000f3be:    f1c600da    ....    RSB      r0,r6,#0xda
        0x0000f3c2:    b2c5        ..      UXTB     r5,r0
        0x0000f3c4:    1c78        x.      ADDS     r0,r7,#1
        0x0000f3c6:    b2c7        ..      UXTB     r7,r0
        0x0000f3c8:    481a        .H      LDR      r0,[pc,#104] ; [0xf434] = 0x100000a0
        0x0000f3ca:    7007        .p      STRB     r7,[r0,#0]
        0x0000f3cc:    7045        Ep      STRB     r5,[r0,#1]
        0x0000f3ce:    1eaa        ..      SUBS     r2,r5,#2
        0x0000f3d0:    4820         H      LDR      r0,[pc,#128] ; [0xf454] = 0xf934
        0x0000f3d2:    1981        ..      ADDS     r1,r0,r6
        0x0000f3d4:    4817        .H      LDR      r0,[pc,#92] ; [0xf434] = 0x100000a0
        0x0000f3d6:    1c80        ..      ADDS     r0,r0,#2
        0x0000f3d8:    f7fcff29    ..).    BL       __aeabi_memcpy ; 0xc22e
        0x0000f3dc:    462b        +F      MOV      r3,r5
        0x0000f3de:    4a15        .J      LDR      r2,[pc,#84] ; [0xf434] = 0x100000a0
        0x0000f3e0:    2100        .!      MOVS     r1,#0
        0x0000f3e2:    4640        @F      MOV      r0,r8
        0x0000f3e4:    f7fffec4    ....    BL       iom_slave_write ; 0xf170
        0x0000f3e8:    e009        ..      B        0xf3fe ; main + 550
        0x0000f3ea:    a03e        >.      ADR      r0,{pc}+0xfa ; 0xf4e4
        0x0000f3ec:    f7fff9fa    ....    BL       am_util_stdio_printf ; 0xe7e4
        0x0000f3f0:    e007        ..      B        0xf402 ; main + 554
        0x0000f3f2:    2001        .       MOVS     r0,#1
        0x0000f3f4:    f7fff93e    ..>.    BL       am_hal_sysctrl_sleep ; 0xe674
        0x0000f3f8:    4650        PF      MOV      r0,r10
        0x0000f3fa:    f7fcfef5    ....    BL       am_hal_interrupt_master_set ; 0xc1e8
        0x0000f3fe:    bf00        ..      NOP      
        0x0000f400:    e783        ..      B        0xf30a ; main + 306
        0x0000f402:    bf00        ..      NOP      
        0x0000f404:    4641        AF      MOV      r1,r8
        0x0000f406:    4648        HF      MOV      r0,r9
        0x0000f408:    f7fffdda    ....    BL       iom_clean_up ; 0xefc0
        0x0000f40c:    e002        ..      B        0xf414 ; main + 572
        0x0000f40e:    2001        .       MOVS     r0,#1
        0x0000f410:    f7fff930    ..0.    BL       am_hal_sysctrl_sleep ; 0xe674
        0x0000f414:    e7fb        ..      B        0xf40e ; main + 566
    $d
        0x0000f416:    0000        ..      DCW    0
        0x0000f418:    00011714    ....    DCD    71444
        0x0000f41c:    20534f49    IOS     DCD    542330697
        0x0000f420:    74736554    Test    DCD    1953719636
        0x0000f424:    736f4820     Hos    DCD    1936672800
        0x0000f428:    000a2e74    t...    DCD    667252
        0x0000f42c:    00011888    ....    DCD    71816
        0x0000f430:    10000118    ....    DCD    268435736
        0x0000f434:    100000a0    ....    DCD    268435616
        0x0000f438:    10000000    ....    DCD    268435456
        0x0000f43c:    6e61480a    .Han    DCD    1851869194
        0x0000f440:    61687364    dsha    DCD    1634235236
        0x0000f444:    7320656b    ke s    DCD    1931502955
        0x0000f448:    65636375    ucce    DCD    1701012341
        0x0000f44c:    0a217373    ss!.    DCD    169964403
        0x0000f450:    00000000    ....    DCD    0
        0x0000f454:    0000f934    4...    DCD    63796
        0x0000f458:    6174530a    .Sta    DCD    1635013386
        0x0000f45c:    64207472    rt d    DCD    1679848562
        0x0000f460:    20617461    ata     DCD    543257697
        0x0000f464:    6e617274    tran    DCD    1851880052
        0x0000f468:    74696d73    smit    DCD    1953066355
        0x0000f46c:    00000a21    !...    DCD    2593
        0x0000f470:    6e61480a    .Han    DCD    1851869194
        0x0000f474:    61687364    dsha    DCD    1634235236
        0x0000f478:    6620656b    ke f    DCD    1713399147
        0x0000f47c:    2c6c6961    ail,    DCD    745302369
        0x0000f480:    79727420     try    DCD    2037543968
        0x0000f484:    61676120     aga    DCD    1634165024
        0x0000f488:    0a216e69    in!.    DCD    169963113
        0x0000f48c:    00000000    ....    DCD    0
        0x0000f490:    6172540a    .Tra    DCD    1634882570
        0x0000f494:    696d736e    nsmi    DCD    1768780654
        0x0000f498:    75732074    t su    DCD    1970479220
        0x0000f49c:    73656363    cces    DCD    1936024419
        0x0000f4a0:    53202173    s! S    DCD    1394614643
        0x0000f4a4:    74726174    tart    DCD    1953653108
        0x0000f4a8:    64646120     add    DCD    1684300064
        0x0000f4ac:    73736572    ress    DCD    1936942450
        0x0000f4b0:    7830203a    : 0x    DCD    2016419898
        0x0000f4b4:    44207825    %x D    DCD    1142978597
        0x0000f4b8:    20617461    ata     DCD    543257697
        0x0000f4bc:    657a6953    Size    DCD    1702521171
        0x0000f4c0:    7830203a    : 0x    DCD    2016419898
        0x0000f4c4:    000a7825    %x..    DCD    686117
        0x0000f4c8:    4d4f490a    .IOM    DCD    1297041674
        0x0000f4cc:    61727420     tra    DCD    1634890784
        0x0000f4d0:    696d736e    nsmi    DCD    1768780654
        0x0000f4d4:    6f632074    t co    DCD    1868767348
        0x0000f4d8:    656c706d    mple    DCD    1701605485
        0x0000f4dc:    0a216574    te!.    DCD    169960820
        0x0000f4e0:    00000000    ....    DCD    0
        0x0000f4e4:    4d4f490a    .IOM    DCD    1297041674
        0x0000f4e8:    61727420     tra    DCD    1634890784
        0x0000f4ec:    696d736e    nsmi    DCD    1768780654
        0x0000f4f0:    61662074    t fa    DCD    1634082932
        0x0000f4f4:    0a216c69    il!.    DCD    169962601
        0x0000f4f8:    00000000    ....    DCD    0
    $t
    i.ndigits_in_hex
    ndigits_in_hex
        0x0000f4fc:    b530        0.      PUSH     {r4,r5,lr}
        0x0000f4fe:    4602        .F      MOV      r2,r0
        0x0000f500:    460b        .F      MOV      r3,r1
        0x0000f502:    2400        .$      MOVS     r4,#0
        0x0000f504:    ea820104    ....    EOR      r1,r2,r4
        0x0000f508:    405c        \@      EORS     r4,r4,r3
        0x0000f50a:    4321        !C      ORRS     r1,r1,r4
        0x0000f50c:    d101        ..      BNE      0xf512 ; ndigits_in_hex + 22
        0x0000f50e:    2101        .!      MOVS     r1,#1
        0x0000f510:    e000        ..      B        0xf514 ; ndigits_in_hex + 24
        0x0000f512:    2100        .!      MOVS     r1,#0
        0x0000f514:    4608        .F      MOV      r0,r1
        0x0000f516:    e004        ..      B        0xf522 ; ndigits_in_hex + 38
        0x0000f518:    0911        ..      LSRS     r1,r2,#4
        0x0000f51a:    ea417203    A..r    ORR      r2,r1,r3,LSL #28
        0x0000f51e:    091b        ..      LSRS     r3,r3,#4
        0x0000f520:    1c40        @.      ADDS     r0,r0,#1
        0x0000f522:    2400        .$      MOVS     r4,#0
        0x0000f524:    ea820104    ....    EOR      r1,r2,r4
        0x0000f528:    405c        \@      EORS     r4,r4,r3
        0x0000f52a:    4321        !C      ORRS     r1,r1,r4
        0x0000f52c:    d1f4        ..      BNE      0xf518 ; ndigits_in_hex + 28
        0x0000f52e:    bd30        0.      POP      {r4,r5,pc}
    i.ndigits_in_i64
    ndigits_in_i64
        0x0000f530:    b570        p.      PUSH     {r4-r6,lr}
        0x0000f532:    4604        .F      MOV      r4,r0
        0x0000f534:    460d        .F      MOV      r5,r1
        0x0000f536:    2100        .!      MOVS     r1,#0
        0x0000f538:    4608        .F      MOV      r0,r1
        0x0000f53a:    1a61        a.      SUBS     r1,r4,r1
        0x0000f53c:    eb750000    u...    SBCS     r0,r5,r0
        0x0000f540:    da03        ..      BGE      0xf54a ; ndigits_in_i64 + 26
        0x0000f542:    2200        ."      MOVS     r2,#0
        0x0000f544:    4264        dB      RSBS     r4,r4,#0
        0x0000f546:    eb620505    b...    SBC      r5,r2,r5
        0x0000f54a:    4620         F      MOV      r0,r4
        0x0000f54c:    4629        )F      MOV      r1,r5
        0x0000f54e:    f000f801    ....    BL       ndigits_in_u64 ; 0xf554
        0x0000f552:    bd70        p.      POP      {r4-r6,pc}
    i.ndigits_in_u64
    ndigits_in_u64
        0x0000f554:    b570        p.      PUSH     {r4-r6,lr}
        0x0000f556:    4604        .F      MOV      r4,r0
        0x0000f558:    460d        .F      MOV      r5,r1
        0x0000f55a:    2100        .!      MOVS     r1,#0
        0x0000f55c:    ea840001    ....    EOR      r0,r4,r1
        0x0000f560:    4069        i@      EORS     r1,r1,r5
        0x0000f562:    4308        .C      ORRS     r0,r0,r1
        0x0000f564:    d101        ..      BNE      0xf56a ; ndigits_in_u64 + 22
        0x0000f566:    2001        .       MOVS     r0,#1
        0x0000f568:    e000        ..      B        0xf56c ; ndigits_in_u64 + 24
        0x0000f56a:    2000        .       MOVS     r0,#0
        0x0000f56c:    4606        .F      MOV      r6,r0
        0x0000f56e:    e006        ..      B        0xf57e ; ndigits_in_u64 + 42
        0x0000f570:    4620         F      MOV      r0,r4
        0x0000f572:    4629        )F      MOV      r1,r5
        0x0000f574:    f7fffb65    ..e.    BL       divu64_10 ; 0xec42
        0x0000f578:    4604        .F      MOV      r4,r0
        0x0000f57a:    460d        .F      MOV      r5,r1
        0x0000f57c:    1c76        v.      ADDS     r6,r6,#1
        0x0000f57e:    2100        .!      MOVS     r1,#0
        0x0000f580:    ea840001    ....    EOR      r0,r4,r1
        0x0000f584:    4069        i@      EORS     r1,r1,r5
        0x0000f586:    4308        .C      ORRS     r0,r0,r1
        0x0000f588:    d1f2        ..      BNE      0xf570 ; ndigits_in_u64 + 28
        0x0000f58a:    4630        0F      MOV      r0,r6
        0x0000f58c:    bd70        p.      POP      {r4-r6,pc}
    i.padbuffer
    padbuffer
        0x0000f58e:    b530        0.      PUSH     {r4,r5,lr}
        0x0000f590:    4603        .F      MOV      r3,r0
        0x0000f592:    2000        .       MOVS     r0,#0
        0x0000f594:    2a00        .*      CMP      r2,#0
        0x0000f596:    dc00        ..      BGT      0xf59a ; padbuffer + 12
        0x0000f598:    bd30        0.      POP      {r4,r5,pc}
        0x0000f59a:    e003        ..      B        0xf5a4 ; padbuffer + 22
        0x0000f59c:    b10b        ..      CBZ      r3,0xf5a2 ; padbuffer + 20
        0x0000f59e:    f8031b01    ....    STRB     r1,[r3],#1
        0x0000f5a2:    1c40        @.      ADDS     r0,r0,#1
        0x0000f5a4:    1e14        ..      SUBS     r4,r2,#0
        0x0000f5a6:    f1a20201    ....    SUB      r2,r2,#1
        0x0000f5aa:    d1f7        ..      BNE      0xf59c ; padbuffer + 14
        0x0000f5ac:    bf00        ..      NOP      
        0x0000f5ae:    e7f3        ..      B        0xf598 ; padbuffer + 10
    i.pfnIOM_LRAM_Callback
    pfnIOM_LRAM_Callback
        0x0000f5b0:    2201        ."      MOVS     r2,#1
        0x0000f5b2:    4b01        .K      LDR      r3,[pc,#4] ; [0xf5b8] = 0x10000008
        0x0000f5b4:    701a        .p      STRB     r2,[r3,#0]
        0x0000f5b6:    4770        pG      BX       lr
    $d
        0x0000f5b8:    10000008    ....    DCD    268435464
    $t
    i.simple_strlen
    simple_strlen
        0x0000f5bc:    4601        .F      MOV      r1,r0
        0x0000f5be:    2000        .       MOVS     r0,#0
        0x0000f5c0:    b901        ..      CBNZ     r1,0xf5c4 ; simple_strlen + 8
        0x0000f5c2:    4770        pG      BX       lr
        0x0000f5c4:    e000        ..      B        0xf5c8 ; simple_strlen + 12
        0x0000f5c6:    1c40        @.      ADDS     r0,r0,#1
        0x0000f5c8:    f8113b01    ...;    LDRB     r3,[r1],#1
        0x0000f5cc:    2b00        .+      CMP      r3,#0
        0x0000f5ce:    d1fa        ..      BNE      0xf5c6 ; simple_strlen + 10
        0x0000f5d0:    bf00        ..      NOP      
        0x0000f5d2:    e7f6        ..      B        0xf5c2 ; simple_strlen + 6
    i.uint64_to_hexstr
    uint64_to_hexstr
        0x0000f5d4:    e92d41f0    -..A    PUSH     {r4-r8,lr}
        0x0000f5d8:    b085        ..      SUB      sp,sp,#0x14
        0x0000f5da:    4604        .F      MOV      r4,r0
        0x0000f5dc:    460d        .F      MOV      r5,r1
        0x0000f5de:    461e        .F      MOV      r6,r3
        0x0000f5e0:    2100        .!      MOVS     r1,#0
        0x0000f5e2:    468c        .F      MOV      r12,r1
        0x0000f5e4:    ea84070c    ....    EOR      r7,r4,r12
        0x0000f5e8:    ea850c0c    ....    EOR      r12,r5,r12
        0x0000f5ec:    ea57070c    W...    ORRS     r7,r7,r12
        0x0000f5f0:    d105        ..      BNE      0xf5fe ; uint64_to_hexstr + 42
        0x0000f5f2:    f04f0830    O.0.    MOV      r8,#0x30
        0x0000f5f6:    460f        .F      MOV      r7,r1
        0x0000f5f8:    1c49        I.      ADDS     r1,r1,#1
        0x0000f5fa:    f80d8007    ....    STRB     r8,[sp,r7]
        0x0000f5fe:    e016        ..      B        0xf62e ; uint64_to_hexstr + 90
        0x0000f600:    270f        .'      MOVS     r7,#0xf
        0x0000f602:    4027        '@      ANDS     r7,r7,r4
        0x0000f604:    b2fb        ..      UXTB     r3,r7
        0x0000f606:    2b09        .+      CMP      r3,#9
        0x0000f608:    dd05        ..      BLE      0xf616 ; uint64_to_hexstr + 66
        0x0000f60a:    b10e        ..      CBZ      r6,0xf610 ; uint64_to_hexstr + 60
        0x0000f60c:    2727        ''      MOVS     r7,#0x27
        0x0000f60e:    e000        ..      B        0xf612 ; uint64_to_hexstr + 62
        0x0000f610:    2707        .'      MOVS     r7,#7
        0x0000f612:    441f        .D      ADD      r7,r7,r3
        0x0000f614:    b2fb        ..      UXTB     r3,r7
        0x0000f616:    f1030730    ..0.    ADD      r7,r3,#0x30
        0x0000f61a:    f00708ff    ....    AND      r8,r7,#0xff
        0x0000f61e:    460f        .F      MOV      r7,r1
        0x0000f620:    1c49        I.      ADDS     r1,r1,#1
        0x0000f622:    f80d8007    ....    STRB     r8,[sp,r7]
        0x0000f626:    0927        '.      LSRS     r7,r4,#4
        0x0000f628:    ea477405    G..t    ORR      r4,r7,r5,LSL #28
        0x0000f62c:    092d        -.      LSRS     r5,r5,#4
        0x0000f62e:    f04f0c00    O...    MOV      r12,#0
        0x0000f632:    ea84070c    ....    EOR      r7,r4,r12
        0x0000f636:    ea850c0c    ....    EOR      r12,r5,r12
        0x0000f63a:    ea57070c    W...    ORRS     r7,r7,r12
        0x0000f63e:    d1df        ..      BNE      0xf600 ; uint64_to_hexstr + 44
        0x0000f640:    4608        .F      MOV      r0,r1
        0x0000f642:    b14a        J.      CBZ      r2,0xf658 ; uint64_to_hexstr + 132
        0x0000f644:    e003        ..      B        0xf64e ; uint64_to_hexstr + 122
        0x0000f646:    f81d7001    ...p    LDRB     r7,[sp,r1]
        0x0000f64a:    f8027b01    ...{    STRB     r7,[r2],#1
        0x0000f64e:    1e0f        ..      SUBS     r7,r1,#0
        0x0000f650:    f1a10101    ....    SUB      r1,r1,#1
        0x0000f654:    d1f7        ..      BNE      0xf646 ; uint64_to_hexstr + 114
        0x0000f656:    7017        .p      STRB     r7,[r2,#0]
        0x0000f658:    b005        ..      ADD      sp,sp,#0x14
        0x0000f65a:    e8bd81f0    ....    POP      {r4-r8,pc}
    i.uint64_to_str
    uint64_to_str
        0x0000f65e:    e92d4ff0    -..O    PUSH     {r4-r11,lr}
        0x0000f662:    b087        ..      SUB      sp,sp,#0x1c
        0x0000f664:    4607        .F      MOV      r7,r0
        0x0000f666:    4688        .F      MOV      r8,r1
        0x0000f668:    4616        .F      MOV      r6,r2
        0x0000f66a:    f04f0900    O...    MOV      r9,#0
        0x0000f66e:    46cb        .F      MOV      r11,r9
        0x0000f670:    bf00        ..      NOP      
        0x0000f672:    4638        8F      MOV      r0,r7
        0x0000f674:    4641        AF      MOV      r1,r8
        0x0000f676:    f7fffae4    ....    BL       divu64_10 ; 0xec42
        0x0000f67a:    4604        .F      MOV      r4,r0
        0x0000f67c:    460d        .F      MOV      r5,r1
        0x0000f67e:    210a        .!      MOVS     r1,#0xa
        0x0000f680:    fba40101    ....    UMULL    r0,r1,r4,r1
        0x0000f684:    ebb70a00    ....    SUBS     r10,r7,r0
        0x0000f688:    f10a0030    ..0.    ADD      r0,r10,#0x30
        0x0000f68c:    b2c2        ..      UXTB     r2,r0
        0x0000f68e:    4648        HF      MOV      r0,r9
        0x0000f690:    f1090901    ....    ADD      r9,r9,#1
        0x0000f694:    f80d2000    ...     STRB     r2,[sp,r0]
        0x0000f698:    4627        'F      MOV      r7,r4
        0x0000f69a:    46a8        .F      MOV      r8,r5
        0x0000f69c:    f04f0200    O...    MOV      r2,#0
        0x0000f6a0:    ea870002    ....    EOR      r0,r7,r2
        0x0000f6a4:    ea880102    ....    EOR      r1,r8,r2
        0x0000f6a8:    4308        .C      ORRS     r0,r0,r1
        0x0000f6aa:    d1e2        ..      BNE      0xf672 ; uint64_to_str + 20
        0x0000f6ac:    46cb        .F      MOV      r11,r9
        0x0000f6ae:    b156        V.      CBZ      r6,0xf6c6 ; uint64_to_str + 104
        0x0000f6b0:    e003        ..      B        0xf6ba ; uint64_to_str + 92
        0x0000f6b2:    f81d0009    ....    LDRB     r0,[sp,r9]
        0x0000f6b6:    f8060b01    ....    STRB     r0,[r6],#1
        0x0000f6ba:    f1b90000    ....    SUBS     r0,r9,#0
        0x0000f6be:    f1a90901    ....    SUB      r9,r9,#1
        0x0000f6c2:    d1f6        ..      BNE      0xf6b2 ; uint64_to_str + 84
        0x0000f6c4:    7030        0p      STRB     r0,[r6,#0]
        0x0000f6c6:    4658        XF      MOV      r0,r11
        0x0000f6c8:    b007        ..      ADD      sp,sp,#0x1c
        0x0000f6ca:    e8bd8ff0    ....    POP      {r4-r11,pc}
        0x0000f6ce:    0000        ..      MOVS     r0,r0
    i.validate_transaction
    validate_transaction
        0x0000f6d0:    b470        p.      PUSH     {r4-r6}
        0x0000f6d2:    e9d14501    ...E    LDRD     r4,r5,[r1,#4]
        0x0000f6d6:    f891c010    ....    LDRB     r12,[r1,#0x10]
        0x0000f6da:    68cb        .h      LDR      r3,[r1,#0xc]
        0x0000f6dc:    2c03        .,      CMP      r4,#3
        0x0000f6de:    d82e        ..      BHI      0xf73e ; validate_transaction + 110
        0x0000f6e0:    00e4        ..      LSLS     r4,r4,#3
        0x0000f6e2:    f04f36ff    O..6    MOV      r6,#0xffffffff
        0x0000f6e6:    fa06f404    ....    LSL      r4,r6,r4
        0x0000f6ea:    422c        ,B      TST      r4,r5
        0x0000f6ec:    d127        '.      BNE      0xf73e ; validate_transaction + 110
        0x0000f6ee:    001c        ..      MOVS     r4,r3
        0x0000f6f0:    d00c        ..      BEQ      0xf70c ; validate_transaction + 60
        0x0000f6f2:    f1bc0f00    ....    CMP      r12,#0
        0x0000f6f6:    d004        ..      BEQ      0xf702 ; validate_transaction + 50
        0x0000f6f8:    698c        .i      LDR      r4,[r1,#0x18]
        0x0000f6fa:    b304        ..      CBZ      r4,0xf73e ; validate_transaction + 110
        0x0000f6fc:    f1bc0f01    ....    CMP      r12,#1
        0x0000f700:    d004        ..      BEQ      0xf70c ; validate_transaction + 60
        0x0000f702:    f8d1c014    ....    LDR      r12,[r1,#0x14]
        0x0000f706:    f1bc0f00    ....    CMP      r12,#0
        0x0000f70a:    d018        ..      BEQ      0xf73e ; validate_transaction + 110
        0x0000f70c:    7a00        .z      LDRB     r0,[r0,#8]
        0x0000f70e:    2801        .(      CMP      r0,#1
        0x0000f710:    d001        ..      BEQ      0xf716 ; validate_transaction + 70
        0x0000f712:    b120         .      CBZ      r0,0xf71e ; validate_transaction + 78
        0x0000f714:    e001        ..      B        0xf71a ; validate_transaction + 74
        0x0000f716:    2bff        .+      CMP      r3,#0xff
        0x0000f718:    d811        ..      BHI      0xf73e ; validate_transaction + 110
        0x0000f71a:    b13a        :.      CBZ      r2,0xf72c ; validate_transaction + 92
        0x0000f71c:    e012        ..      B        0xf744 ; validate_transaction + 116
        0x0000f71e:    6808        .h      LDR      r0,[r1,#0]
        0x0000f720:    2803        .(      CMP      r0,#3
        0x0000f722:    bf98        ..      IT       LS
        0x0000f724:    f5b35f80    ..._    CMPLS    r3,#0x1000
        0x0000f728:    d3f7        ..      BCC      0xf71a ; validate_transaction + 74
        0x0000f72a:    e008        ..      B        0xf73e ; validate_transaction + 110
        0x0000f72c:    f8910020    .. .    LDRB     r0,[r1,#0x20]
        0x0000f730:    f0100fe0    ....    TST      r0,#0xe0
        0x0000f734:    d103        ..      BNE      0xf73e ; validate_transaction + 110
        0x0000f736:    6a48        Hj      LDR      r0,[r1,#0x24]
        0x0000f738:    4904        .I      LDR      r1,[pc,#16] ; [0xf74c] = 0xe0e0e0
        0x0000f73a:    4208        .B      TST      r0,r1
        0x0000f73c:    d002        ..      BEQ      0xf744 ; validate_transaction + 116
        0x0000f73e:    bc70        p.      POP      {r4-r6}
        0x0000f740:    2006        .       MOVS     r0,#6
        0x0000f742:    4770        pG      BX       lr
        0x0000f744:    bc70        p.      POP      {r4-r6}
        0x0000f746:    2000        .       MOVS     r0,#0
        0x0000f748:    4770        pG      BX       lr
    $d
        0x0000f74a:    0000        ..      DCW    0
        0x0000f74c:    00e0e0e0    ....    DCD    14737632
    $t
    i.verify_result
    verify_result
        0x0000f750:    b570        p.      PUSH     {r4-r6,lr}
        0x0000f752:    4605        .F      MOV      r5,r0
        0x0000f754:    4818        .H      LDR      r0,[pc,#96] ; [0xf7b8] = 0x100000a0
        0x0000f756:    7800        .x      LDRB     r0,[r0,#0]
        0x0000f758:    4918        .I      LDR      r1,[pc,#96] ; [0xf7bc] = 0x10000118
        0x0000f75a:    7809        .x      LDRB     r1,[r1,#0]
        0x0000f75c:    4288        .B      CMP      r0,r1
        0x0000f75e:    d004        ..      BEQ      0xf76a ; verify_result + 26
        0x0000f760:    a017        ..      ADR      r0,{pc}+0x60 ; 0xf7c0
        0x0000f762:    f7fff83f    ..?.    BL       am_util_stdio_printf ; 0xe7e4
        0x0000f766:    2000        .       MOVS     r0,#0
        0x0000f768:    bd70        p.      POP      {r4-r6,pc}
        0x0000f76a:    4813        .H      LDR      r0,[pc,#76] ; [0xf7b8] = 0x100000a0
        0x0000f76c:    7840        @x      LDRB     r0,[r0,#1]
        0x0000f76e:    4913        .I      LDR      r1,[pc,#76] ; [0xf7bc] = 0x10000118
        0x0000f770:    7849        Ix      LDRB     r1,[r1,#1]
        0x0000f772:    4288        .B      CMP      r0,r1
        0x0000f774:    d004        ..      BEQ      0xf780 ; verify_result + 48
        0x0000f776:    a017        ..      ADR      r0,{pc}+0x5e ; 0xf7d4
        0x0000f778:    f7fff834    ..4.    BL       am_util_stdio_printf ; 0xe7e4
        0x0000f77c:    2000        .       MOVS     r0,#0
        0x0000f77e:    e7f3        ..      B        0xf768 ; verify_result + 24
        0x0000f780:    2402        .$      MOVS     r4,#2
        0x0000f782:    e015        ..      B        0xf7b0 ; verify_result + 96
        0x0000f784:    480c        .H      LDR      r0,[pc,#48] ; [0xf7b8] = 0x100000a0
        0x0000f786:    5d00        .]      LDRB     r0,[r0,r4]
        0x0000f788:    490c        .I      LDR      r1,[pc,#48] ; [0xf7bc] = 0x10000118
        0x0000f78a:    5d09        .]      LDRB     r1,[r1,r4]
        0x0000f78c:    f08101ff    ....    EOR      r1,r1,#0xff
        0x0000f790:    4288        .B      CMP      r0,r1
        0x0000f792:    d00b        ..      BEQ      0xf7ac ; verify_result + 92
        0x0000f794:    4808        .H      LDR      r0,[pc,#32] ; [0xf7b8] = 0x100000a0
        0x0000f796:    5d00        .]      LDRB     r0,[r0,r4]
        0x0000f798:    f08003ff    ....    EOR      r3,r0,#0xff
        0x0000f79c:    4807        .H      LDR      r0,[pc,#28] ; [0xf7bc] = 0x10000118
        0x0000f79e:    5d02        .]      LDRB     r2,[r0,r4]
        0x0000f7a0:    4621        !F      MOV      r1,r4
        0x0000f7a2:    a011        ..      ADR      r0,{pc}+0x46 ; 0xf7e8
        0x0000f7a4:    f7fff81e    ....    BL       am_util_stdio_printf ; 0xe7e4
        0x0000f7a8:    2000        .       MOVS     r0,#0
        0x0000f7aa:    e7dd        ..      B        0xf768 ; verify_result + 24
        0x0000f7ac:    1c60        `.      ADDS     r0,r4,#1
        0x0000f7ae:    b2c4        ..      UXTB     r4,r0
        0x0000f7b0:    42ac        .B      CMP      r4,r5
        0x0000f7b2:    dbe7        ..      BLT      0xf784 ; verify_result + 52
        0x0000f7b4:    2001        .       MOVS     r0,#1
        0x0000f7b6:    e7d7        ..      B        0xf768 ; verify_result + 24
    $d
        0x0000f7b8:    100000a0    ....    DCD    268435616
        0x0000f7bc:    10000118    ....    DCD    268435736
        0x0000f7c0:    6e6f7257    Wron    DCD    1852797527
        0x0000f7c4:    61542067    g Ta    DCD    1632903271
        0x0000f7c8:    756e2067    g nu    DCD    1970151527
        0x0000f7cc:    7265626d    mber    DCD    1919246957
        0x0000f7d0:    00000a21    !...    DCD    2593
        0x0000f7d4:    6e6f7257    Wron    DCD    1852797527
        0x0000f7d8:    61642067    g da    DCD    1633951847
        0x0000f7dc:    6c206174    ta l    DCD    1814061428
        0x0000f7e0:    74676e65    engt    DCD    1952935525
        0x0000f7e4:    000a2168    h!..    DCD    663912
        0x0000f7e8:    66667542    Buff    DCD    1717990722
        0x0000f7ec:    56207265    er V    DCD    1444967013
        0x0000f7f0:    64696c61    alid    DCD    1684630625
        0x0000f7f4:    6f697461    atio    DCD    1869182049
        0x0000f7f8:    6166206e    n fa    DCD    1634082926
        0x0000f7fc:    64656c69    iled    DCD    1684368489
        0x0000f800:    3d694020     @i=    DCD    1030307872
        0x0000f804:    52206425    %d R    DCD    1377854501
        0x0000f808:    20647663    cvd     DCD    543454819
        0x0000f80c:    78257830    0x%x    DCD    2015721520
        0x0000f810:    70784520     Exp    DCD    1886930208
        0x0000f814:    65746365    ecte    DCD    1702126437
        0x0000f818:    78302064    d 0x    DCD    2016419940
        0x0000f81c:    000a7825    %x..    DCD    686117
    $t
    x$fpl$d2f
    $v0
    __aeabi_d2f
    _d2f
        0x0000f820:    f0214200    !..B    BIC      r2,r1,#0x80000000
        0x0000f824:    f1a25260    ..`R    SUB      r2,r2,#0x38000000
        0x0000f828:    f5b21f80    ....    CMP      r2,#0x100000
        0x0000f82c:    f0014300    ...C    AND      r3,r1,#0x80000000
        0x0000f830:    bf28        (.      IT       CS
        0x0000f832:    f1d26c7f    ...l    RSBSCS   r12,r2,#0xff00000
        0x0000f836:    d90b        ..      BLS      0xf850 ; __aeabi_d2f + 48
        0x0000f838:    ea5f1c00    _...    LSLS     r12,r0,#4
        0x0000f83c:    ea4302c2    C...    ORR      r2,r3,r2,LSL #3
        0x0000f840:    eb427050    B.Pp    ADC      r0,r2,r0,LSR #29
        0x0000f844:    bf18        ..      IT       NE
        0x0000f846:    4770        pG      BXNE     lr
        0x0000f848:    bf28        (.      IT       CS
        0x0000f84a:    f0200001     ...    BICCS    r0,r0,#1
        0x0000f84e:    4770        pG      BX       lr
        0x0000f850:    f5b21f80    ....    CMP      r2,#0x100000
        0x0000f854:    bfbc        ..      ITT      LT
        0x0000f856:    4618        .F      MOVLT    r0,r3
        0x0000f858:    4770        pG      BXLT     lr
        0x0000f85a:    ea4f0c41    O.A.    LSL      r12,r1,#1
        0x0000f85e:    f51c1f00    ....    CMN      r12,#0x200000
        0x0000f862:    d202        ..      BCS      0xf86a ; __aeabi_d2f + 74
        0x0000f864:    4608        .F      MOV      r0,r1
        0x0000f866:    f000b85f    .._.    B.W      __fpl_fretinf ; 0xf928
        0x0000f86a:    b570        p.      PUSH     {r4-r6,lr}
        0x0000f86c:    f000f809    ....    BL       __fpl_dnaninf ; 0xf882
    $d
        0x0000f870:    89000000    ....    DCD    2298478592
    $t
        0x0000f874:    f7ffbff6    ....    B.W      0xf864 ; __aeabi_d2f + 68
        0x0000f878:    f04f4000    O..@    MOV      r0,#0x80000000
        0x0000f87c:    f5a00080    ....    SUB      r0,r0,#0x400000
        0x0000f880:    4770        pG      BX       lr
    x$fpl$dnaninf
    $v0
    __fpl_dnaninf
        0x0000f882:    f10e0e02    ....    ADD      lr,lr,#2
        0x0000f886:    f02e0e03    ....    BIC      lr,lr,#3
        0x0000f88a:    f85e6b04    ^..k    LDR      r6,[lr],#4
        0x0000f88e:    4236        6B      TST      r6,r6
        0x0000f890:    d405        ..      BMI      0xf89e ; __fpl_dnaninf + 28
        0x0000f892:    2a01        .*      CMP      r2,#1
        0x0000f894:    eb430503    C...    ADC      r5,r3,r3
        0x0000f898:    f5151f00    ....    CMN      r5,#0x200000
        0x0000f89c:    d812        ..      BHI      0xf8c4 ; __fpl_dnaninf + 66
        0x0000f89e:    2801        .(      CMP      r0,#1
        0x0000f8a0:    eb410c01    A...    ADC      r12,r1,r1
        0x0000f8a4:    f51c1f00    ....    CMN      r12,#0x200000
        0x0000f8a8:    d80c        ..      BHI      0xf8c4 ; __fpl_dnaninf + 66
        0x0000f8aa:    d10e        ..      BNE      0xf8ca ; __fpl_dnaninf + 72
        0x0000f8ac:    ea4f7cd1    O..|    LSR      r12,r1,#31
        0x0000f8b0:    f5151f00    ....    CMN      r5,#0x200000
        0x0000f8b4:    eb0c0c4c    ..L.    ADD      r12,r12,r12,LSL #1
        0x0000f8b8:    f10c0c02    ....    ADD      r12,r12,#2
        0x0000f8bc:    bf08        ..      IT       EQ
        0x0000f8be:    eb4c7cd3    L..|    ADCEQ    r12,r12,r3,LSR #31
        0x0000f8c2:    e004        ..      B        0xf8ce ; __fpl_dnaninf + 76
        0x0000f8c4:    f04f0c08    O...    MOV      r12,#8
        0x0000f8c8:    e001        ..      B        0xf8ce ; __fpl_dnaninf + 76
        0x0000f8ca:    ea4f7cd3    O..|    LSR      r12,r3,#31
        0x0000f8ce:    eb0c054c    ..L.    ADD      r5,r12,r12,LSL #1
        0x0000f8d2:    fa26f605    &...    LSR      r6,r6,r5
        0x0000f8d6:    f0060607    ....    AND      r6,r6,#7
        0x0000f8da:    f1b60c04    ....    SUBS     r12,r6,#4
        0x0000f8de:    d206        ..      BCS      0xf8ee ; __fpl_dnaninf + 108
        0x0000f8e0:    eb0e0c86    ....    ADD      r12,lr,r6,LSL #2
        0x0000f8e4:    e8bd4070    ..p@    POP      {r4-r6,lr}
        0x0000f8e8:    f04c0c01    L...    ORR      r12,r12,#1
        0x0000f8ec:    4760        `G      BX       r12
        0x0000f8ee:    e8dff00c    ....    TBB      [pc,r12]
    $d
        0x0000f8f2:    0b09        ..      DCW    2825
        0x0000f8f4:    0202        ..      DCW    514
    $t
        0x0000f8f6:    f04f4100    O..A    MOV      r1,#0x80000000
        0x0000f8fa:    f04f0000    O...    MOV      r0,#0
        0x0000f8fe:    f5a12100    ...!    SUB      r1,r1,#0x80000
        0x0000f902:    bd70        p.      POP      {r4-r6,pc}
        0x0000f904:    4619        .F      MOV      r1,r3
        0x0000f906:    4610        .F      MOV      r0,r2
        0x0000f908:    2801        .(      CMP      r0,#1
        0x0000f90a:    eb510401    Q...    ADCS     r4,r1,r1
        0x0000f90e:    bf18        ..      IT       NE
        0x0000f910:    f5d41400    ....    RSBSNE   r4,r4,#0x200000
        0x0000f914:    bf84        ..      ITT      HI
        0x0000f916:    2000        .       MOVHI    r0,#0
        0x0000f918:    f0014100    ...A    ANDHI    r1,r1,#0x80000000
        0x0000f91c:    bd70        p.      POP      {r4-r6,pc}
    x$fpl$fpinit
    $v0
    _fp_init
        0x0000f91e:    f04f7040    O.@p    MOV      r0,#0x3000000
        0x0000f922:    eee10a10    ....    VMSR     FPSCR,r0
    __fplib_config_fpu_vfp
    __fplib_config_pureend_doubles
        0x0000f926:    4770        pG      BX       lr
    x$fpl$fretinf
    $v0
    __fpl_fretinf
        0x0000f928:    21ff        .!      MOVS     r1,#0xff
        0x0000f92a:    ea4150d0    A..P    ORR      r0,r1,r0,LSR #23
        0x0000f92e:    05c0        ..      LSLS     r0,r0,#23
        0x0000f930:    4770        pG      BX       lr
    x$fpl$usenofp
    __I$use$fp
        0x0000f932:    0000        ..      MOVS     r0,r0
    $d.realdata
    .constdata
    g_pui8TestArray
        0x0000f934:    10000200    ....    DCD    268435968
        0x0000f938:    000094c9    ....    DCD    38089
        0x0000f93c:    00009535    5...    DCD    38197
        0x0000f940:    000081d5    ....    DCD    33237
        0x0000f944:    00000000    ....    DCD    0
        0x0000f948:    00000000    ....    DCD    0
        0x0000f94c:    0000953d    =...    DCD    38205
        0x0000f950:    00000000    ....    DCD    0
        0x0000f954:    00000000    ....    DCD    0
        0x0000f958:    00000000    ....    DCD    0
        0x0000f95c:    00000000    ....    DCD    0
        0x0000f960:    0000953d    =...    DCD    38205
        0x0000f964:    0000953d    =...    DCD    38205
        0x0000f968:    00000000    ....    DCD    0
        0x0000f96c:    0000953d    =...    DCD    38205
        0x0000f970:    0000953d    =...    DCD    38205
        0x0000f974:    0000953d    =...    DCD    38205
        0x0000f978:    0000953d    =...    DCD    38205
        0x0000f97c:    0000953d    =...    DCD    38205
        0x0000f980:    0000953d    =...    DCD    38205
        0x0000f984:    0000953d    =...    DCD    38205
        0x0000f988:    0000953d    =...    DCD    38205
        0x0000f98c:    0000953d    =...    DCD    38205
        0x0000f990:    0000953d    =...    DCD    38205
        0x0000f994:    0000953d    =...    DCD    38205
        0x0000f998:    0000953d    =...    DCD    38205
        0x0000f99c:    0000953d    =...    DCD    38205
        0x0000f9a0:    0000953d    =...    DCD    38205
        0x0000f9a4:    0000953d    =...    DCD    38205
        0x0000f9a8:    00008105    ....    DCD    33029
        0x0000f9ac:    0000953d    =...    DCD    38205
        0x0000f9b0:    0000953d    =...    DCD    38205
        0x0000f9b4:    0000953d    =...    DCD    38205
        0x0000f9b8:    0000953d    =...    DCD    38205
        0x0000f9bc:    0000953d    =...    DCD    38205
        0x0000f9c0:    0000953d    =...    DCD    38205
        0x0000f9c4:    0000953d    =...    DCD    38205
        0x0000f9c8:    0000953d    =...    DCD    38205
        0x0000f9cc:    0000953d    =...    DCD    38205
        0x0000f9d0:    0000953d    =...    DCD    38205
        0x0000f9d4:    0000953d    =...    DCD    38205
        0x0000f9d8:    0000953d    =...    DCD    38205
        0x0000f9dc:    0000953d    =...    DCD    38205
        0x0000f9e0:    0000953d    =...    DCD    38205
        0x0000f9e4:    0000953d    =...    DCD    38205
        0x0000f9e8:    0000953d    =...    DCD    38205
        0x0000f9ec:    0000953d    =...    DCD    38205
        0x0000f9f0:    0000953d    =...    DCD    38205
        0x0000f9f4:    b082b580    ....    DCD    2961356160
        0x0000f9f8:    2002af00    ...     DCD    537046784
        0x0000f9fc:    fac8f001    ....    DCD    4207472641
        0x0000fa00:    f64f2000    . O.    DCD    4132380672
        0x0000fa04:    f00171ff    .q..    DCD    4026626559
        0x0000fa08:    2000fb49    I..     DCD    536935241
        0x0000fa0c:    f0014909    .I..    DCD    4026616073
        0x0000fa10:    2308facf    ...#    DCD    587791055
        0x0000fa14:    687b607b    {`{h    DCD    1752916091
        0x0000fa18:    2000085b    [..     DCD    536873051
        0x0000fa1c:    71fff64f    O..q    DCD    1912600143
        0x0000fa20:    f001687a    zh..    DCD    4026624122
        0x0000fa24:    2001fb45    E..     DCD    537000773
        0x0000fa28:    fb8af001    ....    DCD    4220186625
        0x0000fa2c:    46bd3708    .7.F    DCD    1186805512
        0x0000fa30:    bf00bd80    ....    DCD    3204496768
        0x0000fa34:    10000200    ....    DCD    268435968
        0x0000fa38:    af00b580    ....    DCD    2936059264
        0x0000fa3c:    f0012001    . ..    DCD    4026605569
        0x0000fa40:    4b05fb7f    ...K    DCD    1258683263
        0x0000fa44:    3301681b    .h.3    DCD    855730203
        0x0000fa48:    60134a03    .J.`    DCD    1611876867
        0x0000fa4c:    d9022b0f    .+..    DCD    3640797967
        0x0000fa50:    22004b01    .K."    DCD    570444545
        0x0000fa54:    bd80601a    .`..    DCD    3179307034
        0x0000fa58:    1000027c    |...    DCD    268436092
        0x0000fa5c:    af00b580    ....    DCD    2936059264
        0x0000fa60:    f0012000    . ..    DCD    4026605568
        0x0000fa64:    f001fa6d    m...    DCD    4026661485
        0x0000fa68:    4820fa07    .. H    DCD    1210120711
        0x0000fa6c:    f8c2f000    ....    DCD    4173524992
        0x0000fa70:    22734b1f    .Ks"    DCD    577981215
        0x0000fa74:    4b1f601a    .`.K    DCD    1260347418
        0x0000fa78:    68124a1e    .J.h    DCD    1746029086
        0x0000fa7c:    0270f022    ".p.    DCD    40955938
        0x0000fa80:    4b1d601a    .`.K    DCD    1260216346
        0x0000fa84:    68124a1c    .J.h    DCD    1746029084
        0x0000fa88:    427ff422    "..B    DCD    1115681826
        0x0000fa8c:    5280f442    B..R    DCD    1384182850
        0x0000fa90:    4b17601a    .`.K    DCD    1259823130
        0x0000fa94:    601a2200    .".`    DCD    1612325376
        0x0000fa98:    21044818    .H.!    DCD    553928728
        0x0000fa9c:    f88ef001    ....    DCD    4170117121
        0x0000faa0:    fba2f001    ....    DCD    4221759489
        0x0000faa4:    f9faf001    ....    DCD    4193972225
        0x0000faa8:    ff3af000    ..:.    DCD    4282052608
        0x0000faac:    f0004814    .H..    DCD    4026550292
        0x0000fab0:    f7ffff19    ....    DCD    4160749337
        0x0000fab4:    2001ff9f    ...     DCD    537001887
        0x0000fab8:    fb3af001    ..:.    DCD    4214943745
        0x0000fabc:    f001201d    . ..    DCD    4026605597
        0x0000fac0:    f001fb4f    O...    DCD    4026661711
        0x0000fac4:    2000fb75    u..     DCD    536935285
        0x0000fac8:    71fff64f    O..q    DCD    1912600143
        0x0000facc:    fad4f001    ....    DCD    4208259073
        0x0000fad0:    fa0cf001    ....    DCD    4195151873
        0x0000fad4:    f0012001    . ..    DCD    4026605569
        0x0000fad8:    4b0afccd    ...K    DCD    1259011277
        0x0000fadc:    4807681b    .h.H    DCD    1208444955
        0x0000fae0:    461a2104    .!.F    DCD    1176117508
        0x0000fae4:    f964f001    ..d.    DCD    4184141825
        0x0000fae8:    bf00e7f4    ....    DCD    3204507636
        0x0000faec:    00009609    ....    DCD    38409
        0x0000faf0:    40010060    `..@    DCD    1073807456
        0x0000faf4:    40010054    T..@    DCD    1073807444
        0x0000faf8:    40010028    (..@    DCD    1073807400
        0x0000fafc:    1000020c    ....    DCD    268435980
        0x0000fb00:    00009ccc    ....    DCD    40140
        0x0000fb04:    1000027c    |...    DCD    268436092
        0x0000fb08:    4668b580    ..hF    DCD    1181267328
        0x0000fb0c:    f0003008    .0..    DCD    4026544136
        0x0000fb10:    bd01f809    ....    DCD    3171022857
        0x0000fb14:    bf004618    .F..    DCD    3204466200
        0x0000fb18:    18400080    ..@.    DCD    406847616
        0x0000fb1c:    47706800    .hpG    DCD    1198548992
        0x0000fb20:    bf004618    .F..    DCD    3204466200
        0x0000fb24:    b096b580    ....    DCD    2962666880
        0x0000fb28:    6078af00    ..x`    DCD    1618521856
        0x0000fb2c:    657b2300    .#{e    DCD    1702568704
        0x0000fb30:    64fb6d7b    {m.d    DCD    1694199163
        0x0000fb34:    681b4b2d    -K.h    DCD    1746619181
        0x0000fb38:    6cfb64fb    .d.l    DCD    1828414715
        0x0000fb3c:    f887b2db    ....    DCD    4169642715
        0x0000fb40:    6cfb3050    P0.l    DCD    1828401232
        0x0000fb44:    b2db0a1b    ....    DCD    3000699419
        0x0000fb48:    3051f887    ..Q0    DCD    810678407
        0x0000fb4c:    0c1b6cfb    .l..    DCD    203123963
        0x0000fb50:    f8a7b29b    ....    DCD    4171739803
        0x0000fb54:    4b263052    R0&K    DCD    1260793938
        0x0000fb58:    64bb681b    .h.d    DCD    1690003483
        0x0000fb5c:    3051f897    ..Q0    DCD    810678423
        0x0000fb60:    f003b2db    ....    DCD    4026774235
        0x0000fb64:    2b000302    ...+    DCD    721421058
        0x0000fb68:    2006d005    ...     DCD    537317381
        0x0000fb6c:    f7ff6879    yh..    DCD    4160710777
        0x0000fb70:    4603ffd3    ...F    DCD    1174667219
        0x0000fb74:    f04fe001    ..O.    DCD    4031766529
        0x0000fb78:    647b33ff    .3{d    DCD    1685795839
        0x0000fb7c:    68792000    . yh    DCD    1752768512
        0x0000fb80:    ffcaf7ff    ....    DCD    4291491839
        0x0000fb84:    627b4603    .F{b    DCD    1652246019
        0x0000fb88:    68792001    . yh    DCD    1752768513
        0x0000fb8c:    ffc4f7ff    ....    DCD    4291098623
        0x0000fb90:    62bb4603    .F.b    DCD    1656440323
        0x0000fb94:    68792002    . yh    DCD    1752768514
        0x0000fb98:    ffbef7ff    ....    DCD    4290705407
        0x0000fb9c:    62fb4603    .F.b    DCD    1660634627
        0x0000fba0:    68792003    . yh    DCD    1752768515
        0x0000fba4:    ffb8f7ff    ....    DCD    4290312191
        0x0000fba8:    633b4603    .F;c    DCD    1664828931
        0x0000fbac:    68792004    . yh    DCD    1752768516
        0x0000fbb0:    ffb2f7ff    ....    DCD    4289918975
        0x0000fbb4:    637b4603    .F{c    DCD    1669023235
        0x0000fbb8:    68792005    . yh    DCD    1752768517
        0x0000fbbc:    ffacf7ff    ....    DCD    4289525759
        0x0000fbc0:    63bb4603    .F.c    DCD    1673217539
        0x0000fbc4:    68792006    . yh    DCD    1752768518
        0x0000fbc8:    ffa6f7ff    ....    DCD    4289132543
        0x0000fbcc:    63fb4603    .F.c    DCD    1677411843
        0x0000fbd0:    68792007    . yh    DCD    1752768519
        0x0000fbd4:    ffa0f7ff    ....    DCD    4288739327
        0x0000fbd8:    643b4603    .F;d    DCD    1681606147
        0x0000fbdc:    030cf107    ....    DCD    51179783
        0x0000fbe0:    f0014618    .F..    DCD    4026615320
        0x0000fbe4:    2300fb5b    [..#    DCD    587266907
        0x0000fbe8:    e7fe657b    {e..    DCD    3892209019
        0x0000fbec:    e000ed28    (...    DCD    3758157096
        0x0000fbf0:    e000ed38    8...    DCD    3758157112
        0x0000fbf4:    b083b480    ....    DCD    2961421440
        0x0000fbf8:    6078af00    ..x`    DCD    1618521856
        0x0000fbfc:    687a4b03    .Kzh    DCD    1752845059
        0x0000fc00:    370c601a    .`.7    DCD    923557914
        0x0000fc04:    f85d46bd    .F].    DCD    4166862525
        0x0000fc08:    47707b04    .{pG    DCD    1198553860
        0x0000fc0c:    10000388    ....    DCD    268436360
        0x0000fc10:    0fb0e92d    -...    DCD    263252269
        0x0000fc14:    af00b097    ....    DCD    2936058007
        0x0000fc18:    010ce9c7    ....    DCD    17623495
        0x0000fc1c:    230ce9d7    ...#    DCD    588048855
        0x0000fc20:    2500001c    ...%    DCD    620757020
        0x0000fc24:    0005ea54    T...    DCD    387668
        0x0000fc28:    8094f000    ....    DCD    2157244416
        0x0000fc2c:    230ce9d7    ...#    DCD    588048855
        0x0000fc30:    ea4f0859    Y.O.    DCD    3931048025
        0x0000fc34:    e9d70032    2...    DCD    3923181618
        0x0000fc38:    ea4f230c    .#O.    DCD    3931054860
        0x0000fc3c:    ea480892    ..H.    DCD    3930589330
        0x0000fc40:    ea4f7883    .xO.    DCD    3931076739
        0x0000fc44:    eb100993    ....    DCD    3943696787
        0x0000fc48:    eb410208    ..A.    DCD    3946906120
        0x0000fc4c:    e9c70309    ....    DCD    3922133769
        0x0000fc50:    e9d72314    .#..    DCD    3923190548
        0x0000fc54:    ea4f2314    .#O.    DCD    3931054868
        0x0000fc58:    ea4a1a12    ..J.    DCD    3930724882
        0x0000fc5c:    ea4f7a03    .zO.    DCD    3931077123
        0x0000fc60:    e9d71b13    ....    DCD    3923188499
        0x0000fc64:    eb122314    .#..    DCD    3943834388
        0x0000fc68:    eb43020a    ..C.    DCD    3947037194
        0x0000fc6c:    e9c7030b    ....    DCD    3922133771
        0x0000fc70:    e9d72314    .#..    DCD    3923190548
        0x0000fc74:    0a112314    .#..    DCD    168895252
        0x0000fc78:    6ab862b9    .b.j    DCD    1790468793
        0x0000fc7c:    6003ea40    @..`    DCD    1610869312
        0x0000fc80:    0a1962b8    .b..    DCD    169435832
        0x0000fc84:    e9d762f9    .b..    DCD    3923206905
        0x0000fc88:    e9d72314    .#..    DCD    3923190548
        0x0000fc8c:    1812010a    ....    DCD    403833098
        0x0000fc90:    0301eb43    C...    DCD    50457411
        0x0000fc94:    2314e9c7    ...#    DCD    588573127
        0x0000fc98:    2314e9d7    ...#    DCD    588573143
        0x0000fc9c:    62390c11    ..9b    DCD    1647905809
        0x0000fca0:    ea406a38    8j@.    DCD    3930090040
        0x0000fca4:    62384003    .@8b    DCD    1647853571
        0x0000fca8:    62790c19    ..yb    DCD    1652100121
        0x0000fcac:    2314e9d7    ...#    DCD    588573143
        0x0000fcb0:    0108e9d7    ....    DCD    17361367
        0x0000fcb4:    eb431812    ..C.    DCD    3947042834
        0x0000fcb8:    e9c70301    ....    DCD    3922133761
        0x0000fcbc:    e9d72314    .#..    DCD    3923190548
        0x0000fcc0:    00192314    .#..    DCD    1647380
        0x0000fcc4:    220061b9    .a."    DCD    570450361
        0x0000fcc8:    e9d761fa    .a..    DCD    3923206650
        0x0000fccc:    e9d72314    .#..    DCD    3923190548
        0x0000fcd0:    18120106    ....    DCD    403833094
        0x0000fcd4:    0301eb43    C...    DCD    50457411
        0x0000fcd8:    2314e9c7    ...#    DCD    588573127
        0x0000fcdc:    2314e9d7    ...#    DCD    588573143
        0x0000fce0:    60b908d1    ...`    DCD    1622739153
        0x0000fce4:    ea4068b8    .h@.    DCD    3930089656
        0x0000fce8:    60b87043    Cp.`    DCD    1622700099
        0x0000fcec:    60f908d9    ...`    DCD    1626933465
        0x0000fcf0:    2302e9d7    ...#    DCD    587393495
        0x0000fcf4:    2314e9c7    ...#    DCD    588573127
        0x0000fcf8:    2314e9d7    ...#    DCD    588573143
        0x0000fcfc:    eb431892    ..C.    DCD    3947042962
        0x0000fd00:    00980303    ....    DCD    9962243
        0x0000fd04:    68796078    x`yh    DCD    1752785016
        0x0000fd08:    7192ea41    A..q    DCD    1905453633
        0x0000fd0c:    00906079    y`..    DCD    9461881
        0x0000fd10:    e9d76038    8`..    DCD    3923206200
        0x0000fd14:    18120100    ....    DCD    403833088
        0x0000fd18:    0301eb43    C...    DCD    50457411
        0x0000fd1c:    010ce9d7    ....    DCD    17623511
        0x0000fd20:    eb611a82    ..a.    DCD    3949009538
        0x0000fd24:    e9c70303    ....    DCD    3922133763
        0x0000fd28:    e9d72312    .#..    DCD    3923190546
        0x0000fd2c:    32062312    .#.2    DCD    839262994
        0x0000fd30:    0300f143    C...    DCD    50393411
        0x0000fd34:    61390911    ..9a    DCD    1631127825
        0x0000fd38:    ea406938    8i@.    DCD    3930089784
        0x0000fd3c:    61387003    .p8a    DCD    1631088643
        0x0000fd40:    61790919    ..ya    DCD    1635322137
        0x0000fd44:    2314e9d7    ...#    DCD    588573143
        0x0000fd48:    0104e9d7    ....    DCD    17099223
        0x0000fd4c:    eb431812    ..C.    DCD    3947042834
        0x0000fd50:    e0290301    ..).    DCD    3760784129
        0x0000fd54:    647b6b3b    ;k{d    DCD    1685809979
        0x0000fd58:    085a6c7b    {lZ.    DCD    140143739
        0x0000fd5c:    089b6c7b    {l..    DCD    144403579
        0x0000fd60:    643b4413    .D;d    DCD    1681605651
        0x0000fd64:    091b6c3b    ;l..    DCD    152792123
        0x0000fd68:    44136c3a    :l.D    DCD    1142123578
        0x0000fd6c:    6c3b643b    ;d;l    DCD    1815831611
        0x0000fd70:    6c3a0a1b    ..:l    DCD    1815743003
        0x0000fd74:    643b4413    .D;d    DCD    1681605651
        0x0000fd78:    0c1b6c3b    ;l..    DCD    203123771
        0x0000fd7c:    44136c3a    :l.D    DCD    1142123578
        0x0000fd80:    6c3b643b    ;d;l    DCD    1815831611
        0x0000fd84:    643b08db    ..;d    DCD    1681590491
        0x0000fd88:    46136c3a    :l.F    DCD    1175678010
        0x0000fd8c:    4413009b    ...D    DCD    1142096027
        0x0000fd90:    6c7a005b    [.zl    DCD    1819934811
        0x0000fd94:    63fb1ad3    ...c    DCD    1677400787
        0x0000fd98:    33066bfb    .k.3    DCD    856058875
        0x0000fd9c:    6c3b091a    ..;l    DCD    1815808282
        0x0000fda0:    461a4413    .D.F    DCD    1176126483
        0x0000fda4:    0300f04f    O...    DCD    50393167
        0x0000fda8:    46194610    .F.F    DCD    1176061456
        0x0000fdac:    46bd375c    \7.F    DCD    1186805596
        0x0000fdb0:    0fb0e8bd    ....    DCD    263252157
        0x0000fdb4:    bf004770    pG..    DCD    3204466544
        0x0000fdb8:    b084b580    ....    DCD    2961487232
        0x0000fdbc:    e9c7af00    ....    DCD    3922177792
        0x0000fdc0:    683a0100    ..:h    DCD    1748631808
        0x0000fdc4:    4313687b    {h.C    DCD    1125345403
        0x0000fdc8:    bf142b00    .+..    DCD    3205769984
        0x0000fdcc:    23012300    .#.#    DCD    587277056
        0x0000fdd0:    60fbb2db    ...`    DCD    1627108059
        0x0000fdd4:    e9d7e008    ....    DCD    3923238920
        0x0000fdd8:    f7ff0100    ....    DCD    4160684288
        0x0000fddc:    e9c7ff19    ....    DCD    3922198297
        0x0000fde0:    68fb0100    ...h    DCD    1761280256
        0x0000fde4:    60fb3301    .3.`    DCD    1627075329
        0x0000fde8:    2300e9d7    ...#    DCD    587262423
        0x0000fdec:    0103ea52    R...    DCD    17033810
        0x0000fdf0:    68fbd1f1    ...h    DCD    1761333745
        0x0000fdf4:    37104618    .F.7    DCD    923813400
        0x0000fdf8:    bd8046bd    .F..    DCD    3179300541
        0x0000fdfc:    b082b580    ....    DCD    2961356160
        0x0000fe00:    e9c7af00    ....    DCD    3922177792
        0x0000fe04:    e9d70100    ....    DCD    3923181824
        0x0000fe08:    2a002300    .#.*    DCD    704652032
        0x0000fe0c:    0100f173    s...    DCD    16839027
        0x0000fe10:    e9d7da06    ....    DCD    3923237382
        0x0000fe14:    42522300    .#RB    DCD    1112679168
        0x0000fe18:    0343eb63    c.C.    DCD    54782819
        0x0000fe1c:    2300e9c7    ...#    DCD    587262407
        0x0000fe20:    2300e9d7    ...#    DCD    587262423
        0x0000fe24:    46194610    .F.F    DCD    1176061456
        0x0000fe28:    ffc6f7ff    ....    DCD    4291229695
        0x0000fe2c:    46184603    .F.F    DCD    1175995907
        0x0000fe30:    46bd3708    .7.F    DCD    1186805512
        0x0000fe34:    bf00bd80    ....    DCD    3204496768
        0x0000fe38:    b085b480    ....    DCD    2961552512
        0x0000fe3c:    e9c7af00    ....    DCD    3922177792
        0x0000fe40:    68380100    ..8h    DCD    1748500736
        0x0000fe44:    43016879    yh.C    DCD    1124165753
        0x0000fe48:    bf142900    .)..    DCD    3205769472
        0x0000fe4c:    21012100    .!.!    DCD    553722112
        0x0000fe50:    60f9b2c9    ...`    DCD    1626976969
        0x0000fe54:    e9d7e00a    ....    DCD    3923238922
        0x0000fe58:    09020100    ....    DCD    151126272
        0x0000fe5c:    7201ea42    B..r    DCD    1912728130
        0x0000fe60:    e9c7090b    ....    DCD    3922135307
        0x0000fe64:    68f92300    .#.h    DCD    1761157888
        0x0000fe68:    60f93101    .1.`    DCD    1626943745
        0x0000fe6c:    0100e9d7    ....    DCD    16837079
        0x0000fe70:    0c01ea50    P...    DCD    201452112
        0x0000fe74:    68fbd1ef    ...h    DCD    1761333743
        0x0000fe78:    37144618    .F.7    DCD    924075544
        0x0000fe7c:    f85d46bd    .F].    DCD    4166862525
        0x0000fe80:    47707b04    .{pG    DCD    1198553860
        0x0000fe84:    b087b480    ....    DCD    2961683584
        0x0000fe88:    6078af00    ..x`    DCD    1618521856
        0x0000fe8c:    23006039    9`.#    DCD    587227193
        0x0000fe90:    230075fb    .u.#    DCD    587232763
        0x0000fe94:    2300613b    ;a.#    DCD    587227451
        0x0000fe98:    687b60fb    .`{h    DCD    1752916219
        0x0000fe9c:    2b2d781b    .x-+    DCD    724400155
        0x0000fea0:    2301d108    ...#    DCD    587321608
        0x0000fea4:    687b75fb    .u{h    DCD    1752921595
        0x0000fea8:    607b3301    .3{`    DCD    1618686721
        0x0000feac:    330168fb    .h.3    DCD    855730427
        0x0000feb0:    e01360fb    .`..    DCD    3759366395
        0x0000feb4:    68fbe012    ...h    DCD    1761337362
        0x0000feb8:    60fb3301    .3.`    DCD    1627075329
        0x0000febc:    4613693a    :i.F    DCD    1175677242
        0x0000fec0:    4413009b    ...D    DCD    1142096027
        0x0000fec4:    613b005b    [.;a    DCD    1631256667
        0x0000fec8:    781b687b    {h.x    DCD    2015062139
        0x0000fecc:    693b461a    .F;i    DCD    1765492250
        0x0000fed0:    3b304413    .D0;    DCD    993018899
        0x0000fed4:    687b613b    ;a{h    DCD    1752916283
        0x0000fed8:    607b3301    .3{`    DCD    1618686721
        0x0000fedc:    781b687b    {h.x    DCD    2015062139
        0x0000fee0:    d9032b2f    /+..    DCD    3640863535
        0x0000fee4:    781b687b    {h.x    DCD    2015062139
        0x0000fee8:    d9e42b39    9+..    DCD    3655609145
        0x0000feec:    2b00683b    ;h.+    DCD    721446971
        0x0000fef0:    683bd002    ..;h    DCD    1748750338
        0x0000fef4:    601a68fa    .h.`    DCD    1612343546
        0x0000fef8:    2b007dfb    .}.+    DCD    721452539
        0x0000fefc:    693bd002    ..;i    DCD    1765527554
        0x0000ff00:    e000425b    [B..    DCD    3758113371
        0x0000ff04:    4618693b    ;i.F    DCD    1176004923
        0x0000ff08:    46bd371c    .7.F    DCD    1186805532
        0x0000ff0c:    7b04f85d    ]..{    DCD    2063923293
        0x0000ff10:    bf004770    pG..    DCD    3204466544
        0x0000ff14:    b090b580    ....    DCD    2962273664
        0x0000ff18:    e9c7af00    ....    DCD    3922177792
        0x0000ff1c:    607a0102    ..z`    DCD    1618608386
        0x0000ff20:    63fb2300    .#.c    DCD    1677402880
        0x0000ff24:    63bb2300    .#.c    DCD    1673208576
        0x0000ff28:    0102e9d7    ....    DCD    16968151
        0x0000ff2c:    fe70f7ff    ..p.    DCD    4268816383
        0x0000ff30:    010ce9c7    ....    DCD    17623495
        0x0000ff34:    6b3a68b9    .h:k    DCD    1798990009
        0x0000ff38:    009b4613    .F..    DCD    10176019
        0x0000ff3c:    005b4413    .D[.    DCD    5981203
        0x0000ff40:    62fb1acb    ...b    DCD    1660623563
        0x0000ff44:    1c5a6bfb    .kZ.    DCD    475687931
        0x0000ff48:    6afa63fa    .c.j    DCD    1794794490
        0x0000ff4c:    3230b2d2    ..02    DCD    842052306
        0x0000ff50:    f107b2d2    ....    DCD    4043813586
        0x0000ff54:    440b0140    @..D    DCD    1141571904
        0x0000ff58:    2c30f803    ..0,    DCD    741406723
        0x0000ff5c:    230ce9d7    ...#    DCD    588048855
        0x0000ff60:    2302e9c7    ...#    DCD    587393479
        0x0000ff64:    2302e9d7    ...#    DCD    587393495
        0x0000ff68:    0103ea52    R...    DCD    17033810
        0x0000ff6c:    6bfbd1dc    ...k    DCD    1811665372
        0x0000ff70:    687b63bb    .c{h    DCD    1752916923
        0x0000ff74:    d0112b00    .+..    DCD    3490786048
        0x0000ff78:    687be008    ..{h    DCD    1752948744
        0x0000ff7c:    607a1c5a    Z.z`    DCD    1618615386
        0x0000ff80:    0110f107    ....    DCD    17887495
        0x0000ff84:    440a6bfa    .k.D    DCD    1141533690
        0x0000ff88:    701a7812    .x.p    DCD    1880782866
        0x0000ff8c:    1e5a6bfb    .kZ.    DCD    509242363
        0x0000ff90:    2b0063fa    .c.+    DCD    721445882
        0x0000ff94:    687bd1f1    ..{h    DCD    1752945137
        0x0000ff98:    701a2200    .".p    DCD    1880760832
        0x0000ff9c:    46186bbb    .k.F    DCD    1176005563
        0x0000ffa0:    46bd3740    @7.F    DCD    1186805568
        0x0000ffa4:    bf00bd80    ....    DCD    3204496768
        0x0000ffa8:    b08db4b0    ....    DCD    2962076848
        0x0000ffac:    e9c7af00    ....    DCD    3922177792
        0x0000ffb0:    607a0102    ..z`    DCD    1618608386
        0x0000ffb4:    230070fb    .p.#    DCD    587231483
        0x0000ffb8:    e9d762fb    .b..    DCD    3923206907
        0x0000ffbc:    ea522302    .#R.    DCD    3931251458
        0x0000ffc0:    d1090103    ....    DCD    3507028227
        0x0000ffc4:    1c5a6afb    .jZ.    DCD    475687675
        0x0000ffc8:    f10762fa    .b..    DCD    4043793146
        0x0000ffcc:    44130230    0..D    DCD    1142096432
        0x0000ffd0:    f8032230    0"..    DCD    4160954928
        0x0000ffd4:    e0282c20     ,(.    DCD    3760729120
        0x0000ffd8:    7a3be027    '.;z    DCD    2050744359
        0x0000ffdc:    030ff003    ....    DCD    51376131
        0x0000ffe0:    302bf887    ..+0    DCD    808188039
        0x0000ffe4:    302bf897    ..+0    DCD    808188055
        0x0000ffe8:    d90a2b09    .+..    DCD    3641322249
        0x0000ffec:    2b0078fb    .x.+    DCD    721451259
        0x0000fff0:    2327d001    ..'#    DCD    589811713
        0x0000fff4:    2307e000    ...#    DCD    587718656
        0x0000fff8:    202bf897    ..+     DCD    539752599
        0x0000fffc:    f8874413    .D..    DCD    4169614355
        0x00010000:    6afb302b    +0.j    DCD    1794846763
        0x00010004:    62fa1c5a    Z..b    DCD    1660558426
        0x00010008:    202bf897    ..+     DCD    539752599
        0x0001000c:    b2d23230    02..    DCD    3000119856
        0x00010010:    0130f107    ..0.    DCD    19984647
        0x00010014:    f803440b    .D..    DCD    4160963595
        0x00010018:    e9d72c20     ,..    DCD    3923192864
        0x0001001c:    09142302    .#..    DCD    152314626
        0x00010020:    7403ea44    D..t    DCD    1946413636
        0x00010024:    e9c7091d    ....    DCD    3922135325
        0x00010028:    e9d74502    .E..    DCD    3923199234
        0x0001002c:    ea522302    .#R.    DCD    3931251458
        0x00010030:    d1d20103    ....    DCD    3520200963
        0x00010034:    627b6afb    .j{b    DCD    1652255483
        0x00010038:    2b00687b    {h.+    DCD    721447035
        0x0001003c:    e008d011    ....    DCD    3758673937
        0x00010040:    1c5a687b    {hZ.    DCD    475687035
        0x00010044:    f107607a    z`..    DCD    4043792506
        0x00010048:    6afa0110    ...j    DCD    1794769168
        0x0001004c:    7812440a    .D.x    DCD    2014462986
        0x00010050:    6afb701a    .p.j    DCD    1794863130
        0x00010054:    62fa1e5a    Z..b    DCD    1660558938
        0x00010058:    d1f12b00    .+..    DCD    3522243328
        0x0001005c:    2200687b    {h."    DCD    570452091
        0x00010060:    6a7b701a    .p{j    DCD    1786474522
        0x00010064:    37344618    .F47    DCD    926172696
        0x00010068:    bcb046bd    .F..    DCD    3165669053
        0x0001006c:    bf004770    pG..    DCD    3204466544
        0x00010070:    b085b480    ....    DCD    2961552512
        0x00010074:    6078af00    ..x`    DCD    1618521856
        0x00010078:    60fb2300    .#.`    DCD    1627071232
        0x0001007c:    2b00687b    {h.+    DCD    721447035
        0x00010080:    68fbd101    ...h    DCD    1761333505
        0x00010084:    e002e00a    ....    DCD    3758284810
        0x00010088:    330168fb    .h.3    DCD    855730427
        0x0001008c:    687b60fb    .`{h    DCD    1752916219
        0x00010090:    607a1c5a    Z.z`    DCD    1618615386
        0x00010094:    2b00781b    .x.+    DCD    721451035
        0x00010098:    68fbd1f6    ...h    DCD    1761333750
        0x0001009c:    37144618    .F.7    DCD    924075544
        0x000100a0:    f85d46bd    .F].    DCD    4166862525
        0x000100a4:    47707b04    .{pG    DCD    1198553860
        0x000100a8:    b087b480    ....    DCD    2961683584
        0x000100ac:    60f8af00    ...`    DCD    1626910464
        0x000100b0:    607a460b    .Fz`    DCD    1618626059
        0x000100b4:    230072fb    .r.#    DCD    587231995
        0x000100b8:    687b617b    {a{h    DCD    1752916347
        0x000100bc:    dc012b00    .+..    DCD    3691064064
        0x000100c0:    e011697b    {i..    DCD    3759237499
        0x000100c4:    68fbe00a    ...h    DCD    1761337354
        0x000100c8:    d0042b00    .+..    DCD    3489934080
        0x000100cc:    1c5a68fb    .hZ.    DCD    475687163
        0x000100d0:    7afa60fa    .`.z    DCD    2063229178
        0x000100d4:    697b701a    .p{i    DCD    1769697306
        0x000100d8:    617b3301    .3{a    DCD    1635463937
        0x000100dc:    1e5a687b    {hZ.    DCD    509241467
        0x000100e0:    2b00607a    z`.+    DCD    721444986
        0x000100e4:    697bd1ef    ..{i    DCD    1769722351
        0x000100e8:    371c4618    .F.7    DCD    924599832
        0x000100ec:    f85d46bd    .F].    DCD    4166862525
        0x000100f0:    47707b04    .{pG    DCD    1198553860
        0x000100f4:    b08eb580    ....    DCD    2962142592
        0x000100f8:    60f8af00    ...`    DCD    1626910464
        0x000100fc:    607a60b9    .`z`    DCD    1618632889
        0x00010100:    681b68bb    .h.h    DCD    1746626747
        0x00010104:    6abb62bb    .b.j    DCD    1790665403
        0x00010108:    dc022b03    .+..    DCD    3691129603
        0x0001010c:    0302f06f    o...    DCD    50524271
        0x00010110:    edd7e0d6    ....    DCD    3990347990
        0x00010114:    eef57a03    .z..    DCD    4009064963
        0x00010118:    eef17a40    @z..    DCD    4008802880
        0x0001011c:    d104fa10    ....    DCD    3506764304
        0x00010120:    4a6968bb    .hiJ    DCD    1248422075
        0x00010124:    2303601a    .`.#    DCD    587423770
        0x00010128:    68bbe0ca    ...h    DCD    1757143242
        0x0001012c:    68fb627b    {b.h    DCD    1761305211
        0x00010130:    697b617b    {a{i    DCD    1769693563
        0x00010134:    b2db15db    ....    DCD    3000702427
        0x00010138:    623b3b7f    .;;b    DCD    1648049023
        0x0001013c:    f3c3697b    {i..    DCD    4089670011
        0x00010140:    f4430316    ..C.    DCD    4098032406
        0x00010144:    61fb0300    ...a    DCD    1643840256
        0x00010148:    633b2300    .#;c    DCD    1664819968
        0x0001014c:    637b2300    .#{c    DCD    1669014272
        0x00010150:    2b1e6a3b    ;j.+    DCD    723413563
        0x00010154:    f06fdd02    ..o.    DCD    4033862914
        0x00010158:    e0b10301    ....    DCD    3769697025
        0x0001015c:    f1136a3b    ;j..    DCD    4044581435
        0x00010160:    da020f17    ....    DCD    3657568023
        0x00010164:    33fff04f    O..3    DCD    872411215
        0x00010168:    6a3be0aa    ..;j    DCD    1782309034
        0x0001016c:    dd062b16    .+..    DCD    3708168982
        0x00010170:    3b176a3b    ;j.;    DCD    991390267
        0x00010174:    fa0269fa    .i..    DCD    4194462202
        0x00010178:    637bf303    ..{c    DCD    1669067523
        0x0001017c:    6a3be01a    ..;j    DCD    1782308890
        0x00010180:    db0f2b00    .+..    DCD    3675204352
        0x00010184:    f1c36a3b    ;j..    DCD    4056115771
        0x00010188:    69fa0317    ...i    DCD    1777992471
        0x0001018c:    f303fa42    B...    DCD    4077124162
        0x00010190:    6a3b637b    {c;j    DCD    1782276987
        0x00010194:    69fa3301    .3.i    DCD    1778004737
        0x00010198:    f303fa02    ....    DCD    4077124098
        0x0001019c:    437ff023    #..C    DCD    1132458019
        0x000101a0:    e007633b    ;c..    DCD    3758580539
        0x000101a4:    f02369fb    .i#.    DCD    4028852731
        0x000101a8:    6a3b427f    .B;j    DCD    1782268543
        0x000101ac:    fa4243db    .CB.    DCD    4198646747
        0x000101b0:    633bf303    ..;c    DCD    1664873219
        0x000101b4:    2b00697b    {i.+    DCD    721447291
        0x000101b8:    68bbda04    ...h    DCD    1757141508
        0x000101bc:    60ba1c5a    Z..`    DCD    1622809690
        0x000101c0:    701a222d    -".p    DCD    1880760877
        0x000101c4:    2b006b7b    {k.+    DCD    721447803
        0x000101c8:    68bbd105    ...h    DCD    1757139205
        0x000101cc:    60ba1c5a    Z..`    DCD    1622809690
        0x000101d0:    701a2230    0".p    DCD    1880760880
        0x000101d4:    6b7be023    #.{k    DCD    1803280419
        0x000101d8:    dd092b00    .+..    DCD    3708365568
        0x000101dc:    461a6b7b    {k.F    DCD    1176136571
        0x000101e0:    73e2ea4f    O..s    DCD    1944250959
        0x000101e4:    46194610    .F.F    DCD    1176061456
        0x000101e8:    f7ff68ba    .h..    DCD    4160710842
        0x000101ec:    e012fe93    ....    DCD    3759341203
        0x000101f0:    1c5a68bb    .hZ.    DCD    475687099
        0x000101f4:    222d60ba    .`-"    DCD    573399226
        0x000101f8:    6b7b701a    .p{k    DCD    1803251738
        0x000101fc:    461a425b    [B.F    DCD    1176126043
        0x00010200:    73e2ea4f    O..s    DCD    1944250959
        0x00010204:    46194610    .F.F    DCD    1176061456
        0x00010208:    f7ff68ba    .h..    DCD    4160710842
        0x0001020c:    e002fe83    ....    DCD    3758292611
        0x00010210:    330168bb    .h.3    DCD    855730363
        0x00010214:    68bb60bb    .`.h    DCD    1757110459
        0x00010218:    2b00781b    .x.+    DCD    721451035
        0x0001021c:    68bbd1f8    ...h    DCD    1757139448
        0x00010220:    60ba1c5a    Z..`    DCD    1622809690
        0x00010224:    701a222e    .".p    DCD    1880760878
        0x00010228:    2b006b3b    ;k.+    DCD    721447739
        0x0001022c:    68bbd105    ...h    DCD    1757139205
        0x00010230:    60ba1c5a    Z..`    DCD    1622809690
        0x00010234:    701a2230    0".p    DCD    1880760880
        0x00010238:    6a7ae03c    <.zj    DCD    1786437692
        0x0001023c:    1ad268bb    .h..    DCD    449996987
        0x00010240:    44136abb    .j.D    DCD    1142123195
        0x00010244:    61bb3b01    .;.a    DCD    1639660289
        0x00010248:    687b69ba    .i{h    DCD    1752918458
        0x0001024c:    bfb8429a    .B..    DCD    3216523930
        0x00010250:    61bb4613    .F.a    DCD    1639663123
        0x00010254:    62fb2300    .#.b    DCD    1660625664
        0x00010258:    6b3ae015    ..:k    DCD    1799020565
        0x0001025c:    009b4613    .F..    DCD    10176019
        0x00010260:    005b4413    .D[.    DCD    5981203
        0x00010264:    68bb633b    ;c.h    DCD    1757111099
        0x00010268:    60ba1c5a    Z..`    DCD    1622809690
        0x0001026c:    16126b3a    :k..    DCD    370305850
        0x00010270:    3230b2d2    ..02    DCD    842052306
        0x00010274:    701ab2d2    ...p    DCD    1880797906
        0x00010278:    f0236b3b    ;k#.    DCD    4028853051
        0x0001027c:    633b437f    .C;c    DCD    1664828287
        0x00010280:    33016afb    .j.3    DCD    855730939
        0x00010284:    6afa62fb    .b.j    DCD    1794794235
        0x00010288:    429a69bb    .i.B    DCD    1117415867
        0x0001028c:    68bbdbe5    ...h    DCD    1757141989
        0x00010290:    60bb3b01    .;.`    DCD    1622883073
        0x00010294:    68bbe002    ...h    DCD    1757143042
        0x00010298:    60bb3b01    .;.`    DCD    1622883073
        0x0001029c:    781b68bb    .h.x    DCD    2015062203
        0x000102a0:    d1042b30    0+..    DCD    3506711344
        0x000102a4:    3b0168bb    .h.;    DCD    989948091
        0x000102a8:    2b2e781b    .x.+    DCD    724465691
        0x000102ac:    68bbd1f3    ...h    DCD    1757139443
        0x000102b0:    60bb3301    .3.`    DCD    1622881025
        0x000102b4:    220068bb    .h."    DCD    570452155
        0x000102b8:    68ba701a    .p.h    DCD    1757048858
        0x000102bc:    1ad36a7b    {j..    DCD    450062971
        0x000102c0:    37384618    .F87    DCD    926434840
        0x000102c4:    bd8046bd    .F..    DCD    3179300541
        0x000102c8:    00302e30    0.0.    DCD    3157552
        0x000102cc:    b094b580    ....    DCD    2962535808
        0x000102d0:    60f8af00    ...`    DCD    1626910464
        0x000102d4:    607a60b9    .`z`    DCD    1618632889
        0x000102d8:    63fb2300    .#.c    DCD    1677402880
        0x000102dc:    627b2300    .#{b    DCD    1652237056
        0x000102e0:    2306e2e9    ...#    DCD    587653865
        0x000102e4:    68bb633b    ;c.h    DCD    1757111099
        0x000102e8:    2b25781b    .x%+    DCD    723875867
        0x000102ec:    68fbd01f    ...h    DCD    1761333279
        0x000102f0:    d0152b00    .+..    DCD    3491048192
        0x000102f4:    781b68bb    .h.x    DCD    2015062203
        0x000102f8:    d10b2b0a    .+..    DCD    3507170058
        0x000102fc:    781b4bb2    .K.x    DCD    2015054770
        0x00010300:    d0072b00    .+..    DCD    3490130688
        0x00010304:    1c5a68fb    .hZ.    DCD    475687163
        0x00010308:    220d60fa    .`."    DCD    571302138
        0x0001030c:    6bfb701a    .p.k    DCD    1811640346
        0x00010310:    63fb3301    .3.c    DCD    1677406977
        0x00010314:    1c5a68fb    .hZ.    DCD    475687163
        0x00010318:    68ba60fa    .`.h    DCD    1757044986
        0x0001031c:    701a7812    .x.p    DCD    1880782866
        0x00010320:    330168bb    .h.3    DCD    855730363
        0x00010324:    6bfb60bb    .`.k    DCD    1811636411
        0x00010328:    63fb3301    .3.c    DCD    1677406977
        0x0001032c:    68bbe2c3    ...h    DCD    1757143747
        0x00010330:    60bb3301    .3.`    DCD    1622881025
        0x00010334:    f8872300    .#..    DCD    4169605888
        0x00010338:    f897302d    -0..    DCD    4170657837
        0x0001033c:    f887302d    -0..    DCD    4169609261
        0x00010340:    2320302e    .0 #    DCD    589312046
        0x00010344:    302ff887    ../0    DCD    808450183
        0x00010348:    781b68bb    .h.x    DCD    2015062203
        0x0001034c:    d1052b30    0+..    DCD    3506776880
        0x00010350:    f8872330    0#..    DCD    4169605936
        0x00010354:    68bb302f    /0.h    DCD    1757098031
        0x00010358:    60bb3301    .3.`    DCD    1622881025
        0x0001035c:    0310f107    ....    DCD    51441927
        0x00010360:    461968b8    .h.F    DCD    1176070328
        0x00010364:    fd8ef7ff    ....    DCD    4254005247
        0x00010368:    63bb4603    .F.c    DCD    1673217539
        0x0001036c:    68ba693b    ;i.h    DCD    1757047099
        0x00010370:    60bb4413    .D.`    DCD    1622885395
        0x00010374:    781b68bb    .h.x    DCD    2015062203
        0x00010378:    d0052b73    s+..    DCD    3489999731
        0x0001037c:    2b006bbb    .k.+    DCD    721447867
        0x00010380:    6bbbda02    ...k    DCD    1807473154
        0x00010384:    63bb425b    [B.c    DCD    1673216603
        0x00010388:    781b68bb    .h.x    DCD    2015062203
        0x0001038c:    d10e2b2e    .+..    DCD    3507366702
        0x00010390:    330168bb    .h.3    DCD    855730363
        0x00010394:    f10760bb    .`..    DCD    4043792571
        0x00010398:    68b80310    ...h    DCD    1756889872
        0x0001039c:    f7ff4619    .F..    DCD    4160701977
        0x000103a0:    4603fd71    q..F    DCD    1174666609
        0x000103a4:    693b633b    ;c;i    DCD    1765499707
        0x000103a8:    441368ba    .h.D    DCD    1142122682
        0x000103ac:    68bb60bb    .`.h    DCD    1757110459
        0x000103b0:    2b6c781b    .xl+    DCD    728528923
        0x000103b4:    68bbd10c    ...h    DCD    1757139212
        0x000103b8:    60bb3301    .3.`    DCD    1622881025
        0x000103bc:    781b68bb    .h.x    DCD    2015062203
        0x000103c0:    d1052b6c    l+..    DCD    3506776940
        0x000103c4:    330168bb    .h.3    DCD    855730363
        0x000103c8:    230160bb    .`.#    DCD    587292859
        0x000103cc:    302df887    ..-0    DCD    808319111
        0x000103d0:    781b68bb    .h.x    DCD    2015062203
        0x000103d4:    2b323b46    F;2+    DCD    724712262
        0x000103d8:    825df200    ..].    DCD    2187194880
        0x000103dc:    f851a101    ..Q.    DCD    4166099201
        0x000103e0:    bf00f023    #...    DCD    3204509731
        0x000103e4:    00008ee9    ....    DCD    36585
        0x000103e8:    00008f63    c...    DCD    36707
        0x000103ec:    00008f63    c...    DCD    36707
        0x000103f0:    00008f63    c...    DCD    36707
        0x000103f4:    00008f63    c...    DCD    36707
        0x000103f8:    00008f63    c...    DCD    36707
        0x000103fc:    00008f63    c...    DCD    36707
        0x00010400:    00008f63    c...    DCD    36707
        0x00010404:    00008f63    c...    DCD    36707
        0x00010408:    00008f63    c...    DCD    36707
        0x0001040c:    00008f63    c...    DCD    36707
        0x00010410:    00008f63    c...    DCD    36707
        0x00010414:    00008f63    c...    DCD    36707
        0x00010418:    00008f63    c...    DCD    36707
        0x0001041c:    00008f63    c...    DCD    36707
        0x00010420:    00008f63    c...    DCD    36707
        0x00010424:    00008f63    c...    DCD    36707
        0x00010428:    00008f63    c...    DCD    36707
        0x0001042c:    00008c77    w...    DCD    35959
        0x00010430:    00008f63    c...    DCD    36707
        0x00010434:    00008f63    c...    DCD    36707
        0x00010438:    00008f63    c...    DCD    36707
        0x0001043c:    00008f63    c...    DCD    36707
        0x00010440:    00008f63    c...    DCD    36707
        0x00010444:    00008f63    c...    DCD    36707
        0x00010448:    00008f63    c...    DCD    36707
        0x0001044c:    00008f63    c...    DCD    36707
        0x00010450:    00008f63    c...    DCD    36707
        0x00010454:    00008f63    c...    DCD    36707
        0x00010458:    00008b7d    }...    DCD    35709
        0x0001045c:    00008dad    ....    DCD    36269
        0x00010460:    00008f63    c...    DCD    36707
        0x00010464:    00008ee9    ....    DCD    36585
        0x00010468:    00008f63    c...    DCD    36707
        0x0001046c:    00008f63    c...    DCD    36707
        0x00010470:    00008dad    ....    DCD    36269
        0x00010474:    00008f63    c...    DCD    36707
        0x00010478:    00008f63    c...    DCD    36707
        0x0001047c:    00008f63    c...    DCD    36707
        0x00010480:    00008f63    c...    DCD    36707
        0x00010484:    00008f63    c...    DCD    36707
        0x00010488:    00008f63    c...    DCD    36707
        0x0001048c:    00008f63    c...    DCD    36707
        0x00010490:    00008f63    c...    DCD    36707
        0x00010494:    00008f63    c...    DCD    36707
        0x00010498:    00008ba3    ....    DCD    35747
        0x0001049c:    00008f63    c...    DCD    36707
        0x000104a0:    00008d17    ....    DCD    36119
        0x000104a4:    00008f63    c...    DCD    36707
        0x000104a8:    00008f63    c...    DCD    36707
        0x000104ac:    00008c71    q...    DCD    35953
        0x000104b0:    1d1a687b    {h..    DCD    488269947
        0x000104b4:    681b607a    z`.h    DCD    1746624634
        0x000104b8:    3023f887    ..#0    DCD    807663751
        0x000104bc:    2b0068fb    .h.+    DCD    721447163
        0x000104c0:    68fbd005    ...h    DCD    1761333253
        0x000104c4:    60fa1c5a    Z..`    DCD    1627003994
        0x000104c8:    2023f897    ..#     DCD    539228311
        0x000104cc:    6bfb701a    .p.k    DCD    1811640346
        0x000104d0:    63fb3301    .3.c    DCD    1677406977
        0x000104d4:    687be1ec    ..{h    DCD    1752949228
        0x000104d8:    607a1d1a    ..z`    DCD    1618615578
        0x000104dc:    64fb681b    .h.d    DCD    1694197787
        0x000104e0:    f7ff6cf8    .l..    DCD    4160711928
        0x000104e4:    6278fdc5    ..xb    DCD    1652096453
        0x000104e8:    2b006bbb    .k.+    DCD    721447867
        0x000104ec:    6bbadd1f    ...k    DCD    1807408415
        0x000104f0:    429a6a7b    {j.B    DCD    1117416059
        0x000104f4:    6bbad91b    ...k    DCD    1807407387
        0x000104f8:    1ad36a7b    {j..    DCD    450062971
        0x000104fc:    f89763bb    .c..    DCD    4170671035
        0x00010500:    68f8302f    /0.h    DCD    1761095727
        0x00010504:    6bba4619    .F.k    DCD    1807369753
        0x00010508:    fdcef7ff    ....    DCD    4258199551
        0x0001050c:    68fb63b8    .c.h    DCD    1761305528
        0x00010510:    d0012b00    .+..    DCD    3489737472
        0x00010514:    e0006bbb    .k..    DCD    3758123963
        0x00010518:    68fa2300    .#.h    DCD    1761223424
        0x0001051c:    60fb4413    .D.`    DCD    1627079699
        0x00010520:    6bfa6bbb    .k.k    DCD    1811573691
        0x00010524:    63fb4413    .D.c    DCD    1677411347
        0x00010528:    63bb2300    .#.c    DCD    1673208576
        0x0001052c:    e00ee00f    ....    DCD    3759071247
        0x00010530:    2b0068fb    .h.+    DCD    721447163
        0x00010534:    68fbd005    ...h    DCD    1761333253
        0x00010538:    60fa1c5a    Z..`    DCD    1627003994
        0x0001053c:    78126cfa    .l.x    DCD    2014473466
        0x00010540:    6cfb701a    .p.l    DCD    1828417562
        0x00010544:    64fb3301    .3.d    DCD    1694184193
        0x00010548:    33016bfb    .k.3    DCD    855731195
        0x0001054c:    6cfb63fb    .c.l    DCD    1828414459
        0x00010550:    2b00781b    .x.+    DCD    721451035
        0x00010554:    6bbbd1ec    ...k    DCD    1807471084
        0x00010558:    d0222b00    .+".    DCD    3491900160
        0x0001055c:    425b6bbb    .k[B    DCD    1113287611
        0x00010560:    6bba63bb    .c.k    DCD    1807377339
        0x00010564:    429a6a7b    {j.B    DCD    1117416059
        0x00010568:    6bbad91b    ...k    DCD    1807407387
        0x0001056c:    1ad36a7b    {j..    DCD    450062971
        0x00010570:    f89763bb    .c..    DCD    4170671035
        0x00010574:    68f8302f    /0.h    DCD    1761095727
        0x00010578:    6bba4619    .F.k    DCD    1807369753
        0x0001057c:    fd94f7ff    ....    DCD    4254398463
        0x00010580:    68fb63b8    .c.h    DCD    1761305528
        0x00010584:    d0012b00    .+..    DCD    3489737472
        0x00010588:    e0006bbb    .k..    DCD    3758123963
        0x0001058c:    68fa2300    .#.h    DCD    1761223424
        0x00010590:    60fb4413    .D.`    DCD    1627079699
        0x00010594:    6bfa6bbb    .k.k    DCD    1811573691
        0x00010598:    63fb4413    .D.c    DCD    1677411347
        0x0001059c:    63bb2300    .#.c    DCD    1673208576
        0x000105a0:    e185e186    ....    DCD    3783647622
        0x000105a4:    f8872301    .#..    DCD    4169605889
        0x000105a8:    f897302e    .0..    DCD    4170657838
        0x000105ac:    2b00302d    -0.+    DCD    721432621
        0x000105b0:    687bd00c    ..{h    DCD    1752944652
        0x000105b4:    f0233307    .3#.    DCD    4028838663
        0x000105b8:    f1030307    ....    DCD    4043506439
        0x000105bc:    607a0208    ..z`    DCD    1618608648
        0x000105c0:    2300e9d3    ...#    DCD    587262419
        0x000105c4:    bf00e009    ....    DCD    3204505609
        0x000105c8:    10000380    ....    DCD    268436352
        0x000105cc:    1d1a687b    {h..    DCD    488269947
        0x000105d0:    681b607a    z`.h    DCD    1746624634
        0x000105d4:    f04f461a    .FO.    DCD    4031727130
        0x000105d8:    e9c70300    ....    DCD    3922133760
        0x000105dc:    6bbb2310    .#.k    DCD    1807426320
        0x000105e0:    d01e2b00    .+..    DCD    3491638016
        0x000105e4:    0110e9d7    ....    DCD    17885655
        0x000105e8:    fc26f7ff    ..&.    DCD    4230412287
        0x000105ec:    6bba4603    .F.k    DCD    1807369731
        0x000105f0:    63bb1ad3    ...c    DCD    1673206483
        0x000105f4:    302ff897    ../0    DCD    808450199
        0x000105f8:    461968f8    .h.F    DCD    1176070392
        0x000105fc:    f7ff6bba    .k..    DCD    4160711610
        0x00010600:    63b8fd53    S..c    DCD    1673067859
        0x00010604:    2b0068fb    .h.+    DCD    721447163
        0x00010608:    6bbbd001    ...k    DCD    1807470593
        0x0001060c:    2300e000    ...#    DCD    587259904
        0x00010610:    441368fa    .h.D    DCD    1142122746
        0x00010614:    6bbb60fb    .`.k    DCD    1807442171
        0x00010618:    44136bfa    .k.D    DCD    1142123514
        0x0001061c:    230063fb    .c.#    DCD    587228155
        0x00010620:    f89763bb    .c..    DCD    4170671035
        0x00010624:    e9d7302e    .0..    DCD    3923193902
        0x00010628:    68fa0110    ...h    DCD    1761214736
        0x0001062c:    fcbcf7ff    ....    DCD    4240242687
        0x00010630:    68fb6378    xc.h    DCD    1761305464
        0x00010634:    d0032b00    .+..    DCD    3489868544
        0x00010638:    68fa6b7b    {k.h    DCD    1761241979
        0x0001063c:    60fb4413    .D.`    DCD    1627079699
        0x00010640:    6bfa6b7b    {k.k    DCD    1811573627
        0x00010644:    63fb4413    .D.c    DCD    1677411347
        0x00010648:    f897e132    2...    DCD    4170703154
        0x0001064c:    2b00302d    -0.+    DCD    721432621
        0x00010650:    687bd009    ..{h    DCD    1752944649
        0x00010654:    f0233307    .3#.    DCD    4028838663
        0x00010658:    f1030307    ....    DCD    4043506439
        0x0001065c:    607a0208    ..z`    DCD    1618608648
        0x00010660:    2300e9d3    ...#    DCD    587262419
        0x00010664:    687be006    ..{h    DCD    1752948742
        0x00010668:    607a1d1a    ..z`    DCD    1618615578
        0x0001066c:    461a681b    .h.F    DCD    1176135707
        0x00010670:    0300f04f    O...    DCD    50393167
        0x00010674:    2310e9c7    ...#    DCD    588310983
        0x00010678:    2b006bbb    .k.+    DCD    721447867
        0x0001067c:    e9d7d01e    ....    DCD    3923234846
        0x00010680:    f7ff0110    ....    DCD    4160684304
        0x00010684:    4603fb99    ...F    DCD    1174666137
        0x00010688:    1ad36bba    .k..    DCD    450063290
        0x0001068c:    f89763bb    .c..    DCD    4170671035
        0x00010690:    68f8302f    /0.h    DCD    1761095727
        0x00010694:    6bba4619    .F.k    DCD    1807369753
        0x00010698:    fd06f7ff    ....    DCD    4245092351
        0x0001069c:    68fb63b8    .c.h    DCD    1761305528
        0x000106a0:    d0012b00    .+..    DCD    3489737472
        0x000106a4:    e0006bbb    .k..    DCD    3758123963
        0x000106a8:    68fa2300    .#.h    DCD    1761223424
        0x000106ac:    60fb4413    .D.`    DCD    1627079699
        0x000106b0:    6bfa6bbb    .k.k    DCD    1811573691
        0x000106b4:    63fb4413    .D.c    DCD    1677411347
        0x000106b8:    63bb2300    .#.c    DCD    1673208576
        0x000106bc:    0110e9d7    ....    DCD    17885655
        0x000106c0:    f7ff68fa    .h..    DCD    4160710906
        0x000106c4:    6378fc27    '.xc    DCD    1668873255
        0x000106c8:    2b0068fb    .h.+    DCD    721447163
        0x000106cc:    6b7bd003    ..{k    DCD    1803276291
        0x000106d0:    441368fa    .h.D    DCD    1142122746
        0x000106d4:    6b7b60fb    .`{k    DCD    1803247867
        0x000106d8:    44136bfa    .k.D    DCD    1142123514
        0x000106dc:    e0e763fb    .c..    DCD    3773260795
        0x000106e0:    302df897    ..-0    DCD    808319127
        0x000106e4:    d0092b00    .+..    DCD    3490261760
        0x000106e8:    3307687b    {h.3    DCD    856123515
        0x000106ec:    0307f023    #...    DCD    50851875
        0x000106f0:    0208f103    ....    DCD    34140419
        0x000106f4:    e9d3607a    z`..    DCD    3922944122
        0x000106f8:    e0062300    .#..    DCD    3758498560
        0x000106fc:    1d1a687b    {h..    DCD    488269947
        0x00010700:    681b607a    z`.h    DCD    1746624634
        0x00010704:    ea4f461a    .FO.    DCD    3931063834
        0x00010708:    e9c773e2    .s..    DCD    3922162658
        0x0001070c:    e9d72306    .#..    DCD    3923190534
        0x00010710:    2a002306    .#.*    DCD    704652038
        0x00010714:    0100f173    s...    DCD    16839027
        0x00010718:    e9d7da0a    ....    DCD    3923237386
        0x0001071c:    42522306    .#RB    DCD    1112679174
        0x00010720:    0343eb63    c.C.    DCD    54782819
        0x00010724:    2310e9c7    ...#    DCD    588310983
        0x00010728:    f8872301    .#..    DCD    4169605889
        0x0001072c:    e006302c    ,0..    DCD    3758501932
        0x00010730:    2306e9d7    ...#    DCD    587655639
        0x00010734:    2310e9c7    ...#    DCD    588310983
        0x00010738:    f8872300    .#..    DCD    4169605888
        0x0001073c:    6bbb302c    ,0.k    DCD    1807429676
        0x00010740:    d04a2b00    .+J.    DCD    3494521600
        0x00010744:    2310e9d7    ...#    DCD    588310999
        0x00010748:    46194610    .F.F    DCD    1176061456
        0x0001074c:    fb56f7ff    ..V.    DCD    4216780799
        0x00010750:    6bba4603    .F.k    DCD    1807369731
        0x00010754:    63bb1ad3    ...c    DCD    1673206483
        0x00010758:    302cf897    ..,0    DCD    808253591
        0x0001075c:    d0112b00    .+..    DCD    3490786048
        0x00010760:    3b016bbb    .k.;    DCD    989948859
        0x00010764:    f89763bb    .c..    DCD    4170671035
        0x00010768:    2b30302f    /00+    DCD    724578351
        0x0001076c:    68fbd10a    ...h    DCD    1761333514
        0x00010770:    d0042b00    .+..    DCD    3489934080
        0x00010774:    1c5a68fb    .hZ.    DCD    475687163
        0x00010778:    222d60fa    .`-"    DCD    573399290
        0x0001077c:    6bfb701a    .p.k    DCD    1811640346
        0x00010780:    63fb3301    .3.c    DCD    1677406977
        0x00010784:    302ff897    ../0    DCD    808450199
        0x00010788:    461968f8    .h.F    DCD    1176070392
        0x0001078c:    f7ff6bba    .k..    DCD    4160711610
        0x00010790:    63b8fc8b    ...c    DCD    1673067659
        0x00010794:    2b0068fb    .h.+    DCD    721447163
        0x00010798:    6bbbd001    ...k    DCD    1807470593
        0x0001079c:    2300e000    ...#    DCD    587259904
        0x000107a0:    441368fa    .h.D    DCD    1142122746
        0x000107a4:    6bbb60fb    .`.k    DCD    1807442171
        0x000107a8:    44136bfa    .k.D    DCD    1142123514
        0x000107ac:    230063fb    .c.#    DCD    587228155
        0x000107b0:    f89763bb    .c..    DCD    4170671035
        0x000107b4:    2b00302c    ,0.+    DCD    721432620
        0x000107b8:    f897d01e    ....    DCD    4170698782
        0x000107bc:    2b20302f    /0 +    DCD    723529775
        0x000107c0:    68fbd11a    ...h    DCD    1761333530
        0x000107c4:    d0042b00    .+..    DCD    3489934080
        0x000107c8:    1c5a68fb    .hZ.    DCD    475687163
        0x000107cc:    222d60fa    .`-"    DCD    573399290
        0x000107d0:    6bfb701a    .p.k    DCD    1811640346
        0x000107d4:    63fb3301    .3.c    DCD    1677406977
        0x000107d8:    f897e00e    ....    DCD    4170702862
        0x000107dc:    2b00302c    ,0.+    DCD    721432620
        0x000107e0:    68fbd00a    ...h    DCD    1761333258
        0x000107e4:    d0042b00    .+..    DCD    3489934080
        0x000107e8:    1c5a68fb    .hZ.    DCD    475687163
        0x000107ec:    222d60fa    .`-"    DCD    573399290
        0x000107f0:    6bfb701a    .p.k    DCD    1811640346
        0x000107f4:    63fb3301    .3.c    DCD    1677406977
        0x000107f8:    0110e9d7    ....    DCD    17885655
        0x000107fc:    f7ff68fa    .h..    DCD    4160710906
        0x00010800:    6378fb89    ..xc    DCD    1668873097
        0x00010804:    2b0068fb    .h.+    DCD    721447163
        0x00010808:    6b7bd003    ..{k    DCD    1803276291
        0x0001080c:    441368fa    .h.D    DCD    1142122746
        0x00010810:    6b7b60fb    .`{k    DCD    1803247867
        0x00010814:    44136bfa    .k.D    DCD    1142123514
        0x00010818:    e04963fb    .cI.    DCD    3762906107
        0x0001081c:    2b0068fb    .h.+    DCD    721447163
        0x00010820:    687bd038    8.{h    DCD    1752944696
        0x00010824:    f0233307    .3#.    DCD    4028838663
        0x00010828:    f1030307    ....    DCD    4043506439
        0x0001082c:    607a0208    ..z`    DCD    1618608648
        0x00010830:    2300e9d3    ...#    DCD    587262419
        0x00010834:    46194610    .F.F    DCD    1176061456
        0x00010838:    fe92f000    ....    DCD    4271042560
        0x0001083c:    617b4603    .F{a    DCD    1635468803
        0x00010840:    221468fb    .h."    DCD    571762939
        0x00010844:    6978601a    .`xi    DCD    1769496602
        0x00010848:    6b3a68f9    .h:k    DCD    1798990073
        0x0001084c:    fc52f7ff    ..R.    DCD    4233295871
        0x00010850:    6b7b6378    xc{k    DCD    1803248504
        0x00010854:    da142b00    .+..    DCD    3658754816
        0x00010858:    f1b36b7b    {k..    DCD    4055067515
        0x0001085c:    d1023fff    .?..    DCD    3506585599
        0x00010860:    62bb4b1d    .K.b    DCD    1656441629
        0x00010864:    6b7be008    ..{k    DCD    1803280392
        0x00010868:    0f02f113    ....    DCD    251851027
        0x0001086c:    4b1bd102    ...K    DCD    1260114178
        0x00010870:    e00162bb    .b..    DCD    3758187195
        0x00010874:    62bb4b1a    .K.b    DCD    1656441626
        0x00010878:    6aba68fb    .h.j    DCD    1790601467
        0x0001087c:    2303601a    .`.#    DCD    587423770
        0x00010880:    6b7b637b    {c{k    DCD    1803248507
        0x00010884:    44136bfa    .k.D    DCD    1142123514
        0x00010888:    6b7b63fb    .c{k    DCD    1803248635
        0x0001088c:    441368fa    .h.D    DCD    1142122746
        0x00010890:    e00d60fb    .`..    DCD    3758973179
        0x00010894:    68fbe00c    ...h    DCD    1761337356
        0x00010898:    d0052b00    .+..    DCD    3489999616
        0x0001089c:    1c5a68fb    .hZ.    DCD    475687163
        0x000108a0:    68ba60fa    .`.h    DCD    1757044986
        0x000108a4:    701a7812    .x.p    DCD    1880782866
        0x000108a8:    33016bfb    .k.3    DCD    855731195
        0x000108ac:    bf0063fb    .c..    DCD    3204473851
        0x000108b0:    330168bb    .h.3    DCD    855730363
        0x000108b4:    68bb60bb    .`.h    DCD    1757110459
        0x000108b8:    2b00781b    .x.+    DCD    721451035
        0x000108bc:    ad11f47f    ....    DCD    2903635071
        0x000108c0:    2b0068fb    .h.+    DCD    721447163
        0x000108c4:    68fbd002    ...h    DCD    1761333250
        0x000108c8:    701a2200    .".p    DCD    1880760832
        0x000108cc:    46186bfb    .k.F    DCD    1176005627
        0x000108d0:    46bd3750    P7.F    DCD    1186805584
        0x000108d4:    bf00bd80    ....    DCD    3204496768
        0x000108d8:    00302e30    0.0.    DCD    3157552
        0x000108dc:    00232e23    #.#.    DCD    2305571
        0x000108e0:    003f2e3f    ?.?.    DCD    4140607
        0x000108e4:    b580b40f    ....    DCD    3045110799
        0x000108e8:    af00b082    ....    DCD    2936057986
        0x000108ec:    0314f107    ....    DCD    51704071
        0x000108f0:    4809603b    ;`.H    DCD    1208574011
        0x000108f4:    683a6939    9i:h    DCD    1748658489
        0x000108f8:    fce8f7ff    ....    DCD    4243126271
        0x000108fc:    4b076078    x`.K    DCD    1258774648
        0x00010900:    4805681b    .h.H    DCD    1208313883
        0x00010904:    687b4798    .G{h    DCD    1752909720
        0x00010908:    37084618    .F.7    DCD    923289112
        0x0001090c:    e8bd46bd    .F..    DCD    3904718525
        0x00010910:    b0044080    .@..    DCD    2953068672
        0x00010914:    bf004770    pG..    DCD    3204466544
        0x00010918:    10000280    ....    DCD    268436096
        0x0001091c:    10000388    ....    DCD    268436360
        0x00010920:    af00b580    ....    DCD    2936059264
        0x00010924:    f7ff4803    .H..    DCD    4160702467
        0x00010928:    4803ffdd    ...H    DCD    1208221661
        0x0001092c:    ffdaf7ff    ....    DCD    4292540415
        0x00010930:    bf00bd80    ....    DCD    3204496768
        0x00010934:    00009ce4    ....    DCD    40164
        0x00010938:    00009d04    ....    DCD    40196
        0x0001093c:    b082b490    ....    DCD    2961355920
        0x00010940:    6078af00    ..x`    DCD    1618521856
        0x00010944:    685b687b    {h[h    DCD    1750820987
        0x00010948:    0302f003    ....    DCD    50524163
        0x0001094c:    f0002b00    .+..    DCD    4026542848
        0x00010950:    687b8094    ..{h    DCD    1752924308
        0x00010954:    2b00681b    .h.+    DCD    721446939
        0x00010958:    e04dda00    ..M.    DCD    3763198464
        0x0001095c:    22734b92    .Ks"    DCD    577981330
        0x00010960:    687b601a    .`{h    DCD    1752915994
        0x00010964:    f003681b    .h..    DCD    4026755099
        0x00010968:    085a03f8    ..Z.    DCD    140116984
        0x0001096c:    44134b8f    .K.D    DCD    1142115215
        0x00010970:    687b461a    .F{h    DCD    1752909338
        0x00010974:    f003681b    .h..    DCD    4026755099
        0x00010978:    009b0307    ....    DCD    10158855
        0x0001097c:    40992102    .!.@    DCD    1083777282
        0x00010980:    681b687b    {h.h    DCD    1746626683
        0x00010984:    03f8f003    ....    DCD    66646019
        0x00010988:    4b880858    X..K    DCD    1267206232
        0x0001098c:    68184403    .D.h    DCD    1746420739
        0x00010990:    681b687b    {h.h    DCD    1746626683
        0x00010994:    0307f003    ....    DCD    50851843
        0x00010998:    2407009b    ...$    DCD    604438683
        0x0001099c:    f303fa04    ....    DCD    4077124100
        0x000109a0:    400343db    .C.@    DCD    1073955803
        0x000109a4:    6013430b    .C.`    DCD    1611875083
        0x000109a8:    681b687b    {h.h    DCD    1746626683
        0x000109ac:    03fcf003    ....    DCD    66908163
        0x000109b0:    4380f103    ...C    DCD    1132523779
        0x000109b4:    3380f503    ...3    DCD    864089347
        0x000109b8:    687b461a    .F{h    DCD    1752909338
        0x000109bc:    f003681b    .h..    DCD    4026755099
        0x000109c0:    00db0303    ....    DCD    14353155
        0x000109c4:    40992118    .!.@    DCD    1083777304
        0x000109c8:    681b687b    {h.h    DCD    1746626683
        0x000109cc:    03fcf003    ....    DCD    66908163
        0x000109d0:    4380f103    ...C    DCD    1132523779
        0x000109d4:    3380f503    ...3    DCD    864089347
        0x000109d8:    687b6818    .h{h    DCD    1752918040
        0x000109dc:    f003681b    .h..    DCD    4026755099
        0x000109e0:    00db0303    ....    DCD    14353155
        0x000109e4:    fa0424ff    .$..    DCD    4194575615
        0x000109e8:    43dbf303    ...C    DCD    1138488067
        0x000109ec:    430b4003    .@.C    DCD    1124810755
        0x000109f0:    4b6d6013    .`mK    DCD    1265459219
        0x000109f4:    601a2200    .".`    DCD    1612325376
        0x000109f8:    681b687b    {h.h    DCD    1746626683
        0x000109fc:    0320f003    .. .    DCD    52490243
        0x00010a00:    4b6b08da    ..kK    DCD    1265305818
        0x00010a04:    687a4413    .Dzh    DCD    1752843283
        0x00010a08:    f0026812    .h..    DCD    4026689554
        0x00010a0c:    2101021f    ...!    DCD    553714207
        0x00010a10:    f202fa01    ....    DCD    4060281345
        0x00010a14:    687b601a    .`{h    DCD    1752915994
        0x00010a18:    f003681b    .h..    DCD    4026755099
        0x00010a1c:    08da0320     ...    DCD    148505376
        0x00010a20:    44134b64    dK.D    DCD    1142115172
        0x00010a24:    687b461a    .F{h    DCD    1752909338
        0x00010a28:    f003685b    [h..    DCD    4026755163
        0x00010a2c:    2b000301    ...+    DCD    721421057
        0x00010a30:    687bd010    ..{h    DCD    1752944656
        0x00010a34:    f003681b    .h..    DCD    4026755099
        0x00010a38:    08d90320     ...    DCD    148439840
        0x00010a3c:    440b4b5d    ]K.D    DCD    1141590877
        0x00010a40:    687b6819    .h{h    DCD    1752918041
        0x00010a44:    f003681b    .h..    DCD    4026755099
        0x00010a48:    2001031f    ...     DCD    536937247
        0x00010a4c:    f303fa00    ....    DCD    4077124096
        0x00010a50:    e010430b    .C..    DCD    3759162123
        0x00010a54:    681b687b    {h.h    DCD    1746626683
        0x00010a58:    0320f003    .. .    DCD    52490243
        0x00010a5c:    4b5508d9    ..UK    DCD    1263864025
        0x00010a60:    6819440b    .D.h    DCD    1746486283
        0x00010a64:    681b687b    {h.h    DCD    1746626683
        0x00010a68:    031ff003    ....    DCD    52424707
        0x00010a6c:    fa002001    . ..    DCD    4194312193
        0x00010a70:    43dbf303    ...C    DCD    1138488067
        0x00010a74:    6013400b    .@.`    DCD    1611874315
        0x00010a78:    687be092    ..{h    DCD    1752948882
        0x00010a7c:    2b00681b    .h.+    DCD    721446939
        0x00010a80:    e04dda00    ..M.    DCD    3763198464
        0x00010a84:    22734b48    HKs"    DCD    577981256
        0x00010a88:    687b601a    .`{h    DCD    1752915994
        0x00010a8c:    f003681b    .h..    DCD    4026755099
        0x00010a90:    085a03f8    ..Z.    DCD    140116984
        0x00010a94:    44134b45    EK.D    DCD    1142115141
        0x00010a98:    687b461a    .F{h    DCD    1752909338
        0x00010a9c:    f003681b    .h..    DCD    4026755099
        0x00010aa0:    009b0307    ....    DCD    10158855
        0x00010aa4:    40992106    .!.@    DCD    1083777286
        0x00010aa8:    681b687b    {h.h    DCD    1746626683
        0x00010aac:    03f8f003    ....    DCD    66646019
        0x00010ab0:    4b3e0858    X.>K    DCD    1262356568
        0x00010ab4:    68184403    .D.h    DCD    1746420739
        0x00010ab8:    681b687b    {h.h    DCD    1746626683
        0x00010abc:    0307f003    ....    DCD    50851843
        0x00010ac0:    2407009b    ...$    DCD    604438683
        0x00010ac4:    f303fa04    ....    DCD    4077124100
        0x00010ac8:    400343db    .C.@    DCD    1073955803
        0x00010acc:    6013430b    .C.`    DCD    1611875083
        0x00010ad0:    681b687b    {h.h    DCD    1746626683
        0x00010ad4:    03fcf003    ....    DCD    66908163
        0x00010ad8:    4380f103    ...C    DCD    1132523779
        0x00010adc:    3380f503    ...3    DCD    864089347
        0x00010ae0:    687b461a    .F{h    DCD    1752909338
        0x00010ae4:    f003681b    .h..    DCD    4026755099
        0x00010ae8:    00db0303    ....    DCD    14353155
        0x00010aec:    40992118    .!.@    DCD    1083777304
        0x00010af0:    681b687b    {h.h    DCD    1746626683
        0x00010af4:    03fcf003    ....    DCD    66908163
        0x00010af8:    4380f103    ...C    DCD    1132523779
        0x00010afc:    3380f503    ...3    DCD    864089347
        0x00010b00:    687b6818    .h{h    DCD    1752918040
        0x00010b04:    f003681b    .h..    DCD    4026755099
        0x00010b08:    00db0303    ....    DCD    14353155
        0x00010b0c:    fa0424ff    .$..    DCD    4194575615
        0x00010b10:    43dbf303    ...C    DCD    1138488067
        0x00010b14:    430b4003    .@.C    DCD    1124810755
        0x00010b18:    4b236013    .`#K    DCD    1260609555
        0x00010b1c:    601a2200    .".`    DCD    1612325376
        0x00010b20:    681b687b    {h.h    DCD    1746626683
        0x00010b24:    0320f003    .. .    DCD    52490243
        0x00010b28:    4b2308da    ..#K    DCD    1260587226
        0x00010b2c:    687a4413    .Dzh    DCD    1752843283
        0x00010b30:    f0026812    .h..    DCD    4026689554
        0x00010b34:    2101021f    ...!    DCD    553714207
        0x00010b38:    f202fa01    ....    DCD    4060281345
        0x00010b3c:    687b601a    .`{h    DCD    1752915994
        0x00010b40:    f003681b    .h..    DCD    4026755099
        0x00010b44:    08da0320     ...    DCD    148505376
        0x00010b48:    44134b1a    .K.D    DCD    1142115098
        0x00010b4c:    687b461a    .F{h    DCD    1752909338
        0x00010b50:    f003685b    [h..    DCD    4026755163
        0x00010b54:    2b000301    ...+    DCD    721421057
        0x00010b58:    687bd010    ..{h    DCD    1752944656
        0x00010b5c:    f003681b    .h..    DCD    4026755099
        0x00010b60:    08d90320     ...    DCD    148439840
        0x00010b64:    440b4b13    .K.D    DCD    1141590803
        0x00010b68:    687b6819    .h{h    DCD    1752918041
        0x00010b6c:    f003681b    .h..    DCD    4026755099
        0x00010b70:    2001031f    ...     DCD    536937247
        0x00010b74:    f303fa00    ....    DCD    4077124096
        0x00010b78:    e010430b    .C..    DCD    3759162123
        0x00010b7c:    681b687b    {h.h    DCD    1746626683
        0x00010b80:    0320f003    .. .    DCD    52490243
        0x00010b84:    4b0b08d9    ...K    DCD    1259014361
        0x00010b88:    6819440b    .D.h    DCD    1746486283
        0x00010b8c:    681b687b    {h.h    DCD    1746626683
        0x00010b90:    031ff003    ....    DCD    52424707
        0x00010b94:    fa002001    . ..    DCD    4194312193
        0x00010b98:    43dbf303    ...C    DCD    1138488067
        0x00010b9c:    6013400b    .@.`    DCD    1611874315
        0x00010ba0:    46bd3708    .7.F    DCD    1186805512
        0x00010ba4:    4770bc90    ..pG    DCD    1198570640
        0x00010ba8:    40010060    `..@    DCD    1073807456
        0x00010bac:    40010040    @..@    DCD    1073807424
        0x00010bb0:    400100a8    ...@    DCD    1073807528
        0x00010bb4:    40010088    ...@    DCD    1073807496
        0x00010bb8:    400100b4    ...@    DCD    1073807540
        0x00010bbc:    b084b580    ....    DCD    2961487232
        0x00010bc0:    6078af00    ..x`    DCD    1618521856
        0x00010bc4:    23006039    9`.#    DCD    587227193
        0x00010bc8:    e00960fb    .`..    DCD    3758711035
        0x00010bcc:    00db68fb    .h..    DCD    14379259
        0x00010bd0:    4413687a    zh.D    DCD    1142122618
        0x00010bd4:    f7ff4618    .F..    DCD    4160701976
        0x00010bd8:    68fbfeb1    ...h    DCD    1761345201
        0x00010bdc:    60fb3301    .3.`    DCD    1627075329
        0x00010be0:    683b68fa    .h;h    DCD    1748723962
        0x00010be4:    d3f1429a    .B..    DCD    3555803802
        0x00010be8:    46bd3710    .7.F    DCD    1186805520
        0x00010bec:    bf00bd80    ....    DCD    3204496768
        0x00010bf0:    b083b480    ....    DCD    2961421440
        0x00010bf4:    6078af00    ..x`    DCD    1618521856
        0x00010bf8:    683b6039    9`;h    DCD    1748721721
        0x00010bfc:    687a00db    ..zh    DCD    1752826075
        0x00010c00:    685b4413    .D[h    DCD    1750811667
        0x00010c04:    0302f003    ....    DCD    50524163
        0x00010c08:    d0432b00    .+C.    DCD    3494062848
        0x00010c0c:    00db683b    ;h..    DCD    14379067
        0x00010c10:    4413687a    zh.D    DCD    1142122618
        0x00010c14:    f003681b    .h..    DCD    4026755099
        0x00010c18:    08da0320     ...    DCD    148505376
        0x00010c1c:    44134b2a    *K.D    DCD    1142115114
        0x00010c20:    683b461a    .F;h    DCD    1748715034
        0x00010c24:    687900db    ..yh    DCD    1752760539
        0x00010c28:    685b440b    .D[h    DCD    1750811659
        0x00010c2c:    0301f003    ....    DCD    50458627
        0x00010c30:    d0162b00    .+..    DCD    3491113728
        0x00010c34:    00db683b    ;h..    DCD    14379067
        0x00010c38:    440b6879    yh.D    DCD    1141598329
        0x00010c3c:    f003681b    .h..    DCD    4026755099
        0x00010c40:    08d90320     ...    DCD    148439840
        0x00010c44:    440b4b20     K.D    DCD    1141590816
        0x00010c48:    683b6819    .h;h    DCD    1748723737
        0x00010c4c:    687800db    ..xh    DCD    1752695003
        0x00010c50:    681b4403    .D.h    DCD    1746617347
        0x00010c54:    031ff003    ....    DCD    52424707
        0x00010c58:    fa002001    . ..    DCD    4194312193
        0x00010c5c:    430bf303    ...C    DCD    1124856579
        0x00010c60:    683be016    ..;h    DCD    1748754454
        0x00010c64:    687900db    ..yh    DCD    1752760539
        0x00010c68:    681b440b    .D.h    DCD    1746617355
        0x00010c6c:    0320f003    .. .    DCD    52490243
        0x00010c70:    4b1508d9    ...K    DCD    1259669721
        0x00010c74:    6819440b    .D.h    DCD    1746486283
        0x00010c78:    00db683b    ;h..    DCD    14379067
        0x00010c7c:    44036878    xh.D    DCD    1141074040
        0x00010c80:    f003681b    .h..    DCD    4026755099
        0x00010c84:    2001031f    ...     DCD    536937247
        0x00010c88:    f303fa00    ....    DCD    4077124096
        0x00010c8c:    400b43db    .C.@    DCD    1074480091
        0x00010c90:    e0146013    .`..    DCD    3759431699
        0x00010c94:    00db683b    ;h..    DCD    14379067
        0x00010c98:    4413687a    zh.D    DCD    1142122618
        0x00010c9c:    f003681b    .h..    DCD    4026755099
        0x00010ca0:    08da0320     ...    DCD    148505376
        0x00010ca4:    44134b09    .K.D    DCD    1142115081
        0x00010ca8:    00d2683a    :h..    DCD    13789242
        0x00010cac:    440a6879    yh.D    DCD    1141532793
        0x00010cb0:    f0026812    .h..    DCD    4026689554
        0x00010cb4:    2101021f    ...!    DCD    553714207
        0x00010cb8:    f202fa01    ....    DCD    4060281345
        0x00010cbc:    370c601a    .`.7    DCD    923557914
        0x00010cc0:    f85d46bd    .F].    DCD    4166862525
        0x00010cc4:    47707b04    .{pG    DCD    1198553860
        0x00010cc8:    40010088    ...@    DCD    1073807496
        0x00010ccc:    400100a8    ...@    DCD    1073807528
        0x00010cd0:    b083b480    ....    DCD    2961421440
        0x00010cd4:    6078af00    ..x`    DCD    1618521856
        0x00010cd8:    683b6039    9`;h    DCD    1748721721
        0x00010cdc:    687a00db    ..zh    DCD    1752826075
        0x00010ce0:    685b4413    .D[h    DCD    1750811667
        0x00010ce4:    0302f003    ....    DCD    50524163
        0x00010ce8:    d0432b00    .+C.    DCD    3494062848
        0x00010cec:    00db683b    ;h..    DCD    14379067
        0x00010cf0:    4413687a    zh.D    DCD    1142122618
        0x00010cf4:    f003681b    .h..    DCD    4026755099
        0x00010cf8:    08da0320     ...    DCD    148505376
        0x00010cfc:    44134b2a    *K.D    DCD    1142115114
        0x00010d00:    683b461a    .F;h    DCD    1748715034
        0x00010d04:    687900db    ..yh    DCD    1752760539
        0x00010d08:    685b440b    .D[h    DCD    1750811659
        0x00010d0c:    0301f003    ....    DCD    50458627
        0x00010d10:    d1162b00    .+..    DCD    3507890944
        0x00010d14:    00db683b    ;h..    DCD    14379067
        0x00010d18:    440b6879    yh.D    DCD    1141598329
        0x00010d1c:    f003681b    .h..    DCD    4026755099
        0x00010d20:    08d90320     ...    DCD    148439840
        0x00010d24:    440b4b20     K.D    DCD    1141590816
        0x00010d28:    683b6819    .h;h    DCD    1748723737
        0x00010d2c:    687800db    ..xh    DCD    1752695003
        0x00010d30:    681b4403    .D.h    DCD    1746617347
        0x00010d34:    031ff003    ....    DCD    52424707
        0x00010d38:    fa002001    . ..    DCD    4194312193
        0x00010d3c:    430bf303    ...C    DCD    1124856579
        0x00010d40:    683be016    ..;h    DCD    1748754454
        0x00010d44:    687900db    ..yh    DCD    1752760539
        0x00010d48:    681b440b    .D.h    DCD    1746617355
        0x00010d4c:    0320f003    .. .    DCD    52490243
        0x00010d50:    4b1508d9    ...K    DCD    1259669721
        0x00010d54:    6819440b    .D.h    DCD    1746486283
        0x00010d58:    00db683b    ;h..    DCD    14379067
        0x00010d5c:    44036878    xh.D    DCD    1141074040
        0x00010d60:    f003681b    .h..    DCD    4026755099
        0x00010d64:    2001031f    ...     DCD    536937247
        0x00010d68:    f303fa00    ....    DCD    4077124096
        0x00010d6c:    400b43db    .C.@    DCD    1074480091
        0x00010d70:    e0146013    .`..    DCD    3759431699
        0x00010d74:    00db683b    ;h..    DCD    14379067
        0x00010d78:    4413687a    zh.D    DCD    1142122618
        0x00010d7c:    f003681b    .h..    DCD    4026755099
        0x00010d80:    08da0320     ...    DCD    148505376
        0x00010d84:    44134b09    .K.D    DCD    1142115081
        0x00010d88:    00d2683a    :h..    DCD    13789242
        0x00010d8c:    440a6879    yh.D    DCD    1141532793
        0x00010d90:    f0026812    .h..    DCD    4026689554
        0x00010d94:    2101021f    ...!    DCD    553714207
        0x00010d98:    f202fa01    ....    DCD    4060281345
        0x00010d9c:    370c601a    .`.7    DCD    923557914
        0x00010da0:    f85d46bd    .F].    DCD    4166862525
        0x00010da4:    47707b04    .{pG    DCD    1198553860
        0x00010da8:    40010088    ...@    DCD    1073807496
        0x00010dac:    400100b4    ...@    DCD    1073807540
        0x00010db0:    b086b580    ....    DCD    2961618304
        0x00010db4:    60f8af00    ...`    DCD    1626910464
        0x00010db8:    607a60b9    .`z`    DCD    1618632889
        0x00010dbc:    617b2300    .#{a    DCD    1635459840
        0x00010dc0:    697be014    ..{i    DCD    1769725972
        0x00010dc4:    fa022201    ."..    DCD    4194443777
        0x00010dc8:    461af303    ...F    DCD    1176171267
        0x00010dcc:    4013687b    {h.@    DCD    1075013755
        0x00010dd0:    d0042b00    .+..    DCD    3489934080
        0x00010dd4:    697968f8    .hyi    DCD    1769564408
        0x00010dd8:    ff0af7ff    ....    DCD    4278908927
        0x00010ddc:    68f8e003    ...h    DCD    1761140739
        0x00010de0:    f7ff6979    yi..    DCD    4160711033
        0x00010de4:    697bff75    u.{i    DCD    1769734005
        0x00010de8:    617b3301    .3{a    DCD    1635463937
        0x00010dec:    68bb697a    zi.h    DCD    1757112698
        0x00010df0:    d3e6429a    .B..    DCD    3555082906
        0x00010df4:    46bd3718    .7.F    DCD    1186805528
        0x00010df8:    bf00bd80    ....    DCD    3204496768
        0x00010dfc:    49134812    .H.I    DCD    1226000402
        0x00010e00:    f8d16001    .`..    DCD    4174471169
        0x00010e04:    4812d000    ...H    DCD    1209192448
        0x00010e08:    f4416801    .hA.    DCD    4097927169
        0x00010e0c:    60010170    p..`    DCD    1610678640
        0x00010e10:    8f4ff3bf    ..O.    DCD    2404381631
        0x00010e14:    8f6ff3bf    ..o.    DCD    2406478783
        0x00010e18:    490f480e    .H.I    DCD    1225738254
        0x00010e1c:    f8504a0f    .JP.    DCD    4166011407
        0x00010e20:    f8413b04    .;A.    DCD    4165024516
        0x00010e24:    42913b04    .;.B    DCD    1116814084
        0x00010e28:    aff9f77f    ....    DCD    2952394623
        0x00010e2c:    490d480c    .H.I    DCD    1225607180
        0x00010e30:    0200f04f    O...    DCD    33615951
        0x00010e34:    bfb84288    .B..    DCD    3216523912
        0x00010e38:    2b04f840    @..+    DCD    721745984
        0x00010e3c:    affaf6ff    ....    DCD    2952460031
        0x00010e40:    fe0cf7fe    ....    DCD    4262262782
        0x00010e44:    0000be00    ....    DCD    48640
        0x00010e48:    e000ed08    ....    DCD    3758157064
        0x00010e4c:    00008000    ....    DCD    32768
        0x00010e50:    e000ed88    ....    DCD    3758157192
        0x00010e54:    00009d5c    \...    DCD    40284
        0x00010e58:    10000200    ....    DCD    268435968
        0x00010e5c:    1000027c    |...    DCD    268436092
        0x00010e60:    1000027c    |...    DCD    268436092
        0x00010e64:    1000038c    ....    DCD    268436364
        0x00010e68:    af00b480    ....    DCD    2936059008
        0x00010e6c:    bf00e7fe    ....    DCD    3204507646
        0x00010e70:    af00b480    ....    DCD    2936059008
        0x00010e74:    bf00e7fe    ....    DCD    3204507646
        0x00010e78:    f000b508    ....    DCD    4026578184
        0x00010e7c:    f000fa33    3...    DCD    4026595891
        0x00010e80:    f000fad7    ....    DCD    4026596055
        0x00010e84:    2001fb67    g..     DCD    537000807
        0x00010e88:    fadef000    ....    DCD    4208914432
        0x00010e8c:    f0002001    . ..    DCD    4026540033
        0x00010e90:    e8bdf887    ....    DCD    3904764039
        0x00010e94:    f0004008    .@..    DCD    4026548232
        0x00010e98:    bf00bae5    ....    DCD    3204496101
        0x00010e9c:    681b4b0d    .K.h    DCD    1746619149
        0x00010ea0:    f013b510    ....    DCD    4027823376
        0x00010ea4:    d1140401    ....    DCD    3507749889
        0x00010ea8:    4a0c4b0b    .K.J    DCD    1242319627
        0x00010eac:    f000601a    .`..    DCD    4026556442
        0x00010eb0:    4b0bfb15    ...K    DCD    1259076373
        0x00010eb4:    4a0c490b    .I.J    DCD    1242319115
        0x00010eb8:    60182073    s .`    DCD    1612193907
        0x00010ebc:    f0206808    .h .    DCD    4028655624
        0x00010ec0:    60080070    p..`    DCD    1611137136
        0x00010ec4:    f4216811    .h!.    DCD    4095830033
        0x00010ec8:    f441417f    .AA.    DCD    4097917311
        0x00010ecc:    60115180    .Q.`    DCD    1611747712
        0x00010ed0:    bd10601c    .`..    DCD    3171967004
        0x00010ed4:    10000384    ....    DCD    268436356
        0x00010ed8:    e0000e80    ....    DCD    3758100096
        0x00010edc:    00150511    ....    DCD    1377553
        0x00010ee0:    40010060    `..@    DCD    1073807456
        0x00010ee4:    40010054    T..@    DCD    1073807444
        0x00010ee8:    40010028    (..@    DCD    1073807400
        0x00010eec:    681b4b0f    .K.h    DCD    1746619151
        0x00010ef0:    f013b510    ....    DCD    4027823376
        0x00010ef4:    d0000401    ....    DCD    3489661953
        0x00010ef8:    f000bd10    ....    DCD    4026580240
        0x00010efc:    4b0cf9a1    ...K    DCD    1259141537
        0x00010f00:    4a0d490c    .I.J    DCD    1242384652
        0x00010f04:    60182073    s .`    DCD    1612193907
        0x00010f08:    f0206808    .h .    DCD    4028655624
        0x00010f0c:    f0400070    p.@.    DCD    4030726256
        0x00010f10:    60080020     ..`    DCD    1611137056
        0x00010f14:    f4216811    .h!.    DCD    4095830033
        0x00010f18:    f441417f    .AA.    DCD    4097917311
        0x00010f1c:    601151c0    .Q.`    DCD    1611747776
        0x00010f20:    e8bd601c    .`..    DCD    3904725020
        0x00010f24:    f0004010    .@..    DCD    4026548240
        0x00010f28:    bf00bb0f    ....    DCD    3204496143
        0x00010f2c:    10000384    ....    DCD    268436356
        0x00010f30:    40010060    `..@    DCD    1073807456
        0x00010f34:    40010054    T..@    DCD    1073807444
        0x00010f38:    40010028    (..@    DCD    1073807400
        0x00010f3c:    b996f000    ....    DCD    3113676800
        0x00010f40:    4604b510    ...F    DCD    1174713616
        0x00010f44:    4806b120     ..H    DCD    1208398112
        0x00010f48:    21354a06    .J5!    DCD    557140486
        0x00010f4c:    f8fef000    ....    DCD    4177457152
        0x00010f50:    49064b05    .K.I    DCD    1225149189
        0x00010f54:    22002047    G ."    DCD    570433607
        0x00010f58:    600c6018    .`.`    DCD    1611423768
        0x00010f5c:    bd10601a    .`..    DCD    3171967002
        0x00010f60:    00009d0c    ....    DCD    40204
        0x00010f64:    00009d24    $...    DCD    40228
        0x00010f68:    40004014    .@.@    DCD    1073758228
        0x00010f6c:    40004018    .@.@    DCD    1073758232
        0x00010f70:    48054b04    .K.H    DCD    1208306436
        0x00010f74:    4b05681a    .h.K    DCD    1258645530
        0x00010f78:    0f01f012    ....    DCD    251785234
        0x00010f7c:    4618bf08    ...F    DCD    1176026888
        0x00010f80:    bf004770    pG..    DCD    3204466544
        0x00010f84:    40004018    .@.@    DCD    1073758232
        0x00010f88:    016e3600    .6n.    DCD    24000000
        0x00010f8c:    02dc6c00    .l..    DCD    48000000
        0x00010f90:    681a4b02    .K.h    DCD    1746553602
        0x00010f94:    0000ea22    "...    DCD    59938
        0x00010f98:    47706018    .`pG    DCD    1198546968
        0x00010f9c:    4000400c    .@.@    DCD    1073758220
        0x00010fa0:    681a4b02    .K.h    DCD    1746553602
        0x00010fa4:    60184310    .C.`    DCD    1612202768
        0x00010fa8:    bf004770    pG..    DCD    3204466544
        0x00010fac:    4000400c    .@.@    DCD    1073758220
        0x00010fb0:    680cb430    0..h    DCD    1745663024
        0x00010fb4:    6849688d    .hIh    DCD    1749641357
        0x00010fb8:    4b2a4a29    )J*K    DCD    1261062697
        0x00010fbc:    bf0c2c00    .,..    DCD    3205245952
        0x00010fc0:    f04f2400    .$O.    DCD    4031718400
        0x00010fc4:    01004400    .D..    DCD    16794624
        0x00010fc8:    4105ea41    A..A    DCD    1090906689
        0x00010fcc:    50814321    !C.P    DCD    1350648609
        0x00010fd0:    f0016819    .h..    DCD    4026624025
        0x00010fd4:    2901010f    ...)    DCD    687931663
        0x00010fd8:    681bd03a    :..h    DCD    1746653242
        0x00010fdc:    030ff003    ....    DCD    51376131
        0x00010fe0:    d0352b02    .+5.    DCD    3493145346
        0x00010fe4:    f3c36813    .h..    DCD    4089669651
        0x00010fe8:    3a010244    D..:    DCD    973144644
        0x00010fec:    f3c32a04    .*..    DCD    4089653764
        0x00010ff0:    d92d4344    DC-.    DCD    3643622212
        0x00010ff4:    2b043b01    .;.+    DCD    721697537
        0x00010ff8:    4b1bd92a    *..K    DCD    1260116266
        0x00010ffc:    f3c3681b    .h..    DCD    4089669659
        0x00011000:    3a010244    D..:    DCD    973144644
        0x00011004:    f3c32a04    .*..    DCD    4089653764
        0x00011008:    d9214344    DC!.    DCD    3642835780
        0x0001100c:    2b043b01    .;.+    DCD    721697537
        0x00011010:    4b16d91e    ...K    DCD    1259788574
        0x00011014:    f3c3681b    .h..    DCD    4089669659
        0x00011018:    3a010244    D..:    DCD    973144644
        0x0001101c:    f3c32a04    .*..    DCD    4089653764
        0x00011020:    d9154344    DC..    DCD    3642049348
        0x00011024:    2b043b01    .;.+    DCD    721697537
        0x00011028:    4b11d912    ...K    DCD    1259460882
        0x0001102c:    f3c3681b    .h..    DCD    4089669659
        0x00011030:    3a010244    D..:    DCD    973144644
        0x00011034:    f3c32a04    .*..    DCD    4089653764
        0x00011038:    d9094344    DC..    DCD    3641262916
        0x0001103c:    2b043b01    .;.+    DCD    721697537
        0x00011040:    4b0cd906    ...K    DCD    1259133190
        0x00011044:    f042681a    .hB.    DCD    4030883866
        0x00011048:    601a0204    ...`    DCD    1612317188
        0x0001104c:    4770bc30    0.pG    DCD    1198570544
        0x00011050:    681a4b08    .K.h    DCD    1746553608
        0x00011054:    0204f022    "...    DCD    33878050
        0x00011058:    bc30601a    .`0.    DCD    3157286938
        0x0001105c:    bf004770    pG..    DCD    3204466544
        0x00011060:    4000800c    ...@    DCD    1073774604
        0x00011064:    40008100    ...@    DCD    1073774848
        0x00011068:    4000801c    ...@    DCD    1073774620
        0x0001106c:    4000802c    ,..@    DCD    1073774636
        0x00011070:    4000803c    <..@    DCD    1073774652
        0x00011074:    40021020     ..@    DCD    1073877024
        0x00011078:    4b070100    ...K    DCD    1258750208
        0x0001107c:    b41058c2    .X..    DCD    3020970178
        0x00011080:    2408f001    ...$    DCD    604565505
        0x00011084:    0204ea22    "...    DCD    33876514
        0x00011088:    1101f001    ....    DCD    285339649
        0x0001108c:    50c14311    .C.P    DCD    1354842897
        0x00011090:    4b04f85d    ]..K    DCD    1258616925
        0x00011094:    bf004770    pG..    DCD    3204466544
        0x00011098:    4000800c    ...@    DCD    1073774604
        0x0001109c:    4b030100    ...K    DCD    1258488064
        0x000110a0:    f00158c2    .X..    DCD    4026620098
        0x000110a4:    430a2108    .!.C    DCD    1124737288
        0x000110a8:    477050c2    .PpG    DCD    1198543042
        0x000110ac:    4000800c    ...@    DCD    1073774604
        0x000110b0:    0100b4f0    ....    DCD    16823536
        0x000110b4:    59044c1b    .L.Y    DCD    1493453851
        0x000110b8:    3f80f511    ...?    DCD    1065415953
        0x000110bc:    0c24bf08    ..$.    DCD    203734792
        0x000110c0:    74c0f404    ...t    DCD    1958802436
        0x000110c4:    d0162c80    .,..    DCD    3491114112
        0x000110c8:    75fff64f    O..u    DCD    1979709007
        0x000110cc:    42a92400    .$.B    DCD    1118381056
        0x000110d0:    4f154626    &F.O    DCD    1326794278
        0x000110d4:    c054f8df    ..T.    DCD    3226794207
        0x000110d8:    f511d019    ....    DCD    4111585305
        0x000110dc:    d01b3f80    .?..    DCD    3491446656
        0x000110e0:    b2910c33    3...    DCD    2995850291
        0x000110e4:    430c041b    ...C    DCD    1124860955
        0x000110e8:    4212ea43    C..B    DCD    1108535875
        0x000110ec:    f84051c4    .Q@.    DCD    4164964804
        0x000110f0:    bcf0200c    . ..    DCD    3169853452
        0x000110f4:    f64f4770    pGO.    DCD    4132390768
        0x000110f8:    42a975ff    .u.B    DCD    1118402047
        0x000110fc:    4402ea4f    O..D    DCD    1141041743
        0x00011100:    4f094616    .F.O    DCD    1326007830
        0x00011104:    c024f8df    ..$.    DCD    3223648479
        0x00011108:    0202ebc3    ....    DCD    33745859
        0x0001110c:    b292d1e5    ....    DCD    2995966437
        0x00011110:    51c44314    .C.Q    DCD    1371816724
        0x00011114:    4770bcf0    ..pG    DCD    1198570736
        0x00011118:    4314b292    ...C    DCD    1125429906
        0x0001111c:    400cf840    @..@    DCD    1074591808
        0x00011120:    4770bcf0    ..pG    DCD    1198570736
        0x00011124:    4000800c    ...@    DCD    1073774604
        0x00011128:    40008004    ...@    DCD    1073774596
        0x0001112c:    40008008    ...@    DCD    1073774600
        0x00011130:    681a4b02    .K.h    DCD    1746553602
        0x00011134:    60184310    .C.`    DCD    1612202768
        0x00011138:    bf004770    pG..    DCD    3204466544
        0x0001113c:    40008200    ...@    DCD    1073775104
        0x00011140:    60184b01    .K.`    DCD    1612204801
        0x00011144:    bf004770    pG..    DCD    3204466544
        0x00011148:    40008208    ...@    DCD    1073775112
        0x0001114c:    bf00e7fe    ....    DCD    3204507646
        0x00011150:    4b02b508    ...K    DCD    1258468616
        0x00011154:    47986b5b    [k.G    DCD    1201171291
        0x00011158:    bf00bd08    ....    DCD    3204496648
        0x0001115c:    1000022c    ,...    DCD    268436012
        0x00011160:    d80b280f    .(..    DCD    3624609807
        0x00011164:    d0122805    .(..    DCD    3490850821
        0x00011168:    d0162806    .(..    DCD    3491112966
        0x0001116c:    d1042804    .(..    DCD    3506710532
        0x00011170:    681a4b0d    .K.h    DCD    1746553613
        0x00011174:    3280f442    B..2    DCD    847311938
        0x00011178:    4770601a    .`pG    DCD    1198546970
        0x0001117c:    f0003810    .8..    DCD    4026546192
        0x00011180:    2201001f    ..."    DCD    570490911
        0x00011184:    fa024b09    .K..    DCD    4194454281
        0x00011188:    6018f000    ...`    DCD    1612247040
        0x0001118c:    4b064770    pG.K    DCD    1258702704
        0x00011190:    f442681a    .hB.    DCD    4097992730
        0x00011194:    601a3200    .2.`    DCD    1612329472
        0x00011198:    4b034770    pG.K    DCD    1258506096
        0x0001119c:    f442681a    .hB.    DCD    4097992730
        0x000111a0:    601a2280    .".`    DCD    1612325504
        0x000111a4:    bf004770    pG..    DCD    3204466544
        0x000111a8:    e000ed24    $...    DCD    3758157092
        0x000111ac:    e000e100    ....    DCD    3758153984
        0x000111b0:    8010f3ef    ....    DCD    2148594671
        0x000111b4:    4770b662    b.pG    DCD    1198569058
        0x000111b8:    8010f3ef    ....    DCD    2148594671
        0x000111bc:    4770b672    r.pG    DCD    1198569074
        0x000111c0:    8810f380    ....    DCD    2282812288
        0x000111c4:    bf004770    pG..    DCD    3204466544
        0x000111c8:    4604b510    ...F    DCD    1174713616
        0x000111cc:    fed0f7ff    ....    DCD    4275107839
        0x000111d0:    fba34b04    .K..    DCD    4221782788
        0x000111d4:    0c802000    . ..    DCD    209723392
        0x000111d8:    f000fb04    ....    DCD    4026596100
        0x000111dc:    4010e8bd    ...@    DCD    1074849981
        0x000111e0:    bfb6f7ff    ....    DCD    3216439295
        0x000111e4:    165e9f81    ..^.    DCD    375299969
        0x000111e8:    681b4b0d    .K.h    DCD    1746619149
        0x000111ec:    b43007da    ..0.    DCD    3023046618
        0x000111f0:    4a0cd414    ...J    DCD    1242354708
        0x000111f4:    f0436813    .hC.    DCD    4030949395
        0x000111f8:    60137380    .s.`    DCD    1611887488
        0x000111fc:    01db6813    .h..    DCD    31156243
        0x00011200:    4809d5fc    ...H    DCD    1208604156
        0x00011204:    4c0a4d09    .M.L    DCD    1275743497
        0x00011208:    4b0b490a    .I.K    DCD    1259030794
        0x0001120c:    4a0b6005    .`.J    DCD    1242259461
        0x00011210:    f04f250f    .%O.    DCD    4031718671
        0x00011214:    602530ff    .0%`    DCD    1613050111
        0x00011218:    601a6008    .`.`    DCD    1612341256
        0x0001121c:    4770bc30    0.pG    DCD    1198570544
        0x00011220:    10000384    ....    DCD    268436356
        0x00011224:    e000edfc    ....    DCD    3758157308
        0x00011228:    e0000fb0    ....    DCD    3758100400
        0x0001122c:    c5acce55    U...    DCD    3316436565
        0x00011230:    e0000e40    @...    DCD    3758100032
        0x00011234:    e0000e00    ....    DCD    3758099968
        0x00011238:    e0000e80    ....    DCD    3758100096
        0x0001123c:    00150511    ....    DCD    1377553
        0x00011240:    4a08b508    ...J    DCD    1242084616
        0x00011244:    021b6813    .h..    DCD    35350547
        0x00011248:    f7ffd4fc    ....    DCD    4160738556
        0x0001124c:    4b06fe91    ...K    DCD    1258749585
        0x00011250:    2000fba3    ...     DCD    536935331
        0x00011254:    23320c80    ..2#    DCD    590482560
        0x00011258:    f000fb03    ....    DCD    4026596099
        0x0001125c:    4008e8bd    ...@    DCD    1074325693
        0x00011260:    bf76f7ff    ..v.    DCD    3212244991
        0x00011264:    e0000e80    ....    DCD    3758100096
        0x00011268:    165e9f81    ..^.    DCD    375299969
        0x0001126c:    b4307803    .x0.    DCD    3023075331
        0x00011270:    4602b193    ...F    DCD    1174581651
        0x00011274:    f8122300    .#..    DCD    4161938176
        0x00011278:    33011f01    ...3    DCD    855711489
        0x0001127c:    d1fa2900    .)..    DCD    3522832640
        0x00011280:    4260f04f    O.`B    DCD    1113649231
        0x00011284:    461418c5    ...F    DCD    1175722181
        0x00011288:    1b01f810    ....    DCD    453113872
        0x0001128c:    2b006813    .h.+    DCD    721446931
        0x00011290:    42a8d0fc    ...B    DCD    1118359804
        0x00011294:    d1f77021    !p..    DCD    3522654241
        0x00011298:    4770bc30    0.pG    DCD    1198570544
        0x0001129c:    490e4b0d    .K.I    DCD    1225673485
        0x000112a0:    4a0e681b    .h.J    DCD    1242458139
        0x000112a4:    60c16809    .h.`    DCD    1623287817
        0x000112a8:    6841b470    p.Ah    DCD    1749136496
        0x000112ac:    4c0c6815    .h.L    DCD    1275881493
        0x000112b0:    43296942    Bi)C    DCD    1126787394
        0x000112b4:    68246041    A`$h    DCD    1747214401
        0x000112b8:    0601f003    ....    DCD    100790275
        0x000112bc:    0140f3c3    ..@.    DCD    21033923
        0x000112c0:    f3c34322    "C..    DCD    4089660194
        0x000112c4:    70060380    ...p    DCD    1879442304
        0x000112c8:    74037201    .r.t    DCD    1946382849
        0x000112cc:    bc706142    Bap.    DCD    3161481538
        0x000112d0:    bf004770    pG..    DCD    3204466544
        0x000112d4:    400201cc    ...@    DCD    1073873356
        0x000112d8:    400201c4    ...@    DCD    1073873348
        0x000112dc:    400201c0    ...@    DCD    1073873344
        0x000112e0:    400201c8    ...@    DCD    1073873352
        0x000112e4:    681a4b21    !K.h    DCD    1746553633
        0x000112e8:    b4f00792    ....    DCD    3035629458
        0x000112ec:    681bd502    ...h    DCD    1746654466
        0x000112f0:    d43507db    ..5.    DCD    3560245211
        0x000112f4:    681b4b1e    .K.h    DCD    1746619166
        0x000112f8:    03f0f003    ....    DCD    66121731
        0x000112fc:    d0312b10    .+1.    DCD    3492883216
        0x00011300:    4a1a4b1c    .K.J    DCD    1243237148
        0x00011304:    f0416819    .hA.    DCD    4030818329
        0x00011308:    60190102    ...`    DCD    1612251394
        0x0001130c:    f0416819    .hA.    DCD    4030818329
        0x00011310:    60190101    ...`    DCD    1612251393
        0x00011314:    f0036813    .h..    DCD    4026755091
        0x00011318:    2b030303    ...+    DCD    721617667
        0x0001131c:    4b14d1fa    ...K    DCD    1259655674
        0x00011320:    f003681b    .h..    DCD    4026755099
        0x00011324:    2b1003f0    ...+    DCD    722469872
        0x00011328:    4b13d11a    ...K    DCD    1259589914
        0x0001132c:    4a144913    .I.J    DCD    1242843411
        0x00011330:    4814681f    .h.H    DCD    1209296927
        0x00011334:    680b681e    .h.h    DCD    1745578014
        0x00011338:    68056814    .h.h    DCD    1745184788
        0x0001133c:    737ff423    #..s    DCD    1937765411
        0x00011340:    0709f3c7    ....    DCD    118092743
        0x00011344:    4609f3c6    ...F    DCD    1175057350
        0x00011348:    0303f023    #...    DCD    50589731
        0x0001134c:    347cf424    $.|4    DCD    880604196
        0x00011350:    ea44433b    ;CD.    DCD    3930342203
        0x00011354:    f0253406    .4%.    DCD    4028969990
        0x00011358:    60050501    ...`    DCD    1610941697
        0x0001135c:    6014600b    .`.`    DCD    1611948043
        0x00011360:    4770bcf0    ..pG    DCD    1198570736
        0x00011364:    22c14b07    .K."    DCD    583092999
        0x00011368:    e7c9601a    .`..    DCD    3888734234
        0x0001136c:    40021004    ...@    DCD    1073876996
        0x00011370:    4002000c    ...@    DCD    1073872908
        0x00011374:    40021000    ...@    DCD    1073876992
        0x00011378:    50023000    .0.P    DCD    1342320640
        0x0001137c:    40020080    ...@    DCD    1073873024
        0x00011380:    40020088    ...@    DCD    1073873032
        0x00011384:    40020060    `..@    DCD    1073872992
        0x00011388:    681a4b23    #K.h    DCD    1746553635
        0x0001138c:    b4700791    ..p.    DCD    3027240849
        0x00011390:    681bd402    ...h    DCD    1746654210
        0x00011394:    d51207da    ....    DCD    3574728666
        0x00011398:    681b4b20     K.h    DCD    1746619168
        0x0001139c:    03f0f003    ....    DCD    66121731
        0x000113a0:    d00e2b10    .+..    DCD    3490589456
        0x000113a4:    4a1c4b1e    .K.J    DCD    1243368222
        0x000113a8:    f0216819    .h!.    DCD    4028721177
        0x000113ac:    60190102    ...`    DCD    1612251394
        0x000113b0:    f0216819    .h!.    DCD    4028721177
        0x000113b4:    60190101    ...`    DCD    1612251393
        0x000113b8:    079b6813    .h..    DCD    127625235
        0x000113bc:    bc70d1fc    ..p.    DCD    3161510396
        0x000113c0:    4b184770    pG.K    DCD    1259882352
        0x000113c4:    48194a18    .J.H    DCD    1209616920
        0x000113c8:    681d4913    .I.h    DCD    1746749715
        0x000113cc:    6816681c    .h.h    DCD    1746298908
        0x000113d0:    680b6800    .h.h    DCD    1745577984
        0x000113d4:    d50d079b    ....    DCD    3574400923
        0x000113d8:    737ff426    &..s    DCD    1937765414
        0x000113dc:    6c04f851    Q..l    DCD    1812265041
        0x000113e0:    0509f3c5    ....    DCD    84538309
        0x000113e4:    0303f023    #...    DCD    50589731
        0x000113e8:    f026432b    +C&.    DCD    4029039403
        0x000113ec:    f8410502    ..A.    DCD    4165010690
        0x000113f0:    60135c04    .\.`    DCD    1611881476
        0x000113f4:    681b4b08    .K.h    DCD    1746619144
        0x000113f8:    d5d307da    ....    DCD    3587377114
        0x000113fc:    4a0b4b08    .K.J    DCD    1242254088
        0x00011400:    f420681d    .h .    DCD    4095764509
        0x00011404:    f3c4307c    |0..    DCD    4089720956
        0x00011408:    ea404109    .A@.    DCD    3930079497
        0x0001140c:    f0253101    .1%.    DCD    4028969217
        0x00011410:    60180001    ...`    DCD    1612185601
        0x00011414:    e7c56011    .`..    DCD    3888472081
        0x00011418:    40021004    ...@    DCD    1073876996
        0x0001141c:    4002000c    ...@    DCD    1073872908
        0x00011420:    40021000    ...@    DCD    1073876992
        0x00011424:    50023004    .0.P    DCD    1342320644
        0x00011428:    40020080    ...@    DCD    1073873024
        0x0001142c:    40020088    ...@    DCD    1073873032
        0x00011430:    681a4b04    .K.h    DCD    1746553604
        0x00011434:    0206f042    B...    DCD    34009154
        0x00011438:    681a601a    .`.h    DCD    1746559002
        0x0001143c:    0204f022    "...    DCD    33878050
        0x00011440:    4770601a    .`pG    DCD    1198546970
        0x00011444:    40021018    ...@    DCD    1073877016
        0x00011448:    681a4b05    .K.h    DCD    1746553605
        0x0001144c:    f022b918    ..".    DCD    4028807448
        0x00011450:    601a0280    ...`    DCD    1612317312
        0x00011454:    f0424770    pGB.    DCD    4030875504
        0x00011458:    601a0280    ...`    DCD    1612317312
        0x0001145c:    bf004770    pG..    DCD    3204466544
        0x00011460:    4000400c    .@.@    DCD    1073758220
        0x00011464:    681a4b02    .K.h    DCD    1746553602
        0x00011468:    0210f042    B...    DCD    34664514
        0x0001146c:    4770601a    .`pG    DCD    1198546970
        0x00011470:    40004050    P@.@    DCD    1073758288
        0x00011474:    4604b530    0..F    DCD    1174713648
        0x00011478:    f7ffb083    ....    DCD    4160729219
        0x0001147c:    b11cfe9d    ....    DCD    2971467421
        0x00011480:    681b4b13    .K.h    DCD    1746619155
        0x00011484:    d50a07db    ....    DCD    3574204379
        0x00011488:    681a4b12    .K.h    DCD    1746553618
        0x0001148c:    0204f022    "...    DCD    33878050
        0x00011490:    bf30601a    .`0.    DCD    3207618586
        0x00011494:    e8bdb003    ....    DCD    3904745475
        0x00011498:    f7ff4030    0@..    DCD    4160700464
        0x0001149c:    4a0dbe91    ...J    DCD    1242414737
        0x000114a0:    68114b0d    .K.h    DCD    1745963789
        0x000114a4:    0104f041    A...    DCD    17100865
        0x000114a8:    681c6011    .`.h    DCD    1746690065
        0x000114ac:    9001681b    .h..    DCD    2416011291
        0x000114b0:    0501f003    ....    DCD    84013059
        0x000114b4:    ff68f7ff    ..h.    DCD    4285069311
        0x000114b8:    f014bf30    0...    DCD    4027891504
        0x000114bc:    98010f02    ....    DCD    2550206210
        0x000114c0:    2d00d101    ...-    DCD    755028225
        0x000114c4:    9001d0e6    ....    DCD    2416038118
        0x000114c8:    ff0cf7ff    ....    DCD    4279039999
        0x000114cc:    e7e19801    ....    DCD    3890321409
        0x000114d0:    40020250    P..@    DCD    1073873488
        0x000114d4:    e000ed10    ....    DCD    3758157072
        0x000114d8:    40021000    ...@    DCD    1073876992
        0x000114dc:    4912b538    8..I    DCD    1225962808
        0x000114e0:    20004b12    .K.     DCD    536890130
        0x000114e4:    60082201    .".`    DCD    1611145729
        0x000114e8:    f7ff601a    .`..    DCD    4160708634
        0x000114ec:    4b10fd41    A..K    DCD    1259404609
        0x000114f0:    d0154298    .B..    DCD    3491054232
        0x000114f4:    42984b0f    .K.B    DCD    1117276943
        0x000114f8:    480fd00e    ...H    DCD    1208995854
        0x000114fc:    49104b0f    .K.I    DCD    1225804559
        0x00011500:    24002502    .%.$    DCD    603989250
        0x00011504:    2201f240    @.."    DCD    570552896
        0x00011508:    600c6005    .`.`    DCD    1611423749
        0x0001150c:    601a2032    2 .`    DCD    1612324914
        0x00011510:    4038e8bd    ..8@    DCD    1077471421
        0x00011514:    be58f7ff    ..X.    DCD    3193501695
        0x00011518:    22024b0a    .K."    DCD    570575626
        0x0001151c:    e7ec601a    .`..    DCD    3891027994
        0x00011520:    22054b08    .K."    DCD    570772232
        0x00011524:    e7e8601a    .`..    DCD    3890765850
        0x00011528:    e0040304    ....    DCD    3758359300
        0x0001152c:    e0040004    ....    DCD    3758358532
        0x00011530:    02dc6c00    .l..    DCD    48000000
        0x00011534:    016e3600    .6n.    DCD    24000000
        0x00011538:    e00400f0    ....    DCD    3758358768
        0x0001153c:    40020250    P..@    DCD    1073873488
        0x00011540:    e0040f00    ....    DCD    3758362368
        0x00011544:    e0040010    ....    DCD    3758358544
        0x00011548:    22004b01    .K."    DCD    570444545
        0x0001154c:    4770601a    .`pG    DCD    1198546970
        0x00011550:    40020250    P..@    DCD    1073873488
        0x00011554:    22374b01    .K7"    DCD    574049025
        0x00011558:    4770601a    .`pG    DCD    1198546970
        0x0001155c:    4000c008    ...@    DCD    1073790984
        0x00011560:    0241ea4f    O.A.    DCD    37874255
        0x00011564:    43e0f1b2    ...C    DCD    1138815410
        0x00011568:    f5b3bf24    $...    DCD    4122197796
        0x0001156c:    f1dc1c00    ....    DCD    4057734144
        0x00011570:    d90d5cfe    .\..    DCD    3641531646
        0x00011574:    4c00f001    ...L    DCD    1275129857
        0x00011578:    02c0ea4f    O...    DCD    46197327
        0x0001157c:    7050ea4c    L.Pp    DCD    1884351052
        0x00011580:    4f00f1b2    ...O    DCD    1325461938
        0x00011584:    0083eb40    @...    DCD    8645440
        0x00011588:    f020bf08    .. .    DCD    4028677896
        0x0001158c:    47700001    ..pG    DCD    1198522369
        0x00011590:    4f80f011    ...O    DCD    1333850129
        0x00011594:    f113d121    !...    DCD    4044607777
        0x00011598:    bfbc7238    8r..    DCD    3216798264
        0x0001159c:    4000f001    ...@    DCD    1073803265
        0x000115a0:    f4414770    pGA.    DCD    4097918832
        0x000115a4:    ea4f1180    ..O.    DCD    3931050368
        0x000115a8:    f1c25252    RR..    DCD    4056044114
        0x000115ac:    f1c20218    ....    DCD    4056023576
        0x000115b0:    fa100c20     ...    DCD    4195355680
        0x000115b4:    fa20f30c    .. .    DCD    4196463372
        0x000115b8:    bf18f002    ....    DCD    3206082562
        0x000115bc:    0001f040    @...    DCD    127040
        0x000115c0:    23c1ea4f    O..#    DCD    599910991
        0x000115c4:    23d3ea4f    O..#    DCD    601090639
        0x000115c8:    fc0cfa03    ....    DCD    4228708867
        0x000115cc:    000cea40    @...    DCD    846400
        0x000115d0:    f302fa23    #...    DCD    4077058595
        0x000115d4:    0343ea4f    O.C.    DCD    54782543
        0x000115d8:    ea7fe7cc    ....    DCD    3934250956
        0x000115dc:    d1075362    bS..    DCD    3506918242
        0x000115e0:    3301ea50    P..3    DCD    855763536
        0x000115e4:    f04fbf1e    ..O.    DCD    4031758110
        0x000115e8:    f44040fe    .@@.    DCD    4097851646
        0x000115ec:    47700040    @.pG    DCD    1198522432
        0x000115f0:    4000f001    ...@    DCD    1073803265
        0x000115f4:    40fef040    @..@    DCD    1090449472
        0x000115f8:    0000f440    @...    DCD    62528
        0x000115fc:    bf004770    pG..    DCD    3204466544
        0x00011600:    616e6942    Bina    DCD    1634625858
        0x00011604:    43207972    ry C    DCD    1126201714
        0x00011608:    746e756f    ount    DCD    1953396079
        0x0001160c:    45207265    er E    DCD    1159754341
        0x00011610:    706d6178    xamp    DCD    1886216568
        0x00011614:    000a656c    le..    DCD    681324
        0x00011618:    20202020            DCD    538976288
        0x0001161c:    20202020            DCD    538976288
        0x00011620:    20202020            DCD    538976288
        0x00011624:    20202020            DCD    538976288
        0x00011628:    20202020            DCD    538976288
        0x0001162c:    20202020            DCD    538976288
        0x00011630:    20202020            DCD    538976288
        0x00011634:    00002020      ..    DCD    8224
        0x00011638:    4a325b1b    .[2J    DCD    1244814107
        0x0001163c:    00485b1b    .[H.    DCD    4741915
        0x00011640:    2e2f2e2e    ../.    DCD    774843950
        0x00011644:    5f6d612f    /am_    DCD    1601003823
        0x00011648:    5f6c6168    hal_    DCD    1600938344
        0x0001164c:    676b6c63    clkg    DCD    1735093347
        0x00011650:    632e6e65    en.c    DCD    1663987301
        0x00011654:    00000000    ....    DCD    0
        0x00011658:    685f6d61    am_h    DCD    1751084385
        0x0001165c:    635f6c61    al_c    DCD    1667198049
        0x00011660:    65676b6c    lkge    DCD    1701276524
        0x00011664:    79735f6e    n_sy    DCD    2037604206
        0x00011668:    6b6c6373    sclk    DCD    1802265459
        0x0001166c:    6c65735f    _sel    DCD    1818587999
        0x00011670:    28746365    ect(    DCD    678716261
        0x00011674:    69203a29    ): i    DCD    1763719721
        0x00011678:    6c61766e    nval    DCD    1818326638
        0x0001167c:    63206469    id c    DCD    1663067241
        0x00011680:    6b636f6c    lock    DCD    1801678700
        0x00011684:    74657320     set    DCD    1952805664
        0x00011688:    676e6974    ting    DCD    1735289204
        0x0001168c:    0000002e    ....    DCD    46
        0x00011690:    00000000    ....    DCD    0
        0x00011694:    00000256    V...    DCD    598
        0x00011698:    00000000    ....    DCD    0
        0x0001169c:    0000002e    ....    DCD    46
        0x000116a0:    00000000    ....    DCD    0
        0x000116a4:    0000002f    /...    DCD    47
        0x000116a8:    00000000    ....    DCD    0
        0x000116ac:    00000030    0...    DCD    48
        0x000116b0:    00000000    ....    DCD    0
        0x000116b4:    00000031    1...    DCD    49
        0x000116b8:    00000000    ....    DCD    0
        0x000116bc:    0800004d    M...    DCD    134217805
        0x000116c0:    08000051    Q...    DCD    134217809
        0x000116c4:    08000055    U...    DCD    134217813
        0x000116c8:    08000059    Y...    DCD    134217817
        0x000116cc:    0800006d    m...    DCD    134217837
        0x000116d0:    08000071    q...    DCD    134217841
        0x000116d4:    0800007d    }...    DCD    134217853
        0x000116d8:    08000081    ....    DCD    134217857
        0x000116dc:    08000089    ....    DCD    134217865
        0x000116e0:    08000091    ....    DCD    134217873
        0x000116e4:    08000099    ....    DCD    134217881
        0x000116e8:    08000075    u...    DCD    134217845
        0x000116ec:    08000079    y...    DCD    134217849
        0x000116f0:    0800009d    ....    DCD    134217885
        0x000116f4:    0800005d    ]...    DCD    134217821
        0x000116f8:    08000061    a...    DCD    134217825
        0x000116fc:    08000065    e...    DCD    134217829
        0x00011700:    08000069    i...    DCD    134217833
        0x00011704:    08000085    ....    DCD    134217861
        0x00011708:    0800008d    ....    DCD    134217869
    g_AM_BSP_GPIO_HANDSHAKE
        0x0001170c:    00001003    ....    DCD    4099
    g_AM_BSP_GPIO_DISABLE
        0x00011710:    00000003    ....    DCD    3
    .constdata
    am_hal_cachectrl_defaults
        0x00011714:    00000308    ....    DCD    776
    .constdata
        0x00011718:    bf006001    .`..    DCD    3204472833
        0x0001171c:    bf006800    .h..    DCD    3204474880
        0x00011720:    bf004770    pG..    DCD    3204466544
    .constdata
    g_AM_HAL_GPIO_DISABLE
        0x00011724:    00000003    ....    DCD    3
    g_ui8Inpen
        0x00011728:    62272323    ##'b    DCD    1646732067
        0x0001172c:    108703a1    ....    DCD    277283745
        0x00011730:    e1005303    .S..    DCD    3774894851
        0x00011734:    55418151    Q.AU    DCD    1430356305
        0x00011738:    4080c405    ...@    DCD    1082180613
        0x0001173c:    4140b101    ..@A    DCD    1094758657
        0x00011740:    31a03114    .1.1    DCD    832581908
        0x00011744:    1180f100    ....    DCD    293662976
        0x00011748:    11c12191    .!..    DCD    297869713
        0x0001174c:    304511e5    ..E0    DCD    809832933
        0x00011750:    31300037    7.01    DCD    825229367
        0x00011754:    40007100    .q.@    DCD    1073770752
        0x00011758:    3130        01      DCW    12592
    g_ui8Bit76Capabilities
        0x0001175a:    0101        ..      DCW    257
        0x0001175c:    01800280    ....    DCD    25166464
        0x00011760:    01018001    ....    DCD    16875521
        0x00011764:    80808080    ....    DCD    2155905152
        0x00011768:    80808080    ....    DCD    2155905152
        0x0001176c:    80088080    ....    DCD    2148040832
        0x00011770:    01808080    ....    DCD    25198720
        0x00011774:    80800180    ....    DCD    2155872640
        0x00011778:    80808080    ....    DCD    2155905152
        0x0001177c:    04028080    ....    DCD    67272832
        0x00011780:    04010180    ....    DCD    67174784
        0x00011784:    80800101    ....    DCD    2155872513
        0x00011788:    01018080    ....    DCD    16875648
    g_ui8nCEpins
        0x0001178c:    02070707    ....    DCD    34014983
        0x00011790:    00080802    ....    DCD    526338
        0x00011794:    01020202    ....    DCD    16908802
        0x00011798:    01010101    ....    DCD    16843009
        0x0001179c:    01010101    ....    DCD    16843009
        0x000117a0:    01010101    ....    DCD    16843009
        0x000117a4:    01010101    ....    DCD    16843009
        0x000117a8:    01010101    ....    DCD    16843009
        0x000117ac:    01010101    ....    DCD    16843009
        0x000117b0:    08010101    ....    DCD    134283521
        0x000117b4:    01010008    ....    DCD    16842760
        0x000117b8:    01010101    ....    DCD    16843009
        0x000117bc:    0101        ..      DCW    257
    g_ui8NCEtable
        0x000117be:    4232        2B      DCW    16946
        0x000117c0:    12021352    R...    DCD    302125906
        0x000117c4:    43336022    "`3C    DCD    1127440418
        0x000117c8:    40302153    S!0@    DCD    1076896083
        0x000117cc:    41312050    P 1A    DCD    1093738576
        0x000117d0:    ffff1151    Q...    DCD    4294906193
        0x000117d4:    ffffffff    ....    DCD    4294967295
        0x000117d8:    4131ffff    ..1A    DCD    1093795839
        0x000117dc:    40306051    Q`0@    DCD    1076912209
        0x000117e0:    43330050    P.3C    DCD    1127415888
        0x000117e4:    42322353    S#2B    DCD    1110582099
        0x000117e8:    10006052    R`..    DCD    268460114
        0x000117ec:    40303020     00@    DCD    1076899872
        0x000117f0:    41316150    Pa1A    DCD    1093755216
        0x000117f4:    12020151    Q...    DCD    302121297
        0x000117f8:    13034222    "B..    DCD    318980642
        0x000117fc:    10006023    #`..    DCD    268460067
        0x00011800:    11015020     P..    DCD    285298720
        0x00011804:    12024121    !A..    DCD    302137633
        0x00011808:    13033222    "2..    DCD    318976546
        0x0001180c:    41316033    3`1A    DCD    1093754931
        0x00011810:    42322151    Q!2B    DCD    1110581585
        0x00011814:    43332252    R"3C    DCD    1127424594
        0x00011818:    10000353    S...    DCD    268436307
        0x0001181c:    11014020     @..    DCD    285294624
        0x00011820:    42325121    !Q2B    DCD    1110593825
        0x00011824:    43330252    R.3C    DCD    1127416402
        0x00011828:    40301353    S.0@    DCD    1076892499
        0x0001182c:    41311050    P.1A    DCD    1093734480
        0x00011830:    42326051    Q`2B    DCD    1110597713
        0x00011834:    43331252    R.3C    DCD    1127420498
        0x00011838:    10000353    S...    DCD    268436307
        0x0001183c:    11014020     @..    DCD    285294624
        0x00011840:    12026121    !a..    DCD    302145825
        0x00011844:    13035222    "R..    DCD    318984738
        0x00011848:    10003323    #3..    DCD    268448547
        0x0001184c:    41313020     01A    DCD    1093742624
        0x00011850:    42326151    Qa2B    DCD    1110597969
        0x00011854:    13030252    R...    DCD    318964306
        0x00011858:    ffff5333    3S..    DCD    4294923059
        0x0001185c:    ffffffff    ....    DCD    4294967295
        0x00011860:    1101ffff    ....    DCD    285343743
        0x00011864:    10006121    !a..    DCD    268460321
        0x00011868:    11015020     P..    DCD    285298720
        0x0001186c:    12026121    !a..    DCD    302145825
        0x00011870:    43335222    "R3C    DCD    1127436834
        0x00011874:    40301353    S.0@    DCD    1076892499
        0x00011878:    11016150    Pa..    DCD    285303120
        0x0001187c:    12023121    !1..    DCD    302133537
        0x00011880:    13033222    "2..    DCD    318976546
        0x00011884:    00004323    #C..    DCD    17187
    .constdata
    g_AM_HAL_GPIO_OUTPUT
        0x00011888:    00000403    ....    DCD    1027
    .constdata
    gAmHalCmdQReg
        0x0001188c:    50004294    .B.P    DCD    1342194324
        0x00011890:    50004298    .B.P    DCD    1342194328
        0x00011894:    500042ac    .B.P    DCD    1342194348
        0x00011898:    500042b0    .B.P    DCD    1342194352
        0x0001189c:    500042a8    .B.P    DCD    1342194344
        0x000118a0:    00008000    ....    DCD    32768
        0x000118a4:    5000429c    .B.P    DCD    1342194332
        0x000118a8:    00000001    ....    DCD    1
        0x000118ac:    00000004    ....    DCD    4
        0x000118b0:    00000002    ....    DCD    2
        0x000118b4:    50005294    .R.P    DCD    1342198420
        0x000118b8:    50005298    .R.P    DCD    1342198424
        0x000118bc:    500052ac    .R.P    DCD    1342198444
        0x000118c0:    500052b0    .R.P    DCD    1342198448
        0x000118c4:    500052a8    .R.P    DCD    1342198440
        0x000118c8:    00008000    ....    DCD    32768
        0x000118cc:    5000529c    .R.P    DCD    1342198428
        0x000118d0:    00000001    ....    DCD    1
        0x000118d4:    00000004    ....    DCD    4
        0x000118d8:    00000002    ....    DCD    2
        0x000118dc:    50006294    .b.P    DCD    1342202516
        0x000118e0:    50006298    .b.P    DCD    1342202520
        0x000118e4:    500062ac    .b.P    DCD    1342202540
        0x000118e8:    500062b0    .b.P    DCD    1342202544
        0x000118ec:    500062a8    .b.P    DCD    1342202536
        0x000118f0:    00008000    ....    DCD    32768
        0x000118f4:    5000629c    .b.P    DCD    1342202524
        0x000118f8:    00000001    ....    DCD    1
        0x000118fc:    00000004    ....    DCD    4
        0x00011900:    00000002    ....    DCD    2
        0x00011904:    50007294    .r.P    DCD    1342206612
        0x00011908:    50007298    .r.P    DCD    1342206616
        0x0001190c:    500072ac    .r.P    DCD    1342206636
        0x00011910:    500072b0    .r.P    DCD    1342206640
        0x00011914:    500072a8    .r.P    DCD    1342206632
        0x00011918:    00008000    ....    DCD    32768
        0x0001191c:    5000729c    .r.P    DCD    1342206620
        0x00011920:    00000001    ....    DCD    1
        0x00011924:    00000004    ....    DCD    4
        0x00011928:    00000002    ....    DCD    2
        0x0001192c:    50008294    ...P    DCD    1342210708
        0x00011930:    50008298    ...P    DCD    1342210712
        0x00011934:    500082ac    ...P    DCD    1342210732
        0x00011938:    500082b0    ...P    DCD    1342210736
        0x0001193c:    500082a8    ...P    DCD    1342210728
        0x00011940:    00008000    ....    DCD    32768
        0x00011944:    5000829c    ...P    DCD    1342210716
        0x00011948:    00000001    ....    DCD    1
        0x0001194c:    00000004    ....    DCD    4
        0x00011950:    00000002    ....    DCD    2
        0x00011954:    50009294    ...P    DCD    1342214804
        0x00011958:    50009298    ...P    DCD    1342214808
        0x0001195c:    500092ac    ...P    DCD    1342214828
        0x00011960:    500092b0    ...P    DCD    1342214832
        0x00011964:    500092a8    ...P    DCD    1342214824
        0x00011968:    00008000    ....    DCD    32768
        0x0001196c:    5000929c    ...P    DCD    1342214812
        0x00011970:    00000001    ....    DCD    1
        0x00011974:    00000004    ....    DCD    4
        0x00011978:    00000002    ....    DCD    2
        0x0001197c:    500142a0    .B.P    DCD    1342259872
        0x00011980:    500142a8    .B.P    DCD    1342259880
        0x00011984:    500142c0    .B.P    DCD    1342259904
        0x00011988:    500142c4    .B.P    DCD    1342259908
        0x0001198c:    500142b8    .B.P    DCD    1342259896
        0x00011990:    00004000    .@..    DCD    16384
        0x00011994:    500142ac    .B.P    DCD    1342259884
        0x00011998:    00000001    ....    DCD    1
        0x0001199c:    00000004    ....    DCD    4
        0x000119a0:    00000008    ....    DCD    8
        0x000119a4:    5000c248    H..P    DCD    1342227016
        0x000119a8:    5000c24c    L..P    DCD    1342227020
        0x000119ac:    5000c260    `..P    DCD    1342227040
        0x000119b0:    5000c264    d..P    DCD    1342227044
        0x000119b4:    5000c25c    \..P    DCD    1342227036
        0x000119b8:    00008000    ....    DCD    32768
        0x000119bc:    5000c250    P..P    DCD    1342227024
        0x000119c0:    00000001    ....    DCD    1
        0x000119c4:    00000004    ....    DCD    4
        0x000119c8:    00000002    ....    DCD    2
    .constdata
    am_hal_pwrctrl_peripheral_control
        0x000119cc:    00000000    ....    DCD    0
        0x000119d0:    00000000    ....    DCD    0
        0x000119d4:    00000000    ....    DCD    0
        0x000119d8:    00000001    ....    DCD    1
        0x000119dc:    00000004    ....    DCD    4
        0x000119e0:    00000004    ....    DCD    4
        0x000119e4:    00000002    ....    DCD    2
        0x000119e8:    00000008    ....    DCD    8
        0x000119ec:    00000008    ....    DCD    8
        0x000119f0:    00000004    ....    DCD    4
        0x000119f4:    00000008    ....    DCD    8
        0x000119f8:    00000008    ....    DCD    8
        0x000119fc:    00000008    ....    DCD    8
        0x00011a00:    00000008    ....    DCD    8
        0x00011a04:    00000008    ....    DCD    8
        0x00011a08:    00000010    ....    DCD    16
        0x00011a0c:    00000010    ....    DCD    16
        0x00011a10:    00000010    ....    DCD    16
        0x00011a14:    00000020     ...    DCD    32
        0x00011a18:    00000010    ....    DCD    16
        0x00011a1c:    00000010    ....    DCD    16
        0x00011a20:    00000040    @...    DCD    64
        0x00011a24:    00000010    ....    DCD    16
        0x00011a28:    00000010    ....    DCD    16
        0x00011a2c:    00000080    ....    DCD    128
        0x00011a30:    00000004    ....    DCD    4
        0x00011a34:    00000004    ....    DCD    4
        0x00011a38:    00000100    ....    DCD    256
        0x00011a3c:    00000004    ....    DCD    4
        0x00011a40:    00000004    ....    DCD    4
        0x00011a44:    00000200    ....    DCD    512
        0x00011a48:    00000020     ...    DCD    32
        0x00011a4c:    00000020     ...    DCD    32
        0x00011a50:    00000400    ....    DCD    1024
        0x00011a54:    00000004    ....    DCD    4
        0x00011a58:    00000004    ....    DCD    4
        0x00011a5c:    00000800    ....    DCD    2048
        0x00011a60:    00000040    @...    DCD    64
        0x00011a64:    00000040    @...    DCD    64
        0x00011a68:    00001000    ....    DCD    4096
        0x00011a6c:    00000080    ....    DCD    128
        0x00011a70:    00000080    ....    DCD    128
        0x00011a74:    00002000    . ..    DCD    8192
        0x00011a78:    00000100    ....    DCD    256
        0x00011a7c:    00000100    ....    DCD    256
    am_hal_pwrctrl_memory_control
        0x00011a80:    00000000    ....    DCD    0
        0x00011a84:    00000000    ....    DCD    0
        0x00011a88:    00000000    ....    DCD    0
        0x00011a8c:    00000000    ....    DCD    0
        0x00011a90:    00000000    ....    DCD    0
        0x00011a94:    00000001    ....    DCD    1
        0x00011a98:    00000001    ....    DCD    1
        0x00011a9c:    00000001    ....    DCD    1
        0x00011aa0:    00001fff    ....    DCD    8191
        0x00011aa4:    00001fff    ....    DCD    8191
        0x00011aa8:    00000003    ....    DCD    3
        0x00011aac:    00000003    ....    DCD    3
        0x00011ab0:    00000003    ....    DCD    3
        0x00011ab4:    00001fff    ....    DCD    8191
        0x00011ab8:    00001fff    ....    DCD    8191
        0x00011abc:    00000007    ....    DCD    7
        0x00011ac0:    00000007    ....    DCD    7
        0x00011ac4:    00000007    ....    DCD    7
        0x00011ac8:    00001fff    ....    DCD    8191
        0x00011acc:    00001fff    ....    DCD    8191
        0x00011ad0:    0000000f    ....    DCD    15
        0x00011ad4:    0000000f    ....    DCD    15
        0x00011ad8:    0000000f    ....    DCD    15
        0x00011adc:    00001fff    ....    DCD    8191
        0x00011ae0:    00001fff    ....    DCD    8191
        0x00011ae4:    0000001f    ....    DCD    31
        0x00011ae8:    0000001f    ....    DCD    31
        0x00011aec:    0000001f    ....    DCD    31
        0x00011af0:    00001fff    ....    DCD    8191
        0x00011af4:    00001fff    ....    DCD    8191
        0x00011af8:    0000003f    ?...    DCD    63
        0x00011afc:    0000003f    ?...    DCD    63
        0x00011b00:    0000003f    ?...    DCD    63
        0x00011b04:    00001fff    ....    DCD    8191
        0x00011b08:    00001fff    ....    DCD    8191
        0x00011b0c:    0000007f    ....    DCD    127
        0x00011b10:    0000007f    ....    DCD    127
        0x00011b14:    0000007f    ....    DCD    127
        0x00011b18:    00001fff    ....    DCD    8191
        0x00011b1c:    00001fff    ....    DCD    8191
        0x00011b20:    000000ff    ....    DCD    255
        0x00011b24:    000000ff    ....    DCD    255
        0x00011b28:    000000ff    ....    DCD    255
        0x00011b2c:    00001fff    ....    DCD    8191
        0x00011b30:    00001fff    ....    DCD    8191
        0x00011b34:    000001ff    ....    DCD    511
        0x00011b38:    000001ff    ....    DCD    511
        0x00011b3c:    000001ff    ....    DCD    511
        0x00011b40:    00001fff    ....    DCD    8191
        0x00011b44:    00001fff    ....    DCD    8191
        0x00011b48:    000003ff    ....    DCD    1023
        0x00011b4c:    000003ff    ....    DCD    1023
        0x00011b50:    000003ff    ....    DCD    1023
        0x00011b54:    00001fff    ....    DCD    8191
        0x00011b58:    00001fff    ....    DCD    8191
        0x00011b5c:    000007ff    ....    DCD    2047
        0x00011b60:    000007ff    ....    DCD    2047
        0x00011b64:    000007ff    ....    DCD    2047
        0x00011b68:    00001fff    ....    DCD    8191
        0x00011b6c:    00001fff    ....    DCD    8191
        0x00011b70:    00000fff    ....    DCD    4095
        0x00011b74:    00000fff    ....    DCD    4095
        0x00011b78:    00000fff    ....    DCD    4095
        0x00011b7c:    00001fff    ....    DCD    8191
        0x00011b80:    00001fff    ....    DCD    8191
        0x00011b84:    00001fff    ....    DCD    8191
        0x00011b88:    00001fff    ....    DCD    8191
        0x00011b8c:    00001fff    ....    DCD    8191
        0x00011b90:    00001fff    ....    DCD    8191
        0x00011b94:    00001fff    ....    DCD    8191
        0x00011b98:    00002000    . ..    DCD    8192
        0x00011b9c:    00002000    . ..    DCD    8192
        0x00011ba0:    00002000    . ..    DCD    8192
        0x00011ba4:    00006000    .`..    DCD    24576
        0x00011ba8:    00006000    .`..    DCD    24576
        0x00011bac:    00006000    .`..    DCD    24576
        0x00011bb0:    00006000    .`..    DCD    24576
        0x00011bb4:    00006000    .`..    DCD    24576
        0x00011bb8:    00006000    .`..    DCD    24576
        0x00011bbc:    00006000    .`..    DCD    24576
        0x00011bc0:    c0000000    ....    DCD    3221225472
        0x00011bc4:    00000000    ....    DCD    0
        0x00011bc8:    c0000000    ....    DCD    3221225472
        0x00011bcc:    c0000000    ....    DCD    3221225472
        0x00011bd0:    00000000    ....    DCD    0
        0x00011bd4:    c0007fff    ....    DCD    3221258239
        0x00011bd8:    00007fff    ....    DCD    32767
        0x00011bdc:    c0007fff    ....    DCD    3221258239
        0x00011be0:    c0007fff    ....    DCD    3221258239
        0x00011be4:    00007fff    ....    DCD    32767
    .constdata
    g_AM_BSP_GPIO_IOM0_CS
        0x00011be8:    00000701    ....    DCD    1793
    .constdata
    g_AM_BSP_GPIO_IOM0_MISO
        0x00011bec:    00000001    ....    DCD    1
    .constdata
    g_AM_BSP_GPIO_IOM0_MOSI
        0x00011bf0:    00000301    ....    DCD    769
    .constdata
    g_AM_BSP_GPIO_IOM0_SCK
        0x00011bf4:    00000301    ....    DCD    769
    .constdata
    g_AM_BSP_GPIO_IOM0_SCL
        0x00011bf8:    00000b40    @...    DCD    2880
    .constdata
    g_AM_BSP_GPIO_IOM0_SDA
        0x00011bfc:    00000b40    @...    DCD    2880
    .constdata
    g_AM_BSP_GPIO_IOM1_CS
        0x00011c00:    00110701    ....    DCD    1115905
    .constdata
    g_AM_BSP_GPIO_IOM1_MISO
        0x00011c04:    00010001    ....    DCD    65537
    .constdata
    g_AM_BSP_GPIO_IOM1_MOSI
        0x00011c08:    00010301    ....    DCD    66305
    .constdata
    g_AM_BSP_GPIO_IOM1_SCK
        0x00011c0c:    00010301    ....    DCD    66305
    .constdata
    g_AM_BSP_GPIO_IOM1_SCL
        0x00011c10:    00010b40    @...    DCD    68416
    .constdata
    g_AM_BSP_GPIO_IOM1_SDA
        0x00011c14:    00010b40    @...    DCD    68416
    .constdata
    g_AM_BSP_GPIO_IOM2_CS
        0x00011c18:    001a0701    ....    DCD    1705729
    .constdata
    g_AM_BSP_GPIO_IOM2_MISO
        0x00011c1c:    00020005    ....    DCD    131077
    .constdata
    g_AM_BSP_GPIO_IOM2_MOSI
        0x00011c20:    00020305    ....    DCD    131845
    .constdata
    g_AM_BSP_GPIO_IOM2_SCK
        0x00011c24:    00020305    ....    DCD    131845
    .constdata
    g_AM_BSP_GPIO_IOM2_SCL
        0x00011c28:    00020b44    D...    DCD    133956
    .constdata
    g_AM_BSP_GPIO_IOM2_SDA
        0x00011c2c:    00020b44    D...    DCD    133956
    .constdata
    g_AM_BSP_GPIO_IOM3_CS
        0x00011c30:    00030701    ....    DCD    198401
    .constdata
    g_AM_BSP_GPIO_IOM3_MISO
        0x00011c34:    00030005    ....    DCD    196613
    .constdata
    g_AM_BSP_GPIO_IOM3_MOSI
        0x00011c38:    00030305    ....    DCD    197381
    .constdata
    g_AM_BSP_GPIO_IOM3_SCK
        0x00011c3c:    00030305    ....    DCD    197381
    .constdata
    g_AM_BSP_GPIO_IOM3_SCL
        0x00011c40:    00030b44    D...    DCD    199492
    .constdata
    g_AM_BSP_GPIO_IOM3_SDA
        0x00011c44:    00030b44    D...    DCD    199492
    .constdata
    g_AM_BSP_GPIO_IOM4_CS
        0x00011c48:    000c0701    ....    DCD    788225
    .constdata
    g_AM_BSP_GPIO_IOM4_MISO
        0x00011c4c:    00040005    ....    DCD    262149
    .constdata
    g_AM_BSP_GPIO_IOM4_MOSI
        0x00011c50:    00040305    ....    DCD    262917
    .constdata
    g_AM_BSP_GPIO_IOM4_SCK
        0x00011c54:    00040305    ....    DCD    262917
    .constdata
    g_AM_BSP_GPIO_IOM4_SCL
        0x00011c58:    00040b44    D...    DCD    265028
    .constdata
    g_AM_BSP_GPIO_IOM4_SDA
        0x00011c5c:    00040b44    D...    DCD    265028
    .constdata
    g_AM_BSP_GPIO_IOM5_CS
        0x00011c60:    00050701    ....    DCD    329473
    .constdata
    g_AM_BSP_GPIO_IOM5_MISO
        0x00011c64:    00050005    ....    DCD    327685
    .constdata
    g_AM_BSP_GPIO_IOM5_MOSI
        0x00011c68:    00050305    ....    DCD    328453
    .constdata
    g_AM_BSP_GPIO_IOM5_SCK
        0x00011c6c:    00050305    ....    DCD    328453
    .constdata
    g_AM_BSP_GPIO_IOM5_SCL
        0x00011c70:    00050b44    D...    DCD    330564
    .constdata
    g_AM_BSP_GPIO_IOM5_SDA
        0x00011c74:    00050b44    D...    DCD    330564
    .constdata
    g_AM_BSP_GPIO_ITM_SWO
        0x00011c78:    00000002    ....    DCD    2
    Region$$Table$$Base
        0x00011c7c:    00011c9c    ....    DCD    72860
        0x00011c80:    10000000    ....    DCD    268435456
        0x00011c84:    000000a0    ....    DCD    160
        0x00011c88:    0000c174    t...    DCD    49524
        0x00011c8c:    00011d3c    <...    DCD    73020
        0x00011c90:    100000a0    ....    DCD    268435616
        0x00011c94:    00006020     `..    DCD    24608
        0x00011c98:    0000c190    ....    DCD    49552
    Region$$Table$$Limit

** Section #2 'SRAM' (SHT_PROGBITS) [SHF_ALLOC + SHF_WRITE]
    Size   : 160 bytes (alignment 4)
    Address: 0x10000000

    0x10000000:   00 00 00 00 00 00 00 00 00 00 00 00 00 00 00 00    ................
    0x10000010:   00 09 3d 00 00 00 00 00 90 01 00 10 00 04 00 00    ..=.............
    0x10000020:   01 00 00 00 40 42 0f 00 00 00 00 00 00 00 00 00    ....@B..........
    0x10000030:   00 00 00 00 00 00 00 00 00 00 00 00 00 00 00 00    ................
    0x10000040:   00 00 00 00 00 00 00 00 00 00 00 00 0a 00 00 00    ................
    0x10000050:   03 00 00 00 1e 00 00 00 03 00 00 00 0f 00 00 00    ................
    0x10000060:   03 00 00 00 0e 00 00 00 03 00 00 00 11 00 00 00    ................
    0x10000070:   03 00 00 00 00 c2 01 00 60 00 00 00 00 00 00 00    ........`.......
    0x10000080:   00 00 00 00 00 00 00 00 12 00 00 00 00 47 00 10    .............G..
    0x10000090:   00 04 00 00 00 4b 00 10 00 04 00 00 00 00 00 00    .....K..........


** Section #3 'SRAM' (SHT_NOBITS) [SHF_ALLOC + SHF_WRITE]
    Size   : 24608 bytes (alignment 8)
    Address: 0x100000a0


** Section #4 '.debug_abbrev' (SHT_PROGBITS)
    Size   : 1476 bytes


** Section #5 '.debug_frame' (SHT_PROGBITS)
    Size   : 4140 bytes


** Section #6 '.debug_info' (SHT_PROGBITS)
    Size   : 278300 bytes


** Section #7 '.debug_line' (SHT_PROGBITS)
    Size   : 6480 bytes


** Section #8 '.debug_loc' (SHT_PROGBITS)
    Size   : 2984 bytes


** Section #9 '.debug_macinfo' (SHT_PROGBITS)
    Size   : 221648 bytes


** Section #10 '.debug_pubnames' (SHT_PROGBITS)
    Size   : 1107 bytes


** Section #11 '.symtab' (SHT_SYMTAB)
    Size   : 11936 bytes (alignment 4)
    String table #12 '.strtab'
    Last local symbol no. 497

    Symbol table .symtab (745 symbols, 497 local)

      #  Symbol Name                Value      Bind  Sec  Type  Vis  Size
    ========================================================================

      1  $d                         0x0000c000   Lc    1   --   De 
      2  $t                         0x0000c100   Lc    1   --   De 
      3  $d                         0x0000c132   Lc    1   --   De 
      4  $t                         0x0000c138   Lc    1   --   De 
      5  $d                         0x0000c16c   Lc    1   --   De 
      6  $t                         0x0000c174   Lc    1   --   De 
      7  $d                         0x0000c1fa   Lc    1   --   De 
      8  $t                         0x0000c208   Lc    1   --   De 
      9  $d                         0x0000c384   Lc    1   --   De 
     10  $t                         0x0000c388   Lc    1   --   De 
     11  $d                         0x0000c390   Lc    1   --   De 
     12  $t                         0x0000c394   Lc    1   --   De 
     13  $d                         0x0000c3c6   Lc    1   --   De 
     14  $t                         0x0000c3dc   Lc    1   --   De 
     15  $d                         0x0000c546   Lc    1   --   De 
     16  $t                         0x0000c54c   Lc    1   --   De 
     17  $d                         0x0000c562   Lc    1   --   De 
     18  $t                         0x0000c578   Lc    1   --   De 
     19  $d                         0x0000c712   Lc    1   --   De 
     20  $t                         0x0000c7a4   Lc    1   --   De 
     21  $d                         0x0000c7d0   Lc    1   --   De 
     22  $t                         0x0000c7e0   Lc    1   --   De 
     23  $d                         0x0000c81a   Lc    1   --   De 
     24  $t                         0x0000c824   Lc    1   --   De 
     25  $d                         0x0000c886   Lc    1   --   De 
     26  $t                         0x0000c88c   Lc    1   --   De 
     27  $d                         0x0000c898   Lc    1   --   De 
     28  $t                         0x0000c8aa   Lc    1   --   De 
     29  $d                         0x0000cb52   Lc    1   --   De 
     30  $t                         0x0000cb5c   Lc    1   --   De 
     31  $d                         0x0000cb6a   Lc    1   --   De 
     32  $t                         0x0000cb70   Lc    1   --   De 
     33  $d                         0x0000cb88   Lc    1   --   De 
     34  $t                         0x0000cb92   Lc    1   --   De 
     35  $d                         0x0000cc58   Lc    1   --   De 
     36  $t                         0x0000cc68   Lc    1   --   De 
     37  $d                         0x0000cc94   Lc    1   --   De 
     38  $t                         0x0000cc9c   Lc    1   --   De 
     39  $d                         0x0000cd64   Lc    1   --   De 
     40  $t                         0x0000cd68   Lc    1   --   De 
     41  $d                         0x0000cda4   Lc    1   --   De 
     42  $t                         0x0000cda8   Lc    1   --   De 
     43  $d                         0x0000cde4   Lc    1   --   De 
     44  $t                         0x0000cde8   Lc    1   --   De 
     45  $d                         0x0000ce58   Lc    1   --   De 
     46  $t                         0x0000ce5c   Lc    1   --   De 
     47  $d                         0x0000cefa   Lc    1   --   De 
     48  $t                         0x0000cf00   Lc    1   --   De 
     49  $d                         0x0000cfe2   Lc    1   --   De 
     50  $t                         0x0000cff0   Lc    1   --   De 
     51  $d                         0x0000d038   Lc    1   --   De 
     52  $t                         0x0000d03c   Lc    1   --   De 
     53  $d                         0x0000d06e   Lc    1   --   De 
     54  $t                         0x0000d074   Lc    1   --   De 
     55  $d                         0x0000d0f8   Lc    1   --   De 
     56  $t                         0x0000d0fc   Lc    1   --   De 
     57  $d                         0x0000d11a   Lc    1   --   De 
     58  $t                         0x0000d120   Lc    1   --   De 
     59  $d                         0x0000d176   Lc    1   --   De 
     60  $t                         0x0000d17c   Lc    1   --   De 
     61  $d                         0x0000d180   Lc    1   --   De 
     62  $t                         0x0000d184   Lc    1   --   De 
     63  $d                         0x0000d1a8   Lc    1   --   De 
     64  $t                         0x0000d1ac   Lc    1   --   De 
     65  $d                         0x0000d1da   Lc    1   --   De 
     66  $t                         0x0000d1e0   Lc    1   --   De 
     67  $d                         0x0000d21a   Lc    1   --   De 
     68  $t                         0x0000d220   Lc    1   --   De 
     69  $d                         0x0000d25a   Lc    1   --   De 
     70  $t                         0x0000d260   Lc    1   --   De 
     71  $d                         0x0000d27a   Lc    1   --   De 
     72  $t                         0x0000d280   Lc    1   --   De 
     73  $d                         0x0000d2f4   Lc    1   --   De 
     74  $t                         0x0000d2f8   Lc    1   --   De 
     75  $d                         0x0000d348   Lc    1   --   De 
     76  $t                         0x0000d34c   Lc    1   --   De 
     77  $d                         0x0000d596   Lc    1   --   De 
     78  $t                         0x0000d5cc   Lc    1   --   De 
     79  $d                         0x0000d60a   Lc    1   --   De 
     80  $t                         0x0000d610   Lc    1   --   De 
     81  $d                         0x0000d7e0   Lc    1   --   De 
     82  $t                         0x0000d808   Lc    1   --   De 
     83  $d                         0x0000da54   Lc    1   --   De 
     84  $t                         0x0000da80   Lc    1   --   De 
     85  $d                         0x0000db00   Lc    1   --   De 
     86  $t                         0x0000db04   Lc    1   --   De 
     87  $d                         0x0000dbf8   Lc    1   --   De 
     88  $t                         0x0000dc00   Lc    1   --   De 
     89  $d                         0x0000dc4c   Lc    1   --   De 
     90  $t                         0x0000dc54   Lc    1   --   De 
     91  $d                         0x0000dc82   Lc    1   --   De 
     92  $t                         0x0000dc88   Lc    1   --   De 
     93  $d                         0x0000dcc6   Lc    1   --   De 
     94  $t                         0x0000dccc   Lc    1   --   De 
     95  $d                         0x0000dfc2   Lc    1   --   De 
     96  $t                         0x0000dfd0   Lc    1   --   De 
     97  $d                         0x0000e014   Lc    1   --   De 
     98  $t                         0x0000e018   Lc    1   --   De 
     99  $d                         0x0000e160   Lc    1   --   De 
    100  $t                         0x0000e168   Lc    1   --   De 
    101  $d                         0x0000e43c   Lc    1   --   De 
    102  $t                         0x0000e444   Lc    1   --   De 
    103  $d                         0x0000e470   Lc    1   --   De 
    104  $t                         0x0000e48c   Lc    1   --   De 
    105  $d                         0x0000e5a8   Lc    1   --   De 
    106  $t                         0x0000e5c0   Lc    1   --   De 
    107  $d                         0x0000e606   Lc    1   --   De 
    108  $t                         0x0000e610   Lc    1   --   De 
    109  $d                         0x0000e658   Lc    1   --   De 
    110  $t                         0x0000e660   Lc    1   --   De 
    111  $d                         0x0000e6c6   Lc    1   --   De 
    112  $t                         0x0000e6e0   Lc    1   --   De 
    113  $d                         0x0000e75a   Lc    1   --   De 
    114  $t                         0x0000e770   Lc    1   --   De 
    115  $d                         0x0000e79a   Lc    1   --   De 
    116  $t                         0x0000e7a0   Lc    1   --   De 
    117  $d                         0x0000e7de   Lc    1   --   De 
    118  $t                         0x0000e7e4   Lc    1   --   De 
    119  $d                         0x0000e816   Lc    1   --   De 
    120  $t                         0x0000e820   Lc    1   --   De 
    121  $d                         0x0000e826   Lc    1   --   De 
    122  $t                         0x0000e82c   Lc    1   --   De 
    123  $d                         0x0000e836   Lc    1   --   De 
    124  $t                         0x0000e84c   Lc    1   --   De 
    125  $d                         0x0000ebf0   Lc    1   --   De 
    126  $t                         0x0000ec00   Lc    1   --   De 
    127  $d                         0x0000ee82   Lc    1   --   De 
    128  $t                         0x0000ee88   Lc    1   --   De 
    129  $d                         0x0000ee90   Lc    1   --   De 
    130  $t                         0x0000ee94   Lc    1   --   De 
    131  $d                         0x0000efba   Lc    1   --   De 
    132  $t                         0x0000efc0   Lc    1   --   De 
    133  $d                         0x0000f054   Lc    1   --   De 
    134  $t                         0x0000f060   Lc    1   --   De 
    135  $d                         0x0000f0f8   Lc    1   --   De 
    136  $t                         0x0000f10c   Lc    1   --   De 
    137  $d                         0x0000f164   Lc    1   --   De 
    138  $t                         0x0000f170   Lc    1   --   De 
    139  $d                         0x0000f1cc   Lc    1   --   De 
    140  $t                         0x0000f1d8   Lc    1   --   De 
    141  $d                         0x0000f416   Lc    1   --   De 
    142  $t                         0x0000f4fc   Lc    1   --   De 
    143  $d                         0x0000f5b8   Lc    1   --   De 
    144  $t                         0x0000f5bc   Lc    1   --   De 
    145  $d                         0x0000f74a   Lc    1   --   De 
    146  $t                         0x0000f750   Lc    1   --   De 
    147  $d                         0x0000f7b8   Lc    1   --   De 
    148  $t                         0x0000f820   Lc    1   --   De 
    149  $d                         0x0000f870   Lc    1   --   De 
    150  $t                         0x0000f874   Lc    1   --   De 
    151  $d                         0x0000f8f2   Lc    1   --   De 
    152  $t                         0x0000f8f6   Lc    1   --   De 
    153  $d.realdata                0x0000f934   Lc    1   --   De 
    154  $d.realdata                0x10000000   Lc    2   --   De 
    155  ..\src\ios_lram_host.c     0x00000000   Lc  Abs  File  De 
    156  ../src/ios_lram_host.c     0x00000000   Lc  Abs  File  De 
    157  i.__NVIC_EnableIRQ         0x0000c396   Lc    1  Sect  De 
    158  __NVIC_EnableIRQ           0x0000c397   Lc    1  Code  De   0x1a
    159  i.am_gpio_isr              0x0000c824   Lc    1  Sect  De 
    160  i.am_iomaster0_isr         0x0000e770   Lc    1  Sect  De 
    161  i.hostint_handler          0x0000ee88   Lc    1  Sect  De 
    162  hostint_handler            0x0000ee89   Lc    1  Code  De   0x8
    163  i.iom_clean_up             0x0000efc0   Lc    1  Sect  De 
    164  iom_clean_up               0x0000efc1   Lc    1  Code  De   0x94
    165  i.iom_set_up               0x0000f060   Lc    1  Sect  De 
    166  iom_set_up                 0x0000f061   Lc    1  Code  De   0x98
    167  i.iom_slave_read           0x0000f10c   Lc    1  Sect  De 
    168  i.iom_slave_write          0x0000f170   Lc    1  Sect  De 
    169  i.main                     0x0000f1d8   Lc    1  Sect  De 
    170  i.pfnIOM_LRAM_Callback     0x0000f5b0   Lc    1  Sect  De 
    171  pfnIOM_LRAM_Callback       0x0000f5b1   Lc    1  Code  De   0x8
    172  i.verify_result            0x0000f750   Lc    1  Sect  De 
    173  verify_result              0x0000f751   Lc    1  Code  De   0x68
    174  .bss                       0x100000a0   Lc    3  Sect  De   0x10f0
    175  .constdata                 0x0000f934   Lc    1  Sect  De   0x1de0
    176  .data                      0x10000000   Lc    2  Sect  De   0x34
    177  g_sIOMSpiConfig            0x1000000c   Lc    2  Data  De   0x14
    178  g_sIOMI2cConfig            0x10000020   Lc    2  Data  De   0x14
    179  ..\..\..\..\..\utils\am_util_delay.c
                                    0x00000000   Lc  Abs  File  De 
    180  ../../../../../utils/am_util_delay.c
                                    0x00000000   Lc  Abs  File  De 
    181  i.am_util_delay_ms         0x0000e7a0   Lc    1  Sect  De 
    182  i.am_util_delay_us         0x0000e7c0   Lc    1  Sect  De 
    183  ../../../../../utils/am_util_stdio.c
                                    0x00000000   Lc  Abs  File  De 
    184  i.am_util_stdio_printf     0x0000e7e4   Lc    1  Sect  De 
    185  i.am_util_stdio_printf_init
                                    0x0000e820   Lc    1  Sect  De 
    186  i.am_util_stdio_terminal_clear
                                    0x0000e82c   Lc    1  Sect  De 
    187  i.am_util_stdio_vsprintf   0x0000e84c   Lc    1  Sect  De 
    188  i.decstr_to_int            0x0000ec00   Lc    1  Sect  De 
    189  decstr_to_int              0x0000ec01   Lc    1  Code  De   0x42
    190  i.divu64_10                0x0000ec42   Lc    1  Sect  De 
    191  divu64_10                  0x0000ec43   Lc    1  Code  De   0xcc
    192  i.ftoa                     0x0000ed10   Lc    1  Sect  De 
    193  ftoa                       0x0000ed11   Lc    1  Code  De   0x172
    194  i.ndigits_in_hex           0x0000f4fc   Lc    1  Sect  De 
    195  ndigits_in_hex             0x0000f4fd   Lc    1  Code  De   0x34
    196  i.ndigits_in_i64           0x0000f530   Lc    1  Sect  De 
    197  ndigits_in_i64             0x0000f531   Lc    1  Code  De   0x24
    198  i.ndigits_in_u64           0x0000f554   Lc    1  Sect  De 
    199  ndigits_in_u64             0x0000f555   Lc    1  Code  De   0x3a
    200  i.padbuffer                0x0000f58e   Lc    1  Sect  De 
    201  padbuffer                  0x0000f58f   Lc    1  Code  De   0x22
    202  i.simple_strlen            0x0000f5bc   Lc    1  Sect  De 
    203  simple_strlen              0x0000f5bd   Lc    1  Code  De   0x18
    204  i.uint64_to_hexstr         0x0000f5d4   Lc    1  Sect  De 
    205  uint64_to_hexstr           0x0000f5d5   Lc    1  Code  De   0x8a
    206  i.uint64_to_str            0x0000f65e   Lc    1  Sect  De 
    207  uint64_to_str              0x0000f65f   Lc    1  Code  De   0x70
    208  .bss                       0x10001190   Lc    3  Sect  De   0x100
    209  g_prfbuf                   0x10001190   Lc    3  Data  De   0x100
    210  .data                      0x10000034   Lc    2  Sect  De   0x5
    211  g_bTxtXlate                0x10000038   Lc    2  Data  De   0x1
    212  ../keil/startup_keil.s     0x00000000   Lc  Abs  File  De 
    213  STACK                      0x100050c0   Lc    3  Sect  De   0x1000
    214  StackMem                   0x100050c0   Lc    3  Data  De 
    215  HEAP                       0x100050c0   Lc    3  Sect  De 
    216  HeapMem                    0x100050c0   Lc    3  Data  De 
    217  RESET                      0x0000c000   Lc    1  Sect  De   0x138
    218  $v0                        0x0000c100   Lc    1   --   De 
    219  .text                      0x0000c1f0   Lc    1  Sect  De   0x18
    220  $v0                        0x0000c1f0   Lc    1   --   De 
    221  ..\am_hal_global.c         0x00000000   Lc  Abs  File  De 
    222  ../am_hal_global.c         0x00000000   Lc  Abs  File  De 
    223  .data                      0x1000003c   Lc    2  Sect  De   0x4
    224  ..\am_hal_cachectrl.c      0x00000000   Lc  Abs  File  De 
    225  ../am_hal_cachectrl.c      0x00000000   Lc  Abs  File  De 
    226  i.am_hal_cachectrl_config  0x0000c840   Lc    1  Sect  De 
    227  i.am_hal_cachectrl_control 0x0000c88c   Lc    1  Sect  De 
    228  i.am_hal_cachectrl_enable  0x0000cb5c   Lc    1  Sect  De 
    229  .constdata                 0x00011714   Lc    1  Sect  De   0x3
    230  ..\am_hal_clkgen.c         0x00000000   Lc  Abs  File  De 
    231  ../am_hal_clkgen.c         0x00000000   Lc  Abs  File  De 
    232  i.am_hal_clkgen_control    0x0000cb70   Lc    1  Sect  De 
    233  i.am_hal_clkgen_status_get 0x0000cc68   Lc    1  Sect  De 
    234  ..\am_hal_flash.c          0x00000000   Lc  Abs  File  De 
    235  ../am_hal_flash.c          0x00000000   Lc  Abs  File  De 
    236  i.am_hal_flash_delay       0x0000d0fc   Lc    1  Sect  De 
    237  i.am_hal_flash_delay_status_check
                                    0x0000d120   Lc    1  Sect  De 
    238  i.am_hal_flash_load_ui32   0x0000d17c   Lc    1  Sect  De 
    239  i.am_hal_flash_store_ui32  0x0000d184   Lc    1  Sect  De 
    240  .constdata                 0x00011718   Lc    1  Sect  De   0xc
    241  ..\am_hal_gpio.c           0x00000000   Lc  Abs  File  De 
    242  ../am_hal_gpio.c           0x00000000   Lc  Abs  File  De 
    243  i.am_hal_gpio_interrupt_clear
                                    0x0000d1ac   Lc    1  Sect  De 
    244  i.am_hal_gpio_interrupt_disable
                                    0x0000d1e0   Lc    1  Sect  De 
    245  i.am_hal_gpio_interrupt_enable
                                    0x0000d220   Lc    1  Sect  De 
    246  i.am_hal_gpio_interrupt_register
                                    0x0000d260   Lc    1  Sect  De 
    247  i.am_hal_gpio_interrupt_service
                                    0x0000d280   Lc    1  Sect  De 
    248  i.am_hal_gpio_interrupt_status_get
                                    0x0000d2f8   Lc    1  Sect  De 
    249  i.am_hal_gpio_pinconfig    0x0000d34c   Lc    1  Sect  De 
    250  i.am_hal_gpio_state_write  0x0000d5cc   Lc    1  Sect  De 
    251  .bss                       0x10001290   Lc    3  Sect  De   0xc8
    252  gpio_ppfnHandlers          0x10001290   Lc    3  Data  De   0xc8
    253  .constdata                 0x00011724   Lc    1  Sect  De   0x162
    254  g_ui8Inpen                 0x00011728   Lc    1  Data  De   0x32
    255  g_ui8Bit76Capabilities     0x0001175a   Lc    1  Data  De   0x32
    256  g_ui8nCEpins               0x0001178c   Lc    1  Data  De   0x32
    257  g_ui8NCEtable              0x000117be   Lc    1  Data  De   0xc8
    258  .constdata                 0x00011888   Lc    1  Sect  De   0x4
    259  ..\am_hal_interrupt.c      0x00000000   Lc  Abs  File  De 
    260  .emb_text                  0x0000c1d8   Lc    1  Sect  De   0x16
    261  $v0                        0x0000c1d8   Lc    1   --   De 
    262  ../am_hal_interrupt.c      0x00000000   Lc  Abs  File  De 
    263  ..\am_hal_iom.c            0x00000000   Lc  Abs  File  De 
    264  ../am_hal_iom.c            0x00000000   Lc  Abs  File  De 
    265  i.am_hal_iom_CQAddTransaction
                                    0x0000d64c   Lc    1  Sect  De 
    266  i.am_hal_iom_configure     0x0000d808   Lc    1  Sect  De 
    267  i.am_hal_iom_disable       0x0000da80   Lc    1  Sect  De 
    268  i.am_hal_iom_enable        0x0000db04   Lc    1  Sect  De 
    269  i.am_hal_iom_initialize    0x0000dc00   Lc    1  Sect  De 
    270  i.am_hal_iom_interrupt_clear
                                    0x0000dc54   Lc    1  Sect  De 
    271  i.am_hal_iom_interrupt_enable
                                    0x0000dc88   Lc    1  Sect  De 
    272  i.am_hal_iom_interrupt_service
                                    0x0000dccc   Lc    1  Sect  De 
    273  i.am_hal_iom_interrupt_status_get
                                    0x0000dfd0   Lc    1  Sect  De 
    274  i.am_hal_iom_nonblocking_transfer
                                    0x0000e018   Lc    1  Sect  De 
    275  i.am_hal_iom_power_ctrl    0x0000e168   Lc    1  Sect  De 
    276  i.internal_iom_reset_on_error
                                    0x0000ee94   Lc    1  Sect  De 
    277  internal_iom_reset_on_error
                                    0x0000ee95   Lc    1  Code  De   0x126
    278  i.validate_transaction     0x0000f6d0   Lc    1  Sect  De 
    279  .bss                       0x10001358   Lc    3  Sect  De   0x33a8
    280  ..\am_hal_sysctrl.c        0x00000000   Lc  Abs  File  De 
    281  ../am_hal_sysctrl.c        0x00000000   Lc  Abs  File  De 
    282  i.am_hal_sysctrl_sleep     0x0000e674   Lc    1  Sect  De 
    283  .data                      0x10000040   Lc    2  Sect  De   0x4
    284  g_ui32BusWriteFlush        0x10000040   Lc    2  Data  De   0x4
    285  ..\am_bsp.c                0x00000000   Lc  Abs  File  De 
    286  ../am_bsp.c                0x00000000   Lc  Abs  File  De 
    287  i.am_bsp_iom_pins_disable  0x0000c3b0   Lc    1  Sect  De 
    288  i.am_bsp_iom_pins_enable   0x0000c54c   Lc    1  Sect  De 
    289  i.am_bsp_itm_printf_enable 0x0000c7a4   Lc    1  Sect  De 
    290  i.am_bsp_low_power_init    0x0000c7e0   Lc    1  Sect  De 
    291  .bss                       0x10004700   Lc    3  Sect  De   0x400
    292  pui8UartTxBuffer           0x10004700   Lc    3  Data  De   0x400
    293  .bss                       0x10004b00   Lc    3  Sect  De   0x400
    294  pui8UartRxBuffer           0x10004b00   Lc    3  Data  De   0x400
    295  .data                      0x10000044   Lc    2  Sect  De   0x58
    296  g_ui32PrintInterface       0x10000044   Lc    2  Data  De   0x4
    297  g_sCOMUART                 0x10000048   Lc    2  Data  De   0x4
    298  g_sBspUartBufferedConfig   0x10000074   Lc    2  Data  De   0x28
    299  ..\am_hal_cmdq.c           0x00000000   Lc  Abs  File  De 
    300  ../am_hal_cmdq.c           0x00000000   Lc  Abs  File  De 
    301  i.am_hal_cmdq_alloc_block  0x0000cc9c   Lc    1  Sect  De 
    302  i.am_hal_cmdq_disable      0x0000cd68   Lc    1  Sect  De 
    303  i.am_hal_cmdq_enable       0x0000cda8   Lc    1  Sect  De 
    304  i.am_hal_cmdq_error_resume 0x0000cde8   Lc    1  Sect  De 
    305  i.am_hal_cmdq_get_status   0x0000ce5c   Lc    1  Sect  De 
    306  i.am_hal_cmdq_init         0x0000cf00   Lc    1  Sect  De 
    307  i.am_hal_cmdq_post_block   0x0000cff0   Lc    1  Sect  De 
    308  i.am_hal_cmdq_release_block
                                    0x0000d03c   Lc    1  Sect  De 
    309  i.am_hal_cmdq_term         0x0000d074   Lc    1  Sect  De 
    310  .bss                       0x10004f00   Lc    3  Sect  De   0x160
    311  gAmHalCmdq                 0x10004f00   Lc    3  Data  De   0x160
    312  .constdata                 0x0001188c   Lc    1  Sect  De   0x140
    313  gAmHalCmdQReg              0x0001188c   Lc    1  Data  De   0x140
    314  ..\am_hal_itm.c            0x00000000   Lc  Abs  File  De 
    315  ../am_hal_itm.c            0x00000000   Lc  Abs  File  De 
    316  i.am_hal_itm_enable        0x0000e444   Lc    1  Sect  De 
    317  i.am_hal_itm_print         0x0000e48c   Lc    1  Sect  De 
    318  ..\am_hal_pwrctrl.c        0x00000000   Lc  Abs  File  De 
    319  ../am_hal_pwrctrl.c        0x00000000   Lc  Abs  File  De 
    320  i.am_hal_pwrctrl_low_power_init
                                    0x0000e4bc   Lc    1  Sect  De 
    321  i.am_hal_pwrctrl_periph_disable
                                    0x0000e5c0   Lc    1  Sect  De 
    322  i.am_hal_pwrctrl_periph_enable
                                    0x0000e610   Lc    1  Sect  De 
    323  .constdata                 0x000119cc   Lc    1  Sect  De   0x21c
    324  ..\am_hal_reset.c          0x00000000   Lc  Abs  File  De 
    325  ../am_hal_reset.c          0x00000000   Lc  Abs  File  De 
    326  .data                      0x1000009c   Lc    2  Sect  De   0x4
    327  ..\am_hal_rtc.c            0x00000000   Lc  Abs  File  De 
    328  ../am_hal_rtc.c            0x00000000   Lc  Abs  File  De 
    329  i.am_hal_rtc_osc_disable   0x0000e660   Lc    1  Sect  De 
    330  ..\am_hal_tpiu.c           0x00000000   Lc  Abs  File  De 
    331  ../am_hal_tpiu.c           0x00000000   Lc  Abs  File  De 
    332  i.am_hal_tpiu_enable       0x0000e6e0   Lc    1  Sect  De 
    333  ..\am_hal_uart.c           0x00000000   Lc  Abs  File  De 
    334  ../am_hal_uart.c           0x00000000   Lc  Abs  File  De 
    335  ..\am_bsp_pins.c           0x00000000   Lc  Abs  File  De 
    336  ../am_bsp_pins.c           0x00000000   Lc  Abs  File  De 
    337  .constdata                 0x00011be8   Lc    1  Sect  De   0x4
    338  .constdata                 0x00011bec   Lc    1  Sect  De   0x4
    339  .constdata                 0x00011bf0   Lc    1  Sect  De   0x4
    340  .constdata                 0x00011bf4   Lc    1  Sect  De   0x4
    341  .constdata                 0x00011bf8   Lc    1  Sect  De   0x4
    342  .constdata                 0x00011bfc   Lc    1  Sect  De   0x4
    343  .constdata                 0x00011c00   Lc    1  Sect  De   0x4
    344  .constdata                 0x00011c04   Lc    1  Sect  De   0x4
    345  .constdata                 0x00011c08   Lc    1  Sect  De   0x4
    346  .constdata                 0x00011c0c   Lc    1  Sect  De   0x4
    347  .constdata                 0x00011c10   Lc    1  Sect  De   0x4
    348  .constdata                 0x00011c14   Lc    1  Sect  De   0x4
    349  .constdata                 0x00011c18   Lc    1  Sect  De   0x4
    350  .constdata                 0x00011c1c   Lc    1  Sect  De   0x4
    351  .constdata                 0x00011c20   Lc    1  Sect  De   0x4
    352  .constdata                 0x00011c24   Lc    1  Sect  De   0x4
    353  .constdata                 0x00011c28   Lc    1  Sect  De   0x4
    354  .constdata                 0x00011c2c   Lc    1  Sect  De   0x4
    355  .constdata                 0x00011c30   Lc    1  Sect  De   0x4
    356  .constdata                 0x00011c34   Lc    1  Sect  De   0x4
    357  .constdata                 0x00011c38   Lc    1  Sect  De   0x4
    358  .constdata                 0x00011c3c   Lc    1  Sect  De   0x4
    359  .constdata                 0x00011c40   Lc    1  Sect  De   0x4
    360  .constdata                 0x00011c44   Lc    1  Sect  De   0x4
    361  .constdata                 0x00011c48   Lc    1  Sect  De   0x4
    362  .constdata                 0x00011c4c   Lc    1  Sect  De   0x4
    363  .constdata                 0x00011c50   Lc    1  Sect  De   0x4
    364  .constdata                 0x00011c54   Lc    1  Sect  De   0x4
    365  .constdata                 0x00011c58   Lc    1  Sect  De   0x4
    366  .constdata                 0x00011c5c   Lc    1  Sect  De   0x4
    367  .constdata                 0x00011c60   Lc    1  Sect  De   0x4
    368  .constdata                 0x00011c64   Lc    1  Sect  De   0x4
    369  .constdata                 0x00011c68   Lc    1  Sect  De   0x4
    370  .constdata                 0x00011c6c   Lc    1  Sect  De   0x4
    371  .constdata                 0x00011c70   Lc    1  Sect  De   0x4
    372  .constdata                 0x00011c74   Lc    1  Sect  De   0x4
    373  .constdata                 0x00011c78   Lc    1  Sect  De   0x4
    374  ..\am_hal_queue.c          0x00000000   Lc  Abs  File  De 
    375  ../am_hal_queue.c          0x00000000   Lc  Abs  File  De 
    376  dc.s                       0x00000000   Lc  Abs  File  De 
    377  ../clib/longlong.s         0x00000000   Lc  Abs  File  De 
    378  ../clib/longlong.s         0x00000000   Lc  Abs  File  De 
    379  .text                      0x0000c208   Lc    1  Sect  De   0x26
    380  ../clib/memcpset.s         0x00000000   Lc  Abs  File  De 
    381  .text                      0x0000c22e   Lc    1  Sect  De   0x8a
    382  ../clib/heapaux.c          0x00000000   Lc  Abs  File  De 
    383  .text                      0x0000c2b8   Lc    1  Sect  De 
    384  ../clib/angel/startup.s    0x00000000   Lc  Abs  File  De 
    385  !!!main                    0x0000c138   Lc    1  Sect  De   0x8
    386  ../fplib/d2f.s             0x00000000   Lc  Abs  File  De 
    387  x$fpl$d2f                  0x0000f820   Lc    1  Sect  De   0x62
    388  $v0                        0x0000f820   Lc    1   --   De 
    389  ../clib/angel/kernel.s     0x00000000   Lc  Abs  File  De 
    390  .ARM.Collect$$rtentry$$00000000
                                    0x0000c1b8   Lc    1  Sect  De 
    391  ../clib/memcpset.s         0x00000000   Lc  Abs  File  De 
    392  .text                      0x0000c2be   Lc    1  Sect  De   0x64
    393  ../fplib/dnaninf.s         0x00000000   Lc  Abs  File  De 
    394  x$fpl$dnaninf              0x0000f882   Lc    1  Sect  De   0x9c
    395  $v0                        0x0000f882   Lc    1   --   De 
    396  ../fplib/fretinf.s         0x00000000   Lc  Abs  File  De 
    397  x$fpl$fretinf              0x0000f928   Lc    1  Sect  De   0xa
    398  $v0                        0x0000f928   Lc    1   --   De 
    399  ../fplib/usenofp.s         0x00000000   Lc  Abs  File  De 
    400  x$fpl$usenofp              0x0000f932   Lc    1  Sect  De 
    401  ../clib/angel/kernel.s     0x00000000   Lc  Abs  File  De 
    402  .ARM.Collect$$rtentry$$00000002
                                    0x0000c1b8   Lc    1  Sect  De 
    403  .ARM.Collect$$rtentry$$00000009
                                    0x0000c1be   Lc    1  Sect  De 
    404  .ARM.Collect$$rtentry$$0000000A
                                    0x0000c1be   Lc    1  Sect  De   0x4
    405  .ARM.Collect$$rtentry$$0000000C
                                    0x0000c1c2   Lc    1  Sect  De 
    406  .ARM.Collect$$rtentry$$0000000D
                                    0x0000c1c2   Lc    1  Sect  De   0x8
    407  ../clib/angel/kernel.s     0x00000000   Lc  Abs  File  De 
    408  .ARM.Collect$$rtentry$$00000004
                                    0x0000c1b8   Lc    1  Sect  De   0x6
    409  ../clib/angel/sys.s        0x00000000   Lc  Abs  File  De 
    410  .text                      0x0000c322   Lc    1  Sect  De   0x4a
    411  ../clib/stdlib.c           0x00000000   Lc  Abs  File  De 
    412  .text                      0x0000c36c   Lc    1  Sect  De 
    413  ../clib/angel/boardlib.s   0x00000000   Lc  Abs  File  De 
    414  ../clib/angel/boardlib.s   0x00000000   Lc  Abs  File  De 
    415  ../clib/angel/boardlib.s   0x00000000   Lc  Abs  File  De 
    416  ../clib/libinit.s          0x00000000   Lc  Abs  File  De 
    417  .ARM.Collect$$libinit$$00000000
                                    0x0000c1ac   Lc    1  Sect  De   0x2
    418  ../clib/angel/sys.s        0x00000000   Lc  Abs  File  De 
    419  .text                      0x0000c380   Lc    1  Sect  De   0x8
    420  .bss                       0x10005060   Lc    3  Sect  De   0x60
    421  ../clib/angel/kernel.s     0x00000000   Lc  Abs  File  De 
    422  .ARM.Collect$$rtexit$$00000000
                                    0x0000c1ca   Lc    1  Sect  De   0x2
    423  ../clib/libinit.s          0x00000000   Lc  Abs  File  De 
    424  .ARM.Collect$$libinit$$00000001
                                    0x0000c1ae   Lc    1  Sect  De   0x4
    425  .ARM.Collect$$libinit$$00000004
                                    0x0000c1b2   Lc    1  Sect  De 
    426  .ARM.Collect$$libinit$$0000000A
                                    0x0000c1b2   Lc    1  Sect  De 
    427  .ARM.Collect$$libinit$$0000000C
                                    0x0000c1b2   Lc    1  Sect  De 
    428  .ARM.Collect$$libinit$$0000000E
                                    0x0000c1b2   Lc    1  Sect  De 
    429  .ARM.Collect$$libinit$$00000011
                                    0x0000c1b2   Lc    1  Sect  De 
    430  .ARM.Collect$$libinit$$00000013
                                    0x0000c1b2   Lc    1  Sect  De 
    431  .ARM.Collect$$libinit$$00000015
                                    0x0000c1b2   Lc    1  Sect  De 
    432  .ARM.Collect$$libinit$$00000017
                                    0x0000c1b2   Lc    1  Sect  De 
    433  .ARM.Collect$$libinit$$00000019
                                    0x0000c1b2   Lc    1  Sect  De 
    434  .ARM.Collect$$libinit$$0000001B
                                    0x0000c1b2   Lc    1  Sect  De 
    435  .ARM.Collect$$libinit$$0000001D
                                    0x0000c1b2   Lc    1  Sect  De 
    436  .ARM.Collect$$libinit$$0000001F
                                    0x0000c1b2   Lc    1  Sect  De 
    437  .ARM.Collect$$libinit$$00000021
                                    0x0000c1b2   Lc    1  Sect  De 
    438  .ARM.Collect$$libinit$$00000023
                                    0x0000c1b2   Lc    1  Sect  De 
    439  .ARM.Collect$$libinit$$00000025
                                    0x0000c1b2   Lc    1  Sect  De 
    440  .ARM.Collect$$libinit$$0000002C
                                    0x0000c1b2   Lc    1  Sect  De 
    441  .ARM.Collect$$libinit$$0000002E
                                    0x0000c1b2   Lc    1  Sect  De 
    442  .ARM.Collect$$libinit$$00000030
                                    0x0000c1b2   Lc    1  Sect  De 
    443  .ARM.Collect$$libinit$$00000032
                                    0x0000c1b2   Lc    1  Sect  De 
    444  .ARM.Collect$$libinit$$00000033
                                    0x0000c1b2   Lc    1  Sect  De   0x2
    445  ../clib/angel/kernel.s     0x00000000   Lc  Abs  File  De 
    446  .ARM.Collect$$rtexit$$00000002
                                    0x0000c1cc   Lc    1  Sect  De 
    447  .ARM.Collect$$rtexit$$00000003
                                    0x0000c1cc   Lc    1  Sect  De   0x4
    448  .ARM.Collect$$rtexit$$00000004
                                    0x0000c1d0   Lc    1  Sect  De   0x6
    449  ../clib/armsys.c           0x00000000   Lc  Abs  File  De 
    450  ../clib/armsys.c           0x00000000   Lc  Abs  File  De 
    451  ../fplib/fpinit.s          0x00000000   Lc  Abs  File  De 
    452  x$fpl$fpinit               0x0000f91e   Lc    1  Sect  De   0xa
    453  $v0                        0x0000f91e   Lc    1   --   De 
    454  ../clib/angel/sysapp.c     0x00000000   Lc  Abs  File  De 
    455  .text                      0x0000c388   Lc    1  Sect  De 
    456  ../clib/angel/boardlib.s   0x00000000   Lc  Abs  File  De 
    457  ../clib/armsys.c           0x00000000   Lc  Abs  File  De 
    458  ../clib/armsys.c           0x00000000   Lc  Abs  File  De 
    459  ../clib/libinit.s          0x00000000   Lc  Abs  File  De 
    460  .ARM.Collect$$libshutdown$$00000000
                                    0x0000c1b4   Lc    1  Sect  De   0x2
    461  ../clib/angel/sysapp.c     0x00000000   Lc  Abs  File  De 
    462  ../clib/angel/sys.s        0x00000000   Lc  Abs  File  De 
    463  .text                      0x0000c394   Lc    1  Sect  De   0x2
    464  ../clib/angel/sys.s        0x00000000   Lc  Abs  File  De 
    465  .text                      0x0000c396   Lc    1  Sect  De 
    466  ../clib/heapalloc.c        0x00000000   Lc  Abs  File  De 
    467  ../clib/signal.c           0x00000000   Lc  Abs  File  De 
    468  ../clib/signal.c           0x00000000   Lc  Abs  File  De 
    469  ../clib/libinit.s          0x00000000   Lc  Abs  File  De 
    470  .ARM.Collect$$libshutdown$$00000002
                                    0x0000c1b6   Lc    1  Sect  De 
    471  .ARM.Collect$$libshutdown$$00000004
                                    0x0000c1b6   Lc    1  Sect  De 
    472  .ARM.Collect$$libshutdown$$00000007
                                    0x0000c1b6   Lc    1  Sect  De 
    473  .ARM.Collect$$libshutdown$$0000000A
                                    0x0000c1b6   Lc    1  Sect  De 
    474  .ARM.Collect$$libshutdown$$0000000C
                                    0x0000c1b6   Lc    1  Sect  De 
    475  .ARM.Collect$$libshutdown$$0000000F
                                    0x0000c1b6   Lc    1  Sect  De 
    476  .ARM.Collect$$libshutdown$$00000010
                                    0x0000c1b6   Lc    1  Sect  De   0x2
    477  ../clib/angel/rt.s         0x00000000   Lc  Abs  File  De 
    478  ../clib/signal.c           0x00000000   Lc  Abs  File  De 
    479  ../clib/signal.c           0x00000000   Lc  Abs  File  De 
    480  ../clib/signal.c           0x00000000   Lc  Abs  File  De 
    481  ../clib/signal.c           0x00000000   Lc  Abs  File  De 
    482  ../clib/angel/sysapp.c     0x00000000   Lc  Abs  File  De 
    483  ../clib/signal.s           0x00000000   Lc  Abs  File  De 
    484  ../clib/signal.c           0x00000000   Lc  Abs  File  De 
    485  ../clib/signal.c           0x00000000   Lc  Abs  File  De 
    486  ../clib/signal.c           0x00000000   Lc  Abs  File  De 
    487  ../clib/signal.c           0x00000000   Lc  Abs  File  De 
    488  ../clib/signal.c           0x00000000   Lc  Abs  File  De 
    489  ../clib/signal.c           0x00000000   Lc  Abs  File  De 
    490  ../clib/signal.c           0x00000000   Lc  Abs  File  De 
    491  ../clib/signal.c           0x00000000   Lc  Abs  File  De 
    492  ../clib/angel/scatter.s    0x00000000   Lc  Abs  File  De 
    493  !!!scatter                 0x0000c140   Lc    1  Sect  De   0x34
    494  ../clib/angel/handlers.s   0x00000000   Lc  Abs  File  De 
    495  !!handler_copy             0x0000c174   Lc    1  Sect  De   0x1a
    496  ../clib/angel/handlers.s   0x00000000   Lc  Abs  File  De 
    497  !!handler_zi               0x0000c190   Lc    1  Sect  De   0x1c
    498  BuildAttributes$$THM_ISAv4$E$P$D$K$B$S$7EM$VFPi3$EXTD16$VFPS$VFMA$PE$A:L22UL41UL21$X:L11$S22US41US21$IEEE1$IW$USESV6$~STKCKD$USESV7$~SHL$OTIME$ROPI$EBA8$UX$STANDARDLIB$REQ8$PRES8$EABIv2
                                    0x00000000   Gb  Abs   --   Hi 
    499  __ARM_use_no_argv          0x00000000   Gb  Abs   --   Hi 
    500  __Vectors                  0x0000c000   Gb    1  Data  Hi 
    501  __Patchable                0x0000c0c0   Gb    1  Data  Hi 
    502  Reset_Handler              0x0000c101   Wk    1  Code  Hi   0x1c
    503  HardFault_Handler          0x0000c11d   Wk    1  Code  Hi   0x2
    504  NMI_Handler                0x0000c11f   Wk    1  Code  Hi   0x2
    505  MemManage_Handler          0x0000c121   Wk    1  Code  Hi   0x2
    506  BusFault_Handler           0x0000c123   Wk    1  Code  Hi   0x2
    507  UsageFault_Handler         0x0000c125   Wk    1  Code  Hi   0x2
    508  SecureFault_Handler        0x0000c127   Wk    1  Code  Hi   0x2
    509  SVC_Handler                0x0000c129   Wk    1  Code  Hi   0x2
    510  DebugMon_Handler           0x0000c12b   Wk    1  Code  Hi   0x2
    511  PendSV_Handler             0x0000c12d   Wk    1  Code  Hi   0x2
    512  SysTick_Handler            0x0000c12f   Wk    1  Code  Hi   0x2
    513  am_adc_isr                 0x0000c131   Wk    1  Code  Hi 
    514  am_ble_isr                 0x0000c131   Wk    1  Code  Hi 
    515  am_brownout_isr            0x0000c131   Wk    1  Code  Hi 
    516  am_clkgen_isr              0x0000c131   Wk    1  Code  Hi 
    517  am_ctimer_isr              0x0000c131   Wk    1  Code  Hi 
    518  am_iomaster1_isr           0x0000c131   Wk    1  Code  Hi 
    519  am_iomaster2_isr           0x0000c131   Wk    1  Code  Hi 
    520  am_iomaster3_isr           0x0000c131   Wk    1  Code  Hi 
    521  am_iomaster4_isr           0x0000c131   Wk    1  Code  Hi 
    522  am_iomaster5_isr           0x0000c131   Wk    1  Code  Hi 
    523  am_ioslave_acc_isr         0x0000c131   Wk    1  Code  Hi 
    524  am_ioslave_ios_isr         0x0000c131   Wk    1  Code  Hi 
    525  am_mspi0_isr               0x0000c131   Wk    1  Code  Hi 
    526  am_pdm0_isr                0x0000c131   Wk    1  Code  Hi 
    527  am_rtc_isr                 0x0000c131   Wk    1  Code  Hi 
    528  am_scard_isr               0x0000c131   Wk    1  Code  Hi 
    529  am_software0_isr           0x0000c131   Wk    1  Code  Hi 
    530  am_stimer_cmpr0_isr        0x0000c131   Wk    1  Code  Hi 
    531  am_stimer_cmpr1_isr        0x0000c131   Wk    1  Code  Hi 
    532  am_stimer_cmpr2_isr        0x0000c131   Wk    1  Code  Hi 
    533  am_stimer_cmpr3_isr        0x0000c131   Wk    1  Code  Hi 
    534  am_stimer_cmpr4_isr        0x0000c131   Wk    1  Code  Hi 
    535  am_stimer_cmpr5_isr        0x0000c131   Wk    1  Code  Hi 
    536  am_stimer_cmpr6_isr        0x0000c131   Wk    1  Code  Hi 
    537  am_stimer_cmpr7_isr        0x0000c131   Wk    1  Code  Hi 
    538  am_stimer_isr              0x0000c131   Wk    1  Code  Hi 
    539  am_uart0_isr               0x0000c131   Wk    1  Code  Hi 
    540  am_uart1_isr               0x0000c131   Wk    1  Code  Hi 
    541  am_uart_isr                0x0000c131   Wk    1  Code  Hi 
    542  am_vcomp_isr               0x0000c131   Wk    1  Code  Hi 
    543  am_watchdog_isr            0x0000c131   Wk    1  Code  Hi 
    544  __main                     0x0000c139   Gb    1  Code  Hi   0x8
    545  __scatterload              0x0000c141   Gb    1  Code  Hi 
    546  __scatterload_rt2          0x0000c141   Gb    1  Code  Hi   0x2c
    547  __scatterload_rt2_thumb_only
                                    0x0000c141   Gb    1  Code  Hi 
    548  __scatterload_null         0x0000c14f   Gb    1  Code  Hi 
    549  __scatterload_copy         0x0000c175   Gb    1  Code  Hi   0x1a
    550  __scatterload_zeroinit     0x0000c191   Gb    1  Code  Hi   0x1c
    551  __rt_lib_init              0x0000c1ad   Gb    1  Code  De 
    552  __rt_lib_init_fp_1         0x0000c1af   Gb    1  Code  Hi 
    553  __rt_lib_init_alloca_1     0x0000c1b3   Gb    1  Code  Hi 
    554  __rt_lib_init_argv_1       0x0000c1b3   Gb    1  Code  Hi 
    555  __rt_lib_init_atexit_1     0x0000c1b3   Gb    1  Code  Hi 
    556  __rt_lib_init_clock_1      0x0000c1b3   Gb    1  Code  Hi 
    557  __rt_lib_init_cpp_1        0x0000c1b3   Gb    1  Code  Hi 
    558  __rt_lib_init_exceptions_1 0x0000c1b3   Gb    1  Code  Hi 
    559  __rt_lib_init_fp_trap_1    0x0000c1b3   Gb    1  Code  Hi 
    560  __rt_lib_init_getenv_1     0x0000c1b3   Gb    1  Code  Hi 
    561  __rt_lib_init_heap_1       0x0000c1b3   Gb    1  Code  Hi 
    562  __rt_lib_init_lc_collate_1 0x0000c1b3   Gb    1  Code  Hi 
    563  __rt_lib_init_lc_ctype_1   0x0000c1b3   Gb    1  Code  Hi 
    564  __rt_lib_init_lc_monetary_1
                                    0x0000c1b3   Gb    1  Code  Hi 
    565  __rt_lib_init_lc_numeric_1 0x0000c1b3   Gb    1  Code  Hi 
    566  __rt_lib_init_lc_time_1    0x0000c1b3   Gb    1  Code  Hi 
    567  __rt_lib_init_preinit_1    0x0000c1b3   Gb    1  Code  Hi 
    568  __rt_lib_init_rand_1       0x0000c1b3   Gb    1  Code  Hi 
    569  __rt_lib_init_return       0x0000c1b3   Gb    1  Code  Hi 
    570  __rt_lib_init_signal_1     0x0000c1b3   Gb    1  Code  Hi 
    571  __rt_lib_init_stdio_1      0x0000c1b3   Gb    1  Code  Hi 
    572  __rt_lib_init_user_alloc_1 0x0000c1b3   Gb    1  Code  Hi 
    573  __rt_lib_shutdown          0x0000c1b5   Gb    1  Code  De 
    574  __rt_lib_shutdown_cpp_1    0x0000c1b7   Gb    1  Code  Hi 
    575  __rt_lib_shutdown_fp_trap_1
                                    0x0000c1b7   Gb    1  Code  Hi 
    576  __rt_lib_shutdown_heap_1   0x0000c1b7   Gb    1  Code  Hi 
    577  __rt_lib_shutdown_return   0x0000c1b7   Gb    1  Code  Hi 
    578  __rt_lib_shutdown_signal_1 0x0000c1b7   Gb    1  Code  Hi 
    579  __rt_lib_shutdown_stdio_1  0x0000c1b7   Gb    1  Code  Hi 
    580  __rt_lib_shutdown_user_alloc_1
                                    0x0000c1b7   Gb    1  Code  Hi 
    581  __rt_entry                 0x0000c1b9   Gb    1  Code  Hi 
    582  __rt_entry_presh_1         0x0000c1b9   Gb    1  Code  Hi 
    583  __rt_entry_sh              0x0000c1b9   Gb    1  Code  Hi 
    584  __rt_entry_li              0x0000c1bf   Gb    1  Code  Hi 
    585  __rt_entry_postsh_1        0x0000c1bf   Gb    1  Code  Hi 
    586  __rt_entry_main            0x0000c1c3   Gb    1  Code  Hi 
    587  __rt_entry_postli_1        0x0000c1c3   Gb    1  Code  Hi 
    588  __rt_exit                  0x0000c1cb   Gb    1  Code  De 
    589  __rt_exit_ls               0x0000c1cd   Gb    1  Code  Hi 
    590  __rt_exit_prels_1          0x0000c1cd   Gb    1  Code  Hi 
    591  __rt_exit_exit             0x0000c1d1   Gb    1  Code  Hi 
    592  am_hal_interrupt_master_enable
                                    0x0000c1d9   Gb    1  Code  Hi   0x8
    593  am_hal_interrupt_master_disable
                                    0x0000c1e1   Gb    1  Code  Hi   0x8
    594  am_hal_interrupt_master_set
                                    0x0000c1e9   Gb    1  Code  Hi   0x6
    595  __user_initial_stackheap   0x0000c1f1   Gb    1  Code  Hi   0xa
    596  __aeabi_llsr               0x0000c209   Gb    1  Code  Hi 
    597  _ll_ushift_r               0x0000c209   Gb    1  Code  De   0x26
    598  __aeabi_memcpy             0x0000c22f   Gb    1  Code  Hi 
    599  __rt_memcpy                0x0000c22f   Gb    1  Code  De   0x8a
    600  _memcpy_lastbytes          0x0000c295   Gb    1  Code  De 
    601  __use_two_region_memory    0x0000c2b9   Gb    1  Code  Hi   0x2
    602  __rt_heap_escrow$2region   0x0000c2bb   Gb    1  Code  De   0x2
    603  __rt_heap_expand$2region   0x0000c2bd   Gb    1  Code  De   0x2
    604  __aeabi_memcpy4            0x0000c2bf   Gb    1  Code  De 
    605  __aeabi_memcpy8            0x0000c2bf   Gb    1  Code  De 
    606  __rt_memcpy_w              0x0000c2bf   Gb    1  Code  De   0x64
    607  _memcpy_lastbytes_aligned  0x0000c307   Gb    1  Code  De 
    608  __user_setup_stackheap     0x0000c323   Gb    1  Code  De   0x4a
    609  exit                       0x0000c36d   Gb    1  Code  De   0x12
    610  __user_libspace            0x0000c381   Wk    1  Code  De   0x8
    611  __user_perproc_libspace    0x0000c381   Wk    1  Code  De 
    612  __user_perthread_libspace  0x0000c381   Wk    1  Code  De 
    613  _sys_exit                  0x0000c389   Gb    1  Code  De   0x8
    614  __I$use$semihosting        0x0000c395   Gb    1  Code  Hi 
    615  __use_no_semihosting_swi   0x0000c395   Gb    1  Code  Hi   0x2
    616  __semihosting_library_function
                                    0x0000c397   Gb    1  Code  Hi 
    617  am_bsp_iom_pins_disable    0x0000c3b1   Gb    1  Code  Hi   0x196
    618  am_bsp_iom_pins_enable     0x0000c54d   Gb    1  Code  Hi   0x1c6
    619  am_bsp_itm_printf_enable   0x0000c7a5   Gb    1  Code  Hi   0x2c
    620  am_bsp_low_power_init      0x0000c7e1   Gb    1  Code  Hi   0x3a
    621  am_gpio_isr                0x0000c825   Gb    1  Code  Hi   0x1c
    622  am_hal_cachectrl_config    0x0000c841   Gb    1  Code  Hi   0x46
    623  am_hal_cachectrl_control   0x0000c88d   Gb    1  Code  Hi   0x2c6
    624  am_hal_cachectrl_enable    0x0000cb5d   Gb    1  Code  Hi   0xe
    625  am_hal_clkgen_control      0x0000cb71   Gb    1  Code  Hi   0xe8
    626  am_hal_clkgen_status_get   0x0000cc69   Gb    1  Code  Hi   0x2c
    627  am_hal_cmdq_alloc_block    0x0000cc9d   Gb    1  Code  Hi   0xc8
    628  am_hal_cmdq_disable        0x0000cd69   Gb    1  Code  Hi   0x3c
    629  am_hal_cmdq_enable         0x0000cda9   Gb    1  Code  Hi   0x3c
    630  am_hal_cmdq_error_resume   0x0000cde9   Gb    1  Code  Hi   0x70
    631  am_hal_cmdq_get_status     0x0000ce5d   Gb    1  Code  Hi   0x9e
    632  am_hal_cmdq_init           0x0000cf01   Gb    1  Code  Hi   0xe2
    633  am_hal_cmdq_post_block     0x0000cff1   Gb    1  Code  Hi   0x48
    634  am_hal_cmdq_release_block  0x0000d03d   Gb    1  Code  Hi   0x32
    635  am_hal_cmdq_term           0x0000d075   Gb    1  Code  Hi   0x84
    636  am_hal_flash_delay         0x0000d0fd   Gb    1  Code  Hi   0x1e
    637  am_hal_flash_delay_status_check
                                    0x0000d121   Gb    1  Code  Hi   0x56
    638  am_hal_flash_load_ui32     0x0000d17d   Gb    1  Code  Hi   0x4
    639  am_hal_flash_store_ui32    0x0000d185   Gb    1  Code  Hi   0x24
    640  am_hal_gpio_interrupt_clear
                                    0x0000d1ad   Gb    1  Code  Hi   0x2e
    641  am_hal_gpio_interrupt_disable
                                    0x0000d1e1   Gb    1  Code  Hi   0x3a
    642  am_hal_gpio_interrupt_enable
                                    0x0000d221   Gb    1  Code  Hi   0x3a
    643  am_hal_gpio_interrupt_register
                                    0x0000d261   Gb    1  Code  Hi   0x1a
    644  am_hal_gpio_interrupt_service
                                    0x0000d281   Gb    1  Code  Hi   0x74
    645  am_hal_gpio_interrupt_status_get
                                    0x0000d2f9   Gb    1  Code  Hi   0x50
    646  am_hal_gpio_pinconfig      0x0000d34d   Gb    1  Code  Hi   0x24a
    647  am_hal_gpio_state_write    0x0000d5cd   Gb    1  Code  Hi   0x80
    648  am_hal_iom_CQAddTransaction
                                    0x0000d64d   Gb    1  Code  Hi   0x194
    649  am_hal_iom_configure       0x0000d809   Gb    1  Code  Hi   0x24c
    650  am_hal_iom_disable         0x0000da81   Gb    1  Code  Hi   0x80
    651  am_hal_iom_enable          0x0000db05   Gb    1  Code  Hi   0xf4
    652  am_hal_iom_initialize      0x0000dc01   Gb    1  Code  Hi   0x4c
    653  am_hal_iom_interrupt_clear 0x0000dc55   Gb    1  Code  Hi   0x2e
    654  am_hal_iom_interrupt_enable
                                    0x0000dc89   Gb    1  Code  Hi   0x3e
    655  am_hal_iom_interrupt_service
                                    0x0000dccd   Gb    1  Code  Hi   0x2f6
    656  am_hal_iom_interrupt_status_get
                                    0x0000dfd1   Gb    1  Code  Hi   0x44
    657  am_hal_iom_nonblocking_transfer
                                    0x0000e019   Gb    1  Code  Hi   0x148
    658  am_hal_iom_power_ctrl      0x0000e169   Gb    1  Code  Hi   0x2d4
    659  am_hal_itm_enable          0x0000e445   Gb    1  Code  Hi   0x2c
    660  am_hal_itm_print           0x0000e48d   Gb    1  Code  Hi   0x30
    661  am_hal_pwrctrl_low_power_init
                                    0x0000e4bd   Gb    1  Code  Hi   0xec
    662  am_hal_pwrctrl_periph_disable
                                    0x0000e5c1   Gb    1  Code  Hi   0x46
    663  am_hal_pwrctrl_periph_enable
                                    0x0000e611   Gb    1  Code  Hi   0x48
    664  am_hal_rtc_osc_disable     0x0000e661   Gb    1  Code  Hi   0x12
    665  am_hal_sysctrl_sleep       0x0000e675   Gb    1  Code  Hi   0x52
    666  am_hal_tpiu_enable         0x0000e6e1   Gb    1  Code  Hi   0x7a
    667  am_iomaster0_isr           0x0000e771   Gb    1  Code  Hi   0x2a
    668  am_util_delay_ms           0x0000e7a1   Gb    1  Code  Hi   0x20
    669  am_util_delay_us           0x0000e7c1   Gb    1  Code  Hi   0x1e
    670  am_util_stdio_printf       0x0000e7e5   Gb    1  Code  Hi   0x32
    671  am_util_stdio_printf_init  0x0000e821   Gb    1  Code  Hi   0x6
    672  am_util_stdio_terminal_clear
                                    0x0000e82d   Gb    1  Code  Hi   0xa
    673  am_util_stdio_vsprintf     0x0000e84d   Gb    1  Code  Hi   0x3a4
    674  iom_slave_read             0x0000f10d   Gb    1  Code  Hi   0x58
    675  iom_slave_write            0x0000f171   Gb    1  Code  Hi   0x5c
    676  main                       0x0000f1d9   Gb    1  Code  Hi   0x23e
    677  validate_transaction       0x0000f6d1   Gb    1  Code  Hi   0x7a
    678  __aeabi_d2f                0x0000f821   Gb    1  Code  Hi 
    679  _d2f                       0x0000f821   Gb    1  Code  De   0x62
    680  __fpl_dnaninf              0x0000f883   Gb    1  Code  De   0x9c
    681  _fp_init                   0x0000f91f   Gb    1  Code  De   0xa
    682  __fplib_config_fpu_vfp     0x0000f927   Gb    1  Code  De 
    683  __fplib_config_pureend_doubles
                                    0x0000f927   Gb    1  Code  De 
    684  __fpl_fretinf              0x0000f929   Gb    1  Code  De   0xa
    685  __I$use$fp                 0x0000f932   Gb    1   --   De 
    686  g_pui8TestArray            0x0000f934   Gb    1  Data  Hi   0x1dd8
    687  g_AM_BSP_GPIO_HANDSHAKE    0x0001170c   Gb    1  Data  Hi   0x4
    688  g_AM_BSP_GPIO_DISABLE      0x00011710   Gb    1  Data  Hi   0x4
    689  am_hal_cachectrl_defaults  0x00011714   Gb    1  Data  Hi   0x3
    690  g_AM_HAL_GPIO_DISABLE      0x00011724   Gb    1  Data  Hi   0x4
    691  g_AM_HAL_GPIO_OUTPUT       0x00011888   Gb    1  Data  Hi   0x4
    692  am_hal_pwrctrl_peripheral_control
                                    0x000119cc   Gb    1  Data  Hi   0xb4
    693  am_hal_pwrctrl_memory_control
                                    0x00011a80   Gb    1  Data  Hi   0x168
    694  g_AM_BSP_GPIO_IOM0_CS      0x00011be8   Gb    1  Data  Hi   0x4
    695  g_AM_BSP_GPIO_IOM0_MISO    0x00011bec   Gb    1  Data  Hi   0x4
    696  g_AM_BSP_GPIO_IOM0_MOSI    0x00011bf0   Gb    1  Data  Hi   0x4
    697  g_AM_BSP_GPIO_IOM0_SCK     0x00011bf4   Gb    1  Data  Hi   0x4
    698  g_AM_BSP_GPIO_IOM0_SCL     0x00011bf8   Gb    1  Data  Hi   0x4
    699  g_AM_BSP_GPIO_IOM0_SDA     0x00011bfc   Gb    1  Data  Hi   0x4
    700  g_AM_BSP_GPIO_IOM1_CS      0x00011c00   Gb    1  Data  Hi   0x4
    701  g_AM_BSP_GPIO_IOM1_MISO    0x00011c04   Gb    1  Data  Hi   0x4
    702  g_AM_BSP_GPIO_IOM1_MOSI    0x00011c08   Gb    1  Data  Hi   0x4
    703  g_AM_BSP_GPIO_IOM1_SCK     0x00011c0c   Gb    1  Data  Hi   0x4
    704  g_AM_BSP_GPIO_IOM1_SCL     0x00011c10   Gb    1  Data  Hi   0x4
    705  g_AM_BSP_GPIO_IOM1_SDA     0x00011c14   Gb    1  Data  Hi   0x4
    706  g_AM_BSP_GPIO_IOM2_CS      0x00011c18   Gb    1  Data  Hi   0x4
    707  g_AM_BSP_GPIO_IOM2_MISO    0x00011c1c   Gb    1  Data  Hi   0x4
    708  g_AM_BSP_GPIO_IOM2_MOSI    0x00011c20   Gb    1  Data  Hi   0x4
    709  g_AM_BSP_GPIO_IOM2_SCK     0x00011c24   Gb    1  Data  Hi   0x4
    710  g_AM_BSP_GPIO_IOM2_SCL     0x00011c28   Gb    1  Data  Hi   0x4
    711  g_AM_BSP_GPIO_IOM2_SDA     0x00011c2c   Gb    1  Data  Hi   0x4
    712  g_AM_BSP_GPIO_IOM3_CS      0x00011c30   Gb    1  Data  Hi   0x4
    713  g_AM_BSP_GPIO_IOM3_MISO    0x00011c34   Gb    1  Data  Hi   0x4
    714  g_AM_BSP_GPIO_IOM3_MOSI    0x00011c38   Gb    1  Data  Hi   0x4
    715  g_AM_BSP_GPIO_IOM3_SCK     0x00011c3c   Gb    1  Data  Hi   0x4
    716  g_AM_BSP_GPIO_IOM3_SCL     0x00011c40   Gb    1  Data  Hi   0x4
    717  g_AM_BSP_GPIO_IOM3_SDA     0x00011c44   Gb    1  Data  Hi   0x4
    718  g_AM_BSP_GPIO_IOM4_CS      0x00011c48   Gb    1  Data  Hi   0x4
    719  g_AM_BSP_GPIO_IOM4_MISO    0x00011c4c   Gb    1  Data  Hi   0x4
    720  g_AM_BSP_GPIO_IOM4_MOSI    0x00011c50   Gb    1  Data  Hi   0x4
    721  g_AM_BSP_GPIO_IOM4_SCK     0x00011c54   Gb    1  Data  Hi   0x4
    722  g_AM_BSP_GPIO_IOM4_SCL     0x00011c58   Gb    1  Data  Hi   0x4
    723  g_AM_BSP_GPIO_IOM4_SDA     0x00011c5c   Gb    1  Data  Hi   0x4
    724  g_AM_BSP_GPIO_IOM5_CS      0x00011c60   Gb    1  Data  Hi   0x4
    725  g_AM_BSP_GPIO_IOM5_MISO    0x00011c64   Gb    1  Data  Hi   0x4
    726  g_AM_BSP_GPIO_IOM5_MOSI    0x00011c68   Gb    1  Data  Hi   0x4
    727  g_AM_BSP_GPIO_IOM5_SCK     0x00011c6c   Gb    1  Data  Hi   0x4
    728  g_AM_BSP_GPIO_IOM5_SCL     0x00011c70   Gb    1  Data  Hi   0x4
    729  g_AM_BSP_GPIO_IOM5_SDA     0x00011c74   Gb    1  Data  Hi   0x4
    730  g_AM_BSP_GPIO_ITM_SWO      0x00011c78   Gb    1  Data  Hi   0x4
    731  Region$$Table$$Base        0x00011c7c   Gb    1   --   Hi 
    732  Region$$Table$$Limit       0x00011c9c   Gb    1   --   Hi 
    733  bIosInt                    0x10000000   Gb    2  Data  Hi   0x1
    734  g_IOMHandle                0x10000004   Gb    2  Data  Hi   0x4
    735  g_IOMDMAComplete           0x10000008   Gb    2  Data  Hi   0x1
    736  g_pfnCharPrint             0x10000034   Gb    2  Data  Hi   0x4
    737  g_ui32HALflags             0x1000003c   Gb    2  Data  Hi   0x4
    738  am_bsp_psLEDs              0x1000004c   Gb    2  Data  Hi   0x28
    739  gAmHalResetStatus          0x1000009c   Gb    2  Data  Hi   0x4
    740  g_pRefData                 0x100000a0   Gb    3  Data  Hi   0x78
    741  g_pIomRecvBuf              0x10000118   Gb    3  Data  Hi   0x78
    742  DMATCBBuffer               0x10000190   Gb    3  Data  Hi   0x1000
    743  g_IOMhandles               0x10001358   Gb    3  Data  Hi   0x33a8
    744  __libspace_start           0x10005060   Gb    3  Data  De   0x60
    745  __temporary_stack_top$libspace
                                    0x100050c0   Gb    3  Data  De 


** Section #12 '.strtab' (SHT_STRTAB)
    Size   : 10396 bytes

            #  Offset String
        ====================================

            1      1: $d
            2      4: $t
            3      7: $d.realdata
            4     19: ..\src\ios_lram_host.c
            5     42: ../src/ios_lram_host.c
            6     65: i.__NVIC_EnableIRQ
            7     84: __NVIC_EnableIRQ
            8    101: i.am_gpio_isr
            9    115: i.am_iomaster0_isr
           10    134: i.hostint_handler
           11    152: hostint_handler
           12    168: i.iom_clean_up
           13    183: iom_clean_up
           14    196: i.iom_set_up
           15    209: iom_set_up
           16    220: i.iom_slave_read
           17    237: i.iom_slave_write
           18    255: i.main
           19    262: i.pfnIOM_LRAM_Callback
           20    285: pfnIOM_LRAM_Callback
           21    306: i.verify_result
           22    322: verify_result
           23    336: .bss
           24    341: .constdata
           25    352: .data
           26    358: g_sIOMSpiConfig
           27    374: g_sIOMI2cConfig
           28    390: ..\..\..\..\..\utils\am_util_delay.c
           29    427: ../../../../../utils/am_util_delay.c
           30    464: i.am_util_delay_ms
           31    483: i.am_util_delay_us
           32    502: ../../../../../utils/am_util_stdio.c
           33    539: i.am_util_stdio_printf
           34    562: i.am_util_stdio_printf_init
           35    590: i.am_util_stdio_terminal_clear
           36    621: i.am_util_stdio_vsprintf
           37    646: i.decstr_to_int
           38    662: decstr_to_int
           39    676: i.divu64_10
           40    688: divu64_10
           41    698: i.ftoa
           42    705: ftoa
           43    710: i.ndigits_in_hex
           44    727: ndigits_in_hex
           45    742: i.ndigits_in_i64
           46    759: ndigits_in_i64
           47    774: i.ndigits_in_u64
           48    791: ndigits_in_u64
           49    806: i.padbuffer
           50    818: padbuffer
           51    828: i.simple_strlen
           52    844: simple_strlen
           53    858: i.uint64_to_hexstr
           54    877: uint64_to_hexstr
           55    894: i.uint64_to_str
           56    910: uint64_to_str
           57    924: g_prfbuf
           58    933: g_bTxtXlate
           59    945: ../keil/startup_keil.s
           60    968: STACK
           61    974: StackMem
           62    983: HEAP
           63    988: HeapMem
           64    996: RESET
           65   1002: $v0
           66   1006: .text
           67   1012: ..\am_hal_global.c
           68   1031: ../am_hal_global.c
           69   1050: ..\am_hal_cachectrl.c
           70   1072: ../am_hal_cachectrl.c
           71   1094: i.am_hal_cachectrl_config
           72   1120: i.am_hal_cachectrl_control
           73   1147: i.am_hal_cachectrl_enable
           74   1173: ..\am_hal_clkgen.c
           75   1192: ../am_hal_clkgen.c
           76   1211: i.am_hal_clkgen_control
           77   1235: i.am_hal_clkgen_status_get
           78   1262: ..\am_hal_flash.c
           79   1280: ../am_hal_flash.c
           80   1298: i.am_hal_flash_delay
           81   1319: i.am_hal_flash_delay_status_check
           82   1353: i.am_hal_flash_load_ui32
           83   1378: i.am_hal_flash_store_ui32
           84   1404: ..\am_hal_gpio.c
           85   1421: ../am_hal_gpio.c
           86   1438: i.am_hal_gpio_interrupt_clear
           87   1468: i.am_hal_gpio_interrupt_disable
           88   1500: i.am_hal_gpio_interrupt_enable
           89   1531: i.am_hal_gpio_interrupt_register
           90   1564: i.am_hal_gpio_interrupt_service
           91   1596: i.am_hal_gpio_interrupt_status_get
           92   1631: i.am_hal_gpio_pinconfig
           93   1655: i.am_hal_gpio_state_write
           94   1681: gpio_ppfnHandlers
           95   1699: g_ui8Inpen
           96   1710: g_ui8Bit76Capabilities
           97   1733: g_ui8nCEpins
           98   1746: g_ui8NCEtable
           99   1760: ..\am_hal_interrupt.c
          100   1782: .emb_text
          101   1792: ../am_hal_interrupt.c
          102   1814: ..\am_hal_iom.c
          103   1830: ../am_hal_iom.c
          104   1846: i.am_hal_iom_CQAddTransaction
          105   1876: i.am_hal_iom_configure
          106   1899: i.am_hal_iom_disable
          107   1920: i.am_hal_iom_enable
          108   1940: i.am_hal_iom_initialize
          109   1964: i.am_hal_iom_interrupt_clear
          110   1993: i.am_hal_iom_interrupt_enable
          111   2023: i.am_hal_iom_interrupt_service
          112   2054: i.am_hal_iom_interrupt_status_get
          113   2088: i.am_hal_iom_nonblocking_transfer
          114   2122: i.am_hal_iom_power_ctrl
          115   2146: i.internal_iom_reset_on_error
          116   2176: internal_iom_reset_on_error
          117   2204: i.validate_transaction
          118   2227: ..\am_hal_sysctrl.c
          119   2247: ../am_hal_sysctrl.c
          120   2267: i.am_hal_sysctrl_sleep
          121   2290: g_ui32BusWriteFlush
          122   2310: ..\am_bsp.c
          123   2322: ../am_bsp.c
          124   2334: i.am_bsp_iom_pins_disable
          125   2360: i.am_bsp_iom_pins_enable
          126   2385: i.am_bsp_itm_printf_enable
          127   2412: i.am_bsp_low_power_init
          128   2436: pui8UartTxBuffer
          129   2453: pui8UartRxBuffer
          130   2470: g_ui32PrintInterface
          131   2491: g_sCOMUART
          132   2502: g_sBspUartBufferedConfig
          133   2527: ..\am_hal_cmdq.c
          134   2544: ../am_hal_cmdq.c
          135   2561: i.am_hal_cmdq_alloc_block
          136   2587: i.am_hal_cmdq_disable
          137   2609: i.am_hal_cmdq_enable
          138   2630: i.am_hal_cmdq_error_resume
          139   2657: i.am_hal_cmdq_get_status
          140   2682: i.am_hal_cmdq_init
          141   2701: i.am_hal_cmdq_post_block
          142   2726: i.am_hal_cmdq_release_block
          143   2754: i.am_hal_cmdq_term
          144   2773: gAmHalCmdq
          145   2784: gAmHalCmdQReg
          146   2798: ..\am_hal_itm.c
          147   2814: ../am_hal_itm.c
          148   2830: i.am_hal_itm_enable
          149   2850: i.am_hal_itm_print
          150   2869: ..\am_hal_pwrctrl.c
          151   2889: ../am_hal_pwrctrl.c
          152   2909: i.am_hal_pwrctrl_low_power_init
          153   2941: i.am_hal_pwrctrl_periph_disable
          154   2973: i.am_hal_pwrctrl_periph_enable
          155   3004: ..\am_hal_reset.c
          156   3022: ../am_hal_reset.c
          157   3040: ..\am_hal_rtc.c
          158   3056: ../am_hal_rtc.c
          159   3072: i.am_hal_rtc_osc_disable
          160   3097: ..\am_hal_tpiu.c
          161   3114: ../am_hal_tpiu.c
          162   3131: i.am_hal_tpiu_enable
          163   3152: ..\am_hal_uart.c
          164   3169: ../am_hal_uart.c
          165   3186: ..\am_bsp_pins.c
          166   3203: ../am_bsp_pins.c
          167   3220: ..\am_hal_queue.c
          168   3238: ../am_hal_queue.c
          169   3256: dc.s
          170   3261: ../clib/longlong.s
          171   3280: ../clib/memcpset.s
          172   3299: ../clib/heapaux.c
          173   3317: ../clib/angel/startup.s
          174   3341: !!!main
          175   3349: ../fplib/d2f.s
          176   3364: x$fpl$d2f
          177   3374: ../clib/angel/kernel.s
          178   3397: .ARM.Collect$$rtentry$$00000000
          179   3429: ../fplib/dnaninf.s
          180   3448: x$fpl$dnaninf
          181   3462: ../fplib/fretinf.s
          182   3481: x$fpl$fretinf
          183   3495: ../fplib/usenofp.s
          184   3514: x$fpl$usenofp
          185   3528: .ARM.Collect$$rtentry$$00000002
          186   3560: .ARM.Collect$$rtentry$$00000009
          187   3592: .ARM.Collect$$rtentry$$0000000A
          188   3624: .ARM.Collect$$rtentry$$0000000C
          189   3656: .ARM.Collect$$rtentry$$0000000D
          190   3688: .ARM.Collect$$rtentry$$00000004
          191   3720: ../clib/angel/sys.s
          192   3740: ../clib/stdlib.c
          193   3757: ../clib/angel/boardlib.s
          194   3782: ../clib/libinit.s
          195   3800: .ARM.Collect$$libinit$$00000000
          196   3832: .ARM.Collect$$rtexit$$00000000
          197   3863: .ARM.Collect$$libinit$$00000001
          198   3895: .ARM.Collect$$libinit$$00000004
          199   3927: .ARM.Collect$$libinit$$0000000A
          200   3959: .ARM.Collect$$libinit$$0000000C
          201   3991: .ARM.Collect$$libinit$$0000000E
          202   4023: .ARM.Collect$$libinit$$00000011
          203   4055: .ARM.Collect$$libinit$$00000013
          204   4087: .ARM.Collect$$libinit$$00000015
          205   4119: .ARM.Collect$$libinit$$00000017
          206   4151: .ARM.Collect$$libinit$$00000019
          207   4183: .ARM.Collect$$libinit$$0000001B
          208   4215: .ARM.Collect$$libinit$$0000001D
          209   4247: .ARM.Collect$$libinit$$0000001F
          210   4279: .ARM.Collect$$libinit$$00000021
          211   4311: .ARM.Collect$$libinit$$00000023
          212   4343: .ARM.Collect$$libinit$$00000025
          213   4375: .ARM.Collect$$libinit$$0000002C
          214   4407: .ARM.Collect$$libinit$$0000002E
          215   4439: .ARM.Collect$$libinit$$00000030
          216   4471: .ARM.Collect$$libinit$$00000032
          217   4503: .ARM.Collect$$libinit$$00000033
          218   4535: .ARM.Collect$$rtexit$$00000002
          219   4566: .ARM.Collect$$rtexit$$00000003
          220   4597: .ARM.Collect$$rtexit$$00000004
          221   4628: ../clib/armsys.c
          222   4645: ../fplib/fpinit.s
          223   4663: x$fpl$fpinit
          224   4676: ../clib/angel/sysapp.c
          225   4699: .ARM.Collect$$libshutdown$$00000000
          226   4735: ../clib/heapalloc.c
          227   4755: ../clib/signal.c
          228   4772: .ARM.Collect$$libshutdown$$00000002
          229   4808: .ARM.Collect$$libshutdown$$00000004
          230   4844: .ARM.Collect$$libshutdown$$00000007
          231   4880: .ARM.Collect$$libshutdown$$0000000A
          232   4916: .ARM.Collect$$libshutdown$$0000000C
          233   4952: .ARM.Collect$$libshutdown$$0000000F
          234   4988: .ARM.Collect$$libshutdown$$00000010
          235   5024: ../clib/angel/rt.s
          236   5043: ../clib/signal.s
          237   5060: ../clib/angel/scatter.s
          238   5084: !!!scatter
          239   5095: ../clib/angel/handlers.s
          240   5120: !!handler_copy
          241   5135: !!handler_zi
          242   5148: BuildAttributes$$THM_ISAv4$E$P$D$K$B$S$7EM$VFPi3$EXTD16$VFPS$VFMA$PE$A:L22UL41UL21$X:L11$S22US41US21$IEEE1$IW$USESV6$~STKCKD$USESV7$~SHL$OTIME$ROPI$EBA8$UX$STANDARDLIB$REQ8$PRES8$EABIv2
          243   5334: __ARM_use_no_argv
          244   5352: __Vectors
          245   5362: __Patchable
          246   5374: Reset_Handler
          247   5388: HardFault_Handler
          248   5406: NMI_Handler
          249   5418: MemManage_Handler
          250   5436: BusFault_Handler
          251   5453: UsageFault_Handler
          252   5472: SecureFault_Handler
          253   5492: SVC_Handler
          254   5504: DebugMon_Handler
          255   5521: PendSV_Handler
          256   5536: SysTick_Handler
          257   5552: am_adc_isr
          258   5563: am_ble_isr
          259   5574: am_brownout_isr
          260   5590: am_clkgen_isr
          261   5604: am_ctimer_isr
          262   5618: am_iomaster1_isr
          263   5635: am_iomaster2_isr
          264   5652: am_iomaster3_isr
          265   5669: am_iomaster4_isr
          266   5686: am_iomaster5_isr
          267   5703: am_ioslave_acc_isr
          268   5722: am_ioslave_ios_isr
          269   5741: am_mspi0_isr
          270   5754: am_pdm0_isr
          271   5766: am_rtc_isr
          272   5777: am_scard_isr
          273   5790: am_software0_isr
          274   5807: am_stimer_cmpr0_isr
          275   5827: am_stimer_cmpr1_isr
          276   5847: am_stimer_cmpr2_isr
          277   5867: am_stimer_cmpr3_isr
          278   5887: am_stimer_cmpr4_isr
          279   5907: am_stimer_cmpr5_isr
          280   5927: am_stimer_cmpr6_isr
          281   5947: am_stimer_cmpr7_isr
          282   5967: am_stimer_isr
          283   5981: am_uart0_isr
          284   5994: am_uart1_isr
          285   6007: am_uart_isr
          286   6019: am_vcomp_isr
          287   6032: am_watchdog_isr
          288   6048: __main
          289   6055: __scatterload
          290   6069: __scatterload_rt2
          291   6087: __scatterload_rt2_thumb_only
          292   6116: __scatterload_null
          293   6135: __scatterload_copy
          294   6154: __scatterload_zeroinit
          295   6177: __rt_lib_init
          296   6191: __rt_lib_init_fp_1
          297   6210: __rt_lib_init_alloca_1
          298   6233: __rt_lib_init_argv_1
          299   6254: __rt_lib_init_atexit_1
          300   6277: __rt_lib_init_clock_1
          301   6299: __rt_lib_init_cpp_1
          302   6319: __rt_lib_init_exceptions_1
          303   6346: __rt_lib_init_fp_trap_1
          304   6370: __rt_lib_init_getenv_1
          305   6393: __rt_lib_init_heap_1
          306   6414: __rt_lib_init_lc_collate_1
          307   6441: __rt_lib_init_lc_ctype_1
          308   6466: __rt_lib_init_lc_monetary_1
          309   6494: __rt_lib_init_lc_numeric_1
          310   6521: __rt_lib_init_lc_time_1
          311   6545: __rt_lib_init_preinit_1
          312   6569: __rt_lib_init_rand_1
          313   6590: __rt_lib_init_return
          314   6611: __rt_lib_init_signal_1
          315   6634: __rt_lib_init_stdio_1
          316   6656: __rt_lib_init_user_alloc_1
          317   6683: __rt_lib_shutdown
          318   6701: __rt_lib_shutdown_cpp_1
          319   6725: __rt_lib_shutdown_fp_trap_1
          320   6753: __rt_lib_shutdown_heap_1
          321   6778: __rt_lib_shutdown_return
          322   6803: __rt_lib_shutdown_signal_1
          323   6830: __rt_lib_shutdown_stdio_1
          324   6856: __rt_lib_shutdown_user_alloc_1
          325   6887: __rt_entry
          326   6898: __rt_entry_presh_1
          327   6917: __rt_entry_sh
          328   6931: __rt_entry_li
          329   6945: __rt_entry_postsh_1
          330   6965: __rt_entry_main
          331   6981: __rt_entry_postli_1
          332   7001: __rt_exit
          333   7011: __rt_exit_ls
          334   7024: __rt_exit_prels_1
          335   7042: __rt_exit_exit
          336   7057: am_hal_interrupt_master_enable
          337   7088: am_hal_interrupt_master_disable
          338   7120: am_hal_interrupt_master_set
          339   7148: __user_initial_stackheap
          340   7173: __aeabi_llsr
          341   7186: _ll_ushift_r
          342   7199: __aeabi_memcpy
          343   7214: __rt_memcpy
          344   7226: _memcpy_lastbytes
          345   7244: __use_two_region_memory
          346   7268: __rt_heap_escrow$2region
          347   7293: __rt_heap_expand$2region
          348   7318: __aeabi_memcpy4
          349   7334: __aeabi_memcpy8
          350   7350: __rt_memcpy_w
          351   7364: _memcpy_lastbytes_aligned
          352   7390: __user_setup_stackheap
          353   7413: exit
          354   7418: __user_libspace
          355   7434: __user_perproc_libspace
          356   7458: __user_perthread_libspace
          357   7484: _sys_exit
          358   7494: __I$use$semihosting
          359   7514: __use_no_semihosting_swi
          360   7539: __semihosting_library_function
          361   7570: am_bsp_iom_pins_disable
          362   7594: am_bsp_iom_pins_enable
          363   7617: am_bsp_itm_printf_enable
          364   7642: am_bsp_low_power_init
          365   7664: am_gpio_isr
          366   7676: am_hal_cachectrl_config
          367   7700: am_hal_cachectrl_control
          368   7725: am_hal_cachectrl_enable
          369   7749: am_hal_clkgen_control
          370   7771: am_hal_clkgen_status_get
          371   7796: am_hal_cmdq_alloc_block
          372   7820: am_hal_cmdq_disable
          373   7840: am_hal_cmdq_enable
          374   7859: am_hal_cmdq_error_resume
          375   7884: am_hal_cmdq_get_status
          376   7907: am_hal_cmdq_init
          377   7924: am_hal_cmdq_post_block
          378   7947: am_hal_cmdq_release_block
          379   7973: am_hal_cmdq_term
          380   7990: am_hal_flash_delay
          381   8009: am_hal_flash_delay_status_check
          382   8041: am_hal_flash_load_ui32
          383   8064: am_hal_flash_store_ui32
          384   8088: am_hal_gpio_interrupt_clear
          385   8116: am_hal_gpio_interrupt_disable
          386   8146: am_hal_gpio_interrupt_enable
          387   8175: am_hal_gpio_interrupt_register
          388   8206: am_hal_gpio_interrupt_service
          389   8236: am_hal_gpio_interrupt_status_get
          390   8269: am_hal_gpio_pinconfig
          391   8291: am_hal_gpio_state_write
          392   8315: am_hal_iom_CQAddTransaction
          393   8343: am_hal_iom_configure
          394   8364: am_hal_iom_disable
          395   8383: am_hal_iom_enable
          396   8401: am_hal_iom_initialize
          397   8423: am_hal_iom_interrupt_clear
          398   8450: am_hal_iom_interrupt_enable
          399   8478: am_hal_iom_interrupt_service
          400   8507: am_hal_iom_interrupt_status_get
          401   8539: am_hal_iom_nonblocking_transfer
          402   8571: am_hal_iom_power_ctrl
          403   8593: am_hal_itm_enable
          404   8611: am_hal_itm_print
          405   8628: am_hal_pwrctrl_low_power_init
          406   8658: am_hal_pwrctrl_periph_disable
          407   8688: am_hal_pwrctrl_periph_enable
          408   8717: am_hal_rtc_osc_disable
          409   8740: am_hal_sysctrl_sleep
          410   8761: am_hal_tpiu_enable
          411   8780: am_iomaster0_isr
          412   8797: am_util_delay_ms
          413   8814: am_util_delay_us
          414   8831: am_util_stdio_printf
          415   8852: am_util_stdio_printf_init
          416   8878: am_util_stdio_terminal_clear
          417   8907: am_util_stdio_vsprintf
          418   8930: iom_slave_read
          419   8945: iom_slave_write
          420   8961: main
          421   8966: validate_transaction
          422   8987: __aeabi_d2f
          423   8999: _d2f
          424   9004: __fpl_dnaninf
          425   9018: _fp_init
          426   9027: __fplib_config_fpu_vfp
          427   9050: __fplib_config_pureend_doubles
          428   9081: __fpl_fretinf
          429   9095: __I$use$fp
          430   9106: g_pui8TestArray
          431   9122: g_AM_BSP_GPIO_HANDSHAKE
          432   9146: g_AM_BSP_GPIO_DISABLE
          433   9168: am_hal_cachectrl_defaults
          434   9194: g_AM_HAL_GPIO_DISABLE
          435   9216: g_AM_HAL_GPIO_OUTPUT
          436   9237: am_hal_pwrctrl_peripheral_control
          437   9271: am_hal_pwrctrl_memory_control
          438   9301: g_AM_BSP_GPIO_IOM0_CS
          439   9323: g_AM_BSP_GPIO_IOM0_MISO
          440   9347: g_AM_BSP_GPIO_IOM0_MOSI
          441   9371: g_AM_BSP_GPIO_IOM0_SCK
          442   9394: g_AM_BSP_GPIO_IOM0_SCL
          443   9417: g_AM_BSP_GPIO_IOM0_SDA
          444   9440: g_AM_BSP_GPIO_IOM1_CS
          445   9462: g_AM_BSP_GPIO_IOM1_MISO
          446   9486: g_AM_BSP_GPIO_IOM1_MOSI
          447   9510: g_AM_BSP_GPIO_IOM1_SCK
          448   9533: g_AM_BSP_GPIO_IOM1_SCL
          449   9556: g_AM_BSP_GPIO_IOM1_SDA
          450   9579: g_AM_BSP_GPIO_IOM2_CS
          451   9601: g_AM_BSP_GPIO_IOM2_MISO
          452   9625: g_AM_BSP_GPIO_IOM2_MOSI
          453   9649: g_AM_BSP_GPIO_IOM2_SCK
          454   9672: g_AM_BSP_GPIO_IOM2_SCL
          455   9695: g_AM_BSP_GPIO_IOM2_SDA
          456   9718: g_AM_BSP_GPIO_IOM3_CS
          457   9740: g_AM_BSP_GPIO_IOM3_MISO
          458   9764: g_AM_BSP_GPIO_IOM3_MOSI
          459   9788: g_AM_BSP_GPIO_IOM3_SCK
          460   9811: g_AM_BSP_GPIO_IOM3_SCL
          461   9834: g_AM_BSP_GPIO_IOM3_SDA
          462   9857: g_AM_BSP_GPIO_IOM4_CS
          463   9879: g_AM_BSP_GPIO_IOM4_MISO
          464   9903: g_AM_BSP_GPIO_IOM4_MOSI
          465   9927: g_AM_BSP_GPIO_IOM4_SCK
          466   9950: g_AM_BSP_GPIO_IOM4_SCL
          467   9973: g_AM_BSP_GPIO_IOM4_SDA
          468   9996: g_AM_BSP_GPIO_IOM5_CS
          469  10018: g_AM_BSP_GPIO_IOM5_MISO
          470  10042: g_AM_BSP_GPIO_IOM5_MOSI
          471  10066: g_AM_BSP_GPIO_IOM5_SCK
          472  10089: g_AM_BSP_GPIO_IOM5_SCL
          473  10112: g_AM_BSP_GPIO_IOM5_SDA
          474  10135: g_AM_BSP_GPIO_ITM_SWO
          475  10157: Region$$Table$$Base
          476  10177: Region$$Table$$Limit
          477  10198: bIosInt
          478  10206: g_IOMHandle
          479  10218: g_IOMDMAComplete
          480  10235: g_pfnCharPrint
          481  10250: g_ui32HALflags
          482  10265: am_bsp_psLEDs
          483  10279: gAmHalResetStatus
          484  10297: g_pRefData
          485  10308: g_pIomRecvBuf
          486  10322: DMATCBBuffer
          487  10335: g_IOMhandles
          488  10348: __libspace_start
          489  10365: __temporary_stack_top$libspace


** Section #13 '.note' (SHT_NOTE)
    Size   : 28 bytes (alignment 4)


** Section #14 '.comment' (SHT_PROGBITS)
    Size   : 24188 bytes


** Section #15 '.shstrtab' (SHT_STRTAB)
    Size   : 148 bytes

            #  Offset String
        ====================================

            1      1: FLASH
            2      7: SRAM
            3     12: .debug_abbrev
            4     26: .debug_frame
            5     39: .debug_info
            6     51: .debug_line
            7     63: .debug_loc
            8     74: .debug_macinfo
            9     89: .debug_pubnames
           10    105: .symtab
           11    113: .strtab
           12    121: .note
           13    127: .comment
           14    136: .shstrtab
           15    146: 
           16    147: 


