
========================================================================

** ELF Header Information

    File Name: bin\uart_fifo_timeout.axf

    Machine class: ELFCLASS32 (32-bit)
    Data encoding: ELFDATA2LSB (Little endian)
    Header version: EV_CURRENT (Current version)
    Operating System ABI: none
    ABI Version: 0
    File Type: ET_EXEC (Executable) (2)
    Machine: EM_ARM (ARM)

    Image Entry point: 0x000000e9
    Flags: EF_ARM_HASENTRY + EF_ARM_ABI_FLOAT_HARD (0x05000402)

    ARM ELF revision: 5 (ABI version 2)

    Conforms to Hard float procedure-call standard

    Built with
    Component: ARM Compiler 5.06 update 6 (build 750) Tool: armasm [4d35ec]
    Component: ARM Compiler 5.06 update 6 (build 750) Tool: armlink [4d35ed]

    Header size: 52 bytes (0x34)
    Program header entry size: 32 bytes (0x20)
    Section header entry size: 40 bytes (0x28)

    Program header entries: 1
    Section header entries: 16

    Program header offset: 71748 (0x00011844)
    Section header offset: 71780 (0x00011864)

    Section header string table index: 15

========================================================================

** Program header #0 (PT_LOAD) [PF_X + PF_W + PF_R + PF_ARM_ENTRY]
    Size : 12520 bytes (7388 bytes in file)
    Virtual address: 0x00000000 (Alignment 8)


========================================================================

** Section #1 'FLASH' (SHT_PROGBITS) [SHF_ALLOC + SHF_EXECINSTR]
    Size   : 7352 bytes (alignment 4)
    Address: 0x00000000

    $d
    RESET
    __Vectors
        0x00000000:    10001430    0...    DCD    268440624
        0x00000004:    000000c1    ....    DCD    193
        0x00000008:    000000dd    ....    DCD    221
        0x0000000c:    00000189    ....    DCD    393
        0x00000010:    00000189    ....    DCD    393
        0x00000014:    00000189    ....    DCD    393
        0x00000018:    00000189    ....    DCD    393
        0x0000001c:    00000000    ....    DCD    0
        0x00000020:    00000000    ....    DCD    0
        0x00000024:    00000000    ....    DCD    0
        0x00000028:    00000000    ....    DCD    0
        0x0000002c:    000000e3    ....    DCD    227
        0x00000030:    000000e3    ....    DCD    227
        0x00000034:    00000000    ....    DCD    0
        0x00000038:    000000e3    ....    DCD    227
        0x0000003c:    000000e3    ....    DCD    227
        0x00000040:    000000e3    ....    DCD    227
        0x00000044:    000000e3    ....    DCD    227
        0x00000048:    000000e3    ....    DCD    227
        0x0000004c:    000000e3    ....    DCD    227
        0x00000050:    000000e3    ....    DCD    227
        0x00000054:    000000e3    ....    DCD    227
        0x00000058:    000000e3    ....    DCD    227
        0x0000005c:    000000e3    ....    DCD    227
        0x00000060:    000000e3    ....    DCD    227
        0x00000064:    000000e3    ....    DCD    227
        0x00000068:    000000e3    ....    DCD    227
        0x0000006c:    000000e3    ....    DCD    227
        0x00000070:    000000e3    ....    DCD    227
        0x00000074:    000000e3    ....    DCD    227
        0x00000078:    00000e95    ....    DCD    3733
        0x0000007c:    000000e3    ....    DCD    227
        0x00000080:    000000e3    ....    DCD    227
        0x00000084:    000000e3    ....    DCD    227
        0x00000088:    000000e3    ....    DCD    227
        0x0000008c:    000000e3    ....    DCD    227
        0x00000090:    000000e3    ....    DCD    227
        0x00000094:    000000e3    ....    DCD    227
        0x00000098:    000000e3    ....    DCD    227
        0x0000009c:    000000e3    ....    DCD    227
        0x000000a0:    000000e3    ....    DCD    227
        0x000000a4:    000000e3    ....    DCD    227
        0x000000a8:    000000e3    ....    DCD    227
        0x000000ac:    000000e3    ....    DCD    227
        0x000000b0:    000000e3    ....    DCD    227
        0x000000b4:    000000e3    ....    DCD    227
        0x000000b8:    000000e3    ....    DCD    227
        0x000000bc:    000000e3    ....    DCD    227
    $t
    $v0
    Reset_Handler
        0x000000c0:    f64e5088    N..P    MOV      r0,#0xed88
        0x000000c4:    f2ce0000    ....    MOVT     r0,#0xe000
        0x000000c8:    6801        .h      LDR      r1,[r0,#0]
        0x000000ca:    f4410170    A.p.    ORR      r1,r1,#0xf00000
        0x000000ce:    6001        .`      STR      r1,[r0,#0]
        0x000000d0:    f3bf8f4f    ..O.    DSB      
        0x000000d4:    f3bf8f6f    ..o.    ISB      
        0x000000d8:    4802        .H      LDR      r0,[pc,#8] ; [0xe4] = 0xe9
        0x000000da:    4700        .G      BX       r0
    am_nmi_isr
        0x000000dc:    e7fe        ..      B        am_nmi_isr ; 0xdc
        0x000000de:    e7fe        ..      B        0xde ; am_nmi_isr + 2
    am_memmanage_isr
        0x000000e0:    e7fe        ..      B        am_memmanage_isr ; 0xe0
    am_adc_isr
    am_brownout_isr
    am_clkgen_isr
    am_ctimer_isr
    am_debugmon_isr
    am_flash_isr
    am_gpio_isr
    am_iomaster0_isr
    am_iomaster1_isr
    am_iomaster2_isr
    am_iomaster3_isr
    am_iomaster4_isr
    am_iomaster5_isr
    am_ioslave_acc_isr
    am_ioslave_ios_isr
    am_pdm0_isr
    am_pendsv_isr
    am_software0_isr
    am_software1_isr
    am_software2_isr
    am_software3_isr
    am_stimer_cmpr0_isr
    am_stimer_cmpr1_isr
    am_stimer_cmpr2_isr
    am_stimer_cmpr3_isr
    am_stimer_cmpr4_isr
    am_stimer_cmpr5_isr
    am_stimer_cmpr6_isr
    am_stimer_cmpr7_isr
    am_stimer_isr
    am_svcall_isr
    am_systick_isr
    am_uart0_isr
    am_uart1_isr
    am_vcomp_isr
    am_watchdog_isr
        0x000000e2:    e7fe        ..      B        am_adc_isr ; 0xe2
    $d
        0x000000e4:    000000e9    ....    DCD    233
    $t
    !!!main
    __main
        0x000000e8:    f000f802    ....    BL       __scatterload ; 0xf0
        0x000000ec:    f000f83c    ..<.    BL       __rt_entry ; 0x168
    !!!scatter
    __scatterload
    __scatterload_rt2
    __scatterload_rt2_thumb_only
        0x000000f0:    a00a        ..      ADR      r0,{pc}+0x2c ; 0x11c
        0x000000f2:    e8900c00    ....    LDM      r0,{r10,r11}
        0x000000f6:    4482        .D      ADD      r10,r10,r0
        0x000000f8:    4483        .D      ADD      r11,r11,r0
        0x000000fa:    f1aa0701    ....    SUB      r7,r10,#1
    __scatterload_null
        0x000000fe:    45da        .E      CMP      r10,r11
        0x00000100:    d101        ..      BNE      0x106 ; __scatterload_null + 8
        0x00000102:    f000f831    ..1.    BL       __rt_entry ; 0x168
        0x00000106:    f2af0e09    ....    ADR      lr,{pc}-7 ; 0xff
        0x0000010a:    e8ba000f    ....    LDM      r10!,{r0-r3}
        0x0000010e:    f0130f01    ....    TST      r3,#1
        0x00000112:    bf18        ..      IT       NE
        0x00000114:    1afb        ..      SUBNE    r3,r7,r3
        0x00000116:    f0430301    C...    ORR      r3,r3,#1
        0x0000011a:    4718        .G      BX       r3
    $d
        0x0000011c:    00001b7c    |...    DCD    7036
        0x00000120:    00001b9c    ....    DCD    7068
    $t
    !!handler_copy
    __scatterload_copy
        0x00000124:    3a10        .:      SUBS     r2,r2,#0x10
        0x00000126:    bf24        $.      ITT      CS
        0x00000128:    c878        x.      LDMCS    r0!,{r3-r6}
        0x0000012a:    c178        x.      STMCS    r1!,{r3-r6}
        0x0000012c:    d8fa        ..      BHI      __scatterload_copy ; 0x124
        0x0000012e:    0752        R.      LSLS     r2,r2,#29
        0x00000130:    bf24        $.      ITT      CS
        0x00000132:    c830        0.      LDMCS    r0!,{r4,r5}
        0x00000134:    c130        0.      STMCS    r1!,{r4,r5}
        0x00000136:    bf44        D.      ITT      MI
        0x00000138:    6804        .h      LDRMI    r4,[r0,#0]
        0x0000013a:    600c        .`      STRMI    r4,[r1,#0]
        0x0000013c:    4770        pG      BX       lr
        0x0000013e:    0000        ..      MOVS     r0,r0
    !!handler_zi
    __scatterload_zeroinit
        0x00000140:    2300        .#      MOVS     r3,#0
        0x00000142:    2400        .$      MOVS     r4,#0
        0x00000144:    2500        .%      MOVS     r5,#0
        0x00000146:    2600        .&      MOVS     r6,#0
        0x00000148:    3a10        .:      SUBS     r2,r2,#0x10
        0x0000014a:    bf28        (.      IT       CS
        0x0000014c:    c178        x.      STMCS    r1!,{r3-r6}
        0x0000014e:    d8fb        ..      BHI      0x148 ; __scatterload_zeroinit + 8
        0x00000150:    0752        R.      LSLS     r2,r2,#29
        0x00000152:    bf28        (.      IT       CS
        0x00000154:    c130        0.      STMCS    r1!,{r4,r5}
        0x00000156:    bf48        H.      IT       MI
        0x00000158:    600b        .`      STRMI    r3,[r1,#0]
        0x0000015a:    4770        pG      BX       lr
    .ARM.Collect$$libinit$$00000000
    __rt_lib_init
        0x0000015c:    b51f        ..      PUSH     {r0-r4,lr}
    .ARM.Collect$$libinit$$00000001
    __rt_lib_init_fp_1
        0x0000015e:    f001fd66    ..f.    BL       _fp_init ; 0x1c2e
    .ARM.Collect$$libinit$$00000004
    .ARM.Collect$$libinit$$0000000A
    .ARM.Collect$$libinit$$0000000C
    .ARM.Collect$$libinit$$0000000E
    .ARM.Collect$$libinit$$00000011
    .ARM.Collect$$libinit$$00000013
    .ARM.Collect$$libinit$$00000015
    .ARM.Collect$$libinit$$00000017
    .ARM.Collect$$libinit$$00000019
    .ARM.Collect$$libinit$$0000001B
    .ARM.Collect$$libinit$$0000001D
    .ARM.Collect$$libinit$$0000001F
    .ARM.Collect$$libinit$$00000021
    .ARM.Collect$$libinit$$00000023
    .ARM.Collect$$libinit$$00000025
    .ARM.Collect$$libinit$$0000002C
    .ARM.Collect$$libinit$$0000002E
    .ARM.Collect$$libinit$$00000030
    .ARM.Collect$$libinit$$00000032
    .ARM.Collect$$libinit$$00000033
    __rt_lib_init_alloca_1
    __rt_lib_init_argv_1
    __rt_lib_init_atexit_1
    __rt_lib_init_clock_1
    __rt_lib_init_cpp_1
    __rt_lib_init_exceptions_1
    __rt_lib_init_fp_trap_1
    __rt_lib_init_getenv_1
    __rt_lib_init_heap_1
    __rt_lib_init_lc_collate_1
    __rt_lib_init_lc_ctype_1
    __rt_lib_init_lc_monetary_1
    __rt_lib_init_lc_numeric_1
    __rt_lib_init_lc_time_1
    __rt_lib_init_preinit_1
    __rt_lib_init_rand_1
    __rt_lib_init_return
    __rt_lib_init_signal_1
    __rt_lib_init_stdio_1
    __rt_lib_init_user_alloc_1
        0x00000162:    bd1f        ..      POP      {r0-r4,pc}
    .ARM.Collect$$libshutdown$$00000000
    __rt_lib_shutdown
        0x00000164:    b510        ..      PUSH     {r4,lr}
    .ARM.Collect$$libshutdown$$00000002
    .ARM.Collect$$libshutdown$$00000004
    .ARM.Collect$$libshutdown$$00000007
    .ARM.Collect$$libshutdown$$0000000A
    .ARM.Collect$$libshutdown$$0000000C
    .ARM.Collect$$libshutdown$$0000000F
    .ARM.Collect$$libshutdown$$00000010
    __rt_lib_shutdown_cpp_1
    __rt_lib_shutdown_fp_trap_1
    __rt_lib_shutdown_heap_1
    __rt_lib_shutdown_return
    __rt_lib_shutdown_signal_1
    __rt_lib_shutdown_stdio_1
    __rt_lib_shutdown_user_alloc_1
        0x00000166:    bd10        ..      POP      {r4,pc}
    .ARM.Collect$$rtentry$$00000000
    .ARM.Collect$$rtentry$$00000002
    .ARM.Collect$$rtentry$$00000004
    __rt_entry
    __rt_entry_presh_1
    __rt_entry_sh
        0x00000168:    f000f862    ..b.    BL       __user_setup_stackheap ; 0x230
        0x0000016c:    4611        .F      MOV      r1,r2
    .ARM.Collect$$rtentry$$00000009
    .ARM.Collect$$rtentry$$0000000A
    __rt_entry_li
    __rt_entry_postsh_1
        0x0000016e:    f7fffff5    ....    BL       __rt_lib_init ; 0x15c
    .ARM.Collect$$rtentry$$0000000C
    .ARM.Collect$$rtentry$$0000000D
    __rt_entry_main
    __rt_entry_postli_1
        0x00000172:    f001fa7d    ..}.    BL       main ; 0x1670
        0x00000176:    f000f880    ....    BL       exit ; 0x27a
    .ARM.Collect$$rtexit$$00000000
    __rt_exit
        0x0000017a:    b403        ..      PUSH     {r0,r1}
    .ARM.Collect$$rtexit$$00000002
    .ARM.Collect$$rtexit$$00000003
    __rt_exit_ls
    __rt_exit_prels_1
        0x0000017c:    f7fffff2    ....    BL       __rt_lib_shutdown ; 0x164
    .ARM.Collect$$rtexit$$00000004
    __rt_exit_exit
        0x00000180:    bc03        ..      POP      {r0,r1}
        0x00000182:    f000f887    ....    BL       _sys_exit ; 0x294
        0x00000186:    0000        ..      MOVS     r0,r0
    .emb_text
    $v0
    am_fault_isr
        0x00000188:    b501        ..      PUSH     {r0,lr}
        0x0000018a:    f01e0f04    ....    TST      lr,#4
        0x0000018e:    bf0a        ..      ITET     EQ
        0x00000190:    f3ef8008    ....    MRSEQ    r0,MSP
        0x00000194:    f3ef8009    ....    MRSNE    r0,PSP
        0x00000198:    f1100008    ....    ADDSEQ   r0,r0,#8
        0x0000019c:    f000feca    ....    BL       am_util_faultisr_collect_data ; 0xf34
        0x000001a0:    bd01        ..      POP      {r0,pc}
    getStackedReg
        0x000001a2:    0080        ..      LSLS     r0,r0,#2
        0x000001a4:    1840        @.      ADDS     r0,r0,r1
        0x000001a6:    6800        .h      LDR      r0,[r0,#0]
        0x000001a8:    4770        pG      BX       lr
        0x000001aa:    0000        ..      MOVS     r0,r0
    .emb_text
    $v0
    am_hal_interrupt_master_enable
        0x000001ac:    f3ef8010    ....    MRS      r0,PRIMASK
        0x000001b0:    b662        b.      CPSIE    i
        0x000001b2:    4770        pG      BX       lr
    am_hal_interrupt_master_disable
        0x000001b4:    f3ef8010    ....    MRS      r0,PRIMASK
        0x000001b8:    b672        r.      CPSID    i
        0x000001ba:    4770        pG      BX       lr
    am_hal_interrupt_master_set
        0x000001bc:    f3808810    ....    MSR      PRIMASK,r0
        0x000001c0:    4770        pG      BX       lr
        0x000001c2:    0000        ..      MOVS     r0,r0
    .text
    $v0
    __user_initial_stackheap
        0x000001c4:    4802        .H      LDR      r0,[pc,#8] ; [0x1d0] = 0x10000430
        0x000001c6:    4903        .I      LDR      r1,[pc,#12] ; [0x1d4] = 0x10001430
        0x000001c8:    4a01        .J      LDR      r2,[pc,#4] ; [0x1d0] = 0x10000430
        0x000001ca:    4b03        .K      LDR      r3,[pc,#12] ; [0x1d8] = 0x10000430
        0x000001cc:    4770        pG      BX       lr
    $d
        0x000001ce:    0000        ..      DCW    0
        0x000001d0:    10000430    0...    DCD    268436528
        0x000001d4:    10001430    0...    DCD    268440624
        0x000001d8:    10000430    0...    DCD    268436528
    $t
    .text
    __aeabi_memclr4
    __aeabi_memclr8
    __rt_memclr_w
        0x000001dc:    f04f0200    O...    MOV      r2,#0
    _memset_w
        0x000001e0:    b500        ..      PUSH     {lr}
        0x000001e2:    4613        .F      MOV      r3,r2
        0x000001e4:    4694        .F      MOV      r12,r2
        0x000001e6:    4696        .F      MOV      lr,r2
        0x000001e8:    3920         9      SUBS     r1,r1,#0x20
        0x000001ea:    bf22        ".      ITTT     CS
        0x000001ec:    e8a0500c    ...P    STMCS    r0!,{r2,r3,r12,lr}
        0x000001f0:    e8a0500c    ...P    STMCS    r0!,{r2,r3,r12,lr}
        0x000001f4:    f1b10120    .. .    SUBSCS   r1,r1,#0x20
        0x000001f8:    f4bfaff7    ....    BCS.W    0x1ea ; _memset_w + 10
        0x000001fc:    0709        ..      LSLS     r1,r1,#28
        0x000001fe:    bf28        (.      IT       CS
        0x00000200:    e8a0500c    ...P    STMCS    r0!,{r2,r3,r12,lr}
        0x00000204:    bf48        H.      IT       MI
        0x00000206:    c00c        ..      STMMI    r0!,{r2,r3}
        0x00000208:    f85deb04    ]...    POP      {lr}
        0x0000020c:    0089        ..      LSLS     r1,r1,#2
        0x0000020e:    bf28        (.      IT       CS
        0x00000210:    f8402b04    @..+    STRCS    r2,[r0],#4
        0x00000214:    bf08        ..      IT       EQ
        0x00000216:    4770        pG      BXEQ     lr
        0x00000218:    bf48        H.      IT       MI
        0x0000021a:    f8202b02     ..+    STRHMI   r2,[r0],#2
        0x0000021e:    f0114f80    ...O    TST      r1,#0x40000000
        0x00000222:    bf18        ..      IT       NE
        0x00000224:    f8002b01    ...+    STRBNE   r2,[r0],#1
        0x00000228:    4770        pG      BX       lr
    .text
    __use_two_region_memory
        0x0000022a:    4770        pG      BX       lr
    __rt_heap_escrow$2region
        0x0000022c:    4770        pG      BX       lr
    __rt_heap_expand$2region
        0x0000022e:    4770        pG      BX       lr
    .text
    __user_setup_stackheap
        0x00000230:    4675        uF      MOV      r5,lr
        0x00000232:    f000f82b    ..+.    BL       __user_libspace ; 0x28c
        0x00000236:    46ae        .F      MOV      lr,r5
        0x00000238:    0005        ..      MOVS     r5,r0
        0x0000023a:    4669        iF      MOV      r1,sp
        0x0000023c:    4653        SF      MOV      r3,r10
        0x0000023e:    f0200007     ...    BIC      r0,r0,#7
        0x00000242:    4685        .F      MOV      sp,r0
        0x00000244:    b018        ..      ADD      sp,sp,#0x60
        0x00000246:    b520         .      PUSH     {r5,lr}
        0x00000248:    f7ffffbc    ....    BL       __user_initial_stackheap ; 0x1c4
        0x0000024c:    e8bd4020    .. @    POP      {r5,lr}
        0x00000250:    f04f0600    O...    MOV      r6,#0
        0x00000254:    f04f0700    O...    MOV      r7,#0
        0x00000258:    f04f0800    O...    MOV      r8,#0
        0x0000025c:    f04f0b00    O...    MOV      r11,#0
        0x00000260:    f0210107    !...    BIC      r1,r1,#7
        0x00000264:    46ac        .F      MOV      r12,r5
        0x00000266:    e8ac09c0    ....    STM      r12!,{r6-r8,r11}
        0x0000026a:    e8ac09c0    ....    STM      r12!,{r6-r8,r11}
        0x0000026e:    e8ac09c0    ....    STM      r12!,{r6-r8,r11}
        0x00000272:    e8ac09c0    ....    STM      r12!,{r6-r8,r11}
        0x00000276:    468d        .F      MOV      sp,r1
        0x00000278:    4770        pG      BX       lr
    .text
    exit
        0x0000027a:    b510        ..      PUSH     {r4,lr}
        0x0000027c:    4604        .F      MOV      r4,r0
        0x0000027e:    f3af8000    ....    NOP.W    
        0x00000282:    4620         F      MOV      r0,r4
        0x00000284:    e8bd4010    ...@    POP      {r4,lr}
        0x00000288:    f7ffbf77    ..w.    B.W      __rt_exit ; 0x17a
    .text
    __user_libspace
    __user_perproc_libspace
    __user_perthread_libspace
        0x0000028c:    4800        .H      LDR      r0,[pc,#0] ; [0x290] = 0x100003cc
        0x0000028e:    4770        pG      BX       lr
    $d
        0x00000290:    100003cc    ....    DCD    268436428
    $t
    .text
    _sys_exit
        0x00000294:    4901        .I      LDR      r1,[pc,#4] ; [0x29c] = 0x20026
        0x00000296:    2018        .       MOVS     r0,#0x18
        0x00000298:    beab        ..      BKPT     #0xab
        0x0000029a:    e7fe        ..      B        0x29a ; _sys_exit + 6
    $d
        0x0000029c:    00020026    &...    DCD    131110
    $t
    .text
    __I$use$semihosting
    __use_no_semihosting_swi
        0x000002a0:    4770        pG      BX       lr
    .text
    __semihosting_library_function
        0x000002a2:    0000        ..      MOVS     r0,r0
    i.am_bsp_debug_printf_enable
    am_bsp_debug_printf_enable
        0x000002a4:    4816        .H      LDR      r0,[pc,#88] ; [0x300] = 0x10000020
        0x000002a6:    6800        .h      LDR      r0,[r0,#0]
        0x000002a8:    f0100f01    ....    TST      r0,#1
        0x000002ac:    bf18        ..      IT       NE
        0x000002ae:    4770        pG      BXNE     lr
        0x000002b0:    b500        ..      PUSH     {lr}
        0x000002b2:    b087        ..      SUB      sp,sp,#0x1c
        0x000002b4:    4914        .I      LDR      r1,[pc,#80] ; [0x308] = 0xe0000e80
        0x000002b6:    4813        .H      LDR      r0,[pc,#76] ; [0x304] = 0x150511
        0x000002b8:    6008        .`      STR      r0,[r1,#0]
        0x000002ba:    4814        .H      LDR      r0,[pc,#80] ; [0x30c] = 0xf4240
        0x000002bc:    9000        ..      STR      r0,[sp,#0]
        0x000002be:    4668        hF      MOV      r0,sp
        0x000002c0:    f000fba0    ....    BL       am_hal_tpiu_enable ; 0xa04
        0x000002c4:    f7ffff76    ..v.    BL       am_hal_interrupt_master_disable ; 0x1b4
        0x000002c8:    9005        ..      STR      r0,[sp,#0x14]
        0x000002ca:    4811        .H      LDR      r0,[pc,#68] ; [0x310] = 0x40010000
        0x000002cc:    2173        s!      MOVS     r1,#0x73
        0x000002ce:    6601        .f      STR      r1,[r0,#0x60]
        0x000002d0:    6d41        Am      LDR      r1,[r0,#0x54]
        0x000002d2:    f0210170    !.p.    BIC      r1,r1,#0x70
        0x000002d6:    6541        Ae      STR      r1,[r0,#0x54]
        0x000002d8:    6a81        .j      LDR      r1,[r0,#0x28]
        0x000002da:    f421417f    !..A    BIC      r1,r1,#0xff00
        0x000002de:    f4415180    A..Q    ORR      r1,r1,#0x1000
        0x000002e2:    6281        .b      STR      r1,[r0,#0x28]
        0x000002e4:    f8d01108    ....    LDR      r1,[r0,#0x108]
        0x000002e8:    f421417f    !..A    BIC      r1,r1,#0xff00
        0x000002ec:    f8c01108    ....    STR      r1,[r0,#0x108]
        0x000002f0:    2100        .!      MOVS     r1,#0
        0x000002f2:    6601        .f      STR      r1,[r0,#0x60]
        0x000002f4:    9805        ..      LDR      r0,[sp,#0x14]
        0x000002f6:    f7ffff61    ..a.    BL       am_hal_interrupt_master_set ; 0x1bc
        0x000002fa:    b007        ..      ADD      sp,sp,#0x1c
        0x000002fc:    bd00        ..      POP      {pc}
    $d
        0x000002fe:    0000        ..      DCW    0
        0x00000300:    10000020     ...    DCD    268435488
        0x00000304:    00150511    ....    DCD    1377553
        0x00000308:    e0000e80    ....    DCD    3758100096
        0x0000030c:    000f4240    @B..    DCD    1000000
        0x00000310:    40010000    ...@    DCD    1073807360
    $t
    i.am_bsp_itm_string_print
    am_bsp_itm_string_print
        0x00000314:    f000b940    ..@.    B.W      am_hal_itm_print ; 0x598
    i.am_bsp_low_power_init
    am_bsp_low_power_init
        0x00000318:    b510        ..      PUSH     {r4,lr}
        0x0000031a:    f000f971    ..q.    BL       am_hal_pwrctrl_bucks_init ; 0x600
        0x0000031e:    f000f98f    ....    BL       am_hal_pwrctrl_low_power_init ; 0x640
        0x00000322:    f000fdb1    ....    BL       am_hal_vcomp_disable ; 0xe88
        0x00000326:    2001        .       MOVS     r0,#1
        0x00000328:    f000fb61    ..a.    BL       am_hal_rtc_osc_select ; 0x9ee
        0x0000032c:    2001        .       MOVS     r0,#1
        0x0000032e:    f000f86d    ..m.    BL       am_hal_clkgen_osc_stop ; 0x40c
        0x00000332:    e8bd4010    ...@    POP      {r4,lr}
        0x00000336:    f000bb53    ..S.    B.W      am_hal_rtc_osc_disable ; 0x9e0
        0x0000033a:    0000        ..      MOVS     r0,r0
    i.am_hal_cachectrl_enable
    am_hal_cachectrl_enable
        0x0000033c:    b570        p.      PUSH     {r4-r6,lr}
        0x0000033e:    4604        .F      MOV      r4,r0
        0x00000340:    78c0        .x      LDRB     r0,[r0,#3]
        0x00000342:    7861        ax      LDRB     r1,[r4,#1]
        0x00000344:    2202        ."      MOVS     r2,#2
        0x00000346:    ea020141    ..A.    AND      r1,r2,r1,LSL #1
        0x0000034a:    4301        .C      ORRS     r1,r1,r0
        0x0000034c:    78a0        .x      LDRB     r0,[r4,#2]
        0x0000034e:    2204        ."      MOVS     r2,#4
        0x00000350:    ea020280    ....    AND      r2,r2,r0,LSL #2
        0x00000354:    f3c00040    ..@.    UBFX     r0,r0,#1,#1
        0x00000358:    ea4200c0    B...    ORR      r0,r2,r0,LSL #3
        0x0000035c:    4308        .C      ORRS     r0,r0,r1
        0x0000035e:    7921        !y      LDRB     r1,[r4,#4]
        0x00000360:    2280        ."      MOVS     r2,#0x80
        0x00000362:    ea0211c1    ....    AND      r1,r2,r1,LSL #7
        0x00000366:    4308        .C      ORRS     r0,r0,r1
        0x00000368:    79a1        .y      LDRB     r1,[r4,#6]
        0x0000036a:    00d2        ..      LSLS     r2,r2,#3
        0x0000036c:    ea022181    ...!    AND      r1,r2,r1,LSL #10
        0x00000370:    4308        .C      ORRS     r0,r0,r1
        0x00000372:    79e1        .y      LDRB     r1,[r4,#7]
        0x00000374:    0052        R.      LSLS     r2,r2,#1
        0x00000376:    ea0221c1    ...!    AND      r1,r2,r1,LSL #11
        0x0000037a:    4308        .C      ORRS     r0,r0,r1
        0x0000037c:    7a21        !z      LDRB     r1,[r4,#8]
        0x0000037e:    f44f4270    O.pB    MOV      r2,#0xf000
        0x00000382:    ea023101    ...1    AND      r1,r2,r1,LSL #12
        0x00000386:    4308        .C      ORRS     r0,r0,r1
        0x00000388:    7a61        az      LDRB     r1,[r4,#9]
        0x0000038a:    0112        ..      LSLS     r2,r2,#4
        0x0000038c:    ea024101    ...A    AND      r1,r2,r1,LSL #16
        0x00000390:    4308        .C      ORRS     r0,r0,r1
        0x00000392:    7aa1        .z      LDRB     r1,[r4,#0xa]
        0x00000394:    f44f1280    O...    MOV      r2,#0x100000
        0x00000398:    ea025101    ...Q    AND      r1,r2,r1,LSL #20
        0x0000039c:    4308        .C      ORRS     r0,r0,r1
        0x0000039e:    7ae1        .z      LDRB     r1,[r4,#0xb]
        0x000003a0:    0112        ..      LSLS     r2,r2,#4
        0x000003a2:    ea026101    ...a    AND      r1,r2,r1,LSL #24
        0x000003a6:    4308        .C      ORRS     r0,r0,r1
        0x000003a8:    f0400501    @...    ORR      r5,r0,#1
        0x000003ac:    f04f4020    O. @    MOV      r0,#0xa0000000
        0x000003b0:    f000f952    ..R.    BL       am_hal_pwrctrl_memory_enable ; 0x658
        0x000003b4:    4814        .H      LDR      r0,[pc,#80] ; [0x408] = 0x40018000
        0x000003b6:    6005        .`      STR      r5,[r0,#0]
        0x000003b8:    2100        .!      MOVS     r1,#0
        0x000003ba:    6882        .h      LDR      r2,[r0,#8]
        0x000003bc:    f0120f04    ....    TST      r2,#4
        0x000003c0:    bf04        ..      ITT      EQ
        0x000003c2:    6882        .h      LDREQ    r2,[r0,#8]
        0x000003c4:    f0120f04    ....    TSTEQ    r2,#4
        0x000003c8:    d102        ..      BNE      0x3d0 ; am_hal_cachectrl_enable + 148
        0x000003ca:    1c89        ..      ADDS     r1,r1,#2
        0x000003cc:    2932        2)      CMP      r1,#0x32
        0x000003ce:    d3f4        ..      BCC      0x3ba ; am_hal_cachectrl_enable + 126
        0x000003d0:    6881        .h      LDR      r1,[r0,#8]
        0x000003d2:    f0410101    A...    ORR      r1,r1,#1
        0x000003d6:    6081        .`      STR      r1,[r0,#8]
        0x000003d8:    2100        .!      MOVS     r1,#0
        0x000003da:    6882        .h      LDR      r2,[r0,#8]
        0x000003dc:    f0120f04    ....    TST      r2,#4
        0x000003e0:    bf04        ..      ITT      EQ
        0x000003e2:    6882        .h      LDREQ    r2,[r0,#8]
        0x000003e4:    f0120f04    ....    TSTEQ    r2,#4
        0x000003e8:    d102        ..      BNE      0x3f0 ; am_hal_cachectrl_enable + 180
        0x000003ea:    1c89        ..      ADDS     r1,r1,#2
        0x000003ec:    2932        2)      CMP      r1,#0x32
        0x000003ee:    d3f4        ..      BCC      0x3da ; am_hal_cachectrl_enable + 158
        0x000003f0:    7961        ay      LDRB     r1,[r4,#5]
        0x000003f2:    f44f7280    O..r    MOV      r2,#0x100
        0x000003f6:    ea022201    ..."    AND      r2,r2,r1,LSL #8
        0x000003fa:    f3c10140    ..@.    UBFX     r1,r1,#1,#1
        0x000003fe:    ea422141    B.A!    ORR      r1,r2,r1,LSL #9
        0x00000402:    4329        )C      ORRS     r1,r1,r5
        0x00000404:    6001        .`      STR      r1,[r0,#0]
        0x00000406:    bd70        p.      POP      {r4-r6,pc}
    $d
        0x00000408:    40018000    ...@    DCD    1073840128
    $t
    i.am_hal_clkgen_osc_stop
    am_hal_clkgen_osc_stop
        0x0000040c:    f0100f03    ....    TST      r0,#3
        0x00000410:    bf08        ..      IT       EQ
        0x00000412:    4770        pG      BXEQ     lr
        0x00000414:    f04f2140    O.@!    MOV      r1,#0x40004000
        0x00000418:    68ca        .h      LDR      r2,[r1,#0xc]
        0x0000041a:    4310        .C      ORRS     r0,r0,r2
        0x0000041c:    60c8        .`      STR      r0,[r1,#0xc]
        0x0000041e:    4770        pG      BX       lr
    i.am_hal_clkgen_sysclk_get
    am_hal_clkgen_sysclk_get
        0x00000420:    f04f2140    O.@!    MOV      r1,#0x40004000
        0x00000424:    6989        .i      LDR      r1,[r1,#0x18]
        0x00000426:    f0110101    ....    ANDS     r1,r1,#1
        0x0000042a:    bf04        ..      ITT      EQ
        0x0000042c:    4802        .H      LDREQ    r0,[pc,#8] ; [0x438] = 0x2dc6c00
        0x0000042e:    4770        pG      BXEQ     lr
        0x00000430:    2900        .)      CMP      r1,#0
        0x00000432:    bf18        ..      IT       NE
        0x00000434:    4801        .H      LDRNE    r0,[pc,#4] ; [0x43c] = 0x16e3600
        0x00000436:    4770        pG      BX       lr
    $d
        0x00000438:    02dc6c00    .l..    DCD    48000000
        0x0000043c:    016e3600    .6n.    DCD    24000000
    $t
    i.am_hal_clkgen_sysclk_select
    am_hal_clkgen_sysclk_select
        0x00000440:    b510        ..      PUSH     {r4,lr}
        0x00000442:    0004        ..      MOVS     r4,r0
        0x00000444:    d004        ..      BEQ      0x450 ; am_hal_clkgen_sysclk_select + 16
        0x00000446:    a206        ..      ADR      r2,{pc}+0x1a ; 0x460
        0x00000448:    2152        R!      MOVS     r1,#0x52
        0x0000044a:    a013        ..      ADR      r0,{pc}+0x4e ; 0x498
        0x0000044c:    f000f84d    ..M.    BL       am_hal_debug_error ; 0x4ea
        0x00000450:    f04f2040    O.@     MOV      r0,#0x40004000
        0x00000454:    2147        G!      MOVS     r1,#0x47
        0x00000456:    6141        Aa      STR      r1,[r0,#0x14]
        0x00000458:    6184        .a      STR      r4,[r0,#0x18]
        0x0000045a:    2100        .!      MOVS     r1,#0
        0x0000045c:    6141        Aa      STR      r1,[r0,#0x14]
        0x0000045e:    bd10        ..      POP      {r4,pc}
    $d
        0x00000460:    685f6d61    am_h    DCD    1751084385
        0x00000464:    635f6c61    al_c    DCD    1667198049
        0x00000468:    65676b6c    lkge    DCD    1701276524
        0x0000046c:    79735f6e    n_sy    DCD    2037604206
        0x00000470:    6b6c6373    sclk    DCD    1802265459
        0x00000474:    6c65735f    _sel    DCD    1818587999
        0x00000478:    28746365    ect(    DCD    678716261
        0x0000047c:    69203a29    ): i    DCD    1763719721
        0x00000480:    6c61766e    nval    DCD    1818326638
        0x00000484:    63206469    id c    DCD    1663067241
        0x00000488:    6b636f6c    lock    DCD    1801678700
        0x0000048c:    74657320     set    DCD    1952805664
        0x00000490:    676e6974    ting    DCD    1735289204
        0x00000494:    0000002e    ....    DCD    46
        0x00000498:    685f6d61    am_h    DCD    1751084385
        0x0000049c:    635f6c61    al_c    DCD    1667198049
        0x000004a0:    65676b6c    lkge    DCD    1701276524
        0x000004a4:    00632e6e    n.c.    DCD    6499950
    $t
    i.am_hal_clkgen_uarten_set
    am_hal_clkgen_uarten_set
        0x000004a8:    2802        .(      CMP      r0,#2
        0x000004aa:    bf28        (.      IT       CS
        0x000004ac:    4770        pG      BXCS     lr
        0x000004ae:    2903        .)      CMP      r1,#3
        0x000004b0:    bf88        ..      IT       HI
        0x000004b2:    4770        pG      BXHI     lr
        0x000004b4:    b538        8.      PUSH     {r3-r5,lr}
        0x000004b6:    fb00f200    ....    MUL      r2,r0,r0
        0x000004ba:    00d2        ..      LSLS     r2,r2,#3
        0x000004bc:    fa01f402    ....    LSL      r4,r1,r2
        0x000004c0:    00c0        ..      LSLS     r0,r0,#3
        0x000004c2:    2103        .!      MOVS     r1,#3
        0x000004c4:    fa01f000    ....    LSL      r0,r1,r0
        0x000004c8:    43c5        .C      MVNS     r5,r0
        0x000004ca:    f7fffe73    ..s.    BL       am_hal_interrupt_master_disable ; 0x1b4
        0x000004ce:    9000        ..      STR      r0,[sp,#0]
        0x000004d0:    f04f2040    O.@     MOV      r0,#0x40004000
        0x000004d4:    6b41        Ak      LDR      r1,[r0,#0x34]
        0x000004d6:    4029        )@      ANDS     r1,r1,r5
        0x000004d8:    6341        Ac      STR      r1,[r0,#0x34]
        0x000004da:    6b41        Ak      LDR      r1,[r0,#0x34]
        0x000004dc:    4321        !C      ORRS     r1,r1,r4
        0x000004de:    6341        Ac      STR      r1,[r0,#0x34]
        0x000004e0:    9800        ..      LDR      r0,[sp,#0]
        0x000004e2:    e8bd4038    ..8@    POP      {r3-r5,lr}
        0x000004e6:    f7ffbe69    ..i.    B.W      am_hal_interrupt_master_set ; 0x1bc
    i.am_hal_debug_error
    am_hal_debug_error
        0x000004ea:    e7fe        ..      B        am_hal_debug_error ; 0x4ea
    i.am_hal_flash_delay
    am_hal_flash_delay
        0x000004ec:    4900        .I      LDR      r1,[pc,#0] ; [0x4f0] = 0x800009d
        0x000004ee:    4708        .G      BX       r1
    $d
        0x000004f0:    0800009d    ....    DCD    134217885
    $t
    i.am_hal_interrupt_enable
    am_hal_interrupt_enable
        0x000004f4:    280f        .(      CMP      r0,#0xf
        0x000004f6:    d90a        ..      BLS      0x50e ; am_hal_interrupt_enable + 26
        0x000004f8:    3810        .8      SUBS     r0,r0,#0x10
        0x000004fa:    f000001f    ....    AND      r0,r0,#0x1f
        0x000004fe:    2101        .!      MOVS     r1,#1
        0x00000500:    fa01f000    ....    LSL      r0,r1,r0
        0x00000504:    f04f21e0    O..!    MOV      r1,#0xe000e000
        0x00000508:    f8c10100    ....    STR      r0,[r1,#0x100]
        0x0000050c:    4770        pG      BX       lr
        0x0000050e:    490b        .I      LDR      r1,[pc,#44] ; [0x53c] = 0xe000ed24
        0x00000510:    2804        .(      CMP      r0,#4
        0x00000512:    d00d        ..      BEQ      0x530 ; am_hal_interrupt_enable + 60
        0x00000514:    2805        .(      CMP      r0,#5
        0x00000516:    bf04        ..      ITT      EQ
        0x00000518:    6808        .h      LDREQ    r0,[r1,#0]
        0x0000051a:    f4403000    @..0    ORREQ    r0,r0,#0x20000
        0x0000051e:    d005        ..      BEQ      0x52c ; am_hal_interrupt_enable + 56
        0x00000520:    2806        .(      CMP      r0,#6
        0x00000522:    bf06        ..      ITTE     EQ
        0x00000524:    6808        .h      LDREQ    r0,[r1,#0]
        0x00000526:    f4402080    @..     ORREQ    r0,r0,#0x40000
        0x0000052a:    4770        pG      BXNE     lr
        0x0000052c:    6008        .`      STR      r0,[r1,#0]
        0x0000052e:    4770        pG      BX       lr
        0x00000530:    6808        .h      LDR      r0,[r1,#0]
        0x00000532:    f4403080    @..0    ORR      r0,r0,#0x10000
        0x00000536:    6008        .`      STR      r0,[r1,#0]
        0x00000538:    4770        pG      BX       lr
    $d
        0x0000053a:    0000        ..      DCW    0
        0x0000053c:    e000ed24    $...    DCD    3758157092
    $t
    i.am_hal_itm_enable
    am_hal_itm_enable
        0x00000540:    480d        .H      LDR      r0,[pc,#52] ; [0x578] = 0x10000020
        0x00000542:    6800        .h      LDR      r0,[r0,#0]
        0x00000544:    f0100f01    ....    TST      r0,#1
        0x00000548:    bf18        ..      IT       NE
        0x0000054a:    4770        pG      BXNE     lr
        0x0000054c:    480b        .H      LDR      r0,[pc,#44] ; [0x57c] = 0xe000edfc
        0x0000054e:    6801        .h      LDR      r1,[r0,#0]
        0x00000550:    f0417180    A..q    ORR      r1,r1,#0x1000000
        0x00000554:    6001        .`      STR      r1,[r0,#0]
        0x00000556:    6801        .h      LDR      r1,[r0,#0]
        0x00000558:    f0117f80    ....    TST      r1,#0x1000000
        0x0000055c:    d0fb        ..      BEQ      0x556 ; am_hal_itm_enable + 22
        0x0000055e:    4909        .I      LDR      r1,[pc,#36] ; [0x584] = 0xe0000fb0
        0x00000560:    4807        .H      LDR      r0,[pc,#28] ; [0x580] = 0xc5acce55
        0x00000562:    6008        .`      STR      r0,[r1,#0]
        0x00000564:    4908        .I      LDR      r1,[pc,#32] ; [0x588] = 0xe0000e40
        0x00000566:    200f        .       MOVS     r0,#0xf
        0x00000568:    6008        .`      STR      r0,[r1,#0]
        0x0000056a:    1748        H.      ASRS     r0,r1,#29
        0x0000056c:    4907        .I      LDR      r1,[pc,#28] ; [0x58c] = 0xe0000e00
        0x0000056e:    6008        .`      STR      r0,[r1,#0]
        0x00000570:    4908        .I      LDR      r1,[pc,#32] ; [0x594] = 0xe0000e80
        0x00000572:    4807        .H      LDR      r0,[pc,#28] ; [0x590] = 0x150511
        0x00000574:    6008        .`      STR      r0,[r1,#0]
        0x00000576:    4770        pG      BX       lr
    $d
        0x00000578:    10000020     ...    DCD    268435488
        0x0000057c:    e000edfc    ....    DCD    3758157308
        0x00000580:    c5acce55    U...    DCD    3316436565
        0x00000584:    e0000fb0    ....    DCD    3758100400
        0x00000588:    e0000e40    @...    DCD    3758100032
        0x0000058c:    e0000e00    ....    DCD    3758099968
        0x00000590:    00150511    ....    DCD    1377553
        0x00000594:    e0000e80    ....    DCD    3758100096
    $t
    i.am_hal_itm_print
    am_hal_itm_print
        0x00000598:    7802        .x      LDRB     r2,[r0,#0]
        0x0000059a:    2100        .!      MOVS     r1,#0
        0x0000059c:    2a00        .*      CMP      r2,#0
        0x0000059e:    bf08        ..      IT       EQ
        0x000005a0:    4770        pG      BXEQ     lr
        0x000005a2:    1c49        I.      ADDS     r1,r1,#1
        0x000005a4:    5c42        B\      LDRB     r2,[r0,r1]
        0x000005a6:    2a00        .*      CMP      r2,#0
        0x000005a8:    d1fb        ..      BNE      0x5a2 ; am_hal_itm_print + 10
        0x000005aa:    2900        .)      CMP      r1,#0
        0x000005ac:    bf08        ..      IT       EQ
        0x000005ae:    4770        pG      BXEQ     lr
        0x000005b0:    f810cb01    ....    LDRB     r12,[r0],#1
        0x000005b4:    f04f4260    O.`B    MOV      r2,#0xe0000000
        0x000005b8:    6813        .h      LDR      r3,[r2,#0]
        0x000005ba:    2b00        .+      CMP      r3,#0
        0x000005bc:    d0fc        ..      BEQ      0x5b8 ; am_hal_itm_print + 32
        0x000005be:    f882c000    ....    STRB     r12,[r2,#0]
        0x000005c2:    1e49        I.      SUBS     r1,r1,#1
        0x000005c4:    d1f4        ..      BNE      0x5b0 ; am_hal_itm_print + 24
        0x000005c6:    4770        pG      BX       lr
    i.am_hal_mcuctrl_fault_status
    am_hal_mcuctrl_fault_status
        0x000005c8:    490c        .I      LDR      r1,[pc,#48] ; [0x5fc] = 0x40020000
        0x000005ca:    f8d121cc    ...!    LDR      r2,[r1,#0x1cc]
        0x000005ce:    f0020301    ....    AND      r3,r2,#1
        0x000005d2:    7003        .p      STRB     r3,[r0,#0]
        0x000005d4:    f3c20340    ..@.    UBFX     r3,r2,#1,#1
        0x000005d8:    7203        .r      STRB     r3,[r0,#8]
        0x000005da:    f3c20280    ....    UBFX     r2,r2,#2,#1
        0x000005de:    7402        .t      STRB     r2,[r0,#0x10]
        0x000005e0:    f8d121c4    ...!    LDR      r2,[r1,#0x1c4]
        0x000005e4:    60c2        .`      STR      r2,[r0,#0xc]
        0x000005e6:    6842        Bh      LDR      r2,[r0,#4]
        0x000005e8:    f8d131c0    ...1    LDR      r3,[r1,#0x1c0]
        0x000005ec:    431a        .C      ORRS     r2,r2,r3
        0x000005ee:    6042        B`      STR      r2,[r0,#4]
        0x000005f0:    6942        Bi      LDR      r2,[r0,#0x14]
        0x000005f2:    f8d111c8    ....    LDR      r1,[r1,#0x1c8]
        0x000005f6:    4311        .C      ORRS     r1,r1,r2
        0x000005f8:    6141        Aa      STR      r1,[r0,#0x14]
        0x000005fa:    4770        pG      BX       lr
    $d
        0x000005fc:    40020000    ...@    DCD    1073872896
    $t
    i.am_hal_pwrctrl_bucks_init
    am_hal_pwrctrl_bucks_init
        0x00000600:    480e        .H      LDR      r0,[pc,#56] ; [0x63c] = 0x40021000
        0x00000602:    6841        Ah      LDR      r1,[r0,#4]
        0x00000604:    f0110f02    ....    TST      r1,#2
        0x00000608:    f04f0103    O...    MOV      r1,#3
        0x0000060c:    bf1c        ..      ITT      NE
        0x0000060e:    6842        Bh      LDRNE    r2,[r0,#4]
        0x00000610:    f0120f01    ....    TSTNE    r2,#1
        0x00000614:    d10b        ..      BNE      0x62e ; am_hal_pwrctrl_bucks_init + 46
        0x00000616:    6802        .h      LDR      r2,[r0,#0]
        0x00000618:    f0420202    B...    ORR      r2,r2,#2
        0x0000061c:    6002        .`      STR      r2,[r0,#0]
        0x0000061e:    6802        .h      LDR      r2,[r0,#0]
        0x00000620:    f0420201    B...    ORR      r2,r2,#1
        0x00000624:    6002        .`      STR      r2,[r0,#0]
        0x00000626:    6842        Bh      LDR      r2,[r0,#4]
        0x00000628:    ea310202    1...    BICS     r2,r1,r2
        0x0000062c:    d1fb        ..      BNE      0x626 ; am_hal_pwrctrl_bucks_init + 38
        0x0000062e:    6842        Bh      LDR      r2,[r0,#4]
        0x00000630:    ea310202    1...    BICS     r2,r1,r2
        0x00000634:    d1fb        ..      BNE      0x62e ; am_hal_pwrctrl_bucks_init + 46
        0x00000636:    2042        B       MOVS     r0,#0x42
        0x00000638:    f7ffbf58    ..X.    B.W      am_hal_flash_delay ; 0x4ec
    $d
        0x0000063c:    40021000    ...@    DCD    1073876992
    $t
    i.am_hal_pwrctrl_low_power_init
    am_hal_pwrctrl_low_power_init
        0x00000640:    4804        .H      LDR      r0,[pc,#16] ; [0x654] = 0x40021000
        0x00000642:    6981        .i      LDR      r1,[r0,#0x18]
        0x00000644:    f0410106    A...    ORR      r1,r1,#6
        0x00000648:    6181        .a      STR      r1,[r0,#0x18]
        0x0000064a:    6801        .h      LDR      r1,[r0,#0]
        0x0000064c:    f0210104    !...    BIC      r1,r1,#4
        0x00000650:    6001        .`      STR      r1,[r0,#0]
        0x00000652:    4770        pG      BX       lr
    $d
        0x00000654:    40021000    ...@    DCD    1073876992
    $t
    i.am_hal_pwrctrl_memory_enable
    am_hal_pwrctrl_memory_enable
        0x00000658:    b410        ..      PUSH     {r4}
        0x0000065a:    f8dfc170    ..p.    LDR      r12,[pc,#368] ; [0x7cc] = 0x40021000
        0x0000065e:    f5b06f00    ...o    CMP      r0,#0x800
        0x00000662:    d051        Q.      BEQ      0x708 ; am_hal_pwrctrl_memory_enable + 176
        0x00000664:    f5b05fc0    ..._    CMP      r0,#0x1800
        0x00000668:    d054        T.      BEQ      0x714 ; am_hal_pwrctrl_memory_enable + 188
        0x0000066a:    2801        .(      CMP      r0,#1
        0x0000066c:    d057        W.      BEQ      0x71e ; am_hal_pwrctrl_memory_enable + 198
        0x0000066e:    2803        .(      CMP      r0,#3
        0x00000670:    d05b        [.      BEQ      0x72a ; am_hal_pwrctrl_memory_enable + 210
        0x00000672:    2807        .(      CMP      r0,#7
        0x00000674:    d05f        _.      BEQ      0x736 ; am_hal_pwrctrl_memory_enable + 222
        0x00000676:    280f        .(      CMP      r0,#0xf
        0x00000678:    d063        c.      BEQ      0x742 ; am_hal_pwrctrl_memory_enable + 234
        0x0000067a:    281f        .(      CMP      r0,#0x1f
        0x0000067c:    d067        g.      BEQ      0x74e ; am_hal_pwrctrl_memory_enable + 246
        0x0000067e:    283f        ?(      CMP      r0,#0x3f
        0x00000680:    d06b        k.      BEQ      0x75a ; am_hal_pwrctrl_memory_enable + 258
        0x00000682:    287f        .(      CMP      r0,#0x7f
        0x00000684:    d072        r.      BEQ      0x76c ; am_hal_pwrctrl_memory_enable + 276
        0x00000686:    28ff        .(      CMP      r0,#0xff
        0x00000688:    d076        v.      BEQ      0x778 ; am_hal_pwrctrl_memory_enable + 288
        0x0000068a:    f5a07180    ...q    SUB      r1,r0,#0x100
        0x0000068e:    39ff        .9      SUBS     r1,r1,#0xff
        0x00000690:    d033        3.      BEQ      0x6fa ; am_hal_pwrctrl_memory_enable + 162
        0x00000692:    f5a07140    ..@q    SUB      r1,r0,#0x300
        0x00000696:    39ff        .9      SUBS     r1,r1,#0xff
        0x00000698:    d074        t.      BEQ      0x784 ; am_hal_pwrctrl_memory_enable + 300
        0x0000069a:    4a4d        MJ      LDR      r2,[pc,#308] ; [0x7d0] = 0x7ff00
        0x0000069c:    ebb02122    .."!    SUBS     r1,r0,r2,ASR #8
        0x000006a0:    bf08        ..      IT       EQ
        0x000006a2:    f24071ff    @..q    MOVEQ    r1,#0x7ff
        0x000006a6:    d075        u.      BEQ      0x794 ; am_hal_pwrctrl_memory_enable + 316
        0x000006a8:    f1b04f20    .. O    CMP      r0,#0xa0000000
        0x000006ac:    bf04        ..      ITT      EQ
        0x000006ae:    f04f4120    O. A    MOVEQ    r1,#0xa0000000
        0x000006b2:    0a8a        ..      LSREQ    r2,r1,#10
        0x000006b4:    d06e        n.      BEQ      0x794 ; am_hal_pwrctrl_memory_enable + 316
        0x000006b6:    f06f4120    o. A    MVN      r1,#0xa0000000
        0x000006ba:    4288        .B      CMP      r0,r1
        0x000006bc:    d16c        l.      BNE      0x798 ; am_hal_pwrctrl_memory_enable + 320
        0x000006be:    2100        .!      MOVS     r1,#0
        0x000006c0:    43c3        .C      MVNS     r3,r0
        0x000006c2:    460a        .F      MOV      r2,r1
        0x000006c4:    ea5f2093    _..     LSRS.W   r0,r3,#10
        0x000006c8:    f8dc4010    ...@    LDR      r4,[r12,#0x10]
        0x000006cc:    ea240303    $...    BIC      r3,r4,r3
        0x000006d0:    f8cc3010    ...0    STR      r3,[r12,#0x10]
        0x000006d4:    b129        ).      CBZ      r1,0x6e2 ; am_hal_pwrctrl_memory_enable + 138
        0x000006d6:    bf00        ..      NOP      
        0x000006d8:    f8dc3010    ...0    LDR      r3,[r12,#0x10]
        0x000006dc:    4319        .C      ORRS     r1,r1,r3
        0x000006de:    f8cc1010    ....    STR      r1,[r12,#0x10]
        0x000006e2:    2800        .(      CMP      r0,#0
        0x000006e4:    bf18        ..      IT       NE
        0x000006e6:    21c7        .!      MOVNE    r1,#0xc7
        0x000006e8:    d05c        \.      BEQ      0x7a4 ; am_hal_pwrctrl_memory_enable + 332
        0x000006ea:    bf00        ..      NOP      
        0x000006ec:    f8dc3014    ...0    LDR      r3,[r12,#0x14]
        0x000006f0:    4203        .B      TST      r3,r0
        0x000006f2:    d055        U.      BEQ      0x7a0 ; am_hal_pwrctrl_memory_enable + 328
        0x000006f4:    1e49        I.      SUBS     r1,r1,#1
        0x000006f6:    d1f9        ..      BNE      0x6ec ; am_hal_pwrctrl_memory_enable + 148
        0x000006f8:    e062        b.      B        0x7c0 ; am_hal_pwrctrl_memory_enable + 360
        0x000006fa:    f24011ff    @...    MOV      r1,#0x1ff
        0x000006fe:    f44f63c0    O..c    MOV      r3,#0x600
        0x00000702:    020a        ..      LSLS     r2,r1,#8
        0x00000704:    0218        ..      LSLS     r0,r3,#8
        0x00000706:    e7df        ..      B        0x6c8 ; am_hal_pwrctrl_memory_enable + 112
        0x00000708:    f44f6100    O..a    MOV      r1,#0x800
        0x0000070c:    004b        K.      LSLS     r3,r1,#1
        0x0000070e:    2220         "      MOVS     r2,#0x20
        0x00000710:    2040        @       MOVS     r0,#0x40
        0x00000712:    e7d9        ..      B        0x6c8 ; am_hal_pwrctrl_memory_enable + 112
        0x00000714:    2260        `"      MOVS     r2,#0x60
        0x00000716:    f44f51c0    O..Q    MOV      r1,#0x1800
        0x0000071a:    2000        .       MOVS     r0,#0
        0x0000071c:    e7dc        ..      B        0x6d8 ; am_hal_pwrctrl_memory_enable + 128
        0x0000071e:    2101        .!      MOVS     r1,#1
        0x00000720:    f24073fe    @..s    MOV      r3,#0x7fe
        0x00000724:    020a        ..      LSLS     r2,r1,#8
        0x00000726:    0218        ..      LSLS     r0,r3,#8
        0x00000728:    e7ce        ..      B        0x6c8 ; am_hal_pwrctrl_memory_enable + 112
        0x0000072a:    2103        .!      MOVS     r1,#3
        0x0000072c:    f24073fc    @..s    MOV      r3,#0x7fc
        0x00000730:    020a        ..      LSLS     r2,r1,#8
        0x00000732:    0218        ..      LSLS     r0,r3,#8
        0x00000734:    e7c8        ..      B        0x6c8 ; am_hal_pwrctrl_memory_enable + 112
        0x00000736:    2107        .!      MOVS     r1,#7
        0x00000738:    f44f63ff    O..c    MOV      r3,#0x7f8
        0x0000073c:    020a        ..      LSLS     r2,r1,#8
        0x0000073e:    0218        ..      LSLS     r0,r3,#8
        0x00000740:    e7c2        ..      B        0x6c8 ; am_hal_pwrctrl_memory_enable + 112
        0x00000742:    210f        .!      MOVS     r1,#0xf
        0x00000744:    f44f63fe    O..c    MOV      r3,#0x7f0
        0x00000748:    020a        ..      LSLS     r2,r1,#8
        0x0000074a:    0218        ..      LSLS     r0,r3,#8
        0x0000074c:    e7bc        ..      B        0x6c8 ; am_hal_pwrctrl_memory_enable + 112
        0x0000074e:    211f        .!      MOVS     r1,#0x1f
        0x00000750:    f44f63fc    O..c    MOV      r3,#0x7e0
        0x00000754:    020a        ..      LSLS     r2,r1,#8
        0x00000756:    0218        ..      LSLS     r0,r3,#8
        0x00000758:    e7b6        ..      B        0x6c8 ; am_hal_pwrctrl_memory_enable + 112
        0x0000075a:    213f        ?!      MOVS     r1,#0x3f
        0x0000075c:    f44f63f8    O..c    MOV      r3,#0x7c0
        0x00000760:    020a        ..      LSLS     r2,r1,#8
        0x00000762:    0218        ..      LSLS     r0,r3,#8
        0x00000764:    e7b0        ..      B        0x6c8 ; am_hal_pwrctrl_memory_enable + 112
        0x00000766:    e001        ..      B        0x76c ; am_hal_pwrctrl_memory_enable + 276
        0x00000768:    e006        ..      B        0x778 ; am_hal_pwrctrl_memory_enable + 288
        0x0000076a:    e00b        ..      B        0x784 ; am_hal_pwrctrl_memory_enable + 300
        0x0000076c:    217f        .!      MOVS     r1,#0x7f
        0x0000076e:    f44f63f0    O..c    MOV      r3,#0x780
        0x00000772:    020a        ..      LSLS     r2,r1,#8
        0x00000774:    0218        ..      LSLS     r0,r3,#8
        0x00000776:    e7a7        ..      B        0x6c8 ; am_hal_pwrctrl_memory_enable + 112
        0x00000778:    21ff        .!      MOVS     r1,#0xff
        0x0000077a:    f44f63e0    O..c    MOV      r3,#0x700
        0x0000077e:    020a        ..      LSLS     r2,r1,#8
        0x00000780:    0218        ..      LSLS     r0,r3,#8
        0x00000782:    e7a1        ..      B        0x6c8 ; am_hal_pwrctrl_memory_enable + 112
        0x00000784:    f24031ff    @..1    MOV      r1,#0x3ff
        0x00000788:    1c4b        K.      ADDS     r3,r1,#1
        0x0000078a:    020a        ..      LSLS     r2,r1,#8
        0x0000078c:    0218        ..      LSLS     r0,r3,#8
        0x0000078e:    e79b        ..      B        0x6c8 ; am_hal_pwrctrl_memory_enable + 112
        0x00000790:    e000        ..      B        0x794 ; am_hal_pwrctrl_memory_enable + 316
        0x00000792:    e001        ..      B        0x798 ; am_hal_pwrctrl_memory_enable + 320
        0x00000794:    2000        .       MOVS     r0,#0
        0x00000796:    e79f        ..      B        0x6d8 ; am_hal_pwrctrl_memory_enable + 128
        0x00000798:    490e        .I      LDR      r1,[pc,#56] ; [0x7d4] = 0xa0001fff
        0x0000079a:    4288        .B      CMP      r0,r1
        0x0000079c:    d0fa        ..      BEQ      0x794 ; am_hal_pwrctrl_memory_enable + 316
        0x0000079e:    e00f        ..      B        0x7c0 ; am_hal_pwrctrl_memory_enable + 360
        0x000007a0:    2900        .)      CMP      r1,#0
        0x000007a2:    dd0d        ..      BLE      0x7c0 ; am_hal_pwrctrl_memory_enable + 360
        0x000007a4:    2a00        .*      CMP      r2,#0
        0x000007a6:    bf18        ..      IT       NE
        0x000007a8:    20c7        .       MOVNE    r0,#0xc7
        0x000007aa:    d00c        ..      BEQ      0x7c6 ; am_hal_pwrctrl_memory_enable + 366
        0x000007ac:    f8dc1014    ....    LDR      r1,[r12,#0x14]
        0x000007b0:    ea320101    2...    BICS     r1,r2,r1
        0x000007b4:    d002        ..      BEQ      0x7bc ; am_hal_pwrctrl_memory_enable + 356
        0x000007b6:    1e40        @.      SUBS     r0,r0,#1
        0x000007b8:    d1f8        ..      BNE      0x7ac ; am_hal_pwrctrl_memory_enable + 340
        0x000007ba:    e001        ..      B        0x7c0 ; am_hal_pwrctrl_memory_enable + 360
        0x000007bc:    2800        .(      CMP      r0,#0
        0x000007be:    dc02        ..      BGT      0x7c6 ; am_hal_pwrctrl_memory_enable + 366
        0x000007c0:    bc10        ..      POP      {r4}
        0x000007c2:    2000        .       MOVS     r0,#0
        0x000007c4:    4770        pG      BX       lr
        0x000007c6:    bc10        ..      POP      {r4}
        0x000007c8:    2001        .       MOVS     r0,#1
        0x000007ca:    4770        pG      BX       lr
    $d
        0x000007cc:    40021000    ...@    DCD    1073876992
        0x000007d0:    0007ff00    ....    DCD    524032
        0x000007d4:    a0001fff    ....    DCD    2684362751
    $t
    i.am_hal_pwrctrl_periph_enable
    am_hal_pwrctrl_periph_enable
        0x000007d8:    b538        8.      PUSH     {r3-r5,lr}
        0x000007da:    0004        ..      MOVS     r4,r0
        0x000007dc:    d002        ..      BEQ      0x7e4 ; am_hal_pwrctrl_periph_enable + 12
        0x000007de:    1e60        `.      SUBS     r0,r4,#1
        0x000007e0:    4204        .B      TST      r4,r0
        0x000007e2:    d004        ..      BEQ      0x7ee ; am_hal_pwrctrl_periph_enable + 22
        0x000007e4:    a218        ..      ADR      r2,{pc}+0x64 ; 0x848
        0x000007e6:    215f        _!      MOVS     r1,#0x5f
        0x000007e8:    a024        $.      ADR      r0,{pc}+0x94 ; 0x87c
        0x000007ea:    f7fffe7e    ..~.    BL       am_hal_debug_error ; 0x4ea
        0x000007ee:    f7fffce1    ....    BL       am_hal_interrupt_master_disable ; 0x1b4
        0x000007f2:    4d27        'M      LDR      r5,[pc,#156] ; [0x890] = 0x40021000
        0x000007f4:    9000        ..      STR      r0,[sp,#0]
        0x000007f6:    68a8        .h      LDR      r0,[r5,#8]
        0x000007f8:    4320         C      ORRS     r0,r0,r4
        0x000007fa:    60a8        .`      STR      r0,[r5,#8]
        0x000007fc:    9800        ..      LDR      r0,[sp,#0]
        0x000007fe:    f7fffcdd    ....    BL       am_hal_interrupt_master_set ; 0x1bc
        0x00000802:    200e        .       MOVS     r0,#0xe
        0x00000804:    f7fffe72    ..r.    BL       am_hal_flash_delay ; 0x4ec
        0x00000808:    f0140f0e    ....    TST      r4,#0xe
        0x0000080c:    bf18        ..      IT       NE
        0x0000080e:    2004        .       MOVNE    r0,#4
        0x00000810:    d003        ..      BEQ      0x81a ; am_hal_pwrctrl_periph_enable + 66
        0x00000812:    6969        ii      LDR      r1,[r5,#0x14]
        0x00000814:    4201        .B      TST      r1,r0
        0x00000816:    d0fc        ..      BEQ      0x812 ; am_hal_pwrctrl_periph_enable + 58
        0x00000818:    bd38        8.      POP      {r3-r5,pc}
        0x0000081a:    f0140f70    ..p.    TST      r4,#0x70
        0x0000081e:    bf18        ..      IT       NE
        0x00000820:    2008        .       MOVNE    r0,#8
        0x00000822:    d1f6        ..      BNE      0x812 ; am_hal_pwrctrl_periph_enable + 58
        0x00000824:    f2401081    @...    MOV      r0,#0x181
        0x00000828:    4204        .B      TST      r4,r0
        0x0000082a:    bf18        ..      IT       NE
        0x0000082c:    2002        .       MOVNE    r0,#2
        0x0000082e:    d1f0        ..      BNE      0x812 ; am_hal_pwrctrl_periph_enable + 58
        0x00000830:    f4147f00    ....    TST      r4,#0x200
        0x00000834:    bf18        ..      IT       NE
        0x00000836:    2080        .       MOVNE    r0,#0x80
        0x00000838:    d1eb        ..      BNE      0x812 ; am_hal_pwrctrl_periph_enable + 58
        0x0000083a:    f4146f80    ...o    TST      r4,#0x400
        0x0000083e:    bf14        ..      ITE      NE
        0x00000840:    2010        .       MOVNE    r0,#0x10
        0x00000842:    f04f30ff    O..0    MOVEQ    r0,#0xffffffff
        0x00000846:    e7e4        ..      B        0x812 ; am_hal_pwrctrl_periph_enable + 58
    $d
        0x00000848:    6e6e6143    Cann    DCD    1852727619
        0x0000084c:    6520746f    ot e    DCD    1696625775
        0x00000850:    6c62616e    nabl    DCD    1818386798
        0x00000854:    6f6d2065    e mo    DCD    1869422693
        0x00000858:    74206572    re t    DCD    1948280178
        0x0000085c:    206e6168    han     DCD    544104808
        0x00000860:    20656e6f    one     DCD    543518319
        0x00000864:    69726570    peri    DCD    1769104752
        0x00000868:    72656870    pher    DCD    1919248496
        0x0000086c:    61206c61    al a    DCD    1629514849
        0x00000870:    20612074    t a     DCD    543236212
        0x00000874:    656d6974    time    DCD    1701669236
        0x00000878:    0000002e    ....    DCD    46
        0x0000087c:    685f6d61    am_h    DCD    1751084385
        0x00000880:    705f6c61    al_p    DCD    1885301857
        0x00000884:    74637277    wrct    DCD    1952674423
        0x00000888:    632e6c72    rl.c    DCD    1663986802
        0x0000088c:    00000000    ....    DCD    0
        0x00000890:    40021000    ...@    DCD    1073876992
    $t
    i.am_hal_queue_init
    am_hal_queue_init
        0x00000894:    f04f0c00    O...    MOV      r12,#0
        0x00000898:    f8c0c000    ....    STR      r12,[r0,#0]
        0x0000089c:    f8c0c004    ....    STR      r12,[r0,#4]
        0x000008a0:    e9c02104    ...!    STRD     r2,r1,[r0,#0x10]
        0x000008a4:    e9c0c302    ....    STRD     r12,r3,[r0,#8]
        0x000008a8:    4770        pG      BX       lr
    i.am_hal_queue_item_add
    am_hal_queue_item_add
        0x000008aa:    e92d41f0    -..A    PUSH     {r4-r8,lr}
        0x000008ae:    4604        .F      MOV      r4,r0
        0x000008b0:    6900        .i      LDR      r0,[r0,#0x10]
        0x000008b2:    2600        .&      MOVS     r6,#0
        0x000008b4:    fb00f502    ....    MUL      r5,r0,r2
        0x000008b8:    460f        .F      MOV      r7,r1
        0x000008ba:    f7fffc7b    ..{.    BL       am_hal_interrupt_master_disable ; 0x1b4
        0x000008be:    4603        .F      MOV      r3,r0
        0x000008c0:    e9d41002    ....    LDRD     r1,r0,[r4,#8]
        0x000008c4:    1a40        @.      SUBS     r0,r0,r1
        0x000008c6:    42a8        .B      CMP      r0,r5
        0x000008c8:    d338        8.      BCC      0x93c ; am_hal_queue_item_add + 146
        0x000008ca:    b39d        ..      CBZ      r5,0x934 ; am_hal_queue_item_add + 138
        0x000008cc:    1e78        x.      SUBS     r0,r7,#1
        0x000008ce:    f0150f01    ....    TST      r5,#1
        0x000008d2:    d00e        ..      BEQ      0x8f2 ; am_hal_queue_item_add + 72
        0x000008d4:    f8d4c000    ....    LDR      r12,[r4,#0]
        0x000008d8:    6962        bi      LDR      r2,[r4,#0x14]
        0x000008da:    f8101f01    ....    LDRB     r1,[r0,#1]!
        0x000008de:    f802100c    ....    STRB     r1,[r2,r12]
        0x000008e2:    6821        !h      LDR      r1,[r4,#0]
        0x000008e4:    68e2        .h      LDR      r2,[r4,#0xc]
        0x000008e6:    1c49        I.      ADDS     r1,r1,#1
        0x000008e8:    fbb1fcf2    ....    UDIV     r12,r1,r2
        0x000008ec:    fb02111c    ....    MLS      r1,r2,r12,r1
        0x000008f0:    6021        !`      STR      r1,[r4,#0]
        0x000008f2:    0869        i.      LSRS     r1,r5,#1
        0x000008f4:    d01e        ..      BEQ      0x934 ; am_hal_queue_item_add + 138
        0x000008f6:    f8d4c014    ....    LDR      r12,[r4,#0x14]
        0x000008fa:    6826        &h      LDR      r6,[r4,#0]
        0x000008fc:    7842        Bx      LDRB     r2,[r0,#1]
        0x000008fe:    f80c2006    ...     STRB     r2,[r12,r6]
        0x00000902:    6822        "h      LDR      r2,[r4,#0]
        0x00000904:    f8d4c00c    ....    LDR      r12,[r4,#0xc]
        0x00000908:    1c52        R.      ADDS     r2,r2,#1
        0x0000090a:    fbb2f6fc    ....    UDIV     r6,r2,r12
        0x0000090e:    fb0c2216    ..."    MLS      r2,r12,r6,r2
        0x00000912:    6022        "`      STR      r2,[r4,#0]
        0x00000914:    6966        fi      LDR      r6,[r4,#0x14]
        0x00000916:    f810cf02    ....    LDRB     r12,[r0,#2]!
        0x0000091a:    f806c002    ....    STRB     r12,[r6,r2]
        0x0000091e:    6822        "h      LDR      r2,[r4,#0]
        0x00000920:    f8d4c00c    ....    LDR      r12,[r4,#0xc]
        0x00000924:    1c52        R.      ADDS     r2,r2,#1
        0x00000926:    fbb2f6fc    ....    UDIV     r6,r2,r12
        0x0000092a:    fb0c2216    ..."    MLS      r2,r12,r6,r2
        0x0000092e:    6022        "`      STR      r2,[r4,#0]
        0x00000930:    1e49        I.      SUBS     r1,r1,#1
        0x00000932:    d1e0        ..      BNE      0x8f6 ; am_hal_queue_item_add + 76
        0x00000934:    68a0        .h      LDR      r0,[r4,#8]
        0x00000936:    2601        .&      MOVS     r6,#1
        0x00000938:    4428        (D      ADD      r0,r0,r5
        0x0000093a:    60a0        .`      STR      r0,[r4,#8]
        0x0000093c:    4618        .F      MOV      r0,r3
        0x0000093e:    f7fffc3d    ..=.    BL       am_hal_interrupt_master_set ; 0x1bc
        0x00000942:    4630        0F      MOV      r0,r6
        0x00000944:    e8bd81f0    ....    POP      {r4-r8,pc}
    i.am_hal_queue_item_get
    am_hal_queue_item_get
        0x00000948:    e92d41f0    -..A    PUSH     {r4-r8,lr}
        0x0000094c:    4604        .F      MOV      r4,r0
        0x0000094e:    6900        .i      LDR      r0,[r0,#0x10]
        0x00000950:    2600        .&      MOVS     r6,#0
        0x00000952:    fb00f502    ....    MUL      r5,r0,r2
        0x00000956:    460f        .F      MOV      r7,r1
        0x00000958:    f7fffc2c    ..,.    BL       am_hal_interrupt_master_disable ; 0x1b4
        0x0000095c:    4603        .F      MOV      r3,r0
        0x0000095e:    68a0        .h      LDR      r0,[r4,#8]
        0x00000960:    42a8        .B      CMP      r0,r5
        0x00000962:    d337        7.      BCC      0x9d4 ; am_hal_queue_item_get + 140
        0x00000964:    b395        ..      CBZ      r5,0x9cc ; am_hal_queue_item_get + 132
        0x00000966:    1e78        x.      SUBS     r0,r7,#1
        0x00000968:    f0150f01    ....    TST      r5,#1
        0x0000096c:    d00c        ..      BEQ      0x988 ; am_hal_queue_item_get + 64
        0x0000096e:    6862        bh      LDR      r2,[r4,#4]
        0x00000970:    6961        ai      LDR      r1,[r4,#0x14]
        0x00000972:    5c89        .\      LDRB     r1,[r1,r2]
        0x00000974:    f8001f01    ....    STRB     r1,[r0,#1]!
        0x00000978:    6861        ah      LDR      r1,[r4,#4]
        0x0000097a:    68e2        .h      LDR      r2,[r4,#0xc]
        0x0000097c:    1c49        I.      ADDS     r1,r1,#1
        0x0000097e:    fbb1fcf2    ....    UDIV     r12,r1,r2
        0x00000982:    fb02111c    ....    MLS      r1,r2,r12,r1
        0x00000986:    6061        a`      STR      r1,[r4,#4]
        0x00000988:    0869        i.      LSRS     r1,r5,#1
        0x0000098a:    d01f        ..      BEQ      0x9cc ; am_hal_queue_item_get + 132
        0x0000098c:    f8d4c004    ....    LDR      r12,[r4,#4]
        0x00000990:    6962        bi      LDR      r2,[r4,#0x14]
        0x00000992:    f812200c    ...     LDRB     r2,[r2,r12]
        0x00000996:    7042        Bp      STRB     r2,[r0,#1]
        0x00000998:    6862        bh      LDR      r2,[r4,#4]
        0x0000099a:    f8d4c00c    ....    LDR      r12,[r4,#0xc]
        0x0000099e:    1c52        R.      ADDS     r2,r2,#1
        0x000009a0:    fbb2f6fc    ....    UDIV     r6,r2,r12
        0x000009a4:    fb0c2216    ..."    MLS      r2,r12,r6,r2
        0x000009a8:    6062        b`      STR      r2,[r4,#4]
        0x000009aa:    f8d4c014    ....    LDR      r12,[r4,#0x14]
        0x000009ae:    f81c2002    ...     LDRB     r2,[r12,r2]
        0x000009b2:    f8002f02    .../    STRB     r2,[r0,#2]!
        0x000009b6:    6862        bh      LDR      r2,[r4,#4]
        0x000009b8:    f8d4c00c    ....    LDR      r12,[r4,#0xc]
        0x000009bc:    1c52        R.      ADDS     r2,r2,#1
        0x000009be:    fbb2f6fc    ....    UDIV     r6,r2,r12
        0x000009c2:    fb0c2216    ..."    MLS      r2,r12,r6,r2
        0x000009c6:    6062        b`      STR      r2,[r4,#4]
        0x000009c8:    1e49        I.      SUBS     r1,r1,#1
        0x000009ca:    d1df        ..      BNE      0x98c ; am_hal_queue_item_get + 68
        0x000009cc:    68a0        .h      LDR      r0,[r4,#8]
        0x000009ce:    1b40        @.      SUBS     r0,r0,r5
        0x000009d0:    2601        .&      MOVS     r6,#1
        0x000009d2:    60a0        .`      STR      r0,[r4,#8]
        0x000009d4:    4618        .F      MOV      r0,r3
        0x000009d6:    f7fffbf1    ....    BL       am_hal_interrupt_master_set ; 0x1bc
        0x000009da:    4630        0F      MOV      r0,r6
        0x000009dc:    e8bd81f0    ....    POP      {r4-r8,pc}
    i.am_hal_rtc_osc_disable
    am_hal_rtc_osc_disable
        0x000009e0:    f04f2040    O.@     MOV      r0,#0x40004000
        0x000009e4:    6d01        .m      LDR      r1,[r0,#0x50]
        0x000009e6:    f0410110    A...    ORR      r1,r1,#0x10
        0x000009ea:    6501        .e      STR      r1,[r0,#0x50]
        0x000009ec:    4770        pG      BX       lr
    i.am_hal_rtc_osc_select
    am_hal_rtc_osc_select
        0x000009ee:    f04f2140    O.@!    MOV      r1,#0x40004000
        0x000009f2:    2800        .(      CMP      r0,#0
        0x000009f4:    68c8        .h      LDR      r0,[r1,#0xc]
        0x000009f6:    bf14        ..      ITE      NE
        0x000009f8:    f0400080    @...    ORRNE    r0,r0,#0x80
        0x000009fc:    f0200080     ...    BICEQ    r0,r0,#0x80
        0x00000a00:    60c8        .`      STR      r0,[r1,#0xc]
        0x00000a02:    4770        pG      BX       lr
    i.am_hal_tpiu_enable
    am_hal_tpiu_enable
        0x00000a04:    e92d41f0    -..A    PUSH     {r4-r8,lr}
        0x00000a08:    4c1b        .L      LDR      r4,[pc,#108] ; [0xa78] = 0xe0040000
        0x00000a0a:    2600        .&      MOVS     r6,#0
        0x00000a0c:    6805        .h      LDR      r5,[r0,#0]
        0x00000a0e:    f8c46304    ...c    STR      r6,[r4,#0x304]
        0x00000a12:    4f1a        .O      LDR      r7,[pc,#104] ; [0xa7c] = 0xe0040f00
        0x00000a14:    f8df8068    ..h.    LDR      r8,[pc,#104] ; [0xa80] = 0x40020000
        0x00000a18:    2101        .!      MOVS     r1,#1
        0x00000a1a:    b30d        ..      CBZ      r5,0xa60 ; am_hal_tpiu_enable + 92
        0x00000a1c:    6061        a`      STR      r1,[r4,#4]
        0x00000a1e:    4919        .I      LDR      r1,[pc,#100] ; [0xa84] = 0x1da381
        0x00000a20:    f5a54061    ..a@    SUB      r0,r5,#0xe100
        0x00000a24:    4288        .B      CMP      r0,r1
        0x00000a26:    bf28        (.      IT       CS
        0x00000a28:    4d17        .M      LDRCS    r5,[pc,#92] ; [0xa88] = 0xf4240
        0x00000a2a:    f7fffcf9    ....    BL       am_hal_clkgen_sysclk_get ; 0x420
        0x00000a2e:    f1b03fff    ...?    CMP      r0,#0xffffffff
        0x00000a32:    bf1d        ..      ITTTE    NE
        0x00000a34:    08c0        ..      LSRNE    r0,r0,#3
        0x00000a36:    fbb0f0f5    ....    UDIVNE   r0,r0,r5
        0x00000a3a:    1e40        @.      SUBNE    r0,r0,#1
        0x00000a3c:    2005        .       MOVEQ    r0,#5
        0x00000a3e:    b280        ..      UXTH     r0,r0
        0x00000a40:    6120         a      STR      r0,[r4,#0x10]
        0x00000a42:    2002        .       MOVS     r0,#2
        0x00000a44:    f8c400f0    ....    STR      r0,[r4,#0xf0]
        0x00000a48:    603e        >`      STR      r6,[r7,#0]
        0x00000a4a:    f2402001    @..     MOV      r0,#0x201
        0x00000a4e:    bf00        ..      NOP      
        0x00000a50:    f8c80250    ..P.    STR      r0,[r8,#0x250]
        0x00000a54:    e8bd41f0    ...A    POP      {r4-r8,lr}
        0x00000a58:    f44f7047    O.Gp    MOV      r0,#0x31c
        0x00000a5c:    f7ffbd46    ..F.    B.W      am_hal_flash_delay ; 0x4ec
        0x00000a60:    6902        .i      LDR      r2,[r0,#0x10]
        0x00000a62:    6122        "a      STR      r2,[r4,#0x10]
        0x00000a64:    6882        .h      LDR      r2,[r0,#8]
        0x00000a66:    f8c420f0    ...     STR      r2,[r4,#0xf0]
        0x00000a6a:    7b02        .{      LDRB     r2,[r0,#0xc]
        0x00000a6c:    1e52        R.      SUBS     r2,r2,#1
        0x00000a6e:    4091        .@      LSLS     r1,r1,r2
        0x00000a70:    6061        a`      STR      r1,[r4,#4]
        0x00000a72:    603e        >`      STR      r6,[r7,#0]
        0x00000a74:    6840        @h      LDR      r0,[r0,#4]
        0x00000a76:    e7eb        ..      B        0xa50 ; am_hal_tpiu_enable + 76
    $d
        0x00000a78:    e0040000    ....    DCD    3758358528
        0x00000a7c:    e0040f00    ....    DCD    3758362368
        0x00000a80:    40020000    ...@    DCD    1073872896
        0x00000a84:    001da381    ....    DCD    1942401
        0x00000a88:    000f4240    @B..    DCD    1000000
    $t
    i.am_hal_uart_char_receive_buffered
    am_hal_uart_char_receive_buffered
        0x00000a8c:    e92d41f0    -..A    PUSH     {r4-r8,lr}
        0x00000a90:    460f        .F      MOV      r7,r1
        0x00000a92:    490c        .I      LDR      r1,[pc,#48] ; [0xac4] = 0x10000354
        0x00000a94:    eb000040    ..@.    ADD      r0,r0,r0,LSL #1
        0x00000a98:    4615        .F      MOV      r5,r2
        0x00000a9a:    2600        .&      MOVS     r6,#0
        0x00000a9c:    eb0104c0    ....    ADD      r4,r1,r0,LSL #3
        0x00000aa0:    e007        ..      B        0xab2 ; am_hal_uart_char_receive_buffered + 38
        0x00000aa2:    4620         F      MOV      r0,r4
        0x00000aa4:    2201        ."      MOVS     r2,#1
        0x00000aa6:    4639        9F      MOV      r1,r7
        0x00000aa8:    f7ffff4e    ..N.    BL       am_hal_queue_item_get ; 0x948
        0x00000aac:    1e6d        m.      SUBS     r5,r5,#1
        0x00000aae:    1c76        v.      ADDS     r6,r6,#1
        0x00000ab0:    1c7f        ..      ADDS     r7,r7,#1
        0x00000ab2:    68a0        .h      LDR      r0,[r4,#8]
        0x00000ab4:    2800        .(      CMP      r0,#0
        0x00000ab6:    bf18        ..      IT       NE
        0x00000ab8:    2d00        .-      CMPNE    r5,#0
        0x00000aba:    d1f2        ..      BNE      0xaa2 ; am_hal_uart_char_receive_buffered + 22
        0x00000abc:    4630        0F      MOV      r0,r6
        0x00000abe:    e8bd81f0    ....    POP      {r4-r8,pc}
    $d
        0x00000ac2:    0000        ..      DCW    0
        0x00000ac4:    10000354    T...    DCD    268436308
    $t
    i.am_hal_uart_clock_enable
    am_hal_uart_clock_enable
        0x00000ac8:    b510        ..      PUSH     {r4,lr}
        0x00000aca:    4604        .F      MOV      r4,r0
        0x00000acc:    2101        .!      MOVS     r1,#1
        0x00000ace:    f7fffceb    ....    BL       am_hal_clkgen_uarten_set ; 0x4a8
        0x00000ad2:    0320         .      LSLS     r0,r4,#12
        0x00000ad4:    f1004080    ...@    ADD      r0,r0,#0x40000000
        0x00000ad8:    f50030e0    ...0    ADD      r0,r0,#0x1c000
        0x00000adc:    6b01        .k      LDR      r1,[r0,#0x30]
        0x00000ade:    f0410108    A...    ORR      r1,r1,#8
        0x00000ae2:    6301        .c      STR      r1,[r0,#0x30]
        0x00000ae4:    6b01        .k      LDR      r1,[r0,#0x30]
        0x00000ae6:    f0410110    A...    ORR      r1,r1,#0x10
        0x00000aea:    6301        .c      STR      r1,[r0,#0x30]
        0x00000aec:    bd10        ..      POP      {r4,pc}
        0x00000aee:    0000        ..      MOVS     r0,r0
    i.am_hal_uart_config
    am_hal_uart_config
        0x00000af0:    b5f8        ..      PUSH     {r3-r7,lr}
        0x00000af2:    460d        .F      MOV      r5,r1
        0x00000af4:    4604        .F      MOV      r4,r0
        0x00000af6:    f7fffb5d    ..].    BL       am_hal_interrupt_master_disable ; 0x1b4
        0x00000afa:    9000        ..      STR      r0,[sp,#0]
        0x00000afc:    0320         .      LSLS     r0,r4,#12
        0x00000afe:    f1004480    ...D    ADD      r4,r0,#0x40000000
        0x00000b02:    f50434e0    ...4    ADD      r4,r4,#0x1c000
        0x00000b06:    6b20         k      LDR      r0,[r4,#0x30]
        0x00000b08:    f0200001     ...    BIC      r0,r0,#1
        0x00000b0c:    f4207040     .@p    BIC      r0,r0,#0x300
        0x00000b10:    6320         c      STR      r0,[r4,#0x30]
        0x00000b12:    9800        ..      LDR      r0,[sp,#0]
        0x00000b14:    f7fffb52    ..R.    BL       am_hal_interrupt_master_set ; 0x1bc
        0x00000b18:    6828        (h      LDR      r0,[r5,#0]
        0x00000b1a:    4918        .I      LDR      r1,[pc,#96] ; [0xb7c] = 0x16e3600
        0x00000b1c:    0100        ..      LSLS     r0,r0,#4
        0x00000b1e:    fbb1f7f0    ....    UDIV     r7,r1,r0
        0x00000b22:    0189        ..      LSLS     r1,r1,#6
        0x00000b24:    fbb1f0f0    ....    UDIV     r0,r1,r0
        0x00000b28:    01b9        ..      LSLS     r1,r7,#6
        0x00000b2a:    1a46        F.      SUBS     r6,r0,r1
        0x00000b2c:    b927        '.      CBNZ     r7,0xb38 ; am_hal_uart_config + 72
        0x00000b2e:    a214        ..      ADR      r2,{pc}+0x52 ; 0xb80
        0x00000b30:    2165        e!      MOVS     r1,#0x65
        0x00000b32:    a020         .      ADR      r0,{pc}+0x82 ; 0xbb4
        0x00000b34:    f7fffcd9    ....    BL       am_hal_debug_error ; 0x4ea
        0x00000b38:    6267        gb      STR      r7,[r4,#0x24]
        0x00000b3a:    6267        gb      STR      r7,[r4,#0x24]
        0x00000b3c:    62a6        .b      STR      r6,[r4,#0x28]
        0x00000b3e:    f7fffb39    ..9.    BL       am_hal_interrupt_master_disable ; 0x1b4
        0x00000b42:    9000        ..      STR      r0,[sp,#0]
        0x00000b44:    6b20         k      LDR      r0,[r4,#0x30]
        0x00000b46:    f2403101    @..1    MOV      r1,#0x301
        0x00000b4a:    4308        .C      ORRS     r0,r0,r1
        0x00000b4c:    6320         c      STR      r0,[r4,#0x30]
        0x00000b4e:    9800        ..      LDR      r0,[sp,#0]
        0x00000b50:    f7fffb34    ..4.    BL       am_hal_interrupt_master_set ; 0x1bc
        0x00000b54:    7a29        )z      LDRB     r1,[r5,#8]
        0x00000b56:    6868        hh      LDR      r0,[r5,#4]
        0x00000b58:    2900        .)      CMP      r1,#0
        0x00000b5a:    bf18        ..      IT       NE
        0x00000b5c:    2108        .!      MOVNE    r1,#8
        0x00000b5e:    4308        .C      ORRS     r0,r0,r1
        0x00000b60:    68e9        .h      LDR      r1,[r5,#0xc]
        0x00000b62:    4308        .C      ORRS     r0,r0,r1
        0x00000b64:    6ae1        .j      LDR      r1,[r4,#0x2c]
        0x00000b66:    4308        .C      ORRS     r0,r0,r1
        0x00000b68:    62e0        .b      STR      r0,[r4,#0x2c]
        0x00000b6a:    6b20         k      LDR      r0,[r4,#0x30]
        0x00000b6c:    6929        )i      LDR      r1,[r5,#0x10]
        0x00000b6e:    4308        .C      ORRS     r0,r0,r1
        0x00000b70:    6320         c      STR      r0,[r4,#0x30]
        0x00000b72:    6b20         k      LDR      r0,[r4,#0x30]
        0x00000b74:    f0400010    @...    ORR      r0,r0,#0x10
        0x00000b78:    6320         c      STR      r0,[r4,#0x30]
        0x00000b7a:    bdf8        ..      POP      {r3-r7,pc}
    $d
        0x00000b7c:    016e3600    .6n.    DCD    24000000
        0x00000b80:    65746e49    Inte    DCD    1702129225
        0x00000b84:    20726567    ger     DCD    544367975
        0x00000b88:    69766964    divi    DCD    1769367908
        0x00000b8c:    20726f73    sor     DCD    544370547
        0x00000b90:    5453554d    MUST    DCD    1414747469
        0x00000b94:    20656220     be     DCD    543515168
        0x00000b98:    61657267    grea    DCD    1634038375
        0x00000b9c:    20726574    ter     DCD    544367988
        0x00000ba0:    6e616874    than    DCD    1851877492
        0x00000ba4:    20726f20     or     DCD    544370464
        0x00000ba8:    61757165    equa    DCD    1635086693
        0x00000bac:    6f74206c    l to    DCD    1869881452
        0x00000bb0:    002e3120     1..    DCD    3027232
        0x00000bb4:    685f6d61    am_h    DCD    1751084385
        0x00000bb8:    755f6c61    al_u    DCD    1969187937
        0x00000bbc:    2e747261    art.    DCD    779383393
        0x00000bc0:    00000063    c...    DCD    99
    $t
    i.am_hal_uart_disable
    am_hal_uart_disable
        0x00000bc4:    b538        8.      PUSH     {r3-r5,lr}
        0x00000bc6:    4604        .F      MOV      r4,r0
        0x00000bc8:    f7fffaf4    ....    BL       am_hal_interrupt_master_disable ; 0x1b4
        0x00000bcc:    9000        ..      STR      r0,[sp,#0]
        0x00000bce:    0320         .      LSLS     r0,r4,#12
        0x00000bd0:    f1004080    ...@    ADD      r0,r0,#0x40000000
        0x00000bd4:    f50030e0    ...0    ADD      r0,r0,#0x1c000
        0x00000bd8:    6b01        .k      LDR      r1,[r0,#0x30]
        0x00000bda:    f0210101    !...    BIC      r1,r1,#1
        0x00000bde:    f4217140    !.@q    BIC      r1,r1,#0x300
        0x00000be2:    6301        .c      STR      r1,[r0,#0x30]
        0x00000be4:    9800        ..      LDR      r0,[sp,#0]
        0x00000be6:    e8bd4038    ..8@    POP      {r3-r5,lr}
        0x00000bea:    f7ffbae7    ....    B        am_hal_interrupt_master_set ; 0x1bc
    i.am_hal_uart_enable
    am_hal_uart_enable
        0x00000bee:    b538        8.      PUSH     {r3-r5,lr}
        0x00000bf0:    4604        .F      MOV      r4,r0
        0x00000bf2:    f7fffadf    ....    BL       am_hal_interrupt_master_disable ; 0x1b4
        0x00000bf6:    9000        ..      STR      r0,[sp,#0]
        0x00000bf8:    0320         .      LSLS     r0,r4,#12
        0x00000bfa:    f1004080    ...@    ADD      r0,r0,#0x40000000
        0x00000bfe:    f50030e0    ...0    ADD      r0,r0,#0x1c000
        0x00000c02:    6b01        .k      LDR      r1,[r0,#0x30]
        0x00000c04:    f2403201    @..2    MOV      r2,#0x301
        0x00000c08:    4311        .C      ORRS     r1,r1,r2
        0x00000c0a:    6301        .c      STR      r1,[r0,#0x30]
        0x00000c0c:    9800        ..      LDR      r0,[sp,#0]
        0x00000c0e:    e8bd4038    ..8@    POP      {r3-r5,lr}
        0x00000c12:    f7ffbad3    ....    B        am_hal_interrupt_master_set ; 0x1bc
    i.am_hal_uart_fifo_config
    am_hal_uart_fifo_config
        0x00000c16:    0300        ..      LSLS     r0,r0,#12
        0x00000c18:    f1004080    ...@    ADD      r0,r0,#0x40000000
        0x00000c1c:    f50030e0    ...0    ADD      r0,r0,#0x1c000
        0x00000c20:    6ac2        .j      LDR      r2,[r0,#0x2c]
        0x00000c22:    f0420210    B...    ORR      r2,r2,#0x10
        0x00000c26:    62c2        .b      STR      r2,[r0,#0x2c]
        0x00000c28:    6341        Ac      STR      r1,[r0,#0x34]
        0x00000c2a:    4770        pG      BX       lr
    i.am_hal_uart_flags_get
    am_hal_uart_flags_get
        0x00000c2c:    0300        ..      LSLS     r0,r0,#12
        0x00000c2e:    f1004080    ...@    ADD      r0,r0,#0x40000000
        0x00000c32:    f50030e0    ...0    ADD      r0,r0,#0x1c000
        0x00000c36:    6980        .i      LDR      r0,[r0,#0x18]
        0x00000c38:    4770        pG      BX       lr
        0x00000c3a:    0000        ..      MOVS     r0,r0
    i.am_hal_uart_get_status_buffered
    am_hal_uart_get_status_buffered
        0x00000c3c:    eb000040    ..@.    ADD      r0,r0,r0,LSL #1
        0x00000c40:    b121        !.      CBZ      r1,0xc4c ; am_hal_uart_get_status_buffered + 16
        0x00000c42:    4b07        .K      LDR      r3,[pc,#28] ; [0xc60] = 0x10000354
        0x00000c44:    eb0303c0    ....    ADD      r3,r3,r0,LSL #3
        0x00000c48:    689b        .h      LDR      r3,[r3,#8]
        0x00000c4a:    600b        .`      STR      r3,[r1,#0]
        0x00000c4c:    2a00        .*      CMP      r2,#0
        0x00000c4e:    bf08        ..      IT       EQ
        0x00000c50:    4770        pG      BXEQ     lr
        0x00000c52:    4904        .I      LDR      r1,[pc,#16] ; [0xc64] = 0x10000324
        0x00000c54:    eb0100c0    ....    ADD      r0,r1,r0,LSL #3
        0x00000c58:    6880        .h      LDR      r0,[r0,#8]
        0x00000c5a:    6010        .`      STR      r0,[r2,#0]
        0x00000c5c:    4770        pG      BX       lr
    $d
        0x00000c5e:    0000        ..      DCW    0
        0x00000c60:    10000354    T...    DCD    268436308
        0x00000c64:    10000324    $...    DCD    268436260
    $t
    i.am_hal_uart_init_buffered
    am_hal_uart_init_buffered
        0x00000c68:    e92d41f0    -..A    PUSH     {r4-r8,lr}
        0x00000c6c:    eb000540    ..@.    ADD      r5,r0,r0,LSL #1
        0x00000c70:    0300        ..      LSLS     r0,r0,#12
        0x00000c72:    f1004480    ...D    ADD      r4,r0,#0x40000000
        0x00000c76:    9f06        ..      LDR      r7,[sp,#0x18]
        0x00000c78:    461e        .F      MOV      r6,r3
        0x00000c7a:    f50434e0    ...4    ADD      r4,r4,#0x1c000
        0x00000c7e:    2900        .)      CMP      r1,#0
        0x00000c80:    bf18        ..      IT       NE
        0x00000c82:    2a00        .*      CMPNE    r2,#0
        0x00000c84:    d00b        ..      BEQ      0xc9e ; am_hal_uart_init_buffered + 54
        0x00000c86:    6ba0        .k      LDR      r0,[r4,#0x38]
        0x00000c88:    f0400040    @.@.    ORR      r0,r0,#0x40
        0x00000c8c:    63a0        .c      STR      r0,[r4,#0x38]
        0x00000c8e:    480e        .H      LDR      r0,[pc,#56] ; [0xcc8] = 0x10000354
        0x00000c90:    4613        .F      MOV      r3,r2
        0x00000c92:    eb0000c5    ....    ADD      r0,r0,r5,LSL #3
        0x00000c96:    f04f0201    O...    MOV      r2,#1
        0x00000c9a:    f7fffdfb    ....    BL       am_hal_queue_init ; 0x894
        0x00000c9e:    2e00        ..      CMP      r6,#0
        0x00000ca0:    bf14        ..      ITE      NE
        0x00000ca2:    2f00        ./      CMPNE    r7,#0
        0x00000ca4:    e8bd81f0    ....    POPEQ    {r4-r8,pc}
        0x00000ca8:    6ba0        .k      LDR      r0,[r4,#0x38]
        0x00000caa:    f0400020    @. .    ORR      r0,r0,#0x20
        0x00000cae:    63a0        .c      STR      r0,[r4,#0x38]
        0x00000cb0:    4806        .H      LDR      r0,[pc,#24] ; [0xccc] = 0x10000324
        0x00000cb2:    463b        ;F      MOV      r3,r7
        0x00000cb4:    eb0000c5    ....    ADD      r0,r0,r5,LSL #3
        0x00000cb8:    4631        1F      MOV      r1,r6
        0x00000cba:    e8bd41f0    ...A    POP      {r4-r8,lr}
        0x00000cbe:    f04f0201    O...    MOV      r2,#1
        0x00000cc2:    f7ffbde7    ....    B.W      am_hal_queue_init ; 0x894
    $d
        0x00000cc6:    0000        ..      DCW    0
        0x00000cc8:    10000354    T...    DCD    268436308
        0x00000ccc:    10000324    $...    DCD    268436260
    $t
    i.am_hal_uart_int_clear
    am_hal_uart_int_clear
        0x00000cd0:    0300        ..      LSLS     r0,r0,#12
        0x00000cd2:    f1004080    ...@    ADD      r0,r0,#0x40000000
        0x00000cd6:    f50030e0    ...0    ADD      r0,r0,#0x1c000
        0x00000cda:    6441        Ad      STR      r1,[r0,#0x44]
        0x00000cdc:    4770        pG      BX       lr
    i.am_hal_uart_int_enable
    am_hal_uart_int_enable
        0x00000cde:    0300        ..      LSLS     r0,r0,#12
        0x00000ce0:    f1004080    ...@    ADD      r0,r0,#0x40000000
        0x00000ce4:    f50030e0    ...0    ADD      r0,r0,#0x1c000
        0x00000ce8:    6b82        .k      LDR      r2,[r0,#0x38]
        0x00000cea:    4311        .C      ORRS     r1,r1,r2
        0x00000cec:    6381        .c      STR      r1,[r0,#0x38]
        0x00000cee:    4770        pG      BX       lr
    i.am_hal_uart_int_status_get
    am_hal_uart_int_status_get
        0x00000cf0:    0300        ..      LSLS     r0,r0,#12
        0x00000cf2:    f1004080    ...@    ADD      r0,r0,#0x40000000
        0x00000cf6:    f50030e0    ...0    ADD      r0,r0,#0x1c000
        0x00000cfa:    2900        .)      CMP      r1,#0
        0x00000cfc:    bf14        ..      ITE      NE
        0x00000cfe:    6c00        .l      LDRNE    r0,[r0,#0x40]
        0x00000d00:    6bc0        .k      LDREQ    r0,[r0,#0x3c]
        0x00000d02:    4770        pG      BX       lr
    i.am_hal_uart_pwrctrl_enable
    am_hal_uart_pwrctrl_enable
        0x00000d04:    b510        ..      PUSH     {r4,lr}
        0x00000d06:    4604        .F      MOV      r4,r0
        0x00000d08:    2802        .(      CMP      r0,#2
        0x00000d0a:    d305        ..      BCC      0xd18 ; am_hal_uart_pwrctrl_enable + 20
        0x00000d0c:    a205        ..      ADR      r2,{pc}+0x18 ; 0xd24
        0x00000d0e:    f44f71d8    O..q    MOV      r1,#0x1b0
        0x00000d12:    a011        ..      ADR      r0,{pc}+0x46 ; 0xd58
        0x00000d14:    f7fffbe9    ....    BL       am_hal_debug_error ; 0x4ea
        0x00000d18:    2080        .       MOVS     r0,#0x80
        0x00000d1a:    40a0        .@      LSLS     r0,r0,r4
        0x00000d1c:    e8bd4010    ...@    POP      {r4,lr}
        0x00000d20:    f7ffbd5a    ..Z.    B.W      am_hal_pwrctrl_periph_enable ; 0x7d8
    $d
        0x00000d24:    69797254    Tryi    DCD    1769566804
        0x00000d28:    7420676e    ng t    DCD    1948280686
        0x00000d2c:    6964206f    o di    DCD    1768169583
        0x00000d30:    6c626173    sabl    DCD    1818386803
        0x00000d34:    20612065    e a     DCD    543236197
        0x00000d38:    54524155    UART    DCD    1414676821
        0x00000d3c:    646f6d20     mod    DCD    1685024032
        0x00000d40:    20656c75    ule     DCD    543517813
        0x00000d44:    74616874    that    DCD    1952540788
        0x00000d48:    656f6420     doe    DCD    1701798944
        0x00000d4c:    74276e73    sn't    DCD    1948741235
        0x00000d50:    69786520     exi    DCD    1769497888
        0x00000d54:    00007473    st..    DCD    29811
        0x00000d58:    685f6d61    am_h    DCD    1751084385
        0x00000d5c:    755f6c61    al_u    DCD    1969187937
        0x00000d60:    2e747261    art.    DCD    779383393
        0x00000d64:    00000063    c...    DCD    99
    $t
    i.am_hal_uart_service_buffered_timeout_save
    am_hal_uart_service_buffered_timeout_save
        0x00000d68:    e92d43f8    -..C    PUSH     {r3-r9,lr}
        0x00000d6c:    4606        .F      MOV      r6,r0
        0x00000d6e:    2000        .       MOVS     r0,#0
        0x00000d70:    460f        .F      MOV      r7,r1
        0x00000d72:    f0110f50    ..P.    TST      r1,#0x50
        0x00000d76:    ea4f3106    O..1    LSL      r1,r6,#12
        0x00000d7a:    f88d0000    ....    STRB     r0,[sp,#0]
        0x00000d7e:    4605        .F      MOV      r5,r0
        0x00000d80:    f1014480    ...D    ADD      r4,r1,#0x40000000
        0x00000d84:    eb060046    ..F.    ADD      r0,r6,r6,LSL #1
        0x00000d88:    f50434e0    ...4    ADD      r4,r4,#0x1c000
        0x00000d8c:    d034        4.      BEQ      0xdf8 ; am_hal_uart_service_buffered_timeout_save + 144
        0x00000d8e:    6b61        ak      LDR      r1,[r4,#0x34]
        0x00000d90:    f0010138    ..8.    AND      r1,r1,#0x38
        0x00000d94:    2910        .)      CMP      r1,#0x10
        0x00000d96:    bf08        ..      IT       EQ
        0x00000d98:    2210        ."      MOVEQ    r2,#0x10
        0x00000d9a:    d012        ..      BEQ      0xdc2 ; am_hal_uart_service_buffered_timeout_save + 90
        0x00000d9c:    dc08        ..      BGT      0xdb0 ; am_hal_uart_service_buffered_timeout_save + 72
        0x00000d9e:    2900        .)      CMP      r1,#0
        0x00000da0:    bf08        ..      IT       EQ
        0x00000da2:    2204        ."      MOVEQ    r2,#4
        0x00000da4:    d00d        ..      BEQ      0xdc2 ; am_hal_uart_service_buffered_timeout_save + 90
        0x00000da6:    2908        .)      CMP      r1,#8
        0x00000da8:    bf08        ..      IT       EQ
        0x00000daa:    2208        ."      MOVEQ    r2,#8
        0x00000dac:    d009        ..      BEQ      0xdc2 ; am_hal_uart_service_buffered_timeout_save + 90
        0x00000dae:    e007        ..      B        0xdc0 ; am_hal_uart_service_buffered_timeout_save + 88
        0x00000db0:    2918        .)      CMP      r1,#0x18
        0x00000db2:    bf08        ..      IT       EQ
        0x00000db4:    2218        ."      MOVEQ    r2,#0x18
        0x00000db6:    d004        ..      BEQ      0xdc2 ; am_hal_uart_service_buffered_timeout_save + 90
        0x00000db8:    2920         )      CMP      r1,#0x20
        0x00000dba:    bf08        ..      IT       EQ
        0x00000dbc:    221c        ."      MOVEQ    r2,#0x1c
        0x00000dbe:    d000        ..      BEQ      0xdc2 ; am_hal_uart_service_buffered_timeout_save + 90
        0x00000dc0:    2220         "      MOVS     r2,#0x20
        0x00000dc2:    69a1        .i      LDR      r1,[r4,#0x18]
        0x00000dc4:    f0110f10    ....    TST      r1,#0x10
        0x00000dc8:    d116        ..      BNE      0xdf8 ; am_hal_uart_service_buffered_timeout_save + 144
        0x00000dca:    491a        .I      LDR      r1,[pc,#104] ; [0xe34] = 0x10000354
        0x00000dcc:    f1a20901    ....    SUB      r9,r2,#1
        0x00000dd0:    eb0108c0    ....    ADD      r8,r1,r0,LSL #3
        0x00000dd4:    6822        "h      LDR      r2,[r4,#0]
        0x00000dd6:    f4126f70    ..po    TST      r2,#0xf00
        0x00000dda:    d106        ..      BNE      0xdea ; am_hal_uart_service_buffered_timeout_save + 130
        0x00000ddc:    f88d2000    ...     STRB     r2,[sp,#0]
        0x00000de0:    4640        @F      MOV      r0,r8
        0x00000de2:    2201        ."      MOVS     r2,#1
        0x00000de4:    4669        iF      MOV      r1,sp
        0x00000de6:    f7fffd60    ..`.    BL       am_hal_queue_item_add ; 0x8aa
        0x00000dea:    1c6d        m.      ADDS     r5,r5,#1
        0x00000dec:    454d        ME      CMP      r5,r9
        0x00000dee:    d203        ..      BCS      0xdf8 ; am_hal_uart_service_buffered_timeout_save + 144
        0x00000df0:    69a0        .i      LDR      r0,[r4,#0x18]
        0x00000df2:    f0100f10    ....    TST      r0,#0x10
        0x00000df6:    d0ed        ..      BEQ      0xdd4 ; am_hal_uart_service_buffered_timeout_save + 108
        0x00000df8:    480f        .H      LDR      r0,[pc,#60] ; [0xe38] = 0x10000324
        0x00000dfa:    eb060246    ..F.    ADD      r2,r6,r6,LSL #1
        0x00000dfe:    f0170f20    .. .    TST      r7,#0x20
        0x00000e02:    eb0005c2    ....    ADD      r5,r0,r2,LSL #3
        0x00000e06:    bf08        ..      IT       EQ
        0x00000e08:    e8bd83f8    ....    POPEQ    {r3-r9,pc}
        0x00000e0c:    e007        ..      B        0xe1e ; am_hal_uart_service_buffered_timeout_save + 182
        0x00000e0e:    4628        (F      MOV      r0,r5
        0x00000e10:    2201        ."      MOVS     r2,#1
        0x00000e12:    4669        iF      MOV      r1,sp
        0x00000e14:    f7fffd98    ....    BL       am_hal_queue_item_get ; 0x948
        0x00000e18:    f89d0000    ....    LDRB     r0,[sp,#0]
        0x00000e1c:    6020         `      STR      r0,[r4,#0]
        0x00000e1e:    68a8        .h      LDR      r0,[r5,#8]
        0x00000e20:    2800        .(      CMP      r0,#0
        0x00000e22:    bf08        ..      IT       EQ
        0x00000e24:    e8bd83f8    ....    POPEQ    {r3-r9,pc}
        0x00000e28:    69a0        .i      LDR      r0,[r4,#0x18]
        0x00000e2a:    f0100f20    .. .    TST      r0,#0x20
        0x00000e2e:    d0ee        ..      BEQ      0xe0e ; am_hal_uart_service_buffered_timeout_save + 166
        0x00000e30:    e8bd83f8    ....    POP      {r3-r9,pc}
    $d
        0x00000e34:    10000354    T...    DCD    268436308
        0x00000e38:    10000324    $...    DCD    268436260
    $t
    i.am_hal_uart_string_transmit_buffered
    am_hal_uart_string_transmit_buffered
        0x00000e3c:    b570        p.      PUSH     {r4-r6,lr}
        0x00000e3e:    460c        .F      MOV      r4,r1
        0x00000e40:    7809        .x      LDRB     r1,[r1,#0]
        0x00000e42:    2900        .)      CMP      r1,#0
        0x00000e44:    bf08        ..      IT       EQ
        0x00000e46:    bd70        p.      POPEQ    {r4-r6,pc}
        0x00000e48:    0301        ..      LSLS     r1,r0,#12
        0x00000e4a:    f1014680    ...F    ADD      r6,r1,#0x40000000
        0x00000e4e:    490d        .I      LDR      r1,[pc,#52] ; [0xe84] = 0x10000324
        0x00000e50:    eb000040    ..@.    ADD      r0,r0,r0,LSL #1
        0x00000e54:    f50636e0    ...6    ADD      r6,r6,#0x1c000
        0x00000e58:    eb0105c0    ....    ADD      r5,r1,r0,LSL #3
        0x00000e5c:    68a8        .h      LDR      r0,[r5,#8]
        0x00000e5e:    2800        .(      CMP      r0,#0
        0x00000e60:    bf01        ..      ITTTT    EQ
        0x00000e62:    69b0        .i      LDREQ    r0,[r6,#0x18]
        0x00000e64:    f0100f20    .. .    TSTEQ    r0,#0x20
        0x00000e68:    7820         x      LDRBEQ   r0,[r4,#0]
        0x00000e6a:    6030        0`      STREQ    r0,[r6,#0]
        0x00000e6c:    d005        ..      BEQ      0xe7a ; am_hal_uart_string_transmit_buffered + 62
        0x00000e6e:    4628        (F      MOV      r0,r5
        0x00000e70:    f04f0201    O...    MOV      r2,#1
        0x00000e74:    4621        !F      MOV      r1,r4
        0x00000e76:    f7fffd18    ....    BL       am_hal_queue_item_add ; 0x8aa
        0x00000e7a:    f8140f01    ....    LDRB     r0,[r4,#1]!
        0x00000e7e:    2800        .(      CMP      r0,#0
        0x00000e80:    d1ec        ..      BNE      0xe5c ; am_hal_uart_string_transmit_buffered + 32
        0x00000e82:    bd70        p.      POP      {r4-r6,pc}
    $d
        0x00000e84:    10000324    $...    DCD    268436260
    $t
    i.am_hal_vcomp_disable
    am_hal_vcomp_disable
        0x00000e88:    4901        .I      LDR      r1,[pc,#4] ; [0xe90] = 0x4000c000
        0x00000e8a:    2037        7       MOVS     r0,#0x37
        0x00000e8c:    6088        .`      STR      r0,[r1,#8]
        0x00000e8e:    4770        pG      BX       lr
    $d
        0x00000e90:    4000c000    ...@    DCD    1073790976
    $t
    i.am_uart_isr
    am_uart_isr
        0x00000e94:    b51c        ..      PUSH     {r2-r4,lr}
        0x00000e96:    2100        .!      MOVS     r1,#0
        0x00000e98:    4608        .F      MOV      r0,r1
        0x00000e9a:    f7ffff29    ..).    BL       am_hal_uart_int_status_get ; 0xcf0
        0x00000e9e:    4604        .F      MOV      r4,r0
        0x00000ea0:    4621        !F      MOV      r1,r4
        0x00000ea2:    2000        .       MOVS     r0,#0
        0x00000ea4:    f7ffff14    ....    BL       am_hal_uart_int_clear ; 0xcd0
        0x00000ea8:    f0040070    ..p.    AND      r0,r4,#0x70
        0x00000eac:    b118        ..      CBZ      r0,0xeb6 ; am_uart_isr + 34
        0x00000eae:    4621        !F      MOV      r1,r4
        0x00000eb0:    2000        .       MOVS     r0,#0
        0x00000eb2:    f7ffff59    ..Y.    BL       am_hal_uart_service_buffered_timeout_save ; 0xd68
        0x00000eb6:    f0040040    ..@.    AND      r0,r4,#0x40
        0x00000eba:    b128        (.      CBZ      r0,0xec8 ; am_uart_isr + 52
        0x00000ebc:    2001        .       MOVS     r0,#1
        0x00000ebe:    4912        .I      LDR      r1,[pc,#72] ; [0xf08] = 0x10000000
        0x00000ec0:    7008        .p      STRB     r0,[r1,#0]
        0x00000ec2:    a012        ..      ADR      r0,{pc}+0x4a ; 0xf0c
        0x00000ec4:    f000f892    ....    BL       am_util_stdio_printf ; 0xfec
        0x00000ec8:    466a        jF      MOV      r2,sp
        0x00000eca:    a901        ..      ADD      r1,sp,#4
        0x00000ecc:    2000        .       MOVS     r0,#0
        0x00000ece:    f7fffeb5    ....    BL       am_hal_uart_get_status_buffered ; 0xc3c
        0x00000ed2:    f0040010    ....    AND      r0,r4,#0x10
        0x00000ed6:    b110        ..      CBZ      r0,0xede ; am_uart_isr + 74
        0x00000ed8:    a00f        ..      ADR      r0,{pc}+0x40 ; 0xf18
        0x00000eda:    f000f887    ....    BL       am_util_stdio_printf ; 0xfec
        0x00000ede:    f0040001    ....    AND      r0,r4,#1
        0x00000ee2:    b110        ..      CBZ      r0,0xeea ; am_uart_isr + 86
        0x00000ee4:    a00e        ..      ADR      r0,{pc}+0x3c ; 0xf20
        0x00000ee6:    f000f881    ....    BL       am_util_stdio_printf ; 0xfec
        0x00000eea:    466a        jF      MOV      r2,sp
        0x00000eec:    a901        ..      ADD      r1,sp,#4
        0x00000eee:    2000        .       MOVS     r0,#0
        0x00000ef0:    f7fffea4    ....    BL       am_hal_uart_get_status_buffered ; 0xc3c
        0x00000ef4:    9801        ..      LDR      r0,[sp,#4]
        0x00000ef6:    2880        .(      CMP      r0,#0x80
        0x00000ef8:    d305        ..      BCC      0xf06 ; am_uart_isr + 114
        0x00000efa:    2001        .       MOVS     r0,#1
        0x00000efc:    490a        .I      LDR      r1,[pc,#40] ; [0xf28] = 0x10000001
        0x00000efe:    7008        .p      STRB     r0,[r1,#0]
        0x00000f00:    a00a        ..      ADR      r0,{pc}+0x2c ; 0xf2c
        0x00000f02:    f000f873    ..s.    BL       am_util_stdio_printf ; 0xfec
        0x00000f06:    bd1c        ..      POP      {r2-r4,pc}
    $d
        0x00000f08:    10000000    ....    DCD    268435456
        0x00000f0c:    4f4d540a    .TMO    DCD    1330467850
        0x00000f10:    202c5455    UT,     DCD    539776085
        0x00000f14:    00000000    ....    DCD    0
        0x00000f18:    5852202c    , RX    DCD    1481777196
        0x00000f1c:    00000020     ...    DCD    32
        0x00000f20:    5854202c    , TX    DCD    1481908268
        0x00000f24:    00504d43    CMP.    DCD    5262659
        0x00000f28:    10000001    ....    DCD    268435457
        0x00000f2c:    5852202c    , RX    DCD    1481777196
        0x00000f30:    00000046    F...    DCD    70
    $t
    i.am_util_faultisr_collect_data
    am_util_faultisr_collect_data
        0x00000f34:    b092        ..      SUB      sp,sp,#0x48
        0x00000f36:    4604        .F      MOV      r4,r0
        0x00000f38:    2118        .!      MOVS     r1,#0x18
        0x00000f3a:    4668        hF      MOV      r0,sp
        0x00000f3c:    f7fff94e    ..N.    BL       __aeabi_memclr4 ; 0x1dc
        0x00000f40:    2500        .%      MOVS     r5,#0
        0x00000f42:    9510        ..      STR      r5,[sp,#0x40]
        0x00000f44:    4828        (H      LDR      r0,[pc,#160] ; [0xfe8] = 0xe000ed28
        0x00000f46:    6800        .h      LDR      r0,[r0,#0]
        0x00000f48:    9010        ..      STR      r0,[sp,#0x40]
        0x00000f4a:    9810        ..      LDR      r0,[sp,#0x40]
        0x00000f4c:    b2c0        ..      UXTB     r0,r0
        0x00000f4e:    f88d0044    ..D.    STRB     r0,[sp,#0x44]
        0x00000f52:    9810        ..      LDR      r0,[sp,#0x40]
        0x00000f54:    0a00        ..      LSRS     r0,r0,#8
        0x00000f56:    f88d0045    ..E.    STRB     r0,[sp,#0x45]
        0x00000f5a:    9810        ..      LDR      r0,[sp,#0x40]
        0x00000f5c:    f64f71ff    O..q    MOV      r1,#0xffff
        0x00000f60:    ea014010    ...@    AND      r0,r1,r0,LSR #16
        0x00000f64:    f8ad0046    ..F.    STRH     r0,[sp,#0x46]
        0x00000f68:    481f        .H      LDR      r0,[pc,#124] ; [0xfe8] = 0xe000ed28
        0x00000f6a:    3010        .0      ADDS     r0,r0,#0x10
        0x00000f6c:    6800        .h      LDR      r0,[r0,#0]
        0x00000f6e:    900f        ..      STR      r0,[sp,#0x3c]
        0x00000f70:    f89d0045    ..E.    LDRB     r0,[sp,#0x45]
        0x00000f74:    f0000002    ....    AND      r0,r0,#2
        0x00000f78:    b120         .      CBZ      r0,0xf84 ; am_util_faultisr_collect_data + 80
        0x00000f7a:    4621        !F      MOV      r1,r4
        0x00000f7c:    2006        .       MOVS     r0,#6
        0x00000f7e:    f7fff910    ....    BL       getStackedReg ; 0x1a2
        0x00000f82:    e001        ..      B        0xf88 ; am_util_faultisr_collect_data + 84
        0x00000f84:    f04f30ff    O..0    MOV      r0,#0xffffffff
        0x00000f88:    900e        ..      STR      r0,[sp,#0x38]
        0x00000f8a:    4621        !F      MOV      r1,r4
        0x00000f8c:    2000        .       MOVS     r0,#0
        0x00000f8e:    f7fff908    ....    BL       getStackedReg ; 0x1a2
        0x00000f92:    9006        ..      STR      r0,[sp,#0x18]
        0x00000f94:    4621        !F      MOV      r1,r4
        0x00000f96:    2001        .       MOVS     r0,#1
        0x00000f98:    f7fff903    ....    BL       getStackedReg ; 0x1a2
        0x00000f9c:    9007        ..      STR      r0,[sp,#0x1c]
        0x00000f9e:    4621        !F      MOV      r1,r4
        0x00000fa0:    2002        .       MOVS     r0,#2
        0x00000fa2:    f7fff8fe    ....    BL       getStackedReg ; 0x1a2
        0x00000fa6:    9008        ..      STR      r0,[sp,#0x20]
        0x00000fa8:    4621        !F      MOV      r1,r4
        0x00000faa:    2003        .       MOVS     r0,#3
        0x00000fac:    f7fff8f9    ....    BL       getStackedReg ; 0x1a2
        0x00000fb0:    9009        ..      STR      r0,[sp,#0x24]
        0x00000fb2:    4621        !F      MOV      r1,r4
        0x00000fb4:    2004        .       MOVS     r0,#4
        0x00000fb6:    f7fff8f4    ....    BL       getStackedReg ; 0x1a2
        0x00000fba:    900a        ..      STR      r0,[sp,#0x28]
        0x00000fbc:    4621        !F      MOV      r1,r4
        0x00000fbe:    2005        .       MOVS     r0,#5
        0x00000fc0:    f7fff8ef    ....    BL       getStackedReg ; 0x1a2
        0x00000fc4:    900b        ..      STR      r0,[sp,#0x2c]
        0x00000fc6:    4621        !F      MOV      r1,r4
        0x00000fc8:    2006        .       MOVS     r0,#6
        0x00000fca:    f7fff8ea    ....    BL       getStackedReg ; 0x1a2
        0x00000fce:    900c        ..      STR      r0,[sp,#0x30]
        0x00000fd0:    4621        !F      MOV      r1,r4
        0x00000fd2:    2007        .       MOVS     r0,#7
        0x00000fd4:    f7fff8e5    ....    BL       getStackedReg ; 0x1a2
        0x00000fd8:    900d        ..      STR      r0,[sp,#0x34]
        0x00000fda:    4668        hF      MOV      r0,sp
        0x00000fdc:    f7fffaf4    ....    BL       am_hal_mcuctrl_fault_status ; 0x5c8
        0x00000fe0:    bf00        ..      NOP      
        0x00000fe2:    bf00        ..      NOP      
        0x00000fe4:    e7fe        ..      B        0xfe4 ; am_util_faultisr_collect_data + 176
    $d
        0x00000fe6:    0000        ..      DCW    0
        0x00000fe8:    e000ed28    (...    DCD    3758157096
    $t
    i.am_util_stdio_printf
    am_util_stdio_printf
        0x00000fec:    b40f        ..      PUSH     {r0-r3}
        0x00000fee:    b538        8.      PUSH     {r3-r5,lr}
        0x00000ff0:    480b        .H      LDR      r0,[pc,#44] ; [0x1020] = 0x10000018
        0x00000ff2:    6800        .h      LDR      r0,[r0,#0]
        0x00000ff4:    b918        ..      CBNZ     r0,0xffe ; am_util_stdio_printf + 18
        0x00000ff6:    2000        .       MOVS     r0,#0
        0x00000ff8:    bc38        8.      POP      {r3-r5}
        0x00000ffa:    f85dfb14    ]...    LDR      pc,[sp],#0x14
        0x00000ffe:    a805        ..      ADD      r0,sp,#0x14
        0x00001000:    9000        ..      STR      r0,[sp,#0]
        0x00001002:    4808        .H      LDR      r0,[pc,#32] ; [0x1024] = 0x10000224
        0x00001004:    9a00        ..      LDR      r2,[sp,#0]
        0x00001006:    9904        ..      LDR      r1,[sp,#0x10]
        0x00001008:    f000f814    ....    BL       am_util_stdio_vsprintf ; 0x1034
        0x0000100c:    4604        .F      MOV      r4,r0
        0x0000100e:    2000        .       MOVS     r0,#0
        0x00001010:    9000        ..      STR      r0,[sp,#0]
        0x00001012:    4804        .H      LDR      r0,[pc,#16] ; [0x1024] = 0x10000224
        0x00001014:    4902        .I      LDR      r1,[pc,#8] ; [0x1020] = 0x10000018
        0x00001016:    6809        .h      LDR      r1,[r1,#0]
        0x00001018:    4788        .G      BLX      r1
        0x0000101a:    4620         F      MOV      r0,r4
        0x0000101c:    e7ec        ..      B        0xff8 ; am_util_stdio_printf + 12
    $d
        0x0000101e:    0000        ..      DCW    0
        0x00001020:    10000018    ....    DCD    268435480
        0x00001024:    10000224    $...    DCD    268436004
    $t
    i.am_util_stdio_printf_init
    am_util_stdio_printf_init
        0x00001028:    4901        .I      LDR      r1,[pc,#4] ; [0x1030] = 0x10000018
        0x0000102a:    6008        .`      STR      r0,[r1,#0]
        0x0000102c:    4770        pG      BX       lr
    $d
        0x0000102e:    0000        ..      DCW    0
        0x00001030:    10000018    ....    DCD    268435480
    $t
    i.am_util_stdio_vsprintf
    am_util_stdio_vsprintf
        0x00001034:    e92d4ff7    -..O    PUSH     {r0-r2,r4-r11,lr}
        0x00001038:    ed2d8b02    -...    VPUSH    {d8}
        0x0000103c:    b08a        ..      SUB      sp,sp,#0x28
        0x0000103e:    4604        .F      MOV      r4,r0
        0x00001040:    460d        .F      MOV      r5,r1
        0x00001042:    f04f0900    O...    MOV      r9,#0
        0x00001046:    2000        .       MOVS     r0,#0
        0x00001048:    9000        ..      STR      r0,[sp,#0]
        0x0000104a:    e1b9        ..      B        0x13c0 ; am_util_stdio_vsprintf + 908
        0x0000104c:    2006        .       MOVS     r0,#6
        0x0000104e:    9006        ..      STR      r0,[sp,#0x18]
        0x00001050:    7828        (x      LDRB     r0,[r5,#0]
        0x00001052:    2825        %(      CMP      r0,#0x25
        0x00001054:    d012        ..      BEQ      0x107c ; am_util_stdio_vsprintf + 72
        0x00001056:    b16c        l.      CBZ      r4,0x1074 ; am_util_stdio_vsprintf + 64
        0x00001058:    7828        (x      LDRB     r0,[r5,#0]
        0x0000105a:    280a        .(      CMP      r0,#0xa
        0x0000105c:    d107        ..      BNE      0x106e ; am_util_stdio_vsprintf + 58
        0x0000105e:    48de        .H      LDR      r0,[pc,#888] ; [0x13d8] = 0x1000001c
        0x00001060:    7800        .x      LDRB     r0,[r0,#0]
        0x00001062:    b120         .      CBZ      r0,0x106e ; am_util_stdio_vsprintf + 58
        0x00001064:    200d        .       MOVS     r0,#0xd
        0x00001066:    f8040b01    ....    STRB     r0,[r4],#1
        0x0000106a:    f1090901    ....    ADD      r9,r9,#1
        0x0000106e:    7828        (x      LDRB     r0,[r5,#0]
        0x00001070:    f8040b01    ....    STRB     r0,[r4],#1
        0x00001074:    1c6d        m.      ADDS     r5,r5,#1
        0x00001076:    f1090901    ....    ADD      r9,r9,#1
        0x0000107a:    e1a1        ..      B        0x13c0 ; am_util_stdio_vsprintf + 908
        0x0000107c:    1c6d        m.      ADDS     r5,r5,#1
        0x0000107e:    2000        .       MOVS     r0,#0
        0x00001080:    9002        ..      STR      r0,[sp,#8]
        0x00001082:    9003        ..      STR      r0,[sp,#0xc]
        0x00001084:    2020                MOVS     r0,#0x20
        0x00001086:    9004        ..      STR      r0,[sp,#0x10]
        0x00001088:    7828        (x      LDRB     r0,[r5,#0]
        0x0000108a:    2830        0(      CMP      r0,#0x30
        0x0000108c:    d101        ..      BNE      0x1092 ; am_util_stdio_vsprintf + 94
        0x0000108e:    9004        ..      STR      r0,[sp,#0x10]
        0x00001090:    1c6d        m.      ADDS     r5,r5,#1
        0x00001092:    a907        ..      ADD      r1,sp,#0x1c
        0x00001094:    4628        (F      MOV      r0,r5
        0x00001096:    f000f9a7    ....    BL       decstr_to_int ; 0x13e8
        0x0000109a:    4606        .F      MOV      r6,r0
        0x0000109c:    9807        ..      LDR      r0,[sp,#0x1c]
        0x0000109e:    4405        .D      ADD      r5,r5,r0
        0x000010a0:    7828        (x      LDRB     r0,[r5,#0]
        0x000010a2:    2873        s(      CMP      r0,#0x73
        0x000010a4:    d002        ..      BEQ      0x10ac ; am_util_stdio_vsprintf + 120
        0x000010a6:    2e00        ..      CMP      r6,#0
        0x000010a8:    da00        ..      BGE      0x10ac ; am_util_stdio_vsprintf + 120
        0x000010aa:    4276        vB      RSBS     r6,r6,#0
        0x000010ac:    7828        (x      LDRB     r0,[r5,#0]
        0x000010ae:    282e        .(      CMP      r0,#0x2e
        0x000010b0:    d107        ..      BNE      0x10c2 ; am_util_stdio_vsprintf + 142
        0x000010b2:    1c6d        m.      ADDS     r5,r5,#1
        0x000010b4:    a907        ..      ADD      r1,sp,#0x1c
        0x000010b6:    4628        (F      MOV      r0,r5
        0x000010b8:    f000f996    ....    BL       decstr_to_int ; 0x13e8
        0x000010bc:    9006        ..      STR      r0,[sp,#0x18]
        0x000010be:    9807        ..      LDR      r0,[sp,#0x1c]
        0x000010c0:    4405        .D      ADD      r5,r5,r0
        0x000010c2:    7828        (x      LDRB     r0,[r5,#0]
        0x000010c4:    286c        l(      CMP      r0,#0x6c
        0x000010c6:    d106        ..      BNE      0x10d6 ; am_util_stdio_vsprintf + 162
        0x000010c8:    1c6d        m.      ADDS     r5,r5,#1
        0x000010ca:    7828        (x      LDRB     r0,[r5,#0]
        0x000010cc:    286c        l(      CMP      r0,#0x6c
        0x000010ce:    d102        ..      BNE      0x10d6 ; am_util_stdio_vsprintf + 162
        0x000010d0:    1c6d        m.      ADDS     r5,r5,#1
        0x000010d2:    2001        .       MOVS     r0,#1
        0x000010d4:    9002        ..      STR      r0,[sp,#8]
        0x000010d6:    7828        (x      LDRB     r0,[r5,#0]
        0x000010d8:    2866        f(      CMP      r0,#0x66
        0x000010da:    d06f        o.      BEQ      0x11bc ; am_util_stdio_vsprintf + 392
        0x000010dc:    dc08        ..      BGT      0x10f0 ; am_util_stdio_vsprintf + 188
        0x000010de:    2846        F(      CMP      r0,#0x46
        0x000010e0:    d06d        m.      BEQ      0x11be ; am_util_stdio_vsprintf + 394
        0x000010e2:    2858        X(      CMP      r0,#0x58
        0x000010e4:    d05c        \.      BEQ      0x11a0 ; am_util_stdio_vsprintf + 364
        0x000010e6:    2863        c(      CMP      r0,#0x63
        0x000010e8:    d00b        ..      BEQ      0x1102 ; am_util_stdio_vsprintf + 206
        0x000010ea:    2864        d(      CMP      r0,#0x64
        0x000010ec:    d168        h.      BNE      0x11c0 ; am_util_stdio_vsprintf + 396
        0x000010ee:    e0c3        ..      B        0x1278 ; am_util_stdio_vsprintf + 580
        0x000010f0:    2869        i(      CMP      r0,#0x69
        0x000010f2:    d07d        }.      BEQ      0x11f0 ; am_util_stdio_vsprintf + 444
        0x000010f4:    2873        s(      CMP      r0,#0x73
        0x000010f6:    d011        ..      BEQ      0x111c ; am_util_stdio_vsprintf + 232
        0x000010f8:    2875        u(      CMP      r0,#0x75
        0x000010fa:    d07a        z.      BEQ      0x11f2 ; am_util_stdio_vsprintf + 446
        0x000010fc:    2878        x(      CMP      r0,#0x78
        0x000010fe:    d1f5        ..      BNE      0x10ec ; am_util_stdio_vsprintf + 184
        0x00001100:    e04b        K.      B        0x119a ; am_util_stdio_vsprintf + 358
        0x00001102:    980e        ..      LDR      r0,[sp,#0x38]
        0x00001104:    f8101b04    ....    LDRB     r1,[r0],#4
        0x00001108:    900e        ..      STR      r0,[sp,#0x38]
        0x0000110a:    b2c8        ..      UXTB     r0,r1
        0x0000110c:    9005        ..      STR      r0,[sp,#0x14]
        0x0000110e:    b114        ..      CBZ      r4,0x1116 ; am_util_stdio_vsprintf + 226
        0x00001110:    9805        ..      LDR      r0,[sp,#0x14]
        0x00001112:    f8040b01    ....    STRB     r0,[r4],#1
        0x00001116:    f1090901    ....    ADD      r9,r9,#1
        0x0000111a:    e14e        N.      B        0x13ba ; am_util_stdio_vsprintf + 902
        0x0000111c:    980e        ..      LDR      r0,[sp,#0x38]
        0x0000111e:    f850bb04    P...    LDR      r11,[r0],#4
        0x00001122:    900e        ..      STR      r0,[sp,#0x38]
        0x00001124:    4658        XF      MOV      r0,r11
        0x00001126:    f000fbbd    ....    BL       simple_strlen ; 0x18a4
        0x0000112a:    9000        ..      STR      r0,[sp,#0]
        0x0000112c:    2e00        ..      CMP      r6,#0
        0x0000112e:    dd11        ..      BLE      0x1154 ; am_util_stdio_vsprintf + 288
        0x00001130:    9800        ..      LDR      r0,[sp,#0]
        0x00001132:    42b0        .B      CMP      r0,r6
        0x00001134:    d20e        ..      BCS      0x1154 ; am_util_stdio_vsprintf + 288
        0x00001136:    9800        ..      LDR      r0,[sp,#0]
        0x00001138:    1a36        6.      SUBS     r6,r6,r0
        0x0000113a:    4632        2F      MOV      r2,r6
        0x0000113c:    4620         F      MOV      r0,r4
        0x0000113e:    9904        ..      LDR      r1,[sp,#0x10]
        0x00001140:    f000fb9f    ....    BL       padbuffer ; 0x1882
        0x00001144:    4606        .F      MOV      r6,r0
        0x00001146:    b10c        ..      CBZ      r4,0x114c ; am_util_stdio_vsprintf + 280
        0x00001148:    4630        0F      MOV      r0,r6
        0x0000114a:    e000        ..      B        0x114e ; am_util_stdio_vsprintf + 282
        0x0000114c:    2000        .       MOVS     r0,#0
        0x0000114e:    4404        .D      ADD      r4,r4,r0
        0x00001150:    44b1        .D      ADD      r9,r9,r6
        0x00001152:    2600        .&      MOVS     r6,#0
        0x00001154:    e008        ..      B        0x1168 ; am_util_stdio_vsprintf + 308
        0x00001156:    b11c        ..      CBZ      r4,0x1160 ; am_util_stdio_vsprintf + 300
        0x00001158:    f89b0000    ....    LDRB     r0,[r11,#0]
        0x0000115c:    f8040b01    ....    STRB     r0,[r4],#1
        0x00001160:    f10b0b01    ....    ADD      r11,r11,#1
        0x00001164:    f1090901    ....    ADD      r9,r9,#1
        0x00001168:    f89b0000    ....    LDRB     r0,[r11,#0]
        0x0000116c:    2800        .(      CMP      r0,#0
        0x0000116e:    d1f2        ..      BNE      0x1156 ; am_util_stdio_vsprintf + 290
        0x00001170:    b196        ..      CBZ      r6,0x1198 ; am_util_stdio_vsprintf + 356
        0x00001172:    4276        vB      RSBS     r6,r6,#0
        0x00001174:    9800        ..      LDR      r0,[sp,#0]
        0x00001176:    42b0        .B      CMP      r0,r6
        0x00001178:    d20e        ..      BCS      0x1198 ; am_util_stdio_vsprintf + 356
        0x0000117a:    9800        ..      LDR      r0,[sp,#0]
        0x0000117c:    1a36        6.      SUBS     r6,r6,r0
        0x0000117e:    4632        2F      MOV      r2,r6
        0x00001180:    4620         F      MOV      r0,r4
        0x00001182:    9904        ..      LDR      r1,[sp,#0x10]
        0x00001184:    f000fb7d    ..}.    BL       padbuffer ; 0x1882
        0x00001188:    4606        .F      MOV      r6,r0
        0x0000118a:    b10c        ..      CBZ      r4,0x1190 ; am_util_stdio_vsprintf + 348
        0x0000118c:    4630        0F      MOV      r0,r6
        0x0000118e:    e000        ..      B        0x1192 ; am_util_stdio_vsprintf + 350
        0x00001190:    2000        .       MOVS     r0,#0
        0x00001192:    4404        .D      ADD      r4,r4,r0
        0x00001194:    44b1        .D      ADD      r9,r9,r6
        0x00001196:    2600        .&      MOVS     r6,#0
        0x00001198:    e10f        ..      B        0x13ba ; am_util_stdio_vsprintf + 902
        0x0000119a:    2001        .       MOVS     r0,#1
        0x0000119c:    9003        ..      STR      r0,[sp,#0xc]
        0x0000119e:    bf00        ..      NOP      
        0x000011a0:    9802        ..      LDR      r0,[sp,#8]
        0x000011a2:    b170        p.      CBZ      r0,0x11c2 ; am_util_stdio_vsprintf + 398
        0x000011a4:    980e        ..      LDR      r0,[sp,#0x38]
        0x000011a6:    1dc0        ..      ADDS     r0,r0,#7
        0x000011a8:    f0200007     ...    BIC      r0,r0,#7
        0x000011ac:    4601        .F      MOV      r1,r0
        0x000011ae:    900e        ..      STR      r0,[sp,#0x38]
        0x000011b0:    6800        .h      LDR      r0,[r0,#0]
        0x000011b2:    6849        Ih      LDR      r1,[r1,#4]
        0x000011b4:    9a0e        ..      LDR      r2,[sp,#0x38]
        0x000011b6:    3208        .2      ADDS     r2,r2,#8
        0x000011b8:    920e        ..      STR      r2,[sp,#0x38]
        0x000011ba:    e008        ..      B        0x11ce ; am_util_stdio_vsprintf + 410
        0x000011bc:    e0c3        ..      B        0x1346 ; am_util_stdio_vsprintf + 786
        0x000011be:    e0c3        ..      B        0x1348 ; am_util_stdio_vsprintf + 788
        0x000011c0:    e0f4        ..      B        0x13ac ; am_util_stdio_vsprintf + 888
        0x000011c2:    980e        ..      LDR      r0,[sp,#0x38]
        0x000011c4:    6800        .h      LDR      r0,[r0,#0]
        0x000011c6:    990e        ..      LDR      r1,[sp,#0x38]
        0x000011c8:    1d09        ..      ADDS     r1,r1,#4
        0x000011ca:    910e        ..      STR      r1,[sp,#0x38]
        0x000011cc:    2100        .!      MOVS     r1,#0
        0x000011ce:    4607        .F      MOV      r7,r0
        0x000011d0:    4688        .F      MOV      r8,r1
        0x000011d2:    b19e        ..      CBZ      r6,0x11fc ; am_util_stdio_vsprintf + 456
        0x000011d4:    4638        8F      MOV      r0,r7
        0x000011d6:    4641        AF      MOV      r1,r8
        0x000011d8:    f000fb0a    ....    BL       ndigits_in_hex ; 0x17f0
        0x000011dc:    1a36        6.      SUBS     r6,r6,r0
        0x000011de:    4632        2F      MOV      r2,r6
        0x000011e0:    4620         F      MOV      r0,r4
        0x000011e2:    9904        ..      LDR      r1,[sp,#0x10]
        0x000011e4:    f000fb4d    ..M.    BL       padbuffer ; 0x1882
        0x000011e8:    4606        .F      MOV      r6,r0
        0x000011ea:    b11c        ..      CBZ      r4,0x11f4 ; am_util_stdio_vsprintf + 448
        0x000011ec:    4630        0F      MOV      r0,r6
        0x000011ee:    e002        ..      B        0x11f6 ; am_util_stdio_vsprintf + 450
        0x000011f0:    e043        C.      B        0x127a ; am_util_stdio_vsprintf + 582
        0x000011f2:    e00e        ..      B        0x1212 ; am_util_stdio_vsprintf + 478
        0x000011f4:    2000        .       MOVS     r0,#0
        0x000011f6:    4404        .D      ADD      r4,r4,r0
        0x000011f8:    44b1        .D      ADD      r9,r9,r6
        0x000011fa:    2600        .&      MOVS     r6,#0
        0x000011fc:    4622        "F      MOV      r2,r4
        0x000011fe:    4638        8F      MOV      r0,r7
        0x00001200:    4641        AF      MOV      r1,r8
        0x00001202:    9b03        ..      LDR      r3,[sp,#0xc]
        0x00001204:    f000fc17    ....    BL       uint64_to_hexstr ; 0x1a36
        0x00001208:    4682        .F      MOV      r10,r0
        0x0000120a:    b104        ..      CBZ      r4,0x120e ; am_util_stdio_vsprintf + 474
        0x0000120c:    4454        TD      ADD      r4,r4,r10
        0x0000120e:    44d1        .D      ADD      r9,r9,r10
        0x00001210:    e0d3        ..      B        0x13ba ; am_util_stdio_vsprintf + 902
        0x00001212:    9802        ..      LDR      r0,[sp,#8]
        0x00001214:    b158        X.      CBZ      r0,0x122e ; am_util_stdio_vsprintf + 506
        0x00001216:    980e        ..      LDR      r0,[sp,#0x38]
        0x00001218:    1dc0        ..      ADDS     r0,r0,#7
        0x0000121a:    f0200007     ...    BIC      r0,r0,#7
        0x0000121e:    4601        .F      MOV      r1,r0
        0x00001220:    900e        ..      STR      r0,[sp,#0x38]
        0x00001222:    6800        .h      LDR      r0,[r0,#0]
        0x00001224:    6849        Ih      LDR      r1,[r1,#4]
        0x00001226:    9a0e        ..      LDR      r2,[sp,#0x38]
        0x00001228:    3208        .2      ADDS     r2,r2,#8
        0x0000122a:    920e        ..      STR      r2,[sp,#0x38]
        0x0000122c:    e005        ..      B        0x123a ; am_util_stdio_vsprintf + 518
        0x0000122e:    980e        ..      LDR      r0,[sp,#0x38]
        0x00001230:    6800        .h      LDR      r0,[r0,#0]
        0x00001232:    990e        ..      LDR      r1,[sp,#0x38]
        0x00001234:    1d09        ..      ADDS     r1,r1,#4
        0x00001236:    910e        ..      STR      r1,[sp,#0x38]
        0x00001238:    2100        .!      MOVS     r1,#0
        0x0000123a:    4607        .F      MOV      r7,r0
        0x0000123c:    4688        .F      MOV      r8,r1
        0x0000123e:    b18e        ..      CBZ      r6,0x1264 ; am_util_stdio_vsprintf + 560
        0x00001240:    4638        8F      MOV      r0,r7
        0x00001242:    4641        AF      MOV      r1,r8
        0x00001244:    f000fb00    ....    BL       ndigits_in_u64 ; 0x1848
        0x00001248:    1a36        6.      SUBS     r6,r6,r0
        0x0000124a:    4632        2F      MOV      r2,r6
        0x0000124c:    4620         F      MOV      r0,r4
        0x0000124e:    9904        ..      LDR      r1,[sp,#0x10]
        0x00001250:    f000fb17    ....    BL       padbuffer ; 0x1882
        0x00001254:    4606        .F      MOV      r6,r0
        0x00001256:    b10c        ..      CBZ      r4,0x125c ; am_util_stdio_vsprintf + 552
        0x00001258:    4630        0F      MOV      r0,r6
        0x0000125a:    e000        ..      B        0x125e ; am_util_stdio_vsprintf + 554
        0x0000125c:    2000        .       MOVS     r0,#0
        0x0000125e:    4404        .D      ADD      r4,r4,r0
        0x00001260:    44b1        .D      ADD      r9,r9,r6
        0x00001262:    2600        .&      MOVS     r6,#0
        0x00001264:    4622        "F      MOV      r2,r4
        0x00001266:    4638        8F      MOV      r0,r7
        0x00001268:    4641        AF      MOV      r1,r8
        0x0000126a:    f000fc29    ..).    BL       uint64_to_str ; 0x1ac0
        0x0000126e:    4682        .F      MOV      r10,r0
        0x00001270:    b104        ..      CBZ      r4,0x1274 ; am_util_stdio_vsprintf + 576
        0x00001272:    4454        TD      ADD      r4,r4,r10
        0x00001274:    44d1        .D      ADD      r9,r9,r10
        0x00001276:    e0a0        ..      B        0x13ba ; am_util_stdio_vsprintf + 902
        0x00001278:    bf00        ..      NOP      
        0x0000127a:    9802        ..      LDR      r0,[sp,#8]
        0x0000127c:    b158        X.      CBZ      r0,0x1296 ; am_util_stdio_vsprintf + 610
        0x0000127e:    980e        ..      LDR      r0,[sp,#0x38]
        0x00001280:    1dc0        ..      ADDS     r0,r0,#7
        0x00001282:    f0200007     ...    BIC      r0,r0,#7
        0x00001286:    4601        .F      MOV      r1,r0
        0x00001288:    900e        ..      STR      r0,[sp,#0x38]
        0x0000128a:    6800        .h      LDR      r0,[r0,#0]
        0x0000128c:    6849        Ih      LDR      r1,[r1,#4]
        0x0000128e:    9a0e        ..      LDR      r2,[sp,#0x38]
        0x00001290:    3208        .2      ADDS     r2,r2,#8
        0x00001292:    920e        ..      STR      r2,[sp,#0x38]
        0x00001294:    e005        ..      B        0x12a2 ; am_util_stdio_vsprintf + 622
        0x00001296:    980e        ..      LDR      r0,[sp,#0x38]
        0x00001298:    6800        .h      LDR      r0,[r0,#0]
        0x0000129a:    990e        ..      LDR      r1,[sp,#0x38]
        0x0000129c:    1d09        ..      ADDS     r1,r1,#4
        0x0000129e:    910e        ..      STR      r1,[sp,#0x38]
        0x000012a0:    17c1        ..      ASRS     r1,r0,#31
        0x000012a2:    e9cd0108    ....    STRD     r0,r1,[sp,#0x20]
        0x000012a6:    2300        .#      MOVS     r3,#0
        0x000012a8:    e9dd0108    ....    LDRD     r0,r1,[sp,#0x20]
        0x000012ac:    1ac0        ..      SUBS     r0,r0,r3
        0x000012ae:    4199        .A      SBCS     r1,r1,r3
        0x000012b0:    da08        ..      BGE      0x12c4 ; am_util_stdio_vsprintf + 656
        0x000012b2:    2200        ."      MOVS     r2,#0
        0x000012b4:    e9dd1008    ....    LDRD     r1,r0,[sp,#0x20]
        0x000012b8:    424f        OB      RSBS     r7,r1,#0
        0x000012ba:    eb620800    b...    SBC      r8,r2,r0
        0x000012be:    2001        .       MOVS     r0,#1
        0x000012c0:    9001        ..      STR      r0,[sp,#4]
        0x000012c2:    e003        ..      B        0x12cc ; am_util_stdio_vsprintf + 664
        0x000012c4:    e9dd7808    ...x    LDRD     r7,r8,[sp,#0x20]
        0x000012c8:    2000        .       MOVS     r0,#0
        0x000012ca:    9001        ..      STR      r0,[sp,#4]
        0x000012cc:    b34e        N.      CBZ      r6,0x1322 ; am_util_stdio_vsprintf + 750
        0x000012ce:    4638        8F      MOV      r0,r7
        0x000012d0:    4641        AF      MOV      r1,r8
        0x000012d2:    f000faa7    ....    BL       ndigits_in_i64 ; 0x1824
        0x000012d6:    1a36        6.      SUBS     r6,r6,r0
        0x000012d8:    9801        ..      LDR      r0,[sp,#4]
        0x000012da:    b148        H.      CBZ      r0,0x12f0 ; am_util_stdio_vsprintf + 700
        0x000012dc:    1e76        v.      SUBS     r6,r6,#1
        0x000012de:    9804        ..      LDR      r0,[sp,#0x10]
        0x000012e0:    2830        0(      CMP      r0,#0x30
        0x000012e2:    d105        ..      BNE      0x12f0 ; am_util_stdio_vsprintf + 700
        0x000012e4:    b114        ..      CBZ      r4,0x12ec ; am_util_stdio_vsprintf + 696
        0x000012e6:    202d        -       MOVS     r0,#0x2d
        0x000012e8:    f8040b01    ....    STRB     r0,[r4],#1
        0x000012ec:    f1090901    ....    ADD      r9,r9,#1
        0x000012f0:    4632        2F      MOV      r2,r6
        0x000012f2:    4620         F      MOV      r0,r4
        0x000012f4:    9904        ..      LDR      r1,[sp,#0x10]
        0x000012f6:    f000fac4    ....    BL       padbuffer ; 0x1882
        0x000012fa:    4606        .F      MOV      r6,r0
        0x000012fc:    b10c        ..      CBZ      r4,0x1302 ; am_util_stdio_vsprintf + 718
        0x000012fe:    4630        0F      MOV      r0,r6
        0x00001300:    e000        ..      B        0x1304 ; am_util_stdio_vsprintf + 720
        0x00001302:    2000        .       MOVS     r0,#0
        0x00001304:    4404        .D      ADD      r4,r4,r0
        0x00001306:    44b1        .D      ADD      r9,r9,r6
        0x00001308:    2600        .&      MOVS     r6,#0
        0x0000130a:    9801        ..      LDR      r0,[sp,#4]
        0x0000130c:    b188        ..      CBZ      r0,0x1332 ; am_util_stdio_vsprintf + 766
        0x0000130e:    9804        ..      LDR      r0,[sp,#0x10]
        0x00001310:    2820         (      CMP      r0,#0x20
        0x00001312:    d10e        ..      BNE      0x1332 ; am_util_stdio_vsprintf + 766
        0x00001314:    b114        ..      CBZ      r4,0x131c ; am_util_stdio_vsprintf + 744
        0x00001316:    202d        -       MOVS     r0,#0x2d
        0x00001318:    f8040b01    ....    STRB     r0,[r4],#1
        0x0000131c:    f1090901    ....    ADD      r9,r9,#1
        0x00001320:    e007        ..      B        0x1332 ; am_util_stdio_vsprintf + 766
        0x00001322:    9801        ..      LDR      r0,[sp,#4]
        0x00001324:    b128        (.      CBZ      r0,0x1332 ; am_util_stdio_vsprintf + 766
        0x00001326:    b114        ..      CBZ      r4,0x132e ; am_util_stdio_vsprintf + 762
        0x00001328:    202d        -       MOVS     r0,#0x2d
        0x0000132a:    f8040b01    ....    STRB     r0,[r4],#1
        0x0000132e:    f1090901    ....    ADD      r9,r9,#1
        0x00001332:    4622        "F      MOV      r2,r4
        0x00001334:    4638        8F      MOV      r0,r7
        0x00001336:    4641        AF      MOV      r1,r8
        0x00001338:    f000fbc2    ....    BL       uint64_to_str ; 0x1ac0
        0x0000133c:    4682        .F      MOV      r10,r0
        0x0000133e:    b104        ..      CBZ      r4,0x1342 ; am_util_stdio_vsprintf + 782
        0x00001340:    4454        TD      ADD      r4,r4,r10
        0x00001342:    44d1        .D      ADD      r9,r9,r10
        0x00001344:    e039        9.      B        0x13ba ; am_util_stdio_vsprintf + 902
        0x00001346:    bf00        ..      NOP      
        0x00001348:    b37c        |.      CBZ      r4,0x13aa ; am_util_stdio_vsprintf + 886
        0x0000134a:    980e        ..      LDR      r0,[sp,#0x38]
        0x0000134c:    1dc0        ..      ADDS     r0,r0,#7
        0x0000134e:    f0200007     ...    BIC      r0,r0,#7
        0x00001352:    900e        ..      STR      r0,[sp,#0x38]
        0x00001354:    ecb01b02    ....    VLDM     r0!,{d1}
        0x00001358:    eeb00a41    ..A.    VMOV.F32 s0,s2
        0x0000135c:    eef00a61    ..a.    VMOV.F32 s1,s3
        0x00001360:    900e        ..      STR      r0,[sp,#0x38]
        0x00001362:    ec510b10    Q...    VMOV     r0,r1,d0
        0x00001366:    f000fbe3    ....    BL       __aeabi_d2f ; 0x1b30
        0x0000136a:    ee080a10    ....    VMOV     s16,r0
        0x0000136e:    2014        .       MOVS     r0,#0x14
        0x00001370:    6020         `      STR      r0,[r4,#0]
        0x00001372:    4620         F      MOV      r0,r4
        0x00001374:    eeb00a48    ..H.    VMOV.F32 s0,s16
        0x00001378:    9906        ..      LDR      r1,[sp,#0x18]
        0x0000137a:    f000f8bd    ....    BL       ftoa ; 0x14f8
        0x0000137e:    4682        .F      MOV      r10,r0
        0x00001380:    f1ba0f00    ....    CMP      r10,#0
        0x00001384:    da0e        ..      BGE      0x13a4 ; am_util_stdio_vsprintf + 880
        0x00001386:    f10a0101    ....    ADD      r1,r10,#1
        0x0000138a:    b909        ..      CBNZ     r1,0x1390 ; am_util_stdio_vsprintf + 860
        0x0000138c:    4813        .H      LDR      r0,[pc,#76] ; [0x13dc] = 0x302e30
        0x0000138e:    e005        ..      B        0x139c ; am_util_stdio_vsprintf + 872
        0x00001390:    f10a0102    ....    ADD      r1,r10,#2
        0x00001394:    b909        ..      CBNZ     r1,0x139a ; am_util_stdio_vsprintf + 870
        0x00001396:    4812        .H      LDR      r0,[pc,#72] ; [0x13e0] = 0x232e23
        0x00001398:    e000        ..      B        0x139c ; am_util_stdio_vsprintf + 872
        0x0000139a:    4812        .H      LDR      r0,[pc,#72] ; [0x13e4] = 0x3f2e3f
        0x0000139c:    6020         `      STR      r0,[r4,#0]
        0x0000139e:    f04f0a03    O...    MOV      r10,#3
        0x000013a2:    bf00        ..      NOP      
        0x000013a4:    44d1        .D      ADD      r9,r9,r10
        0x000013a6:    4454        TD      ADD      r4,r4,r10
        0x000013a8:    bf00        ..      NOP      
        0x000013aa:    e006        ..      B        0x13ba ; am_util_stdio_vsprintf + 902
        0x000013ac:    b114        ..      CBZ      r4,0x13b4 ; am_util_stdio_vsprintf + 896
        0x000013ae:    7828        (x      LDRB     r0,[r5,#0]
        0x000013b0:    f8040b01    ....    STRB     r0,[r4],#1
        0x000013b4:    f1090901    ....    ADD      r9,r9,#1
        0x000013b8:    bf00        ..      NOP      
        0x000013ba:    bf00        ..      NOP      
        0x000013bc:    1c6d        m.      ADDS     r5,r5,#1
        0x000013be:    bf00        ..      NOP      
        0x000013c0:    7828        (x      LDRB     r0,[r5,#0]
        0x000013c2:    2800        .(      CMP      r0,#0
        0x000013c4:    f47fae42    ..B.    BNE      0x104c ; am_util_stdio_vsprintf + 24
        0x000013c8:    b104        ..      CBZ      r4,0x13cc ; am_util_stdio_vsprintf + 920
        0x000013ca:    7020         p      STRB     r0,[r4,#0]
        0x000013cc:    4648        HF      MOV      r0,r9
        0x000013ce:    b00a        ..      ADD      sp,sp,#0x28
        0x000013d0:    ecbd8b02    ....    VPOP     {d8}
        0x000013d4:    e8bd8ffe    ....    POP      {r1-r11,pc}
    $d
        0x000013d8:    1000001c    ....    DCD    268435484
        0x000013dc:    00302e30    0.0.    DCD    3157552
        0x000013e0:    00232e23    #.#.    DCD    2305571
        0x000013e4:    003f2e3f    ?.?.    DCD    4140607
    $t
    i.decstr_to_int
    decstr_to_int
        0x000013e8:    b530        0.      PUSH     {r4,r5,lr}
        0x000013ea:    4602        .F      MOV      r2,r0
        0x000013ec:    2500        .%      MOVS     r5,#0
        0x000013ee:    2300        .#      MOVS     r3,#0
        0x000013f0:    2400        .$      MOVS     r4,#0
        0x000013f2:    7810        .x      LDRB     r0,[r2,#0]
        0x000013f4:    282d        -(      CMP      r0,#0x2d
        0x000013f6:    d102        ..      BNE      0x13fe ; decstr_to_int + 22
        0x000013f8:    2501        .%      MOVS     r5,#1
        0x000013fa:    1c52        R.      ADDS     r2,r2,#1
        0x000013fc:    1c64        d.      ADDS     r4,r4,#1
        0x000013fe:    e007        ..      B        0x1410 ; decstr_to_int + 40
        0x00001400:    1c64        d.      ADDS     r4,r4,#1
        0x00001402:    eb030083    ....    ADD      r0,r3,r3,LSL #2
        0x00001406:    0043        C.      LSLS     r3,r0,#1
        0x00001408:    7810        .x      LDRB     r0,[r2,#0]
        0x0000140a:    3830        08      SUBS     r0,r0,#0x30
        0x0000140c:    4403        .D      ADD      r3,r3,r0
        0x0000140e:    1c52        R.      ADDS     r2,r2,#1
        0x00001410:    7810        .x      LDRB     r0,[r2,#0]
        0x00001412:    2830        0(      CMP      r0,#0x30
        0x00001414:    db02        ..      BLT      0x141c ; decstr_to_int + 52
        0x00001416:    7810        .x      LDRB     r0,[r2,#0]
        0x00001418:    2839        9(      CMP      r0,#0x39
        0x0000141a:    ddf1        ..      BLE      0x1400 ; decstr_to_int + 24
        0x0000141c:    b101        ..      CBZ      r1,0x1420 ; decstr_to_int + 56
        0x0000141e:    600c        .`      STR      r4,[r1,#0]
        0x00001420:    b10d        ..      CBZ      r5,0x1426 ; decstr_to_int + 62
        0x00001422:    4258        XB      RSBS     r0,r3,#0
        0x00001424:    bd30        0.      POP      {r4,r5,pc}
        0x00001426:    4618        .F      MOV      r0,r3
        0x00001428:    e7fc        ..      B        0x1424 ; decstr_to_int + 60
    i.divu64_10
    divu64_10
        0x0000142a:    e92d4ff0    -..O    PUSH     {r4-r11,lr}
        0x0000142e:    4604        .F      MOV      r4,r0
        0x00001430:    460d        .F      MOV      r5,r1
        0x00001432:    2000        .       MOVS     r0,#0
        0x00001434:    ea850100    ....    EOR      r1,r5,r0
        0x00001438:    4040        @@      EORS     r0,r0,r0
        0x0000143a:    4301        .C      ORRS     r1,r1,r0
        0x0000143c:    d044        D.      BEQ      0x14c8 ; divu64_10 + 158
        0x0000143e:    ea5f0a55    _.U.    LSRS     r10,r5,#1
        0x00001442:    ea4f0134    O.4.    RRX      r1,r4
        0x00001446:    ea4f0b94    O...    LSR      r11,r4,#2
        0x0000144a:    ea4b7085    K..p    ORR      r0,r11,r5,LSL #30
        0x0000144e:    180a        ..      ADDS     r2,r1,r0
        0x00001450:    eb4a0395    J...    ADC      r3,r10,r5,LSR #2
        0x00001454:    ea4f1012    O...    LSR      r0,r2,#4
        0x00001458:    ea407a03    @..z    ORR      r10,r0,r3,LSL #28
        0x0000145c:    eb1a0202    ....    ADDS     r2,r10,r2
        0x00001460:    eb431313    C...    ADC      r3,r3,r3,LSR #4
        0x00001464:    ea4f2012    O..     LSR      r0,r2,#8
        0x00001468:    ea406a03    @..j    ORR      r10,r0,r3,LSL #24
        0x0000146c:    eb1a0202    ....    ADDS     r2,r10,r2
        0x00001470:    eb432313    C..#    ADC      r3,r3,r3,LSR #8
        0x00001474:    ea4f4012    O..@    LSR      r0,r2,#16
        0x00001478:    ea404a03    @..J    ORR      r10,r0,r3,LSL #16
        0x0000147c:    eb1a0202    ....    ADDS     r2,r10,r2
        0x00001480:    eb434313    C..C    ADC      r3,r3,r3,LSR #16
        0x00001484:    189a        ..      ADDS     r2,r3,r2
        0x00001486:    f1430300    C...    ADC      r3,r3,#0
        0x0000148a:    08d0        ..      LSRS     r0,r2,#3
        0x0000148c:    ea407243    @.Cr    ORR      r2,r0,r3,LSL #29
        0x00001490:    08db        ..      LSRS     r3,r3,#3
        0x00001492:    210a        .!      MOVS     r1,#0xa
        0x00001494:    f04f0a00    O...    MOV      r10,#0
        0x00001498:    fba20b01    ....    UMULL    r0,r11,r2,r1
        0x0000149c:    fb03b101    ....    MLA      r1,r3,r1,r11
        0x000014a0:    fb02110a    ....    MLA      r1,r2,r10,r1
        0x000014a4:    1a26        &.      SUBS     r6,r4,r0
        0x000014a6:    eb650701    e...    SBC      r7,r5,r1
        0x000014aa:    2106        .!      MOVS     r1,#6
        0x000014ac:    eb160a01    ....    ADDS     r10,r6,r1
        0x000014b0:    f1470100    G...    ADC      r1,r7,#0
        0x000014b4:    ea4f101a    O...    LSR      r0,r10,#4
        0x000014b8:    ea407a01    @..z    ORR      r10,r0,r1,LSL #28
        0x000014bc:    eb1a0002    ....    ADDS     r0,r10,r2
        0x000014c0:    eb431111    C...    ADC      r1,r3,r1,LSR #4
        0x000014c4:    e8bd8ff0    ....    POP      {r4-r11,pc}
        0x000014c8:    46a0        .F      MOV      r8,r4
        0x000014ca:    ea4f0058    O.X.    LSR      r0,r8,#1
        0x000014ce:    eb000c98    ....    ADD      r12,r0,r8,LSR #2
        0x000014d2:    eb0c1c1c    ....    ADD      r12,r12,r12,LSR #4
        0x000014d6:    eb0c2c1c    ...,    ADD      r12,r12,r12,LSR #8
        0x000014da:    eb0c4c1c    ...L    ADD      r12,r12,r12,LSR #16
        0x000014de:    ea4f0cdc    O...    LSR      r12,r12,#3
        0x000014e2:    eb0c008c    ....    ADD      r0,r12,r12,LSL #2
        0x000014e6:    eba80940    ..@.    SUB      r9,r8,r0,LSL #1
        0x000014ea:    f1090006    ....    ADD      r0,r9,#6
        0x000014ee:    eb0c1010    ....    ADD      r0,r12,r0,LSR #4
        0x000014f2:    2100        .!      MOVS     r1,#0
        0x000014f4:    e7e6        ..      B        0x14c4 ; divu64_10 + 154
        0x000014f6:    0000        ..      MOVS     r0,r0
    i.ftoa
    ftoa
        0x000014f8:    e92d4ff3    -..O    PUSH     {r0,r1,r4-r11,lr}
        0x000014fc:    ed2d0b02    -...    VPUSH    {d0}
        0x00001500:    ed2d8b02    -...    VPUSH    {d8}
        0x00001504:    b081        ..      SUB      sp,sp,#4
        0x00001506:    eeb08a40    ..@.    VMOV.F32 s16,s0
        0x0000150a:    4604        .F      MOV      r4,r0
        0x0000150c:    f8d4b000    ....    LDR      r11,[r4,#0]
        0x00001510:    f1bb0f04    ....    CMP      r11,#4
        0x00001514:    da07        ..      BGE      0x1526 ; ftoa + 46
        0x00001516:    f06f0002    o...    MVN      r0,#2
        0x0000151a:    b001        ..      ADD      sp,sp,#4
        0x0000151c:    ecbd8b02    ....    VPOP     {d8}
        0x00001520:    b004        ..      ADD      sp,sp,#0x10
        0x00001522:    e8bd8ff0    ....    POP      {r4-r11,pc}
        0x00001526:    eeb58ac0    ....    VCMPE.F32 s16,#0.0
        0x0000152a:    eef1fa10    ....    VMRS     APSR_nzcv,FPSCR
        0x0000152e:    d103        ..      BNE      0x1538 ; ftoa + 64
        0x00001530:    484e        NH      LDR      r0,[pc,#312] ; [0x166c] = 0x302e30
        0x00001532:    6020         `      STR      r0,[r4,#0]
        0x00001534:    2003        .       MOVS     r0,#3
        0x00001536:    e7f0        ..      B        0x151a ; ftoa + 34
        0x00001538:    46a2        .F      MOV      r10,r4
        0x0000153a:    ed8d8a00    ....    VSTR     s16,[sp,#0]
        0x0000153e:    9800        ..      LDR      r0,[sp,#0]
        0x00001540:    f3c050c7    ...P    UBFX     r0,r0,#23,#8
        0x00001544:    f1a0057f    ....    SUB      r5,r0,#0x7f
        0x00001548:    9800        ..      LDR      r0,[sp,#0]
        0x0000154a:    f020407f     ..@    BIC      r0,r0,#0xff000000
        0x0000154e:    f4400900    @...    ORR      r9,r0,#0x800000
        0x00001552:    f04f0800    O...    MOV      r8,#0
        0x00001556:    2700        .'      MOVS     r7,#0
        0x00001558:    2d1f        .-      CMP      r5,#0x1f
        0x0000155a:    db01        ..      BLT      0x1560 ; ftoa + 104
        0x0000155c:    1eb8        ..      SUBS     r0,r7,#2
        0x0000155e:    e7dc        ..      B        0x151a ; ftoa + 34
        0x00001560:    f1150f17    ....    CMN      r5,#0x17
        0x00001564:    da02        ..      BGE      0x156c ; ftoa + 116
        0x00001566:    f04f30ff    O..0    MOV      r0,#0xffffffff
        0x0000156a:    e7d6        ..      B        0x151a ; ftoa + 34
        0x0000156c:    2d17        .-      CMP      r5,#0x17
        0x0000156e:    db04        ..      BLT      0x157a ; ftoa + 130
        0x00001570:    f1a50017    ....    SUB      r0,r5,#0x17
        0x00001574:    fa09f700    ....    LSL      r7,r9,r0
        0x00001578:    e011        ..      B        0x159e ; ftoa + 166
        0x0000157a:    2d00        .-      CMP      r5,#0
        0x0000157c:    db09        ..      BLT      0x1592 ; ftoa + 154
        0x0000157e:    f1c50017    ....    RSB      r0,r5,#0x17
        0x00001582:    fa49f700    I...    ASR      r7,r9,r0
        0x00001586:    1c68        h.      ADDS     r0,r5,#1
        0x00001588:    fa09f000    ....    LSL      r0,r9,r0
        0x0000158c:    f020487f     ..H    BIC      r8,r0,#0xff000000
        0x00001590:    e005        ..      B        0x159e ; ftoa + 166
        0x00001592:    f029407f    )..@    BIC      r0,r9,#0xff000000
        0x00001596:    1c69        i.      ADDS     r1,r5,#1
        0x00001598:    4249        IB      RSBS     r1,r1,#0
        0x0000159a:    fa40f801    @...    ASR      r8,r0,r1
        0x0000159e:    9800        ..      LDR      r0,[sp,#0]
        0x000015a0:    2800        .(      CMP      r0,#0
        0x000015a2:    da02        ..      BGE      0x15aa ; ftoa + 178
        0x000015a4:    202d        -       MOVS     r0,#0x2d
        0x000015a6:    f8040b01    ....    STRB     r0,[r4],#1
        0x000015aa:    b91f        ..      CBNZ     r7,0x15b4 ; ftoa + 188
        0x000015ac:    2030        0       MOVS     r0,#0x30
        0x000015ae:    f8040b01    ....    STRB     r0,[r4],#1
        0x000015b2:    e014        ..      B        0x15de ; ftoa + 230
        0x000015b4:    2f00        ./      CMP      r7,#0
        0x000015b6:    dd05        ..      BLE      0x15c4 ; ftoa + 204
        0x000015b8:    4622        "F      MOV      r2,r4
        0x000015ba:    4638        8F      MOV      r0,r7
        0x000015bc:    17f9        ..      ASRS     r1,r7,#31
        0x000015be:    f000fa7f    ....    BL       uint64_to_str ; 0x1ac0
        0x000015c2:    e007        ..      B        0x15d4 ; ftoa + 220
        0x000015c4:    202d        -       MOVS     r0,#0x2d
        0x000015c6:    f8040b01    ....    STRB     r0,[r4],#1
        0x000015ca:    4622        "F      MOV      r2,r4
        0x000015cc:    4278        xB      RSBS     r0,r7,#0
        0x000015ce:    17c1        ..      ASRS     r1,r0,#31
        0x000015d0:    f000fa76    ..v.    BL       uint64_to_str ; 0x1ac0
        0x000015d4:    e000        ..      B        0x15d8 ; ftoa + 224
        0x000015d6:    1c64        d.      ADDS     r4,r4,#1
        0x000015d8:    7820         x      LDRB     r0,[r4,#0]
        0x000015da:    2800        .(      CMP      r0,#0
        0x000015dc:    d1fb        ..      BNE      0x15d6 ; ftoa + 222
        0x000015de:    202e        .       MOVS     r0,#0x2e
        0x000015e0:    f8040b01    ....    STRB     r0,[r4],#1
        0x000015e4:    f1b80f00    ....    CMP      r8,#0
        0x000015e8:    d103        ..      BNE      0x15f2 ; ftoa + 250
        0x000015ea:    2030        0       MOVS     r0,#0x30
        0x000015ec:    f8040b01    ....    STRB     r0,[r4],#1
        0x000015f0:    e036        6.      B        0x1660 ; ftoa + 360
        0x000015f2:    eba4020a    ....    SUB      r2,r4,r10
        0x000015f6:    ebab0202    ....    SUB      r2,r11,r2
        0x000015fa:    1e51        Q.      SUBS     r1,r2,#1
        0x000015fc:    9a06        ..      LDR      r2,[sp,#0x18]
        0x000015fe:    4291        .B      CMP      r1,r2
        0x00001600:    dd01        ..      BLE      0x1606 ; ftoa + 270
        0x00001602:    9a06        ..      LDR      r2,[sp,#0x18]
        0x00001604:    e000        ..      B        0x1608 ; ftoa + 272
        0x00001606:    460a        .F      MOV      r2,r1
        0x00001608:    4611        .F      MOV      r1,r2
        0x0000160a:    2000        .       MOVS     r0,#0
        0x0000160c:    e00b        ..      B        0x1626 ; ftoa + 302
        0x0000160e:    eb080288    ....    ADD      r2,r8,r8,LSL #2
        0x00001612:    ea4f0842    O.B.    LSL      r8,r2,#1
        0x00001616:    2230        0"      MOVS     r2,#0x30
        0x00001618:    eb026228    ..(b    ADD      r2,r2,r8,ASR #24
        0x0000161c:    f8042b01    ...+    STRB     r2,[r4],#1
        0x00001620:    f028487f    (..H    BIC      r8,r8,#0xff000000
        0x00001624:    1c40        @.      ADDS     r0,r0,#1
        0x00001626:    4288        .B      CMP      r0,r1
        0x00001628:    dbf1        ..      BLT      0x160e ; ftoa + 278
        0x0000162a:    eb080288    ....    ADD      r2,r8,r8,LSL #2
        0x0000162e:    0052        R.      LSLS     r2,r2,#1
        0x00001630:    2305        .#      MOVS     r3,#5
        0x00001632:    ebb36f22    .."o    CMP      r3,r2,ASR #24
        0x00001636:    dc12        ..      BGT      0x165e ; ftoa + 358
        0x00001638:    1e66        f.      SUBS     r6,r4,#1
        0x0000163a:    e00d        ..      B        0x1658 ; ftoa + 352
        0x0000163c:    7832        2x      LDRB     r2,[r6,#0]
        0x0000163e:    2a2e        .*      CMP      r2,#0x2e
        0x00001640:    d009        ..      BEQ      0x1656 ; ftoa + 350
        0x00001642:    7832        2x      LDRB     r2,[r6,#0]
        0x00001644:    2a39        9*      CMP      r2,#0x39
        0x00001646:    d102        ..      BNE      0x164e ; ftoa + 342
        0x00001648:    2230        0"      MOVS     r2,#0x30
        0x0000164a:    7032        2p      STRB     r2,[r6,#0]
        0x0000164c:    e003        ..      B        0x1656 ; ftoa + 350
        0x0000164e:    7832        2x      LDRB     r2,[r6,#0]
        0x00001650:    1c52        R.      ADDS     r2,r2,#1
        0x00001652:    7032        2p      STRB     r2,[r6,#0]
        0x00001654:    e002        ..      B        0x165c ; ftoa + 356
        0x00001656:    1e76        v.      SUBS     r6,r6,#1
        0x00001658:    4556        VE      CMP      r6,r10
        0x0000165a:    d2ef        ..      BCS      0x163c ; ftoa + 324
        0x0000165c:    bf00        ..      NOP      
        0x0000165e:    bf00        ..      NOP      
        0x00001660:    2000        .       MOVS     r0,#0
        0x00001662:    7020         p      STRB     r0,[r4,#0]
        0x00001664:    eba4000a    ....    SUB      r0,r4,r10
        0x00001668:    e757        W.      B        0x151a ; ftoa + 34
    $d
        0x0000166a:    0000        ..      DCW    0
        0x0000166c:    00302e30    0.0.    DCD    3157552
    $t
    i.main
    main
        0x00001670:    b0c2        ..      SUB      sp,sp,#0x108
        0x00001672:    2500        .%      MOVS     r5,#0
        0x00001674:    2000        .       MOVS     r0,#0
        0x00001676:    f7fefee3    ....    BL       am_hal_clkgen_sysclk_select ; 0x440
        0x0000167a:    483a        :H      LDR      r0,[pc,#232] ; [0x1764] = 0x1c42
        0x0000167c:    f7fefe5e    ..^.    BL       am_hal_cachectrl_enable ; 0x33c
        0x00001680:    f7fefe4a    ..J.    BL       am_bsp_low_power_init ; 0x318
        0x00001684:    4838        8H      LDR      r0,[pc,#224] ; [0x1768] = 0x315
        0x00001686:    f7fffccf    ....    BL       am_util_stdio_printf_init ; 0x1028
        0x0000168a:    f7fefd93    ....    BL       am_hal_interrupt_master_disable ; 0x1b4
        0x0000168e:    9000        ..      STR      r0,[sp,#0]
        0x00001690:    2073        s       MOVS     r0,#0x73
        0x00001692:    4936        6I      LDR      r1,[pc,#216] ; [0x176c] = 0x40010000
        0x00001694:    6608        .f      STR      r0,[r1,#0x60]
        0x00001696:    4608        .F      MOV      r0,r1
        0x00001698:    6d40        @m      LDR      r0,[r0,#0x54]
        0x0000169a:    f0200070     .p.    BIC      r0,r0,#0x70
        0x0000169e:    6548        He      STR      r0,[r1,#0x54]
        0x000016a0:    4608        .F      MOV      r0,r1
        0x000016a2:    6a80        .j      LDR      r0,[r0,#0x28]
        0x000016a4:    f420407f     ..@    BIC      r0,r0,#0xff00
        0x000016a8:    f4405080    @..P    ORR      r0,r0,#0x1000
        0x000016ac:    6288        .b      STR      r0,[r1,#0x28]
        0x000016ae:    4830        0H      LDR      r0,[pc,#192] ; [0x1770] = 0x40010108
        0x000016b0:    6800        .h      LDR      r0,[r0,#0]
        0x000016b2:    f420407f     ..@    BIC      r0,r0,#0xff00
        0x000016b6:    f8c10108    ....    STR      r0,[r1,#0x108]
        0x000016ba:    2000        .       MOVS     r0,#0
        0x000016bc:    6608        .f      STR      r0,[r1,#0x60]
        0x000016be:    9800        ..      LDR      r0,[sp,#0]
        0x000016c0:    f7fefd7c    ..|.    BL       am_hal_interrupt_master_set ; 0x1bc
        0x000016c4:    f7fefdee    ....    BL       am_bsp_debug_printf_enable ; 0x2a4
        0x000016c8:    f7feff3a    ..:.    BL       am_hal_itm_enable ; 0x540
        0x000016cc:    4628        (F      MOV      r0,r5
        0x000016ce:    f000f945    ..E.    BL       uart_init ; 0x195c
        0x000016d2:    4628        (F      MOV      r0,r5
        0x000016d4:    f000f8f2    ....    BL       uart_enable ; 0x18bc
        0x000016d8:    f7fefd68    ..h.    BL       am_hal_interrupt_master_enable ; 0x1ac
        0x000016dc:    a025        %.      ADR      r0,{pc}+0x98 ; 0x1774
        0x000016de:    f7fffc85    ....    BL       am_util_stdio_printf ; 0xfec
        0x000016e2:    4829        )H      LDR      r0,[pc,#164] ; [0x1788] = 0x1c50
        0x000016e4:    f7fffc82    ....    BL       am_util_stdio_printf ; 0xfec
        0x000016e8:    4628        (F      MOV      r0,r5
        0x000016ea:    f000f999    ....    BL       uart_transmit_delay ; 0x1a20
        0x000016ee:    a027        '.      ADR      r0,{pc}+0x9e ; 0x178c
        0x000016f0:    f7fffc7c    ..|.    BL       am_util_stdio_printf ; 0xfec
        0x000016f4:    4628        (F      MOV      r0,r5
        0x000016f6:    f000f993    ....    BL       uart_transmit_delay ; 0x1a20
        0x000016fa:    a02e        ..      ADR      r0,{pc}+0xba ; 0x17b4
        0x000016fc:    f7fffc76    ..v.    BL       am_util_stdio_printf ; 0xfec
        0x00001700:    4628        (F      MOV      r0,r5
        0x00001702:    f000f98d    ....    BL       uart_transmit_delay ; 0x1a20
        0x00001706:    e02b        +.      B        0x1760 ; main + 240
        0x00001708:    482b        +H      LDR      r0,[pc,#172] ; [0x17b8] = 0x10000000
        0x0000170a:    7800        .x      LDRB     r0,[r0,#0]
        0x0000170c:    b918        ..      CBNZ     r0,0x1716 ; main + 166
        0x0000170e:    482b        +H      LDR      r0,[pc,#172] ; [0x17bc] = 0x10000001
        0x00001710:    7800        .x      LDRB     r0,[r0,#0]
        0x00001712:    2800        .(      CMP      r0,#0
        0x00001714:    d024        $.      BEQ      0x1760 ; main + 240
        0x00001716:    2000        .       MOVS     r0,#0
        0x00001718:    4927        'I      LDR      r1,[pc,#156] ; [0x17b8] = 0x10000000
        0x0000171a:    7008        .p      STRB     r0,[r1,#0]
        0x0000171c:    4927        'I      LDR      r1,[pc,#156] ; [0x17bc] = 0x10000001
        0x0000171e:    7008        .p      STRB     r0,[r1,#0]
        0x00001720:    f44f7182    O..q    MOV      r1,#0x104
        0x00001724:    a801        ..      ADD      r0,sp,#4
        0x00001726:    f7fefd59    ..Y.    BL       __aeabi_memclr4 ; 0x1dc
        0x0000172a:    f44f7280    O..r    MOV      r2,#0x100
        0x0000172e:    a901        ..      ADD      r1,sp,#4
        0x00001730:    4628        (F      MOV      r0,r5
        0x00001732:    f7fff9ab    ....    BL       am_hal_uart_char_receive_buffered ; 0xa8c
        0x00001736:    4604        .F      MOV      r4,r0
        0x00001738:    b194        ..      CBZ      r4,0x1760 ; main + 240
        0x0000173a:    f89d0004    ....    LDRB     r0,[sp,#4]
        0x0000173e:    280a        .(      CMP      r0,#0xa
        0x00001740:    d103        ..      BNE      0x174a ; main + 218
        0x00001742:    a01f        ..      ADR      r0,{pc}+0x7e ; 0x17c0
        0x00001744:    f7fffc52    ..R.    BL       am_util_stdio_printf ; 0xfec
        0x00001748:    e004        ..      B        0x1754 ; main + 228
        0x0000174a:    f89d1004    ....    LDRB     r1,[sp,#4]
        0x0000174e:    a022        ".      ADR      r0,{pc}+0x8a ; 0x17d8
        0x00001750:    f7fffc4c    ..L.    BL       am_util_stdio_printf ; 0xfec
        0x00001754:    2000        .       MOVS     r0,#0
        0x00001756:    a901        ..      ADD      r1,sp,#4
        0x00001758:    5508        .U      STRB     r0,[r1,r4]
        0x0000175a:    4628        (F      MOV      r0,r5
        0x0000175c:    f7fffb6e    ..n.    BL       am_hal_uart_string_transmit_buffered ; 0xe3c
        0x00001760:    e7d2        ..      B        0x1708 ; main + 152
    $d
        0x00001762:    0000        ..      DCW    0
        0x00001764:    00001c42    B...    DCD    7234
        0x00001768:    00000315    ....    DCD    789
        0x0000176c:    40010000    ...@    DCD    1073807360
        0x00001770:    40010108    ...@    DCD    1073807624
        0x00001774:    54524155    UART    DCD    1414676821
        0x00001778:    46494620     FIF    DCD    1179207200
        0x0000177c:    7845204f    O Ex    DCD    2017796175
        0x00001780:    6c706d61    ampl    DCD    1819307361
        0x00001784:    00000a65    e...    DCD    2661
        0x00001788:    00001c50    P...    DCD    7248
        0x0000178c:    6345090a    ..Ec    DCD    1665468682
        0x00001790:    62206f68    ho b    DCD    1646292840
        0x00001794:    206b6361    ack     DCD    543908705
        0x00001798:    20656874    the     DCD    543516788
        0x0000179c:    54524155    UART    DCD    1414676821
        0x000017a0:    63657220     rec    DCD    1667592736
        0x000017a4:    65766965    eive    DCD    1702259045
        0x000017a8:    61642064    d da    DCD    1633951844
        0x000017ac:    0a2e6174    ta..    DCD    170811764
        0x000017b0:    00000000    ....    DCD    0
        0x000017b4:    00000009    ....    DCD    9
        0x000017b8:    10000000    ....    DCD    268435456
        0x000017bc:    10000001    ....    DCD    268435457
        0x000017c0:    52415453    STAR    DCD    1380013139
        0x000017c4:    58545f54    T_TX    DCD    1481924436
        0x000017c8:    68632820     (ch    DCD    1751328800
        0x000017cc:    273d7261    ar='    DCD    658338401
        0x000017d0:    29276e5c    \n')    DCD    690450012
        0x000017d4:    00000000    ....    DCD    0
        0x000017d8:    52415453    STAR    DCD    1380013139
        0x000017dc:    58545f54    T_TX    DCD    1481924436
        0x000017e0:    68632820     (ch    DCD    1751328800
        0x000017e4:    273d7261    ar='    DCD    658338401
        0x000017e8:    29276325    %c')    DCD    690447141
        0x000017ec:    00000000    ....    DCD    0
    $t
    i.ndigits_in_hex
    ndigits_in_hex
        0x000017f0:    b530        0.      PUSH     {r4,r5,lr}
        0x000017f2:    4602        .F      MOV      r2,r0
        0x000017f4:    460b        .F      MOV      r3,r1
        0x000017f6:    2400        .$      MOVS     r4,#0
        0x000017f8:    ea820104    ....    EOR      r1,r2,r4
        0x000017fc:    405c        \@      EORS     r4,r4,r3
        0x000017fe:    4321        !C      ORRS     r1,r1,r4
        0x00001800:    d101        ..      BNE      0x1806 ; ndigits_in_hex + 22
        0x00001802:    2101        .!      MOVS     r1,#1
        0x00001804:    e000        ..      B        0x1808 ; ndigits_in_hex + 24
        0x00001806:    2100        .!      MOVS     r1,#0
        0x00001808:    4608        .F      MOV      r0,r1
        0x0000180a:    e004        ..      B        0x1816 ; ndigits_in_hex + 38
        0x0000180c:    0911        ..      LSRS     r1,r2,#4
        0x0000180e:    ea417203    A..r    ORR      r2,r1,r3,LSL #28
        0x00001812:    091b        ..      LSRS     r3,r3,#4
        0x00001814:    1c40        @.      ADDS     r0,r0,#1
        0x00001816:    2400        .$      MOVS     r4,#0
        0x00001818:    ea820104    ....    EOR      r1,r2,r4
        0x0000181c:    405c        \@      EORS     r4,r4,r3
        0x0000181e:    4321        !C      ORRS     r1,r1,r4
        0x00001820:    d1f4        ..      BNE      0x180c ; ndigits_in_hex + 28
        0x00001822:    bd30        0.      POP      {r4,r5,pc}
    i.ndigits_in_i64
    ndigits_in_i64
        0x00001824:    b570        p.      PUSH     {r4-r6,lr}
        0x00001826:    4604        .F      MOV      r4,r0
        0x00001828:    460d        .F      MOV      r5,r1
        0x0000182a:    2100        .!      MOVS     r1,#0
        0x0000182c:    4608        .F      MOV      r0,r1
        0x0000182e:    1a61        a.      SUBS     r1,r4,r1
        0x00001830:    eb750000    u...    SBCS     r0,r5,r0
        0x00001834:    da03        ..      BGE      0x183e ; ndigits_in_i64 + 26
        0x00001836:    2200        ."      MOVS     r2,#0
        0x00001838:    4264        dB      RSBS     r4,r4,#0
        0x0000183a:    eb620505    b...    SBC      r5,r2,r5
        0x0000183e:    4620         F      MOV      r0,r4
        0x00001840:    4629        )F      MOV      r1,r5
        0x00001842:    f000f801    ....    BL       ndigits_in_u64 ; 0x1848
        0x00001846:    bd70        p.      POP      {r4-r6,pc}
    i.ndigits_in_u64
    ndigits_in_u64
        0x00001848:    b570        p.      PUSH     {r4-r6,lr}
        0x0000184a:    4604        .F      MOV      r4,r0
        0x0000184c:    460d        .F      MOV      r5,r1
        0x0000184e:    2100        .!      MOVS     r1,#0
        0x00001850:    ea840001    ....    EOR      r0,r4,r1
        0x00001854:    4069        i@      EORS     r1,r1,r5
        0x00001856:    4308        .C      ORRS     r0,r0,r1
        0x00001858:    d101        ..      BNE      0x185e ; ndigits_in_u64 + 22
        0x0000185a:    2001        .       MOVS     r0,#1
        0x0000185c:    e000        ..      B        0x1860 ; ndigits_in_u64 + 24
        0x0000185e:    2000        .       MOVS     r0,#0
        0x00001860:    4606        .F      MOV      r6,r0
        0x00001862:    e006        ..      B        0x1872 ; ndigits_in_u64 + 42
        0x00001864:    4620         F      MOV      r0,r4
        0x00001866:    4629        )F      MOV      r1,r5
        0x00001868:    f7fffddf    ....    BL       divu64_10 ; 0x142a
        0x0000186c:    4604        .F      MOV      r4,r0
        0x0000186e:    460d        .F      MOV      r5,r1
        0x00001870:    1c76        v.      ADDS     r6,r6,#1
        0x00001872:    2100        .!      MOVS     r1,#0
        0x00001874:    ea840001    ....    EOR      r0,r4,r1
        0x00001878:    4069        i@      EORS     r1,r1,r5
        0x0000187a:    4308        .C      ORRS     r0,r0,r1
        0x0000187c:    d1f2        ..      BNE      0x1864 ; ndigits_in_u64 + 28
        0x0000187e:    4630        0F      MOV      r0,r6
        0x00001880:    bd70        p.      POP      {r4-r6,pc}
    i.padbuffer
    padbuffer
        0x00001882:    b530        0.      PUSH     {r4,r5,lr}
        0x00001884:    4603        .F      MOV      r3,r0
        0x00001886:    2000        .       MOVS     r0,#0
        0x00001888:    2a00        .*      CMP      r2,#0
        0x0000188a:    dc00        ..      BGT      0x188e ; padbuffer + 12
        0x0000188c:    bd30        0.      POP      {r4,r5,pc}
        0x0000188e:    e003        ..      B        0x1898 ; padbuffer + 22
        0x00001890:    b10b        ..      CBZ      r3,0x1896 ; padbuffer + 20
        0x00001892:    f8031b01    ....    STRB     r1,[r3],#1
        0x00001896:    1c40        @.      ADDS     r0,r0,#1
        0x00001898:    1e14        ..      SUBS     r4,r2,#0
        0x0000189a:    f1a20201    ....    SUB      r2,r2,#1
        0x0000189e:    d1f7        ..      BNE      0x1890 ; padbuffer + 14
        0x000018a0:    bf00        ..      NOP      
        0x000018a2:    e7f3        ..      B        0x188c ; padbuffer + 10
    i.simple_strlen
    simple_strlen
        0x000018a4:    4601        .F      MOV      r1,r0
        0x000018a6:    2000        .       MOVS     r0,#0
        0x000018a8:    b901        ..      CBNZ     r1,0x18ac ; simple_strlen + 8
        0x000018aa:    4770        pG      BX       lr
        0x000018ac:    e000        ..      B        0x18b0 ; simple_strlen + 12
        0x000018ae:    1c40        @.      ADDS     r0,r0,#1
        0x000018b0:    f8113b01    ...;    LDRB     r3,[r1],#1
        0x000018b4:    2b00        .+      CMP      r3,#0
        0x000018b6:    d1fa        ..      BNE      0x18ae ; simple_strlen + 10
        0x000018b8:    bf00        ..      NOP      
        0x000018ba:    e7f6        ..      B        0x18aa ; simple_strlen + 6
    i.uart_enable
    uart_enable
        0x000018bc:    b538        8.      PUSH     {r3-r5,lr}
        0x000018be:    4604        .F      MOV      r4,r0
        0x000018c0:    4620         F      MOV      r0,r4
        0x000018c2:    f7fff901    ....    BL       am_hal_uart_clock_enable ; 0xac8
        0x000018c6:    4620         F      MOV      r0,r4
        0x000018c8:    f7fff991    ....    BL       am_hal_uart_enable ; 0xbee
        0x000018cc:    2151        Q!      MOVS     r1,#0x51
        0x000018ce:    4620         F      MOV      r0,r4
        0x000018d0:    f7fffa05    ....    BL       am_hal_uart_int_enable ; 0xcde
        0x000018d4:    f7fefc6e    ..n.    BL       am_hal_interrupt_master_disable ; 0x1b4
        0x000018d8:    9000        ..      STR      r0,[sp,#0]
        0x000018da:    2073        s       MOVS     r0,#0x73
        0x000018dc:    491e        .I      LDR      r1,[pc,#120] ; [0x1958] = 0x40010000
        0x000018de:    6608        .f      STR      r0,[r1,#0x60]
        0x000018e0:    4608        .F      MOV      r0,r1
        0x000018e2:    6c80        .l      LDR      r0,[r0,#0x48]
        0x000018e4:    f02060e0     ..`    BIC      r0,r0,#0x7000000
        0x000018e8:    6488        .d      STR      r0,[r1,#0x48]
        0x000018ea:    4608        .F      MOV      r0,r1
        0x000018ec:    6940        @i      LDR      r0,[r0,#0x14]
        0x000018ee:    f420007f     ...    BIC      r0,r0,#0xff0000
        0x000018f2:    6148        Ha      STR      r0,[r1,#0x14]
        0x000018f4:    4818        .H      LDR      r0,[pc,#96] ; [0x1958] = 0x40010000
        0x000018f6:    30f4        .0      ADDS     r0,r0,#0xf4
        0x000018f8:    6800        .h      LDR      r0,[r0,#0]
        0x000018fa:    f420007f     ...    BIC      r0,r0,#0xff0000
        0x000018fe:    f8c100f4    ....    STR      r0,[r1,#0xf4]
        0x00001902:    2000        .       MOVS     r0,#0
        0x00001904:    6608        .f      STR      r0,[r1,#0x60]
        0x00001906:    9800        ..      LDR      r0,[sp,#0]
        0x00001908:    f7fefc58    ..X.    BL       am_hal_interrupt_master_set ; 0x1bc
        0x0000190c:    f7fefc52    ..R.    BL       am_hal_interrupt_master_disable ; 0x1b4
        0x00001910:    9000        ..      STR      r0,[sp,#0]
        0x00001912:    2073        s       MOVS     r0,#0x73
        0x00001914:    4910        .I      LDR      r1,[pc,#64] ; [0x1958] = 0x40010000
        0x00001916:    6608        .f      STR      r0,[r1,#0x60]
        0x00001918:    4608        .F      MOV      r0,r1
        0x0000191a:    6c80        .l      LDR      r0,[r0,#0x48]
        0x0000191c:    f02040e0     ..@    BIC      r0,r0,#0x70000000
        0x00001920:    6488        .d      STR      r0,[r1,#0x48]
        0x00001922:    4608        .F      MOV      r0,r1
        0x00001924:    6940        @i      LDR      r0,[r0,#0x14]
        0x00001926:    f020407f     ..@    BIC      r0,r0,#0xff000000
        0x0000192a:    f0407000    @..p    ORR      r0,r0,#0x2000000
        0x0000192e:    6148        Ha      STR      r0,[r1,#0x14]
        0x00001930:    4608        .F      MOV      r0,r1
        0x00001932:    f8d000f4    ....    LDR      r0,[r0,#0xf4]
        0x00001936:    f020407f     ..@    BIC      r0,r0,#0xff000000
        0x0000193a:    4907        .I      LDR      r1,[pc,#28] ; [0x1958] = 0x40010000
        0x0000193c:    31f4        .1      ADDS     r1,r1,#0xf4
        0x0000193e:    6008        .`      STR      r0,[r1,#0]
        0x00001940:    2000        .       MOVS     r0,#0
        0x00001942:    4905        .I      LDR      r1,[pc,#20] ; [0x1958] = 0x40010000
        0x00001944:    6608        .f      STR      r0,[r1,#0x60]
        0x00001946:    9800        ..      LDR      r0,[sp,#0]
        0x00001948:    f7fefc38    ..8.    BL       am_hal_interrupt_master_set ; 0x1bc
        0x0000194c:    f104001e    ....    ADD      r0,r4,#0x1e
        0x00001950:    f7fefdd0    ....    BL       am_hal_interrupt_enable ; 0x4f4
        0x00001954:    bd38        8.      POP      {r3-r5,pc}
    $d
        0x00001956:    0000        ..      DCW    0
        0x00001958:    40010000    ...@    DCD    1073807360
    $t
    i.uart_init
    uart_init
        0x0000195c:    b538        8.      PUSH     {r3-r5,lr}
        0x0000195e:    4604        .F      MOV      r4,r0
        0x00001960:    f7fefc28    ..(.    BL       am_hal_interrupt_master_disable ; 0x1b4
        0x00001964:    9000        ..      STR      r0,[sp,#0]
        0x00001966:    2073        s       MOVS     r0,#0x73
        0x00001968:    4929        )I      LDR      r1,[pc,#164] ; [0x1a10] = 0x40010000
        0x0000196a:    6608        .f      STR      r0,[r1,#0x60]
        0x0000196c:    4608        .F      MOV      r0,r1
        0x0000196e:    6c80        .l      LDR      r0,[r0,#0x48]
        0x00001970:    f02060e0     ..`    BIC      r0,r0,#0x7000000
        0x00001974:    6488        .d      STR      r0,[r1,#0x48]
        0x00001976:    4608        .F      MOV      r0,r1
        0x00001978:    6940        @i      LDR      r0,[r0,#0x14]
        0x0000197a:    f420007f     ...    BIC      r0,r0,#0xff0000
        0x0000197e:    6148        Ha      STR      r0,[r1,#0x14]
        0x00001980:    4823        #H      LDR      r0,[pc,#140] ; [0x1a10] = 0x40010000
        0x00001982:    30f4        .0      ADDS     r0,r0,#0xf4
        0x00001984:    6800        .h      LDR      r0,[r0,#0]
        0x00001986:    f420007f     ...    BIC      r0,r0,#0xff0000
        0x0000198a:    f8c100f4    ....    STR      r0,[r1,#0xf4]
        0x0000198e:    2000        .       MOVS     r0,#0
        0x00001990:    6608        .f      STR      r0,[r1,#0x60]
        0x00001992:    9800        ..      LDR      r0,[sp,#0]
        0x00001994:    f7fefc12    ....    BL       am_hal_interrupt_master_set ; 0x1bc
        0x00001998:    f7fefc0c    ....    BL       am_hal_interrupt_master_disable ; 0x1b4
        0x0000199c:    9000        ..      STR      r0,[sp,#0]
        0x0000199e:    2073        s       MOVS     r0,#0x73
        0x000019a0:    491b        .I      LDR      r1,[pc,#108] ; [0x1a10] = 0x40010000
        0x000019a2:    6608        .f      STR      r0,[r1,#0x60]
        0x000019a4:    4608        .F      MOV      r0,r1
        0x000019a6:    6c80        .l      LDR      r0,[r0,#0x48]
        0x000019a8:    f02040e0     ..@    BIC      r0,r0,#0x70000000
        0x000019ac:    6488        .d      STR      r0,[r1,#0x48]
        0x000019ae:    4608        .F      MOV      r0,r1
        0x000019b0:    6940        @i      LDR      r0,[r0,#0x14]
        0x000019b2:    f020407f     ..@    BIC      r0,r0,#0xff000000
        0x000019b6:    f0407000    @..p    ORR      r0,r0,#0x2000000
        0x000019ba:    6148        Ha      STR      r0,[r1,#0x14]
        0x000019bc:    4608        .F      MOV      r0,r1
        0x000019be:    f8d000f4    ....    LDR      r0,[r0,#0xf4]
        0x000019c2:    f020407f     ..@    BIC      r0,r0,#0xff000000
        0x000019c6:    4912        .I      LDR      r1,[pc,#72] ; [0x1a10] = 0x40010000
        0x000019c8:    31f4        .1      ADDS     r1,r1,#0xf4
        0x000019ca:    6008        .`      STR      r0,[r1,#0]
        0x000019cc:    2000        .       MOVS     r0,#0
        0x000019ce:    4910        .I      LDR      r1,[pc,#64] ; [0x1a10] = 0x40010000
        0x000019d0:    6608        .f      STR      r0,[r1,#0x60]
        0x000019d2:    9800        ..      LDR      r0,[sp,#0]
        0x000019d4:    f7fefbf2    ....    BL       am_hal_interrupt_master_set ; 0x1bc
        0x000019d8:    4620         F      MOV      r0,r4
        0x000019da:    f7fff993    ....    BL       am_hal_uart_pwrctrl_enable ; 0xd04
        0x000019de:    4620         F      MOV      r0,r4
        0x000019e0:    f7fff872    ..r.    BL       am_hal_uart_clock_enable ; 0xac8
        0x000019e4:    4620         F      MOV      r0,r4
        0x000019e6:    f7fff8ed    ....    BL       am_hal_uart_disable ; 0xbc4
        0x000019ea:    490a        .I      LDR      r1,[pc,#40] ; [0x1a14] = 0x10000004
        0x000019ec:    4620         F      MOV      r0,r4
        0x000019ee:    f7fff87f    ....    BL       am_hal_uart_config ; 0xaf0
        0x000019f2:    2112        .!      MOVS     r1,#0x12
        0x000019f4:    4620         F      MOV      r0,r4
        0x000019f6:    f7fff90e    ....    BL       am_hal_uart_fifo_config ; 0xc16
        0x000019fa:    f44f7080    O..p    MOV      r0,#0x100
        0x000019fe:    4b06        .K      LDR      r3,[pc,#24] ; [0x1a18] = 0x10000124
        0x00001a00:    4602        .F      MOV      r2,r0
        0x00001a02:    4906        .I      LDR      r1,[pc,#24] ; [0x1a1c] = 0x10000024
        0x00001a04:    9000        ..      STR      r0,[sp,#0]
        0x00001a06:    4620         F      MOV      r0,r4
        0x00001a08:    f7fff92e    ....    BL       am_hal_uart_init_buffered ; 0xc68
        0x00001a0c:    bd38        8.      POP      {r3-r5,pc}
    $d
        0x00001a0e:    0000        ..      DCW    0
        0x00001a10:    40010000    ...@    DCD    1073807360
        0x00001a14:    10000004    ....    DCD    268435460
        0x00001a18:    10000124    $...    DCD    268435748
        0x00001a1c:    10000024    $...    DCD    268435492
    $t
    i.uart_transmit_delay
    uart_transmit_delay
        0x00001a20:    b510        ..      PUSH     {r4,lr}
        0x00001a22:    4604        .F      MOV      r4,r0
        0x00001a24:    bf00        ..      NOP      
        0x00001a26:    4620         F      MOV      r0,r4
        0x00001a28:    f7fff900    ....    BL       am_hal_uart_flags_get ; 0xc2c
        0x00001a2c:    f0000008    ....    AND      r0,r0,#8
        0x00001a30:    2800        .(      CMP      r0,#0
        0x00001a32:    d1f8        ..      BNE      0x1a26 ; uart_transmit_delay + 6
        0x00001a34:    bd10        ..      POP      {r4,pc}
    i.uint64_to_hexstr
    uint64_to_hexstr
        0x00001a36:    e92d41f0    -..A    PUSH     {r4-r8,lr}
        0x00001a3a:    b085        ..      SUB      sp,sp,#0x14
        0x00001a3c:    4604        .F      MOV      r4,r0
        0x00001a3e:    460d        .F      MOV      r5,r1
        0x00001a40:    461e        .F      MOV      r6,r3
        0x00001a42:    2100        .!      MOVS     r1,#0
        0x00001a44:    468c        .F      MOV      r12,r1
        0x00001a46:    ea84070c    ....    EOR      r7,r4,r12
        0x00001a4a:    ea850c0c    ....    EOR      r12,r5,r12
        0x00001a4e:    ea57070c    W...    ORRS     r7,r7,r12
        0x00001a52:    d105        ..      BNE      0x1a60 ; uint64_to_hexstr + 42
        0x00001a54:    f04f0830    O.0.    MOV      r8,#0x30
        0x00001a58:    460f        .F      MOV      r7,r1
        0x00001a5a:    1c49        I.      ADDS     r1,r1,#1
        0x00001a5c:    f80d8007    ....    STRB     r8,[sp,r7]
        0x00001a60:    e016        ..      B        0x1a90 ; uint64_to_hexstr + 90
        0x00001a62:    270f        .'      MOVS     r7,#0xf
        0x00001a64:    4027        '@      ANDS     r7,r7,r4
        0x00001a66:    b2fb        ..      UXTB     r3,r7
        0x00001a68:    2b09        .+      CMP      r3,#9
        0x00001a6a:    dd05        ..      BLE      0x1a78 ; uint64_to_hexstr + 66
        0x00001a6c:    b10e        ..      CBZ      r6,0x1a72 ; uint64_to_hexstr + 60
        0x00001a6e:    2727        ''      MOVS     r7,#0x27
        0x00001a70:    e000        ..      B        0x1a74 ; uint64_to_hexstr + 62
        0x00001a72:    2707        .'      MOVS     r7,#7
        0x00001a74:    441f        .D      ADD      r7,r7,r3
        0x00001a76:    b2fb        ..      UXTB     r3,r7
        0x00001a78:    f1030730    ..0.    ADD      r7,r3,#0x30
        0x00001a7c:    f00708ff    ....    AND      r8,r7,#0xff
        0x00001a80:    460f        .F      MOV      r7,r1
        0x00001a82:    1c49        I.      ADDS     r1,r1,#1
        0x00001a84:    f80d8007    ....    STRB     r8,[sp,r7]
        0x00001a88:    0927        '.      LSRS     r7,r4,#4
        0x00001a8a:    ea477405    G..t    ORR      r4,r7,r5,LSL #28
        0x00001a8e:    092d        -.      LSRS     r5,r5,#4
        0x00001a90:    f04f0c00    O...    MOV      r12,#0
        0x00001a94:    ea84070c    ....    EOR      r7,r4,r12
        0x00001a98:    ea850c0c    ....    EOR      r12,r5,r12
        0x00001a9c:    ea57070c    W...    ORRS     r7,r7,r12
        0x00001aa0:    d1df        ..      BNE      0x1a62 ; uint64_to_hexstr + 44
        0x00001aa2:    4608        .F      MOV      r0,r1
        0x00001aa4:    b14a        J.      CBZ      r2,0x1aba ; uint64_to_hexstr + 132
        0x00001aa6:    e003        ..      B        0x1ab0 ; uint64_to_hexstr + 122
        0x00001aa8:    f81d7001    ...p    LDRB     r7,[sp,r1]
        0x00001aac:    f8027b01    ...{    STRB     r7,[r2],#1
        0x00001ab0:    1e0f        ..      SUBS     r7,r1,#0
        0x00001ab2:    f1a10101    ....    SUB      r1,r1,#1
        0x00001ab6:    d1f7        ..      BNE      0x1aa8 ; uint64_to_hexstr + 114
        0x00001ab8:    7017        .p      STRB     r7,[r2,#0]
        0x00001aba:    b005        ..      ADD      sp,sp,#0x14
        0x00001abc:    e8bd81f0    ....    POP      {r4-r8,pc}
    i.uint64_to_str
    uint64_to_str
        0x00001ac0:    e92d4ff0    -..O    PUSH     {r4-r11,lr}
        0x00001ac4:    b087        ..      SUB      sp,sp,#0x1c
        0x00001ac6:    4607        .F      MOV      r7,r0
        0x00001ac8:    4688        .F      MOV      r8,r1
        0x00001aca:    4616        .F      MOV      r6,r2
        0x00001acc:    f04f0900    O...    MOV      r9,#0
        0x00001ad0:    46cb        .F      MOV      r11,r9
        0x00001ad2:    bf00        ..      NOP      
        0x00001ad4:    4638        8F      MOV      r0,r7
        0x00001ad6:    4641        AF      MOV      r1,r8
        0x00001ad8:    f7fffca7    ....    BL       divu64_10 ; 0x142a
        0x00001adc:    4604        .F      MOV      r4,r0
        0x00001ade:    460d        .F      MOV      r5,r1
        0x00001ae0:    210a        .!      MOVS     r1,#0xa
        0x00001ae2:    fba40101    ....    UMULL    r0,r1,r4,r1
        0x00001ae6:    ebb70a00    ....    SUBS     r10,r7,r0
        0x00001aea:    f10a0030    ..0.    ADD      r0,r10,#0x30
        0x00001aee:    b2c2        ..      UXTB     r2,r0
        0x00001af0:    4648        HF      MOV      r0,r9
        0x00001af2:    f1090901    ....    ADD      r9,r9,#1
        0x00001af6:    f80d2000    ...     STRB     r2,[sp,r0]
        0x00001afa:    4627        'F      MOV      r7,r4
        0x00001afc:    46a8        .F      MOV      r8,r5
        0x00001afe:    f04f0200    O...    MOV      r2,#0
        0x00001b02:    ea870002    ....    EOR      r0,r7,r2
        0x00001b06:    ea880102    ....    EOR      r1,r8,r2
        0x00001b0a:    4308        .C      ORRS     r0,r0,r1
        0x00001b0c:    d1e2        ..      BNE      0x1ad4 ; uint64_to_str + 20
        0x00001b0e:    46cb        .F      MOV      r11,r9
        0x00001b10:    b156        V.      CBZ      r6,0x1b28 ; uint64_to_str + 104
        0x00001b12:    e003        ..      B        0x1b1c ; uint64_to_str + 92
        0x00001b14:    f81d0009    ....    LDRB     r0,[sp,r9]
        0x00001b18:    f8060b01    ....    STRB     r0,[r6],#1
        0x00001b1c:    f1b90000    ....    SUBS     r0,r9,#0
        0x00001b20:    f1a90901    ....    SUB      r9,r9,#1
        0x00001b24:    d1f6        ..      BNE      0x1b14 ; uint64_to_str + 84
        0x00001b26:    7030        0p      STRB     r0,[r6,#0]
        0x00001b28:    4658        XF      MOV      r0,r11
        0x00001b2a:    b007        ..      ADD      sp,sp,#0x1c
        0x00001b2c:    e8bd8ff0    ....    POP      {r4-r11,pc}
    x$fpl$d2f
    $v0
    __aeabi_d2f
    _d2f
        0x00001b30:    f0214200    !..B    BIC      r2,r1,#0x80000000
        0x00001b34:    f1a25260    ..`R    SUB      r2,r2,#0x38000000
        0x00001b38:    f5b21f80    ....    CMP      r2,#0x100000
        0x00001b3c:    f0014300    ...C    AND      r3,r1,#0x80000000
        0x00001b40:    bf28        (.      IT       CS
        0x00001b42:    f1d26c7f    ...l    RSBSCS   r12,r2,#0xff00000
        0x00001b46:    d90b        ..      BLS      0x1b60 ; __aeabi_d2f + 48
        0x00001b48:    ea5f1c00    _...    LSLS     r12,r0,#4
        0x00001b4c:    ea4302c2    C...    ORR      r2,r3,r2,LSL #3
        0x00001b50:    eb427050    B.Pp    ADC      r0,r2,r0,LSR #29
        0x00001b54:    bf18        ..      IT       NE
        0x00001b56:    4770        pG      BXNE     lr
        0x00001b58:    bf28        (.      IT       CS
        0x00001b5a:    f0200001     ...    BICCS    r0,r0,#1
        0x00001b5e:    4770        pG      BX       lr
        0x00001b60:    f5b21f80    ....    CMP      r2,#0x100000
        0x00001b64:    bfbc        ..      ITT      LT
        0x00001b66:    4618        .F      MOVLT    r0,r3
        0x00001b68:    4770        pG      BXLT     lr
        0x00001b6a:    ea4f0c41    O.A.    LSL      r12,r1,#1
        0x00001b6e:    f51c1f00    ....    CMN      r12,#0x200000
        0x00001b72:    d202        ..      BCS      0x1b7a ; __aeabi_d2f + 74
        0x00001b74:    4608        .F      MOV      r0,r1
        0x00001b76:    f000b85f    .._.    B.W      __fpl_fretinf ; 0x1c38
        0x00001b7a:    b570        p.      PUSH     {r4-r6,lr}
        0x00001b7c:    f000f809    ....    BL       __fpl_dnaninf ; 0x1b92
    $d
        0x00001b80:    89000000    ....    DCD    2298478592
    $t
        0x00001b84:    f7ffbff6    ....    B.W      0x1b74 ; __aeabi_d2f + 68
        0x00001b88:    f04f4000    O..@    MOV      r0,#0x80000000
        0x00001b8c:    f5a00080    ....    SUB      r0,r0,#0x400000
        0x00001b90:    4770        pG      BX       lr
    x$fpl$dnaninf
    $v0
    __fpl_dnaninf
        0x00001b92:    f10e0e02    ....    ADD      lr,lr,#2
        0x00001b96:    f02e0e03    ....    BIC      lr,lr,#3
        0x00001b9a:    f85e6b04    ^..k    LDR      r6,[lr],#4
        0x00001b9e:    4236        6B      TST      r6,r6
        0x00001ba0:    d405        ..      BMI      0x1bae ; __fpl_dnaninf + 28
        0x00001ba2:    2a01        .*      CMP      r2,#1
        0x00001ba4:    eb430503    C...    ADC      r5,r3,r3
        0x00001ba8:    f5151f00    ....    CMN      r5,#0x200000
        0x00001bac:    d812        ..      BHI      0x1bd4 ; __fpl_dnaninf + 66
        0x00001bae:    2801        .(      CMP      r0,#1
        0x00001bb0:    eb410c01    A...    ADC      r12,r1,r1
        0x00001bb4:    f51c1f00    ....    CMN      r12,#0x200000
        0x00001bb8:    d80c        ..      BHI      0x1bd4 ; __fpl_dnaninf + 66
        0x00001bba:    d10e        ..      BNE      0x1bda ; __fpl_dnaninf + 72
        0x00001bbc:    ea4f7cd1    O..|    LSR      r12,r1,#31
        0x00001bc0:    f5151f00    ....    CMN      r5,#0x200000
        0x00001bc4:    eb0c0c4c    ..L.    ADD      r12,r12,r12,LSL #1
        0x00001bc8:    f10c0c02    ....    ADD      r12,r12,#2
        0x00001bcc:    bf08        ..      IT       EQ
        0x00001bce:    eb4c7cd3    L..|    ADCEQ    r12,r12,r3,LSR #31
        0x00001bd2:    e004        ..      B        0x1bde ; __fpl_dnaninf + 76
        0x00001bd4:    f04f0c08    O...    MOV      r12,#8
        0x00001bd8:    e001        ..      B        0x1bde ; __fpl_dnaninf + 76
        0x00001bda:    ea4f7cd3    O..|    LSR      r12,r3,#31
        0x00001bde:    eb0c054c    ..L.    ADD      r5,r12,r12,LSL #1
        0x00001be2:    fa26f605    &...    LSR      r6,r6,r5
        0x00001be6:    f0060607    ....    AND      r6,r6,#7
        0x00001bea:    f1b60c04    ....    SUBS     r12,r6,#4
        0x00001bee:    d206        ..      BCS      0x1bfe ; __fpl_dnaninf + 108
        0x00001bf0:    eb0e0c86    ....    ADD      r12,lr,r6,LSL #2
        0x00001bf4:    e8bd4070    ..p@    POP      {r4-r6,lr}
        0x00001bf8:    f04c0c01    L...    ORR      r12,r12,#1
        0x00001bfc:    4760        `G      BX       r12
        0x00001bfe:    e8dff00c    ....    TBB      [pc,r12]
    $d
        0x00001c02:    0b09        ..      DCW    2825
        0x00001c04:    0202        ..      DCW    514
    $t
        0x00001c06:    f04f4100    O..A    MOV      r1,#0x80000000
        0x00001c0a:    f04f0000    O...    MOV      r0,#0
        0x00001c0e:    f5a12100    ...!    SUB      r1,r1,#0x80000
        0x00001c12:    bd70        p.      POP      {r4-r6,pc}
        0x00001c14:    4619        .F      MOV      r1,r3
        0x00001c16:    4610        .F      MOV      r0,r2
        0x00001c18:    2801        .(      CMP      r0,#1
        0x00001c1a:    eb510401    Q...    ADCS     r4,r1,r1
        0x00001c1e:    bf18        ..      IT       NE
        0x00001c20:    f5d41400    ....    RSBSNE   r4,r4,#0x200000
        0x00001c24:    bf84        ..      ITT      HI
        0x00001c26:    2000        .       MOVHI    r0,#0
        0x00001c28:    f0014100    ...A    ANDHI    r1,r1,#0x80000000
        0x00001c2c:    bd70        p.      POP      {r4-r6,pc}
    x$fpl$fpinit
    $v0
    _fp_init
        0x00001c2e:    f04f7040    O.@p    MOV      r0,#0x3000000
        0x00001c32:    eee10a10    ....    VMSR     FPSCR,r0
    __fplib_config_fpu_vfp
    __fplib_config_pureend_doubles
        0x00001c36:    4770        pG      BX       lr
    x$fpl$fretinf
    $v0
    __fpl_fretinf
        0x00001c38:    21ff        .!      MOVS     r1,#0xff
        0x00001c3a:    ea4150d0    A..P    ORR      r0,r1,r0,LSR #23
        0x00001c3e:    05c0        ..      LSLS     r0,r0,#23
        0x00001c40:    4770        pG      BX       lr
    $d.realdata
    .constdata
    x$fpl$usenofp
    __I$use$fp
    am_hal_cachectrl_defaults
        0x00001c42:    0001        ..      DCW    1
        0x00001c44:    03005000    .P..    DCD    50352128
        0x00001c48:    01010001    ....    DCD    16842753
        0x00001c4c:    00000001    ....    DCD    1
    .conststring
        0x00001c50:    65746f4e    Note    DCD    1702129486
        0x00001c54:    74202d20     - t    DCD    1948265760
        0x00001c58:    55206568    he U    DCD    1428186472
        0x00001c5c:    20545241    ART     DCD    542396993
        0x00001c60:    6d726574    term    DCD    1836213620
        0x00001c64:    6c616e69    inal    DCD    1818324585
        0x00001c68:    65706f20     ope    DCD    1701867296
        0x00001c6c:    65746172    rate    DCD    1702125938
        0x00001c70:    74612073    s at    DCD    1952522355
        0x00001c74:    35313120     115    DCD    892416288
        0x00001c78:    3030322c    ,200    DCD    808464940
        0x00001c7c:    55414220     BAU    DCD    1430340128
        0x00001c80:    38202c44    D, 8    DCD    941632580
        0x00001c84:    74696220     bit    DCD    1953063456
        0x00001c88:    6f6e202c    , no    DCD    1869488172
        0x00001c8c:    72617020     par    DCD    1918988320
        0x00001c90:    2e797469    ity.    DCD    779711593
        0x00001c94:    0000000a    ....    DCD    10
    Region$$Table$$Base
        0x00001c98:    00001cb8    ....    DCD    7352
        0x00001c9c:    10000000    ....    DCD    268435456
        0x00001ca0:    00000024    $...    DCD    36
        0x00001ca4:    00000124    $...    DCD    292
        0x00001ca8:    00001cdc    ....    DCD    7388
        0x00001cac:    10000024    $...    DCD    268435492
        0x00001cb0:    0000140c    ....    DCD    5132
        0x00001cb4:    00000140    @...    DCD    320
    Region$$Table$$Limit

** Section #2 'SRAM' (SHT_PROGBITS) [SHF_ALLOC + SHF_WRITE]
    Size   : 36 bytes (alignment 4)
    Address: 0x10000000

    0x10000000:   00 00 00 00 00 c2 01 00 60 00 00 00 00 00 00 00    ........`.......
    0x10000010:   00 00 00 00 00 00 00 00 00 00 00 00 00 00 00 00    ................
    0x10000020:   00 00 00 00                                        ....


** Section #3 'SRAM' (SHT_NOBITS) [SHF_ALLOC + SHF_WRITE]
    Size   : 5132 bytes (alignment 8)
    Address: 0x10000024


** Section #4 '.debug_abbrev' (SHT_PROGBITS)
    Size   : 1476 bytes


** Section #5 '.debug_frame' (SHT_PROGBITS)
    Size   : 3192 bytes


** Section #6 '.debug_info' (SHT_PROGBITS)
    Size   : 11948 bytes


** Section #7 '.debug_line' (SHT_PROGBITS)
    Size   : 5136 bytes


** Section #8 '.debug_loc' (SHT_PROGBITS)
    Size   : 2188 bytes


** Section #9 '.debug_macinfo' (SHT_PROGBITS)
    Size   : 6316 bytes


** Section #10 '.debug_pubnames' (SHT_PROGBITS)
    Size   : 646 bytes


** Section #11 '.symtab' (SHT_SYMTAB)
    Size   : 8016 bytes (alignment 4)
    String table #12 '.strtab'
    Last local symbol no. 316

    Symbol table .symtab (500 symbols, 316 local)

      #  Symbol Name                Value      Bind  Sec  Type  Vis  Size
    ========================================================================

      1  $d                         0x00000000   Lc    1   --   De 
      2  $t                         0x000000c0   Lc    1   --   De 
      3  $d                         0x000000e4   Lc    1   --   De 
      4  $t                         0x000000e8   Lc    1   --   De 
      5  $d                         0x0000011c   Lc    1   --   De 
      6  $t                         0x00000124   Lc    1   --   De 
      7  $d                         0x000001ce   Lc    1   --   De 
      8  $t                         0x000001dc   Lc    1   --   De 
      9  $d                         0x00000290   Lc    1   --   De 
     10  $t                         0x00000294   Lc    1   --   De 
     11  $d                         0x0000029c   Lc    1   --   De 
     12  $t                         0x000002a0   Lc    1   --   De 
     13  $d                         0x000002fe   Lc    1   --   De 
     14  $t                         0x00000314   Lc    1   --   De 
     15  $d                         0x00000408   Lc    1   --   De 
     16  $t                         0x0000040c   Lc    1   --   De 
     17  $d                         0x00000438   Lc    1   --   De 
     18  $t                         0x00000440   Lc    1   --   De 
     19  $d                         0x00000460   Lc    1   --   De 
     20  $t                         0x000004a8   Lc    1   --   De 
     21  $d                         0x000004f0   Lc    1   --   De 
     22  $t                         0x000004f4   Lc    1   --   De 
     23  $d                         0x0000053a   Lc    1   --   De 
     24  $t                         0x00000540   Lc    1   --   De 
     25  $d                         0x00000578   Lc    1   --   De 
     26  $t                         0x00000598   Lc    1   --   De 
     27  $d                         0x000005fc   Lc    1   --   De 
     28  $t                         0x00000600   Lc    1   --   De 
     29  $d                         0x0000063c   Lc    1   --   De 
     30  $t                         0x00000640   Lc    1   --   De 
     31  $d                         0x00000654   Lc    1   --   De 
     32  $t                         0x00000658   Lc    1   --   De 
     33  $d                         0x000007cc   Lc    1   --   De 
     34  $t                         0x000007d8   Lc    1   --   De 
     35  $d                         0x00000848   Lc    1   --   De 
     36  $t                         0x00000894   Lc    1   --   De 
     37  $d                         0x00000a78   Lc    1   --   De 
     38  $t                         0x00000a8c   Lc    1   --   De 
     39  $d                         0x00000ac2   Lc    1   --   De 
     40  $t                         0x00000ac8   Lc    1   --   De 
     41  $d                         0x00000b7c   Lc    1   --   De 
     42  $t                         0x00000bc4   Lc    1   --   De 
     43  $d                         0x00000c5e   Lc    1   --   De 
     44  $t                         0x00000c68   Lc    1   --   De 
     45  $d                         0x00000cc6   Lc    1   --   De 
     46  $t                         0x00000cd0   Lc    1   --   De 
     47  $d                         0x00000d24   Lc    1   --   De 
     48  $t                         0x00000d68   Lc    1   --   De 
     49  $d                         0x00000e34   Lc    1   --   De 
     50  $t                         0x00000e3c   Lc    1   --   De 
     51  $d                         0x00000e84   Lc    1   --   De 
     52  $t                         0x00000e88   Lc    1   --   De 
     53  $d                         0x00000e90   Lc    1   --   De 
     54  $t                         0x00000e94   Lc    1   --   De 
     55  $d                         0x00000f08   Lc    1   --   De 
     56  $t                         0x00000f34   Lc    1   --   De 
     57  $d                         0x00000fe6   Lc    1   --   De 
     58  $t                         0x00000fec   Lc    1   --   De 
     59  $d                         0x0000101e   Lc    1   --   De 
     60  $t                         0x00001028   Lc    1   --   De 
     61  $d                         0x0000102e   Lc    1   --   De 
     62  $t                         0x00001034   Lc    1   --   De 
     63  $d                         0x000013d8   Lc    1   --   De 
     64  $t                         0x000013e8   Lc    1   --   De 
     65  $d                         0x0000166a   Lc    1   --   De 
     66  $t                         0x00001670   Lc    1   --   De 
     67  $d                         0x00001762   Lc    1   --   De 
     68  $t                         0x000017f0   Lc    1   --   De 
     69  $d                         0x00001956   Lc    1   --   De 
     70  $t                         0x0000195c   Lc    1   --   De 
     71  $d                         0x00001a0e   Lc    1   --   De 
     72  $t                         0x00001a20   Lc    1   --   De 
     73  $d                         0x00001b80   Lc    1   --   De 
     74  $t                         0x00001b84   Lc    1   --   De 
     75  $d                         0x00001c02   Lc    1   --   De 
     76  $t                         0x00001c06   Lc    1   --   De 
     77  $d.realdata                0x00001c42   Lc    1   --   De 
     78  $d.realdata                0x10000000   Lc    2   --   De 
     79  ../src/uart_fifo_timeout.c 0x00000000   Lc  Abs  File  De 
     80  i.am_uart_isr              0x00000e94   Lc    1  Sect  De 
     81  i.main                     0x00001670   Lc    1  Sect  De 
     82  i.uart_enable              0x000018bc   Lc    1  Sect  De 
     83  i.uart_init                0x0000195c   Lc    1  Sect  De 
     84  i.uart_transmit_delay      0x00001a20   Lc    1  Sect  De 
     85  .bss                       0x10000024   Lc    3  Sect  De   0x200
     86  .conststring               0x00001c50   Lc    1  Sect  De   0x46
     87  .data                      0x10000000   Lc    2  Sect  De   0x18
     88  ../../../../../utils/am_util_delay.c
                                    0x00000000   Lc  Abs  File  De 
     89  ..\..\..\..\..\utils\am_util_faultisr.c
                                    0x00000000   Lc  Abs  File  De 
     90  .emb_text                  0x00000188   Lc    1  Sect  De   0x22
     91  $v0                        0x00000188   Lc    1   --   De 
     92  ../../../../../utils/am_util_faultisr.c
                                    0x00000000   Lc  Abs  File  De 
     93  i.am_util_faultisr_collect_data
                                    0x00000f34   Lc    1  Sect  De 
     94  ../../../../../utils/am_util_stdio.c
                                    0x00000000   Lc  Abs  File  De 
     95  i.am_util_stdio_printf     0x00000fec   Lc    1  Sect  De 
     96  i.am_util_stdio_printf_init
                                    0x00001028   Lc    1  Sect  De 
     97  i.am_util_stdio_vsprintf   0x00001034   Lc    1  Sect  De 
     98  i.decstr_to_int            0x000013e8   Lc    1  Sect  De 
     99  decstr_to_int              0x000013e9   Lc    1  Code  De   0x42
    100  i.divu64_10                0x0000142a   Lc    1  Sect  De 
    101  divu64_10                  0x0000142b   Lc    1  Code  De   0xcc
    102  i.ftoa                     0x000014f8   Lc    1  Sect  De 
    103  ftoa                       0x000014f9   Lc    1  Code  De   0x172
    104  i.ndigits_in_hex           0x000017f0   Lc    1  Sect  De 
    105  ndigits_in_hex             0x000017f1   Lc    1  Code  De   0x34
    106  i.ndigits_in_i64           0x00001824   Lc    1  Sect  De 
    107  ndigits_in_i64             0x00001825   Lc    1  Code  De   0x24
    108  i.ndigits_in_u64           0x00001848   Lc    1  Sect  De 
    109  ndigits_in_u64             0x00001849   Lc    1  Code  De   0x3a
    110  i.padbuffer                0x00001882   Lc    1  Sect  De 
    111  padbuffer                  0x00001883   Lc    1  Code  De   0x22
    112  i.simple_strlen            0x000018a4   Lc    1  Sect  De 
    113  simple_strlen              0x000018a5   Lc    1  Code  De   0x18
    114  i.uint64_to_hexstr         0x00001a36   Lc    1  Sect  De 
    115  uint64_to_hexstr           0x00001a37   Lc    1  Code  De   0x8a
    116  i.uint64_to_str            0x00001ac0   Lc    1  Sect  De 
    117  uint64_to_str              0x00001ac1   Lc    1  Code  De   0x70
    118  .bss                       0x10000224   Lc    3  Sect  De   0x100
    119  g_prfbuf                   0x10000224   Lc    3  Data  De   0x100
    120  .data                      0x10000018   Lc    2  Sect  De   0x5
    121  g_bTxtXlate                0x1000001c   Lc    2  Data  De   0x1
    122  ../keil/startup_keil.s     0x00000000   Lc  Abs  File  De 
    123  STACK                      0x10000430   Lc    3  Sect  De   0x1000
    124  StackMem                   0x10000430   Lc    3  Data  De 
    125  HEAP                       0x10000430   Lc    3  Sect  De 
    126  HeapMem                    0x10000430   Lc    3  Data  De 
    127  RESET                      0x00000000   Lc    1  Sect  De   0xe8
    128  $v0                        0x000000c0   Lc    1   --   De 
    129  .text                      0x000001c4   Lc    1  Sect  De   0x18
    130  $v0                        0x000001c4   Lc    1   --   De 
    131  ..\am_hal_global.c         0x00000000   Lc  Abs  File  De 
    132  ../am_hal_global.c         0x00000000   Lc  Abs  File  De 
    133  .data                      0x10000020   Lc    2  Sect  De   0x4
    134  ../am_bsp.c                0x00000000   Lc  Abs  File  De 
    135  i.am_bsp_debug_printf_enable
                                    0x000002a4   Lc    1  Sect  De 
    136  i.am_bsp_itm_string_print  0x00000314   Lc    1  Sect  De 
    137  i.am_bsp_low_power_init    0x00000318   Lc    1  Sect  De 
    138  ../am_hal_cachectrl.c      0x00000000   Lc  Abs  File  De 
    139  i.am_hal_cachectrl_enable  0x0000033c   Lc    1  Sect  De 
    140  .constdata                 0x00001c42   Lc    1  Sect  De   0xc
    141  ../am_hal_clkgen.c         0x00000000   Lc  Abs  File  De 
    142  i.am_hal_clkgen_osc_stop   0x0000040c   Lc    1  Sect  De 
    143  i.am_hal_clkgen_sysclk_get 0x00000420   Lc    1  Sect  De 
    144  i.am_hal_clkgen_sysclk_select
                                    0x00000440   Lc    1  Sect  De 
    145  i.am_hal_clkgen_uarten_set 0x000004a8   Lc    1  Sect  De 
    146  ../am_hal_flash.c          0x00000000   Lc  Abs  File  De 
    147  i.am_hal_flash_delay       0x000004ec   Lc    1  Sect  De 
    148  ..\am_hal_interrupt.c      0x00000000   Lc  Abs  File  De 
    149  .emb_text                  0x000001ac   Lc    1  Sect  De   0x16
    150  $v0                        0x000001ac   Lc    1   --   De 
    151  ../am_hal_interrupt.c      0x00000000   Lc  Abs  File  De 
    152  i.am_hal_interrupt_enable  0x000004f4   Lc    1  Sect  De 
    153  ../am_hal_itm.c            0x00000000   Lc  Abs  File  De 
    154  i.am_hal_itm_enable        0x00000540   Lc    1  Sect  De 
    155  i.am_hal_itm_print         0x00000598   Lc    1  Sect  De 
    156  ../am_hal_mcuctrl.c        0x00000000   Lc  Abs  File  De 
    157  i.am_hal_mcuctrl_fault_status
                                    0x000005c8   Lc    1  Sect  De 
    158  ../am_hal_uart.c           0x00000000   Lc  Abs  File  De 
    159  i.am_hal_uart_char_receive_buffered
                                    0x00000a8c   Lc    1  Sect  De 
    160  i.am_hal_uart_clock_enable 0x00000ac8   Lc    1  Sect  De 
    161  i.am_hal_uart_config       0x00000af0   Lc    1  Sect  De 
    162  i.am_hal_uart_disable      0x00000bc4   Lc    1  Sect  De 
    163  i.am_hal_uart_enable       0x00000bee   Lc    1  Sect  De 
    164  i.am_hal_uart_fifo_config  0x00000c16   Lc    1  Sect  De 
    165  i.am_hal_uart_flags_get    0x00000c2c   Lc    1  Sect  De 
    166  i.am_hal_uart_get_status_buffered
                                    0x00000c3c   Lc    1  Sect  De 
    167  i.am_hal_uart_init_buffered
                                    0x00000c68   Lc    1  Sect  De 
    168  i.am_hal_uart_int_clear    0x00000cd0   Lc    1  Sect  De 
    169  i.am_hal_uart_int_enable   0x00000cde   Lc    1  Sect  De 
    170  i.am_hal_uart_int_status_get
                                    0x00000cf0   Lc    1  Sect  De 
    171  i.am_hal_uart_pwrctrl_enable
                                    0x00000d04   Lc    1  Sect  De 
    172  i.am_hal_uart_service_buffered_timeout_save
                                    0x00000d68   Lc    1  Sect  De 
    173  i.am_hal_uart_string_transmit_buffered
                                    0x00000e3c   Lc    1  Sect  De 
    174  .bss                       0x10000324   Lc    3  Sect  De   0xa8
    175  ../am_hal_debug.c          0x00000000   Lc  Abs  File  De 
    176  i.am_hal_debug_error       0x000004ea   Lc    1  Sect  De 
    177  ../am_hal_gpio.c           0x00000000   Lc  Abs  File  De 
    178  ..\am_hal_iom.c            0x00000000   Lc  Abs  File  De 
    179  ../am_hal_iom.c            0x00000000   Lc  Abs  File  De 
    180  ../am_hal_pwrctrl.c        0x00000000   Lc  Abs  File  De 
    181  i.am_hal_pwrctrl_bucks_init
                                    0x00000600   Lc    1  Sect  De 
    182  i.am_hal_pwrctrl_low_power_init
                                    0x00000640   Lc    1  Sect  De 
    183  i.am_hal_pwrctrl_memory_enable
                                    0x00000658   Lc    1  Sect  De 
    184  i.am_hal_pwrctrl_periph_enable
                                    0x000007d8   Lc    1  Sect  De 
    185  ../am_hal_queue.c          0x00000000   Lc  Abs  File  De 
    186  i.am_hal_queue_init        0x00000894   Lc    1  Sect  De 
    187  i.am_hal_queue_item_add    0x000008aa   Lc    1  Sect  De 
    188  i.am_hal_queue_item_get    0x00000948   Lc    1  Sect  De 
    189  ../am_hal_rtc.c            0x00000000   Lc  Abs  File  De 
    190  i.am_hal_rtc_osc_disable   0x000009e0   Lc    1  Sect  De 
    191  i.am_hal_rtc_osc_select    0x000009ee   Lc    1  Sect  De 
    192  ../am_hal_tpiu.c           0x00000000   Lc  Abs  File  De 
    193  i.am_hal_tpiu_enable       0x00000a04   Lc    1  Sect  De 
    194  ../am_hal_vcomp.c          0x00000000   Lc  Abs  File  De 
    195  i.am_hal_vcomp_disable     0x00000e88   Lc    1  Sect  De 
    196  ../am_hal_i2c_bit_bang.c   0x00000000   Lc  Abs  File  De 
    197  ../am_hal_sysctrl.c        0x00000000   Lc  Abs  File  De 
    198  ../am_hal_ctimer.c         0x00000000   Lc  Abs  File  De 
    199  dc.s                       0x00000000   Lc  Abs  File  De 
    200  ../clib/longlong.s         0x00000000   Lc  Abs  File  De 
    201  ../clib/memcpset.s         0x00000000   Lc  Abs  File  De 
    202  .text                      0x000001dc   Lc    1  Sect  De   0x4e
    203  ../clib/heapaux.c          0x00000000   Lc  Abs  File  De 
    204  .text                      0x0000022a   Lc    1  Sect  De 
    205  ../clib/angel/startup.s    0x00000000   Lc  Abs  File  De 
    206  !!!main                    0x000000e8   Lc    1  Sect  De   0x8
    207  ../fplib/d2f.s             0x00000000   Lc  Abs  File  De 
    208  x$fpl$d2f                  0x00001b30   Lc    1  Sect  De   0x62
    209  $v0                        0x00001b30   Lc    1   --   De 
    210  ../clib/angel/kernel.s     0x00000000   Lc  Abs  File  De 
    211  .ARM.Collect$$rtentry$$00000000
                                    0x00000168   Lc    1  Sect  De 
    212  ../fplib/dnaninf.s         0x00000000   Lc  Abs  File  De 
    213  x$fpl$dnaninf              0x00001b92   Lc    1  Sect  De   0x9c
    214  $v0                        0x00001b92   Lc    1   --   De 
    215  ../fplib/fretinf.s         0x00000000   Lc  Abs  File  De 
    216  x$fpl$fretinf              0x00001c38   Lc    1  Sect  De   0xa
    217  $v0                        0x00001c38   Lc    1   --   De 
    218  ../fplib/usenofp.s         0x00000000   Lc  Abs  File  De 
    219  x$fpl$usenofp              0x00001c42   Lc    1  Sect  De 
    220  ../clib/angel/kernel.s     0x00000000   Lc  Abs  File  De 
    221  .ARM.Collect$$rtentry$$00000002
                                    0x00000168   Lc    1  Sect  De 
    222  .ARM.Collect$$rtentry$$00000009
                                    0x0000016e   Lc    1  Sect  De 
    223  .ARM.Collect$$rtentry$$0000000A
                                    0x0000016e   Lc    1  Sect  De   0x4
    224  .ARM.Collect$$rtentry$$0000000C
                                    0x00000172   Lc    1  Sect  De 
    225  .ARM.Collect$$rtentry$$0000000D
                                    0x00000172   Lc    1  Sect  De   0x8
    226  ../clib/angel/kernel.s     0x00000000   Lc  Abs  File  De 
    227  .ARM.Collect$$rtentry$$00000004
                                    0x00000168   Lc    1  Sect  De   0x6
    228  ../clib/angel/sys.s        0x00000000   Lc  Abs  File  De 
    229  .text                      0x00000230   Lc    1  Sect  De   0x4a
    230  ../clib/stdlib.c           0x00000000   Lc  Abs  File  De 
    231  .text                      0x0000027a   Lc    1  Sect  De 
    232  ../clib/angel/boardlib.s   0x00000000   Lc  Abs  File  De 
    233  ../clib/angel/boardlib.s   0x00000000   Lc  Abs  File  De 
    234  ../clib/angel/boardlib.s   0x00000000   Lc  Abs  File  De 
    235  ../clib/libinit.s          0x00000000   Lc  Abs  File  De 
    236  .ARM.Collect$$libinit$$00000000
                                    0x0000015c   Lc    1  Sect  De   0x2
    237  ../clib/angel/sys.s        0x00000000   Lc  Abs  File  De 
    238  .text                      0x0000028c   Lc    1  Sect  De   0x8
    239  .bss                       0x100003cc   Lc    3  Sect  De   0x60
    240  ../clib/angel/kernel.s     0x00000000   Lc  Abs  File  De 
    241  .ARM.Collect$$rtexit$$00000000
                                    0x0000017a   Lc    1  Sect  De   0x2
    242  ../clib/libinit.s          0x00000000   Lc  Abs  File  De 
    243  .ARM.Collect$$libinit$$00000001
                                    0x0000015e   Lc    1  Sect  De   0x4
    244  .ARM.Collect$$libinit$$00000004
                                    0x00000162   Lc    1  Sect  De 
    245  .ARM.Collect$$libinit$$0000000A
                                    0x00000162   Lc    1  Sect  De 
    246  .ARM.Collect$$libinit$$0000000C
                                    0x00000162   Lc    1  Sect  De 
    247  .ARM.Collect$$libinit$$0000000E
                                    0x00000162   Lc    1  Sect  De 
    248  .ARM.Collect$$libinit$$00000011
                                    0x00000162   Lc    1  Sect  De 
    249  .ARM.Collect$$libinit$$00000013
                                    0x00000162   Lc    1  Sect  De 
    250  .ARM.Collect$$libinit$$00000015
                                    0x00000162   Lc    1  Sect  De 
    251  .ARM.Collect$$libinit$$00000017
                                    0x00000162   Lc    1  Sect  De 
    252  .ARM.Collect$$libinit$$00000019
                                    0x00000162   Lc    1  Sect  De 
    253  .ARM.Collect$$libinit$$0000001B
                                    0x00000162   Lc    1  Sect  De 
    254  .ARM.Collect$$libinit$$0000001D
                                    0x00000162   Lc    1  Sect  De 
    255  .ARM.Collect$$libinit$$0000001F
                                    0x00000162   Lc    1  Sect  De 
    256  .ARM.Collect$$libinit$$00000021
                                    0x00000162   Lc    1  Sect  De 
    257  .ARM.Collect$$libinit$$00000023
                                    0x00000162   Lc    1  Sect  De 
    258  .ARM.Collect$$libinit$$00000025
                                    0x00000162   Lc    1  Sect  De 
    259  .ARM.Collect$$libinit$$0000002C
                                    0x00000162   Lc    1  Sect  De 
    260  .ARM.Collect$$libinit$$0000002E
                                    0x00000162   Lc    1  Sect  De 
    261  .ARM.Collect$$libinit$$00000030
                                    0x00000162   Lc    1  Sect  De 
    262  .ARM.Collect$$libinit$$00000032
                                    0x00000162   Lc    1  Sect  De 
    263  .ARM.Collect$$libinit$$00000033
                                    0x00000162   Lc    1  Sect  De   0x2
    264  ../clib/angel/kernel.s     0x00000000   Lc  Abs  File  De 
    265  .ARM.Collect$$rtexit$$00000002
                                    0x0000017c   Lc    1  Sect  De 
    266  .ARM.Collect$$rtexit$$00000003
                                    0x0000017c   Lc    1  Sect  De   0x4
    267  .ARM.Collect$$rtexit$$00000004
                                    0x00000180   Lc    1  Sect  De   0x6
    268  ../clib/armsys.c           0x00000000   Lc  Abs  File  De 
    269  ../clib/armsys.c           0x00000000   Lc  Abs  File  De 
    270  ../fplib/fpinit.s          0x00000000   Lc  Abs  File  De 
    271  x$fpl$fpinit               0x00001c2e   Lc    1  Sect  De   0xa
    272  $v0                        0x00001c2e   Lc    1   --   De 
    273  ../clib/angel/sysapp.c     0x00000000   Lc  Abs  File  De 
    274  .text                      0x00000294   Lc    1  Sect  De 
    275  ../clib/angel/boardlib.s   0x00000000   Lc  Abs  File  De 
    276  ../clib/armsys.c           0x00000000   Lc  Abs  File  De 
    277  ../clib/armsys.c           0x00000000   Lc  Abs  File  De 
    278  ../clib/libinit.s          0x00000000   Lc  Abs  File  De 
    279  .ARM.Collect$$libshutdown$$00000000
                                    0x00000164   Lc    1  Sect  De   0x2
    280  ../clib/angel/sysapp.c     0x00000000   Lc  Abs  File  De 
    281  ../clib/angel/sys.s        0x00000000   Lc  Abs  File  De 
    282  .text                      0x000002a0   Lc    1  Sect  De   0x2
    283  ../clib/angel/sys.s        0x00000000   Lc  Abs  File  De 
    284  .text                      0x000002a2   Lc    1  Sect  De 
    285  ../clib/heapalloc.c        0x00000000   Lc  Abs  File  De 
    286  ../clib/signal.c           0x00000000   Lc  Abs  File  De 
    287  ../clib/signal.c           0x00000000   Lc  Abs  File  De 
    288  ../clib/libinit.s          0x00000000   Lc  Abs  File  De 
    289  .ARM.Collect$$libshutdown$$00000002
                                    0x00000166   Lc    1  Sect  De 
    290  .ARM.Collect$$libshutdown$$00000004
                                    0x00000166   Lc    1  Sect  De 
    291  .ARM.Collect$$libshutdown$$00000007
                                    0x00000166   Lc    1  Sect  De 
    292  .ARM.Collect$$libshutdown$$0000000A
                                    0x00000166   Lc    1  Sect  De 
    293  .ARM.Collect$$libshutdown$$0000000C
                                    0x00000166   Lc    1  Sect  De 
    294  .ARM.Collect$$libshutdown$$0000000F
                                    0x00000166   Lc    1  Sect  De 
    295  .ARM.Collect$$libshutdown$$00000010
                                    0x00000166   Lc    1  Sect  De   0x2
    296  ../clib/angel/rt.s         0x00000000   Lc  Abs  File  De 
    297  ../clib/signal.c           0x00000000   Lc  Abs  File  De 
    298  ../clib/signal.c           0x00000000   Lc  Abs  File  De 
    299  ../clib/signal.c           0x00000000   Lc  Abs  File  De 
    300  ../clib/signal.c           0x00000000   Lc  Abs  File  De 
    301  ../clib/angel/sysapp.c     0x00000000   Lc  Abs  File  De 
    302  ../clib/signal.s           0x00000000   Lc  Abs  File  De 
    303  ../clib/signal.c           0x00000000   Lc  Abs  File  De 
    304  ../clib/signal.c           0x00000000   Lc  Abs  File  De 
    305  ../clib/signal.c           0x00000000   Lc  Abs  File  De 
    306  ../clib/signal.c           0x00000000   Lc  Abs  File  De 
    307  ../clib/signal.c           0x00000000   Lc  Abs  File  De 
    308  ../clib/signal.c           0x00000000   Lc  Abs  File  De 
    309  ../clib/signal.c           0x00000000   Lc  Abs  File  De 
    310  ../clib/signal.c           0x00000000   Lc  Abs  File  De 
    311  ../clib/angel/scatter.s    0x00000000   Lc  Abs  File  De 
    312  !!!scatter                 0x000000f0   Lc    1  Sect  De   0x34
    313  ../clib/angel/handlers.s   0x00000000   Lc  Abs  File  De 
    314  !!handler_copy             0x00000124   Lc    1  Sect  De   0x1a
    315  ../clib/angel/handlers.s   0x00000000   Lc  Abs  File  De 
    316  !!handler_zi               0x00000140   Lc    1  Sect  De   0x1c
    317  BuildAttributes$$THM_ISAv4$E$P$D$K$B$S$7EM$VFPi3$EXTD16$VFPS$VFMA$PE$A:L22UL41UL21$X:L11$S22US41US21$IEEE1$IW$USESV6$~STKCKD$USESV7$~SHL$OTIME$ROPI$EBA8$UX$STANDARDLIB$REQ8$PRES8$EABIv2
                                    0x00000000   Gb  Abs   --   Hi 
    318  __ARM_use_no_argv          0x00000000   Gb  Abs   --   Hi 
    319  __Vectors                  0x00000000   Gb    1  Data  Hi 
    320  Reset_Handler              0x000000c1   Wk    1  Code  Hi   0x1c
    321  am_nmi_isr                 0x000000dd   Wk    1  Code  Hi   0x2
    322  am_memmanage_isr           0x000000e1   Wk    1  Code  Hi   0x2
    323  am_adc_isr                 0x000000e3   Wk    1  Code  Hi 
    324  am_brownout_isr            0x000000e3   Wk    1  Code  Hi 
    325  am_clkgen_isr              0x000000e3   Wk    1  Code  Hi 
    326  am_ctimer_isr              0x000000e3   Wk    1  Code  Hi 
    327  am_debugmon_isr            0x000000e3   Wk    1  Code  Hi 
    328  am_flash_isr               0x000000e3   Wk    1  Code  Hi 
    329  am_gpio_isr                0x000000e3   Wk    1  Code  Hi 
    330  am_iomaster0_isr           0x000000e3   Wk    1  Code  Hi 
    331  am_iomaster1_isr           0x000000e3   Wk    1  Code  Hi 
    332  am_iomaster2_isr           0x000000e3   Wk    1  Code  Hi 
    333  am_iomaster3_isr           0x000000e3   Wk    1  Code  Hi 
    334  am_iomaster4_isr           0x000000e3   Wk    1  Code  Hi 
    335  am_iomaster5_isr           0x000000e3   Wk    1  Code  Hi 
    336  am_ioslave_acc_isr         0x000000e3   Wk    1  Code  Hi 
    337  am_ioslave_ios_isr         0x000000e3   Wk    1  Code  Hi 
    338  am_pdm0_isr                0x000000e3   Wk    1  Code  Hi 
    339  am_pendsv_isr              0x000000e3   Wk    1  Code  Hi 
    340  am_software0_isr           0x000000e3   Wk    1  Code  Hi 
    341  am_software1_isr           0x000000e3   Wk    1  Code  Hi 
    342  am_software2_isr           0x000000e3   Wk    1  Code  Hi 
    343  am_software3_isr           0x000000e3   Wk    1  Code  Hi 
    344  am_stimer_cmpr0_isr        0x000000e3   Wk    1  Code  Hi 
    345  am_stimer_cmpr1_isr        0x000000e3   Wk    1  Code  Hi 
    346  am_stimer_cmpr2_isr        0x000000e3   Wk    1  Code  Hi 
    347  am_stimer_cmpr3_isr        0x000000e3   Wk    1  Code  Hi 
    348  am_stimer_cmpr4_isr        0x000000e3   Wk    1  Code  Hi 
    349  am_stimer_cmpr5_isr        0x000000e3   Wk    1  Code  Hi 
    350  am_stimer_cmpr6_isr        0x000000e3   Wk    1  Code  Hi 
    351  am_stimer_cmpr7_isr        0x000000e3   Wk    1  Code  Hi 
    352  am_stimer_isr              0x000000e3   Wk    1  Code  Hi 
    353  am_svcall_isr              0x000000e3   Wk    1  Code  Hi 
    354  am_systick_isr             0x000000e3   Wk    1  Code  Hi 
    355  am_uart0_isr               0x000000e3   Wk    1  Code  Hi 
    356  am_uart1_isr               0x000000e3   Wk    1  Code  Hi 
    357  am_vcomp_isr               0x000000e3   Wk    1  Code  Hi 
    358  am_watchdog_isr            0x000000e3   Wk    1  Code  Hi 
    359  __main                     0x000000e9   Gb    1  Code  Hi   0x8
    360  __scatterload              0x000000f1   Gb    1  Code  Hi 
    361  __scatterload_rt2          0x000000f1   Gb    1  Code  Hi   0x2c
    362  __scatterload_rt2_thumb_only
                                    0x000000f1   Gb    1  Code  Hi 
    363  __scatterload_null         0x000000ff   Gb    1  Code  Hi 
    364  __scatterload_copy         0x00000125   Gb    1  Code  Hi   0x1a
    365  __scatterload_zeroinit     0x00000141   Gb    1  Code  Hi   0x1c
    366  __rt_lib_init              0x0000015d   Gb    1  Code  De 
    367  __rt_lib_init_fp_1         0x0000015f   Gb    1  Code  Hi 
    368  __rt_lib_init_alloca_1     0x00000163   Gb    1  Code  Hi 
    369  __rt_lib_init_argv_1       0x00000163   Gb    1  Code  Hi 
    370  __rt_lib_init_atexit_1     0x00000163   Gb    1  Code  Hi 
    371  __rt_lib_init_clock_1      0x00000163   Gb    1  Code  Hi 
    372  __rt_lib_init_cpp_1        0x00000163   Gb    1  Code  Hi 
    373  __rt_lib_init_exceptions_1 0x00000163   Gb    1  Code  Hi 
    374  __rt_lib_init_fp_trap_1    0x00000163   Gb    1  Code  Hi 
    375  __rt_lib_init_getenv_1     0x00000163   Gb    1  Code  Hi 
    376  __rt_lib_init_heap_1       0x00000163   Gb    1  Code  Hi 
    377  __rt_lib_init_lc_collate_1 0x00000163   Gb    1  Code  Hi 
    378  __rt_lib_init_lc_ctype_1   0x00000163   Gb    1  Code  Hi 
    379  __rt_lib_init_lc_monetary_1
                                    0x00000163   Gb    1  Code  Hi 
    380  __rt_lib_init_lc_numeric_1 0x00000163   Gb    1  Code  Hi 
    381  __rt_lib_init_lc_time_1    0x00000163   Gb    1  Code  Hi 
    382  __rt_lib_init_preinit_1    0x00000163   Gb    1  Code  Hi 
    383  __rt_lib_init_rand_1       0x00000163   Gb    1  Code  Hi 
    384  __rt_lib_init_return       0x00000163   Gb    1  Code  Hi 
    385  __rt_lib_init_signal_1     0x00000163   Gb    1  Code  Hi 
    386  __rt_lib_init_stdio_1      0x00000163   Gb    1  Code  Hi 
    387  __rt_lib_init_user_alloc_1 0x00000163   Gb    1  Code  Hi 
    388  __rt_lib_shutdown          0x00000165   Gb    1  Code  De 
    389  __rt_lib_shutdown_cpp_1    0x00000167   Gb    1  Code  Hi 
    390  __rt_lib_shutdown_fp_trap_1
                                    0x00000167   Gb    1  Code  Hi 
    391  __rt_lib_shutdown_heap_1   0x00000167   Gb    1  Code  Hi 
    392  __rt_lib_shutdown_return   0x00000167   Gb    1  Code  Hi 
    393  __rt_lib_shutdown_signal_1 0x00000167   Gb    1  Code  Hi 
    394  __rt_lib_shutdown_stdio_1  0x00000167   Gb    1  Code  Hi 
    395  __rt_lib_shutdown_user_alloc_1
                                    0x00000167   Gb    1  Code  Hi 
    396  __rt_entry                 0x00000169   Gb    1  Code  Hi 
    397  __rt_entry_presh_1         0x00000169   Gb    1  Code  Hi 
    398  __rt_entry_sh              0x00000169   Gb    1  Code  Hi 
    399  __rt_entry_li              0x0000016f   Gb    1  Code  Hi 
    400  __rt_entry_postsh_1        0x0000016f   Gb    1  Code  Hi 
    401  __rt_entry_main            0x00000173   Gb    1  Code  Hi 
    402  __rt_entry_postli_1        0x00000173   Gb    1  Code  Hi 
    403  __rt_exit                  0x0000017b   Gb    1  Code  De 
    404  __rt_exit_ls               0x0000017d   Gb    1  Code  Hi 
    405  __rt_exit_prels_1          0x0000017d   Gb    1  Code  Hi 
    406  __rt_exit_exit             0x00000181   Gb    1  Code  Hi 
    407  am_fault_isr               0x00000189   Gb    1  Code  Hi   0x1a
    408  getStackedReg              0x000001a3   Gb    1  Code  Hi   0x8
    409  am_hal_interrupt_master_enable
                                    0x000001ad   Gb    1  Code  Hi   0x8
    410  am_hal_interrupt_master_disable
                                    0x000001b5   Gb    1  Code  Hi   0x8
    411  am_hal_interrupt_master_set
                                    0x000001bd   Gb    1  Code  Hi   0x6
    412  __user_initial_stackheap   0x000001c5   Gb    1  Code  Hi   0xa
    413  __aeabi_memclr4            0x000001dd   Gb    1  Code  Hi 
    414  __aeabi_memclr8            0x000001dd   Gb    1  Code  De 
    415  __rt_memclr_w              0x000001dd   Gb    1  Code  De   0x4e
    416  _memset_w                  0x000001e1   Gb    1  Code  De 
    417  __use_two_region_memory    0x0000022b   Gb    1  Code  Hi   0x2
    418  __rt_heap_escrow$2region   0x0000022d   Gb    1  Code  De   0x2
    419  __rt_heap_expand$2region   0x0000022f   Gb    1  Code  De   0x2
    420  __user_setup_stackheap     0x00000231   Gb    1  Code  De   0x4a
    421  exit                       0x0000027b   Gb    1  Code  De   0x12
    422  __user_libspace            0x0000028d   Wk    1  Code  De   0x8
    423  __user_perproc_libspace    0x0000028d   Wk    1  Code  De 
    424  __user_perthread_libspace  0x0000028d   Wk    1  Code  De 
    425  _sys_exit                  0x00000295   Gb    1  Code  De   0x8
    426  __I$use$semihosting        0x000002a1   Gb    1  Code  Hi 
    427  __use_no_semihosting_swi   0x000002a1   Gb    1  Code  Hi   0x2
    428  __semihosting_library_function
                                    0x000002a3   Gb    1  Code  Hi 
    429  am_bsp_debug_printf_enable 0x000002a5   Gb    1  Code  Hi   0x5a
    430  am_bsp_itm_string_print    0x00000315   Gb    1  Code  Hi   0x4
    431  am_bsp_low_power_init      0x00000319   Gb    1  Code  Hi   0x22
    432  am_hal_cachectrl_enable    0x0000033d   Gb    1  Code  Hi   0xcc
    433  am_hal_clkgen_osc_stop     0x0000040d   Gb    1  Code  Hi   0x14
    434  am_hal_clkgen_sysclk_get   0x00000421   Gb    1  Code  Hi   0x18
    435  am_hal_clkgen_sysclk_select
                                    0x00000441   Gb    1  Code  Hi   0x20
    436  am_hal_clkgen_uarten_set   0x000004a9   Gb    1  Code  Hi   0x42
    437  am_hal_debug_error         0x000004eb   Wk    1  Code  Hi   0x2
    438  am_hal_flash_delay         0x000004ed   Gb    1  Code  Hi   0x4
    439  am_hal_interrupt_enable    0x000004f5   Gb    1  Code  Hi   0x46
    440  am_hal_itm_enable          0x00000541   Gb    1  Code  Hi   0x38
    441  am_hal_itm_print           0x00000599   Gb    1  Code  Hi   0x30
    442  am_hal_mcuctrl_fault_status
                                    0x000005c9   Gb    1  Code  Hi   0x34
    443  am_hal_pwrctrl_bucks_init  0x00000601   Gb    1  Code  Hi   0x3c
    444  am_hal_pwrctrl_low_power_init
                                    0x00000641   Gb    1  Code  Hi   0x14
    445  am_hal_pwrctrl_memory_enable
                                    0x00000659   Gb    1  Code  Hi   0x174
    446  am_hal_pwrctrl_periph_enable
                                    0x000007d9   Gb    1  Code  Hi   0x70
    447  am_hal_queue_init          0x00000895   Gb    1  Code  Hi   0x16
    448  am_hal_queue_item_add      0x000008ab   Gb    1  Code  Hi   0x9e
    449  am_hal_queue_item_get      0x00000949   Gb    1  Code  Hi   0x98
    450  am_hal_rtc_osc_disable     0x000009e1   Gb    1  Code  Hi   0xe
    451  am_hal_rtc_osc_select      0x000009ef   Gb    1  Code  Hi   0x16
    452  am_hal_tpiu_enable         0x00000a05   Gb    1  Code  Hi   0x74
    453  am_hal_uart_char_receive_buffered
                                    0x00000a8d   Gb    1  Code  Hi   0x36
    454  am_hal_uart_clock_enable   0x00000ac9   Gb    1  Code  Hi   0x26
    455  am_hal_uart_config         0x00000af1   Gb    1  Code  Hi   0x8c
    456  am_hal_uart_disable        0x00000bc5   Gb    1  Code  Hi   0x2a
    457  am_hal_uart_enable         0x00000bef   Gb    1  Code  Hi   0x28
    458  am_hal_uart_fifo_config    0x00000c17   Gb    1  Code  Hi   0x16
    459  am_hal_uart_flags_get      0x00000c2d   Gb    1  Code  Hi   0xe
    460  am_hal_uart_get_status_buffered
                                    0x00000c3d   Gb    1  Code  Hi   0x22
    461  am_hal_uart_init_buffered  0x00000c69   Gb    1  Code  Hi   0x5e
    462  am_hal_uart_int_clear      0x00000cd1   Gb    1  Code  Hi   0xe
    463  am_hal_uart_int_enable     0x00000cdf   Gb    1  Code  Hi   0x12
    464  am_hal_uart_int_status_get 0x00000cf1   Gb    1  Code  Hi   0x14
    465  am_hal_uart_pwrctrl_enable 0x00000d05   Gb    1  Code  Hi   0x20
    466  am_hal_uart_service_buffered_timeout_save
                                    0x00000d69   Gb    1  Code  Hi   0xcc
    467  am_hal_uart_string_transmit_buffered
                                    0x00000e3d   Gb    1  Code  Hi   0x48
    468  am_hal_vcomp_disable       0x00000e89   Gb    1  Code  Hi   0x8
    469  am_uart_isr                0x00000e95   Gb    1  Code  Hi   0x74
    470  am_util_faultisr_collect_data
                                    0x00000f35   Gb    1  Code  Hi   0xb2
    471  am_util_stdio_printf       0x00000fed   Gb    1  Code  Hi   0x32
    472  am_util_stdio_printf_init  0x00001029   Gb    1  Code  Hi   0x6
    473  am_util_stdio_vsprintf     0x00001035   Gb    1  Code  Hi   0x3a4
    474  main                       0x00001671   Gb    1  Code  Hi   0xf2
    475  uart_enable                0x000018bd   Gb    1  Code  Hi   0x9a
    476  uart_init                  0x0000195d   Gb    1  Code  Hi   0xb2
    477  uart_transmit_delay        0x00001a21   Gb    1  Code  Hi   0x16
    478  __aeabi_d2f                0x00001b31   Gb    1  Code  Hi 
    479  _d2f                       0x00001b31   Gb    1  Code  De   0x62
    480  __fpl_dnaninf              0x00001b93   Gb    1  Code  De   0x9c
    481  _fp_init                   0x00001c2f   Gb    1  Code  De   0xa
    482  __fplib_config_fpu_vfp     0x00001c37   Gb    1  Code  De 
    483  __fplib_config_pureend_doubles
                                    0x00001c37   Gb    1  Code  De 
    484  __fpl_fretinf              0x00001c39   Gb    1  Code  De   0xa
    485  __I$use$fp                 0x00001c42   Gb    1   --   De 
    486  am_hal_cachectrl_defaults  0x00001c42   Gb    1  Data  Hi   0xc
    487  Region$$Table$$Base        0x00001c98   Gb    1   --   Hi 
    488  Region$$Table$$Limit       0x00001cb8   Gb    1   --   Hi 
    489  g_ui8RxTimeoutFlag         0x10000000   Gb    2  Data  Hi   0x1
    490  g_ui8BufferFullFlag        0x10000001   Gb    2  Data  Hi   0x1
    491  g_sUartConfig              0x10000004   Gb    2  Data  Hi   0x14
    492  g_pfnCharPrint             0x10000018   Gb    2  Data  Hi   0x4
    493  g_ui32HALflags             0x10000020   Gb    2  Data  Hi   0x4
    494  g_pui8UartRxBuffer         0x10000024   Gb    3  Data  Hi   0x100
    495  g_pui8UartTxBuffer         0x10000124   Gb    3  Data  Hi   0x100
    496  g_psTxQueue                0x10000324   Gb    3  Data  Hi   0x30
    497  g_psRxQueue                0x10000354   Gb    3  Data  Hi   0x30
    498  am_hal_uart_pwrsave        0x10000384   Gb    3  Data  Hi   0x48
    499  __libspace_start           0x100003cc   Gb    3  Data  De   0x60
    500  __temporary_stack_top$libspace
                                    0x1000042c   Gb    3  Data  De 


** Section #12 '.strtab' (SHT_STRTAB)
    Size   : 8016 bytes

            #  Offset String
        ====================================

            1      1: $d
            2      4: $t
            3      7: $d.realdata
            4     19: ../src/uart_fifo_timeout.c
            5     46: i.am_uart_isr
            6     60: i.main
            7     67: i.uart_enable
            8     81: i.uart_init
            9     93: i.uart_transmit_delay
           10    115: .bss
           11    120: .conststring
           12    133: .data
           13    139: ../../../../../utils/am_util_delay.c
           14    176: ..\..\..\..\..\utils\am_util_faultisr.c
           15    216: .emb_text
           16    226: $v0
           17    230: ../../../../../utils/am_util_faultisr.c
           18    270: i.am_util_faultisr_collect_data
           19    302: ../../../../../utils/am_util_stdio.c
           20    339: i.am_util_stdio_printf
           21    362: i.am_util_stdio_printf_init
           22    390: i.am_util_stdio_vsprintf
           23    415: i.decstr_to_int
           24    431: decstr_to_int
           25    445: i.divu64_10
           26    457: divu64_10
           27    467: i.ftoa
           28    474: ftoa
           29    479: i.ndigits_in_hex
           30    496: ndigits_in_hex
           31    511: i.ndigits_in_i64
           32    528: ndigits_in_i64
           33    543: i.ndigits_in_u64
           34    560: ndigits_in_u64
           35    575: i.padbuffer
           36    587: padbuffer
           37    597: i.simple_strlen
           38    613: simple_strlen
           39    627: i.uint64_to_hexstr
           40    646: uint64_to_hexstr
           41    663: i.uint64_to_str
           42    679: uint64_to_str
           43    693: g_prfbuf
           44    702: g_bTxtXlate
           45    714: ../keil/startup_keil.s
           46    737: STACK
           47    743: StackMem
           48    752: HEAP
           49    757: HeapMem
           50    765: RESET
           51    771: .text
           52    777: ..\am_hal_global.c
           53    796: ../am_hal_global.c
           54    815: ../am_bsp.c
           55    827: i.am_bsp_debug_printf_enable
           56    856: i.am_bsp_itm_string_print
           57    882: i.am_bsp_low_power_init
           58    906: ../am_hal_cachectrl.c
           59    928: i.am_hal_cachectrl_enable
           60    954: .constdata
           61    965: ../am_hal_clkgen.c
           62    984: i.am_hal_clkgen_osc_stop
           63   1009: i.am_hal_clkgen_sysclk_get
           64   1036: i.am_hal_clkgen_sysclk_select
           65   1066: i.am_hal_clkgen_uarten_set
           66   1093: ../am_hal_flash.c
           67   1111: i.am_hal_flash_delay
           68   1132: ..\am_hal_interrupt.c
           69   1154: ../am_hal_interrupt.c
           70   1176: i.am_hal_interrupt_enable
           71   1202: ../am_hal_itm.c
           72   1218: i.am_hal_itm_enable
           73   1238: i.am_hal_itm_print
           74   1257: ../am_hal_mcuctrl.c
           75   1277: i.am_hal_mcuctrl_fault_status
           76   1307: ../am_hal_uart.c
           77   1324: i.am_hal_uart_char_receive_buffered
           78   1360: i.am_hal_uart_clock_enable
           79   1387: i.am_hal_uart_config
           80   1408: i.am_hal_uart_disable
           81   1430: i.am_hal_uart_enable
           82   1451: i.am_hal_uart_fifo_config
           83   1477: i.am_hal_uart_flags_get
           84   1501: i.am_hal_uart_get_status_buffered
           85   1535: i.am_hal_uart_init_buffered
           86   1563: i.am_hal_uart_int_clear
           87   1587: i.am_hal_uart_int_enable
           88   1612: i.am_hal_uart_int_status_get
           89   1641: i.am_hal_uart_pwrctrl_enable
           90   1670: i.am_hal_uart_service_buffered_timeout_save
           91   1714: i.am_hal_uart_string_transmit_buffered
           92   1753: ../am_hal_debug.c
           93   1771: i.am_hal_debug_error
           94   1792: ../am_hal_gpio.c
           95   1809: ..\am_hal_iom.c
           96   1825: ../am_hal_iom.c
           97   1841: ../am_hal_pwrctrl.c
           98   1861: i.am_hal_pwrctrl_bucks_init
           99   1889: i.am_hal_pwrctrl_low_power_init
          100   1921: i.am_hal_pwrctrl_memory_enable
          101   1952: i.am_hal_pwrctrl_periph_enable
          102   1983: ../am_hal_queue.c
          103   2001: i.am_hal_queue_init
          104   2021: i.am_hal_queue_item_add
          105   2045: i.am_hal_queue_item_get
          106   2069: ../am_hal_rtc.c
          107   2085: i.am_hal_rtc_osc_disable
          108   2110: i.am_hal_rtc_osc_select
          109   2134: ../am_hal_tpiu.c
          110   2151: i.am_hal_tpiu_enable
          111   2172: ../am_hal_vcomp.c
          112   2190: i.am_hal_vcomp_disable
          113   2213: ../am_hal_i2c_bit_bang.c
          114   2238: ../am_hal_sysctrl.c
          115   2258: ../am_hal_ctimer.c
          116   2277: dc.s
          117   2282: ../clib/longlong.s
          118   2301: ../clib/memcpset.s
          119   2320: ../clib/heapaux.c
          120   2338: ../clib/angel/startup.s
          121   2362: !!!main
          122   2370: ../fplib/d2f.s
          123   2385: x$fpl$d2f
          124   2395: ../clib/angel/kernel.s
          125   2418: .ARM.Collect$$rtentry$$00000000
          126   2450: ../fplib/dnaninf.s
          127   2469: x$fpl$dnaninf
          128   2483: ../fplib/fretinf.s
          129   2502: x$fpl$fretinf
          130   2516: ../fplib/usenofp.s
          131   2535: x$fpl$usenofp
          132   2549: .ARM.Collect$$rtentry$$00000002
          133   2581: .ARM.Collect$$rtentry$$00000009
          134   2613: .ARM.Collect$$rtentry$$0000000A
          135   2645: .ARM.Collect$$rtentry$$0000000C
          136   2677: .ARM.Collect$$rtentry$$0000000D
          137   2709: .ARM.Collect$$rtentry$$00000004
          138   2741: ../clib/angel/sys.s
          139   2761: ../clib/stdlib.c
          140   2778: ../clib/angel/boardlib.s
          141   2803: ../clib/libinit.s
          142   2821: .ARM.Collect$$libinit$$00000000
          143   2853: .ARM.Collect$$rtexit$$00000000
          144   2884: .ARM.Collect$$libinit$$00000001
          145   2916: .ARM.Collect$$libinit$$00000004
          146   2948: .ARM.Collect$$libinit$$0000000A
          147   2980: .ARM.Collect$$libinit$$0000000C
          148   3012: .ARM.Collect$$libinit$$0000000E
          149   3044: .ARM.Collect$$libinit$$00000011
          150   3076: .ARM.Collect$$libinit$$00000013
          151   3108: .ARM.Collect$$libinit$$00000015
          152   3140: .ARM.Collect$$libinit$$00000017
          153   3172: .ARM.Collect$$libinit$$00000019
          154   3204: .ARM.Collect$$libinit$$0000001B
          155   3236: .ARM.Collect$$libinit$$0000001D
          156   3268: .ARM.Collect$$libinit$$0000001F
          157   3300: .ARM.Collect$$libinit$$00000021
          158   3332: .ARM.Collect$$libinit$$00000023
          159   3364: .ARM.Collect$$libinit$$00000025
          160   3396: .ARM.Collect$$libinit$$0000002C
          161   3428: .ARM.Collect$$libinit$$0000002E
          162   3460: .ARM.Collect$$libinit$$00000030
          163   3492: .ARM.Collect$$libinit$$00000032
          164   3524: .ARM.Collect$$libinit$$00000033
          165   3556: .ARM.Collect$$rtexit$$00000002
          166   3587: .ARM.Collect$$rtexit$$00000003
          167   3618: .ARM.Collect$$rtexit$$00000004
          168   3649: ../clib/armsys.c
          169   3666: ../fplib/fpinit.s
          170   3684: x$fpl$fpinit
          171   3697: ../clib/angel/sysapp.c
          172   3720: .ARM.Collect$$libshutdown$$00000000
          173   3756: ../clib/heapalloc.c
          174   3776: ../clib/signal.c
          175   3793: .ARM.Collect$$libshutdown$$00000002
          176   3829: .ARM.Collect$$libshutdown$$00000004
          177   3865: .ARM.Collect$$libshutdown$$00000007
          178   3901: .ARM.Collect$$libshutdown$$0000000A
          179   3937: .ARM.Collect$$libshutdown$$0000000C
          180   3973: .ARM.Collect$$libshutdown$$0000000F
          181   4009: .ARM.Collect$$libshutdown$$00000010
          182   4045: ../clib/angel/rt.s
          183   4064: ../clib/signal.s
          184   4081: ../clib/angel/scatter.s
          185   4105: !!!scatter
          186   4116: ../clib/angel/handlers.s
          187   4141: !!handler_copy
          188   4156: !!handler_zi
          189   4169: BuildAttributes$$THM_ISAv4$E$P$D$K$B$S$7EM$VFPi3$EXTD16$VFPS$VFMA$PE$A:L22UL41UL21$X:L11$S22US41US21$IEEE1$IW$USESV6$~STKCKD$USESV7$~SHL$OTIME$ROPI$EBA8$UX$STANDARDLIB$REQ8$PRES8$EABIv2
          190   4355: __ARM_use_no_argv
          191   4373: __Vectors
          192   4383: Reset_Handler
          193   4397: am_nmi_isr
          194   4408: am_memmanage_isr
          195   4425: am_adc_isr
          196   4436: am_brownout_isr
          197   4452: am_clkgen_isr
          198   4466: am_ctimer_isr
          199   4480: am_debugmon_isr
          200   4496: am_flash_isr
          201   4509: am_gpio_isr
          202   4521: am_iomaster0_isr
          203   4538: am_iomaster1_isr
          204   4555: am_iomaster2_isr
          205   4572: am_iomaster3_isr
          206   4589: am_iomaster4_isr
          207   4606: am_iomaster5_isr
          208   4623: am_ioslave_acc_isr
          209   4642: am_ioslave_ios_isr
          210   4661: am_pdm0_isr
          211   4673: am_pendsv_isr
          212   4687: am_software0_isr
          213   4704: am_software1_isr
          214   4721: am_software2_isr
          215   4738: am_software3_isr
          216   4755: am_stimer_cmpr0_isr
          217   4775: am_stimer_cmpr1_isr
          218   4795: am_stimer_cmpr2_isr
          219   4815: am_stimer_cmpr3_isr
          220   4835: am_stimer_cmpr4_isr
          221   4855: am_stimer_cmpr5_isr
          222   4875: am_stimer_cmpr6_isr
          223   4895: am_stimer_cmpr7_isr
          224   4915: am_stimer_isr
          225   4929: am_svcall_isr
          226   4943: am_systick_isr
          227   4958: am_uart0_isr
          228   4971: am_uart1_isr
          229   4984: am_vcomp_isr
          230   4997: am_watchdog_isr
          231   5013: __main
          232   5020: __scatterload
          233   5034: __scatterload_rt2
          234   5052: __scatterload_rt2_thumb_only
          235   5081: __scatterload_null
          236   5100: __scatterload_copy
          237   5119: __scatterload_zeroinit
          238   5142: __rt_lib_init
          239   5156: __rt_lib_init_fp_1
          240   5175: __rt_lib_init_alloca_1
          241   5198: __rt_lib_init_argv_1
          242   5219: __rt_lib_init_atexit_1
          243   5242: __rt_lib_init_clock_1
          244   5264: __rt_lib_init_cpp_1
          245   5284: __rt_lib_init_exceptions_1
          246   5311: __rt_lib_init_fp_trap_1
          247   5335: __rt_lib_init_getenv_1
          248   5358: __rt_lib_init_heap_1
          249   5379: __rt_lib_init_lc_collate_1
          250   5406: __rt_lib_init_lc_ctype_1
          251   5431: __rt_lib_init_lc_monetary_1
          252   5459: __rt_lib_init_lc_numeric_1
          253   5486: __rt_lib_init_lc_time_1
          254   5510: __rt_lib_init_preinit_1
          255   5534: __rt_lib_init_rand_1
          256   5555: __rt_lib_init_return
          257   5576: __rt_lib_init_signal_1
          258   5599: __rt_lib_init_stdio_1
          259   5621: __rt_lib_init_user_alloc_1
          260   5648: __rt_lib_shutdown
          261   5666: __rt_lib_shutdown_cpp_1
          262   5690: __rt_lib_shutdown_fp_trap_1
          263   5718: __rt_lib_shutdown_heap_1
          264   5743: __rt_lib_shutdown_return
          265   5768: __rt_lib_shutdown_signal_1
          266   5795: __rt_lib_shutdown_stdio_1
          267   5821: __rt_lib_shutdown_user_alloc_1
          268   5852: __rt_entry
          269   5863: __rt_entry_presh_1
          270   5882: __rt_entry_sh
          271   5896: __rt_entry_li
          272   5910: __rt_entry_postsh_1
          273   5930: __rt_entry_main
          274   5946: __rt_entry_postli_1
          275   5966: __rt_exit
          276   5976: __rt_exit_ls
          277   5989: __rt_exit_prels_1
          278   6007: __rt_exit_exit
          279   6022: am_fault_isr
          280   6035: getStackedReg
          281   6049: am_hal_interrupt_master_enable
          282   6080: am_hal_interrupt_master_disable
          283   6112: am_hal_interrupt_master_set
          284   6140: __user_initial_stackheap
          285   6165: __aeabi_memclr4
          286   6181: __aeabi_memclr8
          287   6197: __rt_memclr_w
          288   6211: _memset_w
          289   6221: __use_two_region_memory
          290   6245: __rt_heap_escrow$2region
          291   6270: __rt_heap_expand$2region
          292   6295: __user_setup_stackheap
          293   6318: exit
          294   6323: __user_libspace
          295   6339: __user_perproc_libspace
          296   6363: __user_perthread_libspace
          297   6389: _sys_exit
          298   6399: __I$use$semihosting
          299   6419: __use_no_semihosting_swi
          300   6444: __semihosting_library_function
          301   6475: am_bsp_debug_printf_enable
          302   6502: am_bsp_itm_string_print
          303   6526: am_bsp_low_power_init
          304   6548: am_hal_cachectrl_enable
          305   6572: am_hal_clkgen_osc_stop
          306   6595: am_hal_clkgen_sysclk_get
          307   6620: am_hal_clkgen_sysclk_select
          308   6648: am_hal_clkgen_uarten_set
          309   6673: am_hal_debug_error
          310   6692: am_hal_flash_delay
          311   6711: am_hal_interrupt_enable
          312   6735: am_hal_itm_enable
          313   6753: am_hal_itm_print
          314   6770: am_hal_mcuctrl_fault_status
          315   6798: am_hal_pwrctrl_bucks_init
          316   6824: am_hal_pwrctrl_low_power_init
          317   6854: am_hal_pwrctrl_memory_enable
          318   6883: am_hal_pwrctrl_periph_enable
          319   6912: am_hal_queue_init
          320   6930: am_hal_queue_item_add
          321   6952: am_hal_queue_item_get
          322   6974: am_hal_rtc_osc_disable
          323   6997: am_hal_rtc_osc_select
          324   7019: am_hal_tpiu_enable
          325   7038: am_hal_uart_char_receive_buffered
          326   7072: am_hal_uart_clock_enable
          327   7097: am_hal_uart_config
          328   7116: am_hal_uart_disable
          329   7136: am_hal_uart_enable
          330   7155: am_hal_uart_fifo_config
          331   7179: am_hal_uart_flags_get
          332   7201: am_hal_uart_get_status_buffered
          333   7233: am_hal_uart_init_buffered
          334   7259: am_hal_uart_int_clear
          335   7281: am_hal_uart_int_enable
          336   7304: am_hal_uart_int_status_get
          337   7331: am_hal_uart_pwrctrl_enable
          338   7358: am_hal_uart_service_buffered_timeout_save
          339   7400: am_hal_uart_string_transmit_buffered
          340   7437: am_hal_vcomp_disable
          341   7458: am_uart_isr
          342   7470: am_util_faultisr_collect_data
          343   7500: am_util_stdio_printf
          344   7521: am_util_stdio_printf_init
          345   7547: am_util_stdio_vsprintf
          346   7570: main
          347   7575: uart_enable
          348   7587: uart_init
          349   7597: uart_transmit_delay
          350   7617: __aeabi_d2f
          351   7629: _d2f
          352   7634: __fpl_dnaninf
          353   7648: _fp_init
          354   7657: __fplib_config_fpu_vfp
          355   7680: __fplib_config_pureend_doubles
          356   7711: __fpl_fretinf
          357   7725: __I$use$fp
          358   7736: am_hal_cachectrl_defaults
          359   7762: Region$$Table$$Base
          360   7782: Region$$Table$$Limit
          361   7803: g_ui8RxTimeoutFlag
          362   7822: g_ui8BufferFullFlag
          363   7842: g_sUartConfig
          364   7856: g_pfnCharPrint
          365   7871: g_ui32HALflags
          366   7886: g_pui8UartRxBuffer
          367   7905: g_pui8UartTxBuffer
          368   7924: g_psTxQueue
          369   7936: g_psRxQueue
          370   7948: am_hal_uart_pwrsave
          371   7968: __libspace_start
          372   7985: __temporary_stack_top$libspace


** Section #13 '.note' (SHT_NOTE)
    Size   : 28 bytes (alignment 4)


** Section #14 '.comment' (SHT_PROGBITS)
    Size   : 17196 bytes


** Section #15 '.shstrtab' (SHT_STRTAB)
    Size   : 148 bytes

            #  Offset String
        ====================================

            1      1: FLASH
            2      7: SRAM
            3     12: .debug_abbrev
            4     26: .debug_frame
            5     39: .debug_info
            6     51: .debug_line
            7     63: .debug_loc
            8     74: .debug_macinfo
            9     89: .debug_pubnames
           10    105: .symtab
           11    113: .strtab
           12    121: .note
           13    127: .comment
           14    136: .shstrtab
           15    146: 
           16    147: 


